##############################################################################
#                                                                            #
# IAR ARM ANSI C/C++ Compiler V4.42A/W32 EVALUATION    04/Apr/2011  00:45:14 #
# Copyright 1999-2005 IAR Systems. All rights reserved.                      #
#                                                                            #
#    Cpu mode        =  interwork                                            #
#    Endian          =  little                                               #
#    Stack alignment =  4                                                    #
#    Source file     =  C:\arm\nrss\items_menu.c                             #
#    Command line    =  C:\arm\nrss\items_menu.c -D NEWSGOLD -D ELKA -lCN    #
#                       C:\arm\nrss\Release_ELKA\List\ -la                   #
#                       C:\arm\nrss\Release_ELKA\List\ -o                    #
#                       C:\arm\nrss\Release_ELKA\Obj\ -s9 --no_unroll        #
#                       --cpu_mode arm --endian little --cpu ARM926EJ-S      #
#                       --stack_align 4 --interwork -e --fpu None            #
#                       --dlib_config "C:\arm2\Embedded Workbench 4.0        #
#                       Evaluation\ARM\LIB\dl5tpainl8n.h" -I                 #
#                       "C:\arm2\Embedded Workbench 4.0                      #
#                       Evaluation\ARM\INC\" --inline_threshold=2            #
#    List file       =  C:\arm\nrss\Release_ELKA\List\items_menu.lst         #
#    Object file     =  C:\arm\nrss\Release_ELKA\Obj\items_menu.r79          #
#                                                                            #
#                                                                            #
##############################################################################

C:\arm\nrss\items_menu.c
      1          #include "..\inc\swilib.h"
      2          #include "rect_patcher.h"
      3          #include "items_menu.h"
      4          #include "view_item.h"
      5          #include "main.h"
      6          #include "strings.h"
      7          
      8          static const HEADER_DESC items_menu_hdr = {0, 0, 0, 0, NULL, (int)"RSS2.0 Reader", LGP_NULL};
      9          
     10          static const int items_menu_softkeys[] = {0,1,2};
     11          
     12          static const SOFTKEY_DESC items_menu_sk[]=
     13          {
     14            {0x0018, 0x0000, (int)"View"},
     15            {0x0001, 0x0000, (int)"Close"},
     16            {0x003D, 0x0000, (int)LGP_DOIT_PIC}
     17          };
     18          
     19          static const SOFTKEYSTAB items_menu_skt =
     20          {
     21            items_menu_sk, 0
     22          };
     23          

   \                                 In segment CODE, align 4, keep-with-next
     24          static int items_menu_onkey(void *data, GUI_MSG *msg)
     25          {
   \                     items_menu_onkey:
   \   00000000   30402DE9           PUSH     {R4,R5,LR}
   \   00000004   0140A0E1           MOV      R4,R1
     26            int i;
     27            RSS_ITEM *p=rss_first;
   \   00000008   ........           LDR      R1,??DataTable2  ;; rss_first
   \   0000000C   005091E5           LDR      R5,[R1, #+0]
     28            i=GetCurMenuItem(data);
   \   00000010   8F0100EF           SWI      +399
     29            for (int n=0; p && n!=i; n++)
   \   00000014   0010A0E3           MOV      R1,#+0
   \   00000018   010000EA           B        ??items_menu_onkey_0
     30            {
     31              p=p->next;    
   \                     ??items_menu_onkey_1:
   \   0000001C   005095E5           LDR      R5,[R5, #+0]
     32            }
   \   00000020   011081E2           ADD      R1,R1,#+1
   \                     ??items_menu_onkey_0:
   \   00000024   000055E3           CMP      R5,#+0
   \   00000028   00005111           CMPNE    R1,R0
   \   0000002C   FAFFFF1A           BNE      ??items_menu_onkey_1
     33            if (msg->keys==0x3D || msg->keys==0x18)
   \   00000030   F200D4E1           LDRSH    R0,[R4, #+2]
   \   00000034   3D0050E3           CMP      R0,#+61
   \   00000038   18005013           CMPNE    R0,#+24
   \   0000003C   0500001A           BNE      ??items_menu_onkey_2
     34            {
     35              if (p)
   \   00000040   000055E3           CMP      R5,#+0
   \   00000044   0100000A           BEQ      ??items_menu_onkey_3
     36              {
     37                create_view_item(p);
   \   00000048   0500A0E1           MOV      R0,R5
   \   0000004C   ........           _BLF     create_view_item,??create_view_item??rA
     38              }
     39              return(-1);
   \                     ??items_menu_onkey_3:
   \   00000050   0000E0E3           MVN      R0,#+0
   \   00000054   3080BDE8           POP      {R4,R5,PC}
     40            }
     41            return (0); 
   \                     ??items_menu_onkey_2:
   \   00000058   0000A0E3           MOV      R0,#+0
   \   0000005C   3080BDE8           POP      {R4,R5,PC}       ;; return
     42          }
     43          

   \                                 In segment CODE, align 4, keep-with-next
     44          static void items_menu_ghook(void *data, int cmd)
     45          {
   \                     items_menu_ghook:
   \   00000000   00402DE9           PUSH     {LR}
     46            if (cmd==0x0A)
   \   00000004   0A0051E3           CMP      R1,#+10
   \   00000008   0080BD18           POPNE    {PC}
     47            {
     48              DisableIDLETMR();
   \   0000000C   7F0100EF           SWI      +383
     49            } 
     50          }
   \   00000010   0080BDE8           POP      {PC}             ;; return
     51          

   \                                 In segment CODE, align 4, keep-with-next
     52          static void items_menu_iconhndl(void *data, int curitem, void *user_pointer)
     53          {
   \                     items_menu_iconhndl:
   \   00000000   F0472DE9           PUSH     {R4-R10,LR}
   \   00000004   0040A0E1           MOV      R4,R0
     54            RSS_ITEM *p=rss_first;
   \   00000008   ........           LDR      R0,??DataTable2  ;; rss_first
   \   0000000C   8ADF4DE2           SUB      SP,SP,#+552
   \   00000010   009090E5           LDR      R9,[R0, #+0]
   \   00000014   0150A0E1           MOV      R5,R1
     55            void *item=AllocMLMenuItem(data);
   \   00000018   0400A0E1           MOV      R0,R4
   \   0000001C   190200EF           SWI      +537
   \   00000020   0060A0E1           MOV      R6,R0
     56            
     57            WSHDR *ws2;
     58            WSHDR *ws4;
     59          
     60            WSHDR ws1loc, *ws1;
     61            unsigned short num[128];
     62            ws1=CreateLocalWS(&ws1loc,num,128);
   \   00000024   8020A0E3           MOV      R2,#+128
   \   00000028   0D10A0E1           MOV      R1,SP
   \   0000002C   800F8DE2           ADD      R0,SP,#+512
   \   00000030   270100EF           SWI      +295
   \   00000034   0070A0E1           MOV      R7,R0
     63          
     64            WSHDR ws3loc, *ws3;
     65            unsigned short num3[128];
     66            ws3=CreateLocalWS(&ws3loc,num3,128);
   \   00000038   8020A0E3           MOV      R2,#+128
   \   0000003C   401F8DE2           ADD      R1,SP,#+256
   \   00000040   850F8DE2           ADD      R0,SP,#+532
   \   00000044   270100EF           SWI      +295
   \   00000048   0080A0E1           MOV      R8,R0
     67            
     68            for (int i=0; p && i!=curitem; i++)
   \   0000004C   0000A0E3           MOV      R0,#+0
   \   00000050   030000EA           B        ??items_menu_iconhndl_0
   \                     ??items_menu_iconhndl_1:
   \   00000054   050050E1           CMP      R0,R5
   \   00000058   0600000A           BEQ      ??items_menu_iconhndl_2
     69            {
     70              p=p->next;    
   \   0000005C   009099E5           LDR      R9,[R9, #+0]
     71            }
   \   00000060   010080E2           ADD      R0,R0,#+1
   \                     ??items_menu_iconhndl_0:
   \   00000064   000059E3           CMP      R9,#+0
   \   00000068   F9FFFF1A           BNE      ??items_menu_iconhndl_1
     72            if (p)
     73            {
     74              if (p->title)
     75              {
     76                
     77                ascii2ws(ws1, p->title);
     78              }
     79              else
     80              {
     81                ascii2ws(ws1, "Unknown title");
     82              }
     83              
     84              
     85              if (p->description)
     86              {
     87                ascii2ws(ws3, p->description);
     88              }
     89              else
     90              {
     91                ascii2ws(ws3, "No description");
     92              }
     93            }
     94            else
     95            {
     96              ascii2ws(ws1, "Error!");
   \   0000006C   8C109FE5           LDR      R1,??items_menu_iconhndl_3  ;; `?<Constant "Unknown title">` + 32
   \   00000070   0700A0E1           MOV      R0,R7
   \   00000074   0A0000EA           B        ??items_menu_iconhndl_4
     97            }
   \                     ??items_menu_iconhndl_2:
   \   00000078   041099E5           LDR      R1,[R9, #+4]
   \   0000007C   80A09FE5           LDR      R10,??items_menu_iconhndl_3+0x4  ;; `?<Constant "Unknown title">`
   \   00000080   000051E3           CMP      R1,#+0
   \   00000084   0A10A001           MOVEQ    R1,R10
   \   00000088   0700A0E1           MOV      R0,R7
   \   0000008C   ........           _BLF     ascii2ws,??ascii2ws??rA
   \   00000090   0C1099E5           LDR      R1,[R9, #+12]
   \   00000094   000051E3           CMP      R1,#+0
   \   00000098   0800A011           MOVNE    R0,R8
   \   0000009C   10108A02           ADDEQ    R1,R10,#+16
   \   000000A0   0800A001           MOVEQ    R0,R8
   \                     ??items_menu_iconhndl_4:
   \   000000A4   ........           _BLF     ascii2ws,??ascii2ws??rA
     98          
     99            ws2=AllocMenuWS(data,ws1->wsbody[0]);
   \   000000A8   000097E5           LDR      R0,[R7, #+0]
   \   000000AC   B010D0E1           LDRH     R1,[R0, #+0]
   \   000000B0   0400A0E1           MOV      R0,R4
   \   000000B4   980100EF           SWI      +408
   \   000000B8   0090A0E1           MOV      R9,R0
    100            wstrcpy(ws2,ws1);
   \   000000BC   0710A0E1           MOV      R1,R7
   \   000000C0   1F0100EF           SWI      +287
    101            
    102            ws4=AllocMenuWS(data,ws3->wsbody[0]);
   \   000000C4   000098E5           LDR      R0,[R8, #+0]
   \   000000C8   B010D0E1           LDRH     R1,[R0, #+0]
   \   000000CC   0400A0E1           MOV      R0,R4
   \   000000D0   980100EF           SWI      +408
   \   000000D4   0070A0E1           MOV      R7,R0
    103            wstrcpy(ws4,ws3);
   \   000000D8   0810A0E1           MOV      R1,R8
   \   000000DC   1F0100EF           SWI      +287
    104            
    105            SetMLMenuItemText(data, item, ws2, ws4, curitem);
   \   000000E0   20002DE9           PUSH     {R5}
   \   000000E4   0730A0E1           MOV      R3,R7
   \   000000E8   0920A0E1           MOV      R2,R9
   \   000000EC   0610A0E1           MOV      R1,R6
   \   000000F0   0400A0E1           MOV      R0,R4
   \   000000F4   180200EF           SWI      +536
    106          }
   \   000000F8   8BDF8DE2           ADD      SP,SP,#+556
   \   000000FC   F087BDE8           POP      {R4-R10,PC}      ;; return
   \                     ??items_menu_iconhndl_3:
   \   00000100   ........           DC32     `?<Constant "Unknown title">` + 32
   \   00000104   ........           DC32     `?<Constant "Unknown title">`

   \                                 In segment DATA_C, align 4, align-sorted
   \                     items_menu_hdr:
   \   00000000   000000000000       DC16 0, 0, 0, 0
   \              0000        
   \   00000008   00000000....       DC32 0H, `?<Constant "RSS2.0 Reader">`, 2147483647
   \              ....FFFFFF7F
   \   00000014   08000000....       DC32 8, items_menu_onkey, items_menu_ghook, 0H, items_menu_softkeys
   \              ............
   \              00000000....
   \              ....        
   \   00000028   ........1000       DC32 items_menu_skt, 16, items_menu_iconhndl, 0H, 0H, 0, 1
   \              0000........
   \              000000000000
   \              000000000000
   \              01000000    

   \                                 In segment DATA_C, align 4, align-sorted
   \                     items_menu_softkeys:
   \   00000000   000000000100       DC32 0, 1, 2
   \              000002000000

   \                                 In segment DATA_C, align 4, align-sorted
   \                     items_menu_sk:
   \   00000000   18000000           DC16 24, 0
   \   00000004   ........           DC32 `?<Constant "View">`
   \   00000008   01000000           DC16 1, 0
   \   0000000C   ........           DC32 `?<Constant "Close">`
   \   00000010   3D000000           DC16 61, 0
   \   00000014   FBC0FF7F           DC32 2147467515

   \                                 In segment DATA_C, align 4, align-sorted
   \                     items_menu_skt:
   \   00000000   ........0000       DC32 items_menu_sk, 0
   \              0000        
    107          
    108          
    109          static const ML_MENU_DESC items_menu_desc=
    110          {
    111            8,items_menu_onkey,items_menu_ghook,NULL,
    112            items_menu_softkeys,
    113            &items_menu_skt,
    114            0x10, //+0x400
    115            items_menu_iconhndl,
    116            NULL,   //Items
    117            NULL,   //Procs
    118            0,   //n
    119            1 //Добавочных строк  
    120          };
    121          

   \                                 In segment CODE, align 4, keep-with-next
    122          int create_rssitems_menu(void)
    123          {
    124            int i=0;
    125            RSS_ITEM *p=(RSS_ITEM *)&rss_first;
   \                     create_rssitems_menu:
   \   00000000   ........           LDR      R0,??DataTable2  ;; rss_first
   \   00000004   30402DE9           PUSH     {R4,R5,LR}
   \   00000008   0040A0E3           MOV      R4,#+0
   \   0000000C   000000EA           B        ??create_rssitems_menu_0
    126            while((p=p->next)) i++;
   \                     ??create_rssitems_menu_1:
   \   00000010   014084E2           ADD      R4,R4,#+1
   \                     ??create_rssitems_menu_0:
   \   00000014   000090E5           LDR      R0,[R0, #+0]
   \   00000018   000050E3           CMP      R0,#+0
   \   0000001C   FBFFFF1A           BNE      ??create_rssitems_menu_1
    127            patch_header(&items_menu_hdr);
   \   00000020   40509FE5           LDR      R5,??create_rssitems_menu_2  ;; items_menu_hdr
   \   00000024   B000C5E1           STRH     R0,[R5, #+0]
   \   00000028   1800A0E3           MOV      R0,#+24
   \   0000002C   B200C5E1           STRH     R0,[R5, #+2]
   \   00000030   888100EF           SWI      +33160
   \   00000034   010040E2           SUB      R0,R0,#+1
   \   00000038   B400C5E1           STRH     R0,[R5, #+4]
   \   0000003C   8A8100EF           SWI      +33162
   \   00000040   170080E2           ADD      R0,R0,#+23
   \   00000044   B600C5E1           STRH     R0,[R5, #+6]
    128            return CreateMultiLinesMenu(0,0,&items_menu_desc,&items_menu_hdr,0,i);
   \   00000048   10002DE9           PUSH     {R4}
   \   0000004C   0000A0E3           MOV      R0,#+0
   \   00000050   01002DE9           PUSH     {R0}
   \   00000054   0530A0E1           MOV      R3,R5
   \   00000058   142085E2           ADD      R2,R5,#+20
   \   0000005C   0010A0E3           MOV      R1,#+0
   \   00000060   170200EF           SWI      +535
   \   00000064   3680BDE8           POP      {R1,R2,R4,R5,PC}  ;; return
   \                     ??create_rssitems_menu_2:
   \   00000068   ........           DC32     items_menu_hdr
    129          }

   \                                 In segment CODE, align 4, keep-with-next
   \                     ??DataTable2:
   \   00000000   ........           DC32     rss_first

   \                                 In segment DATA_C, align 4, align-sorted
   \                     `?<Constant "RSS2.0 Reader">`:
   \   00000000   525353322E30       DC8 "RSS2.0 Reader"
   \              205265616465
   \              7200        
   \   0000000E   0000               DC8 0, 0

   \                                 In segment DATA_C, align 4, align-sorted
   \                     `?<Constant "View">`:
   \   00000000   5669657700         DC8 "View"
   \   00000005   000000             DC8 0, 0, 0

   \                                 In segment DATA_C, align 4, align-sorted
   \                     `?<Constant "Close">`:
   \   00000000   436C6F736500       DC8 "Close"
   \   00000006   0000               DC8 0, 0

   \                                 In segment DATA_C, align 4, align-sorted
   \                     `?<Constant "Unknown title">`:
   \   00000000   556E6B6E6F77       DC8 "Unknown title"
   \              6E207469746C
   \              6500        
   \   0000000E   0000               DC8 0, 0
   \   00000010   4E6F20646573       DC8 "No description"
   \              637269707469
   \              6F6E00      
   \   0000001F   00                 DC8 0
   \   00000020   4572726F7221       DC8 "Error!"
   \              00          
   \   00000027   00                 DC8 0
    130          
    131          
    132          
    133          
    134          

   Maximum stack usage in bytes:

     Function             CSTACK
     --------             ------
     create_rssitems_menu    20
     items_menu_ghook         4
     items_menu_iconhndl    588
     items_menu_onkey        12


   Segment part sizes:

     Function/Label              Bytes
     --------------              -----
     items_menu_onkey              96
     items_menu_ghook              20
     items_menu_iconhndl          264
     items_menu_hdr                68
     items_menu_softkeys           12
     items_menu_sk                 24
     items_menu_skt                 8
     create_rssitems_menu         108
     ??DataTable2                   4
     ?<Constant "RSS2.0 Reader">   16
     ?<Constant "View">             8
     ?<Constant "Close">            8
     ?<Constant "Unknown title">   40
      Others                       40

 
 532 bytes in segment CODE
 184 bytes in segment DATA_C
 
 492 bytes of CODE  memory (+ 40 bytes shared)
 184 bytes of CONST memory

Errors: none
Warnings: none
