################################################################################
#                                                                              #
#      IAR Universal Linker V4.60I/386                                         #
#                                                                              #
#           Link time     =  02/Jun/2011  00:16:18                             #
#           Target CPU    =  ARM                                               #
#           List file     =  C:\arm\ftp\Release_ELKA\List\NRSS.map             #
#           Output file 1 =  C:\arm\ftp\Release_ELKA\Exe\NRSS.elf              #
#                            Format: elf, variant: -ynpra                      #
#           Command line  =  C:\arm\ftp\Release_ELKA\Obj\conf_loader.r79       #
#                            C:\arm\ftp\Release_ELKA\Obj\config_data.r79       #
#                            C:\arm\ftp\Release_ELKA\Obj\func.r79              #
#                            C:\arm\ftp\Release_ELKA\Obj\main.r79              #
#                            C:\arm\ftp\Release_ELKA\Obj\strings.r79 -o        #
#                            C:\arm\ftp\Release_ELKA\Exe\NRSS.elf -Felf -l     #
#                            C:\arm\ftp\Release_ELKA\List\NRSS.map -xms        #
#                            "-IC:\arm2\Embedded Workbench 4.0 Evaluation\ARM\ #
#                            LIB\"                                             #
#                            -f C:\arm\ftp\test.xcl (-carm                     #
#                            -V(CODE)CODE_AREA,12 -V(DATA)DATA_AREA,12         #
#                            -Z(CODE_AREA)ELFBEGIN,DATA_ID,START,CODE,DATA_C,I #
#                            NITTAB,DATA_Z,DATA_N,CONFIG_C=0-FFFFFFFF          #
#                            -Z(DATA_AREA)DATA_I=0-FFFFFFFF) -ynpra            #
#                            "C:\arm2\Embedded Workbench 4.0 Evaluation\ARM\LI #
#                            B\dl5tpainl8n.r79"                                #
#                            -s main                                           #
#                                                                              #
#                        Copyright 1987-2007 IAR Systems. All rights reserved. #
################################################################################





                ****************************************
                *                                      *
                *           CROSS REFERENCE            *
                *                                      *
                ****************************************

       Program entry at : CODE_AREA 00000CF8  Relocatable, from module : main




                ****************************************
                *                                      *
                *            RUNTIME MODEL             *
                *                                      *
                ****************************************

  StackAlign4  = USED
  __cpu_mode   = __pcs__interwork
  __data_model = absolute
  __endian     = little
  __rt_version = 6



                ****************************************
                *                                      *
                *              MODULE MAP              *
                *                                      *
                ****************************************


  DEFINED ABSOLUTE ENTRIES
    *************************************************************************

  DEFINED ABSOLUTE ENTRIES
    *************************************************************************

  FILE NAME : C:\arm\ftp\Release_ELKA\Obj\conf_loader.r79
  PROGRAM MODULE, NAME : conf_loader

  SEGMENTS IN THE MODULE
  ======================
DATA_I
  Relative segment, address: DATA_AREA 00000000 - 00000003 (0x4 bytes), align: 2
  Segment part 4.             Intra module refs:   LoadConfigData
           ENTRY                   ADDRESS         REF BY
           =====                   =======         ======
           successed_config_filename
                                   00000000        maincsm_onmessage (main)
    -------------------------------------------------------------------------
CODE
  Relative segment, address: CODE_AREA 00000004 - 00000133 (0x130 bytes), align: 2
  Segment part 7.             Intra module refs:   InitConfig
           ENTRY                   ADDRESS         REF BY
           =====                   =======         ======
           LoadConfigData          00000004 
               stack 1 = 00000000 ( 00000030 )
    -------------------------------------------------------------------------
CODE
  Relative segment, address: CODE_AREA 00000134 - 0000015B (0x28 bytes), align: 2
  Segment part 9.
           ENTRY                   ADDRESS         REF BY
           =====                   =======         ======
           InitConfig              00000134        main (main)
                                                   maincsm_onmessage (main)
               stack 1 = 00000000 ( 00000008 )
    -------------------------------------------------------------------------
DATA_ID
  Relative segment, address: CODE_AREA 00000000 - 00000003 (0x4 bytes), align: 2
  Segment part 5.             Intra module refs:   successed_config_filename
    -------------------------------------------------------------------------
INITTAB
  Relative segment, address: CODE_AREA 00000F94 - 00000F9F (0xc bytes), align: 2
  Segment part 11. ROOT.
           ENTRY                   ADDRESS         REF BY
           =====                   =======         ======
           ?init?tab?DATA_I        00000F94 
    -------------------------------------------------------------------------
DATA_C
  Relative segment, address: CODE_AREA 00000F90 - 00000F90 (0x1 bytes), align: 0
  Segment part 2.             Intra module refs:   Segment part 5
    -------------------------------------------------------------------------
DATA_C
  Relative segment, address: CODE_AREA 00000D80 - 00000DAF (0x30 bytes), align: 2
  Segment part 3.             Intra module refs:   InitConfig

    *************************************************************************

  FILE NAME : C:\arm\ftp\Release_ELKA\Obj\config_data.r79
  PROGRAM MODULE, NAME : config_data

  SEGMENTS IN THE MODULE
  ======================
CONFIG_C
  Relative segment, address: CODE_AREA 00001214 - 0000123F (0x2c bytes), align: 2
  Segment part 2. ROOT.
           ENTRY                   ADDRESS         REF BY
           =====                   =======         ======
           cfghdr0                 00001214 
    -------------------------------------------------------------------------
CONFIG_C
  Relative segment, address: CODE_AREA 00001240 - 000012BF (0x80 bytes), align: 2
  Segment part 3. ROOT.
           ENTRY                   ADDRESS         REF BY
           =====                   =======         ======
           RSS_URL                 00001240 

    *************************************************************************

  FILE NAME : C:\arm\ftp\Release_ELKA\Obj\func.r79
  PROGRAM MODULE, NAME : func

  SEGMENTS IN THE MODULE
  ======================
ELFBEGIN
  Relative segment, address: CODE_AREA 00000000, align: 0
  Segment part 0. ROOT.
           ENTRY                   ADDRESS         REF BY
           =====                   =======         ======
           ELF_BEGIN               00000000 
    -------------------------------------------------------------------------
CODE
  Relative segment, address: CODE_AREA 0000015C - 00000163 (0x8 bytes), align: 2
  Segment part 1. ROOT.
           ENTRY                   ADDRESS         REF BY
           =====                   =======         ======
           kill_data               0000015C        ElfKiller (main)
                                                   gui_methods (main)
           seqkill                 00000160 

    *************************************************************************

  FILE NAME : C:\arm\ftp\Release_ELKA\Obj\main.r79
  PROGRAM MODULE, NAME : main

  SEGMENTS IN THE MODULE
  ======================
DATA_C
  Relative segment, address: CODE_AREA 00000DB0 - 00000DF7 (0x48 bytes), align: 2
  Segment part 2.             Intra module refs:   OnRedraw
           ENTRY                   ADDRESS         REF BY
           =====                   =======         ======
           _percent_t              00000DB0 
    -------------------------------------------------------------------------
DATA_C
  Relative segment, address: CODE_AREA 00000DF8 - 00000E2F (0x38 bytes), align: 2
  Segment part 3.             Intra module refs:   maincsm_onmessage
    -------------------------------------------------------------------------
DATA_C
  Relative segment, address: CODE_AREA 00000E30 - 00000E57 (0x28 bytes), align: 2
  Segment part 4.             Intra module refs:   send_req
    -------------------------------------------------------------------------
DATA_C
  Relative segment, address: CODE_AREA 00000E58 - 00000E5F (0x8 bytes), align: 2
  Segment part 6.             Intra module refs:   get_answer
    -------------------------------------------------------------------------
DATA_C
  Relative segment, address: CODE_AREA 00000E60 - 00000E6B (0xc bytes), align: 2
  Segment part 8.             Intra module refs:   savebuf
    -------------------------------------------------------------------------
DATA_C
  Relative segment, address: CODE_AREA 00000E6C - 00000F13 (0xa8 bytes), align: 2
  Segment part 9.             Intra module refs:   create_connect
    -------------------------------------------------------------------------
CODE
  Relative segment, address: CODE_AREA 00000164 - 0000018F (0x2c bytes), align: 2
  Segment part 27.            Intra module refs:   OnKey
                                                   create_connect
                                                   get_answer
                                                   maincsm_onmessage
                                                   send_answer
           ENTRY                   ADDRESS         REF BY
           =====                   =======         ======
           SMART_REDRAW            00000164 
               stack 1 = 00000000 ( 00000008 )
    -------------------------------------------------------------------------
CODE
  Relative segment, address: CODE_AREA 00000190 - 00000203 (0x74 bytes), align: 2
  Segment part 31.            Intra module refs:   create_connect
           ENTRY                   ADDRESS         REF BY
           =====                   =======         ======
           get_host_from_url       00000190 
               stack 1 = 00000000 ( 00000010 )
    -------------------------------------------------------------------------
CODE
  Relative segment, address: CODE_AREA 00000204 - 000003B7 (0x1b4 bytes), align: 2
  Segment part 33.            Intra module refs:   Segment part 77
           ENTRY                   ADDRESS         REF BY
           =====                   =======         ======
           create_connect          00000204 
               stack 1 = 00000000 ( 000000AC )
    -------------------------------------------------------------------------
CODE
  Relative segment, address: CODE_AREA 000003B8 - 000003D7 (0x20 bytes), align: 2
  Segment part 35.            Intra module refs:   free_socket
                                                   maincsm_onmessage
           ENTRY                   ADDRESS         REF BY
           =====                   =======         ======
           free_recv_buf           000003B8 
               stack 1 = 00000000 ( 00000004 )
    -------------------------------------------------------------------------
CODE
  Relative segment, address: CODE_AREA 000003D8 - 00000447 (0x70 bytes), align: 2
  Segment part 37.            Intra module refs:   get_answer
           ENTRY                   ADDRESS         REF BY
           =====                   =======         ======
           savebuf                 000003D8 
               stack 1 = 00000000 ( 00000010 )
    -------------------------------------------------------------------------
CODE
  Relative segment, address: CODE_AREA 00000448 - 000005BB (0x174 bytes), align: 2
  Segment part 39.            Intra module refs:   maincsm_onmessage
           ENTRY                   ADDRESS         REF BY
           =====                   =======         ======
           get_answer              00000448 
               stack 1 = 00000000 ( 00000814 )
    -------------------------------------------------------------------------
CODE
  Relative segment, address: CODE_AREA 000005BC - 000005DB (0x20 bytes), align: 2
  Segment part 41.            Intra module refs:   free_socket
                                                   maincsm_onmessage
           ENTRY                   ADDRESS         REF BY
           =====                   =======         ======
           free_send_buf           000005BC 
               stack 1 = 00000000 ( 00000004 )
    -------------------------------------------------------------------------
CODE
  Relative segment, address: CODE_AREA 000005DC - 000006CF (0xf4 bytes), align: 2
  Segment part 43.            Intra module refs:   maincsm_onmessage
                                                   send_req
           ENTRY                   ADDRESS         REF BY
           =====                   =======         ======
           send_answer             000005DC 
               stack 1 = 00000000 ( 00000010 )
    -------------------------------------------------------------------------
CODE
  Relative segment, address: CODE_AREA 000006D0 - 000006F7 (0x28 bytes), align: 2
  Segment part 45.            Intra module refs:   maincsm_onmessage
           LOCAL                   ADDRESS         
           =====                   =======         
           end_socket              000006D0 
               stack 1 = 00000000 ( 00000008 )
    -------------------------------------------------------------------------
CODE
  Relative segment, address: CODE_AREA 000006F8 - 0000071F (0x28 bytes), align: 2
  Segment part 47.            Intra module refs:   Segment part 78
           LOCAL                   ADDRESS         
           =====                   =======         
           free_socket             000006F8 
               stack 1 = 00000000 ( 00000004 )
    -------------------------------------------------------------------------
DATA_Z
  Relative segment, address: CODE_AREA 00000FAC - 000010E7 (0x13c bytes), align: 2
  Segment part 14.            Intra module refs:   Segment part 62
                                                   Segment part 76
                                                   main
                                                   send_req
           ENTRY                   ADDRESS         REF BY
           =====                   =======         ======
           ALLTOTALRECEIVED        00000FC0 
           ALLTOTALSENDED          00000FC4 
           DNR_ID                  00000FBC 
           DNR_TRIES               00000FB8 
           buffer                  00000FDC 
           connect_state           00000FB0 
           ftp_state               00000FE4 
           is_gprs_online          00000FB4 
           logmsg                  00000FE8 
           receive_mode            00000FE0 
           recv_buf                00000FC8 
           recv_buf_len            00000FCC 
           recv_len                00000FD8 
           send_buf                00000FD0 
           send_buf_len            00000FD4 
           sock                    00000FAC 
    -------------------------------------------------------------------------
DATA_Z
  Relative segment, address: CODE_AREA 000010E8 - 000010F7 (0x10 bytes), align: 2
  Segment part 16.            Intra module refs:   maincsm_onclose
           ENTRY                   ADDRESS         REF BY
           =====                   =======         ======
           mytmr                   000010E8 
    -------------------------------------------------------------------------
DATA_Z
  Relative segment, address: CODE_AREA 000010F8 - 000010FB (0x4 bytes), align: 2
  Segment part 18.            Intra module refs:   Segment part 69
           ENTRY                   ADDRESS         REF BY
           =====                   =======         ======
           maingui_id              000010F8 
    -------------------------------------------------------------------------
CODE
  Relative segment, address: CODE_AREA 00000720 - 000007BF (0xa0 bytes), align: 2
  Segment part 49.            Intra module refs:   OnKey
                                                   maincsm_onmessage
           ENTRY                   ADDRESS         REF BY
           =====                   =======         ======
           send_req                00000720 
               stack 1 = 00000000 ( 0000020C )
    -------------------------------------------------------------------------
CODE
  Relative segment, address: CODE_AREA 000007C0 - 0000092B (0x16c bytes), align: 2
  Segment part 51.            Intra module refs:   gui_methods
           LOCAL                   ADDRESS         
           =====                   =======         
           OnRedraw                000007C0 
               stack 1 = 00000000 ( 00000048 )
    -------------------------------------------------------------------------
CODE
  Relative segment, address: CODE_AREA 0000092C - 0000094B (0x20 bytes), align: 2
  Segment part 53.            Intra module refs:   gui_methods
           LOCAL                   ADDRESS         
           =====                   =======         
           onCreate                0000092C 
               stack 1 = 00000000 ( 00000008 )
    -------------------------------------------------------------------------
CODE
  Relative segment, address: CODE_AREA 0000094C - 00000963 (0x18 bytes), align: 2
  Segment part 55.            Intra module refs:   gui_methods
           LOCAL                   ADDRESS         
           =====                   =======         
           onClose                 0000094C 
               stack 1 = 00000000 ( 00000004 )
    -------------------------------------------------------------------------
CODE
  Relative segment, address: CODE_AREA 00000964 - 00000977 (0x14 bytes), align: 2
  Segment part 57.            Intra module refs:   gui_methods
           LOCAL                   ADDRESS         
           =====                   =======         
           onFocus                 00000964 
               stack 1 = 00000000 ( 00000004 )
    -------------------------------------------------------------------------
CODE
  Relative segment, address: CODE_AREA 00000978 - 0000098B (0x14 bytes), align: 2
  Segment part 59.            Intra module refs:   gui_methods
           LOCAL                   ADDRESS         
           =====                   =======         
           onUnfocus               00000978 
    -------------------------------------------------------------------------
CODE
  Relative segment, address: CODE_AREA 0000098C - 00000A03 (0x78 bytes), align: 2
  Segment part 61.            Intra module refs:   gui_methods
           LOCAL                   ADDRESS         
           =====                   =======         
           OnKey                   0000098C 
               stack 1 = 00000000 ( 00000004 )
    -------------------------------------------------------------------------
CODE
  Relative segment, address: CODE_AREA 00000A04 - 00000A07 (0x4 bytes), align: 2
  Segment part 62.            Intra module refs:   OnKey
                                                   OnRedraw
                                                   free_recv_buf
                                                   free_send_buf
                                                   savebuf
    -------------------------------------------------------------------------
CODE
  Relative segment, address: CODE_AREA 00000A08 - 00000A0F (0x8 bytes), align: 2
  Segment part 64.            Intra module refs:   gui_methods
           ENTRY                   ADDRESS         REF BY
           =====                   =======         ======
           method8                 00000A08 
    -------------------------------------------------------------------------
CODE
  Relative segment, address: CODE_AREA 00000A10 - 00000A17 (0x8 bytes), align: 2
  Segment part 66.            Intra module refs:   gui_methods
           ENTRY                   ADDRESS         REF BY
           =====                   =======         ======
           method9                 00000A10 
    -------------------------------------------------------------------------
CODE
  Relative segment, address: CODE_AREA 00000A18 - 00000AA3 (0x8c bytes), align: 2
  Segment part 68.            Intra module refs:   Segment part 13
           LOCAL                   ADDRESS         
           =====                   =======         
           maincsm_oncreate        00000A18 
               stack 1 = 00000000 ( 00000010 )
    -------------------------------------------------------------------------
CODE
  Relative segment, address: CODE_AREA 00000AA4 - 00000AA7 (0x4 bytes), align: 2
  Segment part 69.            Intra module refs:   SMART_REDRAW
                                                   maincsm_oncreate
    -------------------------------------------------------------------------
CODE
  Relative segment, address: CODE_AREA 00000AA8 - 00000AC3 (0x1c bytes), align: 2
  Segment part 71.            Intra module refs:   maincsm_onclose
           ENTRY                   ADDRESS         REF BY
           =====                   =======         ======
           ElfKiller               00000AA8 
               stack 1 = 00000000 ( 00000004 )
    -------------------------------------------------------------------------
CODE
  Relative segment, address: CODE_AREA 00000AC4 - 00000AEB (0x28 bytes), align: 2
  Segment part 73.            Intra module refs:   Segment part 13
           LOCAL                   ADDRESS         
           =====                   =======         
           maincsm_onclose         00000AC4 
               stack 1 = 00000000 ( 00000004 )
    -------------------------------------------------------------------------
CODE
  Relative segment, address: CODE_AREA 00000AEC - 00000CCF (0x1e4 bytes), align: 2
  Segment part 75.            Intra module refs:   Segment part 13
           LOCAL                   ADDRESS         
           =====                   =======         
           maincsm_onmessage       00000AEC 
               stack 1 = 00000000 ( 00000018 )
    -------------------------------------------------------------------------
CODE
  Relative segment, address: CODE_AREA 00000CD0 - 00000CD3 (0x4 bytes), align: 2
  Segment part 76.            Intra module refs:   create_connect
                                                   end_socket
                                                   free_socket
                                                   get_answer
                                                   maincsm_onmessage
                                                   send_answer
    -------------------------------------------------------------------------
CODE
  Relative segment, address: CODE_AREA 00000CD4 - 00000CD7 (0x4 bytes), align: 2
  Segment part 77.            Intra module refs:   OnKey
                                                   maincsm_onmessage
    -------------------------------------------------------------------------
CODE
  Relative segment, address: CODE_AREA 00000CD8 - 00000CDB (0x4 bytes), align: 2
  Segment part 78.            Intra module refs:   maincsm_onclose
                                                   maincsm_onmessage
    -------------------------------------------------------------------------
DATA_Z
  Relative segment, address: CODE_AREA 000010FC - 00001213 (0x118 bytes), align: 2
  Segment part 24.            Intra module refs:   Segment part 13
    -------------------------------------------------------------------------
DATA_C
  Relative segment, address: CODE_AREA 00000F14 - 00000F57 (0x44 bytes), align: 2
  Segment part 13.            Intra module refs:   UpdateCSMname
                                                   main
    -------------------------------------------------------------------------
DATA_C
  Relative segment, address: CODE_AREA 00000F58 - 00000F8B (0x34 bytes), align: 2
  Segment part 23.            Intra module refs:   maincsm_oncreate
           ENTRY                   ADDRESS         REF BY
           =====                   =======         ======
           gui_methods             00000F60 
    -------------------------------------------------------------------------
DATA_C
  Relative segment, address: CODE_AREA 00000F8C - 00000F8F (0x4 bytes), align: 2
  Segment part 25.            Intra module refs:   Segment part 13
    -------------------------------------------------------------------------
CODE
  Relative segment, address: CODE_AREA 00000CDC - 00000CF7 (0x1c bytes), align: 2
  Segment part 80.            Intra module refs:   main
           ENTRY                   ADDRESS         REF BY
           =====                   =======         ======
           UpdateCSMname           00000CDC 
               stack 1 = 00000000 ( 00000004 )
    -------------------------------------------------------------------------
CODE
  Relative segment, address: CODE_AREA 00000CF8 - 00000D4F (0x58 bytes), align: 2
  Segment part 82.
           ENTRY                   ADDRESS         REF BY
           =====                   =======         ======
           main                    00000CF8        Absolute parts (?ABS_ENTRY_MOD)
               stack 1 = 00000000 ( 00000030 )
    -------------------------------------------------------------------------
INITTAB
  Relative segment, address: CODE_AREA 00000FA0 - 00000FAB (0xc bytes), align: 2
  Segment part 88. ROOT.
           ENTRY                   ADDRESS         REF BY
           =====                   =======         ======
           ?init?tab?DATA_Z        00000FA0 

    *************************************************************************

  FILE NAME : C:\arm\ftp\Release_ELKA\Obj\strings.r79
  PROGRAM MODULE, NAME : strings

  SEGMENTS IN THE MODULE
  ======================
CODE
  Relative segment, address: CODE_AREA 00000D50 - 00000D7F (0x30 bytes), align: 2
  Segment part 7.
           ENTRY                   ADDRESS         REF BY
           =====                   =======         ======
           strcmp_nocase           00000D50        maincsm_onmessage (main)




                ****************************************
                *                                      *
                *      SEGMENTS IN ADDRESS ORDER       *
                *                                      *
                ****************************************


SEGMENT              SPACE    START ADDRESS   END ADDRESS     SIZE  TYPE  ALIGN
=======              =====    =============   ===========     ====  ====  =====
ELFBEGIN             CODE_AREA           00000000                     rel    0
DATA_ID              CODE_AREA      00000000 - 00000003           4   rel    2
START                CODE_AREA           00000004                     dse    0
CODE                 CODE_AREA      00000004 - 00000D7F         D7C   rel    2
DATA_C               CODE_AREA      00000D80 - 00000F90         211   rel    2
INITTAB              CODE_AREA      00000F94 - 00000FAB          18   rel    2
DATA_Z               CODE_AREA      00000FAC - 00001213         268   rel    2
DATA_N               CODE_AREA           00001214                     dse    0
CONFIG_C             CODE_AREA      00001214 - 000012BF          AC   rel    2
DATA_I               DATA_AREA      00000000 - 00000003           4   rel    2

                ****************************************
                *                                      *
                *        END OF CROSS REFERENCE        *
                *                                      *
                ****************************************

 4 797 bytes of CODE memory
     4 bytes of DATA memory

Errors: none
Warnings: none

