##############################################################################
#                                                                            #
# IAR ARM ANSI C/C++ Compiler V4.42A/W32 EVALUATION    07/Jul/2010  13:09:21 #
# Copyright 1999-2005 IAR Systems. All rights reserved.                      #
#                                                                            #
#    Cpu mode        =  interwork                                            #
#    Endian          =  little                                               #
#    Stack alignment =  4                                                    #
#    Source file     =  C:\arm\splayer\item_info.c                           #
#    Command line    =  C:\arm\splayer\item_info.c -D NEWSGOLD -D ELKA -D    #
#                       OBS -lC C:\arm\splayer\Release_ELKA\List\ -o         #
#                       C:\arm\splayer\Release_ELKA\Obj\ -s9 --no_unroll     #
#                       --no_clustering --cpu_mode arm --endian little       #
#                       --cpu ARM926EJ-S --stack_align 4 --interwork -e      #
#                       --fpu None --dlib_config "C:\arm2\Embedded           #
#                       Workbench 4.0 Evaluation\ARM\LIB\dl5tpainl8n.h" -I   #
#                       "C:\arm2\Embedded Workbench 4.0                      #
#                       Evaluation\ARM\INC\" --inline_threshold=2            #
#    List file       =  C:\arm\splayer\Release_ELKA\List\item_info.lst       #
#    Object file     =  C:\arm\splayer\Release_ELKA\Obj\item_info.r79        #
#                                                                            #
#                                                                            #
##############################################################################

C:\arm\splayer\item_info.c
      1          #include "..\inc\swilib.h"
      2          #include "langpack.h"
      3          #include "item_info.h"
      4          #include "mainmenu.h"
      5          #include "main.h"
      6          #include "ID3Genres.h"

   \                                 In segment DATA_C, align 4, align-sorted
   \   static char const *const __data ID3v1_genre[148]
   \                     ID3v1_genre:
   \   00000000   ............       DC32 `?<Constant "Blues">`, `?<Constant "Classic Rock">`
   \              ....        
   \   00000008   ............       DC32 `?<Constant "Country">`, `?<Constant "Dance">`
   \              ....        
   \   00000010   ............       DC32 `?<Constant "Disco">`, `?<Constant "Funk">`
   \              ....        
   \   00000018   ............       DC32 `?<Constant "Grunge">`, `?<Constant "Hip-Hop">`
   \              ....        
   \   00000020   ............       DC32 `?<Constant "Jazz">`, `?<Constant "Metal">`
   \              ....        
   \   00000028   ............       DC32 `?<Constant "New Age">`, `?<Constant "Oldies">`
   \              ....        
   \   00000030   ............       DC32 `?<Constant "Other">`, `?<Constant "Pop">`, `?<Constant "R&B">`
   \              ............
   \   0000003C   ............       DC32 `?<Constant "Rap">`, `?<Constant "Reggae">`, `?<Constant "Rock">`
   \              ............
   \   00000048   ............       DC32 `?<Constant "Techno">`, `?<Constant "Industrial">`
   \              ....        
   \   00000050   ............       DC32 `?<Constant "Alternative">`, `?<Constant "Ska">`
   \              ....        
   \   00000058   ............       DC32 `?<Constant "Death Metal">`, `?<Constant "Pranks">`
   \              ....        
   \   00000060   ............       DC32 `?<Constant "Soundtrack">`, `?<Constant "Euro-Techno">`
   \              ....        
   \   00000068   ............       DC32 `?<Constant "Ambient">`, `?<Constant "Trip-Hop">`
   \              ....        
   \   00000070   ............       DC32 `?<Constant "Vocal">`, `?<Constant "Jazz+Funk">`
   \              ....        
   \   00000078   ............       DC32 `?<Constant "Fusion">`, `?<Constant "Trance">`
   \              ....        
   \   00000080   ............       DC32 `?<Constant "Classical">`, `?<Constant "Instrumental">`
   \              ....        
   \   00000088   ............       DC32 `?<Constant "Acid">`, `?<Constant "House">`, `?<Constant "Game">`
   \              ............
   \   00000094   ............       DC32 `?<Constant "Sound Clip">`, `?<Constant "Gospel">`
   \              ....        
   \   0000009C   ............       DC32 `?<Constant "Noise">`, `?<Constant "Alternative Rock">`
   \              ....        
   \   000000A4   ............       DC32 `?<Constant "Bass">`, `?<Constant "Soul">`, `?<Constant "Punk">`
   \              ............
   \   000000B0   ............       DC32 `?<Constant "Space">`, `?<Constant "Meditative">`
   \              ....        
   \   000000B8   ........           DC32 `?<Constant "Instrumental Pop">`
   \   000000BC   ............       DC32 `?<Constant "Instrumental Rock">`, `?<Constant "Ethnic">`
   \              ....        
   \   000000C4   ............       DC32 `?<Constant "Gothic">`, `?<Constant "Darkwave">`
   \              ....        
   \   000000CC   ............       DC32 `?<Constant "Techno-Industrial">`, `?<Constant "Electronic">`
   \              ....        
   \   000000D4   ............       DC32 `?<Constant "Pop-Folk">`, `?<Constant "Eurodance">`
   \              ....        
   \   000000DC   ............       DC32 `?<Constant "Dream">`, `?<Constant "Southern Rock">`
   \              ....        
   \   000000E4   ............       DC32 `?<Constant "Comedy">`, `?<Constant "Cult">`
   \              ....        
   \   000000EC   ............       DC32 `?<Constant "Gangsta">`, `?<Constant "Top 40">`
   \              ....        
   \   000000F4   ............       DC32 `?<Constant "Christian Rap">`, `?<Constant "Pop/Funk">`
   \              ....        
   \   000000FC   ............       DC32 `?<Constant "Jungle">`, `?<Constant "Native American">`
   \              ....        
   \   00000104   ............       DC32 `?<Constant "Cabaret">`, `?<Constant "New Wave">`
   \              ....        
   \   0000010C   ............       DC32 `?<Constant "Psychadelic">`, `?<Constant "Rave">`
   \              ....        
   \   00000114   ............       DC32 `?<Constant "Showtunes">`, `?<Constant "Trailer">`
   \              ....        
   \   0000011C   ............       DC32 `?<Constant "Lo-Fi">`, `?<Constant "Tribal">`
   \              ....        
   \   00000124   ............       DC32 `?<Constant "Acid Punk">`, `?<Constant "Acid Jazz">`
   \              ....        
   \   0000012C   ............       DC32 `?<Constant "Polka">`, `?<Constant "Retro">`
   \              ....        
   \   00000134   ............       DC32 `?<Constant "Musical">`, `?<Constant "Rock & Roll">`
   \              ....        
   \   0000013C   ............       DC32 `?<Constant "Hard Rock">`, `?<Constant "Folk">`
   \              ....        
   \   00000144   ............       DC32 `?<Constant "Folk/Rock">`, `?<Constant "National Folk">`
   \              ....        
   \   0000014C   ............       DC32 `?<Constant "Swing">`, `?<Constant "Fast-Fusion">`
   \              ....        
   \   00000154   ............       DC32 `?<Constant "Bebob">`, `?<Constant "Latin">`
   \              ....        
   \   0000015C   ............       DC32 `?<Constant "Revival">`, `?<Constant "Celtic">`
   \              ....        
   \   00000164   ............       DC32 `?<Constant "Bluegrass">`, `?<Constant "Avantgarde">`
   \              ....        
   \   0000016C   ............       DC32 `?<Constant "Gothic Rock">`, `?<Constant "Progressive Rock">`
   \              ....        
   \   00000174   ............       DC32 `?<Constant "Psychedelic Rock">`, `?<Constant "Symphonic Rock">`
   \              ....        
   \   0000017C   ............       DC32 `?<Constant "Slow Rock">`, `?<Constant "Big Band">`
   \              ....        
   \   00000184   ............       DC32 `?<Constant "Chorus">`, `?<Constant "Easy Listening">`
   \              ....        
   \   0000018C   ............       DC32 `?<Constant "Acoustic">`, `?<Constant "Humour">`
   \              ....        
   \   00000194   ............       DC32 `?<Constant "Speech">`, `?<Constant "Chanson">`
   \              ....        
   \   0000019C   ............       DC32 `?<Constant "Opera">`, `?<Constant "Chamber Music">`
   \              ....        
   \   000001A4   ............       DC32 `?<Constant "Sonata">`, `?<Constant "Symphony">`
   \              ....        
   \   000001AC   ............       DC32 `?<Constant "Booty Bass">`, `?<Constant "Primus">`
   \              ....        
   \   000001B4   ............       DC32 `?<Constant "Porn Groove">`, `?<Constant "Satire">`
   \              ....        
   \   000001BC   ............       DC32 `?<Constant "Slow Jam">`, `?<Constant "Club">`
   \              ....        
   \   000001C4   ............       DC32 `?<Constant "Tango">`, `?<Constant "Samba">`
   \              ....        
   \   000001CC   ............       DC32 `?<Constant "Folklore">`, `?<Constant "Ballad">`
   \              ....        
   \   000001D4   ............       DC32 `?<Constant "Power Ballad">`, `?<Constant "Rhythmic Soul">`
   \              ....        
   \   000001DC   ............       DC32 `?<Constant "Freestyle">`, `?<Constant "Duet">`
   \              ....        
   \   000001E4   ............       DC32 `?<Constant "Punk Rock">`, `?<Constant "Drum Solo">`
   \              ....        
   \   000001EC   ............       DC32 `?<Constant "A Capella">`, `?<Constant "Euro-House">`
   \              ....        
   \   000001F4   ............       DC32 `?<Constant "Dance Hall">`, `?<Constant "Goa">`
   \              ....        
   \   000001FC   ............       DC32 `?<Constant "Drum & Bass">`, `?<Constant "Club-House">`
   \              ....        
   \   00000204   ............       DC32 `?<Constant "Hardcore">`, `?<Constant "Terror">`
   \              ....        
   \   0000020C   ............       DC32 `?<Constant "Indie">`, `?<Constant "BritPop">`
   \              ....        
   \   00000214   ............       DC32 `?<Constant "Negerpunk">`, `?<Constant "Polsk Punk">`
   \              ....        
   \   0000021C   ............       DC32 `?<Constant "Beat">`, `?<Constant "Christian Gangsta">`
   \              ....        
   \   00000224   ............       DC32 `?<Constant "Heavy Metal">`, `?<Constant "Black Metal">`
   \              ....        
   \   0000022C   ............       DC32 `?<Constant "Crossover">`, `?<Constant "Contemporary Christian">`
   \              ....        
   \   00000234   ............       DC32 `?<Constant "Christian Rock">`, `?<Constant "Merengue">`
   \              ....        
   \   0000023C   ............       DC32 `?<Constant "Salsa">`, `?<Constant "Thrash Metal">`
   \              ....        
   \   00000244   ............       DC32 `?<Constant "Anime">`, `?<Constant "JPop">`
   \              ....        
   \   0000024C   ........           DC32 `?<Constant "Synthpop">`
      7          
      8          #define MAX_SYMB 1024

   \                                 In segment DATA_Z, align 4, align-sorted
      9          WSHDR* ws_info = NULL;
   \                     ws_info:
   \   00000000                      DS8 4
     10          

   \                                 In segment CODE, align 4, keep-with-next
     11          int info_onkey(GUI *gui, GUI_MSG *msg)
     12          {
     13            if (msg->keys==0x18)
   \                     info_onkey:
   \   00000000   F200D1E1           LDRSH    R0,[R1, #+2]
   \   00000004   180050E3           CMP      R0,#+24
     14            {
     15              return(-1); //do redraw
   \   00000008   0000E003           MVNEQ    R0,#+0
   \   0000000C   1EFF2F01           BXEQ     LR
     16            }
     17            return(0); //Do standart keys
   \   00000010   0000A0E3           MOV      R0,#+0
   \   00000014   1EFF2FE1           BX       LR               ;; return
     18          
     19          }
     20          

   \                                 In segment CODE, align 4, keep-with-next
     21          void info_ghook(GUI *gui, int cmd)
     22          {
   \                     info_ghook:
   \   00000000   10402DE9           PUSH     {R4,LR}
     23            if (cmd==2)
     24            {
     25              //Called after onCreate
     26            }
     27          
     28            if (cmd==7)
     29            {
     30          
     31            }
     32          
     33            if(cmd==0xA)
   \   00000004   0A0051E3           CMP      R1,#+10
   \   00000008   0100001A           BNE      ??info_ghook_0
     34            {
     35              DisableIDLETMR();   // Отключаем таймер выхода по таймауту
   \   0000000C   7F0100EF           SWI      +383
   \   00000010   1080BDE8           POP      {R4,PC}
     36            }
     37          
     38            if(cmd==0x03)     // onDestroy
   \                     ??info_ghook_0:
   \   00000014   030051E3           CMP      R1,#+3
   \   00000018   1080BD18           POPNE    {R4,PC}
     39            {
     40              FreeWS(ws_info);
   \   0000001C   ........           LDR      R4,??DataTable1  ;; ws_info
   \   00000020   000094E5           LDR      R0,[R4, #+0]
   \   00000024   290100EF           SWI      +297
     41              ws_info = NULL;
   \   00000028   0000A0E3           MOV      R0,#+0
   \   0000002C   000084E5           STR      R0,[R4, #+0]
     42            }
     43          }
   \   00000030   1080BDE8           POP      {R4,PC}          ;; return
     44          

   \                                 In segment DATA_I, align 4, align-sorted
     45          SOFTKEY_DESC info_sk[]=
   \                     info_sk:
   \   00000000                      DS8 24
   \   00000018                      REQUIRE `?<Initializer for info_sk>`
     46          {
     47            {0x0018,0x0000,NULL},
     48            {0x0001,0x0000,NULL},
     49            {0x003D,0x0000,(int)LGP_DOIT_PIC}
     50          };
     51          

   \                                 In segment DATA_I, align 4, align-sorted
     52          SOFTKEYSTAB info_skt=
   \                     info_skt:
   \   00000000                      DS8 8
   \   00000008                      REQUIRE `?<Initializer for info_skt>`
     53          {
     54            info_sk,0
     55          };
     56          

   \                                 In segment DATA_I, align 4, align-sorted
     57          INPUTDIA_DESC info_desc=
   \                     info_desc:
   \   00000000                      DS8 56
   \   00000038                      REQUIRE `?<Initializer for info_desc>`
     58          {
     59            1,
     60            info_onkey,
     61            info_ghook,
     62            (void *)inp_locret,
     63            0,
     64            &info_skt,
     65            {0,0,0,0},
     66            4,
     67            100,
     68            101,
     69            0,
     70            0,
     71            0x40000000// Поменять софт-кнопки
     72          };
     73          

   \                                 In segment DATA_I, align 4, align-sorted
     74          HEADER_DESC info_hdr={0,0,0,0,NULL,NULL,LGP_NULL};
   \                     info_hdr:
   \   00000000                      DS8 20
   \   00000014                      REQUIRE `?<Initializer for info_hdr>`
     75          

   \                                 In segment CODE, align 4, keep-with-next
     76          void Disp_Info(ID3TAGDATA *tag)
     77          {
   \                     Disp_Info:
   \   00000000   F0432DE9           PUSH     {R4-R9,LR}
     78            // Теперь выполним приготовление самого диалога ввода
     79            ws_info = AllocWS(MAX_SYMB);
   \   00000004   ........           LDR      R6,??DataTable1  ;; ws_info
   \   00000008   2CD04DE2           SUB      SP,SP,#+44
     80            EDITCONTROL ec;
     81            void *ma=malloc_adr();
     82            void *eq;
     83            PrepareEditControl(&ec);
     84            eq=AllocEQueue(ma,mfree_adr());
     85            
     86            // Маленькая хитрость - пустой элемент, принимающий фокус ввода, в начале списка
     87            wsprintf(ws_info,"");
     88            ConstructEditControl(&ec,ECT_READ_ONLY,0,ws_info,1);
     89            AddEditControlToEditQend(eq,&ec,ma);
     90            
     91          /*  // File
     92            wsprintf(ws_info,"%t",lgpData[LGP_Full_name]);
     93            ConstructEditControl(&ec,ECT_HEADER,ECF_APPEND_EOL,ws_info,30);
     94            AddEditControlToEditQend(eq,&ec,ma);
     95            
     96            wsprintf(ws_info,"%t",tag->full_name);
     97            ConstructEditControl(&ec,ECT_NORMAL_TEXT,ECF_APPEND_EOL,ws_info,256);
     98            AddEditControlToEditQend(eq,&ec,ma);
     99            // Size
    100            wsprintf(ws_info,"%t",lgpData[LGP_Size]);
    101            ConstructEditControl(&ec,ECT_HEADER,ECF_APPEND_EOL,ws_info,30);
    102            AddEditControlToEditQend(eq,&ec,ma);
    103            FSTATS stat;
    104            unsigned int err;
    105            int fsize;
    106            GetFileStats(tag->full_name,&stat,&err);
    107            fsize=stat.size;
    108            wsprintf(ws_info,"%i",fsize);
    109            ConstructEditControl(&ec,ECT_NORMAL_TEXT,ECF_APPEND_EOL,ws_info,128);
    110            AddEditControlToEditQend(eq,&ec,ma);*/
    111            // Title
    112            if(strlen(tag->title))
   \   0000000C   ........           LDR      R9,??DataTable3  ;; lgpData
   \   00000010   0050A0E1           MOV      R5,R0
   \   00000014   400EA0E3           MOV      R0,#+1024
   \   00000018   250100EF           SWI      +293
   \   0000001C   000086E5           STR      R0,[R6, #+0]
   \   00000020   148000EF           SWI      +32788
   \   00000024   0070A0E1           MOV      R7,R0
   \   00000028   0D00A0E1           MOV      R0,SP
   \   0000002C   640100EF           SWI      +356
   \   00000030   158000EF           SWI      +32789
   \   00000034   0010A0E1           MOV      R1,R0
   \   00000038   0700A0E1           MOV      R0,R7
   \   0000003C   630100EF           SWI      +355
   \   00000040   0040A0E1           MOV      R4,R0
   \   00000044   000096E5           LDR      R0,[R6, #+0]
   \   00000048   F21F8FE2           ADR      R1,??Disp_Info_0  ;; ""
   \   0000004C   240100EF           SWI      +292
   \   00000050   0100A0E3           MOV      R0,#+1
   \   00000054   01002DE9           PUSH     {R0}
   \   00000058   003096E5           LDR      R3,[R6, #+0]
   \   0000005C   0020A0E3           MOV      R2,#+0
   \   00000060   0010A0E3           MOV      R1,#+0
   \   00000064   04008DE2           ADD      R0,SP,#+4
   \   00000068   650100EF           SWI      +357
   \   0000006C   0720A0E1           MOV      R2,R7
   \   00000070   04108DE2           ADD      R1,SP,#+4
   \   00000074   0400A0E1           MOV      R0,R4
   \   00000078   660100EF           SWI      +358
   \   0000007C   E68F8FE2           ADR      R8,??Disp_Info_0+0x4  ;; "%t"
   \   00000080   030085E2           ADD      R0,R5,#+3
   \   00000084   1B0000EF           SWI      +27
   \   00000088   000050E3           CMP      R0,#+0
   \   0000008C   04D08DE2           ADD      SP,SP,#+4
   \   00000090   1E00000A           BEQ      ??Disp_Info_1
    113            {
    114              wsprintf(ws_info,"%t",lgpData[LGP_Title]);
   \   00000094   442099E5           LDR      R2,[R9, #+68]
   \   00000098   000096E5           LDR      R0,[R6, #+0]
   \   0000009C   0810A0E1           MOV      R1,R8
   \   000000A0   240100EF           SWI      +292
    115              ConstructEditControl(&ec,ECT_HEADER,ECF_APPEND_EOL,ws_info,30);
   \   000000A4   1E00A0E3           MOV      R0,#+30
   \   000000A8   01002DE9           PUSH     {R0}
   \   000000AC   003096E5           LDR      R3,[R6, #+0]
   \   000000B0   4020A0E3           MOV      R2,#+64
   \   000000B4   0110A0E3           MOV      R1,#+1
   \   000000B8   04008DE2           ADD      R0,SP,#+4
   \   000000BC   650100EF           SWI      +357
    116              AddEditControlToEditQend(eq,&ec,ma);
   \   000000C0   0720A0E1           MOV      R2,R7
   \   000000C4   04108DE2           ADD      R1,SP,#+4
   \   000000C8   0400A0E1           MOV      R0,R4
   \   000000CC   660100EF           SWI      +358
    117            
    118              wsprintf(ws_info,"%t",tag->title);
   \   000000D0   000096E5           LDR      R0,[R6, #+0]
   \   000000D4   032085E2           ADD      R2,R5,#+3
   \   000000D8   0810A0E1           MOV      R1,R8
   \   000000DC   240100EF           SWI      +292
    119              ConstructEditControl(&ec,ECT_NORMAL_TEXT,ECF_APPEND_EOL,ws_info,30);
   \   000000E0   1E00A0E3           MOV      R0,#+30
   \   000000E4   01002DE9           PUSH     {R0}
   \   000000E8   003096E5           LDR      R3,[R6, #+0]
   \   000000EC   4020A0E3           MOV      R2,#+64
   \   000000F0   0310A0E3           MOV      R1,#+3
   \   000000F4   08008DE2           ADD      R0,SP,#+8
   \   000000F8   650100EF           SWI      +357
    120              AddEditControlToEditQend(eq,&ec,ma);
   \   000000FC   0720A0E1           MOV      R2,R7
   \   00000100   08108DE2           ADD      R1,SP,#+8
   \   00000104   0400A0E1           MOV      R0,R4
   \   00000108   660100EF           SWI      +358
   \   0000010C   08D08DE2           ADD      SP,SP,#+8
    121            }
    122            // Artist
    123            if(strlen(tag->artist))
   \                     ??Disp_Info_1:
   \   00000110   210085E2           ADD      R0,R5,#+33
   \   00000114   1B0000EF           SWI      +27
   \   00000118   000050E3           CMP      R0,#+0
   \   0000011C   1E00000A           BEQ      ??Disp_Info_2
    124            {
    125              wsprintf(ws_info,"%t",lgpData[LGP_Artist]);
   \   00000120   482099E5           LDR      R2,[R9, #+72]
   \   00000124   000096E5           LDR      R0,[R6, #+0]
   \   00000128   0810A0E1           MOV      R1,R8
   \   0000012C   240100EF           SWI      +292
    126              ConstructEditControl(&ec,ECT_HEADER,ECF_APPEND_EOL,ws_info,30);
   \   00000130   1E00A0E3           MOV      R0,#+30
   \   00000134   01002DE9           PUSH     {R0}
   \   00000138   003096E5           LDR      R3,[R6, #+0]
   \   0000013C   4020A0E3           MOV      R2,#+64
   \   00000140   0110A0E3           MOV      R1,#+1
   \   00000144   04008DE2           ADD      R0,SP,#+4
   \   00000148   650100EF           SWI      +357
    127              AddEditControlToEditQend(eq,&ec,ma);
   \   0000014C   0720A0E1           MOV      R2,R7
   \   00000150   04108DE2           ADD      R1,SP,#+4
   \   00000154   0400A0E1           MOV      R0,R4
   \   00000158   660100EF           SWI      +358
    128            
    129              wsprintf(ws_info,"%t",tag->artist);
   \   0000015C   000096E5           LDR      R0,[R6, #+0]
   \   00000160   212085E2           ADD      R2,R5,#+33
   \   00000164   0810A0E1           MOV      R1,R8
   \   00000168   240100EF           SWI      +292
    130              ConstructEditControl(&ec,ECT_NORMAL_TEXT,ECF_APPEND_EOL,ws_info,30);
   \   0000016C   1E00A0E3           MOV      R0,#+30
   \   00000170   01002DE9           PUSH     {R0}
   \   00000174   003096E5           LDR      R3,[R6, #+0]
   \   00000178   4020A0E3           MOV      R2,#+64
   \   0000017C   0310A0E3           MOV      R1,#+3
   \   00000180   08008DE2           ADD      R0,SP,#+8
   \   00000184   650100EF           SWI      +357
    131              AddEditControlToEditQend(eq,&ec,ma);
   \   00000188   0720A0E1           MOV      R2,R7
   \   0000018C   08108DE2           ADD      R1,SP,#+8
   \   00000190   0400A0E1           MOV      R0,R4
   \   00000194   660100EF           SWI      +358
   \   00000198   08D08DE2           ADD      SP,SP,#+8
    132            }
    133            // Album
    134            if(strlen(tag->album))
   \                     ??Disp_Info_2:
   \   0000019C   3F0085E2           ADD      R0,R5,#+63
   \   000001A0   1B0000EF           SWI      +27
   \   000001A4   000050E3           CMP      R0,#+0
   \   000001A8   1E00000A           BEQ      ??Disp_Info_3
    135            {
    136              wsprintf(ws_info,"%t",lgpData[LGP_Album]);
   \   000001AC   4C2099E5           LDR      R2,[R9, #+76]
   \   000001B0   000096E5           LDR      R0,[R6, #+0]
   \   000001B4   0810A0E1           MOV      R1,R8
   \   000001B8   240100EF           SWI      +292
    137              ConstructEditControl(&ec,ECT_HEADER,ECF_APPEND_EOL,ws_info,30);
   \   000001BC   1E00A0E3           MOV      R0,#+30
   \   000001C0   01002DE9           PUSH     {R0}
   \   000001C4   003096E5           LDR      R3,[R6, #+0]
   \   000001C8   4020A0E3           MOV      R2,#+64
   \   000001CC   0110A0E3           MOV      R1,#+1
   \   000001D0   04008DE2           ADD      R0,SP,#+4
   \   000001D4   650100EF           SWI      +357
    138              AddEditControlToEditQend(eq,&ec,ma);
   \   000001D8   0720A0E1           MOV      R2,R7
   \   000001DC   04108DE2           ADD      R1,SP,#+4
   \   000001E0   0400A0E1           MOV      R0,R4
   \   000001E4   660100EF           SWI      +358
    139              
    140              wsprintf(ws_info,"%t",tag->album);
   \   000001E8   000096E5           LDR      R0,[R6, #+0]
   \   000001EC   3F2085E2           ADD      R2,R5,#+63
   \   000001F0   0810A0E1           MOV      R1,R8
   \   000001F4   240100EF           SWI      +292
    141              ConstructEditControl(&ec,ECT_NORMAL_TEXT,ECF_APPEND_EOL,ws_info,30);
   \   000001F8   1E00A0E3           MOV      R0,#+30
   \   000001FC   01002DE9           PUSH     {R0}
   \   00000200   003096E5           LDR      R3,[R6, #+0]
   \   00000204   4020A0E3           MOV      R2,#+64
   \   00000208   0310A0E3           MOV      R1,#+3
   \   0000020C   08008DE2           ADD      R0,SP,#+8
   \   00000210   650100EF           SWI      +357
    142              AddEditControlToEditQend(eq,&ec,ma);
   \   00000214   0720A0E1           MOV      R2,R7
   \   00000218   08108DE2           ADD      R1,SP,#+8
   \   0000021C   0400A0E1           MOV      R0,R4
   \   00000220   660100EF           SWI      +358
   \   00000224   08D08DE2           ADD      SP,SP,#+8
    143            }
    144            // Year
    145            if(strlen(tag->year))
   \                     ??Disp_Info_3:
   \   00000228   5D0085E2           ADD      R0,R5,#+93
   \   0000022C   1B0000EF           SWI      +27
   \   00000230   000050E3           CMP      R0,#+0
   \   00000234   1E00000A           BEQ      ??Disp_Info_4
    146            {
    147              wsprintf(ws_info,"%t",lgpData[LGP_Year]);
   \   00000238   502099E5           LDR      R2,[R9, #+80]
   \   0000023C   000096E5           LDR      R0,[R6, #+0]
   \   00000240   0810A0E1           MOV      R1,R8
   \   00000244   240100EF           SWI      +292
    148              ConstructEditControl(&ec,ECT_HEADER,ECF_APPEND_EOL,ws_info,30);
   \   00000248   1E00A0E3           MOV      R0,#+30
   \   0000024C   01002DE9           PUSH     {R0}
   \   00000250   003096E5           LDR      R3,[R6, #+0]
   \   00000254   4020A0E3           MOV      R2,#+64
   \   00000258   0110A0E3           MOV      R1,#+1
   \   0000025C   04008DE2           ADD      R0,SP,#+4
   \   00000260   650100EF           SWI      +357
    149              AddEditControlToEditQend(eq,&ec,ma);
   \   00000264   0720A0E1           MOV      R2,R7
   \   00000268   04108DE2           ADD      R1,SP,#+4
   \   0000026C   0400A0E1           MOV      R0,R4
   \   00000270   660100EF           SWI      +358
    150            
    151              wsprintf(ws_info,"%t",tag->year);
   \   00000274   000096E5           LDR      R0,[R6, #+0]
   \   00000278   5D2085E2           ADD      R2,R5,#+93
   \   0000027C   0810A0E1           MOV      R1,R8
   \   00000280   240100EF           SWI      +292
    152              ConstructEditControl(&ec,ECT_NORMAL_TEXT,ECF_APPEND_EOL,ws_info,4);
   \   00000284   0400A0E3           MOV      R0,#+4
   \   00000288   01002DE9           PUSH     {R0}
   \   0000028C   003096E5           LDR      R3,[R6, #+0]
   \   00000290   4020A0E3           MOV      R2,#+64
   \   00000294   0310A0E3           MOV      R1,#+3
   \   00000298   08008DE2           ADD      R0,SP,#+8
   \   0000029C   650100EF           SWI      +357
    153              AddEditControlToEditQend(eq,&ec,ma);
   \   000002A0   0720A0E1           MOV      R2,R7
   \   000002A4   08108DE2           ADD      R1,SP,#+8
   \   000002A8   0400A0E1           MOV      R0,R4
   \   000002AC   660100EF           SWI      +358
   \   000002B0   08D08DE2           ADD      SP,SP,#+8
    154            }
    155            // Comment
    156            if(strlen(tag->comment))
   \                     ??Disp_Info_4:
   \   000002B4   610085E2           ADD      R0,R5,#+97
   \   000002B8   1B0000EF           SWI      +27
   \   000002BC   000050E3           CMP      R0,#+0
   \   000002C0   1E00000A           BEQ      ??Disp_Info_5
    157            {
    158              wsprintf(ws_info,"%t",lgpData[LGP_Comment]);
   \   000002C4   542099E5           LDR      R2,[R9, #+84]
   \   000002C8   000096E5           LDR      R0,[R6, #+0]
   \   000002CC   0810A0E1           MOV      R1,R8
   \   000002D0   240100EF           SWI      +292
    159              ConstructEditControl(&ec,ECT_HEADER,ECF_APPEND_EOL,ws_info,30);
   \   000002D4   1E00A0E3           MOV      R0,#+30
   \   000002D8   01002DE9           PUSH     {R0}
   \   000002DC   003096E5           LDR      R3,[R6, #+0]
   \   000002E0   4020A0E3           MOV      R2,#+64
   \   000002E4   0110A0E3           MOV      R1,#+1
   \   000002E8   04008DE2           ADD      R0,SP,#+4
   \   000002EC   650100EF           SWI      +357
    160              AddEditControlToEditQend(eq,&ec,ma);
   \   000002F0   0720A0E1           MOV      R2,R7
   \   000002F4   04108DE2           ADD      R1,SP,#+4
   \   000002F8   0400A0E1           MOV      R0,R4
   \   000002FC   660100EF           SWI      +358
    161            
    162              wsprintf(ws_info,"%t",tag->comment);
   \   00000300   000096E5           LDR      R0,[R6, #+0]
   \   00000304   612085E2           ADD      R2,R5,#+97
   \   00000308   0810A0E1           MOV      R1,R8
   \   0000030C   240100EF           SWI      +292
    163              ConstructEditControl(&ec,ECT_NORMAL_TEXT,ECF_APPEND_EOL,ws_info,30);
   \   00000310   1E00A0E3           MOV      R0,#+30
   \   00000314   01002DE9           PUSH     {R0}
   \   00000318   003096E5           LDR      R3,[R6, #+0]
   \   0000031C   4020A0E3           MOV      R2,#+64
   \   00000320   0310A0E3           MOV      R1,#+3
   \   00000324   08008DE2           ADD      R0,SP,#+8
   \   00000328   650100EF           SWI      +357
    164              AddEditControlToEditQend(eq,&ec,ma);
   \   0000032C   0720A0E1           MOV      R2,R7
   \   00000330   08108DE2           ADD      R1,SP,#+8
   \   00000334   0400A0E1           MOV      R0,R4
   \   00000338   660100EF           SWI      +358
   \   0000033C   08D08DE2           ADD      SP,SP,#+8
    165            }
    166            // Number
    167            if(tag->version1_1&&tag->number)
   \                     ??Disp_Info_5:
   \   00000340   880095E5           LDR      R0,[R5, #+136]
   \   00000344   000050E3           CMP      R0,#+0
   \   00000348   80009515           LDRNE    R0,[R5, #+128]
   \   0000034C   00005013           CMPNE    R0,#+0
   \   00000350   1E00000A           BEQ      ??Disp_Info_6
    168            {
    169              wsprintf(ws_info,"%t",lgpData[LGP_Number]);
   \   00000354   582099E5           LDR      R2,[R9, #+88]
   \   00000358   000096E5           LDR      R0,[R6, #+0]
   \   0000035C   0810A0E1           MOV      R1,R8
   \   00000360   240100EF           SWI      +292
    170              ConstructEditControl(&ec,ECT_HEADER,ECF_APPEND_EOL,ws_info,30);
   \   00000364   1E00A0E3           MOV      R0,#+30
   \   00000368   01002DE9           PUSH     {R0}
   \   0000036C   003096E5           LDR      R3,[R6, #+0]
   \   00000370   4020A0E3           MOV      R2,#+64
   \   00000374   0110A0E3           MOV      R1,#+1
   \   00000378   04008DE2           ADD      R0,SP,#+4
   \   0000037C   650100EF           SWI      +357
    171              AddEditControlToEditQend(eq,&ec,ma);
   \   00000380   0720A0E1           MOV      R2,R7
   \   00000384   04108DE2           ADD      R1,SP,#+4
   \   00000388   0400A0E1           MOV      R0,R4
   \   0000038C   660100EF           SWI      +358
    172              
    173              wsprintf(ws_info,"%i",tag->number);
   \   00000390   802095E5           LDR      R2,[R5, #+128]
   \   00000394   000096E5           LDR      R0,[R6, #+0]
   \   00000398   421F8FE2           ADR      R1,??Disp_Info_7  ;; "%i"
   \   0000039C   240100EF           SWI      +292
    174              ConstructEditControl(&ec,ECT_NORMAL_TEXT,ECF_APPEND_EOL,ws_info,128);
   \   000003A0   8000A0E3           MOV      R0,#+128
   \   000003A4   01002DE9           PUSH     {R0}
   \   000003A8   003096E5           LDR      R3,[R6, #+0]
   \   000003AC   4020A0E3           MOV      R2,#+64
   \   000003B0   0310A0E3           MOV      R1,#+3
   \   000003B4   08008DE2           ADD      R0,SP,#+8
   \   000003B8   650100EF           SWI      +357
    175              AddEditControlToEditQend(eq,&ec,ma);
   \   000003BC   0720A0E1           MOV      R2,R7
   \   000003C0   08108DE2           ADD      R1,SP,#+8
   \   000003C4   0400A0E1           MOV      R0,R4
   \   000003C8   660100EF           SWI      +358
   \   000003CC   08D08DE2           ADD      SP,SP,#+8
    176            }
    177            // Genre
    178            if(tag->genre<149)
   \                     ??Disp_Info_6:
   \   000003D0   840095E5           LDR      R0,[R5, #+132]
   \   000003D4   950050E3           CMP      R0,#+149
   \   000003D8   230000AA           BGE      ??Disp_Info_8
    179            {
    180              wsprintf(ws_info,"%t",lgpData[LGP_Genre]);
   \   000003DC   5C2099E5           LDR      R2,[R9, #+92]
   \   000003E0   000096E5           LDR      R0,[R6, #+0]
   \   000003E4   0810A0E1           MOV      R1,R8
   \   000003E8   240100EF           SWI      +292
    181              ConstructEditControl(&ec,ECT_HEADER,ECF_APPEND_EOL,ws_info,30);
   \   000003EC   1E00A0E3           MOV      R0,#+30
   \   000003F0   01002DE9           PUSH     {R0}
   \   000003F4   003096E5           LDR      R3,[R6, #+0]
   \   000003F8   4020A0E3           MOV      R2,#+64
   \   000003FC   0110A0E3           MOV      R1,#+1
   \   00000400   04008DE2           ADD      R0,SP,#+4
   \   00000404   650100EF           SWI      +357
    182              AddEditControlToEditQend(eq,&ec,ma);
   \   00000408   0720A0E1           MOV      R2,R7
   \   0000040C   04108DE2           ADD      R1,SP,#+4
   \   00000410   0400A0E1           MOV      R0,R4
   \   00000414   010000EA           B        ??Disp_Info_9
   \                     ??Disp_Info_0:
   \   00000418   00000000           DC8      "",+0,+0,+0
   \   0000041C   25740000           DC8      "%t",+0
   \                     ??Disp_Info_9:
   \   00000420   660100EF           SWI      +358
    183            
    184              wsprintf(ws_info,"%t",ID3v1_genre[tag->genre]);
   \   00000424   840095E5           LDR      R0,[R5, #+132]
   \   00000428   7C109FE5           LDR      R1,??Disp_Info_7+0x4  ;; ID3v1_genre
   \   0000042C   002191E7           LDR      R2,[R1, +R0, LSL #+2]
   \   00000430   000096E5           LDR      R0,[R6, #+0]
   \   00000434   0810A0E1           MOV      R1,R8
   \   00000438   240100EF           SWI      +292
    185              ConstructEditControl(&ec,ECT_NORMAL_TEXT,ECF_APPEND_EOL,ws_info,128);
   \   0000043C   8000A0E3           MOV      R0,#+128
   \   00000440   01002DE9           PUSH     {R0}
   \   00000444   003096E5           LDR      R3,[R6, #+0]
   \   00000448   4020A0E3           MOV      R2,#+64
   \   0000044C   0310A0E3           MOV      R1,#+3
   \   00000450   08008DE2           ADD      R0,SP,#+8
   \   00000454   650100EF           SWI      +357
    186              AddEditControlToEditQend(eq,&ec,ma);
   \   00000458   0720A0E1           MOV      R2,R7
   \   0000045C   08108DE2           ADD      R1,SP,#+8
   \   00000460   0400A0E1           MOV      R0,R4
   \   00000464   660100EF           SWI      +358
   \   00000468   08D08DE2           ADD      SP,SP,#+8
    187            }
    188            
    189            patch_header(&info_hdr);
   \                     ??Disp_Info_8:
   \   0000046C   3C509FE5           LDR      R5,??Disp_Info_7+0x8  ;; info_hdr
    190            patch_input(&info_desc);
   \   00000470   3C609FE5           LDR      R6,??Disp_Info_7+0xC  ;; info_desc
   \   00000474   0500A0E1           MOV      R0,R5
   \   00000478   ........           _BLF     patch_header,??patch_header??rA
   \   0000047C   0600A0E1           MOV      R0,R6
   \   00000480   ........           _BLF     patch_input,??patch_input??rA
    191            CreateInputTextDialog(&info_desc,&info_hdr,eq,1,0);
   \   00000484   0000A0E3           MOV      R0,#+0
   \   00000488   01002DE9           PUSH     {R0}
   \   0000048C   0130A0E3           MOV      R3,#+1
   \   00000490   0420A0E1           MOV      R2,R4
   \   00000494   0510A0E1           MOV      R1,R5
   \   00000498   0600A0E1           MOV      R0,R6
   \   0000049C   670100EF           SWI      +359
    192          }
   \   000004A0   30D08DE2           ADD      SP,SP,#+48
   \   000004A4   F083BDE8           POP      {R4-R9,PC}       ;; return
   \                     ??Disp_Info_7:
   \   000004A8   25690000           DC8      "%i",+0
   \   000004AC   ........           DC32     ID3v1_genre
   \   000004B0   ........           DC32     info_hdr
   \   000004B4   ........           DC32     info_desc
    193          

   \                                 In segment CODE, align 4, keep-with-next
    194          void initItemInfoLangPack() //Инициализировать язык  - Vedan
    195          {
    196            info_sk[0].lgp_id=(int)lgpData[LGP_SELECT];
   \                     initItemInfoLangPack:
   \   00000000   ........           LDR      R1,??DataTable3  ;; lgpData
   \   00000004   1C009FE5           LDR      R0,??initItemInfoLangPack_0  ;; info_sk
   \   00000008   1C2091E5           LDR      R2,[R1, #+28]
   \   0000000C   042080E5           STR      R2,[R0, #+4]
    197            info_sk[1].lgp_id=(int)lgpData[LGP_BACK];
   \   00000010   202091E5           LDR      R2,[R1, #+32]
    198            info_hdr.lgp_id=(int)lgpData[LGP_ID3_Tag_Info];
   \   00000014   381091E5           LDR      R1,[R1, #+56]
   \   00000018   0C2080E5           STR      R2,[R0, #+12]
   \   0000001C   08009FE5           LDR      R0,??initItemInfoLangPack_0+0x4  ;; info_hdr + 12
   \   00000020   001080E5           STR      R1,[R0, #+0]
    199          }
   \   00000024   1EFF2FE1           BX       LR               ;; return
   \                     ??initItemInfoLangPack_0:
   \   00000028   ........           DC32     info_sk
   \   0000002C   ........           DC32     info_hdr + 12

   \                                 In segment CODE, align 4, keep-with-next
   \                     ??DataTable1:
   \   00000000   ........           DC32     ws_info

   \                                 In segment CODE, align 4, keep-with-next
   \                     ??DataTable3:
   \   00000000   ........           DC32     lgpData

   \                                 In segment DATA_ID, align 4, align-sorted
   \                     `?<Initializer for info_sk>`:
   \   00000000   18000000           DC16 24, 0
   \   00000004   00000000           DC32 0
   \   00000008   01000000           DC16 1, 0
   \   0000000C   00000000           DC32 0
   \   00000010   3D000000           DC16 61, 0
   \   00000014   FBC0FF7F           DC32 2147467515

   \                                 In segment DATA_ID, align 4, align-sorted
   \                     `?<Initializer for info_skt>`:
   \   00000000   ........0000       DC32 info_sk, 0
   \              0000        

   \                                 In segment DATA_ID, align 4, align-sorted
   \                     `?<Initializer for info_desc>`:
   \   00000000   01000000....       DC32 1, info_onkey, info_ghook, inp_locret, 0, info_skt
   \              ............
   \              ........0000
   \              0000........
   \   00000018   000000000000       DC16 0, 0, 0, 0
   \              0000        
   \   00000020   040000006400       DC32 4, 100, 101, 0, 0, 1073741824
   \              000065000000
   \              000000000000
   \              000000000040

   \                                 In segment DATA_ID, align 4, align-sorted
   \                     `?<Initializer for info_hdr>`:
   \   00000000   000000000000       DC16 0, 0, 0, 0
   \              0000        
   \   00000008   000000000000       DC32 0H, 0, 2147483647
   \              0000FFFFFF7F

   \                                 In segment DATA_C, align 4, align-sorted
   \                     `?<Constant "Pop">`:
   \   00000000   506F7000           DC8 "Pop"

   \                                 In segment DATA_C, align 4, align-sorted
   \                     `?<Constant "Anime">`:
   \   00000000   416E696D6500       DC8 "Anime"
   \   00000006   0000               DC8 0, 0

   \                                 In segment DATA_C, align 4, align-sorted
   \                     `?<Constant "JPop">`:
   \   00000000   4A506F7000         DC8 "JPop"
   \   00000005   000000             DC8 0, 0, 0

   \                                 In segment DATA_C, align 4, align-sorted
   \                     `?<Constant "Synthpop">`:
   \   00000000   53796E746870       DC8 "Synthpop"
   \              6F7000      
   \   00000009   000000             DC8 0, 0, 0

   \                                 In segment DATA_C, align 1, align-sorted
   \   00000000   00                 DC8 ""

   \                                 In segment DATA_C, align 1, align-sorted
   \   00000000   257400             DC8 "%t"

   \                                 In segment DATA_C, align 4, align-sorted
   \                     `?<Constant "Blues">`:
   \   00000000   426C75657300       DC8 "Blues"
   \   00000006   0000               DC8 0, 0

   \                                 In segment DATA_C, align 4, align-sorted
   \                     `?<Constant "Classic Rock">`:
   \   00000000   436C61737369       DC8 "Classic Rock"
   \              6320526F636B
   \              00          
   \   0000000D   000000             DC8 0, 0, 0

   \                                 In segment DATA_C, align 4, align-sorted
   \                     `?<Constant "Country">`:
   \   00000000   436F756E7472       DC8 "Country"
   \              7900        

   \                                 In segment DATA_C, align 4, align-sorted
   \                     `?<Constant "Dance">`:
   \   00000000   44616E636500       DC8 "Dance"
   \   00000006   0000               DC8 0, 0

   \                                 In segment DATA_C, align 4, align-sorted
   \                     `?<Constant "Disco">`:
   \   00000000   446973636F00       DC8 "Disco"
   \   00000006   0000               DC8 0, 0

   \                                 In segment DATA_C, align 4, align-sorted
   \                     `?<Constant "Funk">`:
   \   00000000   46756E6B00         DC8 "Funk"
   \   00000005   000000             DC8 0, 0, 0

   \                                 In segment DATA_C, align 4, align-sorted
   \                     `?<Constant "Grunge">`:
   \   00000000   4772756E6765       DC8 "Grunge"
   \              00          
   \   00000007   00                 DC8 0

   \                                 In segment DATA_C, align 4, align-sorted
   \                     `?<Constant "Hip-Hop">`:
   \   00000000   4869702D486F       DC8 "Hip-Hop"
   \              7000        

   \                                 In segment DATA_C, align 4, align-sorted
   \                     `?<Constant "Jazz">`:
   \   00000000   4A617A7A00         DC8 "Jazz"
   \   00000005   000000             DC8 0, 0, 0

   \                                 In segment DATA_C, align 4, align-sorted
   \                     `?<Constant "Metal">`:
   \   00000000   4D6574616C00       DC8 "Metal"
   \   00000006   0000               DC8 0, 0

   \                                 In segment DATA_C, align 4, align-sorted
   \                     `?<Constant "New Age">`:
   \   00000000   4E6577204167       DC8 "New Age"
   \              6500        

   \                                 In segment DATA_C, align 4, align-sorted
   \                     `?<Constant "Oldies">`:
   \   00000000   4F6C64696573       DC8 "Oldies"
   \              00          
   \   00000007   00                 DC8 0

   \                                 In segment DATA_C, align 4, align-sorted
   \                     `?<Constant "Other">`:
   \   00000000   4F7468657200       DC8 "Other"
   \   00000006   0000               DC8 0, 0

   \                                 In segment DATA_C, align 4, align-sorted
   \                     `?<Constant "Classical">`:
   \   00000000   436C61737369       DC8 "Classical"
   \              63616C00    
   \   0000000A   0000               DC8 0, 0

   \                                 In segment DATA_C, align 4, align-sorted
   \                     `?<Constant "R&B">`:
   \   00000000   52264200           DC8 "R&B"

   \                                 In segment DATA_C, align 4, align-sorted
   \                     `?<Constant "Rap">`:
   \   00000000   52617000           DC8 "Rap"

   \                                 In segment DATA_C, align 4, align-sorted
   \                     `?<Constant "Reggae">`:
   \   00000000   526567676165       DC8 "Reggae"
   \              00          
   \   00000007   00                 DC8 0

   \                                 In segment DATA_C, align 4, align-sorted
   \                     `?<Constant "Rock">`:
   \   00000000   526F636B00         DC8 "Rock"
   \   00000005   000000             DC8 0, 0, 0

   \                                 In segment DATA_C, align 4, align-sorted
   \                     `?<Constant "Techno">`:
   \   00000000   546563686E6F       DC8 "Techno"
   \              00          
   \   00000007   00                 DC8 0

   \                                 In segment DATA_C, align 4, align-sorted
   \                     `?<Constant "Industrial">`:
   \   00000000   496E64757374       DC8 "Industrial"
   \              7269616C00  
   \   0000000B   00                 DC8 0

   \                                 In segment DATA_C, align 4, align-sorted
   \                     `?<Constant "Alternative">`:
   \   00000000   416C7465726E       DC8 "Alternative"
   \              617469766500

   \                                 In segment DATA_C, align 4, align-sorted
   \                     `?<Constant "Ska">`:
   \   00000000   536B6100           DC8 "Ska"

   \                                 In segment DATA_C, align 4, align-sorted
   \                     `?<Constant "Death Metal">`:
   \   00000000   446561746820       DC8 "Death Metal"
   \              4D6574616C00

   \                                 In segment DATA_C, align 4, align-sorted
   \                     `?<Constant "Pranks">`:
   \   00000000   5072616E6B73       DC8 "Pranks"
   \              00          
   \   00000007   00                 DC8 0

   \                                 In segment DATA_C, align 4, align-sorted
   \                     `?<Constant "Soundtrack">`:
   \   00000000   536F756E6474       DC8 "Soundtrack"
   \              7261636B00  
   \   0000000B   00                 DC8 0

   \                                 In segment DATA_C, align 4, align-sorted
   \                     `?<Constant "Euro-Techno">`:
   \   00000000   4575726F2D54       DC8 "Euro-Techno"
   \              6563686E6F00

   \                                 In segment DATA_C, align 4, align-sorted
   \                     `?<Constant "Ambient">`:
   \   00000000   416D6269656E       DC8 "Ambient"
   \              7400        

   \                                 In segment DATA_C, align 4, align-sorted
   \                     `?<Constant "Trip-Hop">`:
   \   00000000   547269702D48       DC8 "Trip-Hop"
   \              6F7000      
   \   00000009   000000             DC8 0, 0, 0

   \                                 In segment DATA_C, align 4, align-sorted
   \                     `?<Constant "Vocal">`:
   \   00000000   566F63616C00       DC8 "Vocal"
   \   00000006   0000               DC8 0, 0

   \                                 In segment DATA_C, align 4, align-sorted
   \                     `?<Constant "Jazz+Funk">`:
   \   00000000   4A617A7A2B46       DC8 "Jazz+Funk"
   \              756E6B00    
   \   0000000A   0000               DC8 0, 0

   \                                 In segment DATA_C, align 4, align-sorted
   \                     `?<Constant "Fusion">`:
   \   00000000   467573696F6E       DC8 "Fusion"
   \              00          
   \   00000007   00                 DC8 0

   \                                 In segment DATA_C, align 4, align-sorted
   \                     `?<Constant "Trance">`:
   \   00000000   5472616E6365       DC8 "Trance"
   \              00          
   \   00000007   00                 DC8 0

   \                                 In segment DATA_C, align 1, align-sorted
   \   00000000   256900             DC8 "%i"

   \                                 In segment DATA_C, align 4, align-sorted
   \                     `?<Constant "Instrumental">`:
   \   00000000   496E73747275       DC8 "Instrumental"
   \              6D656E74616C
   \              00          
   \   0000000D   000000             DC8 0, 0, 0

   \                                 In segment DATA_C, align 4, align-sorted
   \                     `?<Constant "Acid">`:
   \   00000000   4163696400         DC8 "Acid"
   \   00000005   000000             DC8 0, 0, 0

   \                                 In segment DATA_C, align 4, align-sorted
   \                     `?<Constant "House">`:
   \   00000000   486F75736500       DC8 "House"
   \   00000006   0000               DC8 0, 0

   \                                 In segment DATA_C, align 4, align-sorted
   \                     `?<Constant "Game">`:
   \   00000000   47616D6500         DC8 "Game"
   \   00000005   000000             DC8 0, 0, 0

   \                                 In segment DATA_C, align 4, align-sorted
   \                     `?<Constant "Sound Clip">`:
   \   00000000   536F756E6420       DC8 "Sound Clip"
   \              436C697000  
   \   0000000B   00                 DC8 0

   \                                 In segment DATA_C, align 4, align-sorted
   \                     `?<Constant "Gospel">`:
   \   00000000   476F7370656C       DC8 "Gospel"
   \              00          
   \   00000007   00                 DC8 0

   \                                 In segment DATA_C, align 4, align-sorted
   \                     `?<Constant "Noise">`:
   \   00000000   4E6F69736500       DC8 "Noise"
   \   00000006   0000               DC8 0, 0

   \                                 In segment DATA_C, align 4, align-sorted
   \                     `?<Constant "Alternative Rock">`:
   \   00000000   416C7465726E       DC8 "Alternative Rock"
   \              617469766520
   \              526F636B00  
   \   00000011   000000             DC8 0, 0, 0

   \                                 In segment DATA_C, align 4, align-sorted
   \                     `?<Constant "Bass">`:
   \   00000000   4261737300         DC8 "Bass"
   \   00000005   000000             DC8 0, 0, 0

   \                                 In segment DATA_C, align 4, align-sorted
   \                     `?<Constant "Soul">`:
   \   00000000   536F756C00         DC8 "Soul"
   \   00000005   000000             DC8 0, 0, 0

   \                                 In segment DATA_C, align 4, align-sorted
   \                     `?<Constant "Punk">`:
   \   00000000   50756E6B00         DC8 "Punk"
   \   00000005   000000             DC8 0, 0, 0

   \                                 In segment DATA_C, align 4, align-sorted
   \                     `?<Constant "Space">`:
   \   00000000   537061636500       DC8 "Space"
   \   00000006   0000               DC8 0, 0

   \                                 In segment DATA_C, align 4, align-sorted
   \                     `?<Constant "Meditative">`:
   \   00000000   4D6564697461       DC8 "Meditative"
   \              7469766500  
   \   0000000B   00                 DC8 0

   \                                 In segment DATA_C, align 4, align-sorted
   \                     `?<Constant "Instrumental Pop">`:
   \   00000000   496E73747275       DC8 "Instrumental Pop"
   \              6D656E74616C
   \              20506F7000  
   \   00000011   000000             DC8 0, 0, 0

   \                                 In segment DATA_C, align 4, align-sorted
   \                     `?<Constant "Instrumental Rock">`:
   \   00000000   496E73747275       DC8 "Instrumental Rock"
   \              6D656E74616C
   \              20526F636B00
   \   00000012   0000               DC8 0, 0

   \                                 In segment DATA_C, align 4, align-sorted
   \                     `?<Constant "Ethnic">`:
   \   00000000   4574686E6963       DC8 "Ethnic"
   \              00          
   \   00000007   00                 DC8 0

   \                                 In segment DATA_C, align 4, align-sorted
   \                     `?<Constant "Gothic">`:
   \   00000000   476F74686963       DC8 "Gothic"
   \              00          
   \   00000007   00                 DC8 0

   \                                 In segment DATA_C, align 4, align-sorted
   \                     `?<Constant "Darkwave">`:
   \   00000000   4461726B7761       DC8 "Darkwave"
   \              766500      
   \   00000009   000000             DC8 0, 0, 0

   \                                 In segment DATA_C, align 4, align-sorted
   \                     `?<Constant "Techno-Industrial">`:
   \   00000000   546563686E6F       DC8 "Techno-Industrial"
   \              2D496E647573
   \              747269616C00
   \   00000012   0000               DC8 0, 0

   \                                 In segment DATA_C, align 4, align-sorted
   \                     `?<Constant "Electronic">`:
   \   00000000   456C65637472       DC8 "Electronic"
   \              6F6E696300  
   \   0000000B   00                 DC8 0

   \                                 In segment DATA_C, align 4, align-sorted
   \                     `?<Constant "Pop-Folk">`:
   \   00000000   506F702D466F       DC8 "Pop-Folk"
   \              6C6B00      
   \   00000009   000000             DC8 0, 0, 0

   \                                 In segment DATA_C, align 4, align-sorted
   \                     `?<Constant "Eurodance">`:
   \   00000000   4575726F6461       DC8 "Eurodance"
   \              6E636500    
   \   0000000A   0000               DC8 0, 0

   \                                 In segment DATA_C, align 4, align-sorted
   \                     `?<Constant "Dream">`:
   \   00000000   447265616D00       DC8 "Dream"
   \   00000006   0000               DC8 0, 0

   \                                 In segment DATA_C, align 4, align-sorted
   \                     `?<Constant "Southern Rock">`:
   \   00000000   536F75746865       DC8 "Southern Rock"
   \              726E20526F63
   \              6B00        
   \   0000000E   0000               DC8 0, 0

   \                                 In segment DATA_C, align 4, align-sorted
   \                     `?<Constant "Comedy">`:
   \   00000000   436F6D656479       DC8 "Comedy"
   \              00          
   \   00000007   00                 DC8 0

   \                                 In segment DATA_C, align 4, align-sorted
   \                     `?<Constant "Cult">`:
   \   00000000   43756C7400         DC8 "Cult"
   \   00000005   000000             DC8 0, 0, 0

   \                                 In segment DATA_C, align 4, align-sorted
   \                     `?<Constant "Gangsta">`:
   \   00000000   47616E677374       DC8 "Gangsta"
   \              6100        

   \                                 In segment DATA_C, align 4, align-sorted
   \                     `?<Constant "Top 40">`:
   \   00000000   546F70203430       DC8 "Top 40"
   \              00          
   \   00000007   00                 DC8 0

   \                                 In segment DATA_C, align 4, align-sorted
   \                     `?<Constant "Christian Rap">`:
   \   00000000   436872697374       DC8 "Christian Rap"
   \              69616E205261
   \              7000        
   \   0000000E   0000               DC8 0, 0

   \                                 In segment DATA_C, align 4, align-sorted
   \                     `?<Constant "Pop/Funk">`:
   \   00000000   506F702F4675       DC8 "Pop/Funk"
   \              6E6B00      
   \   00000009   000000             DC8 0, 0, 0

   \                                 In segment DATA_C, align 4, align-sorted
   \                     `?<Constant "Jungle">`:
   \   00000000   4A756E676C65       DC8 "Jungle"
   \              00          
   \   00000007   00                 DC8 0

   \                                 In segment DATA_C, align 4, align-sorted
   \                     `?<Constant "Native American">`:
   \   00000000   4E6174697665       DC8 "Native American"
   \              20416D657269
   \              63616E00    

   \                                 In segment DATA_C, align 4, align-sorted
   \                     `?<Constant "Cabaret">`:
   \   00000000   436162617265       DC8 "Cabaret"
   \              7400        

   \                                 In segment DATA_C, align 4, align-sorted
   \                     `?<Constant "New Wave">`:
   \   00000000   4E6577205761       DC8 "New Wave"
   \              766500      
   \   00000009   000000             DC8 0, 0, 0

   \                                 In segment DATA_C, align 4, align-sorted
   \                     `?<Constant "Psychadelic">`:
   \   00000000   507379636861       DC8 "Psychadelic"
   \              64656C696300

   \                                 In segment DATA_C, align 4, align-sorted
   \                     `?<Constant "Rave">`:
   \   00000000   5261766500         DC8 "Rave"
   \   00000005   000000             DC8 0, 0, 0

   \                                 In segment DATA_C, align 4, align-sorted
   \                     `?<Constant "Showtunes">`:
   \   00000000   53686F777475       DC8 "Showtunes"
   \              6E657300    
   \   0000000A   0000               DC8 0, 0

   \                                 In segment DATA_C, align 4, align-sorted
   \                     `?<Constant "Trailer">`:
   \   00000000   547261696C65       DC8 "Trailer"
   \              7200        

   \                                 In segment DATA_C, align 4, align-sorted
   \                     `?<Constant "Lo-Fi">`:
   \   00000000   4C6F2D466900       DC8 "Lo-Fi"
   \   00000006   0000               DC8 0, 0

   \                                 In segment DATA_C, align 4, align-sorted
   \                     `?<Constant "Tribal">`:
   \   00000000   54726962616C       DC8 "Tribal"
   \              00          
   \   00000007   00                 DC8 0

   \                                 In segment DATA_C, align 4, align-sorted
   \                     `?<Constant "Acid Punk">`:
   \   00000000   416369642050       DC8 "Acid Punk"
   \              756E6B00    
   \   0000000A   0000               DC8 0, 0

   \                                 In segment DATA_C, align 4, align-sorted
   \                     `?<Constant "Acid Jazz">`:
   \   00000000   41636964204A       DC8 "Acid Jazz"
   \              617A7A00    
   \   0000000A   0000               DC8 0, 0

   \                                 In segment DATA_C, align 4, align-sorted
   \                     `?<Constant "Polka">`:
   \   00000000   506F6C6B6100       DC8 "Polka"
   \   00000006   0000               DC8 0, 0

   \                                 In segment DATA_C, align 4, align-sorted
   \                     `?<Constant "Retro">`:
   \   00000000   526574726F00       DC8 "Retro"
   \   00000006   0000               DC8 0, 0

   \                                 In segment DATA_C, align 4, align-sorted
   \                     `?<Constant "Musical">`:
   \   00000000   4D7573696361       DC8 "Musical"
   \              6C00        

   \                                 In segment DATA_C, align 4, align-sorted
   \                     `?<Constant "Rock & Roll">`:
   \   00000000   526F636B2026       DC8 "Rock & Roll"
   \              20526F6C6C00

   \                                 In segment DATA_C, align 4, align-sorted
   \                     `?<Constant "Hard Rock">`:
   \   00000000   486172642052       DC8 "Hard Rock"
   \              6F636B00    
   \   0000000A   0000               DC8 0, 0

   \                                 In segment DATA_C, align 4, align-sorted
   \                     `?<Constant "Folk">`:
   \   00000000   466F6C6B00         DC8 "Folk"
   \   00000005   000000             DC8 0, 0, 0

   \                                 In segment DATA_C, align 4, align-sorted
   \                     `?<Constant "Folk/Rock">`:
   \   00000000   466F6C6B2F52       DC8 "Folk/Rock"
   \              6F636B00    
   \   0000000A   0000               DC8 0, 0

   \                                 In segment DATA_C, align 4, align-sorted
   \                     `?<Constant "National Folk">`:
   \   00000000   4E6174696F6E       DC8 "National Folk"
   \              616C20466F6C
   \              6B00        
   \   0000000E   0000               DC8 0, 0

   \                                 In segment DATA_C, align 4, align-sorted
   \                     `?<Constant "Swing">`:
   \   00000000   5377696E6700       DC8 "Swing"
   \   00000006   0000               DC8 0, 0

   \                                 In segment DATA_C, align 4, align-sorted
   \                     `?<Constant "Fast-Fusion">`:
   \   00000000   466173742D46       DC8 "Fast-Fusion"
   \              7573696F6E00

   \                                 In segment DATA_C, align 4, align-sorted
   \                     `?<Constant "Bebob">`:
   \   00000000   4265626F6200       DC8 "Bebob"
   \   00000006   0000               DC8 0, 0

   \                                 In segment DATA_C, align 4, align-sorted
   \                     `?<Constant "Latin">`:
   \   00000000   4C6174696E00       DC8 "Latin"
   \   00000006   0000               DC8 0, 0

   \                                 In segment DATA_C, align 4, align-sorted
   \                     `?<Constant "Revival">`:
   \   00000000   526576697661       DC8 "Revival"
   \              6C00        

   \                                 In segment DATA_C, align 4, align-sorted
   \                     `?<Constant "Celtic">`:
   \   00000000   43656C746963       DC8 "Celtic"
   \              00          
   \   00000007   00                 DC8 0

   \                                 In segment DATA_C, align 4, align-sorted
   \                     `?<Constant "Bluegrass">`:
   \   00000000   426C75656772       DC8 "Bluegrass"
   \              61737300    
   \   0000000A   0000               DC8 0, 0

   \                                 In segment DATA_C, align 4, align-sorted
   \                     `?<Constant "Avantgarde">`:
   \   00000000   4176616E7467       DC8 "Avantgarde"
   \              6172646500  
   \   0000000B   00                 DC8 0

   \                                 In segment DATA_C, align 4, align-sorted
   \                     `?<Constant "Gothic Rock">`:
   \   00000000   476F74686963       DC8 "Gothic Rock"
   \              20526F636B00

   \                                 In segment DATA_C, align 4, align-sorted
   \                     `?<Constant "Progressive Rock">`:
   \   00000000   50726F677265       DC8 "Progressive Rock"
   \              737369766520
   \              526F636B00  
   \   00000011   000000             DC8 0, 0, 0

   \                                 In segment DATA_C, align 4, align-sorted
   \                     `?<Constant "Psychedelic Rock">`:
   \   00000000   507379636865       DC8 "Psychedelic Rock"
   \              64656C696320
   \              526F636B00  
   \   00000011   000000             DC8 0, 0, 0

   \                                 In segment DATA_C, align 4, align-sorted
   \                     `?<Constant "Symphonic Rock">`:
   \   00000000   53796D70686F       DC8 "Symphonic Rock"
   \              6E696320526F
   \              636B00      
   \   0000000F   00                 DC8 0

   \                                 In segment DATA_C, align 4, align-sorted
   \                     `?<Constant "Slow Rock">`:
   \   00000000   536C6F772052       DC8 "Slow Rock"
   \              6F636B00    
   \   0000000A   0000               DC8 0, 0

   \                                 In segment DATA_C, align 4, align-sorted
   \                     `?<Constant "Big Band">`:
   \   00000000   426967204261       DC8 "Big Band"
   \              6E6400      
   \   00000009   000000             DC8 0, 0, 0

   \                                 In segment DATA_C, align 4, align-sorted
   \                     `?<Constant "Chorus">`:
   \   00000000   43686F727573       DC8 "Chorus"
   \              00          
   \   00000007   00                 DC8 0

   \                                 In segment DATA_C, align 4, align-sorted
   \                     `?<Constant "Easy Listening">`:
   \   00000000   45617379204C       DC8 "Easy Listening"
   \              697374656E69
   \              6E6700      
   \   0000000F   00                 DC8 0

   \                                 In segment DATA_C, align 4, align-sorted
   \                     `?<Constant "Acoustic">`:
   \   00000000   41636F757374       DC8 "Acoustic"
   \              696300      
   \   00000009   000000             DC8 0, 0, 0

   \                                 In segment DATA_C, align 4, align-sorted
   \                     `?<Constant "Humour">`:
   \   00000000   48756D6F7572       DC8 "Humour"
   \              00          
   \   00000007   00                 DC8 0

   \                                 In segment DATA_C, align 4, align-sorted
   \                     `?<Constant "Speech">`:
   \   00000000   537065656368       DC8 "Speech"
   \              00          
   \   00000007   00                 DC8 0

   \                                 In segment DATA_C, align 4, align-sorted
   \                     `?<Constant "Chanson">`:
   \   00000000   4368616E736F       DC8 "Chanson"
   \              6E00        

   \                                 In segment DATA_C, align 4, align-sorted
   \                     `?<Constant "Opera">`:
   \   00000000   4F7065726100       DC8 "Opera"
   \   00000006   0000               DC8 0, 0

   \                                 In segment DATA_C, align 4, align-sorted
   \                     `?<Constant "Chamber Music">`:
   \   00000000   4368616D6265       DC8 "Chamber Music"
   \              72204D757369
   \              6300        
   \   0000000E   0000               DC8 0, 0

   \                                 In segment DATA_C, align 4, align-sorted
   \                     `?<Constant "Sonata">`:
   \   00000000   536F6E617461       DC8 "Sonata"
   \              00          
   \   00000007   00                 DC8 0

   \                                 In segment DATA_C, align 4, align-sorted
   \                     `?<Constant "Symphony">`:
   \   00000000   53796D70686F       DC8 "Symphony"
   \              6E7900      
   \   00000009   000000             DC8 0, 0, 0

   \                                 In segment DATA_C, align 4, align-sorted
   \                     `?<Constant "Booty Bass">`:
   \   00000000   426F6F747920       DC8 "Booty Bass"
   \              4261737300  
   \   0000000B   00                 DC8 0

   \                                 In segment DATA_C, align 4, align-sorted
   \                     `?<Constant "Primus">`:
   \   00000000   5072696D7573       DC8 "Primus"
   \              00          
   \   00000007   00                 DC8 0

   \                                 In segment DATA_C, align 4, align-sorted
   \                     `?<Constant "Porn Groove">`:
   \   00000000   506F726E2047       DC8 "Porn Groove"
   \              726F6F766500

   \                                 In segment DATA_C, align 4, align-sorted
   \                     `?<Constant "Satire">`:
   \   00000000   536174697265       DC8 "Satire"
   \              00          
   \   00000007   00                 DC8 0

   \                                 In segment DATA_C, align 4, align-sorted
   \                     `?<Constant "Slow Jam">`:
   \   00000000   536C6F77204A       DC8 "Slow Jam"
   \              616D00      
   \   00000009   000000             DC8 0, 0, 0

   \                                 In segment DATA_C, align 4, align-sorted
   \                     `?<Constant "Club">`:
   \   00000000   436C756200         DC8 "Club"
   \   00000005   000000             DC8 0, 0, 0

   \                                 In segment DATA_C, align 4, align-sorted
   \                     `?<Constant "Tango">`:
   \   00000000   54616E676F00       DC8 "Tango"
   \   00000006   0000               DC8 0, 0

   \                                 In segment DATA_C, align 4, align-sorted
   \                     `?<Constant "Samba">`:
   \   00000000   53616D626100       DC8 "Samba"
   \   00000006   0000               DC8 0, 0

   \                                 In segment DATA_C, align 4, align-sorted
   \                     `?<Constant "Folklore">`:
   \   00000000   466F6C6B6C6F       DC8 "Folklore"
   \              726500      
   \   00000009   000000             DC8 0, 0, 0

   \                                 In segment DATA_C, align 4, align-sorted
   \                     `?<Constant "Ballad">`:
   \   00000000   42616C6C6164       DC8 "Ballad"
   \              00          
   \   00000007   00                 DC8 0

   \                                 In segment DATA_C, align 4, align-sorted
   \                     `?<Constant "Power Ballad">`:
   \   00000000   506F77657220       DC8 "Power Ballad"
   \              42616C6C6164
   \              00          
   \   0000000D   000000             DC8 0, 0, 0

   \                                 In segment DATA_C, align 4, align-sorted
   \                     `?<Constant "Rhythmic Soul">`:
   \   00000000   52687974686D       DC8 "Rhythmic Soul"
   \              696320536F75
   \              6C00        
   \   0000000E   0000               DC8 0, 0

   \                                 In segment DATA_C, align 4, align-sorted
   \                     `?<Constant "Freestyle">`:
   \   00000000   467265657374       DC8 "Freestyle"
   \              796C6500    
   \   0000000A   0000               DC8 0, 0

   \                                 In segment DATA_C, align 4, align-sorted
   \                     `?<Constant "Duet">`:
   \   00000000   4475657400         DC8 "Duet"
   \   00000005   000000             DC8 0, 0, 0

   \                                 In segment DATA_C, align 4, align-sorted
   \                     `?<Constant "Punk Rock">`:
   \   00000000   50756E6B2052       DC8 "Punk Rock"
   \              6F636B00    
   \   0000000A   0000               DC8 0, 0

   \                                 In segment DATA_C, align 4, align-sorted
   \                     `?<Constant "Drum Solo">`:
   \   00000000   4472756D2053       DC8 "Drum Solo"
   \              6F6C6F00    
   \   0000000A   0000               DC8 0, 0

   \                                 In segment DATA_C, align 4, align-sorted
   \                     `?<Constant "A Capella">`:
   \   00000000   412043617065       DC8 "A Capella"
   \              6C6C6100    
   \   0000000A   0000               DC8 0, 0

   \                                 In segment DATA_C, align 4, align-sorted
   \                     `?<Constant "Euro-House">`:
   \   00000000   4575726F2D48       DC8 "Euro-House"
   \              6F75736500  
   \   0000000B   00                 DC8 0

   \                                 In segment DATA_C, align 4, align-sorted
   \                     `?<Constant "Dance Hall">`:
   \   00000000   44616E636520       DC8 "Dance Hall"
   \              48616C6C00  
   \   0000000B   00                 DC8 0

   \                                 In segment DATA_C, align 4, align-sorted
   \                     `?<Constant "Goa">`:
   \   00000000   476F6100           DC8 "Goa"

   \                                 In segment DATA_C, align 4, align-sorted
   \                     `?<Constant "Drum & Bass">`:
   \   00000000   4472756D2026       DC8 "Drum & Bass"
   \              204261737300

   \                                 In segment DATA_C, align 4, align-sorted
   \                     `?<Constant "Club-House">`:
   \   00000000   436C75622D48       DC8 "Club-House"
   \              6F75736500  
   \   0000000B   00                 DC8 0

   \                                 In segment DATA_C, align 4, align-sorted
   \                     `?<Constant "Hardcore">`:
   \   00000000   48617264636F       DC8 "Hardcore"
   \              726500      
   \   00000009   000000             DC8 0, 0, 0

   \                                 In segment DATA_C, align 4, align-sorted
   \                     `?<Constant "Terror">`:
   \   00000000   546572726F72       DC8 "Terror"
   \              00          
   \   00000007   00                 DC8 0

   \                                 In segment DATA_C, align 4, align-sorted
   \                     `?<Constant "Indie">`:
   \   00000000   496E64696500       DC8 "Indie"
   \   00000006   0000               DC8 0, 0

   \                                 In segment DATA_C, align 4, align-sorted
   \                     `?<Constant "BritPop">`:
   \   00000000   42726974506F       DC8 "BritPop"
   \              7000        

   \                                 In segment DATA_C, align 4, align-sorted
   \                     `?<Constant "Negerpunk">`:
   \   00000000   4E6567657270       DC8 "Negerpunk"
   \              756E6B00    
   \   0000000A   0000               DC8 0, 0

   \                                 In segment DATA_C, align 4, align-sorted
   \                     `?<Constant "Polsk Punk">`:
   \   00000000   506F6C736B20       DC8 "Polsk Punk"
   \              50756E6B00  
   \   0000000B   00                 DC8 0

   \                                 In segment DATA_C, align 4, align-sorted
   \                     `?<Constant "Beat">`:
   \   00000000   4265617400         DC8 "Beat"
   \   00000005   000000             DC8 0, 0, 0

   \                                 In segment DATA_C, align 4, align-sorted
   \                     `?<Constant "Christian Gangsta">`:
   \   00000000   436872697374       DC8 "Christian Gangsta"
   \              69616E204761
   \              6E6773746100
   \   00000012   0000               DC8 0, 0

   \                                 In segment DATA_C, align 4, align-sorted
   \                     `?<Constant "Heavy Metal">`:
   \   00000000   486561767920       DC8 "Heavy Metal"
   \              4D6574616C00

   \                                 In segment DATA_C, align 4, align-sorted
   \                     `?<Constant "Black Metal">`:
   \   00000000   426C61636B20       DC8 "Black Metal"
   \              4D6574616C00

   \                                 In segment DATA_C, align 4, align-sorted
   \                     `?<Constant "Crossover">`:
   \   00000000   43726F73736F       DC8 "Crossover"
   \              76657200    
   \   0000000A   0000               DC8 0, 0

   \                                 In segment DATA_C, align 4, align-sorted
   \                     `?<Constant "Contemporary Christian">`:
   \   00000000   436F6E74656D       DC8 "Contemporary Christian"
   \              706F72617279
   \              204368726973
   \              7469616E00  
   \   00000017   00                 DC8 0

   \                                 In segment DATA_C, align 4, align-sorted
   \                     `?<Constant "Christian Rock">`:
   \   00000000   436872697374       DC8 "Christian Rock"
   \              69616E20526F
   \              636B00      
   \   0000000F   00                 DC8 0

   \                                 In segment DATA_C, align 4, align-sorted
   \                     `?<Constant "Merengue">`:
   \   00000000   4D6572656E67       DC8 "Merengue"
   \              756500      
   \   00000009   000000             DC8 0, 0, 0

   \                                 In segment DATA_C, align 4, align-sorted
   \                     `?<Constant "Salsa">`:
   \   00000000   53616C736100       DC8 "Salsa"
   \   00000006   0000               DC8 0, 0

   \                                 In segment DATA_C, align 4, align-sorted
   \                     `?<Constant "Thrash Metal">`:
   \   00000000   546872617368       DC8 "Thrash Metal"
   \              204D6574616C
   \              00          
   \   0000000D   000000             DC8 0, 0, 0

   Maximum stack usage in bytes:

     Function             CSTACK
     --------             ------
     Disp_Info               80
     info_ghook               8
     info_onkey               0
     initItemInfoLangPack     0


   Segment part sizes:

     Function/Label                 Bytes
     --------------                 -----
     ID3v1_genre                     592
     ws_info                           4
     info_onkey                       24
     info_ghook                       52
     info_sk                          24
     info_skt                          8
     info_desc                        56
     info_hdr                         20
     Disp_Info                      1208
     initItemInfoLangPack             48
     ??DataTable1                      4
     ??DataTable3                      4
     ?<Initializer for info_sk>       24
     ?<Initializer for info_skt>       8
     ?<Initializer for info_desc>     56
     ?<Initializer for info_hdr>      20
     ?<Constant "Pop">                 4
     ?<Constant "Anime">               8
     ?<Constant "JPop">                8
     ?<Constant "Synthpop">           12
     ?<Constant "">                    1
     ?<Constant "%t">                  3
     ?<Constant "Blues">               8
     ?<Constant "Classic Rock">       16
     ?<Constant "Country">             8
     ?<Constant "Dance">               8
     ?<Constant "Disco">               8
     ?<Constant "Funk">                8
     ?<Constant "Grunge">              8
     ?<Constant "Hip-Hop">             8
     ?<Constant "Jazz">                8
     ?<Constant "Metal">               8
     ?<Constant "New Age">             8
     ?<Constant "Oldies">              8
     ?<Constant "Other">               8
     ?<Constant "Classical">          12
     ?<Constant "R&B">                 4
     ?<Constant "Rap">                 4
     ?<Constant "Reggae">              8
     ?<Constant "Rock">                8
     ?<Constant "Techno">              8
     ?<Constant "Industrial">         12
     ?<Constant "Alternative">        12
     ?<Constant "Ska">                 4
     ?<Constant "Death Metal">        12
     ?<Constant "Pranks">              8
     ?<Constant "Soundtrack">         12
     ?<Constant "Euro-Techno">        12
     ?<Constant "Ambient">             8
     ?<Constant "Trip-Hop">           12
     ?<Constant "Vocal">               8
     ?<Constant "Jazz+Funk">          12
     ?<Constant "Fusion">              8
     ?<Constant "Trance">              8
     ?<Constant "%i">                  3
     ?<Constant "Instrumental">       16
     ?<Constant "Acid">                8
     ?<Constant "House">               8
     ?<Constant "Game">                8
     ?<Constant "Sound Clip">         12
     ?<Constant "Gospel">              8
     ?<Constant "Noise">               8
     ?<Constant "Alternative Rock">   20
     ?<Constant "Bass">                8
     ?<Constant "Soul">                8
     ?<Constant "Punk">                8
     ?<Constant "Space">               8
     ?<Constant "Meditative">         12
     ?<Constant "Instrumental Pop">   20
     ?<Constant "Instrumental Rock">
                                      20
     ?<Constant "Ethnic">              8
     ?<Constant "Gothic">              8
     ?<Constant "Darkwave">           12
     ?<Constant "Techno-Industrial">
                                      20
     ?<Constant "Electronic">         12
     ?<Constant "Pop-Folk">           12
     ?<Constant "Eurodance">          12
     ?<Constant "Dream">               8
     ?<Constant "Southern Rock">      16
     ?<Constant "Comedy">              8
     ?<Constant "Cult">                8
     ?<Constant "Gangsta">             8
     ?<Constant "Top 40">              8
     ?<Constant "Christian Rap">      16
     ?<Constant "Pop/Funk">           12
     ?<Constant "Jungle">              8
     ?<Constant "Native American">    16
     ?<Constant "Cabaret">             8
     ?<Constant "New Wave">           12
     ?<Constant "Psychadelic">        12
     ?<Constant "Rave">                8
     ?<Constant "Showtunes">          12
     ?<Constant "Trailer">             8
     ?<Constant "Lo-Fi">               8
     ?<Constant "Tribal">              8
     ?<Constant "Acid Punk">          12
     ?<Constant "Acid Jazz">          12
     ?<Constant "Polka">               8
     ?<Constant "Retro">               8
     ?<Constant "Musical">             8
     ?<Constant "Rock & Roll">        12
     ?<Constant "Hard Rock">          12
     ?<Constant "Folk">                8
     ?<Constant "Folk/Rock">          12
     ?<Constant "National Folk">      16
     ?<Constant "Swing">               8
     ?<Constant "Fast-Fusion">        12
     ?<Constant "Bebob">               8
     ?<Constant "Latin">               8
     ?<Constant "Revival">             8
     ?<Constant "Celtic">              8
     ?<Constant "Bluegrass">          12
     ?<Constant "Avantgarde">         12
     ?<Constant "Gothic Rock">        12
     ?<Constant "Progressive Rock">   20
     ?<Constant "Psychedelic Rock">   20
     ?<Constant "Symphonic Rock">     16
     ?<Constant "Slow Rock">          12
     ?<Constant "Big Band">           12
     ?<Constant "Chorus">              8
     ?<Constant "Easy Listening">     16
     ?<Constant "Acoustic">           12
     ?<Constant "Humour">              8
     ?<Constant "Speech">              8
     ?<Constant "Chanson">             8
     ?<Constant "Opera">               8
     ?<Constant "Chamber Music">      16
     ?<Constant "Sonata">              8
     ?<Constant "Symphony">           12
     ?<Constant "Booty Bass">         12
     ?<Constant "Primus">              8
     ?<Constant "Porn Groove">        12
     ?<Constant "Satire">              8
     ?<Constant "Slow Jam">           12
     ?<Constant "Club">                8
     ?<Constant "Tango">               8
     ?<Constant "Samba">               8
     ?<Constant "Folklore">           12
     ?<Constant "Ballad">              8
     ?<Constant "Power Ballad">       16
     ?<Constant "Rhythmic Soul">      16
     ?<Constant "Freestyle">          12
     ?<Constant "Duet">                8
     ?<Constant "Punk Rock">          12
     ?<Constant "Drum Solo">          12
     ?<Constant "A Capella">          12
     ?<Constant "Euro-House">         12
     ?<Constant "Dance Hall">         12
     ?<Constant "Goa">                 4
     ?<Constant "Drum & Bass">        12
     ?<Constant "Club-House">         12
     ?<Constant "Hardcore">           12
     ?<Constant "Terror">              8
     ?<Constant "Indie">               8
     ?<Constant "BritPop">             8
     ?<Constant "Negerpunk">          12
     ?<Constant "Polsk Punk">         12
     ?<Constant "Beat">                8
     ?<Constant "Christian Gangsta">
                                      20
     ?<Constant "Heavy Metal">        12
     ?<Constant "Black Metal">        12
     ?<Constant "Crossover">          12
     ?<Constant "Contemporary Christian">
                                      24
     ?<Constant "Christian Rock">     16
     ?<Constant "Merengue">           12
     ?<Constant "Salsa">               8
     ?<Constant "Thrash Metal">       16
      Others                          64

 
 1 380 bytes in segment CODE
 2 171 bytes in segment DATA_C
   108 bytes in segment DATA_I
   108 bytes in segment DATA_ID
     4 bytes in segment DATA_Z
    24 bytes in segment INITTAB
 
 1 340 bytes of CODE  memory (+ 64 bytes shared)
 2 279 bytes of CONST memory
   112 bytes of DATA  memory

Errors: none
Warnings: none
