################################################################################
#                                                                              #
#      IAR Universal Linker V4.60I/386                                         #
#                                                                              #
#           Link time     =  07/Jul/2010  13:09:32                             #
#           Target CPU    =  ARM                                               #
#           List file     =  C:\arm\splayer\Release_ELKA\List\SPlayer_ELKA.map #
#           Output file 1 =  C:\arm\splayer\Release_ELKA\Exe\SPlayer_ELKA.elf  #
#                            Format: elf, variant: -ynpra                      #
#           Command line  =  C:\arm\splayer\Release_ELKA\Obj\FM.r79            #
#                            C:\arm\splayer\Release_ELKA\Obj\ID3Tags.r79       #
#                            C:\arm\splayer\Release_ELKA\Obj\conf_loader.r79   #
#                            C:\arm\splayer\Release_ELKA\Obj\config_data.r79   #
#                            C:\arm\splayer\Release_ELKA\Obj\func.r79          #
#                            C:\arm\splayer\Release_ELKA\Obj\item_info.r79     #
#                            C:\arm\splayer\Release_ELKA\Obj\keys.r79          #
#                            C:\arm\splayer\Release_ELKA\Obj\klib.r79          #
#                            C:\arm\splayer\Release_ELKA\Obj\main.r79          #
#                            C:\arm\splayer\Release_ELKA\Obj\mainmenu.r79      #
#                            C:\arm\splayer\Release_ELKA\Obj\playlist.r79      #
#                            C:\arm\splayer\Release_ELKA\Obj\popup.r79         #
#                            C:\arm\splayer\Release_ELKA\Obj\sets_menu.r79     #
#                            -o                                                #
#                            C:\arm\splayer\Release_ELKA\Exe\SPlayer_ELKA.elf  #
#                            -Felf -l                                          #
#                            C:\arm\splayer\Release_ELKA\List\SPlayer_ELKA.map #
#                            -xmsnio -f C:\arm\splayer\test.xcl (-carm         #
#                            -V(CODE)CODE_AREA,12 -V(DATA)DATA_AREA,12         #
#                            -Z(CODE_AREA)ELFBEGIN,DATA_ID,START,CODE,DATA_C,I #
#                            NITTAB,DATA_Z,DATA_N,CONFIG_C=0-FFFFFFFF          #
#                            -Z(DATA_AREA)DATA_I=0-FFFFFFFF) -ynpra            #
#                            "C:\arm2\Embedded Workbench 4.0 Evaluation\ARM\LI #
#                            B\dl5tpainl8n.r79"                                #
#                            -s main                                           #
#                                                                              #
#                        Copyright 1987-2007 IAR Systems. All rights reserved. #
################################################################################





                ****************************************
                *                                      *
                *           CROSS REFERENCE            *
                *                                      *
                ****************************************

       Program entry at : CODE_AREA 00004B9C  Relocatable, from module : main




                ****************************************
                *                                      *
                *            RUNTIME MODEL             *
                *                                      *
                ****************************************

  StackAlign4  = USED
  __cpu_mode   = __pcs__interwork
  __data_model = absolute
  __endian     = little
  __rt_version = 6



                ****************************************
                *                                      *
                *              MODULE MAP              *
                *                                      *
                ****************************************


  DEFINED ABSOLUTE ENTRIES
    *************************************************************************

  DEFINED ABSOLUTE ENTRIES
    *************************************************************************

  FILE NAME : C:\arm\splayer\Release_ELKA\Obj\FM.r79
  PROGRAM MODULE, NAME : FM

  SEGMENTS IN THE MODULE
  ======================
DATA_Z
  Relative segment, address: CODE_AREA 0000958C - 0000998B (0x400 bytes), align: 2
  Segment part 16.            Intra module refs:   Segment part 43
           ENTRY                   ADDRESS         REF BY
           =====                   =======         ======
           Files                   0000958C 
    -------------------------------------------------------------------------
DATA_Z
  Relative segment, address: CODE_AREA 0000998C - 00009D8B (0x400 bytes), align: 2
  Segment part 17.            Intra module refs:   Segment part 62
           ENTRY                   ADDRESS         REF BY
           =====                   =======         ======
           MarkLines               0000998C 
    -------------------------------------------------------------------------
DATA_I
  Relative segment, address: DATA_AREA 00000000 - 00000003 (0x4 bytes), align: 2
  Segment part 18.            Intra module refs:   Segment part 46
           ENTRY                   ADDRESS         REF BY
           =====                   =======         ======
           CurFile                 00000000 
    -------------------------------------------------------------------------
DATA_Z
  Relative segment, address: CODE_AREA 00009D8C - 00009D8F (0x4 bytes), align: 2
  Segment part 20.            Intra module refs:   Segment part 42
           ENTRY                   ADDRESS         REF BY
           =====                   =======         ======
           TCFM                    00009D8C 
    -------------------------------------------------------------------------
DATA_Z
  Relative segment, address: CODE_AREA 00009D90 - 00009E0F (0x80 bytes), align: 2
  Segment part 21.            Intra module refs:   Segment part 61
           ENTRY                   ADDRESS         REF BY
           =====                   =======         ======
           nowpath                 00009D90 
    -------------------------------------------------------------------------
CODE
  Segment part 24. NOT NEEDED.
    -------------------------------------------------------------------------
CODE
  Relative segment, address: CODE_AREA 00000238 - 000002A7 (0x70 bytes), align: 2
  Segment part 25.            Intra module refs:   GO
                                                   LoadDaemonList
           ENTRY                   ADDRESS         REF BY
           =====                   =======         ======
           PastFile                00000238 
               stack 1 = 00000000 ( 00000014 )
    -------------------------------------------------------------------------
CODE
  Segment part 26. NOT NEEDED.
    -------------------------------------------------------------------------
CODE
  Relative segment, address: CODE_AREA 000002A8 - 000002F7 (0x50 bytes), align: 2
  Segment part 27.            Intra module refs:   FreeMemFM
                                                   GO
                                                   OnKeyFM
                                                   ShowFM
           ENTRY                   ADDRESS         REF BY
           =====                   =======         ======
           DeleteFiles             000002A8 
               stack 1 = 00000000 ( 00000014 )
    -------------------------------------------------------------------------
CODE
  Segment part 28. NOT NEEDED.
    -------------------------------------------------------------------------
CODE
  Relative segment, address: CODE_AREA 000002F8 - 000003EB (0xf4 bytes), align: 2
  Segment part 29.            Intra module refs:   CopyFName
                                                   LoadDaemonList
                                                   OnKeyFM
           ENTRY                   ADDRESS         REF BY
           =====                   =======         ======
           IsExt                   000002F8        LoadPlaylists (playlist)
               stack 1 = 00000000 ( 00000034 )
    -------------------------------------------------------------------------
CODE
  Segment part 30. NOT NEEDED.
    -------------------------------------------------------------------------
CODE
  Relative segment, address: CODE_AREA 000003EC - 000005BB (0x1d0 bytes), align: 2
  Segment part 31.            Intra module refs:   CopyFName
                                                   GO
                                                   OnKeyFM
                                                   ShowFM
           ENTRY                   ADDRESS         REF BY
           =====                   =======         ======
           LoadDaemonList          000003EC        LoadingPlaylist (playlist)
               stack 1 = 00000000 ( 00000464 )
    -------------------------------------------------------------------------
CODE
  Segment part 32. NOT NEEDED.
    -------------------------------------------------------------------------
CODE
  Segment part 33. NOT NEEDED.
           ENTRY                   ADDRESS         REF BY
           =====                   =======         ======
           LoadingDaemonList       
               not allocated function
    -------------------------------------------------------------------------
CODE
  Segment part 34. NOT NEEDED.
    -------------------------------------------------------------------------
CODE
  Relative segment, address: CODE_AREA 000005BC - 0000066F (0xb4 bytes), align: 2
  Segment part 35.            Intra module refs:   OnKeyFM
           ENTRY                   ADDRESS         REF BY
           =====                   =======         ======
           CopyFName               000005BC 
               stack 1 = 00000000 ( 0000011C )
    -------------------------------------------------------------------------
CODE
  Segment part 36. NOT NEEDED.
    -------------------------------------------------------------------------
CODE
  Relative segment, address: CODE_AREA 00000670 - 00000757 (0xe8 bytes), align: 2
  Segment part 37.            Intra module refs:   OnKeyFM
                                                   ShowFM
           ENTRY                   ADDRESS         REF BY
           =====                   =======         ======
           GO                      00000670 
               stack 1 = 00000000 ( 00000094 )
    -------------------------------------------------------------------------
CODE
  Segment part 38. NOT NEEDED.
    -------------------------------------------------------------------------
CODE
  Relative segment, address: CODE_AREA 00000758 - 00000847 (0xf0 bytes), align: 2
  Segment part 39.            Intra module refs:   Segment part 22
           LOCAL                   ADDRESS         
           =====                   =======         
           OnRedraw                00000758 
               stack 1 = 00000000 ( 00000124 )
    -------------------------------------------------------------------------
CODE
  Segment part 40. NOT NEEDED.
    -------------------------------------------------------------------------
CODE
  Relative segment, address: CODE_AREA 00000848 - 00000A87 (0x240 bytes), align: 2
  Segment part 41.            Intra module refs:   Segment part 22
           LOCAL                   ADDRESS         
           =====                   =======         
           OnKeyFM                 00000848 
               stack 1 = 00000000 ( 00000028 )
    -------------------------------------------------------------------------
CODE
  Relative segment, address: CODE_AREA 00000A88 - 00000A8B (0x4 bytes), align: 2
  Segment part 42.            Intra module refs:   DeleteFiles
                                                   OnKeyFM
                                                   OnRedraw
                                                   PastFile
    -------------------------------------------------------------------------
CODE
  Relative segment, address: CODE_AREA 00000A8C - 00000A8F (0x4 bytes), align: 2
  Segment part 43.            Intra module refs:   DeleteFiles
                                                   OnKeyFM
                                                   OnRedraw
                                                   PastFile
    -------------------------------------------------------------------------
CODE
  Segment part 44. NOT NEEDED.
    -------------------------------------------------------------------------
CODE
  Relative segment, address: CODE_AREA 00000A90 - 00000AD3 (0x44 bytes), align: 2
  Segment part 45.            Intra module refs:   OnKeyFM
           ENTRY                   ADDRESS         REF BY
           =====                   =======         ======
           FreeMemFM               00000A90 
               stack 1 = 00000000 ( 00000004 )
    -------------------------------------------------------------------------
CODE
  Relative segment, address: CODE_AREA 00000AD4 - 00000AD7 (0x4 bytes), align: 2
  Segment part 46.            Intra module refs:   DeleteFiles
                                                   FreeMemFM
                                                   OnKeyFM
                                                   OnRedraw
                                                   PastFile
    -------------------------------------------------------------------------
CODE
  Relative segment, address: CODE_AREA 00000AD8 - 00000ADB (0x4 bytes), align: 2
  Segment part 47.            Intra module refs:   FreeMemFM
                                                   OnRedraw
    -------------------------------------------------------------------------
CODE
  Segment part 48. NOT NEEDED.
    -------------------------------------------------------------------------
CODE
  Relative segment, address: CODE_AREA 00000ADC - 00000AE7 (0xc bytes), align: 2
  Segment part 49.            Intra module refs:   Segment part 22
           LOCAL                   ADDRESS         
           =====                   =======         
           OnCreate                00000ADC 
    -------------------------------------------------------------------------
CODE
  Segment part 50. NOT NEEDED.
    -------------------------------------------------------------------------
CODE
  Relative segment, address: CODE_AREA 00000AE8 - 00000AF3 (0xc bytes), align: 2
  Segment part 51.            Intra module refs:   Segment part 22
           LOCAL                   ADDRESS         
           =====                   =======         
           OnClose                 00000AE8 
    -------------------------------------------------------------------------
CODE
  Segment part 52. NOT NEEDED.
    -------------------------------------------------------------------------
CODE
  Relative segment, address: CODE_AREA 00000AF4 - 00000B0B (0x18 bytes), align: 2
  Segment part 53.            Intra module refs:   Segment part 22
           LOCAL                   ADDRESS         
           =====                   =======         
           OnFocus                 00000AF4 
               stack 1 = 00000000 ( 00000008 )
    -------------------------------------------------------------------------
CODE
  Segment part 54. NOT NEEDED.
    -------------------------------------------------------------------------
CODE
  Relative segment, address: CODE_AREA 00000B0C - 00000B1F (0x14 bytes), align: 2
  Segment part 55.            Intra module refs:   Segment part 22
           LOCAL                   ADDRESS         
           =====                   =======         
           OnUnfocus               00000B0C 
    -------------------------------------------------------------------------
CODE
  Segment part 56. NOT NEEDED.
    -------------------------------------------------------------------------
CODE
  Relative segment, address: CODE_AREA 00000B20 - 00000B27 (0x8 bytes), align: 2
  Segment part 57.            Intra module refs:   Segment part 22
           LOCAL                   ADDRESS         
           =====                   =======         
           met0                    00000B20 
    -------------------------------------------------------------------------
CODE
  Segment part 58. NOT NEEDED.
    -------------------------------------------------------------------------
DATA_C
  Relative segment, address: CODE_AREA 0000801C - 0000801F (0x4 bytes), align: 2
  Segment part 2.             Intra module refs:   Segment part 8
    -------------------------------------------------------------------------
DATA_C
  Relative segment, address: CODE_AREA 00008020 - 0000802B (0xc bytes), align: 2
  Segment part 3.             Intra module refs:   OnRedraw
    -------------------------------------------------------------------------
DATA_C
  Relative segment, address: CODE_AREA 0000802C - 0000802F (0x4 bytes), align: 2
  Segment part 4.             Intra module refs:   Segment part 8
    -------------------------------------------------------------------------
DATA_C
  Relative segment, address: CODE_AREA 00008030 - 00008033 (0x4 bytes), align: 2
  Segment part 5.             Intra module refs:   Segment part 8
    -------------------------------------------------------------------------
DATA_C
  Relative segment, address: CODE_AREA 00008034 - 00008037 (0x4 bytes), align: 2
  Segment part 6.             Intra module refs:   Segment part 8
    -------------------------------------------------------------------------
DATA_C
  Relative segment, address: CODE_AREA 00008038 - 0000803B (0x4 bytes), align: 2
  Segment part 7.             Intra module refs:   Segment part 8
    -------------------------------------------------------------------------
DATA_C
  Relative segment, address: CODE_AREA 0000803C - 0000804F (0x14 bytes), align: 2
  Segment part 8.             Intra module refs:   IsExt
    -------------------------------------------------------------------------
DATA_C
  Relative segment, address: CODE_AREA 00008050 - 00008053 (0x4 bytes), align: 2
  Segment part 9.             Intra module refs:   Segment part 11
    -------------------------------------------------------------------------
DATA_C
  Relative segment, address: CODE_AREA 00008054 - 00008057 (0x4 bytes), align: 2
  Segment part 10.            Intra module refs:   Segment part 11
    -------------------------------------------------------------------------
DATA_C
  Relative segment, address: CODE_AREA 00008058 - 0000805F (0x8 bytes), align: 2
  Segment part 11.            Intra module refs:   IsExt
    -------------------------------------------------------------------------
DATA_C
  Segment part 12. NOT NEEDED.
    -------------------------------------------------------------------------
DATA_C
  Segment part 13. NOT NEEDED.
    -------------------------------------------------------------------------
DATA_C
  Relative segment, address: CODE_AREA 00008060 - 00008067 (0x8 bytes), align: 2
  Segment part 14.            Intra module refs:   GO
    -------------------------------------------------------------------------
DATA_C
  Relative segment, address: CODE_AREA 00008068 - 0000806F (0x8 bytes), align: 2
  Segment part 15.            Intra module refs:   OnRedraw
    -------------------------------------------------------------------------
DATA_C
  Relative segment, address: CODE_AREA 00008070 - 0000809B (0x2c bytes), align: 2
  Segment part 22.            Intra module refs:   ShowFM
    -------------------------------------------------------------------------
CODE
  Relative segment, address: CODE_AREA 00000B28 - 00000C1B (0xf4 bytes), align: 2
  Segment part 59.
           ENTRY                   ADDRESS         REF BY
           =====                   =======         ======
           ShowFM                  00000B28        FM (mainmenu)
                                                   Segment part 77 (keys)
                                                   keyprocs (keys)
               stack 1 = 00000000 ( 00000010 )
    -------------------------------------------------------------------------
CODE
  Relative segment, address: CODE_AREA 00000C1C - 00000C1F (0x4 bytes), align: 2
  Segment part 60.            Intra module refs:   FreeMemFM
                                                   ShowFM
    -------------------------------------------------------------------------
CODE
  Relative segment, address: CODE_AREA 00000C20 - 00000C23 (0x4 bytes), align: 2
  Segment part 61.            Intra module refs:   GO
                                                   LoadDaemonList
                                                   OnKeyFM
                                                   OnRedraw
                                                   ShowFM
    -------------------------------------------------------------------------
CODE
  Relative segment, address: CODE_AREA 00000C24 - 00000C27 (0x4 bytes), align: 2
  Segment part 62.            Intra module refs:   FreeMemFM
                                                   GO
                                                   OnKeyFM
                                                   OnRedraw
                                                   ShowFM
    -------------------------------------------------------------------------
CODE
  Segment part 63. NOT NEEDED.Intra module refs:   DeleteFiles
    -------------------------------------------------------------------------
CODE
  Segment part 64. NOT NEEDED.Intra module refs:   IsExt
    -------------------------------------------------------------------------
CODE
  Segment part 65. NOT NEEDED.Intra module refs:   LoadDaemonList
    -------------------------------------------------------------------------
CODE
  Segment part 66. NOT NEEDED.Intra module refs:   CopyFName
                                                   LoadDaemonList
    -------------------------------------------------------------------------
CODE
  Segment part 67. NOT NEEDED.Intra module refs:   CopyFName
                                                   LoadDaemonList
    -------------------------------------------------------------------------
CODE
  Segment part 68. NOT NEEDED.Intra module refs:   OnRedraw
    -------------------------------------------------------------------------
CODE
  Segment part 69. NOT NEEDED.Intra module refs:   OnKeyFM
                                                   ShowFM
    -------------------------------------------------------------------------
CODE
  Segment part 70. NOT NEEDED.Intra module refs:   OnKeyFM
    -------------------------------------------------------------------------
CODE
  Segment part 71. NOT NEEDED.Intra module refs:   OnKeyFM
    -------------------------------------------------------------------------
CODE
  Segment part 72. NOT NEEDED.Intra module refs:   OnKeyFM
    -------------------------------------------------------------------------
DATA_C
  Relative segment, address: CODE_AREA 0000809C - 000080A3 (0x8 bytes), align: 2
  Segment part 23.            Intra module refs:   ShowFM
    -------------------------------------------------------------------------
CSTACK
  Segment part 1. NOT NEEDED.
    -------------------------------------------------------------------------
DATA_ID
  Relative segment, address: CODE_AREA 00000000 - 00000003 (0x4 bytes), align: 2
  Segment part 19.            Intra module refs:   CurFile
    -------------------------------------------------------------------------
DATA_ID
  Segment part 73. NOT NEEDED.
           ENTRY                   ADDRESS         REF BY
           =====                   =======         ======
           ?*?DATA_ID              
    -------------------------------------------------------------------------
INITTAB
  Relative segment, address: CODE_AREA 00009574 - 0000957F (0xc bytes), align: 2
  Segment part 74. ROOT.
           ENTRY                   ADDRESS         REF BY
           =====                   =======         ======
           ?init?tab?DATA_I        00009574 
    -------------------------------------------------------------------------
INITTAB
  Relative segment, address: CODE_AREA 00009580 - 0000958B (0xc bytes), align: 2
  Segment part 75. ROOT.
           ENTRY                   ADDRESS         REF BY
           =====                   =======         ======
           ?init?tab?DATA_Z        00009580 

    *************************************************************************

  FILE NAME : C:\arm\splayer\Release_ELKA\Obj\ID3Tags.r79
  PROGRAM MODULE, NAME : ID3Tags

  SEGMENTS IN THE MODULE
  ======================
CODE
  Segment part 2. NOT NEEDED.
    -------------------------------------------------------------------------
CODE
  Relative segment, address: CODE_AREA 00000C28 - 00000DEB (0x1c4 bytes), align: 2
  Segment part 3.
           ENTRY                   ADDRESS         REF BY
           =====                   =======         ======
           ReadID3v1               00000C28        PlayMP3File (main)
                                                   ShowID3 (mainmenu)
               stack 1 = 00000000 ( 00000048 )
    -------------------------------------------------------------------------
CSTACK
  Segment part 1. NOT NEEDED.

    *************************************************************************

  FILE NAME : C:\arm\splayer\Release_ELKA\Obj\conf_loader.r79
  PROGRAM MODULE, NAME : conf_loader

  SEGMENTS IN THE MODULE
  ======================
DATA_I
  Relative segment, address: DATA_AREA 00000004 - 00000007 (0x4 bytes), align: 2
  Segment part 5.             Intra module refs:   LoadConfigData
           ENTRY                   ADDRESS         REF BY
           =====                   =======         ======
           successed_config_filename
                                   00000004        Settings (mainmenu)
                                                   maincsm_onmessage (main)
    -------------------------------------------------------------------------
CODE
  Segment part 7. NOT NEEDED.
    -------------------------------------------------------------------------
CODE
  Relative segment, address: CODE_AREA 00000DEC - 00000F17 (0x12c bytes), align: 2
  Segment part 8.             Intra module refs:   InitConfig
           ENTRY                   ADDRESS         REF BY
           =====                   =======         ======
           LoadConfigData          00000DEC 
               stack 1 = 00000000 ( 00000030 )
    -------------------------------------------------------------------------
CODE
  Segment part 9. NOT NEEDED.
    -------------------------------------------------------------------------
CODE
  Relative segment, address: CODE_AREA 00000F18 - 00000F3F (0x28 bytes), align: 2
  Segment part 10.
           ENTRY                   ADDRESS         REF BY
           =====                   =======         ======
           InitConfig              00000F18        main (main)
                                                   maincsm_onmessage (main)
               stack 1 = 00000000 ( 00000004 )
    -------------------------------------------------------------------------
CSTACK
  Segment part 1. NOT NEEDED.
    -------------------------------------------------------------------------
DATA_ID
  Relative segment, address: CODE_AREA 00000004 - 00000007 (0x4 bytes), align: 2
  Segment part 6.             Intra module refs:   successed_config_filename
    -------------------------------------------------------------------------
DATA_ID
  Segment part 11. TENTATIVE. Used definition from FM
           ENTRY                   ADDRESS         REF BY
           =====                   =======         ======
           ?*?DATA_ID              
    -------------------------------------------------------------------------
INITTAB
  Segment part 12. TENTATIVE. Used definition from FM
           ENTRY                   ADDRESS         REF BY
           =====                   =======         ======
           ?init?tab?DATA_I        
    -------------------------------------------------------------------------
CONFIG_C
  Segment part 13. NOT NEEDED.
    -------------------------------------------------------------------------
DATA_C
  Relative segment, address: CODE_AREA 00009548 - 00009548 (0x1 bytes), align: 0
  Segment part 2.             Intra module refs:   Segment part 6
    -------------------------------------------------------------------------
DATA_C
  Relative segment, address: CODE_AREA 000080A4 - 000080BF (0x1c bytes), align: 2
  Segment part 3.             Intra module refs:   InitConfig
    -------------------------------------------------------------------------
DATA_C
  Relative segment, address: CODE_AREA 000080C0 - 000080DB (0x1c bytes), align: 2
  Segment part 4.             Intra module refs:   InitConfig

    *************************************************************************

  FILE NAME : C:\arm\splayer\Release_ELKA\Obj\config_data.r79
  PROGRAM MODULE, NAME : config_data

  SEGMENTS IN THE MODULE
  ======================
CONFIG_C
  Relative segment, address: CODE_AREA 0000D250 - 0000D27B (0x2c bytes), align: 2
  Segment part 2. ROOT.
           ENTRY                   ADDRESS         REF BY
           =====                   =======         ======
           cfghdr0                 0000D250        LoadConfigData (conf_loader)
    -------------------------------------------------------------------------
CONFIG_C
  Relative segment, address: CODE_AREA 0000D27C - 0000D2FB (0x80 bytes), align: 2
  Segment part 3. ROOT.
           ENTRY                   ADDRESS         REF BY
           =====                   =======         ======
           DEFAULT_PLAYLIST        0000D27C        Segment part 325 (main)
                                                   Segment part 405 (main)
    -------------------------------------------------------------------------
CONFIG_C
  Relative segment, address: CODE_AREA 0000D2FC - 0000D327 (0x2c bytes), align: 2
  Segment part 4. ROOT.
           ENTRY                   ADDRESS         REF BY
           =====                   =======         ======
           cfghdr01                0000D2FC 
    -------------------------------------------------------------------------
CONFIG_C
  Relative segment, address: CODE_AREA 0000D328 - 0000D3A7 (0x80 bytes), align: 2
  Segment part 5. ROOT.
           ENTRY                   ADDRESS         REF BY
           =====                   =======         ======
           DEFAULT_PLAYLIST1       0000D328        main (main)
    -------------------------------------------------------------------------
CONFIG_C
  Relative segment, address: CODE_AREA 0000D3A8 - 0000D3D3 (0x2c bytes), align: 2
  Segment part 6. ROOT.
           ENTRY                   ADDRESS         REF BY
           =====                   =======         ======
           cfghdr02                0000D3A8 
    -------------------------------------------------------------------------
CONFIG_C
  Relative segment, address: CODE_AREA 0000D3D4 - 0000D453 (0x80 bytes), align: 2
  Segment part 7. ROOT.
           ENTRY                   ADDRESS         REF BY
           =====                   =======         ======
           DEFAULT_PLAYLIST2       0000D3D4        main (main)
    -------------------------------------------------------------------------
CONFIG_C
  Relative segment, address: CODE_AREA 0000D454 - 0000D47F (0x2c bytes), align: 2
  Segment part 8. ROOT.
           ENTRY                   ADDRESS         REF BY
           =====                   =======         ======
           cfghdr03                0000D454 
    -------------------------------------------------------------------------
CONFIG_C
  Relative segment, address: CODE_AREA 0000D480 - 0000D483 (0x4 bytes), align: 2
  Segment part 9. ROOT.
           ENTRY                   ADDRESS         REF BY
           =====                   =======         ======
           IDLE_X                  0000D480        maincsm_onmessage (main)
    -------------------------------------------------------------------------
CONFIG_C
  Relative segment, address: CODE_AREA 0000D484 - 0000D487 (0x4 bytes), align: 2
  Segment part 10. ROOT.
           ENTRY                   ADDRESS         REF BY
           =====                   =======         ======
           IDLE_Y                  0000D484        maincsm_onmessage (main)
    -------------------------------------------------------------------------
CONFIG_C
  Relative segment, address: CODE_AREA 0000D488 - 0000D4B3 (0x2c bytes), align: 2
  Segment part 11. ROOT.
           ENTRY                   ADDRESS         REF BY
           =====                   =======         ======
           cfghdr04                0000D488 
    -------------------------------------------------------------------------
CONFIG_C
  Relative segment, address: CODE_AREA 0000D4B4 - 0000D4B7 (0x4 bytes), align: 2
  Segment part 12. ROOT.
           ENTRY                   ADDRESS         REF BY
           =====                   =======         ======
           AUTO_EXIT_MIN           0000D4B4        Segment part 239 (main)
                                                   Segment part 344 (main)
    -------------------------------------------------------------------------
CONFIG_C
  Relative segment, address: CODE_AREA 0000D4B8 - 0000D4E3 (0x2c bytes), align: 2
  Segment part 13. ROOT.
           ENTRY                   ADDRESS         REF BY
           =====                   =======         ======
           cfghdr_m11              0000D4B8 
    -------------------------------------------------------------------------
CONFIG_C
  Relative segment, address: CODE_AREA 0000D4E4 - 0000D50F (0x2c bytes), align: 2
  Segment part 14. ROOT.
           ENTRY                   ADDRESS         REF BY
           =====                   =======         ======
           cfghdr12                0000D4E4 
    -------------------------------------------------------------------------
CONFIG_C
  Relative segment, address: CODE_AREA 0000D510 - 0000D513 (0x4 bytes), align: 2
  Segment part 15. ROOT.
           ENTRY                   ADDRESS         REF BY
           =====                   =======         ======
           SHOW_NAMES              0000D510        FreeMemFM (FM)
                                                   Segment part 391 (main)
    -------------------------------------------------------------------------
CONFIG_C
  Relative segment, address: CODE_AREA 0000D514 - 0000D573 (0x60 bytes), align: 2
  Segment part 16. ROOT.
           ENTRY                   ADDRESS         REF BY
           =====                   =======         ======
           cfgcbox1                0000D514 
    -------------------------------------------------------------------------
CONFIG_C
  Relative segment, address: CODE_AREA 0000D574 - 0000D59F (0x2c bytes), align: 2
  Segment part 17. ROOT.
           ENTRY                   ADDRESS         REF BY
           =====                   =======         ======
           cfghdr13                0000D574 
    -------------------------------------------------------------------------
CONFIG_C
  Relative segment, address: CODE_AREA 0000D5A0 - 0000D5A3 (0x4 bytes), align: 2
  Segment part 18. ROOT.
           ENTRY                   ADDRESS         REF BY
           =====                   =======         ======
           GrafOn                  0000D5A0        PL_Redraw (playlist)
    -------------------------------------------------------------------------
CONFIG_C
  Relative segment, address: CODE_AREA 0000D5A4 - 0000D5CF (0x2c bytes), align: 2
  Segment part 19. ROOT.
           ENTRY                   ADDRESS         REF BY
           =====                   =======         ======
           cfghdr14                0000D5A4 
    -------------------------------------------------------------------------
CONFIG_C
  Relative segment, address: CODE_AREA 0000D5D0 - 0000D5D3 (0x4 bytes), align: 2
  Segment part 20. ROOT.
           ENTRY                   ADDRESS         REF BY
           =====                   =======         ======
           GrafOn1                 0000D5D0        Segment part 145 (playlist)
    -------------------------------------------------------------------------
CONFIG_C
  Relative segment, address: CODE_AREA 0000D5D4 - 0000D5FF (0x2c bytes), align: 2
  Segment part 21. ROOT.
           ENTRY                   ADDRESS         REF BY
           =====                   =======         ======
           cfghdr15                0000D5D4 
    -------------------------------------------------------------------------
CONFIG_C
  Relative segment, address: CODE_AREA 0000D600 - 0000D603 (0x4 bytes), align: 2
  Segment part 22. ROOT.
           ENTRY                   ADDRESS         REF BY
           =====                   =======         ======
           InfoOn                  0000D600        PL_Redraw (playlist)
    -------------------------------------------------------------------------
CONFIG_C
  Relative segment, address: CODE_AREA 0000D604 - 0000D62F (0x2c bytes), align: 2
  Segment part 23. ROOT.
           ENTRY                   ADDRESS         REF BY
           =====                   =======         ======
           cfghdr16                0000D604 
    -------------------------------------------------------------------------
CONFIG_C
  Relative segment, address: CODE_AREA 0000D630 - 0000D633 (0x4 bytes), align: 2
  Segment part 24. ROOT.
           ENTRY                   ADDRESS         REF BY
           =====                   =======         ======
           SHOW_POPUP              0000D630        EnumIni (klib)
                                                   ReadID3v1 (ID3Tags)
                                                   SavePlaylist (playlist)
                                                   Segment part 225 (main)
                                                   Segment part 320 (main)
                                                   Segment part 384 (main)
    -------------------------------------------------------------------------
CONFIG_C
  Relative segment, address: CODE_AREA 0000D634 - 0000D65F (0x2c bytes), align: 2
  Segment part 25. ROOT.
           ENTRY                   ADDRESS         REF BY
           =====                   =======         ======
           cfghdr16_0              0000D634 
    -------------------------------------------------------------------------
CONFIG_C
  Relative segment, address: CODE_AREA 0000D660 - 0000D663 (0x4 bytes), align: 2
  Segment part 26. ROOT.
           ENTRY                   ADDRESS         REF BY
           =====                   =======         ======
           SAVE_SETS               0000D660        Segment part 263 (playlist)
                                                   Segment part 394 (main)
    -------------------------------------------------------------------------
CONFIG_C
  Relative segment, address: CODE_AREA 0000D664 - 0000D68F (0x2c bytes), align: 2
  Segment part 27. ROOT.
           ENTRY                   ADDRESS         REF BY
           =====                   =======         ======
           cfghdr16_1              0000D664 
    -------------------------------------------------------------------------
CONFIG_C
  Relative segment, address: CODE_AREA 0000D690 - 0000D693 (0x4 bytes), align: 2
  Segment part 28. ROOT.
           ENTRY                   ADDRESS         REF BY
           =====                   =======         ======
           ALLTRACK                0000D690        PL_Redraw (playlist)
    -------------------------------------------------------------------------
CONFIG_C
  Relative segment, address: CODE_AREA 0000D694 - 0000D6BF (0x2c bytes), align: 2
  Segment part 29. ROOT.
           ENTRY                   ADDRESS         REF BY
           =====                   =======         ======
           cfghdr16_2              0000D694 
    -------------------------------------------------------------------------
CONFIG_C
  Relative segment, address: CODE_AREA 0000D6C0 - 0000D6C3 (0x4 bytes), align: 2
  Segment part 30. ROOT.
           ENTRY                   ADDRESS         REF BY
           =====                   =======         ======
           LOAD_KEYS               0000D6C0        LoadKeys (keys)
    -------------------------------------------------------------------------
CONFIG_C
  Relative segment, address: CODE_AREA 0000D6C4 - 0000D6EF (0x2c bytes), align: 2
  Segment part 31. ROOT.
           ENTRY                   ADDRESS         REF BY
           =====                   =======         ======
           cfghdr17                0000D6C4 
    -------------------------------------------------------------------------
CONFIG_C
  Relative segment, address: CODE_AREA 0000D6F0 - 0000D6F3 (0x4 bytes), align: 2
  Segment part 32. ROOT.
           ENTRY                   ADDRESS         REF BY
           =====                   =======         ======
           PlayMode                0000D6F0        main (main)
    -------------------------------------------------------------------------
CONFIG_C
  Relative segment, address: CODE_AREA 0000D6F4 - 0000D773 (0x80 bytes), align: 2
  Segment part 33. ROOT.
           ENTRY                   ADDRESS         REF BY
           =====                   =======         ======
           cfgcbox3                0000D6F4 
    -------------------------------------------------------------------------
CONFIG_C
  Relative segment, address: CODE_AREA 0000D774 - 0000D79F (0x2c bytes), align: 2
  Segment part 34. ROOT.
           ENTRY                   ADDRESS         REF BY
           =====                   =======         ======
           cfghdr18                0000D774 
    -------------------------------------------------------------------------
CONFIG_C
  Relative segment, address: CODE_AREA 0000D7A0 - 0000D7A3 (0x4 bytes), align: 2
  Segment part 35. ROOT.
           ENTRY                   ADDRESS         REF BY
           =====                   =======         ======
           EXT                     0000D7A0        SavePlaylist (playlist)
    -------------------------------------------------------------------------
CONFIG_C
  Relative segment, address: CODE_AREA 0000D7A4 - 0000D7E3 (0x40 bytes), align: 2
  Segment part 36. ROOT.
           ENTRY                   ADDRESS         REF BY
           =====                   =======         ======
           cfgcbox4                0000D7A4 
    -------------------------------------------------------------------------
CONFIG_C
  Relative segment, address: CODE_AREA 0000D7E4 - 0000D80F (0x2c bytes), align: 2
  Segment part 37. ROOT.
           ENTRY                   ADDRESS         REF BY
           =====                   =======         ======
           cfghdr19                0000D7E4 
    -------------------------------------------------------------------------
CONFIG_C
  Relative segment, address: CODE_AREA 0000D810 - 0000D813 (0x4 bytes), align: 2
  Segment part 38. ROOT.
           ENTRY                   ADDRESS         REF BY
           =====                   =======         ======
           soundvolume             0000D810        main (main)
    -------------------------------------------------------------------------
CONFIG_C
  Relative segment, address: CODE_AREA 0000D814 - 0000D83F (0x2c bytes), align: 2
  Segment part 39. ROOT.
           ENTRY                   ADDRESS         REF BY
           =====                   =======         ======
           cfghdr20                0000D814 
    -------------------------------------------------------------------------
CONFIG_C
  Relative segment, address: CODE_AREA 0000D840 - 0000D843 (0x4 bytes), align: 2
  Segment part 40. ROOT.
           ENTRY                   ADDRESS         REF BY
           =====                   =======         ======
           SizeOfFont              0000D840        PL_Redraw (playlist)
    -------------------------------------------------------------------------
CONFIG_C
  Relative segment, address: CODE_AREA 0000D844 - 0000D86F (0x2c bytes), align: 2
  Segment part 41. ROOT.
           ENTRY                   ADDRESS         REF BY
           =====                   =======         ======
           cfghdr21                0000D844 
    -------------------------------------------------------------------------
CONFIG_C
  Relative segment, address: CODE_AREA 0000D870 - 0000D873 (0x4 bytes), align: 2
  Segment part 42. ROOT.
           ENTRY                   ADDRESS         REF BY
           =====                   =======         ======
           FnameIPC                0000D870        Segment part 215 (main)
    -------------------------------------------------------------------------
CONFIG_C
  Relative segment, address: CODE_AREA 0000D874 - 0000D8D3 (0x60 bytes), align: 2
  Segment part 43. ROOT.
           ENTRY                   ADDRESS         REF BY
           =====                   =======         ======
           cfgcbox5                0000D874 
    -------------------------------------------------------------------------
CONFIG_C
  Relative segment, address: CODE_AREA 0000D8D4 - 0000D8FF (0x2c bytes), align: 2
  Segment part 44. ROOT.
           ENTRY                   ADDRESS         REF BY
           =====                   =======         ======
           cfghdr_m10              0000D8D4 
    -------------------------------------------------------------------------
CONFIG_C
  Relative segment, address: CODE_AREA 0000D900 - 0000D92B (0x2c bytes), align: 2
  Segment part 45. ROOT.
           ENTRY                   ADDRESS         REF BY
           =====                   =======         ======
           cfghdr_m21              0000D900 
    -------------------------------------------------------------------------
CONFIG_C
  Relative segment, address: CODE_AREA 0000D92C - 0000D957 (0x2c bytes), align: 2
  Segment part 46. ROOT.
           ENTRY                   ADDRESS         REF BY
           =====                   =======         ======
           cfghdr22                0000D92C 
    -------------------------------------------------------------------------
CONFIG_C
  Relative segment, address: CODE_AREA 0000D958 - 0000D9D7 (0x80 bytes), align: 2
  Segment part 47. ROOT.
           ENTRY                   ADDRESS         REF BY
           =====                   =======         ======
           PIC_DIR                 0000D958        MM_Show (mainmenu)
                                                   OnRedraw (FM)
                                                   PL_Redraw (playlist)
                                                   Segment part 171 (main)
                                                   Segment part 248 (main)
                                                   Segment part 376 (main)
                                                   Segment part 47 (sets_menu)
    -------------------------------------------------------------------------
CONFIG_C
  Relative segment, address: CODE_AREA 0000D9D8 - 0000DA03 (0x2c bytes), align: 2
  Segment part 48. ROOT.
           ENTRY                   ADDRESS         REF BY
           =====                   =======         ======
           cfghdr23                0000D9D8 
    -------------------------------------------------------------------------
CONFIG_C
  Relative segment, address: CODE_AREA 0000DA04 - 0000DA83 (0x80 bytes), align: 2
  Segment part 49. ROOT.
           ENTRY                   ADDRESS         REF BY
           =====                   =======         ======
           PLAYLISTS               0000DA04        PL_Redraw (playlist)
                                                   SavePL (main)
    -------------------------------------------------------------------------
CONFIG_C
  Relative segment, address: CODE_AREA 0000DA84 - 0000DAAF (0x2c bytes), align: 2
  Segment part 50. ROOT.
           ENTRY                   ADDRESS         REF BY
           =====                   =======         ======
           cfghdr24                0000DA84 
    -------------------------------------------------------------------------
CONFIG_C
  Relative segment, address: CODE_AREA 0000DAB0 - 0000DB2F (0x80 bytes), align: 2
  Segment part 51. ROOT.
           ENTRY                   ADDRESS         REF BY
           =====                   =======         ======
           MUSIC                   0000DAB0        ShowFM (FM)
    -------------------------------------------------------------------------
CONFIG_C
  Relative segment, address: CODE_AREA 0000DB30 - 0000DB5B (0x2c bytes), align: 2
  Segment part 52. ROOT.
           ENTRY                   ADDRESS         REF BY
           =====                   =======         ======
           cfghdr25                0000DB30 
    -------------------------------------------------------------------------
CONFIG_C
  Relative segment, address: CODE_AREA 0000DB5C - 0000DBDB (0x80 bytes), align: 2
  Segment part 53. ROOT.
           ENTRY                   ADDRESS         REF BY
           =====                   =======         ======
           EXENAME                 0000DB5C        Segment part 33 (sets_menu)
    -------------------------------------------------------------------------
CONFIG_C
  Relative segment, address: CODE_AREA 0000DBDC - 0000DC07 (0x2c bytes), align: 2
  Segment part 54. ROOT.
           ENTRY                   ADDRESS         REF BY
           =====                   =======         ======
           cfghdr26                0000DBDC 
    -------------------------------------------------------------------------
CONFIG_C
  Relative segment, address: CODE_AREA 0000DC08 - 0000DC87 (0x80 bytes), align: 2
  Segment part 55. ROOT.
           ENTRY                   ADDRESS         REF BY
           =====                   =======         ======
           LANGFILE                0000DC08        lgpInitLangPack (main)
    -------------------------------------------------------------------------
CONFIG_C
  Relative segment, address: CODE_AREA 0000DC88 - 0000DCB3 (0x2c bytes), align: 2
  Segment part 56. ROOT.
           ENTRY                   ADDRESS         REF BY
           =====                   =======         ======
           cfghdr27                0000DC88 
    -------------------------------------------------------------------------
CONFIG_C
  Relative segment, address: CODE_AREA 0000DCB4 - 0000DD33 (0x80 bytes), align: 2
  Segment part 57. ROOT.
           ENTRY                   ADDRESS         REF BY
           =====                   =======         ======
           SETS_PATH               0000DCB4        LoadKeys (keys)
                                                   Segment part 399 (main)
    -------------------------------------------------------------------------
CONFIG_C
  Relative segment, address: CODE_AREA 0000DD34 - 0000DD5F (0x2c bytes), align: 2
  Segment part 58. ROOT.
           ENTRY                   ADDRESS         REF BY
           =====                   =======         ======
           cfghdr_m20              0000DD34 
    -------------------------------------------------------------------------
CONFIG_C
  Relative segment, address: CODE_AREA 0000DD60 - 0000DD8B (0x2c bytes), align: 2
  Segment part 59. ROOT.
           ENTRY                   ADDRESS         REF BY
           =====                   =======         ======
           cfghdr_m31              0000DD60 
    -------------------------------------------------------------------------
CONFIG_C
  Relative segment, address: CODE_AREA 0000DD8C - 0000DDB7 (0x2c bytes), align: 2
  Segment part 60. ROOT.
           ENTRY                   ADDRESS         REF BY
           =====                   =======         ======
           cfghdr32                0000DD8C 
    -------------------------------------------------------------------------
CONFIG_C
  Relative segment, address: CODE_AREA 0000DDB8 - 0000DDBB (0x4 bytes), align: 2
  Segment part 61. ROOT.
           ENTRY                   ADDRESS         REF BY
           =====                   =======         ======
           SCROLL_MULT             0000DDB8        CTSpeed (playlist)
    -------------------------------------------------------------------------
CONFIG_C
  Relative segment, address: CODE_AREA 0000DDBC - 0000DDE7 (0x2c bytes), align: 2
  Segment part 62. ROOT.
           ENTRY                   ADDRESS         REF BY
           =====                   =======         ======
           cfghdr33                0000DDBC 
    -------------------------------------------------------------------------
CONFIG_C
  Relative segment, address: CODE_AREA 0000DDE8 - 0000DDEB (0x4 bytes), align: 2
  Segment part 63. ROOT.
           ENTRY                   ADDRESS         REF BY
           =====                   =======         ======
           STEP_SCROLL_MULT        0000DDE8        CTSpeed (playlist)
    -------------------------------------------------------------------------
CONFIG_C
  Relative segment, address: CODE_AREA 0000DDEC - 0000DE17 (0x2c bytes), align: 2
  Segment part 64. ROOT.
           ENTRY                   ADDRESS         REF BY
           =====                   =======         ======
           cfghdr34                0000DDEC 
    -------------------------------------------------------------------------
CONFIG_C
  Relative segment, address: CODE_AREA 0000DE18 - 0000DE1B (0x4 bytes), align: 2
  Segment part 65. ROOT.
           ENTRY                   ADDRESS         REF BY
           =====                   =======         ======
           SPEED_REW               0000DE18        DoRewinded (playlist)
    -------------------------------------------------------------------------
CONFIG_C
  Relative segment, address: CODE_AREA 0000DE1C - 0000DE47 (0x2c bytes), align: 2
  Segment part 66. ROOT.
           ENTRY                   ADDRESS         REF BY
           =====                   =======         ======
           cfghdr35                0000DE1C 
    -------------------------------------------------------------------------
CONFIG_C
  Relative segment, address: CODE_AREA 0000DE48 - 0000DE4B (0x4 bytes), align: 2
  Segment part 67. ROOT.
           ENTRY                   ADDRESS         REF BY
           =====                   =======         ======
           STEP_REW                0000DE48        DoRewinded (playlist)
    -------------------------------------------------------------------------
CONFIG_C
  Relative segment, address: CODE_AREA 0000DE4C - 0000DE77 (0x2c bytes), align: 2
  Segment part 68. ROOT.
           ENTRY                   ADDRESS         REF BY
           =====                   =======         ======
           cfghdr36                0000DE4C 
    -------------------------------------------------------------------------
CONFIG_C
  Relative segment, address: CODE_AREA 0000DE78 - 0000DE7B (0x4 bytes), align: 2
  Segment part 69. ROOT.
           ENTRY                   ADDRESS         REF BY
           =====                   =======         ======
           SPEED_MOVE              0000DE78        PL_mp (playlist)
    -------------------------------------------------------------------------
CONFIG_C
  Relative segment, address: CODE_AREA 0000DE7C - 0000DEA7 (0x2c bytes), align: 2
  Segment part 70. ROOT.
           ENTRY                   ADDRESS         REF BY
           =====                   =======         ======
           cfghdr37                0000DE7C 
    -------------------------------------------------------------------------
CONFIG_C
  Relative segment, address: CODE_AREA 0000DEA8 - 0000DEAB (0x4 bytes), align: 2
  Segment part 71. ROOT.
           ENTRY                   ADDRESS         REF BY
           =====                   =======         ======
           SPEED_OPEN_MOVE         0000DEA8        OpenAnim (playlist)
    -------------------------------------------------------------------------
CONFIG_C
  Relative segment, address: CODE_AREA 0000DEAC - 0000DED7 (0x2c bytes), align: 2
  Segment part 72. ROOT.
           ENTRY                   ADDRESS         REF BY
           =====                   =======         ======
           cfghdr_m30              0000DEAC 
    -------------------------------------------------------------------------
CSTACK
  Segment part 1. NOT NEEDED.

    *************************************************************************

  FILE NAME : C:\arm\splayer\Release_ELKA\Obj\func.r79
  PROGRAM MODULE, NAME : func

  SEGMENTS IN THE MODULE
  ======================
ELFBEGIN
  Relative segment, address: CODE_AREA 00000000, align: 0
  Segment part 0. ROOT.
           ENTRY                   ADDRESS         REF BY
           =====                   =======         ======
           ELF_BEGIN               00000000        ElfKiller (main)
    -------------------------------------------------------------------------
CODE
  Relative segment, address: CODE_AREA 00000F40 - 00000F47 (0x8 bytes), align: 2
  Segment part 1. ROOT.
           ENTRY                   ADDRESS         REF BY
           =====                   =======         ======
           kill_data               00000F40        ElfKiller (main)
                                                   Segment part 22 (FM)
                                                   gui_methods (main)
           seqkill                 00000F44 

    *************************************************************************

  FILE NAME : C:\arm\splayer\Release_ELKA\Obj\item_info.r79
  PROGRAM MODULE, NAME : item_info

  SEGMENTS IN THE MODULE
  ======================
DATA_C
  Relative segment, address: CODE_AREA 000080DC - 000080DF (0x4 bytes), align: 2
  Segment part 2.             Intra module refs:   Segment part 153
    -------------------------------------------------------------------------
DATA_C
  Relative segment, address: CODE_AREA 000080E0 - 000080E7 (0x8 bytes), align: 2
  Segment part 3.             Intra module refs:   Segment part 153
    -------------------------------------------------------------------------
DATA_C
  Relative segment, address: CODE_AREA 000080E8 - 000080EF (0x8 bytes), align: 2
  Segment part 4.             Intra module refs:   Segment part 153
    -------------------------------------------------------------------------
DATA_C
  Relative segment, address: CODE_AREA 000080F0 - 000080FB (0xc bytes), align: 2
  Segment part 5.             Intra module refs:   Segment part 153
    -------------------------------------------------------------------------
DATA_C
  Segment part 6. NOT NEEDED.
    -------------------------------------------------------------------------
DATA_C
  Segment part 7. NOT NEEDED.
    -------------------------------------------------------------------------
DATA_C
  Relative segment, address: CODE_AREA 000080FC - 00008103 (0x8 bytes), align: 2
  Segment part 8.             Intra module refs:   Segment part 153
    -------------------------------------------------------------------------
DATA_C
  Relative segment, address: CODE_AREA 00008104 - 00008113 (0x10 bytes), align: 2
  Segment part 9.             Intra module refs:   Segment part 153
    -------------------------------------------------------------------------
DATA_C
  Relative segment, address: CODE_AREA 00008114 - 0000811B (0x8 bytes), align: 2
  Segment part 10.            Intra module refs:   Segment part 153
    -------------------------------------------------------------------------
DATA_C
  Relative segment, address: CODE_AREA 0000811C - 00008123 (0x8 bytes), align: 2
  Segment part 11.            Intra module refs:   Segment part 153
    -------------------------------------------------------------------------
DATA_C
  Relative segment, address: CODE_AREA 00008124 - 0000812B (0x8 bytes), align: 2
  Segment part 12.            Intra module refs:   Segment part 153
    -------------------------------------------------------------------------
DATA_C
  Relative segment, address: CODE_AREA 0000812C - 00008133 (0x8 bytes), align: 2
  Segment part 13.            Intra module refs:   Segment part 153
    -------------------------------------------------------------------------
DATA_C
  Relative segment, address: CODE_AREA 00008134 - 0000813B (0x8 bytes), align: 2
  Segment part 14.            Intra module refs:   Segment part 153
    -------------------------------------------------------------------------
DATA_C
  Relative segment, address: CODE_AREA 0000813C - 00008143 (0x8 bytes), align: 2
  Segment part 15.            Intra module refs:   Segment part 153
    -------------------------------------------------------------------------
DATA_C
  Relative segment, address: CODE_AREA 00008144 - 0000814B (0x8 bytes), align: 2
  Segment part 16.            Intra module refs:   Segment part 153
    -------------------------------------------------------------------------
DATA_C
  Relative segment, address: CODE_AREA 0000814C - 00008153 (0x8 bytes), align: 2
  Segment part 17.            Intra module refs:   Segment part 153
    -------------------------------------------------------------------------
DATA_C
  Relative segment, address: CODE_AREA 00008154 - 0000815B (0x8 bytes), align: 2
  Segment part 18.            Intra module refs:   Segment part 153
    -------------------------------------------------------------------------
DATA_C
  Relative segment, address: CODE_AREA 0000815C - 00008163 (0x8 bytes), align: 2
  Segment part 19.            Intra module refs:   Segment part 153
    -------------------------------------------------------------------------
DATA_C
  Relative segment, address: CODE_AREA 00008164 - 0000816B (0x8 bytes), align: 2
  Segment part 20.            Intra module refs:   Segment part 153
    -------------------------------------------------------------------------
DATA_C
  Relative segment, address: CODE_AREA 0000816C - 00008177 (0xc bytes), align: 2
  Segment part 21.            Intra module refs:   Segment part 153
    -------------------------------------------------------------------------
DATA_C
  Relative segment, address: CODE_AREA 00008178 - 0000817B (0x4 bytes), align: 2
  Segment part 22.            Intra module refs:   Segment part 153
    -------------------------------------------------------------------------
DATA_C
  Relative segment, address: CODE_AREA 0000817C - 0000817F (0x4 bytes), align: 2
  Segment part 23.            Intra module refs:   Segment part 153
    -------------------------------------------------------------------------
DATA_C
  Relative segment, address: CODE_AREA 00008180 - 00008187 (0x8 bytes), align: 2
  Segment part 24.            Intra module refs:   Segment part 153
    -------------------------------------------------------------------------
DATA_C
  Relative segment, address: CODE_AREA 00008188 - 0000818F (0x8 bytes), align: 2
  Segment part 25.            Intra module refs:   Segment part 153
    -------------------------------------------------------------------------
DATA_C
  Relative segment, address: CODE_AREA 00008190 - 00008197 (0x8 bytes), align: 2
  Segment part 26.            Intra module refs:   Segment part 153
    -------------------------------------------------------------------------
DATA_C
  Relative segment, address: CODE_AREA 00008198 - 000081A3 (0xc bytes), align: 2
  Segment part 27.            Intra module refs:   Segment part 153
    -------------------------------------------------------------------------
DATA_C
  Relative segment, address: CODE_AREA 000081A4 - 000081AF (0xc bytes), align: 2
  Segment part 28.            Intra module refs:   Segment part 153
    -------------------------------------------------------------------------
DATA_C
  Relative segment, address: CODE_AREA 000081B0 - 000081B3 (0x4 bytes), align: 2
  Segment part 29.            Intra module refs:   Segment part 153
    -------------------------------------------------------------------------
DATA_C
  Relative segment, address: CODE_AREA 000081B4 - 000081BF (0xc bytes), align: 2
  Segment part 30.            Intra module refs:   Segment part 153
    -------------------------------------------------------------------------
DATA_C
  Relative segment, address: CODE_AREA 000081C0 - 000081C7 (0x8 bytes), align: 2
  Segment part 31.            Intra module refs:   Segment part 153
    -------------------------------------------------------------------------
DATA_C
  Relative segment, address: CODE_AREA 000081C8 - 000081D3 (0xc bytes), align: 2
  Segment part 32.            Intra module refs:   Segment part 153
    -------------------------------------------------------------------------
DATA_C
  Relative segment, address: CODE_AREA 000081D4 - 000081DF (0xc bytes), align: 2
  Segment part 33.            Intra module refs:   Segment part 153
    -------------------------------------------------------------------------
DATA_C
  Relative segment, address: CODE_AREA 000081E0 - 000081E7 (0x8 bytes), align: 2
  Segment part 34.            Intra module refs:   Segment part 153
    -------------------------------------------------------------------------
DATA_C
  Relative segment, address: CODE_AREA 000081E8 - 000081F3 (0xc bytes), align: 2
  Segment part 35.            Intra module refs:   Segment part 153
    -------------------------------------------------------------------------
DATA_C
  Relative segment, address: CODE_AREA 000081F4 - 000081FB (0x8 bytes), align: 2
  Segment part 36.            Intra module refs:   Segment part 153
    -------------------------------------------------------------------------
DATA_C
  Relative segment, address: CODE_AREA 000081FC - 00008207 (0xc bytes), align: 2
  Segment part 37.            Intra module refs:   Segment part 153
    -------------------------------------------------------------------------
DATA_C
  Relative segment, address: CODE_AREA 00008208 - 0000820F (0x8 bytes), align: 2
  Segment part 38.            Intra module refs:   Segment part 153
    -------------------------------------------------------------------------
DATA_C
  Relative segment, address: CODE_AREA 00008210 - 00008217 (0x8 bytes), align: 2
  Segment part 39.            Intra module refs:   Segment part 153
    -------------------------------------------------------------------------
DATA_C
  Segment part 40. NOT NEEDED.
    -------------------------------------------------------------------------
DATA_C
  Relative segment, address: CODE_AREA 00008218 - 00008227 (0x10 bytes), align: 2
  Segment part 41.            Intra module refs:   Segment part 153
    -------------------------------------------------------------------------
DATA_C
  Relative segment, address: CODE_AREA 00008228 - 0000822F (0x8 bytes), align: 2
  Segment part 42.            Intra module refs:   Segment part 153
    -------------------------------------------------------------------------
DATA_C
  Relative segment, address: CODE_AREA 00008230 - 00008237 (0x8 bytes), align: 2
  Segment part 43.            Intra module refs:   Segment part 153
    -------------------------------------------------------------------------
DATA_C
  Relative segment, address: CODE_AREA 00008238 - 0000823F (0x8 bytes), align: 2
  Segment part 44.            Intra module refs:   Segment part 153
    -------------------------------------------------------------------------
DATA_C
  Relative segment, address: CODE_AREA 00008240 - 0000824B (0xc bytes), align: 2
  Segment part 45.            Intra module refs:   Segment part 153
    -------------------------------------------------------------------------
DATA_C
  Relative segment, address: CODE_AREA 0000824C - 00008253 (0x8 bytes), align: 2
  Segment part 46.            Intra module refs:   Segment part 153
    -------------------------------------------------------------------------
DATA_C
  Relative segment, address: CODE_AREA 00008254 - 0000825B (0x8 bytes), align: 2
  Segment part 47.            Intra module refs:   Segment part 153
    -------------------------------------------------------------------------
DATA_C
  Relative segment, address: CODE_AREA 0000825C - 0000826F (0x14 bytes), align: 2
  Segment part 48.            Intra module refs:   Segment part 153
    -------------------------------------------------------------------------
DATA_C
  Relative segment, address: CODE_AREA 00008270 - 00008277 (0x8 bytes), align: 2
  Segment part 49.            Intra module refs:   Segment part 153
    -------------------------------------------------------------------------
DATA_C
  Relative segment, address: CODE_AREA 00008278 - 0000827F (0x8 bytes), align: 2
  Segment part 50.            Intra module refs:   Segment part 153
    -------------------------------------------------------------------------
DATA_C
  Relative segment, address: CODE_AREA 00008280 - 00008287 (0x8 bytes), align: 2
  Segment part 51.            Intra module refs:   Segment part 153
    -------------------------------------------------------------------------
DATA_C
  Relative segment, address: CODE_AREA 00008288 - 0000828F (0x8 bytes), align: 2
  Segment part 52.            Intra module refs:   Segment part 153
    -------------------------------------------------------------------------
DATA_C
  Relative segment, address: CODE_AREA 00008290 - 0000829B (0xc bytes), align: 2
  Segment part 53.            Intra module refs:   Segment part 153
    -------------------------------------------------------------------------
DATA_C
  Relative segment, address: CODE_AREA 0000829C - 000082AF (0x14 bytes), align: 2
  Segment part 54.            Intra module refs:   Segment part 153
    -------------------------------------------------------------------------
DATA_C
  Relative segment, address: CODE_AREA 000082B0 - 000082C3 (0x14 bytes), align: 2
  Segment part 55.            Intra module refs:   Segment part 153
    -------------------------------------------------------------------------
DATA_C
  Relative segment, address: CODE_AREA 000082C4 - 000082CB (0x8 bytes), align: 2
  Segment part 56.            Intra module refs:   Segment part 153
    -------------------------------------------------------------------------
DATA_C
  Relative segment, address: CODE_AREA 000082CC - 000082D3 (0x8 bytes), align: 2
  Segment part 57.            Intra module refs:   Segment part 153
    -------------------------------------------------------------------------
DATA_C
  Relative segment, address: CODE_AREA 000082D4 - 000082DF (0xc bytes), align: 2
  Segment part 58.            Intra module refs:   Segment part 153
    -------------------------------------------------------------------------
DATA_C
  Relative segment, address: CODE_AREA 000082E0 - 000082F3 (0x14 bytes), align: 2
  Segment part 59.            Intra module refs:   Segment part 153
    -------------------------------------------------------------------------
DATA_C
  Relative segment, address: CODE_AREA 000082F4 - 000082FF (0xc bytes), align: 2
  Segment part 60.            Intra module refs:   Segment part 153
    -------------------------------------------------------------------------
DATA_C
  Relative segment, address: CODE_AREA 00008300 - 0000830B (0xc bytes), align: 2
  Segment part 61.            Intra module refs:   Segment part 153
    -------------------------------------------------------------------------
DATA_C
  Relative segment, address: CODE_AREA 0000830C - 00008317 (0xc bytes), align: 2
  Segment part 62.            Intra module refs:   Segment part 153
    -------------------------------------------------------------------------
DATA_C
  Relative segment, address: CODE_AREA 00008318 - 0000831F (0x8 bytes), align: 2
  Segment part 63.            Intra module refs:   Segment part 153
    -------------------------------------------------------------------------
DATA_C
  Relative segment, address: CODE_AREA 00008320 - 0000832F (0x10 bytes), align: 2
  Segment part 64.            Intra module refs:   Segment part 153
    -------------------------------------------------------------------------
DATA_C
  Relative segment, address: CODE_AREA 00008330 - 00008337 (0x8 bytes), align: 2
  Segment part 65.            Intra module refs:   Segment part 153
    -------------------------------------------------------------------------
DATA_C
  Relative segment, address: CODE_AREA 00008338 - 0000833F (0x8 bytes), align: 2
  Segment part 66.            Intra module refs:   Segment part 153
    -------------------------------------------------------------------------
DATA_C
  Relative segment, address: CODE_AREA 00008340 - 00008347 (0x8 bytes), align: 2
  Segment part 67.            Intra module refs:   Segment part 153
    -------------------------------------------------------------------------
DATA_C
  Relative segment, address: CODE_AREA 00008348 - 0000834F (0x8 bytes), align: 2
  Segment part 68.            Intra module refs:   Segment part 153
    -------------------------------------------------------------------------
DATA_C
  Relative segment, address: CODE_AREA 00008350 - 0000835F (0x10 bytes), align: 2
  Segment part 69.            Intra module refs:   Segment part 153
    -------------------------------------------------------------------------
DATA_C
  Relative segment, address: CODE_AREA 00008360 - 0000836B (0xc bytes), align: 2
  Segment part 70.            Intra module refs:   Segment part 153
    -------------------------------------------------------------------------
DATA_C
  Relative segment, address: CODE_AREA 0000836C - 00008373 (0x8 bytes), align: 2
  Segment part 71.            Intra module refs:   Segment part 153
    -------------------------------------------------------------------------
DATA_C
  Relative segment, address: CODE_AREA 00008374 - 00008383 (0x10 bytes), align: 2
  Segment part 72.            Intra module refs:   Segment part 153
    -------------------------------------------------------------------------
DATA_C
  Relative segment, address: CODE_AREA 00008384 - 0000838B (0x8 bytes), align: 2
  Segment part 73.            Intra module refs:   Segment part 153
    -------------------------------------------------------------------------
DATA_C
  Relative segment, address: CODE_AREA 0000838C - 00008397 (0xc bytes), align: 2
  Segment part 74.            Intra module refs:   Segment part 153
    -------------------------------------------------------------------------
DATA_C
  Relative segment, address: CODE_AREA 00008398 - 000083A3 (0xc bytes), align: 2
  Segment part 75.            Intra module refs:   Segment part 153
    -------------------------------------------------------------------------
DATA_C
  Relative segment, address: CODE_AREA 000083A4 - 000083AB (0x8 bytes), align: 2
  Segment part 76.            Intra module refs:   Segment part 153
    -------------------------------------------------------------------------
DATA_C
  Relative segment, address: CODE_AREA 000083AC - 000083B7 (0xc bytes), align: 2
  Segment part 77.            Intra module refs:   Segment part 153
    -------------------------------------------------------------------------
DATA_C
  Relative segment, address: CODE_AREA 000083B8 - 000083BF (0x8 bytes), align: 2
  Segment part 78.            Intra module refs:   Segment part 153
    -------------------------------------------------------------------------
DATA_C
  Relative segment, address: CODE_AREA 000083C0 - 000083C7 (0x8 bytes), align: 2
  Segment part 79.            Intra module refs:   Segment part 153
    -------------------------------------------------------------------------
DATA_C
  Relative segment, address: CODE_AREA 000083C8 - 000083CF (0x8 bytes), align: 2
  Segment part 80.            Intra module refs:   Segment part 153
    -------------------------------------------------------------------------
DATA_C
  Relative segment, address: CODE_AREA 000083D0 - 000083DB (0xc bytes), align: 2
  Segment part 81.            Intra module refs:   Segment part 153
    -------------------------------------------------------------------------
DATA_C
  Relative segment, address: CODE_AREA 000083DC - 000083E7 (0xc bytes), align: 2
  Segment part 82.            Intra module refs:   Segment part 153
    -------------------------------------------------------------------------
DATA_C
  Relative segment, address: CODE_AREA 000083E8 - 000083EF (0x8 bytes), align: 2
  Segment part 83.            Intra module refs:   Segment part 153
    -------------------------------------------------------------------------
DATA_C
  Relative segment, address: CODE_AREA 000083F0 - 000083F7 (0x8 bytes), align: 2
  Segment part 84.            Intra module refs:   Segment part 153
    -------------------------------------------------------------------------
DATA_C
  Relative segment, address: CODE_AREA 000083F8 - 000083FF (0x8 bytes), align: 2
  Segment part 85.            Intra module refs:   Segment part 153
    -------------------------------------------------------------------------
DATA_C
  Relative segment, address: CODE_AREA 00008400 - 0000840B (0xc bytes), align: 2
  Segment part 86.            Intra module refs:   Segment part 153
    -------------------------------------------------------------------------
DATA_C
  Relative segment, address: CODE_AREA 0000840C - 00008417 (0xc bytes), align: 2
  Segment part 87.            Intra module refs:   Segment part 153
    -------------------------------------------------------------------------
DATA_C
  Relative segment, address: CODE_AREA 00008418 - 0000841F (0x8 bytes), align: 2
  Segment part 88.            Intra module refs:   Segment part 153
    -------------------------------------------------------------------------
DATA_C
  Relative segment, address: CODE_AREA 00008420 - 0000842B (0xc bytes), align: 2
  Segment part 89.            Intra module refs:   Segment part 153
    -------------------------------------------------------------------------
DATA_C
  Relative segment, address: CODE_AREA 0000842C - 0000843B (0x10 bytes), align: 2
  Segment part 90.            Intra module refs:   Segment part 153
    -------------------------------------------------------------------------
DATA_C
  Relative segment, address: CODE_AREA 0000843C - 00008443 (0x8 bytes), align: 2
  Segment part 91.            Intra module refs:   Segment part 153
    -------------------------------------------------------------------------
DATA_C
  Relative segment, address: CODE_AREA 00008444 - 0000844F (0xc bytes), align: 2
  Segment part 92.            Intra module refs:   Segment part 153
    -------------------------------------------------------------------------
DATA_C
  Relative segment, address: CODE_AREA 00008450 - 00008457 (0x8 bytes), align: 2
  Segment part 93.            Intra module refs:   Segment part 153
    -------------------------------------------------------------------------
DATA_C
  Relative segment, address: CODE_AREA 00008458 - 0000845F (0x8 bytes), align: 2
  Segment part 94.            Intra module refs:   Segment part 153
    -------------------------------------------------------------------------
DATA_C
  Relative segment, address: CODE_AREA 00008460 - 00008467 (0x8 bytes), align: 2
  Segment part 95.            Intra module refs:   Segment part 153
    -------------------------------------------------------------------------
DATA_C
  Relative segment, address: CODE_AREA 00008468 - 0000846F (0x8 bytes), align: 2
  Segment part 96.            Intra module refs:   Segment part 153
    -------------------------------------------------------------------------
DATA_C
  Relative segment, address: CODE_AREA 00008470 - 0000847B (0xc bytes), align: 2
  Segment part 97.            Intra module refs:   Segment part 153
    -------------------------------------------------------------------------
DATA_C
  Relative segment, address: CODE_AREA 0000847C - 00008487 (0xc bytes), align: 2
  Segment part 98.            Intra module refs:   Segment part 153
    -------------------------------------------------------------------------
DATA_C
  Relative segment, address: CODE_AREA 00008488 - 00008493 (0xc bytes), align: 2
  Segment part 99.            Intra module refs:   Segment part 153
    -------------------------------------------------------------------------
DATA_C
  Relative segment, address: CODE_AREA 00008494 - 000084A7 (0x14 bytes), align: 2
  Segment part 100.           Intra module refs:   Segment part 153
    -------------------------------------------------------------------------
DATA_C
  Relative segment, address: CODE_AREA 000084A8 - 000084BB (0x14 bytes), align: 2
  Segment part 101.           Intra module refs:   Segment part 153
    -------------------------------------------------------------------------
DATA_C
  Relative segment, address: CODE_AREA 000084BC - 000084CB (0x10 bytes), align: 2
  Segment part 102.           Intra module refs:   Segment part 153
    -------------------------------------------------------------------------
DATA_C
  Relative segment, address: CODE_AREA 000084CC - 000084D7 (0xc bytes), align: 2
  Segment part 103.           Intra module refs:   Segment part 153
    -------------------------------------------------------------------------
DATA_C
  Relative segment, address: CODE_AREA 000084D8 - 000084E3 (0xc bytes), align: 2
  Segment part 104.           Intra module refs:   Segment part 153
    -------------------------------------------------------------------------
DATA_C
  Relative segment, address: CODE_AREA 000084E4 - 000084EB (0x8 bytes), align: 2
  Segment part 105.           Intra module refs:   Segment part 153
    -------------------------------------------------------------------------
DATA_C
  Relative segment, address: CODE_AREA 000084EC - 000084FB (0x10 bytes), align: 2
  Segment part 106.           Intra module refs:   Segment part 153
    -------------------------------------------------------------------------
DATA_C
  Relative segment, address: CODE_AREA 000084FC - 00008507 (0xc bytes), align: 2
  Segment part 107.           Intra module refs:   Segment part 153
    -------------------------------------------------------------------------
DATA_C
  Relative segment, address: CODE_AREA 00008508 - 0000850F (0x8 bytes), align: 2
  Segment part 108.           Intra module refs:   Segment part 153
    -------------------------------------------------------------------------
DATA_C
  Relative segment, address: CODE_AREA 00008510 - 00008517 (0x8 bytes), align: 2
  Segment part 109.           Intra module refs:   Segment part 153
    -------------------------------------------------------------------------
DATA_C
  Relative segment, address: CODE_AREA 00008518 - 0000851F (0x8 bytes), align: 2
  Segment part 110.           Intra module refs:   Segment part 153
    -------------------------------------------------------------------------
DATA_C
  Relative segment, address: CODE_AREA 00008520 - 00008527 (0x8 bytes), align: 2
  Segment part 111.           Intra module refs:   Segment part 153
    -------------------------------------------------------------------------
DATA_C
  Relative segment, address: CODE_AREA 00008528 - 00008537 (0x10 bytes), align: 2
  Segment part 112.           Intra module refs:   Segment part 153
    -------------------------------------------------------------------------
DATA_C
  Relative segment, address: CODE_AREA 00008538 - 0000853F (0x8 bytes), align: 2
  Segment part 113.           Intra module refs:   Segment part 153
    -------------------------------------------------------------------------
DATA_C
  Relative segment, address: CODE_AREA 00008540 - 0000854B (0xc bytes), align: 2
  Segment part 114.           Intra module refs:   Segment part 153
    -------------------------------------------------------------------------
DATA_C
  Relative segment, address: CODE_AREA 0000854C - 00008557 (0xc bytes), align: 2
  Segment part 115.           Intra module refs:   Segment part 153
    -------------------------------------------------------------------------
DATA_C
  Relative segment, address: CODE_AREA 00008558 - 0000855F (0x8 bytes), align: 2
  Segment part 116.           Intra module refs:   Segment part 153
    -------------------------------------------------------------------------
DATA_C
  Relative segment, address: CODE_AREA 00008560 - 0000856B (0xc bytes), align: 2
  Segment part 117.           Intra module refs:   Segment part 153
    -------------------------------------------------------------------------
DATA_C
  Relative segment, address: CODE_AREA 0000856C - 00008573 (0x8 bytes), align: 2
  Segment part 118.           Intra module refs:   Segment part 153
    -------------------------------------------------------------------------
DATA_C
  Relative segment, address: CODE_AREA 00008574 - 0000857F (0xc bytes), align: 2
  Segment part 119.           Intra module refs:   Segment part 153
    -------------------------------------------------------------------------
DATA_C
  Relative segment, address: CODE_AREA 00008580 - 00008587 (0x8 bytes), align: 2
  Segment part 120.           Intra module refs:   Segment part 153
    -------------------------------------------------------------------------
DATA_C
  Relative segment, address: CODE_AREA 00008588 - 0000858F (0x8 bytes), align: 2
  Segment part 121.           Intra module refs:   Segment part 153
    -------------------------------------------------------------------------
DATA_C
  Relative segment, address: CODE_AREA 00008590 - 00008597 (0x8 bytes), align: 2
  Segment part 122.           Intra module refs:   Segment part 153
    -------------------------------------------------------------------------
DATA_C
  Relative segment, address: CODE_AREA 00008598 - 000085A3 (0xc bytes), align: 2
  Segment part 123.           Intra module refs:   Segment part 153
    -------------------------------------------------------------------------
DATA_C
  Relative segment, address: CODE_AREA 000085A4 - 000085AB (0x8 bytes), align: 2
  Segment part 124.           Intra module refs:   Segment part 153
    -------------------------------------------------------------------------
DATA_C
  Relative segment, address: CODE_AREA 000085AC - 000085BB (0x10 bytes), align: 2
  Segment part 125.           Intra module refs:   Segment part 153
    -------------------------------------------------------------------------
DATA_C
  Relative segment, address: CODE_AREA 000085BC - 000085CB (0x10 bytes), align: 2
  Segment part 126.           Intra module refs:   Segment part 153
    -------------------------------------------------------------------------
DATA_C
  Relative segment, address: CODE_AREA 000085CC - 000085D7 (0xc bytes), align: 2
  Segment part 127.           Intra module refs:   Segment part 153
    -------------------------------------------------------------------------
DATA_C
  Relative segment, address: CODE_AREA 000085D8 - 000085DF (0x8 bytes), align: 2
  Segment part 128.           Intra module refs:   Segment part 153
    -------------------------------------------------------------------------
DATA_C
  Relative segment, address: CODE_AREA 000085E0 - 000085EB (0xc bytes), align: 2
  Segment part 129.           Intra module refs:   Segment part 153
    -------------------------------------------------------------------------
DATA_C
  Relative segment, address: CODE_AREA 000085EC - 000085F7 (0xc bytes), align: 2
  Segment part 130.           Intra module refs:   Segment part 153
    -------------------------------------------------------------------------
DATA_C
  Relative segment, address: CODE_AREA 000085F8 - 00008603 (0xc bytes), align: 2
  Segment part 131.           Intra module refs:   Segment part 153
    -------------------------------------------------------------------------
DATA_C
  Relative segment, address: CODE_AREA 00008604 - 0000860F (0xc bytes), align: 2
  Segment part 132.           Intra module refs:   Segment part 153
    -------------------------------------------------------------------------
DATA_C
  Relative segment, address: CODE_AREA 00008610 - 0000861B (0xc bytes), align: 2
  Segment part 133.           Intra module refs:   Segment part 153
    -------------------------------------------------------------------------
DATA_C
  Relative segment, address: CODE_AREA 0000861C - 0000861F (0x4 bytes), align: 2
  Segment part 134.           Intra module refs:   Segment part 153
    -------------------------------------------------------------------------
DATA_C
  Relative segment, address: CODE_AREA 00008620 - 0000862B (0xc bytes), align: 2
  Segment part 135.           Intra module refs:   Segment part 153
    -------------------------------------------------------------------------
DATA_C
  Relative segment, address: CODE_AREA 0000862C - 00008637 (0xc bytes), align: 2
  Segment part 136.           Intra module refs:   Segment part 153
    -------------------------------------------------------------------------
DATA_C
  Relative segment, address: CODE_AREA 00008638 - 00008643 (0xc bytes), align: 2
  Segment part 137.           Intra module refs:   Segment part 153
    -------------------------------------------------------------------------
DATA_C
  Relative segment, address: CODE_AREA 00008644 - 0000864B (0x8 bytes), align: 2
  Segment part 138.           Intra module refs:   Segment part 153
    -------------------------------------------------------------------------
DATA_C
  Relative segment, address: CODE_AREA 0000864C - 00008653 (0x8 bytes), align: 2
  Segment part 139.           Intra module refs:   Segment part 153
    -------------------------------------------------------------------------
DATA_C
  Relative segment, address: CODE_AREA 00008654 - 0000865B (0x8 bytes), align: 2
  Segment part 140.           Intra module refs:   Segment part 153
    -------------------------------------------------------------------------
DATA_C
  Relative segment, address: CODE_AREA 0000865C - 00008667 (0xc bytes), align: 2
  Segment part 141.           Intra module refs:   Segment part 153
    -------------------------------------------------------------------------
DATA_C
  Relative segment, address: CODE_AREA 00008668 - 00008673 (0xc bytes), align: 2
  Segment part 142.           Intra module refs:   Segment part 153
    -------------------------------------------------------------------------
DATA_C
  Relative segment, address: CODE_AREA 00008674 - 0000867B (0x8 bytes), align: 2
  Segment part 143.           Intra module refs:   Segment part 153
    -------------------------------------------------------------------------
DATA_C
  Relative segment, address: CODE_AREA 0000867C - 0000868F (0x14 bytes), align: 2
  Segment part 144.           Intra module refs:   Segment part 153
    -------------------------------------------------------------------------
DATA_C
  Relative segment, address: CODE_AREA 00008690 - 0000869B (0xc bytes), align: 2
  Segment part 145.           Intra module refs:   Segment part 153
    -------------------------------------------------------------------------
DATA_C
  Relative segment, address: CODE_AREA 0000869C - 000086A7 (0xc bytes), align: 2
  Segment part 146.           Intra module refs:   Segment part 153
    -------------------------------------------------------------------------
DATA_C
  Relative segment, address: CODE_AREA 000086A8 - 000086B3 (0xc bytes), align: 2
  Segment part 147.           Intra module refs:   Segment part 153
    -------------------------------------------------------------------------
DATA_C
  Relative segment, address: CODE_AREA 000086B4 - 000086CB (0x18 bytes), align: 2
  Segment part 148.           Intra module refs:   Segment part 153
    -------------------------------------------------------------------------
DATA_C
  Relative segment, address: CODE_AREA 000086CC - 000086DB (0x10 bytes), align: 2
  Segment part 149.           Intra module refs:   Segment part 153
    -------------------------------------------------------------------------
DATA_C
  Relative segment, address: CODE_AREA 000086DC - 000086E7 (0xc bytes), align: 2
  Segment part 150.           Intra module refs:   Segment part 153
    -------------------------------------------------------------------------
DATA_C
  Relative segment, address: CODE_AREA 000086E8 - 000086EF (0x8 bytes), align: 2
  Segment part 151.           Intra module refs:   Segment part 153
    -------------------------------------------------------------------------
DATA_C
  Relative segment, address: CODE_AREA 000086F0 - 000086FF (0x10 bytes), align: 2
  Segment part 152.           Intra module refs:   Segment part 153
    -------------------------------------------------------------------------
DATA_C
  Relative segment, address: CODE_AREA 00008700 - 0000894F (0x250 bytes), align: 2
  Segment part 153.           Intra module refs:   Disp_Info
    -------------------------------------------------------------------------
DATA_Z
  Relative segment, address: CODE_AREA 00009E10 - 00009E13 (0x4 bytes), align: 2
  Segment part 154.           Intra module refs:   Segment part 169
           ENTRY                   ADDRESS         REF BY
           =====                   =======         ======
           ws_info                 00009E10 
    -------------------------------------------------------------------------
CODE
  Segment part 163. NOT NEEDED.
    -------------------------------------------------------------------------
CODE
  Relative segment, address: CODE_AREA 00000F48 - 00000F5F (0x18 bytes), align: 2
  Segment part 164.           Intra module refs:   Segment part 160
           ENTRY                   ADDRESS         REF BY
           =====                   =======         ======
           info_onkey              00000F48 
    -------------------------------------------------------------------------
CODE
  Segment part 165. NOT NEEDED.
    -------------------------------------------------------------------------
CODE
  Relative segment, address: CODE_AREA 00000F60 - 00000F93 (0x34 bytes), align: 2
  Segment part 166.           Intra module refs:   Segment part 160
           ENTRY                   ADDRESS         REF BY
           =====                   =======         ======
           info_ghook              00000F60 
               stack 1 = 00000000 ( 00000008 )
    -------------------------------------------------------------------------
CODE
  Segment part 167. NOT NEEDED.
    -------------------------------------------------------------------------
DATA_I
  Relative segment, address: DATA_AREA 00000008 - 0000001F (0x18 bytes), align: 2
  Segment part 155.           Intra module refs:   Segment part 158
                                                   initItemInfoLangPack
           ENTRY                   ADDRESS         REF BY
           =====                   =======         ======
           info_sk                 00000008 
    -------------------------------------------------------------------------
DATA_I
  Relative segment, address: DATA_AREA 00000020 - 00000027 (0x8 bytes), align: 2
  Segment part 157.           Intra module refs:   Segment part 160
           ENTRY                   ADDRESS         REF BY
           =====                   =======         ======
           info_skt                00000020 
    -------------------------------------------------------------------------
DATA_I
  Relative segment, address: DATA_AREA 00000028 - 0000005F (0x38 bytes), align: 2
  Segment part 159.           Intra module refs:   Disp_Info
           ENTRY                   ADDRESS         REF BY
           =====                   =======         ======
           info_desc               00000028 
    -------------------------------------------------------------------------
DATA_I
  Relative segment, address: DATA_AREA 00000060 - 00000073 (0x14 bytes), align: 2
  Segment part 161.           Intra module refs:   Disp_Info
                                                   initItemInfoLangPack
           ENTRY                   ADDRESS         REF BY
           =====                   =======         ======
           info_hdr                00000060 
    -------------------------------------------------------------------------
CODE
  Relative segment, address: CODE_AREA 00000F94 - 0000144B (0x4b8 bytes), align: 2
  Segment part 168.
           ENTRY                   ADDRESS         REF BY
           =====                   =======         ======
           Disp_Info               00000F94        ShowID3 (mainmenu)
               stack 1 = 00000000 ( 00000050 )
    -------------------------------------------------------------------------
CODE
  Relative segment, address: CODE_AREA 0000144C - 0000144F (0x4 bytes), align: 2
  Segment part 169.           Intra module refs:   Disp_Info
                                                   info_ghook
    -------------------------------------------------------------------------
CODE
  Segment part 170. NOT NEEDED.
    -------------------------------------------------------------------------
CODE
  Relative segment, address: CODE_AREA 00001450 - 0000147F (0x30 bytes), align: 2
  Segment part 171.
           ENTRY                   ADDRESS         REF BY
           =====                   =======         ======
           initItemInfoLangPack    00001450        InitLangPack (main)
    -------------------------------------------------------------------------
CODE
  Relative segment, address: CODE_AREA 00001480 - 00001483 (0x4 bytes), align: 2
  Segment part 172.           Intra module refs:   Disp_Info
                                                   initItemInfoLangPack
    -------------------------------------------------------------------------
CODE
  Segment part 173. NOT NEEDED.Intra module refs   Disp_Info
    -------------------------------------------------------------------------
CODE
  Segment part 174. NOT NEEDED.Intra module refs   Disp_Info
    -------------------------------------------------------------------------
CSTACK
  Segment part 1. NOT NEEDED.
    -------------------------------------------------------------------------
DATA_ID
  Relative segment, address: CODE_AREA 00000008 - 0000001F (0x18 bytes), align: 2
  Segment part 156.           Intra module refs:   info_sk
    -------------------------------------------------------------------------
DATA_ID
  Relative segment, address: CODE_AREA 00000020 - 00000027 (0x8 bytes), align: 2
  Segment part 158.           Intra module refs:   info_skt
    -------------------------------------------------------------------------
DATA_ID
  Relative segment, address: CODE_AREA 00000028 - 0000005F (0x38 bytes), align: 2
  Segment part 160.           Intra module refs:   info_desc
    -------------------------------------------------------------------------
DATA_ID
  Relative segment, address: CODE_AREA 00000060 - 00000073 (0x14 bytes), align: 2
  Segment part 162.           Intra module refs:   info_hdr
    -------------------------------------------------------------------------
DATA_ID
  Segment part 175. TENTATIVE. Used definition from FM
           ENTRY                   ADDRESS         REF BY
           =====                   =======         ======
           ?*?DATA_ID              
    -------------------------------------------------------------------------
INITTAB
  Segment part 176. TENTATIVE. Used definition from FM
           ENTRY                   ADDRESS         REF BY
           =====                   =======         ======
           ?init?tab?DATA_I        
    -------------------------------------------------------------------------
INITTAB
  Segment part 177. TENTATIVE. Used definition from FM
           ENTRY                   ADDRESS         REF BY
           =====                   =======         ======
           ?init?tab?DATA_Z        

    *************************************************************************

  FILE NAME : C:\arm\splayer\Release_ELKA\Obj\keys.r79
  PROGRAM MODULE, NAME : keys

  SEGMENTS IN THE MODULE
  ======================
DATA_C
  Relative segment, address: CODE_AREA 00008950 - 00008957 (0x8 bytes), align: 2
  Segment part 2.             Intra module refs:   keynames
    -------------------------------------------------------------------------
DATA_C
  Relative segment, address: CODE_AREA 00008958 - 00008963 (0xc bytes), align: 2
  Segment part 3.             Intra module refs:   keyprocs
    -------------------------------------------------------------------------
DATA_C
  Relative segment, address: CODE_AREA 00008964 - 0000896B (0x8 bytes), align: 2
  Segment part 4.             Intra module refs:   LoadKeys
    -------------------------------------------------------------------------
DATA_C
  Relative segment, address: CODE_AREA 0000896C - 00008973 (0x8 bytes), align: 2
  Segment part 5.             Intra module refs:   keynames
    -------------------------------------------------------------------------
DATA_C
  Relative segment, address: CODE_AREA 00008974 - 0000897B (0x8 bytes), align: 2
  Segment part 6.             Intra module refs:   keynames
    -------------------------------------------------------------------------
DATA_C
  Relative segment, address: CODE_AREA 0000897C - 00008983 (0x8 bytes), align: 2
  Segment part 7.             Intra module refs:   keynames
    -------------------------------------------------------------------------
DATA_C
  Relative segment, address: CODE_AREA 00008984 - 00008987 (0x4 bytes), align: 2
  Segment part 8.             Intra module refs:   keynames
    -------------------------------------------------------------------------
DATA_C
  Relative segment, address: CODE_AREA 00008988 - 0000898F (0x8 bytes), align: 2
  Segment part 9.             Intra module refs:   keynames
    -------------------------------------------------------------------------
DATA_C
  Relative segment, address: CODE_AREA 00009549 - 0000954B (0x3 bytes), align: 0
  Segment part 10.            Intra module refs:   keynames
    -------------------------------------------------------------------------
DATA_C
  Relative segment, address: CODE_AREA 0000954C - 0000954D (0x2 bytes), align: 0
  Segment part 11.            Intra module refs:   keynames
    -------------------------------------------------------------------------
DATA_C
  Relative segment, address: CODE_AREA 00008990 - 00008997 (0x8 bytes), align: 2
  Segment part 12.            Intra module refs:   keynames
    -------------------------------------------------------------------------
DATA_C
  Relative segment, address: CODE_AREA 00008998 - 0000899F (0x8 bytes), align: 2
  Segment part 13.            Intra module refs:   keynames
    -------------------------------------------------------------------------
DATA_C
  Relative segment, address: CODE_AREA 000089A0 - 000089A7 (0x8 bytes), align: 2
  Segment part 14.            Intra module refs:   keynames
                                                   keyprocs
    -------------------------------------------------------------------------
DATA_C
  Relative segment, address: CODE_AREA 000089A8 - 000089AF (0x8 bytes), align: 2
  Segment part 15.            Intra module refs:   keynames
                                                   keyprocs
    -------------------------------------------------------------------------
DATA_C
  Relative segment, address: CODE_AREA 0000954E - 0000954F (0x2 bytes), align: 0
  Segment part 16.            Intra module refs:   keynames
    -------------------------------------------------------------------------
DATA_C
  Relative segment, address: CODE_AREA 00009550 - 00009551 (0x2 bytes), align: 0
  Segment part 17.            Intra module refs:   keynames
    -------------------------------------------------------------------------
DATA_C
  Relative segment, address: CODE_AREA 00009552 - 00009553 (0x2 bytes), align: 0
  Segment part 18.            Intra module refs:   keynames
    -------------------------------------------------------------------------
DATA_C
  Relative segment, address: CODE_AREA 00009554 - 00009555 (0x2 bytes), align: 0
  Segment part 19.            Intra module refs:   keynames
    -------------------------------------------------------------------------
DATA_C
  Relative segment, address: CODE_AREA 000089B0 - 000089BB (0xc bytes), align: 2
  Segment part 20.            Intra module refs:   LoadKeys
    -------------------------------------------------------------------------
DATA_C
  Relative segment, address: CODE_AREA 00009556 - 00009557 (0x2 bytes), align: 0
  Segment part 21.            Intra module refs:   keynames
    -------------------------------------------------------------------------
DATA_C
  Relative segment, address: CODE_AREA 00009558 - 00009559 (0x2 bytes), align: 0
  Segment part 22.            Intra module refs:   keynames
    -------------------------------------------------------------------------
DATA_C
  Relative segment, address: CODE_AREA 0000955A - 0000955B (0x2 bytes), align: 0
  Segment part 23.            Intra module refs:   keynames
    -------------------------------------------------------------------------
DATA_C
  Relative segment, address: CODE_AREA 0000955C - 0000955D (0x2 bytes), align: 0
  Segment part 24.            Intra module refs:   keynames
    -------------------------------------------------------------------------
DATA_C
  Relative segment, address: CODE_AREA 0000955E - 0000955F (0x2 bytes), align: 0
  Segment part 25.            Intra module refs:   keynames
    -------------------------------------------------------------------------
DATA_C
  Relative segment, address: CODE_AREA 00009560 - 00009561 (0x2 bytes), align: 0
  Segment part 26.            Intra module refs:   keynames
    -------------------------------------------------------------------------
DATA_C
  Relative segment, address: CODE_AREA 00009562 - 00009563 (0x2 bytes), align: 0
  Segment part 27.            Intra module refs:   keynames
    -------------------------------------------------------------------------
DATA_C
  Relative segment, address: CODE_AREA 000089BC - 000089C7 (0xc bytes), align: 2
  Segment part 28.            Intra module refs:   keynames
    -------------------------------------------------------------------------
DATA_C
  Relative segment, address: CODE_AREA 000089C8 - 000089D3 (0xc bytes), align: 2
  Segment part 29.            Intra module refs:   keynames
    -------------------------------------------------------------------------
DATA_C
  Relative segment, address: CODE_AREA 000089D4 - 000089DF (0xc bytes), align: 2
  Segment part 30.            Intra module refs:   keynames
    -------------------------------------------------------------------------
DATA_C
  Relative segment, address: CODE_AREA 000089E0 - 000089E7 (0x8 bytes), align: 2
  Segment part 31.            Intra module refs:   keynames
    -------------------------------------------------------------------------
DATA_C
  Relative segment, address: CODE_AREA 000089E8 - 000089F3 (0xc bytes), align: 2
  Segment part 32.            Intra module refs:   keynames
    -------------------------------------------------------------------------
DATA_C
  Relative segment, address: CODE_AREA 000089F4 - 000089FB (0x8 bytes), align: 2
  Segment part 33.            Intra module refs:   keynames
    -------------------------------------------------------------------------
DATA_C
  Relative segment, address: CODE_AREA 000089FC - 00008A03 (0x8 bytes), align: 2
  Segment part 34.            Intra module refs:   keynames
    -------------------------------------------------------------------------
DATA_C
  Relative segment, address: CODE_AREA 00008A04 - 00008A0B (0x8 bytes), align: 2
  Segment part 35.            Intra module refs:   keynames
    -------------------------------------------------------------------------
DATA_C
  Relative segment, address: CODE_AREA 00008A0C - 00008A17 (0xc bytes), align: 2
  Segment part 36.            Intra module refs:   keynames
    -------------------------------------------------------------------------
DATA_C
  Relative segment, address: CODE_AREA 00008A18 - 00008A23 (0xc bytes), align: 2
  Segment part 37.            Intra module refs:   keynames
    -------------------------------------------------------------------------
DATA_C
  Relative segment, address: CODE_AREA 00008A24 - 00008A2F (0xc bytes), align: 2
  Segment part 38.            Intra module refs:   keynames
    -------------------------------------------------------------------------
DATA_C
  Relative segment, address: CODE_AREA 00008A30 - 00008A37 (0x8 bytes), align: 2
  Segment part 39.            Intra module refs:   keynames
    -------------------------------------------------------------------------
DATA_C
  Relative segment, address: CODE_AREA 00008A38 - 00008A3F (0x8 bytes), align: 2
  Segment part 40.            Intra module refs:   keynames
    -------------------------------------------------------------------------
DATA_C
  Relative segment, address: CODE_AREA 00008A40 - 00008A47 (0x8 bytes), align: 2
  Segment part 41.            Intra module refs:   keynames
    -------------------------------------------------------------------------
DATA_C
  Relative segment, address: CODE_AREA 00008A48 - 00008A4F (0x8 bytes), align: 2
  Segment part 42.            Intra module refs:   keynames
    -------------------------------------------------------------------------
DATA_C
  Relative segment, address: CODE_AREA 00008A50 - 00008A57 (0x8 bytes), align: 2
  Segment part 43.            Intra module refs:   keynames
    -------------------------------------------------------------------------
DATA_C
  Relative segment, address: CODE_AREA 00008A58 - 00008A5F (0x8 bytes), align: 2
  Segment part 44.            Intra module refs:   keynames
    -------------------------------------------------------------------------
DATA_C
  Relative segment, address: CODE_AREA 00008A60 - 00008A67 (0x8 bytes), align: 2
  Segment part 45.            Intra module refs:   keynames
    -------------------------------------------------------------------------
DATA_C
  Relative segment, address: CODE_AREA 00008A68 - 00008A6F (0x8 bytes), align: 2
  Segment part 46.            Intra module refs:   keynames
    -------------------------------------------------------------------------
DATA_C
  Relative segment, address: CODE_AREA 00008A70 - 00008A77 (0x8 bytes), align: 2
  Segment part 47.            Intra module refs:   keynames
    -------------------------------------------------------------------------
DATA_C
  Relative segment, address: CODE_AREA 00008A78 - 00008A7F (0x8 bytes), align: 2
  Segment part 48.            Intra module refs:   keynames
    -------------------------------------------------------------------------
DATA_C
  Relative segment, address: CODE_AREA 00008A80 - 00008A87 (0x8 bytes), align: 2
  Segment part 49.            Intra module refs:   keynames
    -------------------------------------------------------------------------
DATA_C
  Relative segment, address: CODE_AREA 00008A88 - 00008A8F (0x8 bytes), align: 2
  Segment part 50.            Intra module refs:   keynames
    -------------------------------------------------------------------------
DATA_C
  Relative segment, address: CODE_AREA 00008A90 - 00008A97 (0x8 bytes), align: 2
  Segment part 51.            Intra module refs:   keyprocs
    -------------------------------------------------------------------------
DATA_C
  Relative segment, address: CODE_AREA 00008A98 - 00008AA3 (0xc bytes), align: 2
  Segment part 52.            Intra module refs:   keyprocs
    -------------------------------------------------------------------------
DATA_C
  Relative segment, address: CODE_AREA 00008AA4 - 00008AAB (0x8 bytes), align: 2
  Segment part 53.            Intra module refs:   keyprocs
    -------------------------------------------------------------------------
DATA_C
  Relative segment, address: CODE_AREA 00008AAC - 00008AB7 (0xc bytes), align: 2
  Segment part 54.            Intra module refs:   keyprocs
    -------------------------------------------------------------------------
DATA_C
  Relative segment, address: CODE_AREA 00008AB8 - 00008AC3 (0xc bytes), align: 2
  Segment part 55.            Intra module refs:   keyprocs
    -------------------------------------------------------------------------
DATA_C
  Relative segment, address: CODE_AREA 00008AC4 - 00008ACB (0x8 bytes), align: 2
  Segment part 56.            Intra module refs:   keyprocs
    -------------------------------------------------------------------------
DATA_C
  Relative segment, address: CODE_AREA 00008ACC - 00008AD3 (0x8 bytes), align: 2
  Segment part 57.            Intra module refs:   keyprocs
    -------------------------------------------------------------------------
DATA_C
  Relative segment, address: CODE_AREA 00008AD4 - 00008ADB (0x8 bytes), align: 2
  Segment part 58.            Intra module refs:   keyprocs
    -------------------------------------------------------------------------
DATA_C
  Relative segment, address: CODE_AREA 00008ADC - 00008AE3 (0x8 bytes), align: 2
  Segment part 59.            Intra module refs:   keyprocs
    -------------------------------------------------------------------------
DATA_C
  Relative segment, address: CODE_AREA 00008AE4 - 00008AEB (0x8 bytes), align: 2
  Segment part 60.            Intra module refs:   keyprocs
    -------------------------------------------------------------------------
DATA_C
  Relative segment, address: CODE_AREA 00008AEC - 00008AF3 (0x8 bytes), align: 2
  Segment part 61.            Intra module refs:   keyprocs
    -------------------------------------------------------------------------
DATA_C
  Relative segment, address: CODE_AREA 00008AF4 - 00008B03 (0x10 bytes), align: 2
  Segment part 62.            Intra module refs:   keyprocs
    -------------------------------------------------------------------------
DATA_C
  Relative segment, address: CODE_AREA 00008B04 - 00008B0F (0xc bytes), align: 2
  Segment part 63.            Intra module refs:   keyprocs
    -------------------------------------------------------------------------
DATA_C
  Relative segment, address: CODE_AREA 00008B10 - 00008B17 (0x8 bytes), align: 2
  Segment part 64.            Intra module refs:   keyprocs
    -------------------------------------------------------------------------
DATA_C
  Relative segment, address: CODE_AREA 00008B18 - 00008B23 (0xc bytes), align: 2
  Segment part 65.            Intra module refs:   keyprocs
    -------------------------------------------------------------------------
DATA_C
  Relative segment, address: CODE_AREA 00008B24 - 00008B2F (0xc bytes), align: 2
  Segment part 66.            Intra module refs:   keyprocs
    -------------------------------------------------------------------------
DATA_C
  Relative segment, address: CODE_AREA 00008B30 - 00008B3B (0xc bytes), align: 2
  Segment part 67.            Intra module refs:   keyprocs
    -------------------------------------------------------------------------
DATA_C
  Relative segment, address: CODE_AREA 00009564 - 00009566 (0x3 bytes), align: 0
  Segment part 68.            Intra module refs:   keyprocs
    -------------------------------------------------------------------------
DATA_C
  Relative segment, address: CODE_AREA 00008B3C - 00008B47 (0xc bytes), align: 2
  Segment part 69.            Intra module refs:   keyprocs
    -------------------------------------------------------------------------
DATA_C
  Relative segment, address: CODE_AREA 00008B48 - 00008B4F (0x8 bytes), align: 2
  Segment part 70.            Intra module refs:   keyprocs
    -------------------------------------------------------------------------
DATA_C
  Relative segment, address: CODE_AREA 00008B50 - 00008B5B (0xc bytes), align: 2
  Segment part 71.            Intra module refs:   keyprocs
    -------------------------------------------------------------------------
DATA_C
  Relative segment, address: CODE_AREA 00008B5C - 00008B6B (0x10 bytes), align: 2
  Segment part 72.            Intra module refs:   keyprocs
    -------------------------------------------------------------------------
DATA_C
  Relative segment, address: CODE_AREA 00008B6C - 00008B73 (0x8 bytes), align: 2
  Segment part 73.            Intra module refs:   keyprocs
    -------------------------------------------------------------------------
DATA_C
  Relative segment, address: CODE_AREA 00008B74 - 00008B7F (0xc bytes), align: 2
  Segment part 74.            Intra module refs:   keyprocs
    -------------------------------------------------------------------------
DATA_C
  Relative segment, address: CODE_AREA 00008B80 - 00008CEF (0x170 bytes), align: 2
  Segment part 75.            Intra module refs:   Segment part 83
           ENTRY                   ADDRESS         REF BY
           =====                   =======         ======
           keynames                00008B80 
    -------------------------------------------------------------------------
DATA_I
  Relative segment, address: DATA_AREA 00000074 - 0000012F (0xbc bytes), align: 2
  Segment part 76.            Intra module refs:   Segment part 84
           ENTRY                   ADDRESS         REF BY
           =====                   =======         ======
           procmap                 00000074 
    -------------------------------------------------------------------------
CODE
  Segment part 79. NOT NEEDED.
    -------------------------------------------------------------------------
CODE
  Relative segment, address: CODE_AREA 00001484 - 000014DF (0x5c bytes), align: 2
  Segment part 80.
           ENTRY                   ADDRESS         REF BY
           =====                   =======         ======
           DoKey                   00001484        OnKey (main)
               stack 1 = 00000000 ( 00000004 )
    -------------------------------------------------------------------------
CODE
  Segment part 81. NOT NEEDED.
    -------------------------------------------------------------------------
DATA_C
  Relative segment, address: CODE_AREA 00008CF0 - 00008DC7 (0xd8 bytes), align: 2
  Segment part 78.            Intra module refs:   KeysProc
           ENTRY                   ADDRESS         REF BY
           =====                   =======         ======
           keyprocs                00008CF0 
    -------------------------------------------------------------------------
CODE
  Relative segment, address: CODE_AREA 000014E0 - 0000158B (0xac bytes), align: 2
  Segment part 82.            Intra module refs:   LoadKeys
           ENTRY                   ADDRESS         REF BY
           =====                   =======         ======
           KeysProc                000014E0 
               stack 1 = 00000000 ( 00000018 )
    -------------------------------------------------------------------------
CODE
  Relative segment, address: CODE_AREA 0000158C - 0000158F (0x4 bytes), align: 2
  Segment part 83.            Intra module refs:   DoKey
                                                   KeysProc
    -------------------------------------------------------------------------
CODE
  Relative segment, address: CODE_AREA 00001590 - 00001593 (0x4 bytes), align: 2
  Segment part 84.            Intra module refs:   DoKey
                                                   KeysProc
    -------------------------------------------------------------------------
CODE
  Segment part 85. NOT NEEDED.
    -------------------------------------------------------------------------
CODE
  Relative segment, address: CODE_AREA 00001594 - 000015EB (0x58 bytes), align: 2
  Segment part 86.
           ENTRY                   ADDRESS         REF BY
           =====                   =======         ======
           LoadKeys                00001594        Segment part 454 (main)
                                                   maincsm_onmessage (main)
               stack 1 = 00000000 ( 00000104 )
    -------------------------------------------------------------------------
CODE
  Segment part 87. NOT NEEDED.Intra module refs:   KeysProc
    -------------------------------------------------------------------------
CODE
  Segment part 88. NOT NEEDED.Intra module refs:   LoadKeys
    -------------------------------------------------------------------------
CSTACK
  Segment part 1. NOT NEEDED.
    -------------------------------------------------------------------------
DATA_ID
  Relative segment, address: CODE_AREA 00000074 - 0000012F (0xbc bytes), align: 2
  Segment part 77.            Intra module refs:   procmap
    -------------------------------------------------------------------------
DATA_ID
  Segment part 89. TENTATIVE. Used definition from FM
           ENTRY                   ADDRESS         REF BY
           =====                   =======         ======
           ?*?DATA_ID              
    -------------------------------------------------------------------------
INITTAB
  Segment part 90. TENTATIVE. Used definition from FM
           ENTRY                   ADDRESS         REF BY
           =====                   =======         ======
           ?init?tab?DATA_I        

    *************************************************************************

  FILE NAME : C:\arm\splayer\Release_ELKA\Obj\klib.r79
  PROGRAM MODULE, NAME : klib

  SEGMENTS IN THE MODULE
  ======================
CODE
  Segment part 3. NOT NEEDED.
    -------------------------------------------------------------------------
CODE
  Relative segment, address: CODE_AREA 000015EC - 0000165F (0x74 bytes), align: 2
  Segment part 4.
           ENTRY                   ADDRESS         REF BY
           =====                   =======         ======
           strtolower              000015EC        IsExt (FM)
                                                   KeysProc (keys)
                                                   PlayMP3File (main)
               stack 1 = 00000000 ( 00000010 )
    -------------------------------------------------------------------------
CODE
  Segment part 5. NOT NEEDED.
    -------------------------------------------------------------------------
CODE
  Relative segment, address: CODE_AREA 00001660 - 0000183B (0x1dc bytes), align: 2
  Segment part 6.
           ENTRY                   ADDRESS         REF BY
           =====                   =======         ======
           EnumIni                 00001660        LoadKeys (keys)
               stack 1 = 00000000 ( 00000030 )
    -------------------------------------------------------------------------
CODE
  Segment part 7. NOT NEEDED. Intra module refs:   EnumIni
    -------------------------------------------------------------------------
CSTACK
  Segment part 1. NOT NEEDED.
    -------------------------------------------------------------------------
DATA_C
  Relative segment, address: CODE_AREA 00008DC8 - 00008DCF (0x8 bytes), align: 2
  Segment part 2.             Intra module refs:   EnumIni

    *************************************************************************

  FILE NAME : C:\arm\splayer\Release_ELKA\Obj\main.r79
  PROGRAM MODULE, NAME : main

  SEGMENTS IN THE MODULE
  ======================
DATA_C
  Relative segment, address: CODE_AREA 00008DD0 - 00008DD7 (0x8 bytes), align: 2
  Segment part 2.             Intra module refs:   lgpInitLangPack
    -------------------------------------------------------------------------
DATA_C
  Relative segment, address: CODE_AREA 00008DD8 - 00008DE7 (0x10 bytes), align: 2
  Segment part 3.             Intra module refs:   lgpInitLangPack
    -------------------------------------------------------------------------
DATA_C
  Relative segment, address: CODE_AREA 00008DE8 - 00008DF3 (0xc bytes), align: 2
  Segment part 4.             Intra module refs:   lgpInitLangPack
    -------------------------------------------------------------------------
DATA_C
  Relative segment, address: CODE_AREA 00008DF4 - 00008DFB (0x8 bytes), align: 2
  Segment part 5.             Intra module refs:   lgpInitLangPack
    -------------------------------------------------------------------------
DATA_C
  Relative segment, address: CODE_AREA 00008DFC - 00008E03 (0x8 bytes), align: 2
  Segment part 6.             Intra module refs:   lgpInitLangPack
    -------------------------------------------------------------------------
DATA_C
  Relative segment, address: CODE_AREA 00008E04 - 00008E0B (0x8 bytes), align: 2
  Segment part 7.             Intra module refs:   lgpInitLangPack
    -------------------------------------------------------------------------
DATA_C
  Relative segment, address: CODE_AREA 00008E0C - 00008E13 (0x8 bytes), align: 2
  Segment part 8.             Intra module refs:   lgpInitLangPack
    -------------------------------------------------------------------------
DATA_C
  Relative segment, address: CODE_AREA 00008E14 - 00008E1B (0x8 bytes), align: 2
  Segment part 9.             Intra module refs:   lgpInitLangPack
    -------------------------------------------------------------------------
DATA_C
  Relative segment, address: CODE_AREA 00008E1C - 00008E23 (0x8 bytes), align: 2
  Segment part 10.            Intra module refs:   lgpInitLangPack
    -------------------------------------------------------------------------
DATA_C
  Relative segment, address: CODE_AREA 00008E24 - 00008E2B (0x8 bytes), align: 2
  Segment part 11.            Intra module refs:   lgpInitLangPack
    -------------------------------------------------------------------------
DATA_C
  Relative segment, address: CODE_AREA 00008E2C - 00008E33 (0x8 bytes), align: 2
  Segment part 12.            Intra module refs:   lgpInitLangPack
    -------------------------------------------------------------------------
DATA_C
  Relative segment, address: CODE_AREA 00008E34 - 00008E47 (0x14 bytes), align: 2
  Segment part 13.            Intra module refs:   lgpInitLangPack
    -------------------------------------------------------------------------
DATA_C
  Relative segment, address: CODE_AREA 00008E48 - 00008E5B (0x14 bytes), align: 2
  Segment part 14.            Intra module refs:   lgpInitLangPack
    -------------------------------------------------------------------------
DATA_C
  Relative segment, address: CODE_AREA 00008E5C - 00008E6B (0x10 bytes), align: 2
  Segment part 15.            Intra module refs:   lgpInitLangPack
    -------------------------------------------------------------------------
DATA_C
  Relative segment, address: CODE_AREA 00008E6C - 00008E77 (0xc bytes), align: 2
  Segment part 16.            Intra module refs:   lgpInitLangPack
    -------------------------------------------------------------------------
DATA_C
  Relative segment, address: CODE_AREA 00008E78 - 00008E8F (0x18 bytes), align: 2
  Segment part 17.            Intra module refs:   lgpInitLangPack
    -------------------------------------------------------------------------
DATA_C
  Relative segment, address: CODE_AREA 00008E90 - 00008E9F (0x10 bytes), align: 2
  Segment part 18.            Intra module refs:   lgpInitLangPack
    -------------------------------------------------------------------------
DATA_C
  Relative segment, address: CODE_AREA 00008EA0 - 00008EA7 (0x8 bytes), align: 2
  Segment part 19.            Intra module refs:   lgpInitLangPack
    -------------------------------------------------------------------------
DATA_C
  Relative segment, address: CODE_AREA 00008EA8 - 00008EB3 (0xc bytes), align: 2
  Segment part 20.            Intra module refs:   Segment part 100
    -------------------------------------------------------------------------
DATA_C
  Relative segment, address: CODE_AREA 00008EB4 - 00008EC7 (0x14 bytes), align: 2
  Segment part 21.            Intra module refs:   lgpInitLangPack
    -------------------------------------------------------------------------
DATA_C
  Relative segment, address: CODE_AREA 00008EC8 - 00008ED3 (0xc bytes), align: 2
  Segment part 22.            Intra module refs:   lgpInitLangPack
    -------------------------------------------------------------------------
DATA_C
  Relative segment, address: CODE_AREA 00008ED4 - 00008EE7 (0x14 bytes), align: 2
  Segment part 23.            Intra module refs:   lgpInitLangPack
    -------------------------------------------------------------------------
DATA_C
  Relative segment, address: CODE_AREA 00008EE8 - 00008EF3 (0xc bytes), align: 2
  Segment part 24.            Intra module refs:   lgpInitLangPack
    -------------------------------------------------------------------------
DATA_C
  Relative segment, address: CODE_AREA 00008EF4 - 00008EFF (0xc bytes), align: 2
  Segment part 25.            Intra module refs:   lgpInitLangPack
    -------------------------------------------------------------------------
DATA_C
  Relative segment, address: CODE_AREA 00008F00 - 00008F0F (0x10 bytes), align: 2
  Segment part 26.            Intra module refs:   lgpInitLangPack
    -------------------------------------------------------------------------
DATA_C
  Relative segment, address: CODE_AREA 00008F10 - 00008F43 (0x34 bytes), align: 2
  Segment part 27.            Intra module refs:   lgpInitLangPack
    -------------------------------------------------------------------------
DATA_C
  Relative segment, address: CODE_AREA 00008F44 - 00008F5B (0x18 bytes), align: 2
  Segment part 28.            Intra module refs:   lgpInitLangPack
    -------------------------------------------------------------------------
DATA_C
  Relative segment, address: CODE_AREA 00008F5C - 00008F6F (0x14 bytes), align: 2
  Segment part 29.            Intra module refs:   lgpInitLangPack
    -------------------------------------------------------------------------
DATA_C
  Relative segment, address: CODE_AREA 00008F70 - 00008F7F (0x10 bytes), align: 2
  Segment part 30.            Intra module refs:   lgpInitLangPack
    -------------------------------------------------------------------------
DATA_C
  Segment part 31. NOT NEEDED.
    -------------------------------------------------------------------------
DATA_C
  Relative segment, address: CODE_AREA 00008F80 - 00008F87 (0x8 bytes), align: 2
  Segment part 32.            Intra module refs:   Segment part 168
                                                   Segment part 249
                                                   Segment part 378
    -------------------------------------------------------------------------
DATA_C
  Relative segment, address: CODE_AREA 00008F88 - 00008F8F (0x8 bytes), align: 2
  Segment part 33.            Intra module refs:   Segment part 175
                                                   Segment part 254
    -------------------------------------------------------------------------
DATA_C
  Relative segment, address: CODE_AREA 00008F90 - 00008F97 (0x8 bytes), align: 2
  Segment part 34.            Intra module refs:   LoadPng
    -------------------------------------------------------------------------
DATA_C
  Segment part 35. NOT NEEDED.
    -------------------------------------------------------------------------
DATA_C
  Relative segment, address: CODE_AREA 00008F98 - 00008F9F (0x8 bytes), align: 2
  Segment part 36.            Intra module refs:   PlayMP3File
    -------------------------------------------------------------------------
DATA_C
  Relative segment, address: CODE_AREA 00008FA0 - 00008FA7 (0x8 bytes), align: 2
  Segment part 37.            Intra module refs:   load_skin
    -------------------------------------------------------------------------
DATA_C
  Relative segment, address: CODE_AREA 00009567 - 00009568 (0x2 bytes), align: 0
  Segment part 38.            Intra module refs:   save_sets
    -------------------------------------------------------------------------
DATA_C
  Relative segment, address: CODE_AREA 00009569 - 0000956B (0x3 bytes), align: 0
  Segment part 39.            Intra module refs:   save_sets
    -------------------------------------------------------------------------
DATA_C
  Relative segment, address: CODE_AREA 00008FA8 - 00008FAF (0x8 bytes), align: 2
  Segment part 40.            Intra module refs:   Segment part 298
                                                   Segment part 398
    -------------------------------------------------------------------------
DATA_C
  Relative segment, address: CODE_AREA 00008FB0 - 00008FBB (0xc bytes), align: 2
  Segment part 41.            Intra module refs:   Refresh
    -------------------------------------------------------------------------
DATA_C
  Relative segment, address: CODE_AREA 00008FBC - 00008FC7 (0xc bytes), align: 2
  Segment part 42.            Intra module refs:   Refresh
    -------------------------------------------------------------------------
DATA_C
  Relative segment, address: CODE_AREA 00008FC8 - 00008FCF (0x8 bytes), align: 2
  Segment part 43.            Intra module refs:   WriteSPerr
    -------------------------------------------------------------------------
DATA_C
  Relative segment, address: CODE_AREA 00008FD0 - 00008FD7 (0x8 bytes), align: 2
  Segment part 44.            Intra module refs:   WriteSPerr
    -------------------------------------------------------------------------
DATA_C
  Relative segment, address: CODE_AREA 00008FD8 - 00008FDF (0x8 bytes), align: 2
  Segment part 45.            Intra module refs:   WriteSPerr
    -------------------------------------------------------------------------
DATA_C
  Relative segment, address: CODE_AREA 00008FE0 - 00008FEB (0xc bytes), align: 2
  Segment part 46.            Intra module refs:   OnRedraw
    -------------------------------------------------------------------------
DATA_C
  Relative segment, address: CODE_AREA 00008FEC - 00008FF3 (0x8 bytes), align: 2
  Segment part 47.            Intra module refs:   OnRedraw
    -------------------------------------------------------------------------
DATA_C
  Relative segment, address: CODE_AREA 00008FF4 - 00008FFB (0x8 bytes), align: 2
  Segment part 48.            Intra module refs:   DoErrKey
    -------------------------------------------------------------------------
DATA_C
  Relative segment, address: CODE_AREA 00008FFC - 00009007 (0xc bytes), align: 2
  Segment part 49.            Intra module refs:   SavePL
    -------------------------------------------------------------------------
DATA_C
  Relative segment, address: CODE_AREA 00009008 - 0000900F (0x8 bytes), align: 2
  Segment part 50.            Intra module refs:   Segment part 400
    -------------------------------------------------------------------------
DATA_C
  Relative segment, address: CODE_AREA 00009010 - 0000901B (0xc bytes), align: 2
  Segment part 51.            Intra module refs:   Segment part 401
    -------------------------------------------------------------------------
DATA_C
  Relative segment, address: CODE_AREA 0000901C - 00009023 (0x8 bytes), align: 2
  Segment part 52.            Intra module refs:   UpdateCSMname
    -------------------------------------------------------------------------
DATA_C
  Relative segment, address: CODE_AREA 00009024 - 0000902B (0x8 bytes), align: 2
  Segment part 53.            Intra module refs:   UpdateCSMname
    -------------------------------------------------------------------------
DATA_C
  Segment part 54. NOT NEEDED.
    -------------------------------------------------------------------------
DATA_C
  Relative segment, address: CODE_AREA 0000902C - 00009037 (0xc bytes), align: 2
  Segment part 55.            Intra module refs:   Segment part 173
                                                   Segment part 252
                                                   Segment part 99
    -------------------------------------------------------------------------
DATA_C
  Relative segment, address: CODE_AREA 00009038 - 0000903F (0x8 bytes), align: 2
  Segment part 56.            Intra module refs:   Segment part 174
                                                   Segment part 253
                                                   Segment part 99
    -------------------------------------------------------------------------
DATA_C
  Relative segment, address: CODE_AREA 00009040 - 00009047 (0x8 bytes), align: 2
  Segment part 57.            Intra module refs:   Segment part 257
                                                   Segment part 379
                                                   Segment part 99
    -------------------------------------------------------------------------
DATA_C
  Relative segment, address: CODE_AREA 00009048 - 0000904F (0x8 bytes), align: 2
  Segment part 58.            Intra module refs:   Segment part 258
                                                   Segment part 380
                                                   Segment part 99
    -------------------------------------------------------------------------
DATA_C
  Relative segment, address: CODE_AREA 00009050 - 00009057 (0x8 bytes), align: 2
  Segment part 59.            Intra module refs:   Segment part 259
                                                   Segment part 381
                                                   Segment part 99
    -------------------------------------------------------------------------
DATA_C
  Relative segment, address: CODE_AREA 00009058 - 0000905F (0x8 bytes), align: 2
  Segment part 60.            Intra module refs:   OnRedraw
                                                   Segment part 99
    -------------------------------------------------------------------------
DATA_C
  Relative segment, address: CODE_AREA 00009060 - 00009067 (0x8 bytes), align: 2
  Segment part 61.            Intra module refs:   OnRedraw
                                                   Segment part 99
    -------------------------------------------------------------------------
DATA_C
  Relative segment, address: CODE_AREA 00009068 - 0000906F (0x8 bytes), align: 2
  Segment part 62.            Intra module refs:   OnRedraw
                                                   Segment part 99
    -------------------------------------------------------------------------
DATA_C
  Relative segment, address: CODE_AREA 00009070 - 0000907B (0xc bytes), align: 2
  Segment part 63.            Intra module refs:   OnRedraw
                                                   Segment part 99
    -------------------------------------------------------------------------
DATA_C
  Relative segment, address: CODE_AREA 0000907C - 00009083 (0x8 bytes), align: 2
  Segment part 64.            Intra module refs:   OnRedraw
                                                   Segment part 99
    -------------------------------------------------------------------------
DATA_C
  Relative segment, address: CODE_AREA 00009084 - 0000908B (0x8 bytes), align: 2
  Segment part 65.            Intra module refs:   OnRedraw
                                                   Segment part 99
    -------------------------------------------------------------------------
DATA_C
  Relative segment, address: CODE_AREA 0000908C - 00009093 (0x8 bytes), align: 2
  Segment part 66.            Intra module refs:   Segment part 179
                                                   Segment part 262
                                                   Segment part 99
    -------------------------------------------------------------------------
DATA_C
  Relative segment, address: CODE_AREA 00009094 - 0000909B (0x8 bytes), align: 2
  Segment part 67.            Intra module refs:   LoadPng
                                                   Segment part 99
    -------------------------------------------------------------------------
DATA_C
  Relative segment, address: CODE_AREA 0000909C - 000090A3 (0x8 bytes), align: 2
  Segment part 68.            Intra module refs:   Segment part 177
                                                   Segment part 256
                                                   Segment part 99
    -------------------------------------------------------------------------
DATA_C
  Relative segment, address: CODE_AREA 000090A4 - 000090AB (0x8 bytes), align: 2
  Segment part 69.            Intra module refs:   Segment part 176
                                                   Segment part 377
                                                   Segment part 99
    -------------------------------------------------------------------------
DATA_C
  Relative segment, address: CODE_AREA 000090AC - 000090B3 (0x8 bytes), align: 2
  Segment part 70.            Intra module refs:   Segment part 167
                                                   Segment part 271
                                                   Segment part 99
    -------------------------------------------------------------------------
DATA_C
  Relative segment, address: CODE_AREA 000090B4 - 000090BB (0x8 bytes), align: 2
  Segment part 71.            Intra module refs:   Segment part 180
                                                   Segment part 261
                                                   Segment part 99
    -------------------------------------------------------------------------
DATA_C
  Relative segment, address: CODE_AREA 000090BC - 000090C3 (0x8 bytes), align: 2
  Segment part 72.            Intra module refs:   Segment part 181
                                                   Segment part 260
                                                   Segment part 99
    -------------------------------------------------------------------------
DATA_C
  Relative segment, address: CODE_AREA 000090C4 - 000090D3 (0x10 bytes), align: 2
  Segment part 73.            Intra module refs:   Segment part 100
    -------------------------------------------------------------------------
DATA_C
  Relative segment, address: CODE_AREA 000090D4 - 000090DB (0x8 bytes), align: 2
  Segment part 74.            Intra module refs:   Segment part 100
    -------------------------------------------------------------------------
DATA_C
  Relative segment, address: CODE_AREA 0000956C - 0000956E (0x3 bytes), align: 0
  Segment part 75.            Intra module refs:   Segment part 100
    -------------------------------------------------------------------------
DATA_C
  Relative segment, address: CODE_AREA 000090DC - 000090E7 (0xc bytes), align: 2
  Segment part 76.            Intra module refs:   Segment part 100
    -------------------------------------------------------------------------
DATA_C
  Relative segment, address: CODE_AREA 000090E8 - 000090EF (0x8 bytes), align: 2
  Segment part 77.            Intra module refs:   load_skin
    -------------------------------------------------------------------------
DATA_C
  Relative segment, address: CODE_AREA 000090F0 - 000090F7 (0x8 bytes), align: 2
  Segment part 78.            Intra module refs:   Segment part 100
    -------------------------------------------------------------------------
DATA_C
  Relative segment, address: CODE_AREA 000090F8 - 000090FF (0x8 bytes), align: 2
  Segment part 79.            Intra module refs:   Segment part 100
    -------------------------------------------------------------------------
DATA_C
  Relative segment, address: CODE_AREA 00009100 - 0000910B (0xc bytes), align: 2
  Segment part 80.            Intra module refs:   Segment part 101
    -------------------------------------------------------------------------
DATA_C
  Relative segment, address: CODE_AREA 0000910C - 00009113 (0x8 bytes), align: 2
  Segment part 81.            Intra module refs:   Segment part 101
    -------------------------------------------------------------------------
DATA_C
  Relative segment, address: CODE_AREA 00009114 - 0000911B (0x8 bytes), align: 2
  Segment part 82.            Intra module refs:   Segment part 101
    -------------------------------------------------------------------------
DATA_C
  Segment part 83. NOT NEEDED.
    -------------------------------------------------------------------------
DATA_C
  Segment part 84. NOT NEEDED.
    -------------------------------------------------------------------------
DATA_C
  Relative segment, address: CODE_AREA 0000911C - 00009133 (0x18 bytes), align: 2
  Segment part 85.            Intra module refs:   lgpInitLangPack
    -------------------------------------------------------------------------
DATA_C
  Relative segment, address: CODE_AREA 00009134 - 0000913B (0x8 bytes), align: 2
  Segment part 86.            Intra module refs:   lgpInitLangPack
    -------------------------------------------------------------------------
DATA_C
  Relative segment, address: CODE_AREA 0000913C - 0000914B (0x10 bytes), align: 2
  Segment part 87.            Intra module refs:   lgpInitLangPack
    -------------------------------------------------------------------------
DATA_C
  Relative segment, address: CODE_AREA 0000914C - 00009153 (0x8 bytes), align: 2
  Segment part 88.            Intra module refs:   lgpInitLangPack
    -------------------------------------------------------------------------
DATA_C
  Relative segment, address: CODE_AREA 00009154 - 0000915F (0xc bytes), align: 2
  Segment part 89.            Intra module refs:   lgpInitLangPack
    -------------------------------------------------------------------------
DATA_C
  Relative segment, address: CODE_AREA 00009160 - 0000916B (0xc bytes), align: 2
  Segment part 90.            Intra module refs:   lgpInitLangPack
    -------------------------------------------------------------------------
DATA_C
  Relative segment, address: CODE_AREA 0000916C - 00009177 (0xc bytes), align: 2
  Segment part 91.            Intra module refs:   lgpInitLangPack
    -------------------------------------------------------------------------
DATA_C
  Relative segment, address: CODE_AREA 00009178 - 0000917F (0x8 bytes), align: 2
  Segment part 92.            Intra module refs:   lgpInitLangPack
    -------------------------------------------------------------------------
DATA_C
  Relative segment, address: CODE_AREA 00009180 - 00009187 (0x8 bytes), align: 2
  Segment part 93.            Intra module refs:   lgpInitLangPack
    -------------------------------------------------------------------------
DATA_C
  Relative segment, address: CODE_AREA 00009188 - 0000918F (0x8 bytes), align: 2
  Segment part 94.            Intra module refs:   lgpInitLangPack
    -------------------------------------------------------------------------
DATA_C
  Relative segment, address: CODE_AREA 00009190 - 0000919B (0xc bytes), align: 2
  Segment part 95.            Intra module refs:   lgpInitLangPack
    -------------------------------------------------------------------------
DATA_C
  Relative segment, address: CODE_AREA 0000919C - 000091A7 (0xc bytes), align: 2
  Segment part 96.            Intra module refs:   lgpInitLangPack
    -------------------------------------------------------------------------
DATA_C
  Relative segment, address: CODE_AREA 000091A8 - 000091B3 (0xc bytes), align: 2
  Segment part 97.            Intra module refs:   lgpInitLangPack
    -------------------------------------------------------------------------
DATA_C
  Relative segment, address: CODE_AREA 000091B4 - 000091BB (0x8 bytes), align: 2
  Segment part 98.            Intra module refs:   lgpInitLangPack
    -------------------------------------------------------------------------
DATA_C
  Relative segment, address: CODE_AREA 000091BC - 00009203 (0x48 bytes), align: 2
  Segment part 99.            Intra module refs:   LoadPng
    -------------------------------------------------------------------------
DATA_C
  Relative segment, address: CODE_AREA 00009204 - 0000921F (0x1c bytes), align: 2
  Segment part 100.           Intra module refs:   LoadPng
    -------------------------------------------------------------------------
DATA_C
  Relative segment, address: CODE_AREA 00009220 - 0000922B (0xc bytes), align: 2
  Segment part 101.           Intra module refs:   LoadPng
    -------------------------------------------------------------------------
CODE
  Segment part 153. NOT NEEDED.
    -------------------------------------------------------------------------
CODE
  Segment part 154. NOT NEEDED.
           ENTRY                   ADDRESS         REF BY
           =====                   =======         ======
           Log                     
               not allocated function
    -------------------------------------------------------------------------
CODE
  Segment part 155. NOT NEEDED.
    -------------------------------------------------------------------------
DATA_C
  Relative segment, address: CODE_AREA 0000922C - 0000922F (0x4 bytes), align: 2
  Segment part 102.           Intra module refs:   MAINCSM
           ENTRY                   ADDRESS         REF BY
           =====                   =======         ======
           minus11                 0000922C 
    -------------------------------------------------------------------------
DATA_Z
  Relative segment, address: CODE_AREA 00009E14 - 00009F2B (0x118 bytes), align: 2
  Segment part 103.           Intra module refs:   MAINCSM
           ENTRY                   ADDRESS         REF BY
           =====                   =======         ======
           maincsm_name_body       00009E14 
    -------------------------------------------------------------------------
DATA_Z
  Relative segment, address: CODE_AREA 00009F2C - 00009F2F (0x4 bytes), align: 2
  Segment part 104.           Intra module refs:   Segment part 242
                                                   Segment part 407
           ENTRY                   ADDRESS         REF BY
           =====                   =======         ======
           MAINCSM_ID              00009F2C 
    -------------------------------------------------------------------------
DATA_Z
  Relative segment, address: CODE_AREA 00009F30 - 00009F33 (0x4 bytes), align: 2
  Segment part 105.           Intra module refs:   Segment part 218
                                                   Segment part 245
                                                   Segment part 343
           ENTRY                   ADDRESS         REF BY
           =====                   =======         ======
           MAINGUI_ID              00009F30        scroll_timer_proc (playlist)
    -------------------------------------------------------------------------
DATA_C
  Relative segment, address: CODE_AREA 00009230 - 0000924F (0x20 bytes), align: 2
  Segment part 106.           Intra module refs:   Segment part 222
                                                   Segment part 373
           ENTRY                   ADDRESS         REF BY
           =====                   =======         ======
           ipc_my_name             00009230 
    -------------------------------------------------------------------------
DATA_C
  Relative segment, address: CODE_AREA 00009250 - 00009257 (0x8 bytes), align: 2
  Segment part 107.           Intra module refs:   Segment part 224
           ENTRY                   ADDRESS         REF BY
           =====                   =======         ======
           ipc_xtask_name          00009250 
    -------------------------------------------------------------------------
DATA_C
  Relative segment, address: CODE_AREA 00009258 - 0000925F (0x8 bytes), align: 2
  Segment part 108.           Intra module refs:   Segment part 226
                                                   Segment part 336
           ENTRY                   ADDRESS         REF BY
           =====                   =======         ======
           ipc_grantee_name        00009258 
    -------------------------------------------------------------------------
DATA_C
  Relative segment, address: CODE_AREA 00009260 - 00009267 (0x8 bytes), align: 2
  Segment part 109.           Intra module refs:   maincsm_onmessage
           ENTRY                   ADDRESS         REF BY
           =====                   =======         ======
           ipc_control_name        00009260 
    -------------------------------------------------------------------------
DATA_C
  Relative segment, address: CODE_AREA 00009268 - 0000926F (0x8 bytes), align: 2
  Segment part 110.           Intra module refs:   maincsm_onmessage
           ENTRY                   ADDRESS         REF BY
           =====                   =======         ======
           ipc_editor_name         00009268 
    -------------------------------------------------------------------------
DATA_Z
  Relative segment, address: CODE_AREA 00009F34 - 00009F3F (0xc bytes), align: 2
  Segment part 111.           Intra module refs:   Segment part 221
                                                   Segment part 345
           ENTRY                   ADDRESS         REF BY
           =====                   =======         ======
           gipc                    00009F34 
    -------------------------------------------------------------------------
DATA_Z
  Relative segment, address: CODE_AREA 00009F40 - 00009F43 (0x4 bytes), align: 2
  Segment part 112.           Intra module refs:   Segment part 234
                                                   Segment part 334
           ENTRY                   ADDRESS         REF BY
           =====                   =======         ======
           SPerrs                  00009F40 
    -------------------------------------------------------------------------
DATA_Z
  Relative segment, address: CODE_AREA 0000D244 - 0000D244 (0x1 bytes), align: 0
  Segment part 113.           Intra module refs:   OnKey
           ENTRY                   ADDRESS         REF BY
           =====                   =======         ======
           copy                    0000D244        Segment part 215 (playlist)
    -------------------------------------------------------------------------
DATA_Z
  Relative segment, address: CODE_AREA 0000D245 - 0000D245 (0x1 bytes), align: 0
  Segment part 114.           Intra module refs:   OnKey
           ENTRY                   ADDRESS         REF BY
           =====                   =======         ======
           move                    0000D245 
    -------------------------------------------------------------------------
DATA_Z
  Relative segment, address: CODE_AREA 0000D246 - 0000D246 (0x1 bytes), align: 0
  Segment part 115.           Intra module refs:   OnKey
           ENTRY                   ADDRESS         REF BY
           =====                   =======         ======
           EditPL                  0000D246        Segment part 40 (sets_menu)
    -------------------------------------------------------------------------
DATA_Z
  Relative segment, address: CODE_AREA 0000D247 - 0000D247 (0x1 bytes), align: 0
  Segment part 116.           Intra module refs:   my_keyhook
           ENTRY                   ADDRESS         REF BY
           =====                   =======         ======
           mode                    0000D247 
    -------------------------------------------------------------------------
DATA_Z
  Relative segment, address: CODE_AREA 0000D248 - 0000D248 (0x1 bytes), align: 0
  Segment part 117.           Intra module refs:   Segment part 318
           ENTRY                   ADDRESS         REF BY
           =====                   =======         ======
           KeyLock                 0000D248 
    -------------------------------------------------------------------------
DATA_Z
  Relative segment, address: CODE_AREA 0000D208 - 0000D209 (0x2 bytes), align: 1
  Segment part 118.           Intra module refs:   Segment part 321
                                                   Segment part 330
           ENTRY                   ADDRESS         REF BY
           =====                   =======         ======
           Stat_keypressed         0000D208        Segment part 174 (playlist)
    -------------------------------------------------------------------------
DATA_Z
  Relative segment, address: CODE_AREA 0000D20A - 0000D20B (0x2 bytes), align: 1
  Segment part 119.           Intra module refs:   Segment part 322
           ENTRY                   ADDRESS         REF BY
           =====                   =======         ======
           Mode_keypressed         0000D20A 
    -------------------------------------------------------------------------
DATA_Z
  Relative segment, address: CODE_AREA 0000D20C - 0000D20D (0x2 bytes), align: 1
  Segment part 120.           Intra module refs:   Segment part 328
           ENTRY                   ADDRESS         REF BY
           =====                   =======         ======
           N_keypressed            0000D20C 
    -------------------------------------------------------------------------
DATA_Z
  Relative segment, address: CODE_AREA 0000D20E - 0000D20F (0x2 bytes), align: 1
  Segment part 121.           Intra module refs:   Segment part 329
           ENTRY                   ADDRESS         REF BY
           =====                   =======         ======
           P_keypressed            0000D20E 
    -------------------------------------------------------------------------
DATA_Z
  Relative segment, address: CODE_AREA 0000D249 - 0000D249 (0x1 bytes), align: 0
  Segment part 122.           Intra module refs:   Segment part 223
                                                   Segment part 335
           ENTRY                   ADDRESS         REF BY
           =====                   =======         ======
           IPC_COPY                0000D249 
    -------------------------------------------------------------------------
DATA_Z
  Relative segment, address: CODE_AREA 00009F44 - 00009F83 (0x40 bytes), align: 2
  Segment part 123.           Intra module refs:   Segment part 202
                                                   Segment part 251
           ENTRY                   ADDRESS         REF BY
           =====                   =======         ======
           coord                   00009F44        BandRoll (playlist)
                                                   PL_Redraw (playlist)
                                                   Segment part 131 (playlist)
                                                   Segment part 146 (playlist)
                                                   Segment part 235 (playlist)
                                                   Segment part 237 (playlist)
    -------------------------------------------------------------------------
DATA_Z
  Relative segment, address: CODE_AREA 00009F84 - 00009FB3 (0x30 bytes), align: 2
  Segment part 124.           Intra module refs:   OnRedraw
                                                   load_skin
           ENTRY                   ADDRESS         REF BY
           =====                   =======         ======
           COLOR                   00009F84        OnRedraw (FM)
                                                   PL_Redraw (playlist)
                                                   Segment part 252 (playlist)
    -------------------------------------------------------------------------
DATA_Z
  Relative segment, address: CODE_AREA 00009FB4 - 00009FC7 (0x14 bytes), align: 2
  Segment part 125.           Intra module refs:   Segment part 212
                                                   Segment part 396
           ENTRY                   ADDRESS         REF BY
           =====                   =======         ======
           Playlists               00009FB4        Segment part 264 (playlist)
    -------------------------------------------------------------------------
DATA_Z
  Relative segment, address: CODE_AREA 00009FC8 - 00009FCB (0x4 bytes), align: 2
  Segment part 126.           Intra module refs:   Segment part 198
           ENTRY                   ADDRESS         REF BY
           =====                   =======         ======
           gObj                    00009FC8        Segment part 175 (playlist)
    -------------------------------------------------------------------------
DATA_Z
  Relative segment, address: CODE_AREA 0000D24A - 0000D24A (0x1 bytes), align: 0
  Segment part 127.           Intra module refs:   Segment part 317
                                                   Segment part 374
           ENTRY                   ADDRESS         REF BY
           =====                   =======         ======
           Quit_Required           0000D24A 
    -------------------------------------------------------------------------
DATA_Z
  Relative segment, address: CODE_AREA 00009FCC - 0000A0CB (0x100 bytes), align: 2
  Segment part 128.           Intra module refs:   SavePL
           ENTRY                   ADDRESS         REF BY
           =====                   =======         ======
           list                    00009FCC 
    -------------------------------------------------------------------------
DATA_Z
  Relative segment, address: CODE_AREA 0000A0CC - 0000A1CB (0x100 bytes), align: 2
  Segment part 129.           Intra module refs:   Segment part 169
                                                   Segment part 246
                                                   Segment part 397
           ENTRY                   ADDRESS         REF BY
           =====                   =======         ======
           sfname                  0000A0CC 
    -------------------------------------------------------------------------
DATA_Z
  Relative segment, address: CODE_AREA 0000D210 - 0000D211 (0x2 bytes), align: 1
  Segment part 130.           Intra module refs:   Segment part 211
                                                   Segment part 295
                                                   Segment part 402
           ENTRY                   ADDRESS         REF BY
           =====                   =======         ======
           playmode                0000D210 
    -------------------------------------------------------------------------
DATA_C
  Segment part 131. NOT NEEDED.
           ENTRY                   ADDRESS         REF BY
           =====                   =======         ======
           p_w                     
    -------------------------------------------------------------------------
DATA_C
  Segment part 132. NOT NEEDED.
           ENTRY                   ADDRESS         REF BY
           =====                   =======         ======
           p_2s                    
    -------------------------------------------------------------------------
DATA_C
  Relative segment, address: CODE_AREA 00009270 - 00009277 (0x8 bytes), align: 2
  Segment part 133.           Intra module refs:   Segment part 170
                                                   Segment part 247
           ENTRY                   ADDRESS         REF BY
           =====                   =======         ======
           p_3s                    00009270        OnRedraw (FM)
                                                   PL_Redraw (playlist)
    -------------------------------------------------------------------------
DATA_C
  Relative segment, address: CODE_AREA 00009278 - 00009283 (0xc bytes), align: 2
  Segment part 134.           Intra module refs:   Segment part 178
                                                   Segment part 255
                                                   Segment part 375
           ENTRY                   ADDRESS         REF BY
           =====                   =======         ======
           p_4s                    00009278 
    -------------------------------------------------------------------------
DATA_Z
  Relative segment, address: CODE_AREA 0000D24B - 0000D24B (0x1 bytes), align: 0
  Segment part 135.           Intra module refs:   Segment part 182
                                                   Segment part 250
           ENTRY                   ADDRESS         REF BY
           =====                   =======         ======
           pngloadcomp             0000D24B 
    -------------------------------------------------------------------------
DATA_Z
  Relative segment, address: CODE_AREA 0000D212 - 0000D213 (0x2 bytes), align: 1
  Segment part 136.           Intra module refs:   Segment part 172
                                                   Segment part 272
           ENTRY                   ADDRESS         REF BY
           =====                   =======         ======
           Npng                    0000D212 
    -------------------------------------------------------------------------
DATA_Z
  Relative segment, address: CODE_AREA 0000A1CC - 0000A1DB (0x10 bytes), align: 2
  Segment part 137.           Intra module refs:   Segment part 241
                                                   Segment part 382
           ENTRY                   ADDRESS         REF BY
           =====                   =======         ======
           offtm                   0000A1CC 
    -------------------------------------------------------------------------
DATA_Z
  Segment part 138. NOT NEEDED.
           ENTRY                   ADDRESS         REF BY
           =====                   =======         ======
           lvtm                    
    -------------------------------------------------------------------------
DATA_Z
  Relative segment, address: CODE_AREA 0000A1DC - 0000A1FF (0x24 bytes), align: 2
  Segment part 139.           Intra module refs:   Segment part 393
           ENTRY                   ADDRESS         REF BY
           =====                   =======         ======
           wl                      0000A1DC 
    -------------------------------------------------------------------------
DATA_Z
  Relative segment, address: CODE_AREA 0000A200 - 0000A20F (0x10 bytes), align: 2
  Segment part 140.           Intra module refs:   Segment part 187
                                                   Segment part 333
           ENTRY                   ADDRESS         REF BY
           =====                   =======         ======
           mytmr                   0000A200 
    -------------------------------------------------------------------------
DATA_Z
  Relative segment, address: CODE_AREA 0000A210 - 0000A213 (0x4 bytes), align: 2
  Segment part 141.           Intra module refs:   Segment part 209
                                                   Segment part 264
                                                   Segment part 363
           ENTRY                   ADDRESS         REF BY
           =====                   =======         ======
           tm                      0000A210        Segment part 110 (playlist)
    -------------------------------------------------------------------------
DATA_Z
  Relative segment, address: CODE_AREA 0000A214 - 0000A217 (0x4 bytes), align: 2
  Segment part 142.           Intra module refs:   Segment part 188
                                                   Segment part 263
                                                   Segment part 354
           ENTRY                   ADDRESS         REF BY
           =====                   =======         ======
           ln                      0000A214        DoRewinded (playlist)
    -------------------------------------------------------------------------
DATA_Z
  Relative segment, address: CODE_AREA 0000D24C - 0000D24C (0x1 bytes), align: 0
  Segment part 143.           Intra module refs:   obSetPause
           ENTRY                   ADDRESS         REF BY
           =====                   =======         ======
           tm_er                   0000D24C        TogglePlayback (playlist)
    -------------------------------------------------------------------------
DATA_Z
  Relative segment, address: CODE_AREA 0000A218 - 0000A2BF (0xa8 bytes), align: 2
  Segment part 144.           Intra module refs:   CheckDoubleRun
                                                   DoErrKey
                                                   DoExit
                                                   LoadPng
                                                   Segment part 162
                                                   Segment part 201
                                                   Segment part 319
                                                   maincsm_onmessage
           ENTRY                   ADDRESS         REF BY
           =====                   =======         ======
           lgpData                 0000A218        EnumIni (klib)
                                                   PastFile (FM)
                                                   PastLine (playlist)
                                                   ReadID3v1 (ID3Tags)
                                                   SavePlaylist (playlist)
                                                   Segment part 172 (item_info)
                                                   ShowID3 (mainmenu)
                                                   initMainMenuLangPack (mainmenu)
                                                   initSetsMenuLangPack (sets_menu)
    -------------------------------------------------------------------------
DATA_Z
  Relative segment, address: CODE_AREA 0000A2C0 - 0000A2C3 (0x4 bytes), align: 2
  Segment part 145.           Intra module refs:   Segment part 161
           ENTRY                   ADDRESS         REF BY
           =====                   =======         ======
           lgpLoaded               0000A2C0 
    -------------------------------------------------------------------------
CODE
  Relative segment, address: CODE_AREA 0000183C - 0000184F (0x14 bytes), align: 2
  Segment part 156.           Intra module refs:   lgpInitLangPack
           ENTRY                   ADDRESS         REF BY
           =====                   =======         ======
           InitLangPack            0000183C 
               stack 1 = 00000000 ( 00000004 )
    -------------------------------------------------------------------------
CODE
  Segment part 157. NOT NEEDED.
    -------------------------------------------------------------------------
CODE
  Relative segment, address: CODE_AREA 00001850 - 00001C37 (0x3e8 bytes), align: 2
  Segment part 158.           Intra module refs:   main
                                                   maincsm_onmessage
           ENTRY                   ADDRESS         REF BY
           =====                   =======         ======
           lgpInitLangPack         00001850 
               stack 1 = 00000000 ( 000000CC )
    -------------------------------------------------------------------------
CODE
  Segment part 159. NOT NEEDED.
    -------------------------------------------------------------------------
CODE
  Relative segment, address: CODE_AREA 00001C38 - 00001C73 (0x3c bytes), align: 2
  Segment part 160.           Intra module refs:   ElfKiller
                                                   maincsm_onmessage
           ENTRY                   ADDRESS         REF BY
           =====                   =======         ======
           lgpFreeLangPack         00001C38 
               stack 1 = 00000000 ( 00000008 )
    -------------------------------------------------------------------------
CODE
  Relative segment, address: CODE_AREA 00001C74 - 00001C77 (0x4 bytes), align: 2
  Segment part 161.           Intra module refs:   lgpFreeLangPack
                                                   lgpInitLangPack
    -------------------------------------------------------------------------
CODE
  Relative segment, address: CODE_AREA 00001C78 - 00001C7B (0x4 bytes), align: 2
  Segment part 162.           Intra module refs:   lgpFreeLangPack
                                                   lgpInitLangPack
    -------------------------------------------------------------------------
CODE
  Segment part 163. NOT NEEDED.
    -------------------------------------------------------------------------
CODE
  Segment part 164. NOT NEEDED.
           ENTRY                   ADDRESS         REF BY
           =====                   =======         ======
           InitLanguage            
               not allocated function
    -------------------------------------------------------------------------
CODE
  Segment part 165. NOT NEEDED.
    -------------------------------------------------------------------------
CODE
  Relative segment, address: CODE_AREA 00001C7C - 0000238F (0x714 bytes), align: 2
  Segment part 166.           Intra module refs:   Segment part 227
                                                   Segment part 390
           ENTRY                   ADDRESS         REF BY
           =====                   =======         ======
           LoadPng                 00001C7C 
               stack 1 = 00000000 ( 00000060 )
    -------------------------------------------------------------------------
CODE
  Relative segment, address: CODE_AREA 00002390 - 00002393 (0x4 bytes), align: 2
  Segment part 167.           Intra module refs:   LoadPng
    -------------------------------------------------------------------------
CODE
  Relative segment, address: CODE_AREA 00002394 - 00002397 (0x4 bytes), align: 2
  Segment part 168.           Intra module refs:   LoadPng
    -------------------------------------------------------------------------
CODE
  Relative segment, address: CODE_AREA 00002398 - 0000239B (0x4 bytes), align: 2
  Segment part 169.           Intra module refs:   LoadPng
    -------------------------------------------------------------------------
CODE
  Relative segment, address: CODE_AREA 0000239C - 0000239F (0x4 bytes), align: 2
  Segment part 170.           Intra module refs:   LoadPng
    -------------------------------------------------------------------------
CODE
  Relative segment, address: CODE_AREA 000023A0 - 000023A3 (0x4 bytes), align: 2
  Segment part 171.           Intra module refs:   LoadPng
    -------------------------------------------------------------------------
CODE
  Relative segment, address: CODE_AREA 000023A4 - 000023A7 (0x4 bytes), align: 2
  Segment part 172.           Intra module refs:   LoadPng
    -------------------------------------------------------------------------
CODE
  Relative segment, address: CODE_AREA 000023A8 - 000023AB (0x4 bytes), align: 2
  Segment part 173.           Intra module refs:   LoadPng
    -------------------------------------------------------------------------
CODE
  Relative segment, address: CODE_AREA 000023AC - 000023AF (0x4 bytes), align: 2
  Segment part 174.           Intra module refs:   LoadPng
    -------------------------------------------------------------------------
CODE
  Relative segment, address: CODE_AREA 000023B0 - 000023B3 (0x4 bytes), align: 2
  Segment part 175.           Intra module refs:   LoadPng
    -------------------------------------------------------------------------
CODE
  Relative segment, address: CODE_AREA 000023B4 - 000023B7 (0x4 bytes), align: 2
  Segment part 176.           Intra module refs:   LoadPng
    -------------------------------------------------------------------------
CODE
  Relative segment, address: CODE_AREA 000023B8 - 000023BB (0x4 bytes), align: 2
  Segment part 177.           Intra module refs:   LoadPng
    -------------------------------------------------------------------------
CODE
  Relative segment, address: CODE_AREA 000023BC - 000023BF (0x4 bytes), align: 2
  Segment part 178.           Intra module refs:   LoadPng
    -------------------------------------------------------------------------
CODE
  Relative segment, address: CODE_AREA 000023C0 - 000023C3 (0x4 bytes), align: 2
  Segment part 179.           Intra module refs:   LoadPng
    -------------------------------------------------------------------------
CODE
  Relative segment, address: CODE_AREA 000023C4 - 000023C7 (0x4 bytes), align: 2
  Segment part 180.           Intra module refs:   LoadPng
    -------------------------------------------------------------------------
CODE
  Relative segment, address: CODE_AREA 000023C8 - 000023CB (0x4 bytes), align: 2
  Segment part 181.           Intra module refs:   LoadPng
    -------------------------------------------------------------------------
CODE
  Relative segment, address: CODE_AREA 000023CC - 000023CF (0x4 bytes), align: 2
  Segment part 182.           Intra module refs:   LoadPng
    -------------------------------------------------------------------------
CODE
  Segment part 183. NOT NEEDED.
    -------------------------------------------------------------------------
DATA_Z
  Relative segment, address: CODE_AREA 0000D214 - 0000D215 (0x2 bytes), align: 1
  Segment part 146.           Intra module refs:   Segment part 189
           ENTRY                   ADDRESS         REF BY
           =====                   =======         ======
           sttmr                   0000D214 
    -------------------------------------------------------------------------
CODE
  Relative segment, address: CODE_AREA 000023D0 - 00002437 (0x68 bytes), align: 2
  Segment part 184.           Intra module refs:   obPrep
           ENTRY                   ADDRESS         REF BY
           =====                   =======         ======
           EXT_REDRAW              000023D0        StopRewind (playlist)
                                                   TogglePlayback (playlist)
               stack 1 = 00000000 ( 00000004 )
    -------------------------------------------------------------------------
CODE
  Segment part 185. NOT NEEDED.
    -------------------------------------------------------------------------
CODE
  Relative segment, address: CODE_AREA 00002438 - 0000246F (0x38 bytes), align: 2
  Segment part 186.           Intra module refs:   PlayMP3File
                                                   obSetPause
           ENTRY                   ADDRESS         REF BY
           =====                   =======         ======
           StopTMR                 00002438        NextTrackX (playlist)
                                                   StartRewind (playlist)
                                                   StopAllPlayback (playlist)
                                                   TogglePlayback (playlist)
               stack 1 = 00000000 ( 00000008 )
    -------------------------------------------------------------------------
CODE
  Relative segment, address: CODE_AREA 00002470 - 00002473 (0x4 bytes), align: 2
  Segment part 187.           Intra module refs:   EXT_REDRAW
                                                   StopTMR
    -------------------------------------------------------------------------
CODE
  Relative segment, address: CODE_AREA 00002474 - 00002477 (0x4 bytes), align: 2
  Segment part 188.           Intra module refs:   StopTMR
    -------------------------------------------------------------------------
CODE
  Relative segment, address: CODE_AREA 00002478 - 0000247B (0x4 bytes), align: 2
  Segment part 189.           Intra module refs:   EXT_REDRAW
                                                   StopTMR
    -------------------------------------------------------------------------
CODE
  Segment part 190. NOT NEEDED.
    -------------------------------------------------------------------------
CODE
  Segment part 191. NOT NEEDED.
           ENTRY                   ADDRESS         REF BY
           =====                   =======         ======
           findmp3length           
               not allocated function
    -------------------------------------------------------------------------
CODE
  Segment part 192. NOT NEEDED.
    -------------------------------------------------------------------------
CODE
  Segment part 193. NOT NEEDED.
    -------------------------------------------------------------------------
CODE
  Relative segment, address: CODE_AREA 0000247C - 0000249F (0x24 bytes), align: 2
  Segment part 194.           Intra module refs:   ElfKiller
                                                   PlayMP3File
           ENTRY                   ADDRESS         REF BY
           =====                   =======         ======
           KillObj                 0000247C 
               stack 1 = 00000000 ( 00000008 )
    -------------------------------------------------------------------------
CODE
  Segment part 195. NOT NEEDED.
    -------------------------------------------------------------------------
CODE
  Relative segment, address: CODE_AREA 000024A0 - 000028F7 (0x458 bytes), align: 2
  Segment part 196.
           ENTRY                   ADDRESS         REF BY
           =====                   =======         ======
           PlayMP3File             000024A0        NextTrack (playlist)
                                                   NextTrackX (playlist)
                                                   OnKeyFM (FM)
                                                   PlayTrackUnderC (playlist)
                                                   PreviousTrack (playlist)
                                                   RandTrack (playlist)
                                                   RepeatTrack (playlist)
                                                   TogglePlayback (playlist)
               stack 1 = 00000000 ( 00000068 )
    -------------------------------------------------------------------------
CODE
  Relative segment, address: CODE_AREA 000028F8 - 000028FB (0x4 bytes), align: 2
  Segment part 197.           Intra module refs:   PlayMP3File
    -------------------------------------------------------------------------
CODE
  Relative segment, address: CODE_AREA 000028FC - 000028FF (0x4 bytes), align: 2
  Segment part 198.           Intra module refs:   KillObj
                                                   PlayMP3File
    -------------------------------------------------------------------------
CODE
  Segment part 199. NOT NEEDED.
    -------------------------------------------------------------------------
CODE
  Relative segment, address: CODE_AREA 00002900 - 00002C53 (0x354 bytes), align: 2
  Segment part 200.           Intra module refs:   Refresh
                                                   main
           ENTRY                   ADDRESS         REF BY
           =====                   =======         ======
           load_skin               00002900 
               stack 1 = 00000000 ( 00000050 )
    -------------------------------------------------------------------------
CODE
  Relative segment, address: CODE_AREA 00002C54 - 00002C57 (0x4 bytes), align: 2
  Segment part 201.           Intra module refs:   PlayMP3File
                                                   load_skin
    -------------------------------------------------------------------------
CODE
  Relative segment, address: CODE_AREA 00002C58 - 00002C5B (0x4 bytes), align: 2
  Segment part 202.           Intra module refs:   load_skin
    -------------------------------------------------------------------------
CODE
  Segment part 203. NOT NEEDED.
    -------------------------------------------------------------------------
CODE
  Relative segment, address: CODE_AREA 00002C5C - 00002E83 (0x228 bytes), align: 2
  Segment part 204.           Intra module refs:   ElfKiller
           ENTRY                   ADDRESS         REF BY
           =====                   =======         ======
           save_sets               00002C5C 
               stack 1 = 00000000 ( 0000001C )
    -------------------------------------------------------------------------
CODE
  Relative segment, address: CODE_AREA 00002E84 - 00002E87 (0x4 bytes), align: 2
  Segment part 205.           Intra module refs:   load_skin
                                                   save_sets
    -------------------------------------------------------------------------
CODE
  Relative segment, address: CODE_AREA 00002E88 - 00002E8B (0x4 bytes), align: 2
  Segment part 206.           Intra module refs:   load_skin
                                                   save_sets
    -------------------------------------------------------------------------
CODE
  Relative segment, address: CODE_AREA 00002E8C - 00002E8F (0x4 bytes), align: 2
  Segment part 207.           Intra module refs:   PlayMP3File
                                                   load_skin
                                                   save_sets
    -------------------------------------------------------------------------
CODE
  Relative segment, address: CODE_AREA 00002E90 - 00002E93 (0x4 bytes), align: 2
  Segment part 208.           Intra module refs:   PlayMP3File
                                                   load_skin
                                                   save_sets
    -------------------------------------------------------------------------
CODE
  Relative segment, address: CODE_AREA 00002E94 - 00002E97 (0x4 bytes), align: 2
  Segment part 209.           Intra module refs:   EXT_REDRAW
                                                   StopTMR
                                                   save_sets
    -------------------------------------------------------------------------
CODE
  Relative segment, address: CODE_AREA 00002E98 - 00002E9B (0x4 bytes), align: 2
  Segment part 210.           Intra module refs:   PlayMP3File
                                                   load_skin
                                                   save_sets
    -------------------------------------------------------------------------
CODE
  Relative segment, address: CODE_AREA 00002E9C - 00002E9F (0x4 bytes), align: 2
  Segment part 211.           Intra module refs:   load_skin
                                                   save_sets
    -------------------------------------------------------------------------
CODE
  Relative segment, address: CODE_AREA 00002EA0 - 00002EA3 (0x4 bytes), align: 2
  Segment part 212.           Intra module refs:   load_skin
                                                   save_sets
    -------------------------------------------------------------------------
CODE
  Segment part 213. NOT NEEDED.
    -------------------------------------------------------------------------
CODE
  Relative segment, address: CODE_AREA 00002EA4 - 00002EEF (0x4c bytes), align: 2
  Segment part 214.
           ENTRY                   ADDRESS         REF BY
           =====                   =======         ======
           SendNULL                00002EA4        StopAllPlayback (playlist)
               stack 1 = 00000000 ( 00000004 )
    -------------------------------------------------------------------------
CODE
  Relative segment, address: CODE_AREA 00002EF0 - 00002EF3 (0x4 bytes), align: 2
  Segment part 215.           Intra module refs:   PlayMP3File
                                                   SendNULL
    -------------------------------------------------------------------------
CODE
  Segment part 216. NOT NEEDED.
    -------------------------------------------------------------------------
CODE
  Relative segment, address: CODE_AREA 00002EF4 - 00002F47 (0x54 bytes), align: 2
  Segment part 217.           Intra module refs:   CheckDoubleRun
                                                   PlayMP3File
           ENTRY                   ADDRESS         REF BY
           =====                   =======         ======
           ToDevelop               00002EF4 
               stack 1 = 00000000 ( 00000004 )
    -------------------------------------------------------------------------
CODE
  Relative segment, address: CODE_AREA 00002F48 - 00002F4B (0x4 bytes), align: 2
  Segment part 218.           Intra module refs:   EXT_REDRAW
                                                   ToDevelop
    -------------------------------------------------------------------------
CODE
  Segment part 219. NOT NEEDED.
    -------------------------------------------------------------------------
CODE
  Relative segment, address: CODE_AREA 00002F4C - 00002FFF (0xb4 bytes), align: 2
  Segment part 220.           Intra module refs:   maincsm_onmessage
           ENTRY                   ADDRESS         REF BY
           =====                   =======         ======
           CheckDoubleRun          00002F4C 
               stack 1 = 00000000 ( 0000000C )
    -------------------------------------------------------------------------
CODE
  Relative segment, address: CODE_AREA 00003000 - 00003003 (0x4 bytes), align: 2
  Segment part 221.           Intra module refs:   CheckDoubleRun
                                                   PlayMP3File
                                                   SendNULL
                                                   ToDevelop
    -------------------------------------------------------------------------
CODE
  Relative segment, address: CODE_AREA 00003004 - 00003007 (0x4 bytes), align: 2
  Segment part 222.           Intra module refs:   CheckDoubleRun
                                                   PlayMP3File
                                                   SendNULL
                                                   ToDevelop
    -------------------------------------------------------------------------
CODE
  Relative segment, address: CODE_AREA 00003008 - 0000300B (0x4 bytes), align: 2
  Segment part 223.           Intra module refs:   CheckDoubleRun
    -------------------------------------------------------------------------
CODE
  Relative segment, address: CODE_AREA 0000300C - 0000300F (0x4 bytes), align: 2
  Segment part 224.           Intra module refs:   CheckDoubleRun
                                                   ToDevelop
    -------------------------------------------------------------------------
CODE
  Relative segment, address: CODE_AREA 00003010 - 00003013 (0x4 bytes), align: 2
  Segment part 225.           Intra module refs:   CheckDoubleRun
                                                   LoadPng
                                                   PlayMP3File
                                                   load_skin
    -------------------------------------------------------------------------
CODE
  Relative segment, address: CODE_AREA 00003014 - 00003017 (0x4 bytes), align: 2
  Segment part 226.           Intra module refs:   CheckDoubleRun
                                                   PlayMP3File
                                                   SendNULL
    -------------------------------------------------------------------------
CODE
  Relative segment, address: CODE_AREA 00003018 - 0000301B (0x4 bytes), align: 2
  Segment part 227.           Intra module refs:   CheckDoubleRun
    -------------------------------------------------------------------------
CODE
  Segment part 228. NOT NEEDED.
    -------------------------------------------------------------------------
CODE
  Relative segment, address: CODE_AREA 0000301C - 00003073 (0x58 bytes), align: 2
  Segment part 229.           Intra module refs:   main
                                                   maincsm_onmessage
           ENTRY                   ADDRESS         REF BY
           =====                   =======         ======
           Refresh                 0000301C        Refresh1 (sets_menu)
               stack 1 = 00000000 ( 0000010C )
    -------------------------------------------------------------------------
CODE
  Segment part 230. NOT NEEDED.
    -------------------------------------------------------------------------
CODE
  Relative segment, address: CODE_AREA 00003074 - 000030D3 (0x60 bytes), align: 2
  Segment part 231.           Intra module refs:   DoErrKey
                                                   load_skin
           ENTRY                   ADDRESS         REF BY
           =====                   =======         ======
           WriteSPerr              00003074        EnumIni (klib)
               stack 1 = 00000000 ( 0000000C )
    -------------------------------------------------------------------------
CODE
  Segment part 232. NOT NEEDED.
    -------------------------------------------------------------------------
CODE
  Relative segment, address: CODE_AREA 000030D4 - 000031AB (0xd8 bytes), align: 2
  Segment part 233.           Intra module refs:   OnRedraw
           ENTRY                   ADDRESS         REF BY
           =====                   =======         ======
           ShowLongTXT             000030D4 
               stack 1 = 00000000 ( 00000044 )
    -------------------------------------------------------------------------
CODE
  Relative segment, address: CODE_AREA 000031AC - 000031AF (0x4 bytes), align: 2
  Segment part 234.           Intra module refs:   ShowLongTXT
                                                   WriteSPerr
    -------------------------------------------------------------------------
CODE
  Segment part 235. NOT NEEDED.
    -------------------------------------------------------------------------
DATA_Z
  Relative segment, address: CODE_AREA 0000A2C4 - 0000A2C7 (0x4 bytes), align: 2
  Segment part 147.           Intra module refs:   Segment part 240
                                                   Segment part 383
           ENTRY                   ADDRESS         REF BY
           =====                   =======         ======
           AutoExitCounter         0000A2C4 
    -------------------------------------------------------------------------
CODE
  Segment part 236. NOT NEEDED.
           ENTRY                   ADDRESS         REF BY
           =====                   =======         ======
           ResetAutoExit           
               not allocated function
    -------------------------------------------------------------------------
CODE
  Segment part 237. NOT NEEDED.
    -------------------------------------------------------------------------
CODE
  Relative segment, address: CODE_AREA 000031B0 - 00003213 (0x64 bytes), align: 2
  Segment part 238.           Intra module refs:   maincsm_oncreate
                                                   maincsm_onmessage
           ENTRY                   ADDRESS         REF BY
           =====                   =======         ======
           AutoExit                000031B0 
               stack 1 = 00000000 ( 0000000C )
    -------------------------------------------------------------------------
CODE
  Relative segment, address: CODE_AREA 00003214 - 00003217 (0x4 bytes), align: 2
  Segment part 239.           Intra module refs:   AutoExit
    -------------------------------------------------------------------------
CODE
  Relative segment, address: CODE_AREA 00003218 - 0000321B (0x4 bytes), align: 2
  Segment part 240.           Intra module refs:   AutoExit
    -------------------------------------------------------------------------
CODE
  Relative segment, address: CODE_AREA 0000321C - 0000321F (0x4 bytes), align: 2
  Segment part 241.           Intra module refs:   AutoExit
    -------------------------------------------------------------------------
CODE
  Relative segment, address: CODE_AREA 00003220 - 00003223 (0x4 bytes), align: 2
  Segment part 242.           Intra module refs:   AutoExit
                                                   CheckDoubleRun
                                                   ToDevelop
    -------------------------------------------------------------------------
CODE
  Segment part 243. NOT NEEDED.
    -------------------------------------------------------------------------
CODE
  Relative segment, address: CODE_AREA 00003224 - 00003BA3 (0x980 bytes), align: 2
  Segment part 244.           Intra module refs:   gui_methods
           ENTRY                   ADDRESS         REF BY
           =====                   =======         ======
           OnRedraw                00003224 
               stack 1 = 00000000 ( 0000005C )
    -------------------------------------------------------------------------
CODE
  Relative segment, address: CODE_AREA 00003BA4 - 00003BA7 (0x4 bytes), align: 2
  Segment part 245.           Intra module refs:   OnRedraw
    -------------------------------------------------------------------------
CODE
  Relative segment, address: CODE_AREA 00003BA8 - 00003BAB (0x4 bytes), align: 2
  Segment part 246.           Intra module refs:   OnRedraw
    -------------------------------------------------------------------------
CODE
  Relative segment, address: CODE_AREA 00003BAC - 00003BAF (0x4 bytes), align: 2
  Segment part 247.           Intra module refs:   OnRedraw
    -------------------------------------------------------------------------
CODE
  Relative segment, address: CODE_AREA 00003BB0 - 00003BB3 (0x4 bytes), align: 2
  Segment part 248.           Intra module refs:   OnRedraw
                                                   Refresh
    -------------------------------------------------------------------------
CODE
  Relative segment, address: CODE_AREA 00003BB4 - 00003BB7 (0x4 bytes), align: 2
  Segment part 249.           Intra module refs:   OnRedraw
    -------------------------------------------------------------------------
CODE
  Relative segment, address: CODE_AREA 00003BB8 - 00003BBB (0x4 bytes), align: 2
  Segment part 250.           Intra module refs:   OnRedraw
    -------------------------------------------------------------------------
CODE
  Relative segment, address: CODE_AREA 00003BBC - 00003BBF (0x4 bytes), align: 2
  Segment part 251.           Intra module refs:   OnRedraw
    -------------------------------------------------------------------------
CODE
  Relative segment, address: CODE_AREA 00003BC0 - 00003BC3 (0x4 bytes), align: 2
  Segment part 252.           Intra module refs:   OnRedraw
    -------------------------------------------------------------------------
CODE
  Relative segment, address: CODE_AREA 00003BC4 - 00003BC7 (0x4 bytes), align: 2
  Segment part 253.           Intra module refs:   OnRedraw
    -------------------------------------------------------------------------
CODE
  Relative segment, address: CODE_AREA 00003BC8 - 00003BCB (0x4 bytes), align: 2
  Segment part 254.           Intra module refs:   OnRedraw
    -------------------------------------------------------------------------
CODE
  Relative segment, address: CODE_AREA 00003BCC - 00003BCF (0x4 bytes), align: 2
  Segment part 255.           Intra module refs:   OnRedraw
    -------------------------------------------------------------------------
CODE
  Relative segment, address: CODE_AREA 00003BD0 - 00003BD3 (0x4 bytes), align: 2
  Segment part 256.           Intra module refs:   OnRedraw
    -------------------------------------------------------------------------
CODE
  Relative segment, address: CODE_AREA 00003BD4 - 00003BD7 (0x4 bytes), align: 2
  Segment part 257.           Intra module refs:   OnRedraw
    -------------------------------------------------------------------------
CODE
  Relative segment, address: CODE_AREA 00003BD8 - 00003BDB (0x4 bytes), align: 2
  Segment part 258.           Intra module refs:   OnRedraw
    -------------------------------------------------------------------------
CODE
  Relative segment, address: CODE_AREA 00003BDC - 00003BDF (0x4 bytes), align: 2
  Segment part 259.           Intra module refs:   OnRedraw
    -------------------------------------------------------------------------
CODE
  Relative segment, address: CODE_AREA 00003BE0 - 00003BE3 (0x4 bytes), align: 2
  Segment part 260.           Intra module refs:   OnRedraw
    -------------------------------------------------------------------------
CODE
  Relative segment, address: CODE_AREA 00003BE4 - 00003BE7 (0x4 bytes), align: 2
  Segment part 261.           Intra module refs:   OnRedraw
    -------------------------------------------------------------------------
CODE
  Relative segment, address: CODE_AREA 00003BE8 - 00003BEB (0x4 bytes), align: 2
  Segment part 262.           Intra module refs:   OnRedraw
    -------------------------------------------------------------------------
CODE
  Relative segment, address: CODE_AREA 00003BEC - 00003BEF (0x4 bytes), align: 2
  Segment part 263.           Intra module refs:   OnRedraw
    -------------------------------------------------------------------------
CODE
  Relative segment, address: CODE_AREA 00003BF0 - 00003BF3 (0x4 bytes), align: 2
  Segment part 264.           Intra module refs:   OnRedraw
    -------------------------------------------------------------------------
CODE
  Relative segment, address: CODE_AREA 00003BF4 - 00003BF7 (0x4 bytes), align: 2
  Segment part 265.           Intra module refs:   OnRedraw
                                                   save_sets
    -------------------------------------------------------------------------
CODE
  Relative segment, address: CODE_AREA 00003BF8 - 00003BFB (0x4 bytes), align: 2
  Segment part 266.           Intra module refs:   OnRedraw
    -------------------------------------------------------------------------
CODE
  Relative segment, address: CODE_AREA 00003BFC - 00003BFF (0x4 bytes), align: 2
  Segment part 267.           Intra module refs:   OnRedraw
    -------------------------------------------------------------------------
CODE
  Relative segment, address: CODE_AREA 00003C00 - 00003C03 (0x4 bytes), align: 2
  Segment part 268.           Intra module refs:   OnRedraw
    -------------------------------------------------------------------------
CODE
  Relative segment, address: CODE_AREA 00003C04 - 00003C07 (0x4 bytes), align: 2
  Segment part 269.           Intra module refs:   OnRedraw
    -------------------------------------------------------------------------
CODE
  Relative segment, address: CODE_AREA 00003C08 - 00003C0B (0x4 bytes), align: 2
  Segment part 270.           Intra module refs:   OnRedraw
    -------------------------------------------------------------------------
CODE
  Relative segment, address: CODE_AREA 00003C0C - 00003C0F (0x4 bytes), align: 2
  Segment part 271.           Intra module refs:   OnRedraw
    -------------------------------------------------------------------------
CODE
  Relative segment, address: CODE_AREA 00003C10 - 00003C13 (0x4 bytes), align: 2
  Segment part 272.           Intra module refs:   OnRedraw
    -------------------------------------------------------------------------
CODE
  Segment part 273. NOT NEEDED.
    -------------------------------------------------------------------------
CODE
  Relative segment, address: CODE_AREA 00003C14 - 00003C1F (0xc bytes), align: 2
  Segment part 274.           Intra module refs:   gui_methods
           ENTRY                   ADDRESS         REF BY
           =====                   =======         ======
           onCreate                00003C14 
    -------------------------------------------------------------------------
CODE
  Segment part 275. NOT NEEDED.
    -------------------------------------------------------------------------
CODE
  Relative segment, address: CODE_AREA 00003C20 - 00003C2B (0xc bytes), align: 2
  Segment part 276.           Intra module refs:   gui_methods
           ENTRY                   ADDRESS         REF BY
           =====                   =======         ======
           onClose                 00003C20 
    -------------------------------------------------------------------------
CODE
  Segment part 277. NOT NEEDED.
    -------------------------------------------------------------------------
CODE
  Relative segment, address: CODE_AREA 00003C2C - 00003C3F (0x14 bytes), align: 2
  Segment part 278.           Intra module refs:   gui_methods
           ENTRY                   ADDRESS         REF BY
           =====                   =======         ======
           onFocus                 00003C2C 
               stack 1 = 00000000 ( 00000004 )
    -------------------------------------------------------------------------
CODE
  Segment part 279. NOT NEEDED.
    -------------------------------------------------------------------------
CODE
  Relative segment, address: CODE_AREA 00003C40 - 00003C5F (0x20 bytes), align: 2
  Segment part 280.           Intra module refs:   gui_methods
           ENTRY                   ADDRESS         REF BY
           =====                   =======         ======
           onUnfocus               00003C40 
               stack 1 = 00000000 ( 00000004 )
    -------------------------------------------------------------------------
CODE
  Segment part 281. NOT NEEDED.
    -------------------------------------------------------------------------
CODE
  Relative segment, address: CODE_AREA 00003C60 - 00003C73 (0x14 bytes), align: 2
  Segment part 282.           Intra module refs:   Segment part 324
           ENTRY                   ADDRESS         REF BY
           =====                   =======         ======
           QuitCallbackProc        00003C60        Exit_SPlayer (mainmenu)
    -------------------------------------------------------------------------
CODE
  Segment part 283. NOT NEEDED.
    -------------------------------------------------------------------------
CODE
  Relative segment, address: CODE_AREA 00003C74 - 00003CAB (0x38 bytes), align: 2
  Segment part 284.
           ENTRY                   ADDRESS         REF BY
           =====                   =======         ======
           DoErrKey                00003C74        KeysProc (keys)
               stack 1 = 00000000 ( 00000004 )
    -------------------------------------------------------------------------
CODE
  Segment part 285. NOT NEEDED.
    -------------------------------------------------------------------------
CODE
  Relative segment, address: CODE_AREA 00003CAC - 00003CCB (0x20 bytes), align: 2
  Segment part 286.
           ENTRY                   ADDRESS         REF BY
           =====                   =======         ======
           DoExit                  00003CAC        Segment part 77 (keys)
                                                   keyprocs (keys)
               stack 1 = 00000000 ( 00000004 )
    -------------------------------------------------------------------------
CODE
  Segment part 287. NOT NEEDED.
    -------------------------------------------------------------------------
CODE
  Relative segment, address: CODE_AREA 00003CCC - 00003CE3 (0x18 bytes), align: 2
  Segment part 288.
           ENTRY                   ADDRESS         REF BY
           =====                   =======         ======
           LoadDefPlaylist         00003CCC        Segment part 77 (keys)
                                                   keyprocs (keys)
               stack 1 = 00000000 ( 00000004 )
    -------------------------------------------------------------------------
CODE
  Segment part 289. NOT NEEDED.
    -------------------------------------------------------------------------
CODE
  Relative segment, address: CODE_AREA 00003CE4 - 00003CF3 (0x10 bytes), align: 2
  Segment part 290.
           ENTRY                   ADDRESS         REF BY
           =====                   =======         ======
           PrevTrackDown           00003CE4        Segment part 77 (keys)
                                                   keyprocs (keys)
               stack 1 = 00000000 ( 00000004 )
    -------------------------------------------------------------------------
CODE
  Segment part 291. NOT NEEDED.
    -------------------------------------------------------------------------
CODE
  Relative segment, address: CODE_AREA 00003CF4 - 00003D17 (0x24 bytes), align: 2
  Segment part 292.
           ENTRY                   ADDRESS         REF BY
           =====                   =======         ======
           NextTrackDown           00003CF4        Segment part 77 (keys)
                                                   keyprocs (keys)
               stack 1 = 00000000 ( 00000004 )
    -------------------------------------------------------------------------
CODE
  Segment part 293. NOT NEEDED.
    -------------------------------------------------------------------------
CODE
  Relative segment, address: CODE_AREA 00003D18 - 00003D3F (0x28 bytes), align: 2
  Segment part 294.
           ENTRY                   ADDRESS         REF BY
           =====                   =======         ======
           SwitchPlayModeDown      00003D18        Segment part 77 (keys)
                                                   keyprocs (keys)
    -------------------------------------------------------------------------
CODE
  Relative segment, address: CODE_AREA 00003D40 - 00003D43 (0x4 bytes), align: 2
  Segment part 295.           Intra module refs:   NextTrackDown
                                                   OnRedraw
                                                   SwitchPlayModeDown
    -------------------------------------------------------------------------
CODE
  Segment part 296. NOT NEEDED.
    -------------------------------------------------------------------------
CODE
  Relative segment, address: CODE_AREA 00003D44 - 00003D77 (0x34 bytes), align: 2
  Segment part 297.
           ENTRY                   ADDRESS         REF BY
           =====                   =======         ======
           SavePL                  00003D44        keyprocs (keys)
               stack 1 = 00000000 ( 00000008 )
    -------------------------------------------------------------------------
CODE
  Relative segment, address: CODE_AREA 00003D78 - 00003D7B (0x4 bytes), align: 2
  Segment part 298.           Intra module refs:   Refresh
                                                   SavePL
    -------------------------------------------------------------------------
CODE
  Segment part 299. NOT NEEDED.
    -------------------------------------------------------------------------
CODE
  Relative segment, address: CODE_AREA 00003D7C - 00003DBF (0x44 bytes), align: 2
  Segment part 300.
           ENTRY                   ADDRESS         REF BY
           =====                   =======         ======
           StartRewindToBegin      00003D7C        Segment part 77 (keys)
                                                   keyprocs (keys)
               stack 1 = 00000000 ( 00000004 )
    -------------------------------------------------------------------------
CODE
  Segment part 301. NOT NEEDED.
    -------------------------------------------------------------------------
CODE
  Relative segment, address: CODE_AREA 00003DC0 - 00003E03 (0x44 bytes), align: 2
  Segment part 302.
           ENTRY                   ADDRESS         REF BY
           =====                   =======         ======
           StartRewindToEnd        00003DC0        Segment part 77 (keys)
                                                   keyprocs (keys)
               stack 1 = 00000000 ( 00000004 )
    -------------------------------------------------------------------------
CODE
  Relative segment, address: CODE_AREA 00003E04 - 00003E07 (0x4 bytes), align: 2
  Segment part 303.           Intra module refs:   StartRewindToBegin
                                                   StartRewindToEnd
    -------------------------------------------------------------------------
CODE
  Relative segment, address: CODE_AREA 00003E08 - 00003E0B (0x4 bytes), align: 2
  Segment part 304.           Intra module refs:   StartRewindToBegin
                                                   StartRewindToEnd
    -------------------------------------------------------------------------
CODE
  Segment part 305. NOT NEEDED.
    -------------------------------------------------------------------------
CODE
  Relative segment, address: CODE_AREA 00003E0C - 00003E1B (0x10 bytes), align: 2
  Segment part 306.
           ENTRY                   ADDRESS         REF BY
           =====                   =======         ======
           PrevPL                  00003E0C        MoveLineLeft (playlist)
                                                   Segment part 77 (keys)
                                                   keyprocs (keys)
               stack 1 = 00000000 ( 00000004 )
    -------------------------------------------------------------------------
CODE
  Segment part 307. NOT NEEDED.
    -------------------------------------------------------------------------
CODE
  Relative segment, address: CODE_AREA 00003E1C - 00003E2B (0x10 bytes), align: 2
  Segment part 308.
           ENTRY                   ADDRESS         REF BY
           =====                   =======         ======
           NextPL                  00003E1C        MoveLineRight (playlist)
                                                   Segment part 77 (keys)
                                                   keyprocs (keys)
               stack 1 = 00000000 ( 00000004 )
    -------------------------------------------------------------------------
CODE
  Segment part 309. NOT NEEDED.
    -------------------------------------------------------------------------
CODE
  Relative segment, address: CODE_AREA 00003E2C - 00003E5B (0x30 bytes), align: 2
  Segment part 310.           Intra module refs:   OnKey
           ENTRY                   ADDRESS         REF BY
           =====                   =======         ======
           CTDownSpeed             00003E2C        keyprocs (keys)
               stack 1 = 00000000 ( 00000004 )
    -------------------------------------------------------------------------
CODE
  Segment part 311. NOT NEEDED.
    -------------------------------------------------------------------------
CODE
  Relative segment, address: CODE_AREA 00003E5C - 00003E8B (0x30 bytes), align: 2
  Segment part 312.           Intra module refs:   OnKey
           ENTRY                   ADDRESS         REF BY
           =====                   =======         ======
           CTUpSpeed               00003E5C        keyprocs (keys)
               stack 1 = 00000000 ( 00000004 )
    -------------------------------------------------------------------------
CODE
  Relative segment, address: CODE_AREA 00003E8C - 00003E8F (0x4 bytes), align: 2
  Segment part 313.           Intra module refs:   CTDownSpeed
                                                   CTUpSpeed
    -------------------------------------------------------------------------
CODE
  Relative segment, address: CODE_AREA 00003E90 - 00003E93 (0x4 bytes), align: 2
  Segment part 314.           Intra module refs:   CTDownSpeed
                                                   CTUpSpeed
    -------------------------------------------------------------------------
CODE
  Segment part 315. NOT NEEDED.
    -------------------------------------------------------------------------
CODE
  Relative segment, address: CODE_AREA 00003E94 - 00004247 (0x3b4 bytes), align: 2
  Segment part 316.           Intra module refs:   gui_methods
           ENTRY                   ADDRESS         REF BY
           =====                   =======         ======
           OnKey                   00003E94 
               stack 1 = 00000000 ( 0000002C )
    -------------------------------------------------------------------------
CODE
  Relative segment, address: CODE_AREA 00004248 - 0000424B (0x4 bytes), align: 2
  Segment part 317.           Intra module refs:   OnKey
                                                   QuitCallbackProc
    -------------------------------------------------------------------------
CODE
  Relative segment, address: CODE_AREA 0000424C - 0000424F (0x4 bytes), align: 2
  Segment part 318.           Intra module refs:   OnKey
                                                   OnRedraw
    -------------------------------------------------------------------------
CODE
  Relative segment, address: CODE_AREA 00004250 - 00004253 (0x4 bytes), align: 2
  Segment part 319.           Intra module refs:   OnKey
    -------------------------------------------------------------------------
CODE
  Relative segment, address: CODE_AREA 00004254 - 00004257 (0x4 bytes), align: 2
  Segment part 320.           Intra module refs:   DoErrKey
                                                   OnKey
    -------------------------------------------------------------------------
CODE
  Relative segment, address: CODE_AREA 00004258 - 0000425B (0x4 bytes), align: 2
  Segment part 321.           Intra module refs:   OnKey
                                                   OnRedraw
    -------------------------------------------------------------------------
CODE
  Relative segment, address: CODE_AREA 0000425C - 0000425F (0x4 bytes), align: 2
  Segment part 322.           Intra module refs:   OnKey
                                                   OnRedraw
                                                   SwitchPlayModeDown
    -------------------------------------------------------------------------
CODE
  Relative segment, address: CODE_AREA 00004260 - 00004263 (0x4 bytes), align: 2
  Segment part 323.           Intra module refs:   NextPL
                                                   OnKey
                                                   PrevPL
    -------------------------------------------------------------------------
CODE
  Relative segment, address: CODE_AREA 00004264 - 00004267 (0x4 bytes), align: 2
  Segment part 324.           Intra module refs:   DoExit
                                                   OnKey
    -------------------------------------------------------------------------
CODE
  Relative segment, address: CODE_AREA 00004268 - 0000426B (0x4 bytes), align: 2
  Segment part 325.           Intra module refs:   LoadDefPlaylist
                                                   OnKey
    -------------------------------------------------------------------------
CODE
  Segment part 326. NOT NEEDED.
    -------------------------------------------------------------------------
CODE
  Relative segment, address: CODE_AREA 0000426C - 0000443B (0x1d0 bytes), align: 2
  Segment part 327.           Intra module refs:   Segment part 408
           ENTRY                   ADDRESS         REF BY
           =====                   =======         ======
           my_keyhook              0000426C 
               stack 1 = 00000000 ( 00000020 )
    -------------------------------------------------------------------------
CODE
  Relative segment, address: CODE_AREA 0000443C - 0000443F (0x4 bytes), align: 2
  Segment part 328.           Intra module refs:   NextTrackDown
                                                   OnKey
                                                   OnRedraw
                                                   StartRewindToEnd
                                                   my_keyhook
    -------------------------------------------------------------------------
CODE
  Relative segment, address: CODE_AREA 00004440 - 00004443 (0x4 bytes), align: 2
  Segment part 329.           Intra module refs:   OnKey
                                                   OnRedraw
                                                   PrevTrackDown
                                                   StartRewindToBegin
                                                   my_keyhook
    -------------------------------------------------------------------------
CODE
  Relative segment, address: CODE_AREA 00004444 - 00004447 (0x4 bytes), align: 2
  Segment part 330.           Intra module refs:   my_keyhook
    -------------------------------------------------------------------------
CODE
  Segment part 331. NOT NEEDED.
    -------------------------------------------------------------------------
CODE
  Relative segment, address: CODE_AREA 00004448 - 00004567 (0x120 bytes), align: 2
  Segment part 332.           Intra module refs:   maincsm_onclose
           LOCAL                   ADDRESS         
           =====                   =======         
           ElfKiller               00004448 
               stack 1 = 00000000 ( 00000014 )
    -------------------------------------------------------------------------
CODE
  Relative segment, address: CODE_AREA 00004568 - 0000456B (0x4 bytes), align: 2
  Segment part 333.           Intra module refs:   ElfKiller
    -------------------------------------------------------------------------
CODE
  Relative segment, address: CODE_AREA 0000456C - 0000456F (0x4 bytes), align: 2
  Segment part 334.           Intra module refs:   ElfKiller
    -------------------------------------------------------------------------
CODE
  Relative segment, address: CODE_AREA 00004570 - 00004573 (0x4 bytes), align: 2
  Segment part 335.           Intra module refs:   ElfKiller
    -------------------------------------------------------------------------
CODE
  Relative segment, address: CODE_AREA 00004574 - 00004577 (0x4 bytes), align: 2
  Segment part 336.           Intra module refs:   ElfKiller
    -------------------------------------------------------------------------
CODE
  Segment part 337. NOT NEEDED.
    -------------------------------------------------------------------------
CODE
  Relative segment, address: CODE_AREA 00004578 - 0000457F (0x8 bytes), align: 2
  Segment part 338.           Intra module refs:   gui_methods
           ENTRY                   ADDRESS         REF BY
           =====                   =======         ======
           method8                 00004578 
    -------------------------------------------------------------------------
CODE
  Segment part 339. NOT NEEDED.
    -------------------------------------------------------------------------
CODE
  Relative segment, address: CODE_AREA 00004580 - 00004587 (0x8 bytes), align: 2
  Segment part 340.           Intra module refs:   gui_methods
           ENTRY                   ADDRESS         REF BY
           =====                   =======         ======
           method9                 00004580 
    -------------------------------------------------------------------------
CODE
  Segment part 341. NOT NEEDED.
    -------------------------------------------------------------------------
DATA_C
  Relative segment, address: CODE_AREA 00009284 - 000092AF (0x2c bytes), align: 2
  Segment part 148.           Intra module refs:   maincsm_oncreate
           ENTRY                   ADDRESS         REF BY
           =====                   =======         ======
           gui_methods             00009284 
    -------------------------------------------------------------------------
DATA_C
  Relative segment, address: CODE_AREA 000092B0 - 000092B7 (0x8 bytes), align: 2
  Segment part 149.           Intra module refs:   maincsm_oncreate
           ENTRY                   ADDRESS         REF BY
           =====                   =======         ======
           Canvas                  000092B0 
    -------------------------------------------------------------------------
CODE
  Relative segment, address: CODE_AREA 00004588 - 00004657 (0xd0 bytes), align: 2
  Segment part 342.           Intra module refs:   MAINCSM
           ENTRY                   ADDRESS         REF BY
           =====                   =======         ======
           maincsm_oncreate        00004588 
               stack 1 = 00000000 ( 00000010 )
    -------------------------------------------------------------------------
CODE
  Relative segment, address: CODE_AREA 00004658 - 0000465B (0x4 bytes), align: 2
  Segment part 343.           Intra module refs:   OnKey
                                                   maincsm_oncreate
                                                   my_keyhook
    -------------------------------------------------------------------------
CODE
  Relative segment, address: CODE_AREA 0000465C - 0000465F (0x4 bytes), align: 2
  Segment part 344.           Intra module refs:   maincsm_oncreate
    -------------------------------------------------------------------------
CODE
  Relative segment, address: CODE_AREA 00004660 - 00004663 (0x4 bytes), align: 2
  Segment part 345.           Intra module refs:   ElfKiller
                                                   maincsm_oncreate
    -------------------------------------------------------------------------
CODE
  Segment part 346. NOT NEEDED.
    -------------------------------------------------------------------------
CODE
  Relative segment, address: CODE_AREA 00004664 - 00004677 (0x14 bytes), align: 2
  Segment part 347.           Intra module refs:   MAINCSM
           ENTRY                   ADDRESS         REF BY
           =====                   =======         ======
           maincsm_onclose         00004664 
               stack 1 = 00000000 ( 00000004 )
    -------------------------------------------------------------------------
CODE
  Segment part 348. NOT NEEDED.
    -------------------------------------------------------------------------
CODE
  Relative segment, address: CODE_AREA 00004678 - 0000467F (0x8 bytes), align: 2
  Segment part 349.           Intra module refs:   Segment part 151
           ENTRY                   ADDRESS         REF BY
           =====                   =======         ======
           obFrameUpd              00004678 
    -------------------------------------------------------------------------
CODE
  Segment part 350. NOT NEEDED.
    -------------------------------------------------------------------------
CODE
  Relative segment, address: CODE_AREA 00004680 - 0000468F (0x10 bytes), align: 2
  Segment part 351.           Intra module refs:   Segment part 151
           ENTRY                   ADDRESS         REF BY
           =====                   =======         ======
           obError                 00004680 
               stack 1 = 00000000 ( 00000004 )
    -------------------------------------------------------------------------
CODE
  Segment part 352. NOT NEEDED.
    -------------------------------------------------------------------------
CODE
  Relative segment, address: CODE_AREA 00004690 - 000046CF (0x40 bytes), align: 2
  Segment part 353.           Intra module refs:   Segment part 151
           ENTRY                   ADDRESS         REF BY
           =====                   =======         ======
           obPrep                  00004690 
               stack 1 = 00000000 ( 0000000C )
    -------------------------------------------------------------------------
CODE
  Relative segment, address: CODE_AREA 000046D0 - 000046D3 (0x4 bytes), align: 2
  Segment part 354.           Intra module refs:   obPrep
    -------------------------------------------------------------------------
CODE
  Segment part 355. NOT NEEDED.
    -------------------------------------------------------------------------
CODE
  Relative segment, address: CODE_AREA 000046D4 - 000046DB (0x8 bytes), align: 2
  Segment part 356.           Intra module refs:   Segment part 151
           ENTRY                   ADDRESS         REF BY
           =====                   =======         ======
           obDestroy               000046D4 
    -------------------------------------------------------------------------
CODE
  Segment part 357. NOT NEEDED.
    -------------------------------------------------------------------------
CODE
  Relative segment, address: CODE_AREA 000046DC - 000046E3 (0x8 bytes), align: 2
  Segment part 358.           Intra module refs:   Segment part 151
           ENTRY                   ADDRESS         REF BY
           =====                   =======         ======
           obResumeCon             000046DC 
    -------------------------------------------------------------------------
CODE
  Segment part 359. NOT NEEDED.
    -------------------------------------------------------------------------
CODE
  Relative segment, address: CODE_AREA 000046E4 - 000046EB (0x8 bytes), align: 2
  Segment part 360.           Intra module refs:   Segment part 151
           ENTRY                   ADDRESS         REF BY
           =====                   =======         ======
           obParam                 000046E4 
    -------------------------------------------------------------------------
CODE
  Segment part 361. NOT NEEDED.
    -------------------------------------------------------------------------
CODE
  Relative segment, address: CODE_AREA 000046EC - 00004743 (0x58 bytes), align: 2
  Segment part 362.           Intra module refs:   Segment part 151
           ENTRY                   ADDRESS         REF BY
           =====                   =======         ======
           obSetPause              000046EC 
               stack 1 = 00000000 ( 00000010 )
    -------------------------------------------------------------------------
CODE
  Relative segment, address: CODE_AREA 00004744 - 00004747 (0x4 bytes), align: 2
  Segment part 363.           Intra module refs:   obSetPause
    -------------------------------------------------------------------------
CODE
  Relative segment, address: CODE_AREA 00004748 - 0000474B (0x4 bytes), align: 2
  Segment part 364.           Intra module refs:   obPrep
                                                   obSetPause
    -------------------------------------------------------------------------
CODE
  Segment part 365. NOT NEEDED.
    -------------------------------------------------------------------------
CODE
  Relative segment, address: CODE_AREA 0000474C - 00004753 (0x8 bytes), align: 2
  Segment part 366.           Intra module refs:   Segment part 151
           ENTRY                   ADDRESS         REF BY
           =====                   =======         ======
           obSetStop               0000474C 
    -------------------------------------------------------------------------
CODE
  Segment part 367. NOT NEEDED.
    -------------------------------------------------------------------------
CODE
  Relative segment, address: CODE_AREA 00004754 - 000047B3 (0x60 bytes), align: 2
  Segment part 368.           Intra module refs:   Segment part 151
           ENTRY                   ADDRESS         REF BY
           =====                   =======         ======
           obNext                  00004754 
               stack 1 = 00000000 ( 00000004 )
    -------------------------------------------------------------------------
CODE
  Segment part 369. NOT NEEDED.
    -------------------------------------------------------------------------
CODE
  Relative segment, address: CODE_AREA 000047B4 - 000047BB (0x8 bytes), align: 2
  Segment part 370.           Intra module refs:   Segment part 151
           ENTRY                   ADDRESS         REF BY
           =====                   =======         ======
           obPause                 000047B4 
    -------------------------------------------------------------------------
CODE
  Segment part 371. NOT NEEDED.
    -------------------------------------------------------------------------
DATA_I
  Relative segment, address: DATA_AREA 00000130 - 00000187 (0x58 bytes), align: 2
  Segment part 150.           Intra module refs:   maincsm_onmessage
           ENTRY                   ADDRESS         REF BY
           =====                   =======         ======
           ObsEventsHandlers       00000130 
    -------------------------------------------------------------------------
CODE
  Relative segment, address: CODE_AREA 000047BC - 00004B27 (0x36c bytes), align: 2
  Segment part 372.           Intra module refs:   MAINCSM
           ENTRY                   ADDRESS         REF BY
           =====                   =======         ======
           maincsm_onmessage       000047BC 
               stack 1 = 00000000 ( 0000002C )
    -------------------------------------------------------------------------
CODE
  Relative segment, address: CODE_AREA 00004B28 - 00004B2B (0x4 bytes), align: 2
  Segment part 373.           Intra module refs:   ElfKiller
                                                   maincsm_oncreate
                                                   maincsm_onmessage
    -------------------------------------------------------------------------
CODE
  Relative segment, address: CODE_AREA 00004B2C - 00004B2F (0x4 bytes), align: 2
  Segment part 374.           Intra module refs:   maincsm_onmessage
    -------------------------------------------------------------------------
CODE
  Relative segment, address: CODE_AREA 00004B30 - 00004B33 (0x4 bytes), align: 2
  Segment part 375.           Intra module refs:   maincsm_onmessage
    -------------------------------------------------------------------------
CODE
  Relative segment, address: CODE_AREA 00004B34 - 00004B37 (0x4 bytes), align: 2
  Segment part 376.           Intra module refs:   maincsm_onmessage
    -------------------------------------------------------------------------
CODE
  Relative segment, address: CODE_AREA 00004B38 - 00004B3B (0x4 bytes), align: 2
  Segment part 377.           Intra module refs:   maincsm_onmessage
    -------------------------------------------------------------------------
CODE
  Relative segment, address: CODE_AREA 00004B3C - 00004B3F (0x4 bytes), align: 2
  Segment part 378.           Intra module refs:   maincsm_onmessage
    -------------------------------------------------------------------------
CODE
  Relative segment, address: CODE_AREA 00004B40 - 00004B43 (0x4 bytes), align: 2
  Segment part 379.           Intra module refs:   maincsm_onmessage
    -------------------------------------------------------------------------
CODE
  Relative segment, address: CODE_AREA 00004B44 - 00004B47 (0x4 bytes), align: 2
  Segment part 380.           Intra module refs:   maincsm_onmessage
    -------------------------------------------------------------------------
CODE
  Relative segment, address: CODE_AREA 00004B48 - 00004B4B (0x4 bytes), align: 2
  Segment part 381.           Intra module refs:   maincsm_onmessage
    -------------------------------------------------------------------------
CODE
  Relative segment, address: CODE_AREA 00004B4C - 00004B4F (0x4 bytes), align: 2
  Segment part 382.           Intra module refs:   ElfKiller
                                                   maincsm_onmessage
    -------------------------------------------------------------------------
CODE
  Relative segment, address: CODE_AREA 00004B50 - 00004B53 (0x4 bytes), align: 2
  Segment part 383.           Intra module refs:   OnKey
                                                   maincsm_onmessage
                                                   my_keyhook
    -------------------------------------------------------------------------
CODE
  Relative segment, address: CODE_AREA 00004B54 - 00004B57 (0x4 bytes), align: 2
  Segment part 384.           Intra module refs:   maincsm_onmessage
    -------------------------------------------------------------------------
CODE
  Relative segment, address: CODE_AREA 00004B58 - 00004B5B (0x4 bytes), align: 2
  Segment part 385.           Intra module refs:   StartRewindToBegin
                                                   StartRewindToEnd
                                                   maincsm_onmessage
                                                   obSetPause
    -------------------------------------------------------------------------
CODE
  Segment part 386. NOT NEEDED.
    -------------------------------------------------------------------------
DATA_C
  Relative segment, address: CODE_AREA 000092B8 - 000092F3 (0x3c bytes), align: 2
  Segment part 152.           Intra module refs:   Segment part 406
           ENTRY                   ADDRESS         REF BY
           =====                   =======         ======
           MAINCSM                 000092B8 
    -------------------------------------------------------------------------
CODE
  Relative segment, address: CODE_AREA 00004B5C - 00004B9B (0x40 bytes), align: 2
  Segment part 387.           Intra module refs:   PlayMP3File
                                                   main
           ENTRY                   ADDRESS         REF BY
           =====                   =======         ======
           UpdateCSMname           00004B5C 
               stack 1 = 00000000 ( 00000004 )
    -------------------------------------------------------------------------
CODE
  Segment part 388. NOT NEEDED.
    -------------------------------------------------------------------------
CODE
  Relative segment, address: CODE_AREA 00004B9C - 00004D7F (0x1e4 bytes), align: 2
  Segment part 389.
           ENTRY                   ADDRESS         REF BY
           =====                   =======         ======
           main                    00004B9C        Absolute parts (?ABS_ENTRY_MOD)
               stack 1 = 00000000 ( 00000078 )
    -------------------------------------------------------------------------
CODE
  Relative segment, address: CODE_AREA 00004D80 - 00004D83 (0x4 bytes), align: 2
  Segment part 390.           Intra module refs:   main
    -------------------------------------------------------------------------
CODE
  Relative segment, address: CODE_AREA 00004D84 - 00004D87 (0x4 bytes), align: 2
  Segment part 391.           Intra module refs:   main
                                                   maincsm_onmessage
    -------------------------------------------------------------------------
CODE
  Relative segment, address: CODE_AREA 00004D88 - 00004D8B (0x4 bytes), align: 2
  Segment part 392.           Intra module refs:   main
                                                   maincsm_onmessage
    -------------------------------------------------------------------------
CODE
  Relative segment, address: CODE_AREA 00004D8C - 00004D8F (0x4 bytes), align: 2
  Segment part 393.           Intra module refs:   ElfKiller
                                                   main
    -------------------------------------------------------------------------
CODE
  Relative segment, address: CODE_AREA 00004D90 - 00004D93 (0x4 bytes), align: 2
  Segment part 394.           Intra module refs:   ElfKiller
                                                   main
    -------------------------------------------------------------------------
CODE
  Relative segment, address: CODE_AREA 00004D94 - 00004D97 (0x4 bytes), align: 2
  Segment part 395.           Intra module refs:   main
    -------------------------------------------------------------------------
CODE
  Relative segment, address: CODE_AREA 00004D98 - 00004D9B (0x4 bytes), align: 2
  Segment part 396.           Intra module refs:   ElfKiller
                                                   main
    -------------------------------------------------------------------------
CODE
  Relative segment, address: CODE_AREA 00004D9C - 00004D9F (0x4 bytes), align: 2
  Segment part 397.           Intra module refs:   ElfKiller
                                                   main
                                                   maincsm_onmessage
    -------------------------------------------------------------------------
CODE
  Relative segment, address: CODE_AREA 00004DA0 - 00004DA3 (0x4 bytes), align: 2
  Segment part 398.           Intra module refs:   ElfKiller
                                                   main
    -------------------------------------------------------------------------
CODE
  Relative segment, address: CODE_AREA 00004DA4 - 00004DA7 (0x4 bytes), align: 2
  Segment part 399.           Intra module refs:   ElfKiller
                                                   main
    -------------------------------------------------------------------------
CODE
  Relative segment, address: CODE_AREA 00004DA8 - 00004DAB (0x4 bytes), align: 2
  Segment part 400.           Intra module refs:   ElfKiller
                                                   main
    -------------------------------------------------------------------------
CODE
  Relative segment, address: CODE_AREA 00004DAC - 00004DAF (0x4 bytes), align: 2
  Segment part 401.           Intra module refs:   ElfKiller
                                                   main
    -------------------------------------------------------------------------
CODE
  Relative segment, address: CODE_AREA 00004DB0 - 00004DB3 (0x4 bytes), align: 2
  Segment part 402.           Intra module refs:   main
                                                   my_keyhook
                                                   obNext
    -------------------------------------------------------------------------
CODE
  Relative segment, address: CODE_AREA 00004DB4 - 00004DB7 (0x4 bytes), align: 2
  Segment part 403.           Intra module refs:   main
    -------------------------------------------------------------------------
CODE
  Relative segment, address: CODE_AREA 00004DB8 - 00004DBB (0x4 bytes), align: 2
  Segment part 404.           Intra module refs:   main
    -------------------------------------------------------------------------
CODE
  Relative segment, address: CODE_AREA 00004DBC - 00004DBF (0x4 bytes), align: 2
  Segment part 405.           Intra module refs:   main
    -------------------------------------------------------------------------
CODE
  Relative segment, address: CODE_AREA 00004DC0 - 00004DC3 (0x4 bytes), align: 2
  Segment part 406.           Intra module refs:   UpdateCSMname
                                                   main
    -------------------------------------------------------------------------
CODE
  Relative segment, address: CODE_AREA 00004DC4 - 00004DC7 (0x4 bytes), align: 2
  Segment part 407.           Intra module refs:   main
                                                   maincsm_onmessage
    -------------------------------------------------------------------------
CODE
  Relative segment, address: CODE_AREA 00004DC8 - 00004DCB (0x4 bytes), align: 2
  Segment part 408.           Intra module refs:   ElfKiller
                                                   main
    -------------------------------------------------------------------------
CODE
  Segment part 409. NOT NEEDED.Intra module refs   InitLangPack
    -------------------------------------------------------------------------
CODE
  Segment part 410. NOT NEEDED.Intra module refs   InitLangPack
    -------------------------------------------------------------------------
CODE
  Segment part 411. NOT NEEDED.Intra module refs   InitLangPack
    -------------------------------------------------------------------------
CODE
  Segment part 412. NOT NEEDED.Intra module refs   PlayMP3File
    -------------------------------------------------------------------------
CODE
  Segment part 413. NOT NEEDED.Intra module refs   PlayMP3File
    -------------------------------------------------------------------------
CODE
  Segment part 414. NOT NEEDED.Intra module refs   PlayMP3File
    -------------------------------------------------------------------------
CODE
  Segment part 415. NOT NEEDED.Intra module refs   PlayMP3File
    -------------------------------------------------------------------------
CODE
  Segment part 416. NOT NEEDED.Intra module refs   PlayMP3File
    -------------------------------------------------------------------------
CODE
  Segment part 417. NOT NEEDED.Intra module refs   PlayMP3File
                                                   obNext
    -------------------------------------------------------------------------
CODE
  Segment part 418. NOT NEEDED.Intra module refs   OnRedraw
                                                   ShowLongTXT
    -------------------------------------------------------------------------
CODE
  Segment part 419. NOT NEEDED.Intra module refs   OnRedraw
    -------------------------------------------------------------------------
CODE
  Segment part 420. NOT NEEDED.Intra module refs   OnRedraw
                                                   maincsm_onmessage
    -------------------------------------------------------------------------
CODE
  Segment part 421. NOT NEEDED.Intra module refs   OnRedraw
    -------------------------------------------------------------------------
CODE
  Segment part 422. NOT NEEDED.Intra module refs   OnRedraw
    -------------------------------------------------------------------------
CODE
  Segment part 423. NOT NEEDED.Intra module refs   LoadDefPlaylist
                                                   OnKey
    -------------------------------------------------------------------------
CODE
  Segment part 424. NOT NEEDED.Intra module refs   LoadDefPlaylist
                                                   OnKey
    -------------------------------------------------------------------------
CODE
  Segment part 425. NOT NEEDED.Intra module refs   LoadDefPlaylist
                                                   OnKey
                                                   main
    -------------------------------------------------------------------------
CODE
  Segment part 426. NOT NEEDED.Intra module refs   PrevTrackDown
                                                   maincsm_onmessage
                                                   my_keyhook
    -------------------------------------------------------------------------
CODE
  Segment part 427. NOT NEEDED.Intra module refs   NextTrackDown
                                                   my_keyhook
                                                   obNext
    -------------------------------------------------------------------------
CODE
  Segment part 428. NOT NEEDED.Intra module refs   NextTrackDown
                                                   maincsm_onmessage
                                                   my_keyhook
                                                   obNext
    -------------------------------------------------------------------------
CODE
  Segment part 429. NOT NEEDED.Intra module refs   SavePL
    -------------------------------------------------------------------------
CODE
  Segment part 430. NOT NEEDED.Intra module refs   StartRewindToBegin
                                                   StartRewindToEnd
    -------------------------------------------------------------------------
CODE
  Segment part 431. NOT NEEDED.Intra module refs   NextPL
                                                   OnKey
                                                   PrevPL
    -------------------------------------------------------------------------
CODE
  Segment part 432. NOT NEEDED.Intra module refs   CTDownSpeed
                                                   CTUpSpeed
    -------------------------------------------------------------------------
CODE
  Segment part 433. NOT NEEDED.Intra module refs   OnKey
    -------------------------------------------------------------------------
CODE
  Segment part 434. NOT NEEDED.Intra module refs   OnKey
    -------------------------------------------------------------------------
CODE
  Segment part 435. NOT NEEDED.Intra module refs   OnKey
    -------------------------------------------------------------------------
CODE
  Segment part 436. NOT NEEDED.Intra module refs   OnKey
    -------------------------------------------------------------------------
CODE
  Segment part 437. NOT NEEDED.Intra module refs   OnKey
    -------------------------------------------------------------------------
CODE
  Segment part 438. NOT NEEDED.Intra module refs   OnKey
    -------------------------------------------------------------------------
CODE
  Segment part 439. NOT NEEDED.Intra module refs   OnKey
    -------------------------------------------------------------------------
CODE
  Segment part 440. NOT NEEDED.Intra module refs   OnKey
    -------------------------------------------------------------------------
CODE
  Segment part 441. NOT NEEDED.Intra module refs   OnKey
    -------------------------------------------------------------------------
CODE
  Segment part 442. NOT NEEDED.Intra module refs   OnKey
    -------------------------------------------------------------------------
CODE
  Segment part 443. NOT NEEDED.Intra module refs   OnKey
    -------------------------------------------------------------------------
CODE
  Segment part 444. NOT NEEDED.Intra module refs   OnKey
    -------------------------------------------------------------------------
CODE
  Segment part 445. NOT NEEDED.Intra module refs   ElfKiller
                                                   maincsm_onmessage
                                                   my_keyhook
    -------------------------------------------------------------------------
CODE
  Segment part 446. NOT NEEDED.Intra module refs   maincsm_onmessage
                                                   my_keyhook
    -------------------------------------------------------------------------
CODE
  Segment part 447. NOT NEEDED.Intra module refs   maincsm_onmessage
                                                   my_keyhook
    -------------------------------------------------------------------------
CODE
  Segment part 448. NOT NEEDED.Intra module refs   maincsm_onmessage
                                                   my_keyhook
    -------------------------------------------------------------------------
CODE
  Segment part 449. NOT NEEDED.Intra module refs   ElfKiller
    -------------------------------------------------------------------------
CODE
  Segment part 450. NOT NEEDED.Intra module refs   ElfKiller
    -------------------------------------------------------------------------
CODE
  Segment part 451. NOT NEEDED.Intra module refs   obNext
    -------------------------------------------------------------------------
CODE
  Segment part 452. NOT NEEDED.Intra module refs   main
                                                   maincsm_onmessage
    -------------------------------------------------------------------------
CODE
  Segment part 453. NOT NEEDED.Intra module refs   maincsm_onmessage
    -------------------------------------------------------------------------
CODE
  Relative segment, address: CODE_AREA 00004DCC - 00004DCF (0x4 bytes), align: 2
  Segment part 454.           Intra module refs:   main
    -------------------------------------------------------------------------
CSTACK
  Segment part 1. NOT NEEDED.
    -------------------------------------------------------------------------
DATA_ID
  Relative segment, address: CODE_AREA 00000130 - 00000187 (0x58 bytes), align: 2
  Segment part 151.           Intra module refs:   ObsEventsHandlers
    -------------------------------------------------------------------------
DATA_ID
  Segment part 455. TENTATIVE. Used definition from FM
           ENTRY                   ADDRESS         REF BY
           =====                   =======         ======
           ?*?DATA_ID              
    -------------------------------------------------------------------------
INITTAB
  Segment part 456. TENTATIVE. Used definition from FM
           ENTRY                   ADDRESS         REF BY
           =====                   =======         ======
           ?init?tab?DATA_I        
    -------------------------------------------------------------------------
INITTAB
  Segment part 457. TENTATIVE. Used definition from FM
           ENTRY                   ADDRESS         REF BY
           =====                   =======         ======
           ?init?tab?DATA_Z        

    *************************************************************************

  FILE NAME : C:\arm\splayer\Release_ELKA\Obj\mainmenu.r79
  PROGRAM MODULE, NAME : mainmenu

  SEGMENTS IN THE MODULE
  ======================
DATA_C
  Relative segment, address: CODE_AREA 000092F4 - 00009303 (0x10 bytes), align: 2
  Segment part 2.             Intra module refs:   Segment part 14
    -------------------------------------------------------------------------
DATA_C
  Relative segment, address: CODE_AREA 00009304 - 0000930B (0x8 bytes), align: 2
  Segment part 3.             Intra module refs:   Segment part 14
    -------------------------------------------------------------------------
DATA_C
  Relative segment, address: CODE_AREA 0000956F - 00009571 (0x3 bytes), align: 0
  Segment part 4.             Intra module refs:   Segment part 14
    -------------------------------------------------------------------------
DATA_C
  Relative segment, address: CODE_AREA 0000930C - 00009317 (0xc bytes), align: 2
  Segment part 5.             Intra module refs:   Segment part 14
    -------------------------------------------------------------------------
DATA_C
  Relative segment, address: CODE_AREA 00009318 - 00009323 (0xc bytes), align: 2
  Segment part 6.             Intra module refs:   Segment part 14
    -------------------------------------------------------------------------
DATA_C
  Relative segment, address: CODE_AREA 00009324 - 0000932B (0x8 bytes), align: 2
  Segment part 7.             Intra module refs:   Segment part 14
    -------------------------------------------------------------------------
DATA_C
  Relative segment, address: CODE_AREA 0000932C - 00009333 (0x8 bytes), align: 2
  Segment part 8.             Intra module refs:   Segment part 14
    -------------------------------------------------------------------------
DATA_C
  Relative segment, address: CODE_AREA 00009334 - 0000937F (0x4c bytes), align: 2
  Segment part 9.             Intra module refs:   AboutDlg
    -------------------------------------------------------------------------
DATA_C
  Relative segment, address: CODE_AREA 00009380 - 000093B3 (0x34 bytes), align: 2
  Segment part 10.            Intra module refs:   AboutDlg
    -------------------------------------------------------------------------
DATA_C
  Relative segment, address: CODE_AREA 000093B4 - 000093BB (0x8 bytes), align: 2
  Segment part 11.            Intra module refs:   AboutDlg
    -------------------------------------------------------------------------
DATA_C
  Segment part 12. NOT NEEDED.
    -------------------------------------------------------------------------
DATA_C
  Relative segment, address: CODE_AREA 000093BC - 000093C3 (0x8 bytes), align: 2
  Segment part 13.            Intra module refs:   MM_Show
    -------------------------------------------------------------------------
DATA_C
  Relative segment, address: CODE_AREA 000093C4 - 000093DF (0x1c bytes), align: 2
  Segment part 14.            Intra module refs:   MM_Show
    -------------------------------------------------------------------------
CODE
  Segment part 33. NOT NEEDED.
    -------------------------------------------------------------------------
CODE
  Relative segment, address: CODE_AREA 00004DD0 - 00004E03 (0x34 bytes), align: 2
  Segment part 34.            Intra module refs:   MM_Show
           ENTRY                   ADDRESS         REF BY
           =====                   =======         ======
           patch_header            00004DD0        Disp_Info (item_info)
                                                   Disp_Sets_Menu (sets_menu)
               stack 1 = 00000000 ( 00000008 )
    -------------------------------------------------------------------------
CODE
  Segment part 35. NOT NEEDED.
    -------------------------------------------------------------------------
CODE
  Relative segment, address: CODE_AREA 00004E04 - 00004E47 (0x44 bytes), align: 2
  Segment part 36.
           ENTRY                   ADDRESS         REF BY
           =====                   =======         ======
           patch_input             00004E04        Disp_Info (item_info)
               stack 1 = 00000000 ( 0000000C )
    -------------------------------------------------------------------------
CODE
  Segment part 37. NOT NEEDED.
    -------------------------------------------------------------------------
DATA_Z
  Segment part 15. NOT NEEDED.
           ENTRY                   ADDRESS         REF BY
           =====                   =======         ======
           cfgname                 
    -------------------------------------------------------------------------
CODE
  Relative segment, address: CODE_AREA 00004E48 - 00004E4B (0x4 bytes), align: 2
  Segment part 38.
           ENTRY                   ADDRESS         REF BY
           =====                   =======         ======
           inp_locret              00004E48        Segment part 160 (item_info)
    -------------------------------------------------------------------------
CODE
  Segment part 39. NOT NEEDED.
    -------------------------------------------------------------------------
DATA_Z
  Relative segment, address: CODE_AREA 0000A2C8 - 0000A2CB (0x4 bytes), align: 2
  Segment part 16.            Intra module refs:   ShowID3
           ENTRY                   ADDRESS         REF BY
           =====                   =======         ======
           MainTag                 0000A2C8 
    -------------------------------------------------------------------------
DATA_Z
  Relative segment, address: CODE_AREA 0000A2CC - 0000A2CF (0x4 bytes), align: 2
  Segment part 17.            Intra module refs:   MM_Show
           ENTRY                   ADDRESS         REF BY
           =====                   =======         ======
           MainMenu_ID             0000A2CC 
    -------------------------------------------------------------------------
CODE
  Relative segment, address: CODE_AREA 00004E4C - 00004E5F (0x14 bytes), align: 2
  Segment part 40.            Intra module refs:   Segment part 25
           ENTRY                   ADDRESS         REF BY
           =====                   =======         ======
           SetNextPlayedOn         00004E4C 
               stack 1 = 00000000 ( 00000004 )
    -------------------------------------------------------------------------
CODE
  Segment part 41. NOT NEEDED.
    -------------------------------------------------------------------------
CODE
  Relative segment, address: CODE_AREA 00004E60 - 00004F17 (0xb8 bytes), align: 2
  Segment part 42.            Intra module refs:   Segment part 25
           ENTRY                   ADDRESS         REF BY
           =====                   =======         ======
           ShowID3                 00004E60 
               stack 1 = 00000000 ( 00000010 )
    -------------------------------------------------------------------------
CODE
  Segment part 43. NOT NEEDED.
    -------------------------------------------------------------------------
CODE
  Relative segment, address: CODE_AREA 00004F18 - 00004F2B (0x14 bytes), align: 2
  Segment part 44.            Intra module refs:   Segment part 25
           ENTRY                   ADDRESS         REF BY
           =====                   =======         ======
           FM                      00004F18 
               stack 1 = 00000000 ( 00000004 )
    -------------------------------------------------------------------------
CODE
  Segment part 45. NOT NEEDED.
    -------------------------------------------------------------------------
CODE
  Relative segment, address: CODE_AREA 00004F2C - 00004F3F (0x14 bytes), align: 2
  Segment part 46.            Intra module refs:   Segment part 25
           ENTRY                   ADDRESS         REF BY
           =====                   =======         ======
           Sets_Menu               00004F2C 
               stack 1 = 00000000 ( 00000004 )
    -------------------------------------------------------------------------
CODE
  Segment part 47. NOT NEEDED.
    -------------------------------------------------------------------------
CODE
  Relative segment, address: CODE_AREA 00004F40 - 00004F8B (0x4c bytes), align: 2
  Segment part 48.            Intra module refs:   Segment part 25
           ENTRY                   ADDRESS         REF BY
           =====                   =======         ======
           Settings                00004F40 
               stack 1 = 00000000 ( 00000008 )
    -------------------------------------------------------------------------
CODE
  Segment part 49. NOT NEEDED.
    -------------------------------------------------------------------------
CODE
  Relative segment, address: CODE_AREA 00004F8C - 00004FD7 (0x4c bytes), align: 2
  Segment part 50.            Intra module refs:   Segment part 25
           ENTRY                   ADDRESS         REF BY
           =====                   =======         ======
           AboutDlg                00004F8C 
               stack 1 = 00000000 ( 00000084 )
    -------------------------------------------------------------------------
CODE
  Segment part 51. NOT NEEDED.
    -------------------------------------------------------------------------
CODE
  Relative segment, address: CODE_AREA 00004FD8 - 00004FDF (0x8 bytes), align: 2
  Segment part 52.            Intra module refs:   Segment part 25
           ENTRY                   ADDRESS         REF BY
           =====                   =======         ======
           Exit_SPlayer            00004FD8 
               stack 1 = 00000000 ( 00000004 )
    -------------------------------------------------------------------------
CODE
  Segment part 53. NOT NEEDED.
    -------------------------------------------------------------------------
DATA_I
  Relative segment, address: DATA_AREA 00000188 - 0000019B (0x14 bytes), align: 2
  Segment part 18.            Intra module refs:   MM_Show
                                                   initMainMenuLangPack
           ENTRY                   ADDRESS         REF BY
           =====                   =======         ======
           menuhdr                 00000188 
    -------------------------------------------------------------------------
DATA_I
  Relative segment, address: DATA_AREA 0000019C - 000001A7 (0xc bytes), align: 2
  Segment part 20.            Intra module refs:   Segment part 31
           ENTRY                   ADDRESS         REF BY
           =====                   =======         ======
           mmenusoftkeys           0000019C 
    -------------------------------------------------------------------------
DATA_Z
  Relative segment, address: CODE_AREA 0000A2D0 - 0000A2D7 (0x8 bytes), align: 2
  Segment part 22.            Intra module refs:   MM_Show
           ENTRY                   ADDRESS         REF BY
           =====                   =======         ======
           icon_array              0000A2D0        Segment part 49 (sets_menu)
    -------------------------------------------------------------------------
DATA_Z
  Relative segment, address: CODE_AREA 0000A2D8 - 0000A2F3 (0x1c bytes), align: 2
  Segment part 23.            Intra module refs:   Segment part 64
    -------------------------------------------------------------------------
DATA_I
  Relative segment, address: DATA_AREA 000001A8 - 000001C3 (0x1c bytes), align: 2
  Segment part 24.            Intra module refs:   mmenu_keyhook
           ENTRY                   ADDRESS         REF BY
           =====                   =======         ======
           menuprocs               000001A8 
    -------------------------------------------------------------------------
DATA_I
  Relative segment, address: DATA_AREA 000001C4 - 000001DB (0x18 bytes), align: 2
  Segment part 26.            Intra module refs:   Segment part 29
                                                   initMainMenuLangPack
           ENTRY                   ADDRESS         REF BY
           =====                   =======         ======
           mmenu_sk                000001C4 
    -------------------------------------------------------------------------
DATA_I
  Relative segment, address: DATA_AREA 000001DC - 000001E3 (0x8 bytes), align: 2
  Segment part 28.            Intra module refs:   Segment part 31
           ENTRY                   ADDRESS         REF BY
           =====                   =======         ======
           mmenu_skt               000001DC 
    -------------------------------------------------------------------------
DATA_Z
  Relative segment, address: CODE_AREA 0000A2F4 - 0000A30F (0x1c bytes), align: 2
  Segment part 30.            Intra module refs:   Segment part 61
           ENTRY                   ADDRESS         REF BY
           =====                   =======         ======
           S_ICONS                 0000A2F4 
    -------------------------------------------------------------------------
CODE
  Relative segment, address: CODE_AREA 00004FE0 - 00005093 (0xb4 bytes), align: 2
  Segment part 54.            Intra module refs:   Segment part 31
           ENTRY                   ADDRESS         REF BY
           =====                   =======         ======
           menuitemhandler         00004FE0 
               stack 1 = 00000000 ( 00000018 )
    -------------------------------------------------------------------------
CODE
  Segment part 55. NOT NEEDED.
    -------------------------------------------------------------------------
CODE
  Relative segment, address: CODE_AREA 00005094 - 000050A7 (0x14 bytes), align: 2
  Segment part 56.            Intra module refs:   Segment part 31
           ENTRY                   ADDRESS         REF BY
           =====                   =======         ======
           mmenu_ghook             00005094 
               stack 1 = 00000000 ( 00000004 )
    -------------------------------------------------------------------------
CODE
  Segment part 57. NOT NEEDED.
    -------------------------------------------------------------------------
CODE
  Relative segment, address: CODE_AREA 000050A8 - 000050D7 (0x30 bytes), align: 2
  Segment part 58.            Intra module refs:   Segment part 31
           LOCAL                   ADDRESS         
           =====                   =======         
           mmenu_keyhook           000050A8 
               stack 1 = 00000000 ( 00000004 )
    -------------------------------------------------------------------------
CODE
  Segment part 59. NOT NEEDED.
    -------------------------------------------------------------------------
DATA_C
  Relative segment, address: CODE_AREA 000093E0 - 0000940B (0x2c bytes), align: 2
  Segment part 31.            Intra module refs:   MM_Show
    -------------------------------------------------------------------------
DATA_Z
  Relative segment, address: CODE_AREA 0000A310 - 0000A68F (0x380 bytes), align: 2
  Segment part 32.            Intra module refs:   MM_Show
           ENTRY                   ADDRESS         REF BY
           =====                   =======         ======
           pic                     0000A310 
    -------------------------------------------------------------------------
CODE
  Relative segment, address: CODE_AREA 000050D8 - 000051AB (0xd4 bytes), align: 2
  Segment part 60.
           ENTRY                   ADDRESS         REF BY
           =====                   =======         ======
           MM_Show                 000050D8        OnKey (main)
                                                   Segment part 77 (keys)
                                                   keyprocs (keys)
               stack 1 = 00000000 ( 0000001C )
    -------------------------------------------------------------------------
CODE
  Relative segment, address: CODE_AREA 000051AC - 000051AF (0x4 bytes), align: 2
  Segment part 61.            Intra module refs:   MM_Show
                                                   menuitemhandler
    -------------------------------------------------------------------------
CODE
  Segment part 62. NOT NEEDED.
    -------------------------------------------------------------------------
CODE
  Relative segment, address: CODE_AREA 000051B0 - 0000521F (0x70 bytes), align: 2
  Segment part 63.
           ENTRY                   ADDRESS         REF BY
           =====                   =======         ======
           initMainMenuLangPack    000051B0        InitLangPack (main)
    -------------------------------------------------------------------------
CODE
  Relative segment, address: CODE_AREA 00005220 - 00005223 (0x4 bytes), align: 2
  Segment part 64.            Intra module refs:   initMainMenuLangPack
                                                   menuitemhandler
    -------------------------------------------------------------------------
CODE
  Segment part 65. NOT NEEDED.Intra module refs:   SetNextPlayedOn
    -------------------------------------------------------------------------
CODE
  Segment part 66. NOT NEEDED.Intra module refs:   ShowID3
    -------------------------------------------------------------------------
CODE
  Segment part 67. NOT NEEDED.Intra module refs:   ShowID3
    -------------------------------------------------------------------------
CODE
  Segment part 68. NOT NEEDED.Intra module refs:   ShowID3
    -------------------------------------------------------------------------
CODE
  Segment part 69. NOT NEEDED.Intra module refs:   FM
    -------------------------------------------------------------------------
CODE
  Segment part 70. NOT NEEDED.Intra module refs:   Sets_Menu
    -------------------------------------------------------------------------
CODE
  Segment part 71. NOT NEEDED.Intra module refs:   Exit_SPlayer
    -------------------------------------------------------------------------
CSTACK
  Segment part 1. NOT NEEDED.
    -------------------------------------------------------------------------
DATA_ID
  Relative segment, address: CODE_AREA 00000188 - 0000019B (0x14 bytes), align: 2
  Segment part 19.            Intra module refs:   menuhdr
    -------------------------------------------------------------------------
DATA_ID
  Relative segment, address: CODE_AREA 0000019C - 000001A7 (0xc bytes), align: 2
  Segment part 21.            Intra module refs:   mmenusoftkeys
    -------------------------------------------------------------------------
DATA_ID
  Relative segment, address: CODE_AREA 000001A8 - 000001C3 (0x1c bytes), align: 2
  Segment part 25.            Intra module refs:   menuprocs
    -------------------------------------------------------------------------
DATA_ID
  Relative segment, address: CODE_AREA 000001C4 - 000001DB (0x18 bytes), align: 2
  Segment part 27.            Intra module refs:   mmenu_sk
    -------------------------------------------------------------------------
DATA_ID
  Relative segment, address: CODE_AREA 000001DC - 000001E3 (0x8 bytes), align: 2
  Segment part 29.            Intra module refs:   mmenu_skt
    -------------------------------------------------------------------------
DATA_ID
  Segment part 72. TENTATIVE. Used definition from FM
           ENTRY                   ADDRESS         REF BY
           =====                   =======         ======
           ?*?DATA_ID              
    -------------------------------------------------------------------------
INITTAB
  Segment part 73. TENTATIVE. Used definition from FM
           ENTRY                   ADDRESS         REF BY
           =====                   =======         ======
           ?init?tab?DATA_I        
    -------------------------------------------------------------------------
INITTAB
  Segment part 74. TENTATIVE. Used definition from FM
           ENTRY                   ADDRESS         REF BY
           =====                   =======         ======
           ?init?tab?DATA_Z        

    *************************************************************************

  FILE NAME : C:\arm\splayer\Release_ELKA\Obj\playlist.r79
  PROGRAM MODULE, NAME : playlist

  SEGMENTS IN THE MODULE
  ======================
DATA_Z
  Relative segment, address: CODE_AREA 0000A690 - 0000CE8F (0x2800 bytes), align: 2
  Segment part 27.            Intra module refs:   Segment part 230
           ENTRY                   ADDRESS         REF BY
           =====                   =======         ======
           playlist_lines          0000A690        OnRedraw (main)
    -------------------------------------------------------------------------
DATA_Z
  Relative segment, address: CODE_AREA 0000D216 - 0000D217 (0x2 bytes), align: 1
  Segment part 28.            Intra module refs:   Segment part 182
           ENTRY                   ADDRESS         REF BY
           =====                   =======         ======
           SoundVolume             0000D216        Segment part 210 (main)
                                                   Segment part 403 (main)
    -------------------------------------------------------------------------
DATA_Z
  Relative segment, address: CODE_AREA 0000D218 - 0000D219 (0x2 bytes), align: 1
  Segment part 29.            Intra module refs:   ToggleVolume
           ENTRY                   ADDRESS         REF BY
           =====                   =======         ======
           SVforToggle             0000D218 
    -------------------------------------------------------------------------
DATA_Z
  Relative segment, address: CODE_AREA 0000D21A - 0000D21B (0x2 bytes), align: 1
  Segment part 30.            Intra module refs:   Segment part 185
           ENTRY                   ADDRESS         REF BY
           =====                   =======         ======
           PlayingStatus           0000D21A        Segment part 385 (main)
    -------------------------------------------------------------------------
DATA_I
  Relative segment, address: DATA_AREA 00000234 - 00000235 (0x2 bytes), align: 1
  Segment part 31.
           ENTRY                   ADDRESS         REF BY
           =====                   =======         ======
           phandle                 00000234        main (main)
    -------------------------------------------------------------------------
DATA_Z
  Relative segment, address: CODE_AREA 0000CE90 - 0000CEA3 (0x14 bytes), align: 2
  Segment part 33.            Intra module refs:   Segment part 173
                                                   Segment part 225
           ENTRY                   ADDRESS         REF BY
           =====                   =======         ======
           CurrentTrack            0000CE90        Segment part 206 (main)
                                                   Segment part 270 (main)
                                                   ShowID3 (mainmenu)
    -------------------------------------------------------------------------
DATA_Z
  Relative segment, address: CODE_AREA 0000CEA4 - 0000CEB7 (0x14 bytes), align: 2
  Segment part 34.            Intra module refs:   Segment part 177
                                                   Segment part 229
           ENTRY                   ADDRESS         REF BY
           =====                   =======         ======
           PlayedTrack             0000CEA4        Segment part 208 (main)
                                                   Segment part 268 (main)
    -------------------------------------------------------------------------
DATA_Z
  Relative segment, address: CODE_AREA 0000CEB8 - 0000CEBB (0x4 bytes), align: 2
  Segment part 35.            Intra module refs:   Segment part 192
                                                   Segment part 224
                                                   Segment part 261
           ENTRY                   ADDRESS         REF BY
           =====                   =======         ======
           CurrentPL               0000CEB8        Segment part 205 (main)
                                                   Segment part 266 (main)
                                                   Segment part 395 (main)
                                                   ShowID3 (mainmenu)
    -------------------------------------------------------------------------
DATA_Z
  Relative segment, address: CODE_AREA 0000CEBC - 0000CEBF (0x4 bytes), align: 2
  Segment part 36.            Intra module refs:   Segment part 176
                                                   Segment part 228
           ENTRY                   ADDRESS         REF BY
           =====                   =======         ======
           PlayedPL                0000CEBC        Segment part 207 (main)
                                                   Segment part 267 (main)
    -------------------------------------------------------------------------
DATA_Z
  Relative segment, address: CODE_AREA 0000CEC0 - 0000CED3 (0x14 bytes), align: 2
  Segment part 37.            Intra module refs:   Segment part 193
                                                   Segment part 210
                                                   Segment part 262
           ENTRY                   ADDRESS         REF BY
           =====                   =======         ======
           TC                      0000CEC0        Segment part 197 (main)
                                                   Segment part 269 (main)
                                                   Segment part 404 (main)
                                                   ShowID3 (mainmenu)
    -------------------------------------------------------------------------
DATA_Z
  Relative segment, address: CODE_AREA 0000CED4 - 0000CEDB (0x8 bytes), align: 2
  Segment part 38.            Intra module refs:   Segment part 172
                                                   Segment part 265
           ENTRY                   ADDRESS         REF BY
           =====                   =======         ======
           ready                   0000CED4 
    -------------------------------------------------------------------------
DATA_Z
  Relative segment, address: CODE_AREA 0000CEDC - 0000CEDF (0x4 bytes), align: 2
  Segment part 39.            Intra module refs:   Segment part 117
                                                   Segment part 95
           ENTRY                   ADDRESS         REF BY
           =====                   =======         ======
           NextPlayedTrack         0000CEDC 
    -------------------------------------------------------------------------
DATA_Z
  Relative segment, address: CODE_AREA 0000D21C - 0000D21D (0x2 bytes), align: 1
  Segment part 40.            Intra module refs:   PL_Redraw
           ENTRY                   ADDRESS         REF BY
           =====                   =======         ======
           ShowNamesNoConst        0000D21C        Segment part 392 (main)
                                                   Segment part 47 (FM)
    -------------------------------------------------------------------------
DATA_I
  Relative segment, address: DATA_AREA 00000236 - 00000236 (0x1 bytes), align: 0
  Segment part 41.            Intra module refs:   Segment part 164
           ENTRY                   ADDRESS         REF BY
           =====                   =======         ======
           stop                    00000236        Segment part 313 (main)
    -------------------------------------------------------------------------
DATA_Z
  Relative segment, address: CODE_AREA 0000D24D - 0000D24D (0x1 bytes), align: 0
  Segment part 43.            Intra module refs:   PL_Redraw
           ENTRY                   ADDRESS         REF BY
           =====                   =======         ======
           FM_o                    0000D24D        Segment part 60 (FM)
    -------------------------------------------------------------------------
DATA_Z
  Relative segment, address: CODE_AREA 0000D21E - 0000D21F (0x2 bytes), align: 1
  Segment part 44.            Intra module refs:   DoRewinded
           ENTRY                   ADDRESS         REF BY
           =====                   =======         ======
           ModeRew                 0000D21E        Segment part 304 (main)
    -------------------------------------------------------------------------
DATA_Z
  Relative segment, address: CODE_AREA 0000D220 - 0000D221 (0x2 bytes), align: 1
  Segment part 45.            Intra module refs:   Segment part 135
           ENTRY                   ADDRESS         REF BY
           =====                   =======         ======
           ModeMove                0000D220        Segment part 323 (main)
    -------------------------------------------------------------------------
DATA_Z
  Relative segment, address: CODE_AREA 0000D222 - 0000D223 (0x2 bytes), align: 1
  Segment part 46.            Intra module refs:   CTSpeed
           ENTRY                   ADDRESS         REF BY
           =====                   =======         ======
           SpeedMove               0000D222        Segment part 314 (main)
    -------------------------------------------------------------------------
DATA_Z
  Relative segment, address: CODE_AREA 0000CEE0 - 0000CEEF (0x10 bytes), align: 2
  Segment part 47.            Intra module refs:   Segment part 270
                                                   Segment part 77
           ENTRY                   ADDRESS         REF BY
           =====                   =======         ======
           tmr_scroll              0000CEE0 
    -------------------------------------------------------------------------
DATA_Z
  Relative segment, address: CODE_AREA 0000CEF0 - 0000CEFF (0x10 bytes), align: 2
  Segment part 48.            Intra module refs:   Segment part 165
                                                   Segment part 271
           ENTRY                   ADDRESS         REF BY
           =====                   =======         ======
           tmr_displacement        0000CEF0 
    -------------------------------------------------------------------------
DATA_Z
  Relative segment, address: CODE_AREA 0000CF00 - 0000CF0F (0x10 bytes), align: 2
  Segment part 49.            Intra module refs:   Segment part 152
                                                   Segment part 272
           ENTRY                   ADDRESS         REF BY
           =====                   =======         ======
           tmr_cursor_move         0000CF00 
    -------------------------------------------------------------------------
DATA_Z
  Relative segment, address: CODE_AREA 0000CF10 - 0000CF1F (0x10 bytes), align: 2
  Segment part 50.            Intra module refs:   Segment part 132
                                                   Segment part 273
           ENTRY                   ADDRESS         REF BY
           =====                   =======         ======
           tmr_pl_move             0000CF10 
    -------------------------------------------------------------------------
DATA_Z
  Relative segment, address: CODE_AREA 0000CF20 - 0000CF2F (0x10 bytes), align: 2
  Segment part 51.            Intra module refs:   Segment part 104
           ENTRY                   ADDRESS         REF BY
           =====                   =======         ======
           tmr_rew                 0000CF20 
    -------------------------------------------------------------------------
DATA_Z
  Relative segment, address: CODE_AREA 0000CF30 - 0000CF3F (0x10 bytes), align: 2
  Segment part 52.            Intra module refs:   Segment part 124
                                                   Segment part 274
           ENTRY                   ADDRESS         REF BY
           =====                   =======         ======
           tmr_opan                0000CF30 
    -------------------------------------------------------------------------
DATA_Z
  Relative segment, address: CODE_AREA 0000CF40 - 0000CF43 (0x4 bytes), align: 2
  Segment part 53.            Intra module refs:   Segment part 240
                                                   Segment part 76
           ENTRY                   ADDRESS         REF BY
           =====                   =======         ======
           scroll_disp             0000CF40 
    -------------------------------------------------------------------------
DATA_Z
  Relative segment, address: CODE_AREA 0000CF44 - 0000CF47 (0x4 bytes), align: 2
  Segment part 54.            Intra module refs:   Segment part 239
                                                   Segment part 75
           ENTRY                   ADDRESS         REF BY
           =====                   =======         ======
           max_scroll_disp         0000CF44 
    -------------------------------------------------------------------------
CODE
  Segment part 71. NOT NEEDED.
    -------------------------------------------------------------------------
CODE
  Relative segment, address: CODE_AREA 00005224 - 00005247 (0x24 bytes), align: 2
  Segment part 72.            Intra module refs:   CTDown
                                                   CTDownSix
                                                   CTSpeed
                                                   CTUp
                                                   CTUpSix
                                                   DeleteLine
                                                   Disable_An
                                                   DoRewinded
                                                   MoveLineDown
                                                   MoveLineLeft
                                                   MoveLineRight
                                                   MoveLineUp
                                                   MovePL
                                                   PL_Redraw
                                                   scroll_timer_proc
           ENTRY                   ADDRESS         REF BY
           =====                   =======         ======
           DisableScroll           00005224        DeleteFiles (FM)
               stack 1 = 00000000 ( 00000004 )
    -------------------------------------------------------------------------
CODE
  Segment part 73. NOT NEEDED.
    -------------------------------------------------------------------------
CODE
  Relative segment, address: CODE_AREA 00005248 - 000052E7 (0xa0 bytes), align: 2
  Segment part 74.            Intra module refs:   Segment part 238
                                                   Segment part 78
           ENTRY                   ADDRESS         REF BY
           =====                   =======         ======
           scroll_timer_proc       00005248 
               stack 1 = 00000000 ( 00000018 )
    -------------------------------------------------------------------------
CODE
  Relative segment, address: CODE_AREA 000052E8 - 000052EB (0x4 bytes), align: 2
  Segment part 75.            Intra module refs:   DisableScroll
                                                   scroll_timer_proc
    -------------------------------------------------------------------------
CODE
  Relative segment, address: CODE_AREA 000052EC - 000052EF (0x4 bytes), align: 2
  Segment part 76.            Intra module refs:   DisableScroll
                                                   scroll_timer_proc
    -------------------------------------------------------------------------
CODE
  Relative segment, address: CODE_AREA 000052F0 - 000052F3 (0x4 bytes), align: 2
  Segment part 77.            Intra module refs:   DisableScroll
                                                   scroll_timer_proc
    -------------------------------------------------------------------------
CODE
  Relative segment, address: CODE_AREA 000052F4 - 000052F7 (0x4 bytes), align: 2
  Segment part 78.            Intra module refs:   scroll_timer_proc
    -------------------------------------------------------------------------
CODE
  Segment part 79. NOT NEEDED.
    -------------------------------------------------------------------------
CODE
  Relative segment, address: CODE_AREA 000052F8 - 0000532F (0x38 bytes), align: 2
  Segment part 80.
           ENTRY                   ADDRESS         REF BY
           =====                   =======         ======
           VolumeUp                000052F8        Segment part 77 (keys)
                                                   keyprocs (keys)
                                                   maincsm_onmessage (main)
                                                   my_keyhook (main)
               stack 1 = 00000000 ( 00000004 )
    -------------------------------------------------------------------------
CODE
  Segment part 81. NOT NEEDED.
    -------------------------------------------------------------------------
CODE
  Relative segment, address: CODE_AREA 00005330 - 00005373 (0x44 bytes), align: 2
  Segment part 82.
           ENTRY                   ADDRESS         REF BY
           =====                   =======         ======
           VolumeDown              00005330        Segment part 77 (keys)
                                                   keyprocs (keys)
                                                   maincsm_onmessage (main)
                                                   my_keyhook (main)
               stack 1 = 00000000 ( 00000004 )
    -------------------------------------------------------------------------
CODE
  Segment part 83. NOT NEEDED.
    -------------------------------------------------------------------------
CODE
  Relative segment, address: CODE_AREA 00005374 - 000053D7 (0x64 bytes), align: 2
  Segment part 84.
           ENTRY                   ADDRESS         REF BY
           =====                   =======         ======
           ToggleVolume            00005374        Segment part 77 (keys)
                                                   keyprocs (keys)
               stack 1 = 00000000 ( 00000004 )
    -------------------------------------------------------------------------
CODE
  Segment part 85. NOT NEEDED.
    -------------------------------------------------------------------------
CODE
  Relative segment, address: CODE_AREA 000053D8 - 0000543F (0x68 bytes), align: 2
  Segment part 86.            Intra module refs:   RandTrack
           ENTRY                   ADDRESS         REF BY
           =====                   =======         ======
           random                  000053D8 
               stack 1 = 00000000 ( 0000001C )
    -------------------------------------------------------------------------
CODE
  Segment part 87. NOT NEEDED.
    -------------------------------------------------------------------------
CODE
  Relative segment, address: CODE_AREA 00005440 - 00005517 (0xd8 bytes), align: 2
  Segment part 88.
           ENTRY                   ADDRESS         REF BY
           =====                   =======         ======
           RandTrack               00005440        NextTrackDown (main)
                                                   my_keyhook (main)
                                                   obNext (main)
               stack 1 = 00000000 ( 00000010 )
    -------------------------------------------------------------------------
CODE
  Segment part 89. NOT NEEDED.
    -------------------------------------------------------------------------
CODE
  Relative segment, address: CODE_AREA 00005518 - 0000556B (0x54 bytes), align: 2
  Segment part 90.
           ENTRY                   ADDRESS         REF BY
           =====                   =======         ======
           RepeatTrack             00005518        obNext (main)
               stack 1 = 00000000 ( 00000008 )
    -------------------------------------------------------------------------
CODE
  Segment part 91. NOT NEEDED.
    -------------------------------------------------------------------------
CODE
  Relative segment, address: CODE_AREA 0000556C - 00005617 (0xac bytes), align: 2
  Segment part 92.
           ENTRY                   ADDRESS         REF BY
           =====                   =======         ======
           NextTrackX              0000556C        PlayMP3File (main)
                                                   obNext (main)
               stack 1 = 00000000 ( 0000000C )
    -------------------------------------------------------------------------
CODE
  Segment part 93. NOT NEEDED.
    -------------------------------------------------------------------------
CODE
  Relative segment, address: CODE_AREA 00005618 - 00005693 (0x7c bytes), align: 2
  Segment part 94.
           ENTRY                   ADDRESS         REF BY
           =====                   =======         ======
           NextTrack               00005618        NextTrackDown (main)
                                                   maincsm_onmessage (main)
                                                   my_keyhook (main)
                                                   obNext (main)
               stack 1 = 00000000 ( 0000000C )
    -------------------------------------------------------------------------
CODE
  Relative segment, address: CODE_AREA 00005694 - 00005697 (0x4 bytes), align: 2
  Segment part 95.            Intra module refs:   NextTrack
                                                   RandTrack
                                                   RepeatTrack
    -------------------------------------------------------------------------
CODE
  Segment part 96. NOT NEEDED.
    -------------------------------------------------------------------------
CODE
  Relative segment, address: CODE_AREA 00005698 - 000056F3 (0x5c bytes), align: 2
  Segment part 97.
           ENTRY                   ADDRESS         REF BY
           =====                   =======         ======
           PreviousTrack           00005698        PrevTrackDown (main)
                                                   maincsm_onmessage (main)
                                                   my_keyhook (main)
               stack 1 = 00000000 ( 00000008 )
    -------------------------------------------------------------------------
CODE
  Segment part 98. NOT NEEDED.
    -------------------------------------------------------------------------
DATA_Z
  Relative segment, address: CODE_AREA 0000CF48 - 0000CF4B (0x4 bytes), align: 2
  Segment part 55.            Intra module refs:   Segment part 103
           ENTRY                   ADDRESS         REF BY
           =====                   =======         ======
           mlsc                    0000CF48 
    -------------------------------------------------------------------------
DATA_Z
  Relative segment, address: CODE_AREA 0000CF4C - 0000CF4F (0x4 bytes), align: 2
  Segment part 56.            Intra module refs:   Segment part 102
           ENTRY                   ADDRESS         REF BY
           =====                   =======         ======
           StopCount               0000CF4C 
    -------------------------------------------------------------------------
DATA_Z
  Relative segment, address: CODE_AREA 0000CF50 - 0000CF53 (0x4 bytes), align: 2
  Segment part 57.            Intra module refs:   Segment part 107
           ENTRY                   ADDRESS         REF BY
           =====                   =======         ======
           IsRewind                0000CF50        Segment part 303 (main)
    -------------------------------------------------------------------------
CODE
  Relative segment, address: CODE_AREA 000056F4 - 0000574F (0x5c bytes), align: 2
  Segment part 99.            Intra module refs:   Disable_An
                                                   DoRewinded
           ENTRY                   ADDRESS         REF BY
           =====                   =======         ======
           StopRewind              000056F4 
               stack 1 = 00000000 ( 00000010 )
    -------------------------------------------------------------------------
CODE
  Segment part 100. NOT NEEDED.
    -------------------------------------------------------------------------
CODE
  Relative segment, address: CODE_AREA 00005750 - 0000580B (0xbc bytes), align: 2
  Segment part 101.           Intra module refs:   StartRewind
           ENTRY                   ADDRESS         REF BY
           =====                   =======         ======
           DoRewinded              00005750 
               stack 1 = 00000000 ( 00000004 )
    -------------------------------------------------------------------------
CODE
  Relative segment, address: CODE_AREA 0000580C - 0000580F (0x4 bytes), align: 2
  Segment part 102.           Intra module refs:   DoRewinded
                                                   StopRewind
    -------------------------------------------------------------------------
CODE
  Relative segment, address: CODE_AREA 00005810 - 00005813 (0x4 bytes), align: 2
  Segment part 103.           Intra module refs:   DoRewinded
                                                   StopRewind
    -------------------------------------------------------------------------
CODE
  Relative segment, address: CODE_AREA 00005814 - 00005817 (0x4 bytes), align: 2
  Segment part 104.           Intra module refs:   DoRewinded
                                                   StopRewind
    -------------------------------------------------------------------------
CODE
  Segment part 105. NOT NEEDED.
    -------------------------------------------------------------------------
CODE
  Relative segment, address: CODE_AREA 00005818 - 0000586B (0x54 bytes), align: 2
  Segment part 106.
           ENTRY                   ADDRESS         REF BY
           =====                   =======         ======
           StartRewind             00005818        StartRewindToBegin (main)
                                                   StartRewindToEnd (main)
               stack 1 = 00000000 ( 00000004 )
    -------------------------------------------------------------------------
CODE
  Relative segment, address: CODE_AREA 0000586C - 0000586F (0x4 bytes), align: 2
  Segment part 107.           Intra module refs:   StartRewind
                                                   StopRewind
    -------------------------------------------------------------------------
CODE
  Segment part 108. NOT NEEDED.
    -------------------------------------------------------------------------
CODE
  Relative segment, address: CODE_AREA 00005870 - 00005933 (0xc4 bytes), align: 2
  Segment part 109.
           ENTRY                   ADDRESS         REF BY
           =====                   =======         ======
           TogglePlayback          00005870        Segment part 77 (keys)
                                                   keyprocs (keys)
                                                   maincsm_onmessage (main)
                                                   my_keyhook (main)
               stack 1 = 00000000 ( 00000014 )
    -------------------------------------------------------------------------
CODE
  Relative segment, address: CODE_AREA 00005934 - 00005937 (0x4 bytes), align: 2
  Segment part 110.           Intra module refs:   DoRewinded
                                                   RandTrack
                                                   TogglePlayback
    -------------------------------------------------------------------------
CODE
  Segment part 111. NOT NEEDED.
    -------------------------------------------------------------------------
CODE
  Relative segment, address: CODE_AREA 00005938 - 0000597B (0x44 bytes), align: 2
  Segment part 112.
           ENTRY                   ADDRESS         REF BY
           =====                   =======         ======
           StopAllPlayback         00005938        ElfKiller (main)
                                                   OnKeyFM (FM)
                                                   Segment part 77 (keys)
                                                   keyprocs (keys)
                                                   maincsm_onmessage (main)
                                                   my_keyhook (main)
               stack 1 = 00000000 ( 00000008 )
    -------------------------------------------------------------------------
CODE
  Segment part 113. NOT NEEDED.
    -------------------------------------------------------------------------
CODE
  Relative segment, address: CODE_AREA 0000597C - 0000599B (0x20 bytes), align: 2
  Segment part 114.
           ENTRY                   ADDRESS         REF BY
           =====                   =======         ======
           SetNextPlayed           0000597C        Segment part 77 (keys)
                                                   SetNextPlayedOn (mainmenu)
                                                   keyprocs (keys)
    -------------------------------------------------------------------------
CODE
  Segment part 115. NOT NEEDED.
    -------------------------------------------------------------------------
CODE
  Relative segment, address: CODE_AREA 0000599C - 000059D3 (0x38 bytes), align: 2
  Segment part 116.           Intra module refs:   NextTrack
                                                   NextTrackX
                                                   RandTrack
                                                   RepeatTrack
           ENTRY                   ADDRESS         REF BY
           =====                   =======         ======
           PlaySetTrack            0000599C 
    -------------------------------------------------------------------------
CODE
  Relative segment, address: CODE_AREA 000059D4 - 000059D7 (0x4 bytes), align: 2
  Segment part 117.           Intra module refs:   NextTrackX
                                                   PlaySetTrack
                                                   SetNextPlayed
    -------------------------------------------------------------------------
CODE
  Segment part 118. NOT NEEDED.
    -------------------------------------------------------------------------
DATA_Z
  Relative segment, address: CODE_AREA 0000D224 - 0000D225 (0x2 bytes), align: 1
  Segment part 58.            Intra module refs:   Segment part 123
                                                   Segment part 247
           ENTRY                   ADDRESS         REF BY
           =====                   =======         ======
           s                       0000D224 
    -------------------------------------------------------------------------
DATA_Z
  Relative segment, address: CODE_AREA 0000D226 - 0000D227 (0x2 bytes), align: 1
  Segment part 59.            Intra module refs:   Segment part 122
           ENTRY                   ADDRESS         REF BY
           =====                   =======         ======
           op                      0000D226 
    -------------------------------------------------------------------------
CODE
  Relative segment, address: CODE_AREA 000059D8 - 000059FF (0x28 bytes), align: 2
  Segment part 119.           Intra module refs:   Disable_An
                                                   OpenAnim
           ENTRY                   ADDRESS         REF BY
           =====                   =======         ======
           Disable_OpenAnim        000059D8 
               stack 1 = 00000000 ( 00000008 )
    -------------------------------------------------------------------------
CODE
  Segment part 120. NOT NEEDED.
    -------------------------------------------------------------------------
CODE
  Relative segment, address: CODE_AREA 00005A00 - 00005A77 (0x78 bytes), align: 2
  Segment part 121.           Intra module refs:   PlayTrackUnderC
           ENTRY                   ADDRESS         REF BY
           =====                   =======         ======
           OpenAnim                00005A00        OnKeyFM (FM)
                                                   ShowFM (FM)
               stack 1 = 00000000 ( 00000004 )
    -------------------------------------------------------------------------
CODE
  Relative segment, address: CODE_AREA 00005A78 - 00005A7B (0x4 bytes), align: 2
  Segment part 122.           Intra module refs:   Disable_OpenAnim
                                                   OpenAnim
    -------------------------------------------------------------------------
CODE
  Relative segment, address: CODE_AREA 00005A7C - 00005A7F (0x4 bytes), align: 2
  Segment part 123.           Intra module refs:   Disable_OpenAnim
                                                   OpenAnim
    -------------------------------------------------------------------------
CODE
  Relative segment, address: CODE_AREA 00005A80 - 00005A83 (0x4 bytes), align: 2
  Segment part 124.           Intra module refs:   Disable_OpenAnim
                                                   OpenAnim
    -------------------------------------------------------------------------
CODE
  Segment part 125. NOT NEEDED.
    -------------------------------------------------------------------------
DATA_Z
  Relative segment, address: CODE_AREA 0000D228 - 0000D229 (0x2 bytes), align: 1
  Segment part 60.            Intra module refs:   Segment part 129
           ENTRY                   ADDRESS         REF BY
           =====                   =======         ======
           imove                   0000D228 
    -------------------------------------------------------------------------
DATA_Z
  Relative segment, address: CODE_AREA 0000CF54 - 0000CF5F (0xc bytes), align: 2
  Segment part 61.            Intra module refs:   Segment part 130
                                                   Segment part 246
           ENTRY                   ADDRESS         REF BY
           =====                   =======         ======
           PL_move_L               0000CF54 
    -------------------------------------------------------------------------
CODE
  Relative segment, address: CODE_AREA 00005A84 - 00005AA3 (0x20 bytes), align: 2
  Segment part 126.           Intra module refs:   Disable_An
                                                   PL_mp
           ENTRY                   ADDRESS         REF BY
           =====                   =======         ======
           Disable_PL_mp           00005A84 
               stack 1 = 00000000 ( 00000004 )
    -------------------------------------------------------------------------
CODE
  Segment part 127. NOT NEEDED.
    -------------------------------------------------------------------------
CODE
  Relative segment, address: CODE_AREA 00005AA4 - 00005B83 (0xe0 bytes), align: 2
  Segment part 128.           Intra module refs:   MovePL
           ENTRY                   ADDRESS         REF BY
           =====                   =======         ======
           PL_mp                   00005AA4 
               stack 1 = 00000000 ( 00000014 )
    -------------------------------------------------------------------------
CODE
  Relative segment, address: CODE_AREA 00005B84 - 00005B87 (0x4 bytes), align: 2
  Segment part 129.           Intra module refs:   Disable_PL_mp
                                                   PL_mp
    -------------------------------------------------------------------------
CODE
  Relative segment, address: CODE_AREA 00005B88 - 00005B8B (0x4 bytes), align: 2
  Segment part 130.           Intra module refs:   PL_mp
    -------------------------------------------------------------------------
CODE
  Relative segment, address: CODE_AREA 00005B8C - 00005B8F (0x4 bytes), align: 2
  Segment part 131.           Intra module refs:   PL_mp
    -------------------------------------------------------------------------
CODE
  Relative segment, address: CODE_AREA 00005B90 - 00005B93 (0x4 bytes), align: 2
  Segment part 132.           Intra module refs:   PL_mp
    -------------------------------------------------------------------------
CODE
  Segment part 133. NOT NEEDED.
    -------------------------------------------------------------------------
CODE
  Relative segment, address: CODE_AREA 00005B94 - 00005BD7 (0x44 bytes), align: 2
  Segment part 134.
           ENTRY                   ADDRESS         REF BY
           =====                   =======         ======
           MovePL                  00005B94        NextPL (main)
                                                   OnKey (main)
                                                   PrevPL (main)
               stack 1 = 00000000 ( 00000004 )
    -------------------------------------------------------------------------
CODE
  Relative segment, address: CODE_AREA 00005BD8 - 00005BDB (0x4 bytes), align: 2
  Segment part 135.           Intra module refs:   MovePL
                                                   PL_mp
    -------------------------------------------------------------------------
CODE
  Segment part 136. NOT NEEDED.
    -------------------------------------------------------------------------
CODE
  Relative segment, address: CODE_AREA 00005BDC - 00005BFB (0x20 bytes), align: 2
  Segment part 137.           Intra module refs:   LoadPlaylists
                                                   LoadingPlaylist
           ENTRY                   ADDRESS         REF BY
           =====                   =======         ======
           CTtoFirst               00005BDC        LoadDefPlaylist (main)
                                                   OnKey (main)
                                                   OnKeyFM (FM)
    -------------------------------------------------------------------------
CODE
  Segment part 138. NOT NEEDED.
    -------------------------------------------------------------------------
CODE
  Relative segment, address: CODE_AREA 00005BFC - 00005C2B (0x30 bytes), align: 2
  Segment part 139.           Intra module refs:   LoadPlaylists
                                                   LoadingPlaylist
           ENTRY                   ADDRESS         REF BY
           =====                   =======         ======
           PTtoFirst               00005BFC        LoadDefPlaylist (main)
                                                   OnKey (main)
    -------------------------------------------------------------------------
CODE
  Segment part 140. NOT NEEDED.
    -------------------------------------------------------------------------
DATA_Z
  Relative segment, address: CODE_AREA 0000D22A - 0000D22B (0x2 bytes), align: 1
  Segment part 62.            Intra module refs:   Segment part 148
                                                   Segment part 236
           ENTRY                   ADDRESS         REF BY
           =====                   =======         ======
           p                       0000D22A 
    -------------------------------------------------------------------------
DATA_Z
  Relative segment, address: CODE_AREA 0000D22C - 0000D22D (0x2 bytes), align: 1
  Segment part 63.            Intra module refs:   Segment part 151
                                                   Segment part 241
           ENTRY                   ADDRESS         REF BY
           =====                   =======         ======
           p1                      0000D22C 
    -------------------------------------------------------------------------
DATA_Z
  Relative segment, address: CODE_AREA 0000D22E - 0000D22F (0x2 bytes), align: 1
  Segment part 64.            Intra module refs:   Segment part 149
                                                   Segment part 243
           ENTRY                   ADDRESS         REF BY
           =====                   =======         ======
           p3                      0000D22E 
    -------------------------------------------------------------------------
DATA_Z
  Relative segment, address: CODE_AREA 0000D230 - 0000D231 (0x2 bytes), align: 1
  Segment part 65.            Intra module refs:   Segment part 147
                                                   Segment part 248
           ENTRY                   ADDRESS         REF BY
           =====                   =======         ======
           n                       0000D230 
    -------------------------------------------------------------------------
DATA_Z
  Relative segment, address: CODE_AREA 0000D232 - 0000D233 (0x2 bytes), align: 1
  Segment part 66.            Intra module refs:   Segment part 150
                                                   Segment part 249
           ENTRY                   ADDRESS         REF BY
           =====                   =======         ======
           d                       0000D232 
    -------------------------------------------------------------------------
DATA_Z
  Relative segment, address: CODE_AREA 0000D234 - 0000D235 (0x2 bytes), align: 1
  Segment part 67.            Intra module refs:   Segment part 157
                                                   Segment part 245
           ENTRY                   ADDRESS         REF BY
           =====                   =======         ======
           v                       0000D234 
    -------------------------------------------------------------------------
DATA_Z
  Relative segment, address: CODE_AREA 0000D236 - 0000D237 (0x2 bytes), align: 1
  Segment part 68.            Intra module refs:   Segment part 158
                                                   Segment part 244
           ENTRY                   ADDRESS         REF BY
           =====                   =======         ======
           v1                      0000D236 
    -------------------------------------------------------------------------
DATA_Z
  Relative segment, address: CODE_AREA 0000D238 - 0000D239 (0x2 bytes), align: 1
  Segment part 69.            Intra module refs:   Segment part 159
                                                   Segment part 242
           ENTRY                   ADDRESS         REF BY
           =====                   =======         ======
           v2                      0000D238 
    -------------------------------------------------------------------------
DATA_Z
  Relative segment, address: CODE_AREA 0000D23A - 0000D23B (0x2 bytes), align: 1
  Segment part 70.            Intra module refs:   Segment part 144
           ENTRY                   ADDRESS         REF BY
           =====                   =======         ======
           i                       0000D23A 
    -------------------------------------------------------------------------
CODE
  Relative segment, address: CODE_AREA 00005C2C - 00005C73 (0x48 bytes), align: 2
  Segment part 141.           Intra module refs:   Disable_An
                                                   PL
           ENTRY                   ADDRESS         REF BY
           =====                   =======         ======
           Disable_PL              00005C2C 
               stack 1 = 00000000 ( 00000008 )
    -------------------------------------------------------------------------
CODE
  Segment part 142. NOT NEEDED.
    -------------------------------------------------------------------------
CODE
  Relative segment, address: CODE_AREA 00005C74 - 00005D13 (0xa0 bytes), align: 2
  Segment part 143.           Intra module refs:   CTDown
                                                   CTUp
           ENTRY                   ADDRESS         REF BY
           =====                   =======         ======
           PL                      00005C74 
               stack 1 = 00000000 ( 00000004 )
    -------------------------------------------------------------------------
CODE
  Relative segment, address: CODE_AREA 00005D14 - 00005D17 (0x4 bytes), align: 2
  Segment part 144.           Intra module refs:   Disable_PL
                                                   PL
    -------------------------------------------------------------------------
CODE
  Relative segment, address: CODE_AREA 00005D18 - 00005D1B (0x4 bytes), align: 2
  Segment part 145.           Intra module refs:   OpenAnim
                                                   PL
                                                   PL_mp
    -------------------------------------------------------------------------
CODE
  Relative segment, address: CODE_AREA 00005D1C - 00005D1F (0x4 bytes), align: 2
  Segment part 146.           Intra module refs:   PL
    -------------------------------------------------------------------------
CODE
  Relative segment, address: CODE_AREA 00005D20 - 00005D23 (0x4 bytes), align: 2
  Segment part 147.           Intra module refs:   Disable_PL
                                                   PL
    -------------------------------------------------------------------------
CODE
  Relative segment, address: CODE_AREA 00005D24 - 00005D27 (0x4 bytes), align: 2
  Segment part 148.           Intra module refs:   Disable_PL
                                                   PL
    -------------------------------------------------------------------------
CODE
  Relative segment, address: CODE_AREA 00005D28 - 00005D2B (0x4 bytes), align: 2
  Segment part 149.           Intra module refs:   Disable_PL
                                                   PL
    -------------------------------------------------------------------------
CODE
  Relative segment, address: CODE_AREA 00005D2C - 00005D2F (0x4 bytes), align: 2
  Segment part 150.           Intra module refs:   Disable_PL
                                                   PL
    -------------------------------------------------------------------------
CODE
  Relative segment, address: CODE_AREA 00005D30 - 00005D33 (0x4 bytes), align: 2
  Segment part 151.           Intra module refs:   Disable_PL
                                                   PL
    -------------------------------------------------------------------------
CODE
  Relative segment, address: CODE_AREA 00005D34 - 00005D37 (0x4 bytes), align: 2
  Segment part 152.           Intra module refs:   Disable_PL
                                                   Disable_PL_mp
                                                   PL
    -------------------------------------------------------------------------
CODE
  Segment part 153. NOT NEEDED.
    -------------------------------------------------------------------------
CODE
  Relative segment, address: CODE_AREA 00005D38 - 00005D97 (0x60 bytes), align: 2
  Segment part 154.
           ENTRY                   ADDRESS         REF BY
           =====                   =======         ======
           CTDown                  00005D38        OnKey (main)
                                                   Segment part 77 (keys)
                                                   keyprocs (keys)
               stack 1 = 00000000 ( 00000008 )
    -------------------------------------------------------------------------
CODE
  Segment part 155. NOT NEEDED.
    -------------------------------------------------------------------------
CODE
  Relative segment, address: CODE_AREA 00005D98 - 00005DEF (0x58 bytes), align: 2
  Segment part 156.
           ENTRY                   ADDRESS         REF BY
           =====                   =======         ======
           CTUp                    00005D98        OnKey (main)
                                                   Segment part 77 (keys)
                                                   keyprocs (keys)
               stack 1 = 00000000 ( 00000004 )
    -------------------------------------------------------------------------
CODE
  Relative segment, address: CODE_AREA 00005DF0 - 00005DF3 (0x4 bytes), align: 2
  Segment part 157.           Intra module refs:   CTDown
                                                   CTUp
    -------------------------------------------------------------------------
CODE
  Relative segment, address: CODE_AREA 00005DF4 - 00005DF7 (0x4 bytes), align: 2
  Segment part 158.           Intra module refs:   CTDown
                                                   CTUp
    -------------------------------------------------------------------------
CODE
  Relative segment, address: CODE_AREA 00005DF8 - 00005DFB (0x4 bytes), align: 2
  Segment part 159.           Intra module refs:   CTDown
                                                   CTUp
    -------------------------------------------------------------------------
CODE
  Segment part 160. NOT NEEDED.
    -------------------------------------------------------------------------
CODE
  Relative segment, address: CODE_AREA 00005DFC - 00005E17 (0x1c bytes), align: 2
  Segment part 161.           Intra module refs:   Disable_An
           ENTRY                   ADDRESS         REF BY
           =====                   =======         ======
           Disable_CTSpeed         00005DFC 
               stack 1 = 00000000 ( 00000004 )
    -------------------------------------------------------------------------
CODE
  Segment part 162. NOT NEEDED.
    -------------------------------------------------------------------------
CODE
  Relative segment, address: CODE_AREA 00005E18 - 00005EB3 (0x9c bytes), align: 2
  Segment part 163.
           ENTRY                   ADDRESS         REF BY
           =====                   =======         ======
           CTSpeed                 00005E18        CTDownSpeed (main)
                                                   CTUpSpeed (main)
               stack 1 = 00000000 ( 0000000C )
    -------------------------------------------------------------------------
CODE
  Relative segment, address: CODE_AREA 00005EB4 - 00005EB7 (0x4 bytes), align: 2
  Segment part 164.           Intra module refs:   CTSpeed
                                                   Disable_CTSpeed
    -------------------------------------------------------------------------
CODE
  Relative segment, address: CODE_AREA 00005EB8 - 00005EBB (0x4 bytes), align: 2
  Segment part 165.           Intra module refs:   CTSpeed
                                                   Disable_CTSpeed
    -------------------------------------------------------------------------
CODE
  Segment part 166. NOT NEEDED.
    -------------------------------------------------------------------------
CODE
  Relative segment, address: CODE_AREA 00005EBC - 00005EFF (0x44 bytes), align: 2
  Segment part 167.
           ENTRY                   ADDRESS         REF BY
           =====                   =======         ======
           CTDownSix               00005EBC        OnKey (main)
                                                   Segment part 77 (keys)
                                                   keyprocs (keys)
               stack 1 = 00000000 ( 00000004 )
    -------------------------------------------------------------------------
CODE
  Segment part 168. NOT NEEDED.
    -------------------------------------------------------------------------
CODE
  Relative segment, address: CODE_AREA 00005F00 - 00005F3F (0x40 bytes), align: 2
  Segment part 169.
           ENTRY                   ADDRESS         REF BY
           =====                   =======         ======
           CTUpSix                 00005F00        OnKey (main)
                                                   Segment part 77 (keys)
                                                   keyprocs (keys)
               stack 1 = 00000000 ( 00000004 )
    -------------------------------------------------------------------------
CODE
  Segment part 170. NOT NEEDED.
    -------------------------------------------------------------------------
CODE
  Relative segment, address: CODE_AREA 00005F40 - 00005FDF (0xa0 bytes), align: 2
  Segment part 171.
           ENTRY                   ADDRESS         REF BY
           =====                   =======         ======
           PlayTrackUnderC         00005F40        Segment part 77 (keys)
                                                   keyprocs (keys)
               stack 1 = 00000000 ( 0000010C )
    -------------------------------------------------------------------------
CODE
  Relative segment, address: CODE_AREA 00005FE0 - 00005FE3 (0x4 bytes), align: 2
  Segment part 172.           Intra module refs:   NextTrack
                                                   NextTrackX
                                                   PlayTrackUnderC
                                                   PreviousTrack
                                                   RandTrack
                                                   RepeatTrack
                                                   TogglePlayback
    -------------------------------------------------------------------------
CODE
  Relative segment, address: CODE_AREA 00005FE4 - 00005FE7 (0x4 bytes), align: 2
  Segment part 173.           Intra module refs:   CTDown
                                                   CTDownSix
                                                   CTSpeed
                                                   CTUp
                                                   CTUpSix
                                                   CTtoFirst
                                                   PlaySetTrack
                                                   PlayTrackUnderC
                                                   RandTrack
                                                   SetNextPlayed
    -------------------------------------------------------------------------
CODE
  Relative segment, address: CODE_AREA 00005FE8 - 00005FEB (0x4 bytes), align: 2
  Segment part 174.           Intra module refs:   PlayTrackUnderC
                                                   StopAllPlayback
                                                   TogglePlayback
    -------------------------------------------------------------------------
CODE
  Relative segment, address: CODE_AREA 00005FEC - 00005FEF (0x4 bytes), align: 2
  Segment part 175.           Intra module refs:   NextTrack
                                                   NextTrackX
                                                   PlayTrackUnderC
                                                   PreviousTrack
                                                   RandTrack
                                                   RepeatTrack
                                                   StartRewind
                                                   StopAllPlayback
                                                   StopRewind
                                                   TogglePlayback
                                                   ToggleVolume
                                                   VolumeDown
                                                   VolumeUp
    -------------------------------------------------------------------------
CODE
  Relative segment, address: CODE_AREA 00005FF0 - 00005FF3 (0x4 bytes), align: 2
  Segment part 176.           Intra module refs:   NextTrack
                                                   NextTrackX
                                                   PTtoFirst
                                                   PlaySetTrack
                                                   PlayTrackUnderC
                                                   PreviousTrack
                                                   RandTrack
                                                   RepeatTrack
                                                   TogglePlayback
    -------------------------------------------------------------------------
CODE
  Relative segment, address: CODE_AREA 00005FF4 - 00005FF7 (0x4 bytes), align: 2
  Segment part 177.           Intra module refs:   NextTrack
                                                   NextTrackX
                                                   PTtoFirst
                                                   PlaySetTrack
                                                   PlayTrackUnderC
                                                   PreviousTrack
                                                   RandTrack
                                                   RepeatTrack
                                                   TogglePlayback
    -------------------------------------------------------------------------
CODE
  Segment part 178. NOT NEEDED.
    -------------------------------------------------------------------------
CODE
  Relative segment, address: CODE_AREA 00005FF8 - 00006007 (0x10 bytes), align: 2
  Segment part 179.
           ENTRY                   ADDRESS         REF BY
           =====                   =======         ======
           GetPlayingStatus        00005FF8        OnRedraw (main)
                                                   maincsm_onmessage (main)
    -------------------------------------------------------------------------
CODE
  Segment part 180. NOT NEEDED.
    -------------------------------------------------------------------------
CODE
  Relative segment, address: CODE_AREA 00006008 - 00006013 (0xc bytes), align: 2
  Segment part 181.
           ENTRY                   ADDRESS         REF BY
           =====                   =======         ======
           GetVolLevel             00006008        OnRedraw (main)
    -------------------------------------------------------------------------
CODE
  Relative segment, address: CODE_AREA 00006014 - 00006017 (0x4 bytes), align: 2
  Segment part 182.           Intra module refs:   GetVolLevel
                                                   ToggleVolume
                                                   VolumeDown
                                                   VolumeUp
    -------------------------------------------------------------------------
CODE
  Segment part 183. NOT NEEDED.
    -------------------------------------------------------------------------
CODE
  Relative segment, address: CODE_AREA 00006018 - 00006023 (0xc bytes), align: 2
  Segment part 184.
           ENTRY                   ADDRESS         REF BY
           =====                   =======         ======
           SetPlayingStatus        00006018        PlayMP3File (main)
    -------------------------------------------------------------------------
CODE
  Relative segment, address: CODE_AREA 00006024 - 00006027 (0x4 bytes), align: 2
  Segment part 185.           Intra module refs:   GetPlayingStatus
                                                   NextTrackX
                                                   SetPlayingStatus
                                                   StartRewind
                                                   StopAllPlayback
                                                   StopRewind
                                                   TogglePlayback
    -------------------------------------------------------------------------
CODE
  Segment part 186. NOT NEEDED.
    -------------------------------------------------------------------------
CODE
  Segment part 187. NOT NEEDED.
           ENTRY                   ADDRESS         REF BY
           =====                   =======         ======
           SetPHandle              
               not allocated function
    -------------------------------------------------------------------------
CODE
  Segment part 188. NOT NEEDED.
    -------------------------------------------------------------------------
CODE
  Segment part 189. NOT NEEDED.
           ENTRY                   ADDRESS         REF BY
           =====                   =======         ======
           GetTC                   
               not allocated function
    -------------------------------------------------------------------------
CODE
  Segment part 190. NOT NEEDED.
    -------------------------------------------------------------------------
CODE
  Relative segment, address: CODE_AREA 00006028 - 00006073 (0x4c bytes), align: 2
  Segment part 191.           Intra module refs:   MemoryFree
           ENTRY                   ADDRESS         REF BY
           =====                   =======         ======
           FreePlaylist            00006028 
               stack 1 = 00000000 ( 0000000C )
    -------------------------------------------------------------------------
CODE
  Relative segment, address: CODE_AREA 00006074 - 00006077 (0x4 bytes), align: 2
  Segment part 192.           Intra module refs:   CTDown
                                                   CTDownSix
                                                   CTSpeed
                                                   CTUp
                                                   CTUpSix
                                                   CTtoFirst
                                                   FreePlaylist
                                                   MovePL
                                                   PTtoFirst
                                                   PlayTrackUnderC
                                                   RandTrack
                                                   SetNextPlayed
    -------------------------------------------------------------------------
CODE
  Relative segment, address: CODE_AREA 00006078 - 0000607B (0x4 bytes), align: 2
  Segment part 193.           Intra module refs:   CTDown
                                                   CTDownSix
                                                   CTSpeed
                                                   CTUp
                                                   CTUpSix
                                                   FreePlaylist
                                                   NextTrack
                                                   NextTrackX
                                                   PreviousTrack
                                                   RandTrack
    -------------------------------------------------------------------------
CODE
  Segment part 194. NOT NEEDED.
    -------------------------------------------------------------------------
CODE
  Segment part 195. NOT NEEDED.
           ENTRY                   ADDRESS         REF BY
           =====                   =======         ======
           char8to16               
               not allocated function
    -------------------------------------------------------------------------
CODE
  Segment part 196. NOT NEEDED.
    -------------------------------------------------------------------------
CODE
  Segment part 197. NOT NEEDED.
           ENTRY                   ADDRESS         REF BY
           =====                   =======         ======
           ascii2ws                
               not allocated function
    -------------------------------------------------------------------------
CODE
  Segment part 198. NOT NEEDED.
    -------------------------------------------------------------------------
CODE
  Relative segment, address: CODE_AREA 0000607C - 0000627B (0x200 bytes), align: 2
  Segment part 199.
           ENTRY                   ADDRESS         REF BY
           =====                   =======         ======
           SavePlaylist            0000607C        SavePL (main)
               stack 1 = 00000000 ( 00000154 )
    -------------------------------------------------------------------------
CODE
  Segment part 200. NOT NEEDED.
    -------------------------------------------------------------------------
CODE
  Relative segment, address: CODE_AREA 0000627C - 00006307 (0x8c bytes), align: 2
  Segment part 201.           Intra module refs:   LoadPlaylist
                                                   LoadPlaylists
                                                   MoveLineLeft
                                                   MoveLineRight
           ENTRY                   ADDRESS         REF BY
           =====                   =======         ======
           PastLine                0000627C        CopyFName (FM)
                                                   LoadDaemonList (FM)
               stack 1 = 00000000 ( 00000014 )
    -------------------------------------------------------------------------
CODE
  Segment part 202. NOT NEEDED.
    -------------------------------------------------------------------------
CODE
  Relative segment, address: CODE_AREA 00006308 - 000063C7 (0xc0 bytes), align: 2
  Segment part 203.           Intra module refs:   MoveLineDown
                                                   MoveLineUp
           ENTRY                   ADDRESS         REF BY
           =====                   =======         ======
           CopyLine                00006308 
               stack 1 = 00000000 ( 0000001C )
    -------------------------------------------------------------------------
CODE
  Segment part 204. NOT NEEDED.
    -------------------------------------------------------------------------
CODE
  Relative segment, address: CODE_AREA 000063C8 - 000064B3 (0xec bytes), align: 2
  Segment part 205.           Intra module refs:   CleanPlaylist
                                                   FreePlaylist
                                                   MoveLineLeft
                                                   MoveLineRight
           ENTRY                   ADDRESS         REF BY
           =====                   =======         ======
           DeleteLine              000063C8        OnKey (main)
               stack 1 = 00000000 ( 00000018 )
    -------------------------------------------------------------------------
CODE
  Segment part 206. NOT NEEDED.
    -------------------------------------------------------------------------
CODE
  Relative segment, address: CODE_AREA 000064B4 - 00006653 (0x1a0 bytes), align: 2
  Segment part 207.
           ENTRY                   ADDRESS         REF BY
           =====                   =======         ======
           MoveLineUp              000064B4        OnKey (main)
               stack 1 = 00000000 ( 0000001C )
    -------------------------------------------------------------------------
CODE
  Segment part 208. NOT NEEDED.
    -------------------------------------------------------------------------
CODE
  Relative segment, address: CODE_AREA 00006654 - 000067D7 (0x184 bytes), align: 2
  Segment part 209.
           ENTRY                   ADDRESS         REF BY
           =====                   =======         ======
           MoveLineDown            00006654        OnKey (main)
               stack 1 = 00000000 ( 00000020 )
    -------------------------------------------------------------------------
CODE
  Relative segment, address: CODE_AREA 000067D8 - 000067DB (0x4 bytes), align: 2
  Segment part 210.           Intra module refs:   CopyLine
                                                   DeleteLine
                                                   MoveLineDown
                                                   MoveLineUp
                                                   PastLine
                                                   SavePlaylist
    -------------------------------------------------------------------------
CODE
  Segment part 211. NOT NEEDED.
    -------------------------------------------------------------------------
CODE
  Relative segment, address: CODE_AREA 000067DC - 0000684F (0x74 bytes), align: 2
  Segment part 212.
           ENTRY                   ADDRESS         REF BY
           =====                   =======         ======
           MoveLineRight           000067DC        OnKey (main)
               stack 1 = 00000000 ( 00000008 )
    -------------------------------------------------------------------------
CODE
  Segment part 213. NOT NEEDED.
    -------------------------------------------------------------------------
CODE
  Relative segment, address: CODE_AREA 00006850 - 000068C3 (0x74 bytes), align: 2
  Segment part 214.
           ENTRY                   ADDRESS         REF BY
           =====                   =======         ======
           MoveLineLeft            00006850        OnKey (main)
               stack 1 = 00000000 ( 00000008 )
    -------------------------------------------------------------------------
CODE
  Relative segment, address: CODE_AREA 000068C4 - 000068C7 (0x4 bytes), align: 2
  Segment part 215.           Intra module refs:   CopyLine
                                                   MoveLineDown
                                                   MoveLineLeft
                                                   MoveLineRight
                                                   MoveLineUp
    -------------------------------------------------------------------------
CODE
  Segment part 216. NOT NEEDED.
    -------------------------------------------------------------------------
CODE
  Relative segment, address: CODE_AREA 000068C8 - 0000691B (0x54 bytes), align: 2
  Segment part 217.           Intra module refs:   PL_Redraw
           ENTRY                   ADDRESS         REF BY
           =====                   =======         ======
           FullpathToFilename      000068C8        PlayMP3File (main)
               stack 1 = 00000000 ( 00000014 )
    -------------------------------------------------------------------------
CODE
  Segment part 218. NOT NEEDED.
    -------------------------------------------------------------------------
CODE
  Relative segment, address: CODE_AREA 0000691C - 000069D3 (0xb8 bytes), align: 2
  Segment part 219.           Intra module refs:   PL_Redraw
           ENTRY                   ADDRESS         REF BY
           =====                   =======         ======
           FullpathToFile          0000691C 
               stack 1 = 00000000 ( 00000018 )
    -------------------------------------------------------------------------
CODE
  Segment part 220. NOT NEEDED.
    -------------------------------------------------------------------------
CODE
  Relative segment, address: CODE_AREA 000069D4 - 00006A37 (0x64 bytes), align: 2
  Segment part 221.           Intra module refs:   LoadPlaylist
                                                   LoadPlaylists
           ENTRY                   ADDRESS         REF BY
           =====                   =======         ======
           fix                     000069D4        LoadDaemonList (FM)
               stack 1 = 00000000 ( 00000010 )
    -------------------------------------------------------------------------
CODE
  Segment part 222. NOT NEEDED.
    -------------------------------------------------------------------------
CODE
  Relative segment, address: CODE_AREA 00006A38 - 00006A57 (0x20 bytes), align: 2
  Segment part 223.           Intra module refs:   PlayTrackUnderC
           ENTRY                   ADDRESS         REF BY
           =====                   =======         ======
           GetCurrentTrack         00006A38        ShowID3 (mainmenu)
    -------------------------------------------------------------------------
CODE
  Relative segment, address: CODE_AREA 00006A58 - 00006A5B (0x4 bytes), align: 2
  Segment part 224.           Intra module refs:   CopyLine
                                                   DeleteLine
                                                   GetCurrentTrack
                                                   MoveLineDown
                                                   MoveLineLeft
                                                   MoveLineRight
                                                   MoveLineUp
                                                   PastLine
                                                   SavePlaylist
    -------------------------------------------------------------------------
CODE
  Relative segment, address: CODE_AREA 00006A5C - 00006A5F (0x4 bytes), align: 2
  Segment part 225.           Intra module refs:   CopyLine
                                                   DeleteLine
                                                   GetCurrentTrack
                                                   MoveLineDown
                                                   MoveLineLeft
                                                   MoveLineRight
                                                   MoveLineUp
                                                   PastLine
    -------------------------------------------------------------------------
CODE
  Segment part 226. NOT NEEDED.
    -------------------------------------------------------------------------
CODE
  Relative segment, address: CODE_AREA 00006A60 - 00006A7F (0x20 bytes), align: 2
  Segment part 227.           Intra module refs:   NextTrack
                                                   NextTrackX
                                                   PlayTrackUnderC
                                                   PreviousTrack
                                                   RandTrack
                                                   RepeatTrack
                                                   TogglePlayback
           ENTRY                   ADDRESS         REF BY
           =====                   =======         ======
           GetPlayedTrack          00006A60        PlayMP3File (main)
    -------------------------------------------------------------------------
CODE
  Relative segment, address: CODE_AREA 00006A80 - 00006A83 (0x4 bytes), align: 2
  Segment part 228.           Intra module refs:   CopyLine
                                                   DeleteLine
                                                   GetPlayedTrack
                                                   MoveLineDown
                                                   MoveLineUp
    -------------------------------------------------------------------------
CODE
  Relative segment, address: CODE_AREA 00006A84 - 00006A87 (0x4 bytes), align: 2
  Segment part 229.           Intra module refs:   CopyLine
                                                   DeleteLine
                                                   GetPlayedTrack
                                                   MoveLineDown
                                                   MoveLineUp
    -------------------------------------------------------------------------
CODE
  Relative segment, address: CODE_AREA 00006A88 - 00006A8B (0x4 bytes), align: 2
  Segment part 230.           Intra module refs:   CopyLine
                                                   DeleteLine
                                                   GetCurrentTrack
                                                   GetPlayedTrack
                                                   MoveLineDown
                                                   MoveLineLeft
                                                   MoveLineRight
                                                   MoveLineUp
                                                   PastLine
                                                   SavePlaylist
    -------------------------------------------------------------------------
CODE
  Segment part 231. NOT NEEDED.
    -------------------------------------------------------------------------
CODE
  Segment part 232. NOT NEEDED.
           ENTRY                   ADDRESS         REF BY
           =====                   =======         ======
           GetTrackByNumber        
               not allocated function
    -------------------------------------------------------------------------
CODE
  Segment part 233. NOT NEEDED.
    -------------------------------------------------------------------------
CODE
  Relative segment, address: CODE_AREA 00006A8C - 00007587 (0xafc bytes), align: 2
  Segment part 234.
           ENTRY                   ADDRESS         REF BY
           =====                   =======         ======
           PL_Redraw               00006A8C        OnRedraw (FM)
                                                   OnRedraw (main)
               stack 1 = 00000000 ( 000001A0 )
    -------------------------------------------------------------------------
CODE
  Relative segment, address: CODE_AREA 00007588 - 0000758B (0x4 bytes), align: 2
  Segment part 235.           Intra module refs:   PL_Redraw
    -------------------------------------------------------------------------
CODE
  Relative segment, address: CODE_AREA 0000758C - 0000758F (0x4 bytes), align: 2
  Segment part 236.           Intra module refs:   PL_Redraw
    -------------------------------------------------------------------------
CODE
  Relative segment, address: CODE_AREA 00007590 - 00007593 (0x4 bytes), align: 2
  Segment part 237.           Intra module refs:   PL_Redraw
    -------------------------------------------------------------------------
CODE
  Relative segment, address: CODE_AREA 00007594 - 00007597 (0x4 bytes), align: 2
  Segment part 238.           Intra module refs:   PL_Redraw
    -------------------------------------------------------------------------
CODE
  Relative segment, address: CODE_AREA 00007598 - 0000759B (0x4 bytes), align: 2
  Segment part 239.           Intra module refs:   PL_Redraw
    -------------------------------------------------------------------------
CODE
  Relative segment, address: CODE_AREA 0000759C - 0000759F (0x4 bytes), align: 2
  Segment part 240.           Intra module refs:   PL_Redraw
    -------------------------------------------------------------------------
CODE
  Relative segment, address: CODE_AREA 000075A0 - 000075A3 (0x4 bytes), align: 2
  Segment part 241.           Intra module refs:   PL_Redraw
    -------------------------------------------------------------------------
CODE
  Relative segment, address: CODE_AREA 000075A4 - 000075A7 (0x4 bytes), align: 2
  Segment part 242.           Intra module refs:   PL_Redraw
    -------------------------------------------------------------------------
CODE
  Relative segment, address: CODE_AREA 000075A8 - 000075AB (0x4 bytes), align: 2
  Segment part 243.           Intra module refs:   PL_Redraw
    -------------------------------------------------------------------------
CODE
  Relative segment, address: CODE_AREA 000075AC - 000075AF (0x4 bytes), align: 2
  Segment part 244.           Intra module refs:   PL_Redraw
    -------------------------------------------------------------------------
CODE
  Relative segment, address: CODE_AREA 000075B0 - 000075B3 (0x4 bytes), align: 2
  Segment part 245.           Intra module refs:   PL_Redraw
    -------------------------------------------------------------------------
CODE
  Relative segment, address: CODE_AREA 000075B4 - 000075B7 (0x4 bytes), align: 2
  Segment part 246.           Intra module refs:   PL_Redraw
    -------------------------------------------------------------------------
CODE
  Relative segment, address: CODE_AREA 000075B8 - 000075BB (0x4 bytes), align: 2
  Segment part 247.           Intra module refs:   PL_Redraw
    -------------------------------------------------------------------------
CODE
  Relative segment, address: CODE_AREA 000075BC - 000075BF (0x4 bytes), align: 2
  Segment part 248.           Intra module refs:   PL_Redraw
    -------------------------------------------------------------------------
CODE
  Relative segment, address: CODE_AREA 000075C0 - 000075C3 (0x4 bytes), align: 2
  Segment part 249.           Intra module refs:   PL_Redraw
    -------------------------------------------------------------------------
CODE
  Segment part 250. NOT NEEDED.
    -------------------------------------------------------------------------
CODE
  Relative segment, address: CODE_AREA 000075C4 - 0000768B (0xc8 bytes), align: 2
  Segment part 251.           Intra module refs:   PL_Redraw
           ENTRY                   ADDRESS         REF BY
           =====                   =======         ======
           BandRoll                000075C4 
               stack 1 = 00000000 ( 00000040 )
    -------------------------------------------------------------------------
CODE
  Relative segment, address: CODE_AREA 0000768C - 0000768F (0x4 bytes), align: 2
  Segment part 252.           Intra module refs:   BandRoll
                                                   PL_Redraw
    -------------------------------------------------------------------------
CODE
  Segment part 253. NOT NEEDED.
    -------------------------------------------------------------------------
CODE
  Relative segment, address: CODE_AREA 00007690 - 000077FB (0x16c bytes), align: 2
  Segment part 254.           Intra module refs:   LoadingPlaylist
           ENTRY                   ADDRESS         REF BY
           =====                   =======         ======
           LoadPlaylist            00007690        CopyFName (FM)
                                                   LoadDaemonList (FM)
               stack 1 = 00000000 ( 00000050 )
    -------------------------------------------------------------------------
CODE
  Segment part 255. NOT NEEDED.
    -------------------------------------------------------------------------
CODE
  Relative segment, address: CODE_AREA 000077FC - 0000787F (0x84 bytes), align: 2
  Segment part 256.           Intra module refs:   PlayTrackUnderC
           ENTRY                   ADDRESS         REF BY
           =====                   =======         ======
           LoadingPlaylist         000077FC        LoadDefPlaylist (main)
                                                   OnKey (main)
                                                   main (main)
               stack 1 = 00000000 ( 00000010 )
    -------------------------------------------------------------------------
CODE
  Segment part 257. NOT NEEDED.
    -------------------------------------------------------------------------
CODE
  Relative segment, address: CODE_AREA 00007880 - 000078B3 (0x34 bytes), align: 2
  Segment part 258.           Intra module refs:   LoadingPlaylist
           ENTRY                   ADDRESS         REF BY
           =====                   =======         ======
           CleanPlaylist           00007880        Segment part 77 (keys)
                                                   keyprocs (keys)
               stack 1 = 00000000 ( 0000000C )
    -------------------------------------------------------------------------
CODE
  Segment part 259. NOT NEEDED.
    -------------------------------------------------------------------------
CODE
  Relative segment, address: CODE_AREA 000078B4 - 00007A27 (0x174 bytes), align: 2
  Segment part 260.           Intra module refs:   PL_Redraw
           ENTRY                   ADDRESS         REF BY
           =====                   =======         ======
           LoadPlaylists           000078B4 
               stack 1 = 00000000 ( 00000458 )
    -------------------------------------------------------------------------
CODE
  Relative segment, address: CODE_AREA 00007A28 - 00007A2B (0x4 bytes), align: 2
  Segment part 261.           Intra module refs:   CleanPlaylist
                                                   LoadPlaylists
                                                   LoadingPlaylist
                                                   PL_Redraw
    -------------------------------------------------------------------------
CODE
  Relative segment, address: CODE_AREA 00007A2C - 00007A2F (0x4 bytes), align: 2
  Segment part 262.           Intra module refs:   CleanPlaylist
                                                   LoadPlaylists
                                                   PL_Redraw
    -------------------------------------------------------------------------
CODE
  Relative segment, address: CODE_AREA 00007A30 - 00007A33 (0x4 bytes), align: 2
  Segment part 263.           Intra module refs:   LoadPlaylists
                                                   LoadingPlaylist
    -------------------------------------------------------------------------
CODE
  Relative segment, address: CODE_AREA 00007A34 - 00007A37 (0x4 bytes), align: 2
  Segment part 264.           Intra module refs:   LoadPlaylists
                                                   LoadingPlaylist
    -------------------------------------------------------------------------
CODE
  Relative segment, address: CODE_AREA 00007A38 - 00007A3B (0x4 bytes), align: 2
  Segment part 265.           Intra module refs:   LoadPlaylists
                                                   LoadingPlaylist
    -------------------------------------------------------------------------
CODE
  Segment part 266. NOT NEEDED.
    -------------------------------------------------------------------------
CODE
  Relative segment, address: CODE_AREA 00007A3C - 00007A9F (0x64 bytes), align: 2
  Segment part 267.
           ENTRY                   ADDRESS         REF BY
           =====                   =======         ======
           Disable_An              00007A3C        OnKey (main)
               stack 1 = 00000000 ( 00000018 )
    -------------------------------------------------------------------------
CODE
  Segment part 268. NOT NEEDED.
    -------------------------------------------------------------------------
CODE
  Relative segment, address: CODE_AREA 00007AA0 - 00007AD3 (0x34 bytes), align: 2
  Segment part 269.
           ENTRY                   ADDRESS         REF BY
           =====                   =======         ======
           MemoryFree              00007AA0        ElfKiller (main)
               stack 1 = 00000000 ( 00000004 )
    -------------------------------------------------------------------------
CODE
  Relative segment, address: CODE_AREA 00007AD4 - 00007AD7 (0x4 bytes), align: 2
  Segment part 270.           Intra module refs:   MemoryFree
                                                   PL_Redraw
    -------------------------------------------------------------------------
CODE
  Relative segment, address: CODE_AREA 00007AD8 - 00007ADB (0x4 bytes), align: 2
  Segment part 271.           Intra module refs:   MemoryFree
    -------------------------------------------------------------------------
CODE
  Relative segment, address: CODE_AREA 00007ADC - 00007ADF (0x4 bytes), align: 2
  Segment part 272.           Intra module refs:   MemoryFree
    -------------------------------------------------------------------------
CODE
  Relative segment, address: CODE_AREA 00007AE0 - 00007AE3 (0x4 bytes), align: 2
  Segment part 273.           Intra module refs:   MemoryFree
    -------------------------------------------------------------------------
CODE
  Relative segment, address: CODE_AREA 00007AE4 - 00007AE7 (0x4 bytes), align: 2
  Segment part 274.           Intra module refs:   MemoryFree
    -------------------------------------------------------------------------
CODE
  Segment part 275. NOT NEEDED.Intra module refs   random
    -------------------------------------------------------------------------
CODE
  Segment part 276. NOT NEEDED.Intra module refs   NextTrack
                                                   NextTrackX
                                                   PlayTrackUnderC
                                                   PreviousTrack
                                                   RandTrack
                                                   RepeatTrack
                                                   TogglePlayback
    -------------------------------------------------------------------------
CODE
  Segment part 277. NOT NEEDED.Intra module refs   NextTrackX
                                                   StartRewind
                                                   StopAllPlayback
                                                   TogglePlayback
    -------------------------------------------------------------------------
CODE
  Segment part 278. NOT NEEDED.Intra module refs   StopRewind
                                                   TogglePlayback
    -------------------------------------------------------------------------
CODE
  Segment part 279. NOT NEEDED.Intra module refs   StopAllPlayback
    -------------------------------------------------------------------------
CODE
  Segment part 280. NOT NEEDED.Intra module refs   MoveLineRight
    -------------------------------------------------------------------------
CODE
  Segment part 281. NOT NEEDED.Intra module refs   MoveLineLeft
    -------------------------------------------------------------------------
CODE
  Segment part 282. NOT NEEDED.Intra module refs   BandRoll
                                                   PL_Redraw
    -------------------------------------------------------------------------
CODE
  Segment part 283. NOT NEEDED.Intra module refs   LoadingPlaylist
    -------------------------------------------------------------------------
CODE
  Segment part 284. NOT NEEDED.Intra module refs   LoadPlaylists
    -------------------------------------------------------------------------
CSTACK
  Segment part 1. NOT NEEDED.
    -------------------------------------------------------------------------
DATA_ID
  Relative segment, address: CODE_AREA 00000234 - 00000235 (0x2 bytes), align: 1
  Segment part 32.            Intra module refs:   phandle
    -------------------------------------------------------------------------
DATA_ID
  Relative segment, address: CODE_AREA 00000236 - 00000236 (0x1 bytes), align: 0
  Segment part 42.            Intra module refs:   stop
    -------------------------------------------------------------------------
DATA_ID
  Segment part 285. TENTATIVE. Used definition from FM
           ENTRY                   ADDRESS         REF BY
           =====                   =======         ======
           ?*?DATA_ID              
    -------------------------------------------------------------------------
INITTAB
  Segment part 286. TENTATIVE. Used definition from FM
           ENTRY                   ADDRESS         REF BY
           =====                   =======         ======
           ?init?tab?DATA_I        
    -------------------------------------------------------------------------
INITTAB
  Segment part 287. TENTATIVE. Used definition from FM
           ENTRY                   ADDRESS         REF BY
           =====                   =======         ======
           ?init?tab?DATA_Z        
    -------------------------------------------------------------------------
DATA_C
  Relative segment, address: CODE_AREA 0000940C - 00009413 (0x8 bytes), align: 2
  Segment part 2.             Intra module refs:   PL_Redraw
    -------------------------------------------------------------------------
DATA_C
  Relative segment, address: CODE_AREA 00009414 - 0000941F (0xc bytes), align: 2
  Segment part 3.             Intra module refs:   PL_Redraw
    -------------------------------------------------------------------------
DATA_C
  Relative segment, address: CODE_AREA 00009420 - 0000942B (0xc bytes), align: 2
  Segment part 4.             Intra module refs:   PL_Redraw
    -------------------------------------------------------------------------
DATA_C
  Relative segment, address: CODE_AREA 0000942C - 00009437 (0xc bytes), align: 2
  Segment part 5.             Intra module refs:   PL_Redraw
    -------------------------------------------------------------------------
DATA_C
  Relative segment, address: CODE_AREA 00009438 - 0000943F (0x8 bytes), align: 2
  Segment part 6.             Intra module refs:   PL_Redraw
    -------------------------------------------------------------------------
DATA_C
  Relative segment, address: CODE_AREA 00009440 - 00009447 (0x8 bytes), align: 2
  Segment part 7.             Intra module refs:   PL_Redraw
    -------------------------------------------------------------------------
DATA_C
  Relative segment, address: CODE_AREA 00009448 - 00009457 (0x10 bytes), align: 2
  Segment part 8.             Intra module refs:   PL_Redraw
    -------------------------------------------------------------------------
DATA_C
  Relative segment, address: CODE_AREA 00009458 - 00009467 (0x10 bytes), align: 2
  Segment part 9.             Intra module refs:   PL_Redraw
    -------------------------------------------------------------------------
DATA_C
  Segment part 10. NOT NEEDED.
    -------------------------------------------------------------------------
DATA_C
  Segment part 11. NOT NEEDED.
    -------------------------------------------------------------------------
DATA_C
  Relative segment, address: CODE_AREA 00009468 - 0000946F (0x8 bytes), align: 2
  Segment part 12.            Intra module refs:   PL_Redraw
    -------------------------------------------------------------------------
DATA_C
  Segment part 13. NOT NEEDED.
    -------------------------------------------------------------------------
DATA_C
  Relative segment, address: CODE_AREA 00009470 - 00009477 (0x8 bytes), align: 2
  Segment part 14.            Intra module refs:   PL_Redraw
    -------------------------------------------------------------------------
DATA_C
  Relative segment, address: CODE_AREA 00009478 - 0000947F (0x8 bytes), align: 2
  Segment part 15.            Intra module refs:   PL_Redraw
    -------------------------------------------------------------------------
DATA_C
  Relative segment, address: CODE_AREA 00009480 - 00009487 (0x8 bytes), align: 2
  Segment part 16.            Intra module refs:   PL_Redraw
    -------------------------------------------------------------------------
DATA_C
  Relative segment, address: CODE_AREA 00009488 - 0000948F (0x8 bytes), align: 2
  Segment part 17.            Intra module refs:   PL_Redraw
    -------------------------------------------------------------------------
DATA_C
  Segment part 18. NOT NEEDED.
    -------------------------------------------------------------------------
DATA_C
  Relative segment, address: CODE_AREA 00009490 - 00009497 (0x8 bytes), align: 2
  Segment part 19.            Intra module refs:   SavePlaylist
    -------------------------------------------------------------------------
DATA_C
  Relative segment, address: CODE_AREA 00009498 - 0000949F (0x8 bytes), align: 2
  Segment part 20.            Intra module refs:   SavePlaylist
    -------------------------------------------------------------------------
DATA_C
  Relative segment, address: CODE_AREA 000094A0 - 000094A7 (0x8 bytes), align: 2
  Segment part 21.            Intra module refs:   SavePlaylist
    -------------------------------------------------------------------------
DATA_C
  Relative segment, address: CODE_AREA 000094A8 - 000094AF (0x8 bytes), align: 2
  Segment part 22.            Intra module refs:   SavePlaylist
    -------------------------------------------------------------------------
DATA_C
  Relative segment, address: CODE_AREA 000094B0 - 000094B7 (0x8 bytes), align: 2
  Segment part 23.            Intra module refs:   SavePlaylist
    -------------------------------------------------------------------------
DATA_C
  Relative segment, address: CODE_AREA 00009572 - 00009573 (0x2 bytes), align: 0
  Segment part 24.            Intra module refs:   SavePlaylist
    -------------------------------------------------------------------------
DATA_C
  Relative segment, address: CODE_AREA 000094B8 - 000094C3 (0xc bytes), align: 2
  Segment part 25.            Intra module refs:   PL_Redraw
    -------------------------------------------------------------------------
DATA_C
  Relative segment, address: CODE_AREA 000094C4 - 000094CB (0x8 bytes), align: 2
  Segment part 26.            Intra module refs:   PL_Redraw

    *************************************************************************

  FILE NAME : C:\arm\splayer\Release_ELKA\Obj\popup.r79
  PROGRAM MODULE, NAME : popup

  SEGMENTS IN THE MODULE
  ======================
DATA_Z
  Relative segment, address: CODE_AREA 0000D23C - 0000D23D (0x2 bytes), align: 1
  Segment part 2.             Intra module refs:   Segment part 20
           ENTRY                   ADDRESS         REF BY
           =====                   =======         ======
           x2                      0000D23C 
    -------------------------------------------------------------------------
DATA_Z
  Relative segment, address: CODE_AREA 0000D23E - 0000D23F (0x2 bytes), align: 1
  Segment part 3.             Intra module refs:   Segment part 19
           ENTRY                   ADDRESS         REF BY
           =====                   =======         ======
           y2                      0000D23E 
    -------------------------------------------------------------------------
DATA_Z
  Relative segment, address: CODE_AREA 0000D240 - 0000D241 (0x2 bytes), align: 1
  Segment part 4.             Intra module refs:   Segment part 17
           ENTRY                   ADDRESS         REF BY
           =====                   =======         ======
           x                       0000D240 
    -------------------------------------------------------------------------
DATA_Z
  Relative segment, address: CODE_AREA 0000D242 - 0000D243 (0x2 bytes), align: 1
  Segment part 5.             Intra module refs:   Segment part 16
           ENTRY                   ADDRESS         REF BY
           =====                   =======         ======
           y                       0000D242 
    -------------------------------------------------------------------------
DATA_I
  Segment part 6. NOT NEEDED.
           ENTRY                   ADDRESS         REF BY
           =====                   =======         ======
           g                       
    -------------------------------------------------------------------------
DATA_Z
  Relative segment, address: CODE_AREA 0000CF60 - 0000CF63 (0x4 bytes), align: 2
  Segment part 8.             Intra module refs:   Segment part 18
           ENTRY                   ADDRESS         REF BY
           =====                   =======         ======
           Cor                     0000CF60 
    -------------------------------------------------------------------------
DATA_Z
  Segment part 9. NOT NEEDED.
           ENTRY                   ADDRESS         REF BY
           =====                   =======         ======
           show                    
    -------------------------------------------------------------------------
CODE
  Segment part 10. NOT NEEDED.
    -------------------------------------------------------------------------
CODE
  Segment part 11. NOT NEEDED.
           ENTRY                   ADDRESS         REF BY
           =====                   =======         ======
           ShowPPP                 
               not allocated function
    -------------------------------------------------------------------------
CODE
  Segment part 12. NOT NEEDED.
    -------------------------------------------------------------------------
CODE
  Segment part 13. NOT NEEDED.
           ENTRY                   ADDRESS         REF BY
           =====                   =======         ======
           PlayPopup               
               not allocated function
    -------------------------------------------------------------------------
CODE
  Segment part 14. NOT NEEDED.
    -------------------------------------------------------------------------
CODE
  Relative segment, address: CODE_AREA 00007AE8 - 00007BC7 (0xe0 bytes), align: 2
  Segment part 15.
           ENTRY                   ADDRESS         REF BY
           =====                   =======         ======
           CrPopup                 00007AE8        OnRedraw (main)
               stack 1 = 00000000 ( 00000044 )
    -------------------------------------------------------------------------
CODE
  Relative segment, address: CODE_AREA 00007BC8 - 00007BCB (0x4 bytes), align: 2
  Segment part 16.            Intra module refs:   CrPopup
    -------------------------------------------------------------------------
CODE
  Relative segment, address: CODE_AREA 00007BCC - 00007BCF (0x4 bytes), align: 2
  Segment part 17.            Intra module refs:   CrPopup
    -------------------------------------------------------------------------
CODE
  Relative segment, address: CODE_AREA 00007BD0 - 00007BD3 (0x4 bytes), align: 2
  Segment part 18.            Intra module refs:   CrPopup
    -------------------------------------------------------------------------
CODE
  Relative segment, address: CODE_AREA 00007BD4 - 00007BD7 (0x4 bytes), align: 2
  Segment part 19.            Intra module refs:   CrPopup
    -------------------------------------------------------------------------
CODE
  Relative segment, address: CODE_AREA 00007BD8 - 00007BDB (0x4 bytes), align: 2
  Segment part 20.            Intra module refs:   CrPopup
    -------------------------------------------------------------------------
CSTACK
  Segment part 1. NOT NEEDED.
    -------------------------------------------------------------------------
DATA_ID
  Segment part 7. NOT NEEDED.
    -------------------------------------------------------------------------
DATA_ID
  Segment part 21. TENTATIVE. Used definition from FM
           ENTRY                   ADDRESS         REF BY
           =====                   =======         ======
           ?*?DATA_ID              
    -------------------------------------------------------------------------
INITTAB
  Segment part 22. TENTATIVE. Used definition from FM
           ENTRY                   ADDRESS         REF BY
           =====                   =======         ======
           ?init?tab?DATA_I        
    -------------------------------------------------------------------------
INITTAB
  Segment part 23. TENTATIVE. Used definition from FM
           ENTRY                   ADDRESS         REF BY
           =====                   =======         ======
           ?init?tab?DATA_Z        

    *************************************************************************

  FILE NAME : C:\arm\splayer\Release_ELKA\Obj\sets_menu.r79
  PROGRAM MODULE, NAME : sets_menu

  SEGMENTS IN THE MODULE
  ======================
DATA_C
  Relative segment, address: CODE_AREA 000094CC - 000094D7 (0xc bytes), align: 2
  Segment part 2.             Intra module refs:   Segment part 10
    -------------------------------------------------------------------------
DATA_C
  Relative segment, address: CODE_AREA 000094D8 - 000094DF (0x8 bytes), align: 2
  Segment part 3.             Intra module refs:   Segment part 10
    -------------------------------------------------------------------------
DATA_C
  Relative segment, address: CODE_AREA 000094E0 - 000094E7 (0x8 bytes), align: 2
  Segment part 4.             Intra module refs:   Segment part 10
    -------------------------------------------------------------------------
DATA_C
  Relative segment, address: CODE_AREA 000094E8 - 000094EF (0x8 bytes), align: 2
  Segment part 5.             Intra module refs:   Segment part 35
    -------------------------------------------------------------------------
DATA_C
  Relative segment, address: CODE_AREA 000094F0 - 000094FB (0xc bytes), align: 2
  Segment part 6.             Intra module refs:   Coordinates
    -------------------------------------------------------------------------
DATA_C
  Relative segment, address: CODE_AREA 000094FC - 00009507 (0xc bytes), align: 2
  Segment part 7.             Intra module refs:   Colours
    -------------------------------------------------------------------------
DATA_C
  Segment part 8. NOT NEEDED.
    -------------------------------------------------------------------------
DATA_C
  Relative segment, address: CODE_AREA 00009508 - 0000950F (0x8 bytes), align: 2
  Segment part 9.             Intra module refs:   Disp_Sets_Menu
    -------------------------------------------------------------------------
DATA_C
  Relative segment, address: CODE_AREA 00009510 - 0000951B (0xc bytes), align: 2
  Segment part 10.            Intra module refs:   Disp_Sets_Menu
    -------------------------------------------------------------------------
DATA_Z
  Relative segment, address: CODE_AREA 0000CF64 - 0000D063 (0x100 bytes), align: 2
  Segment part 11.            Intra module refs:   Segment part 34
           ENTRY                   ADDRESS         REF BY
           =====                   =======         ======
           cfgxname                0000CF64 
    -------------------------------------------------------------------------
DATA_Z
  Relative segment, address: CODE_AREA 0000D064 - 0000D067 (0x4 bytes), align: 2
  Segment part 12.            Intra module refs:   Disp_Sets_Menu
           ENTRY                   ADDRESS         REF BY
           =====                   =======         ======
           SetsMenu_ID             0000D064 
    -------------------------------------------------------------------------
CODE
  Segment part 27. NOT NEEDED.
    -------------------------------------------------------------------------
CODE
  Relative segment, address: CODE_AREA 00007BDC - 00007BFF (0x24 bytes), align: 2
  Segment part 28.            Intra module refs:   Segment part 19
           ENTRY                   ADDRESS         REF BY
           =====                   =======         ======
           Set_Edit_PL             00007BDC 
               stack 1 = 00000000 ( 00000004 )
    -------------------------------------------------------------------------
CODE
  Segment part 29. NOT NEEDED.
    -------------------------------------------------------------------------
CODE
  Relative segment, address: CODE_AREA 00007C00 - 00007C63 (0x64 bytes), align: 2
  Segment part 30.            Intra module refs:   Segment part 19
           ENTRY                   ADDRESS         REF BY
           =====                   =======         ======
           Coordinates             00007C00 
               stack 1 = 00000000 ( 0000000C )
    -------------------------------------------------------------------------
CODE
  Segment part 31. NOT NEEDED.
    -------------------------------------------------------------------------
CODE
  Relative segment, address: CODE_AREA 00007C64 - 00007CC7 (0x64 bytes), align: 2
  Segment part 32.            Intra module refs:   Segment part 19
           ENTRY                   ADDRESS         REF BY
           =====                   =======         ======
           Colours                 00007C64 
               stack 1 = 00000000 ( 0000000C )
    -------------------------------------------------------------------------
CODE
  Relative segment, address: CODE_AREA 00007CC8 - 00007CCB (0x4 bytes), align: 2
  Segment part 33.            Intra module refs:   Colours
                                                   Coordinates
    -------------------------------------------------------------------------
CODE
  Relative segment, address: CODE_AREA 00007CCC - 00007CCF (0x4 bytes), align: 2
  Segment part 34.            Intra module refs:   Colours
                                                   Coordinates
    -------------------------------------------------------------------------
CODE
  Relative segment, address: CODE_AREA 00007CD0 - 00007CD3 (0x4 bytes), align: 2
  Segment part 35.            Intra module refs:   Colours
                                                   Coordinates
    -------------------------------------------------------------------------
CODE
  Segment part 36. NOT NEEDED.
    -------------------------------------------------------------------------
CODE
  Relative segment, address: CODE_AREA 00007CD4 - 00007CE7 (0x14 bytes), align: 2
  Segment part 37.            Intra module refs:   Segment part 19
           ENTRY                   ADDRESS         REF BY
           =====                   =======         ======
           Refresh1                00007CD4 
               stack 1 = 00000000 ( 00000004 )
    -------------------------------------------------------------------------
CODE
  Segment part 38. NOT NEEDED.
    -------------------------------------------------------------------------
DATA_I
  Relative segment, address: DATA_AREA 000001E4 - 000001F7 (0x14 bytes), align: 2
  Segment part 13.            Intra module refs:   Disp_Sets_Menu
                                                   initSetsMenuLangPack
           ENTRY                   ADDRESS         REF BY
           =====                   =======         ======
           sets_menuhdr            000001E4 
    -------------------------------------------------------------------------
DATA_I
  Relative segment, address: DATA_AREA 000001F8 - 00000203 (0xc bytes), align: 2
  Segment part 15.            Intra module refs:   Segment part 25
           ENTRY                   ADDRESS         REF BY
           =====                   =======         ======
           sets_menusoftkeys       000001F8 
    -------------------------------------------------------------------------
DATA_Z
  Relative segment, address: CODE_AREA 0000D068 - 0000D077 (0x10 bytes), align: 2
  Segment part 17.            Intra module refs:   Segment part 52
    -------------------------------------------------------------------------
DATA_I
  Relative segment, address: DATA_AREA 00000204 - 00000213 (0x10 bytes), align: 2
  Segment part 18.            Intra module refs:   sets_menu_keyhook
           ENTRY                   ADDRESS         REF BY
           =====                   =======         ======
           sets_menuprocs          00000204 
    -------------------------------------------------------------------------
DATA_I
  Relative segment, address: DATA_AREA 00000214 - 0000022B (0x18 bytes), align: 2
  Segment part 20.            Intra module refs:   Segment part 23
                                                   initSetsMenuLangPack
           ENTRY                   ADDRESS         REF BY
           =====                   =======         ======
           sets_menu_sk            00000214 
    -------------------------------------------------------------------------
DATA_I
  Relative segment, address: DATA_AREA 0000022C - 00000233 (0x8 bytes), align: 2
  Segment part 22.            Intra module refs:   Segment part 25
           ENTRY                   ADDRESS         REF BY
           =====                   =======         ======
           sets_menu_skt           0000022C 
    -------------------------------------------------------------------------
DATA_Z
  Relative segment, address: CODE_AREA 0000D078 - 0000D087 (0x10 bytes), align: 2
  Segment part 24.            Intra module refs:   Segment part 48
           ENTRY                   ADDRESS         REF BY
           =====                   =======         ======
           stS_ICONS               0000D078 
    -------------------------------------------------------------------------
CODE
  Relative segment, address: CODE_AREA 00007CE8 - 00007D9F (0xb8 bytes), align: 2
  Segment part 39.            Intra module refs:   Segment part 25
           ENTRY                   ADDRESS         REF BY
           =====                   =======         ======
           sets_menuitemhandler    00007CE8 
               stack 1 = 00000000 ( 00000018 )
    -------------------------------------------------------------------------
CODE
  Relative segment, address: CODE_AREA 00007DA0 - 00007DA3 (0x4 bytes), align: 2
  Segment part 40.            Intra module refs:   Set_Edit_PL
                                                   sets_menuitemhandler
    -------------------------------------------------------------------------
CODE
  Segment part 41. NOT NEEDED.
    -------------------------------------------------------------------------
CODE
  Relative segment, address: CODE_AREA 00007DA4 - 00007DB7 (0x14 bytes), align: 2
  Segment part 42.            Intra module refs:   Segment part 25
           ENTRY                   ADDRESS         REF BY
           =====                   =======         ======
           sets_menu_ghook         00007DA4 
               stack 1 = 00000000 ( 00000004 )
    -------------------------------------------------------------------------
CODE
  Segment part 43. NOT NEEDED.
    -------------------------------------------------------------------------
CODE
  Relative segment, address: CODE_AREA 00007DB8 - 00007DE7 (0x30 bytes), align: 2
  Segment part 44.            Intra module refs:   Segment part 25
           LOCAL                   ADDRESS         
           =====                   =======         
           sets_menu_keyhook       00007DB8 
               stack 1 = 00000000 ( 00000004 )
    -------------------------------------------------------------------------
CODE
  Segment part 45. NOT NEEDED.
    -------------------------------------------------------------------------
DATA_C
  Relative segment, address: CODE_AREA 0000951C - 00009547 (0x2c bytes), align: 2
  Segment part 25.            Intra module refs:   Disp_Sets_Menu
    -------------------------------------------------------------------------
DATA_Z
  Relative segment, address: CODE_AREA 0000D088 - 0000D207 (0x180 bytes), align: 2
  Segment part 26.            Intra module refs:   Disp_Sets_Menu
           ENTRY                   ADDRESS         REF BY
           =====                   =======         ======
           pic2                    0000D088 
    -------------------------------------------------------------------------
CODE
  Relative segment, address: CODE_AREA 00007DE8 - 00007EB7 (0xd0 bytes), align: 2
  Segment part 46.
           ENTRY                   ADDRESS         REF BY
           =====                   =======         ======
           Disp_Sets_Menu          00007DE8        Sets_Menu (mainmenu)
               stack 1 = 00000000 ( 0000001C )
    -------------------------------------------------------------------------
CODE
  Relative segment, address: CODE_AREA 00007EB8 - 00007EBB (0x4 bytes), align: 2
  Segment part 47.            Intra module refs:   Colours
                                                   Coordinates
                                                   Disp_Sets_Menu
    -------------------------------------------------------------------------
CODE
  Relative segment, address: CODE_AREA 00007EBC - 00007EBF (0x4 bytes), align: 2
  Segment part 48.            Intra module refs:   Disp_Sets_Menu
                                                   sets_menuitemhandler
    -------------------------------------------------------------------------
CODE
  Relative segment, address: CODE_AREA 00007EC0 - 00007EC3 (0x4 bytes), align: 2
  Segment part 49.            Intra module refs:   Disp_Sets_Menu
                                                   sets_menuitemhandler
    -------------------------------------------------------------------------
CODE
  Segment part 50. NOT NEEDED.
    -------------------------------------------------------------------------
CODE
  Relative segment, address: CODE_AREA 00007EC4 - 00007F1B (0x58 bytes), align: 2
  Segment part 51.
           ENTRY                   ADDRESS         REF BY
           =====                   =======         ======
           initSetsMenuLangPack    00007EC4        InitLangPack (main)
    -------------------------------------------------------------------------
CODE
  Relative segment, address: CODE_AREA 00007F1C - 00007F1F (0x4 bytes), align: 2
  Segment part 52.            Intra module refs:   initSetsMenuLangPack
                                                   sets_menuitemhandler
    -------------------------------------------------------------------------
CODE
  Segment part 53. NOT NEEDED.Intra module refs:   Refresh1
    -------------------------------------------------------------------------
CODE
  Segment part 54. NOT NEEDED.Intra module refs:   Disp_Sets_Menu
    -------------------------------------------------------------------------
CSTACK
  Segment part 1. NOT NEEDED.
    -------------------------------------------------------------------------
DATA_ID
  Relative segment, address: CODE_AREA 000001E4 - 000001F7 (0x14 bytes), align: 2
  Segment part 14.            Intra module refs:   sets_menuhdr
    -------------------------------------------------------------------------
DATA_ID
  Relative segment, address: CODE_AREA 000001F8 - 00000203 (0xc bytes), align: 2
  Segment part 16.            Intra module refs:   sets_menusoftkeys
    -------------------------------------------------------------------------
DATA_ID
  Relative segment, address: CODE_AREA 00000204 - 00000213 (0x10 bytes), align: 2
  Segment part 19.            Intra module refs:   sets_menuprocs
    -------------------------------------------------------------------------
DATA_ID
  Relative segment, address: CODE_AREA 00000214 - 0000022B (0x18 bytes), align: 2
  Segment part 21.            Intra module refs:   sets_menu_sk
    -------------------------------------------------------------------------
DATA_ID
  Relative segment, address: CODE_AREA 0000022C - 00000233 (0x8 bytes), align: 2
  Segment part 23.            Intra module refs:   sets_menu_skt
    -------------------------------------------------------------------------
DATA_ID
  Segment part 55. TENTATIVE. Used definition from FM
           ENTRY                   ADDRESS         REF BY
           =====                   =======         ======
           ?*?DATA_ID              
    -------------------------------------------------------------------------
INITTAB
  Segment part 56. TENTATIVE. Used definition from FM
           ENTRY                   ADDRESS         REF BY
           =====                   =======         ======
           ?init?tab?DATA_I        
    -------------------------------------------------------------------------
INITTAB
  Segment part 57. TENTATIVE. Used definition from FM
           ENTRY                   ADDRESS         REF BY
           =====                   =======         ======
           ?init?tab?DATA_Z        

    *************************************************************************

  FILE NAME : C:\arm2\Embedded Workbench 4.0 Evaluation\ARM\LIB\dl5tpainl8n.r79
  LIBRARY MODULE, NAME : ?div_module

  SEGMENTS IN THE MODULE
  ======================
CODE
  Segment part 0. NOT NEEDED.
           ENTRY                   ADDRESS         REF BY
           =====                   =======         ======
           ??divu8_t               
    -------------------------------------------------------------------------
CODE
  Segment part 1. NOT NEEDED.
           ENTRY                   ADDRESS         REF BY
           =====                   =======         ======
           ??divu8_a               
    -------------------------------------------------------------------------
CODE
  Segment part 2. NOT NEEDED.
           ENTRY                   ADDRESS         REF BY
           =====                   =======         ======
           ??divu16_t              
    -------------------------------------------------------------------------
CODE
  Segment part 3. NOT NEEDED.
           ENTRY                   ADDRESS         REF BY
           =====                   =======         ======
           ??divu16_a              
    -------------------------------------------------------------------------
CODE
  Segment part 4. NOT NEEDED.
           ENTRY                   ADDRESS         REF BY
           =====                   =======         ======
           ??divu32_t              
    -------------------------------------------------------------------------
CODE
  Relative segment, address: CODE_AREA 00007F20 - 00007F2B (0xc bytes), align: 2
  Segment part 5.
           ENTRY                   ADDRESS         REF BY
           =====                   =======         ======
           ??divu32_a              00007F20        random (playlist)
    -------------------------------------------------------------------------
CODE
  Segment part 6. NOT NEEDED.
           ENTRY                   ADDRESS         REF BY
           =====                   =======         ======
           ??div8_t                
    -------------------------------------------------------------------------
CODE
  Segment part 7. NOT NEEDED.
           ENTRY                   ADDRESS         REF BY
           =====                   =======         ======
           ??div8_a                
    -------------------------------------------------------------------------
CODE
  Segment part 8. NOT NEEDED.
           ENTRY                   ADDRESS         REF BY
           =====                   =======         ======
           ??div16_t               
    -------------------------------------------------------------------------
CODE
  Segment part 9. NOT NEEDED.
           ENTRY                   ADDRESS         REF BY
           =====                   =======         ======
           ??div16_a               
    -------------------------------------------------------------------------
CODE
  Segment part 10. NOT NEEDED.
           ENTRY                   ADDRESS         REF BY
           =====                   =======         ======
           ??div32_t               
    -------------------------------------------------------------------------
CODE
  Relative segment, address: CODE_AREA 00007F2C - 00007F43 (0x18 bytes), align: 2
  Segment part 11.
           ENTRY                   ADDRESS         REF BY
           =====                   =======         ======
           ??div32_a               00007F2C        BandRoll (playlist)
                                                   OnRedraw (main)
                                                   PL_Redraw (playlist)
                                                   ShowLongTXT (main)
    -------------------------------------------------------------------------
CODE
  Relative segment, address: CODE_AREA 00007F44 - 0000801B (0xd8 bytes), align: 2
  Segment part 12.            Intra module refs:   ??div32_a
                                                   ??divu32_a




                ****************************************
                *                                      *
                *            MODULE SUMMARY            *
                *                                      *
                ****************************************

Module             CODE   DATA
------             ----   ----
                  (Rel)  (Rel)
?div_module         252
FM                4 864      4
  + shared           24
ID3Tags             452
conf_loader         401      4
config_data       3 208
func                  8
item_info         3 616    108
keys              1 722    188
klib                600
main             16 355     88
mainmenu          2 451     92
playlist         21 120      3
popup               256
sets_menu         1 716     80
N/A (alignment)
------           ------    ---
Total:           57 045    567


                ****************************************
                *                                      *
                *              CALL GRAPH              *
                *                                      *
                ****************************************

  ->Sub-tree of type: Indirectly called function tree that does not make
                    : indirect calls (Is not an interrupt and is not flagged
                    : as not overlayable)
                             CSTACK
    | Stack used (prev) :  00000000
  01  OnRedraw
      | Stack used (prev) :  00000000
      | + function block  :  00000124
  <-Sub-tree of type: Indirectly called function tree that does not make
                    : indirect calls (Is not an interrupt and is not flagged
                    : as not overlayable)
    | Stack used          :  00000124


  ->Sub-tree of type: Indirectly called function tree that does not make
                    : indirect calls (Is not an interrupt and is not flagged
                    : as not overlayable)
                             CSTACK
    | Stack used (prev) :  00000000
  01  OnKeyFM
      | Stack used (prev) :  00000000
      | + function block  :  00000028
  <-Sub-tree of type: Indirectly called function tree that does not make
                    : indirect calls (Is not an interrupt and is not flagged
                    : as not overlayable)
    | Stack used          :  00000028


  ->Sub-tree of type: Indirectly called function tree that does not make
                    : indirect calls (Is not an interrupt and is not flagged
                    : as not overlayable)
                             CSTACK
    | Stack used (prev) :  00000000
  01  OnCreate
      | Stack used (prev) :  00000000
      | + function block  :  00000000
  <-Sub-tree of type: Indirectly called function tree that does not make
                    : indirect calls (Is not an interrupt and is not flagged
                    : as not overlayable)
    | Stack used          :  00000000


  ->Sub-tree of type: Indirectly called function tree that does not make
                    : indirect calls (Is not an interrupt and is not flagged
                    : as not overlayable)
                             CSTACK
    | Stack used (prev) :  00000000
  01  OnClose
      | Stack used (prev) :  00000000
      | + function block  :  00000000
  <-Sub-tree of type: Indirectly called function tree that does not make
                    : indirect calls (Is not an interrupt and is not flagged
                    : as not overlayable)
    | Stack used          :  00000000


  ->Sub-tree of type: Indirectly called function tree that does not make
                    : indirect calls (Is not an interrupt and is not flagged
                    : as not overlayable)
                             CSTACK
    | Stack used (prev) :  00000000
  01  OnFocus
      | Stack used (prev) :  00000000
      | + function block  :  00000008
  <-Sub-tree of type: Indirectly called function tree that does not make
                    : indirect calls (Is not an interrupt and is not flagged
                    : as not overlayable)
    | Stack used          :  00000008


  ->Sub-tree of type: Indirectly called function tree that does not make
                    : indirect calls (Is not an interrupt and is not flagged
                    : as not overlayable)
                             CSTACK
    | Stack used (prev) :  00000000
  01  OnUnfocus
      | Stack used (prev) :  00000000
      | + function block  :  00000000
  <-Sub-tree of type: Indirectly called function tree that does not make
                    : indirect calls (Is not an interrupt and is not flagged
                    : as not overlayable)
    | Stack used          :  00000000


  ->Sub-tree of type: Indirectly called function tree that does not make
                    : indirect calls (Is not an interrupt and is not flagged
                    : as not overlayable)
                             CSTACK
    | Stack used (prev) :  00000000
  01  met0
      | Stack used (prev) :  00000000
      | + function block  :  00000000
  <-Sub-tree of type: Indirectly called function tree that does not make
                    : indirect calls (Is not an interrupt and is not flagged
                    : as not overlayable)
    | Stack used          :  00000000


  ->Sub-tree of type: Indirectly called function tree that does not make
                    : indirect calls (Is not an interrupt and is not flagged
                    : as not overlayable)
                             CSTACK
    | Stack used (prev) :  00000000
  01  ShowFM
      | Stack used (prev) :  00000000
      | + function block  :  00000010
  <-Sub-tree of type: Indirectly called function tree that does not make
                    : indirect calls (Is not an interrupt and is not flagged
                    : as not overlayable)
    | Stack used          :  00000010


  ->Sub-tree of type: Indirectly called function tree that does not make
                    : indirect calls (Is not an interrupt and is not flagged
                    : as not overlayable)
                             CSTACK
    | Stack used (prev) :  00000000
  01  info_onkey
      | Stack used (prev) :  00000000
      | + function block  :  00000000
  <-Sub-tree of type: Indirectly called function tree that does not make
                    : indirect calls (Is not an interrupt and is not flagged
                    : as not overlayable)
    | Stack used          :  00000000


  ->Sub-tree of type: Indirectly called function tree that does not make
                    : indirect calls (Is not an interrupt and is not flagged
                    : as not overlayable)
                             CSTACK
    | Stack used (prev) :  00000000
  01  info_ghook
      | Stack used (prev) :  00000000
      | + function block  :  00000008
  <-Sub-tree of type: Indirectly called function tree that does not make
                    : indirect calls (Is not an interrupt and is not flagged
                    : as not overlayable)
    | Stack used          :  00000008


  ->Sub-tree of type: Indirectly called function tree that does not make
                    : indirect calls (Is not an interrupt and is not flagged
                    : as not overlayable)
                             CSTACK
    | Stack used (prev) :  00000000
  01  KeysProc
      | Stack used (prev) :  00000000
      | + function block  :  00000018
  <-Sub-tree of type: Indirectly called function tree that does not make
                    : indirect calls (Is not an interrupt and is not flagged
                    : as not overlayable)
    | Stack used          :  00000018


  ->Sub-tree of type: Indirectly called function tree that does not make
                    : indirect calls (Is not an interrupt and is not flagged
                    : as not overlayable)
                             CSTACK
    | Stack used (prev) :  00000000
  01  LoadKeys
      | Stack used (prev) :  00000000
      | + function block  :  00000104
  <-Sub-tree of type: Indirectly called function tree that does not make
                    : indirect calls (Is not an interrupt and is not flagged
                    : as not overlayable)
    | Stack used          :  00000104


  ->Sub-tree of type: Indirectly called function tree that does not make
                    : indirect calls (Is not an interrupt and is not flagged
                    : as not overlayable)
                             CSTACK
    | Stack used (prev) :  00000000
  01  LoadPng
      | Stack used (prev) :  00000000
      | + function block  :  00000060
  <-Sub-tree of type: Indirectly called function tree that does not make
                    : indirect calls (Is not an interrupt and is not flagged
                    : as not overlayable)
    | Stack used          :  00000060


  ->Sub-tree of type: Indirectly called function tree that does not make
                    : indirect calls (Is not an interrupt and is not flagged
                    : as not overlayable)
                             CSTACK
    | Stack used (prev) :  00000000
  01  EXT_REDRAW
      | Stack used (prev) :  00000000
      | + function block  :  00000004
  <-Sub-tree of type: Indirectly called function tree that does not make
                    : indirect calls (Is not an interrupt and is not flagged
                    : as not overlayable)
    | Stack used          :  00000004


  ->Sub-tree of type: Indirectly called function tree that does not make
                    : indirect calls (Is not an interrupt and is not flagged
                    : as not overlayable)
                             CSTACK
    | Stack used (prev) :  00000000
  01  CheckDoubleRun
      | Stack used (prev) :  00000000
      | + function block  :  0000000C
  <-Sub-tree of type: Indirectly called function tree that does not make
                    : indirect calls (Is not an interrupt and is not flagged
                    : as not overlayable)
    | Stack used          :  0000000C


  ->Sub-tree of type: Indirectly called function tree that does not make
                    : indirect calls (Is not an interrupt and is not flagged
                    : as not overlayable)
                             CSTACK
    | Stack used (prev) :  00000000
  01  AutoExit
      | Stack used (prev) :  00000000
      | + function block  :  0000000C
  <-Sub-tree of type: Indirectly called function tree that does not make
                    : indirect calls (Is not an interrupt and is not flagged
                    : as not overlayable)
    | Stack used          :  0000000C


  ->Sub-tree of type: Indirectly called function tree that does not make
                    : indirect calls (Is not an interrupt and is not flagged
                    : as not overlayable)
                             CSTACK
    | Stack used (prev) :  00000000
  01  OnRedraw
      | Stack used (prev) :  00000000
      | + function block  :  0000005C
  <-Sub-tree of type: Indirectly called function tree that does not make
                    : indirect calls (Is not an interrupt and is not flagged
                    : as not overlayable)
    | Stack used          :  0000005C


  ->Sub-tree of type: Indirectly called function tree that does not make
                    : indirect calls (Is not an interrupt and is not flagged
                    : as not overlayable)
                             CSTACK
    | Stack used (prev) :  00000000
  01  onCreate
      | Stack used (prev) :  00000000
      | + function block  :  00000000
  <-Sub-tree of type: Indirectly called function tree that does not make
                    : indirect calls (Is not an interrupt and is not flagged
                    : as not overlayable)
    | Stack used          :  00000000


  ->Sub-tree of type: Indirectly called function tree that does not make
                    : indirect calls (Is not an interrupt and is not flagged
                    : as not overlayable)
                             CSTACK
    | Stack used (prev) :  00000000
  01  onClose
      | Stack used (prev) :  00000000
      | + function block  :  00000000
  <-Sub-tree of type: Indirectly called function tree that does not make
                    : indirect calls (Is not an interrupt and is not flagged
                    : as not overlayable)
    | Stack used          :  00000000


  ->Sub-tree of type: Indirectly called function tree that does not make
                    : indirect calls (Is not an interrupt and is not flagged
                    : as not overlayable)
                             CSTACK
    | Stack used (prev) :  00000000
  01  onFocus
      | Stack used (prev) :  00000000
      | + function block  :  00000004
  <-Sub-tree of type: Indirectly called function tree that does not make
                    : indirect calls (Is not an interrupt and is not flagged
                    : as not overlayable)
    | Stack used          :  00000004


  ->Sub-tree of type: Indirectly called function tree that does not make
                    : indirect calls (Is not an interrupt and is not flagged
                    : as not overlayable)
                             CSTACK
    | Stack used (prev) :  00000000
  01  onUnfocus
      | Stack used (prev) :  00000000
      | + function block  :  00000004
  <-Sub-tree of type: Indirectly called function tree that does not make
                    : indirect calls (Is not an interrupt and is not flagged
                    : as not overlayable)
    | Stack used          :  00000004


  ->Sub-tree of type: Indirectly called function tree that does not make
                    : indirect calls (Is not an interrupt and is not flagged
                    : as not overlayable)
                             CSTACK
    | Stack used (prev) :  00000000
  01  QuitCallbackProc
      | Stack used (prev) :  00000000
      | + function block  :  00000000
  <-Sub-tree of type: Indirectly called function tree that does not make
                    : indirect calls (Is not an interrupt and is not flagged
                    : as not overlayable)
    | Stack used          :  00000000


  ->Sub-tree of type: Indirectly called function tree that does not make
                    : indirect calls (Is not an interrupt and is not flagged
                    : as not overlayable)
                             CSTACK
    | Stack used (prev) :  00000000
  01  DoErrKey
      | Stack used (prev) :  00000000
      | + function block  :  00000004
  <-Sub-tree of type: Indirectly called function tree that does not make
                    : indirect calls (Is not an interrupt and is not flagged
                    : as not overlayable)
    | Stack used          :  00000004


  ->Sub-tree of type: Indirectly called function tree that does not make
                    : indirect calls (Is not an interrupt and is not flagged
                    : as not overlayable)
                             CSTACK
    | Stack used (prev) :  00000000
  01  DoExit
      | Stack used (prev) :  00000000
      | + function block  :  00000004
  <-Sub-tree of type: Indirectly called function tree that does not make
                    : indirect calls (Is not an interrupt and is not flagged
                    : as not overlayable)
    | Stack used          :  00000004


  ->Sub-tree of type: Indirectly called function tree that does not make
                    : indirect calls (Is not an interrupt and is not flagged
                    : as not overlayable)
                             CSTACK
    | Stack used (prev) :  00000000
  01  LoadDefPlaylist
      | Stack used (prev) :  00000000
      | + function block  :  00000004
  <-Sub-tree of type: Indirectly called function tree that does not make
                    : indirect calls (Is not an interrupt and is not flagged
                    : as not overlayable)
    | Stack used          :  00000004


  ->Sub-tree of type: Indirectly called function tree that does not make
                    : indirect calls (Is not an interrupt and is not flagged
                    : as not overlayable)
                             CSTACK
    | Stack used (prev) :  00000000
  01  PrevTrackDown
      | Stack used (prev) :  00000000
      | + function block  :  00000004
  <-Sub-tree of type: Indirectly called function tree that does not make
                    : indirect calls (Is not an interrupt and is not flagged
                    : as not overlayable)
    | Stack used          :  00000004


  ->Sub-tree of type: Indirectly called function tree that does not make
                    : indirect calls (Is not an interrupt and is not flagged
                    : as not overlayable)
                             CSTACK
    | Stack used (prev) :  00000000
  01  NextTrackDown
      | Stack used (prev) :  00000000
      | + function block  :  00000004
  <-Sub-tree of type: Indirectly called function tree that does not make
                    : indirect calls (Is not an interrupt and is not flagged
                    : as not overlayable)
    | Stack used          :  00000004


  ->Sub-tree of type: Indirectly called function tree that does not make
                    : indirect calls (Is not an interrupt and is not flagged
                    : as not overlayable)
                             CSTACK
    | Stack used (prev) :  00000000
  01  SwitchPlayModeDown
      | Stack used (prev) :  00000000
      | + function block  :  00000000
  <-Sub-tree of type: Indirectly called function tree that does not make
                    : indirect calls (Is not an interrupt and is not flagged
                    : as not overlayable)
    | Stack used          :  00000000


  ->Sub-tree of type: Indirectly called function tree that does not make
                    : indirect calls (Is not an interrupt and is not flagged
                    : as not overlayable)
                             CSTACK
    | Stack used (prev) :  00000000
  01  SavePL
      | Stack used (prev) :  00000000
      | + function block  :  00000008
  <-Sub-tree of type: Indirectly called function tree that does not make
                    : indirect calls (Is not an interrupt and is not flagged
                    : as not overlayable)
    | Stack used          :  00000008


  ->Sub-tree of type: Indirectly called function tree that does not make
                    : indirect calls (Is not an interrupt and is not flagged
                    : as not overlayable)
                             CSTACK
    | Stack used (prev) :  00000000
  01  StartRewindToBegin
      | Stack used (prev) :  00000000
      | + function block  :  00000004
  <-Sub-tree of type: Indirectly called function tree that does not make
                    : indirect calls (Is not an interrupt and is not flagged
                    : as not overlayable)
    | Stack used          :  00000004


  ->Sub-tree of type: Indirectly called function tree that does not make
                    : indirect calls (Is not an interrupt and is not flagged
                    : as not overlayable)
                             CSTACK
    | Stack used (prev) :  00000000
  01  StartRewindToEnd
      | Stack used (prev) :  00000000
      | + function block  :  00000004
  <-Sub-tree of type: Indirectly called function tree that does not make
                    : indirect calls (Is not an interrupt and is not flagged
                    : as not overlayable)
    | Stack used          :  00000004


  ->Sub-tree of type: Indirectly called function tree that does not make
                    : indirect calls (Is not an interrupt and is not flagged
                    : as not overlayable)
                             CSTACK
    | Stack used (prev) :  00000000
  01  PrevPL
      | Stack used (prev) :  00000000
      | + function block  :  00000004
  <-Sub-tree of type: Indirectly called function tree that does not make
                    : indirect calls (Is not an interrupt and is not flagged
                    : as not overlayable)
    | Stack used          :  00000004


  ->Sub-tree of type: Indirectly called function tree that does not make
                    : indirect calls (Is not an interrupt and is not flagged
                    : as not overlayable)
                             CSTACK
    | Stack used (prev) :  00000000
  01  NextPL
      | Stack used (prev) :  00000000
      | + function block  :  00000004
  <-Sub-tree of type: Indirectly called function tree that does not make
                    : indirect calls (Is not an interrupt and is not flagged
                    : as not overlayable)
    | Stack used          :  00000004


  ->Sub-tree of type: Indirectly called function tree that does not make
                    : indirect calls (Is not an interrupt and is not flagged
                    : as not overlayable)
                             CSTACK
    | Stack used (prev) :  00000000
  01  CTDownSpeed
      | Stack used (prev) :  00000000
      | + function block  :  00000004
  <-Sub-tree of type: Indirectly called function tree that does not make
                    : indirect calls (Is not an interrupt and is not flagged
                    : as not overlayable)
    | Stack used          :  00000004


  ->Sub-tree of type: Indirectly called function tree that does not make
                    : indirect calls (Is not an interrupt and is not flagged
                    : as not overlayable)
                             CSTACK
    | Stack used (prev) :  00000000
  01  CTUpSpeed
      | Stack used (prev) :  00000000
      | + function block  :  00000004
  <-Sub-tree of type: Indirectly called function tree that does not make
                    : indirect calls (Is not an interrupt and is not flagged
                    : as not overlayable)
    | Stack used          :  00000004


  ->Sub-tree of type: Indirectly called function tree that does not make
                    : indirect calls (Is not an interrupt and is not flagged
                    : as not overlayable)
                             CSTACK
    | Stack used (prev) :  00000000
  01  OnKey
      | Stack used (prev) :  00000000
      | + function block  :  0000002C
  <-Sub-tree of type: Indirectly called function tree that does not make
                    : indirect calls (Is not an interrupt and is not flagged
                    : as not overlayable)
    | Stack used          :  0000002C


  ->Sub-tree of type: Indirectly called function tree that does not make
                    : indirect calls (Is not an interrupt and is not flagged
                    : as not overlayable)
                             CSTACK
    | Stack used (prev) :  00000000
  01  my_keyhook
      | Stack used (prev) :  00000000
      | + function block  :  00000020
  <-Sub-tree of type: Indirectly called function tree that does not make
                    : indirect calls (Is not an interrupt and is not flagged
                    : as not overlayable)
    | Stack used          :  00000020


  ->Sub-tree of type: Indirectly called function tree that does not make
                    : indirect calls (Is not an interrupt and is not flagged
                    : as not overlayable)
                             CSTACK
    | Stack used (prev) :  00000000
  01  ElfKiller
      | Stack used (prev) :  00000000
      | + function block  :  00000014
  <-Sub-tree of type: Indirectly called function tree that does not make
                    : indirect calls (Is not an interrupt and is not flagged
                    : as not overlayable)
    | Stack used          :  00000014


  ->Sub-tree of type: Indirectly called function tree that does not make
                    : indirect calls (Is not an interrupt and is not flagged
                    : as not overlayable)
                             CSTACK
    | Stack used (prev) :  00000000
  01  method8
      | Stack used (prev) :  00000000
      | + function block  :  00000000
  <-Sub-tree of type: Indirectly called function tree that does not make
                    : indirect calls (Is not an interrupt and is not flagged
                    : as not overlayable)
    | Stack used          :  00000000


  ->Sub-tree of type: Indirectly called function tree that does not make
                    : indirect calls (Is not an interrupt and is not flagged
                    : as not overlayable)
                             CSTACK
    | Stack used (prev) :  00000000
  01  method9
      | Stack used (prev) :  00000000
      | + function block  :  00000000
  <-Sub-tree of type: Indirectly called function tree that does not make
                    : indirect calls (Is not an interrupt and is not flagged
                    : as not overlayable)
    | Stack used          :  00000000


  ->Sub-tree of type: Indirectly called function tree that does not make
                    : indirect calls (Is not an interrupt and is not flagged
                    : as not overlayable)
                             CSTACK
    | Stack used (prev) :  00000000
  01  maincsm_oncreate
      | Stack used (prev) :  00000000
      | + function block  :  00000010
  <-Sub-tree of type: Indirectly called function tree that does not make
                    : indirect calls (Is not an interrupt and is not flagged
                    : as not overlayable)
    | Stack used          :  00000010


  ->Sub-tree of type: Indirectly called function tree that does not make
                    : indirect calls (Is not an interrupt and is not flagged
                    : as not overlayable)
                             CSTACK
    | Stack used (prev) :  00000000
  01  maincsm_onclose
      | Stack used (prev) :  00000000
      | + function block  :  00000004
  <-Sub-tree of type: Indirectly called function tree that does not make
                    : indirect calls (Is not an interrupt and is not flagged
                    : as not overlayable)
    | Stack used          :  00000004


  ->Sub-tree of type: Indirectly called function tree that does not make
                    : indirect calls (Is not an interrupt and is not flagged
                    : as not overlayable)
                             CSTACK
    | Stack used (prev) :  00000000
  01  obFrameUpd
      | Stack used (prev) :  00000000
      | + function block  :  00000000
  <-Sub-tree of type: Indirectly called function tree that does not make
                    : indirect calls (Is not an interrupt and is not flagged
                    : as not overlayable)
    | Stack used          :  00000000


  ->Sub-tree of type: Indirectly called function tree that does not make
                    : indirect calls (Is not an interrupt and is not flagged
                    : as not overlayable)
                             CSTACK
    | Stack used (prev) :  00000000
  01  obError
      | Stack used (prev) :  00000000
      | + function block  :  00000004
  <-Sub-tree of type: Indirectly called function tree that does not make
                    : indirect calls (Is not an interrupt and is not flagged
                    : as not overlayable)
    | Stack used          :  00000004


  ->Sub-tree of type: Indirectly called function tree that does not make
                    : indirect calls (Is not an interrupt and is not flagged
                    : as not overlayable)
                             CSTACK
    | Stack used (prev) :  00000000
  01  obPrep
      | Stack used (prev) :  00000000
      | + function block  :  0000000C
  <-Sub-tree of type: Indirectly called function tree that does not make
                    : indirect calls (Is not an interrupt and is not flagged
                    : as not overlayable)
    | Stack used          :  0000000C


  ->Sub-tree of type: Indirectly called function tree that does not make
                    : indirect calls (Is not an interrupt and is not flagged
                    : as not overlayable)
                             CSTACK
    | Stack used (prev) :  00000000
  01  obDestroy
      | Stack used (prev) :  00000000
      | + function block  :  00000000
  <-Sub-tree of type: Indirectly called function tree that does not make
                    : indirect calls (Is not an interrupt and is not flagged
                    : as not overlayable)
    | Stack used          :  00000000


  ->Sub-tree of type: Indirectly called function tree that does not make
                    : indirect calls (Is not an interrupt and is not flagged
                    : as not overlayable)
                             CSTACK
    | Stack used (prev) :  00000000
  01  obResumeCon
      | Stack used (prev) :  00000000
      | + function block  :  00000000
  <-Sub-tree of type: Indirectly called function tree that does not make
                    : indirect calls (Is not an interrupt and is not flagged
                    : as not overlayable)
    | Stack used          :  00000000


  ->Sub-tree of type: Indirectly called function tree that does not make
                    : indirect calls (Is not an interrupt and is not flagged
                    : as not overlayable)
                             CSTACK
    | Stack used (prev) :  00000000
  01  obParam
      | Stack used (prev) :  00000000
      | + function block  :  00000000
  <-Sub-tree of type: Indirectly called function tree that does not make
                    : indirect calls (Is not an interrupt and is not flagged
                    : as not overlayable)
    | Stack used          :  00000000


  ->Sub-tree of type: Indirectly called function tree that does not make
                    : indirect calls (Is not an interrupt and is not flagged
                    : as not overlayable)
                             CSTACK
    | Stack used (prev) :  00000000
  01  obSetPause
      | Stack used (prev) :  00000000
      | + function block  :  00000010
  <-Sub-tree of type: Indirectly called function tree that does not make
                    : indirect calls (Is not an interrupt and is not flagged
                    : as not overlayable)
    | Stack used          :  00000010


  ->Sub-tree of type: Indirectly called function tree that does not make
                    : indirect calls (Is not an interrupt and is not flagged
                    : as not overlayable)
                             CSTACK
    | Stack used (prev) :  00000000
  01  obSetStop
      | Stack used (prev) :  00000000
      | + function block  :  00000000
  <-Sub-tree of type: Indirectly called function tree that does not make
                    : indirect calls (Is not an interrupt and is not flagged
                    : as not overlayable)
    | Stack used          :  00000000


  ->Sub-tree of type: Indirectly called function tree that does not make
                    : indirect calls (Is not an interrupt and is not flagged
                    : as not overlayable)
                             CSTACK
    | Stack used (prev) :  00000000
  01  obNext
      | Stack used (prev) :  00000000
      | + function block  :  00000004
  <-Sub-tree of type: Indirectly called function tree that does not make
                    : indirect calls (Is not an interrupt and is not flagged
                    : as not overlayable)
    | Stack used          :  00000004


  ->Sub-tree of type: Indirectly called function tree that does not make
                    : indirect calls (Is not an interrupt and is not flagged
                    : as not overlayable)
                             CSTACK
    | Stack used (prev) :  00000000
  01  obPause
      | Stack used (prev) :  00000000
      | + function block  :  00000000
  <-Sub-tree of type: Indirectly called function tree that does not make
                    : indirect calls (Is not an interrupt and is not flagged
                    : as not overlayable)
    | Stack used          :  00000000


  ->Sub-tree of type: Indirectly called function tree that does not make
                    : indirect calls (Is not an interrupt and is not flagged
                    : as not overlayable)
                             CSTACK
    | Stack used (prev) :  00000000
  01  maincsm_onmessage
      | Stack used (prev) :  00000000
      | + function block  :  0000002C
  <-Sub-tree of type: Indirectly called function tree that does not make
                    : indirect calls (Is not an interrupt and is not flagged
                    : as not overlayable)
    | Stack used          :  0000002C


  ->Sub-tree of type: Indirectly called function tree that does not make
                    : indirect calls (Is not an interrupt and is not flagged
                    : as not overlayable)
                             CSTACK
    | Stack used (prev) :  00000000
  01  inp_locret
      | Stack used (prev) :  00000000
      | + function block  :  00000000
  <-Sub-tree of type: Indirectly called function tree that does not make
                    : indirect calls (Is not an interrupt and is not flagged
                    : as not overlayable)
    | Stack used          :  00000000


  ->Sub-tree of type: Indirectly called function tree that does not make
                    : indirect calls (Is not an interrupt and is not flagged
                    : as not overlayable)
                             CSTACK
    | Stack used (prev) :  00000000
  01  SetNextPlayedOn
      | Stack used (prev) :  00000000
      | + function block  :  00000004
  <-Sub-tree of type: Indirectly called function tree that does not make
                    : indirect calls (Is not an interrupt and is not flagged
                    : as not overlayable)
    | Stack used          :  00000004


  ->Sub-tree of type: Indirectly called function tree that does not make
                    : indirect calls (Is not an interrupt and is not flagged
                    : as not overlayable)
                             CSTACK
    | Stack used (prev) :  00000000
  01  ShowID3
      | Stack used (prev) :  00000000
      | + function block  :  00000010
  <-Sub-tree of type: Indirectly called function tree that does not make
                    : indirect calls (Is not an interrupt and is not flagged
                    : as not overlayable)
    | Stack used          :  00000010


  ->Sub-tree of type: Indirectly called function tree that does not make
                    : indirect calls (Is not an interrupt and is not flagged
                    : as not overlayable)
                             CSTACK
    | Stack used (prev) :  00000000
  01  FM
      | Stack used (prev) :  00000000
      | + function block  :  00000004
  <-Sub-tree of type: Indirectly called function tree that does not make
                    : indirect calls (Is not an interrupt and is not flagged
                    : as not overlayable)
    | Stack used          :  00000004


  ->Sub-tree of type: Indirectly called function tree that does not make
                    : indirect calls (Is not an interrupt and is not flagged
                    : as not overlayable)
                             CSTACK
    | Stack used (prev) :  00000000
  01  Sets_Menu
      | Stack used (prev) :  00000000
      | + function block  :  00000004
  <-Sub-tree of type: Indirectly called function tree that does not make
                    : indirect calls (Is not an interrupt and is not flagged
                    : as not overlayable)
    | Stack used          :  00000004


  ->Sub-tree of type: Indirectly called function tree that does not make
                    : indirect calls (Is not an interrupt and is not flagged
                    : as not overlayable)
                             CSTACK
    | Stack used (prev) :  00000000
  01  Settings
      | Stack used (prev) :  00000000
      | + function block  :  00000008
  <-Sub-tree of type: Indirectly called function tree that does not make
                    : indirect calls (Is not an interrupt and is not flagged
                    : as not overlayable)
    | Stack used          :  00000008


  ->Sub-tree of type: Indirectly called function tree that does not make
                    : indirect calls (Is not an interrupt and is not flagged
                    : as not overlayable)
                             CSTACK
    | Stack used (prev) :  00000000
  01  AboutDlg
      | Stack used (prev) :  00000000
      | + function block  :  00000084
  <-Sub-tree of type: Indirectly called function tree that does not make
                    : indirect calls (Is not an interrupt and is not flagged
                    : as not overlayable)
    | Stack used          :  00000084


  ->Sub-tree of type: Indirectly called function tree that does not make
                    : indirect calls (Is not an interrupt and is not flagged
                    : as not overlayable)
                             CSTACK
    | Stack used (prev) :  00000000
  01  Exit_SPlayer
      | Stack used (prev) :  00000000
      | + function block  :  00000004
  <-Sub-tree of type: Indirectly called function tree that does not make
                    : indirect calls (Is not an interrupt and is not flagged
                    : as not overlayable)
    | Stack used          :  00000004


  ->Sub-tree of type: Indirectly called function tree that does not make
                    : indirect calls (Is not an interrupt and is not flagged
                    : as not overlayable)
                             CSTACK
    | Stack used (prev) :  00000000
  01  menuitemhandler
      | Stack used (prev) :  00000000
      | + function block  :  00000018
  <-Sub-tree of type: Indirectly called function tree that does not make
                    : indirect calls (Is not an interrupt and is not flagged
                    : as not overlayable)
    | Stack used          :  00000018


  ->Sub-tree of type: Indirectly called function tree that does not make
                    : indirect calls (Is not an interrupt and is not flagged
                    : as not overlayable)
                             CSTACK
    | Stack used (prev) :  00000000
  01  mmenu_ghook
      | Stack used (prev) :  00000000
      | + function block  :  00000004
  <-Sub-tree of type: Indirectly called function tree that does not make
                    : indirect calls (Is not an interrupt and is not flagged
                    : as not overlayable)
    | Stack used          :  00000004


  ->Sub-tree of type: Indirectly called function tree that does not make
                    : indirect calls (Is not an interrupt and is not flagged
                    : as not overlayable)
                             CSTACK
    | Stack used (prev) :  00000000
  01  mmenu_keyhook
      | Stack used (prev) :  00000000
      | + function block  :  00000004
  <-Sub-tree of type: Indirectly called function tree that does not make
                    : indirect calls (Is not an interrupt and is not flagged
                    : as not overlayable)
    | Stack used          :  00000004


  ->Sub-tree of type: Indirectly called function tree that does not make
                    : indirect calls (Is not an interrupt and is not flagged
                    : as not overlayable)
                             CSTACK
    | Stack used (prev) :  00000000
  01  MM_Show
      | Stack used (prev) :  00000000
      | + function block  :  0000001C
  <-Sub-tree of type: Indirectly called function tree that does not make
                    : indirect calls (Is not an interrupt and is not flagged
                    : as not overlayable)
    | Stack used          :  0000001C


  ->Sub-tree of type: Indirectly called function tree that does not make
                    : indirect calls (Is not an interrupt and is not flagged
                    : as not overlayable)
                             CSTACK
    | Stack used (prev) :  00000000
  01  scroll_timer_proc
      | Stack used (prev) :  00000000
      | + function block  :  00000018
  <-Sub-tree of type: Indirectly called function tree that does not make
                    : indirect calls (Is not an interrupt and is not flagged
                    : as not overlayable)
    | Stack used          :  00000018


  ->Sub-tree of type: Indirectly called function tree that does not make
                    : indirect calls (Is not an interrupt and is not flagged
                    : as not overlayable)
                             CSTACK
    | Stack used (prev) :  00000000
  01  VolumeUp
      | Stack used (prev) :  00000000
      | + function block  :  00000004
  <-Sub-tree of type: Indirectly called function tree that does not make
                    : indirect calls (Is not an interrupt and is not flagged
                    : as not overlayable)
    | Stack used          :  00000004


  ->Sub-tree of type: Indirectly called function tree that does not make
                    : indirect calls (Is not an interrupt and is not flagged
                    : as not overlayable)
                             CSTACK
    | Stack used (prev) :  00000000
  01  VolumeDown
      | Stack used (prev) :  00000000
      | + function block  :  00000004
  <-Sub-tree of type: Indirectly called function tree that does not make
                    : indirect calls (Is not an interrupt and is not flagged
                    : as not overlayable)
    | Stack used          :  00000004


  ->Sub-tree of type: Indirectly called function tree that does not make
                    : indirect calls (Is not an interrupt and is not flagged
                    : as not overlayable)
                             CSTACK
    | Stack used (prev) :  00000000
  01  ToggleVolume
      | Stack used (prev) :  00000000
      | + function block  :  00000004
  <-Sub-tree of type: Indirectly called function tree that does not make
                    : indirect calls (Is not an interrupt and is not flagged
                    : as not overlayable)
    | Stack used          :  00000004


  ->Sub-tree of type: Indirectly called function tree that does not make
                    : indirect calls (Is not an interrupt and is not flagged
                    : as not overlayable)
                             CSTACK
    | Stack used (prev) :  00000000
  01  DoRewinded
      | Stack used (prev) :  00000000
      | + function block  :  00000004
  <-Sub-tree of type: Indirectly called function tree that does not make
                    : indirect calls (Is not an interrupt and is not flagged
                    : as not overlayable)
    | Stack used          :  00000004


  ->Sub-tree of type: Indirectly called function tree that does not make
                    : indirect calls (Is not an interrupt and is not flagged
                    : as not overlayable)
                             CSTACK
    | Stack used (prev) :  00000000
  01  TogglePlayback
      | Stack used (prev) :  00000000
      | + function block  :  00000014
  <-Sub-tree of type: Indirectly called function tree that does not make
                    : indirect calls (Is not an interrupt and is not flagged
                    : as not overlayable)
    | Stack used          :  00000014


  ->Sub-tree of type: Indirectly called function tree that does not make
                    : indirect calls (Is not an interrupt and is not flagged
                    : as not overlayable)
                             CSTACK
    | Stack used (prev) :  00000000
  01  StopAllPlayback
      | Stack used (prev) :  00000000
      | + function block  :  00000008
  <-Sub-tree of type: Indirectly called function tree that does not make
                    : indirect calls (Is not an interrupt and is not flagged
                    : as not overlayable)
    | Stack used          :  00000008


  ->Sub-tree of type: Indirectly called function tree that does not make
                    : indirect calls (Is not an interrupt and is not flagged
                    : as not overlayable)
                             CSTACK
    | Stack used (prev) :  00000000
  01  SetNextPlayed
      | Stack used (prev) :  00000000
      | + function block  :  00000000
  <-Sub-tree of type: Indirectly called function tree that does not make
                    : indirect calls (Is not an interrupt and is not flagged
                    : as not overlayable)
    | Stack used          :  00000000


  ->Sub-tree of type: Indirectly called function tree that does not make
                    : indirect calls (Is not an interrupt and is not flagged
                    : as not overlayable)
                             CSTACK
    | Stack used (prev) :  00000000
  01  OpenAnim
      | Stack used (prev) :  00000000
      | + function block  :  00000004
  <-Sub-tree of type: Indirectly called function tree that does not make
                    : indirect calls (Is not an interrupt and is not flagged
                    : as not overlayable)
    | Stack used          :  00000004


  ->Sub-tree of type: Indirectly called function tree that does not make
                    : indirect calls (Is not an interrupt and is not flagged
                    : as not overlayable)
                             CSTACK
    | Stack used (prev) :  00000000
  01  PL_mp
      | Stack used (prev) :  00000000
      | + function block  :  00000014
  <-Sub-tree of type: Indirectly called function tree that does not make
                    : indirect calls (Is not an interrupt and is not flagged
                    : as not overlayable)
    | Stack used          :  00000014


  ->Sub-tree of type: Indirectly called function tree that does not make
                    : indirect calls (Is not an interrupt and is not flagged
                    : as not overlayable)
                             CSTACK
    | Stack used (prev) :  00000000
  01  PL
      | Stack used (prev) :  00000000
      | + function block  :  00000004
  <-Sub-tree of type: Indirectly called function tree that does not make
                    : indirect calls (Is not an interrupt and is not flagged
                    : as not overlayable)
    | Stack used          :  00000004


  ->Sub-tree of type: Indirectly called function tree that does not make
                    : indirect calls (Is not an interrupt and is not flagged
                    : as not overlayable)
                             CSTACK
    | Stack used (prev) :  00000000
  01  CTDown
      | Stack used (prev) :  00000000
      | + function block  :  00000008
  <-Sub-tree of type: Indirectly called function tree that does not make
                    : indirect calls (Is not an interrupt and is not flagged
                    : as not overlayable)
    | Stack used          :  00000008


  ->Sub-tree of type: Indirectly called function tree that does not make
                    : indirect calls (Is not an interrupt and is not flagged
                    : as not overlayable)
                             CSTACK
    | Stack used (prev) :  00000000
  01  CTUp
      | Stack used (prev) :  00000000
      | + function block  :  00000004
  <-Sub-tree of type: Indirectly called function tree that does not make
                    : indirect calls (Is not an interrupt and is not flagged
                    : as not overlayable)
    | Stack used          :  00000004


  ->Sub-tree of type: Indirectly called function tree that does not make
                    : indirect calls (Is not an interrupt and is not flagged
                    : as not overlayable)
                             CSTACK
    | Stack used (prev) :  00000000
  01  CTSpeed
      | Stack used (prev) :  00000000
      | + function block  :  0000000C
  <-Sub-tree of type: Indirectly called function tree that does not make
                    : indirect calls (Is not an interrupt and is not flagged
                    : as not overlayable)
    | Stack used          :  0000000C


  ->Sub-tree of type: Indirectly called function tree that does not make
                    : indirect calls (Is not an interrupt and is not flagged
                    : as not overlayable)
                             CSTACK
    | Stack used (prev) :  00000000
  01  CTDownSix
      | Stack used (prev) :  00000000
      | + function block  :  00000004
  <-Sub-tree of type: Indirectly called function tree that does not make
                    : indirect calls (Is not an interrupt and is not flagged
                    : as not overlayable)
    | Stack used          :  00000004


  ->Sub-tree of type: Indirectly called function tree that does not make
                    : indirect calls (Is not an interrupt and is not flagged
                    : as not overlayable)
                             CSTACK
    | Stack used (prev) :  00000000
  01  CTUpSix
      | Stack used (prev) :  00000000
      | + function block  :  00000004
  <-Sub-tree of type: Indirectly called function tree that does not make
                    : indirect calls (Is not an interrupt and is not flagged
                    : as not overlayable)
    | Stack used          :  00000004


  ->Sub-tree of type: Indirectly called function tree that does not make
                    : indirect calls (Is not an interrupt and is not flagged
                    : as not overlayable)
                             CSTACK
    | Stack used (prev) :  00000000
  01  PlayTrackUnderC
      | Stack used (prev) :  00000000
      | + function block  :  0000010C
  <-Sub-tree of type: Indirectly called function tree that does not make
                    : indirect calls (Is not an interrupt and is not flagged
                    : as not overlayable)
    | Stack used          :  0000010C


  ->Sub-tree of type: Indirectly called function tree that does not make
                    : indirect calls (Is not an interrupt and is not flagged
                    : as not overlayable)
                             CSTACK
    | Stack used (prev) :  00000000
  01  CleanPlaylist
      | Stack used (prev) :  00000000
      | + function block  :  0000000C
  <-Sub-tree of type: Indirectly called function tree that does not make
                    : indirect calls (Is not an interrupt and is not flagged
                    : as not overlayable)
    | Stack used          :  0000000C


  ->Sub-tree of type: Indirectly called function tree that does not make
                    : indirect calls (Is not an interrupt and is not flagged
                    : as not overlayable)
                             CSTACK
    | Stack used (prev) :  00000000
  01  Set_Edit_PL
      | Stack used (prev) :  00000000
      | + function block  :  00000004
  <-Sub-tree of type: Indirectly called function tree that does not make
                    : indirect calls (Is not an interrupt and is not flagged
                    : as not overlayable)
    | Stack used          :  00000004


  ->Sub-tree of type: Indirectly called function tree that does not make
                    : indirect calls (Is not an interrupt and is not flagged
                    : as not overlayable)
                             CSTACK
    | Stack used (prev) :  00000000
  01  Coordinates
      | Stack used (prev) :  00000000
      | + function block  :  0000000C
  <-Sub-tree of type: Indirectly called function tree that does not make
                    : indirect calls (Is not an interrupt and is not flagged
                    : as not overlayable)
    | Stack used          :  0000000C


  ->Sub-tree of type: Indirectly called function tree that does not make
                    : indirect calls (Is not an interrupt and is not flagged
                    : as not overlayable)
                             CSTACK
    | Stack used (prev) :  00000000
  01  Colours
      | Stack used (prev) :  00000000
      | + function block  :  0000000C
  <-Sub-tree of type: Indirectly called function tree that does not make
                    : indirect calls (Is not an interrupt and is not flagged
                    : as not overlayable)
    | Stack used          :  0000000C


  ->Sub-tree of type: Indirectly called function tree that does not make
                    : indirect calls (Is not an interrupt and is not flagged
                    : as not overlayable)
                             CSTACK
    | Stack used (prev) :  00000000
  01  Refresh1
      | Stack used (prev) :  00000000
      | + function block  :  00000004
  <-Sub-tree of type: Indirectly called function tree that does not make
                    : indirect calls (Is not an interrupt and is not flagged
                    : as not overlayable)
    | Stack used          :  00000004


  ->Sub-tree of type: Indirectly called function tree that does not make
                    : indirect calls (Is not an interrupt and is not flagged
                    : as not overlayable)
                             CSTACK
    | Stack used (prev) :  00000000
  01  sets_menuitemhandler
      | Stack used (prev) :  00000000
      | + function block  :  00000018
  <-Sub-tree of type: Indirectly called function tree that does not make
                    : indirect calls (Is not an interrupt and is not flagged
                    : as not overlayable)
    | Stack used          :  00000018


  ->Sub-tree of type: Indirectly called function tree that does not make
                    : indirect calls (Is not an interrupt and is not flagged
                    : as not overlayable)
                             CSTACK
    | Stack used (prev) :  00000000
  01  sets_menu_ghook
      | Stack used (prev) :  00000000
      | + function block  :  00000004
  <-Sub-tree of type: Indirectly called function tree that does not make
                    : indirect calls (Is not an interrupt and is not flagged
                    : as not overlayable)
    | Stack used          :  00000004


  ->Sub-tree of type: Indirectly called function tree that does not make
                    : indirect calls (Is not an interrupt and is not flagged
                    : as not overlayable)
                             CSTACK
    | Stack used (prev) :  00000000
  01  sets_menu_keyhook
      | Stack used (prev) :  00000000
      | + function block  :  00000004
  <-Sub-tree of type: Indirectly called function tree that does not make
                    : indirect calls (Is not an interrupt and is not flagged
                    : as not overlayable)
    | Stack used          :  00000004


  ->Sub-tree of type: Function tree
                             CSTACK
    | Stack used (prev) :  00000124
  01  PastFile
      | Stack used (prev) :  00000124
      | + function block  :  00000014
  <-Sub-tree of type: Function tree
    | Stack used          :  00000138


  ->Sub-tree of type: Function tree
                             CSTACK
    | Stack used (prev) :  00000138
  01  DeleteFiles
      | Stack used (prev) :  00000138
      | + function block  :  00000014
  <-Sub-tree of type: Function tree
    | Stack used          :  0000014C


  ->Sub-tree of type: Function tree
                             CSTACK
    | Stack used (prev) :  0000014C
  01  IsExt
      | Stack used (prev) :  0000014C
      | + function block  :  00000034
  <-Sub-tree of type: Function tree
    | Stack used          :  00000180


  ->Sub-tree of type: Function tree
                             CSTACK
    | Stack used (prev) :  00000180
  01  LoadDaemonList
      | Stack used (prev) :  00000180
      | + function block  :  00000464
  <-Sub-tree of type: Function tree
    | Stack used          :  000005E4


  ->Sub-tree of type: Function tree
                             CSTACK
    | Stack used (prev) :  000005E4
  01  CopyFName
      | Stack used (prev) :  000005E4
      | + function block  :  0000011C
  <-Sub-tree of type: Function tree
    | Stack used          :  00000700


  ->Sub-tree of type: Function tree
                             CSTACK
    | Stack used (prev) :  00000700
  01  GO
      | Stack used (prev) :  00000700
      | + function block  :  00000094
  <-Sub-tree of type: Function tree
    | Stack used          :  00000794


  ->Sub-tree of type: Function tree
                             CSTACK
    | Stack used (prev) :  00000794
  01  FreeMemFM
      | Stack used (prev) :  00000794
      | + function block  :  00000004
  <-Sub-tree of type: Function tree
    | Stack used          :  00000798


  ->Sub-tree of type: Function tree
                             CSTACK
    | Stack used (prev) :  00000798
  01  ReadID3v1
      | Stack used (prev) :  00000798
      | + function block  :  00000048
  <-Sub-tree of type: Function tree
    | Stack used          :  000007E0


  ->Sub-tree of type: Function tree
                             CSTACK
    | Stack used (prev) :  000007E0
  01  LoadConfigData
      | Stack used (prev) :  000007E0
      | + function block  :  00000030
  <-Sub-tree of type: Function tree
    | Stack used          :  00000810


  ->Sub-tree of type: Function tree
                             CSTACK
    | Stack used (prev) :  00000810
  01  InitConfig
      | Stack used (prev) :  00000810
      | + function block  :  00000004
  <-Sub-tree of type: Function tree
    | Stack used          :  00000814


  ->Sub-tree of type: Function tree
                             CSTACK
    | Stack used (prev) :  00000814
  01  Disp_Info
      | Stack used (prev) :  00000814
      | + function block  :  00000050
  <-Sub-tree of type: Function tree
    | Stack used          :  00000864


  ->Sub-tree of type: Function tree
                             CSTACK
    | Stack used (prev) :  00000864
  01  initItemInfoLangPack
      | Stack used (prev) :  00000864
      | + function block  :  00000000
  <-Sub-tree of type: Function tree
    | Stack used          :  00000864


  ->Sub-tree of type: Function tree
                             CSTACK
    | Stack used (prev) :  00000864
  01  DoKey
      | Stack used (prev) :  00000864
      | + function block  :  00000004
  <-Sub-tree of type: Function tree
    | Stack used          :  00000868


  ->Sub-tree of type: Function tree
                             CSTACK
    | Stack used (prev) :  00000868
  01  strtolower
      | Stack used (prev) :  00000868
      | + function block  :  00000010
  <-Sub-tree of type: Function tree
    | Stack used          :  00000878


  ->Sub-tree of type: Function tree
                             CSTACK
    | Stack used (prev) :  00000878
  01  EnumIni
      | Stack used (prev) :  00000878
      | + function block  :  00000030
  <-Sub-tree of type: Function tree
    | Stack used          :  000008A8


  ->Sub-tree of type: Function tree
                             CSTACK
    | Stack used (prev) :  000008A8
  01  InitLangPack
      | Stack used (prev) :  000008A8
      | + function block  :  00000004
  <-Sub-tree of type: Function tree
    | Stack used          :  000008AC


  ->Sub-tree of type: Function tree
                             CSTACK
    | Stack used (prev) :  000008AC
  01  lgpInitLangPack
      | Stack used (prev) :  000008AC
      | + function block  :  000000CC
  <-Sub-tree of type: Function tree
    | Stack used          :  00000978


  ->Sub-tree of type: Function tree
                             CSTACK
    | Stack used (prev) :  00000978
  01  lgpFreeLangPack
      | Stack used (prev) :  00000978
      | + function block  :  00000008
  <-Sub-tree of type: Function tree
    | Stack used          :  00000980


  ->Sub-tree of type: Function tree
                             CSTACK
    | Stack used (prev) :  00000980
  01  StopTMR
      | Stack used (prev) :  00000980
      | + function block  :  00000008
  <-Sub-tree of type: Function tree
    | Stack used          :  00000988


  ->Sub-tree of type: Function tree
                             CSTACK
    | Stack used (prev) :  00000988
  01  KillObj
      | Stack used (prev) :  00000988
      | + function block  :  00000008
  <-Sub-tree of type: Function tree
    | Stack used          :  00000990


  ->Sub-tree of type: Function tree
                             CSTACK
    | Stack used (prev) :  00000990
  01  PlayMP3File
      | Stack used (prev) :  00000990
      | + function block  :  00000068
  <-Sub-tree of type: Function tree
    | Stack used          :  000009F8


  ->Sub-tree of type: Function tree
                             CSTACK
    | Stack used (prev) :  000009F8
  01  load_skin
      | Stack used (prev) :  000009F8
      | + function block  :  00000050
  <-Sub-tree of type: Function tree
    | Stack used          :  00000A48


  ->Sub-tree of type: Function tree
                             CSTACK
    | Stack used (prev) :  00000A48
  01  save_sets
      | Stack used (prev) :  00000A48
      | + function block  :  0000001C
  <-Sub-tree of type: Function tree
    | Stack used          :  00000A64


  ->Sub-tree of type: Function tree
                             CSTACK
    | Stack used (prev) :  00000A64
  01  SendNULL
      | Stack used (prev) :  00000A64
      | + function block  :  00000004
  <-Sub-tree of type: Function tree
    | Stack used          :  00000A68


  ->Sub-tree of type: Function tree
                             CSTACK
    | Stack used (prev) :  00000A68
  01  ToDevelop
      | Stack used (prev) :  00000A68
      | + function block  :  00000004
  <-Sub-tree of type: Function tree
    | Stack used          :  00000A6C


  ->Sub-tree of type: Function tree
                             CSTACK
    | Stack used (prev) :  00000A6C
  01  Refresh
      | Stack used (prev) :  00000A6C
      | + function block  :  0000010C
  <-Sub-tree of type: Function tree
    | Stack used          :  00000B78


  ->Sub-tree of type: Function tree
                             CSTACK
    | Stack used (prev) :  00000B78
  01  WriteSPerr
      | Stack used (prev) :  00000B78
      | + function block  :  0000000C
  <-Sub-tree of type: Function tree
    | Stack used          :  00000B84


  ->Sub-tree of type: Function tree
                             CSTACK
    | Stack used (prev) :  00000B84
  01  ShowLongTXT
      | Stack used (prev) :  00000B84
      | + function block  :  00000044
  <-Sub-tree of type: Function tree
    | Stack used          :  00000BC8


  ->Sub-tree of type: Function tree
                             CSTACK
    | Stack used (prev) :  00000BC8
  01  UpdateCSMname
      | Stack used (prev) :  00000BC8
      | + function block  :  00000004
  <-Sub-tree of type: Function tree
    | Stack used          :  00000BCC


  ->Sub-tree of type: Function tree
                             CSTACK
    | Stack used (prev) :  00000BCC
  01  main
      | Stack used (prev) :  00000BCC
      | + function block  :  00000078
  <-Sub-tree of type: Function tree
    | Stack used          :  00000C44


  ->Sub-tree of type: Function tree
                             CSTACK
    | Stack used (prev) :  00000C44
  01  patch_header
      | Stack used (prev) :  00000C44
      | + function block  :  00000008
  <-Sub-tree of type: Function tree
    | Stack used          :  00000C4C


  ->Sub-tree of type: Function tree
                             CSTACK
    | Stack used (prev) :  00000C4C
  01  patch_input
      | Stack used (prev) :  00000C4C
      | + function block  :  0000000C
  <-Sub-tree of type: Function tree
    | Stack used          :  00000C58


  ->Sub-tree of type: Function tree
                             CSTACK
    | Stack used (prev) :  00000C58
  01  initMainMenuLangPack
      | Stack used (prev) :  00000C58
      | + function block  :  00000000
  <-Sub-tree of type: Function tree
    | Stack used          :  00000C58


  ->Sub-tree of type: Function tree
                             CSTACK
    | Stack used (prev) :  00000C58
  01  DisableScroll
      | Stack used (prev) :  00000C58
      | + function block  :  00000004
  <-Sub-tree of type: Function tree
    | Stack used          :  00000C5C


  ->Sub-tree of type: Function tree
                             CSTACK
    | Stack used (prev) :  00000C5C
  01  random
      | Stack used (prev) :  00000C5C
      | + function block  :  0000001C
  <-Sub-tree of type: Function tree
    | Stack used          :  00000C78


  ->Sub-tree of type: Function tree
                             CSTACK
    | Stack used (prev) :  00000C78
  01  RandTrack
      | Stack used (prev) :  00000C78
      | + function block  :  00000010
  <-Sub-tree of type: Function tree
    | Stack used          :  00000C88


  ->Sub-tree of type: Function tree
                             CSTACK
    | Stack used (prev) :  00000C88
  01  RepeatTrack
      | Stack used (prev) :  00000C88
      | + function block  :  00000008
  <-Sub-tree of type: Function tree
    | Stack used          :  00000C90


  ->Sub-tree of type: Function tree
                             CSTACK
    | Stack used (prev) :  00000C90
  01  NextTrackX
      | Stack used (prev) :  00000C90
      | + function block  :  0000000C
  <-Sub-tree of type: Function tree
    | Stack used          :  00000C9C


  ->Sub-tree of type: Function tree
                             CSTACK
    | Stack used (prev) :  00000C9C
  01  NextTrack
      | Stack used (prev) :  00000C9C
      | + function block  :  0000000C
  <-Sub-tree of type: Function tree
    | Stack used          :  00000CA8


  ->Sub-tree of type: Function tree
                             CSTACK
    | Stack used (prev) :  00000CA8
  01  PreviousTrack
      | Stack used (prev) :  00000CA8
      | + function block  :  00000008
  <-Sub-tree of type: Function tree
    | Stack used          :  00000CB0


  ->Sub-tree of type: Function tree
                             CSTACK
    | Stack used (prev) :  00000CB0
  01  StopRewind
      | Stack used (prev) :  00000CB0
      | + function block  :  00000010
  <-Sub-tree of type: Function tree
    | Stack used          :  00000CC0


  ->Sub-tree of type: Function tree
                             CSTACK
    | Stack used (prev) :  00000CC0
  01  StartRewind
      | Stack used (prev) :  00000CC0
      | + function block  :  00000004
  <-Sub-tree of type: Function tree
    | Stack used          :  00000CC4


  ->Sub-tree of type: Function tree
                             CSTACK
    | Stack used (prev) :  00000CC4
  01  PlaySetTrack
      | Stack used (prev) :  00000CC4
      | + function block  :  00000000
  <-Sub-tree of type: Function tree
    | Stack used          :  00000CC4


  ->Sub-tree of type: Function tree
                             CSTACK
    | Stack used (prev) :  00000CC4
  01  Disable_OpenAnim
      | Stack used (prev) :  00000CC4
      | + function block  :  00000008
  <-Sub-tree of type: Function tree
    | Stack used          :  00000CCC


  ->Sub-tree of type: Function tree
                             CSTACK
    | Stack used (prev) :  00000CCC
  01  Disable_PL_mp
      | Stack used (prev) :  00000CCC
      | + function block  :  00000004
  <-Sub-tree of type: Function tree
    | Stack used          :  00000CD0


  ->Sub-tree of type: Function tree
                             CSTACK
    | Stack used (prev) :  00000CD0
  01  MovePL
      | Stack used (prev) :  00000CD0
      | + function block  :  00000004
  <-Sub-tree of type: Function tree
    | Stack used          :  00000CD4


  ->Sub-tree of type: Function tree
                             CSTACK
    | Stack used (prev) :  00000CD4
  01  CTtoFirst
      | Stack used (prev) :  00000CD4
      | + function block  :  00000000
  <-Sub-tree of type: Function tree
    | Stack used          :  00000CD4


  ->Sub-tree of type: Function tree
                             CSTACK
    | Stack used (prev) :  00000CD4
  01  PTtoFirst
      | Stack used (prev) :  00000CD4
      | + function block  :  00000000
  <-Sub-tree of type: Function tree
    | Stack used          :  00000CD4


  ->Sub-tree of type: Function tree
                             CSTACK
    | Stack used (prev) :  00000CD4
  01  Disable_PL
      | Stack used (prev) :  00000CD4
      | + function block  :  00000008
  <-Sub-tree of type: Function tree
    | Stack used          :  00000CDC


  ->Sub-tree of type: Function tree
                             CSTACK
    | Stack used (prev) :  00000CDC
  01  Disable_CTSpeed
      | Stack used (prev) :  00000CDC
      | + function block  :  00000004
  <-Sub-tree of type: Function tree
    | Stack used          :  00000CE0


  ->Sub-tree of type: Function tree
                             CSTACK
    | Stack used (prev) :  00000CE0
  01  GetPlayingStatus
      | Stack used (prev) :  00000CE0
      | + function block  :  00000000
  <-Sub-tree of type: Function tree
    | Stack used          :  00000CE0


  ->Sub-tree of type: Function tree
                             CSTACK
    | Stack used (prev) :  00000CE0
  01  GetVolLevel
      | Stack used (prev) :  00000CE0
      | + function block  :  00000000
  <-Sub-tree of type: Function tree
    | Stack used          :  00000CE0


  ->Sub-tree of type: Function tree
                             CSTACK
    | Stack used (prev) :  00000CE0
  01  SetPlayingStatus
      | Stack used (prev) :  00000CE0
      | + function block  :  00000000
  <-Sub-tree of type: Function tree
    | Stack used          :  00000CE0


  ->Sub-tree of type: Function tree
                             CSTACK
    | Stack used (prev) :  00000CE0
  01  FreePlaylist
      | Stack used (prev) :  00000CE0
      | + function block  :  0000000C
  <-Sub-tree of type: Function tree
    | Stack used          :  00000CEC


  ->Sub-tree of type: Function tree
                             CSTACK
    | Stack used (prev) :  00000CEC
  01  SavePlaylist
      | Stack used (prev) :  00000CEC
      | + function block  :  00000154
  <-Sub-tree of type: Function tree
    | Stack used          :  00000E40


  ->Sub-tree of type: Function tree
                             CSTACK
    | Stack used (prev) :  00000E40
  01  PastLine
      | Stack used (prev) :  00000E40
      | + function block  :  00000014
  <-Sub-tree of type: Function tree
    | Stack used          :  00000E54


  ->Sub-tree of type: Function tree
                             CSTACK
    | Stack used (prev) :  00000E54
  01  CopyLine
      | Stack used (prev) :  00000E54
      | + function block  :  0000001C
  <-Sub-tree of type: Function tree
    | Stack used          :  00000E70


  ->Sub-tree of type: Function tree
                             CSTACK
    | Stack used (prev) :  00000E70
  01  DeleteLine
      | Stack used (prev) :  00000E70
      | + function block  :  00000018
  <-Sub-tree of type: Function tree
    | Stack used          :  00000E88


  ->Sub-tree of type: Function tree
                             CSTACK
    | Stack used (prev) :  00000E88
  01  MoveLineUp
      | Stack used (prev) :  00000E88
      | + function block  :  0000001C
  <-Sub-tree of type: Function tree
    | Stack used          :  00000EA4


  ->Sub-tree of type: Function tree
                             CSTACK
    | Stack used (prev) :  00000EA4
  01  MoveLineDown
      | Stack used (prev) :  00000EA4
      | + function block  :  00000020
  <-Sub-tree of type: Function tree
    | Stack used          :  00000EC4


  ->Sub-tree of type: Function tree
                             CSTACK
    | Stack used (prev) :  00000EC4
  01  MoveLineRight
      | Stack used (prev) :  00000EC4
      | + function block  :  00000008
  <-Sub-tree of type: Function tree
    | Stack used          :  00000ECC


  ->Sub-tree of type: Function tree
                             CSTACK
    | Stack used (prev) :  00000ECC
  01  MoveLineLeft
      | Stack used (prev) :  00000ECC
      | + function block  :  00000008
  <-Sub-tree of type: Function tree
    | Stack used          :  00000ED4


  ->Sub-tree of type: Function tree
                             CSTACK
    | Stack used (prev) :  00000ED4
  01  FullpathToFilename
      | Stack used (prev) :  00000ED4
      | + function block  :  00000014
  <-Sub-tree of type: Function tree
    | Stack used          :  00000EE8


  ->Sub-tree of type: Function tree
                             CSTACK
    | Stack used (prev) :  00000EE8
  01  FullpathToFile
      | Stack used (prev) :  00000EE8
      | + function block  :  00000018
  <-Sub-tree of type: Function tree
    | Stack used          :  00000F00


  ->Sub-tree of type: Function tree
                             CSTACK
    | Stack used (prev) :  00000F00
  01  fix
      | Stack used (prev) :  00000F00
      | + function block  :  00000010
  <-Sub-tree of type: Function tree
    | Stack used          :  00000F10


  ->Sub-tree of type: Function tree
                             CSTACK
    | Stack used (prev) :  00000F10
  01  GetCurrentTrack
      | Stack used (prev) :  00000F10
      | + function block  :  00000000
  <-Sub-tree of type: Function tree
    | Stack used          :  00000F10


  ->Sub-tree of type: Function tree
                             CSTACK
    | Stack used (prev) :  00000F10
  01  GetPlayedTrack
      | Stack used (prev) :  00000F10
      | + function block  :  00000000
  <-Sub-tree of type: Function tree
    | Stack used          :  00000F10


  ->Sub-tree of type: Function tree
                             CSTACK
    | Stack used (prev) :  00000F10
  01  PL_Redraw
      | Stack used (prev) :  00000F10
      | + function block  :  000001A0
  <-Sub-tree of type: Function tree
    | Stack used          :  000010B0


  ->Sub-tree of type: Function tree
                             CSTACK
    | Stack used (prev) :  000010B0
  01  BandRoll
      | Stack used (prev) :  000010B0
      | + function block  :  00000040
  <-Sub-tree of type: Function tree
    | Stack used          :  000010F0


  ->Sub-tree of type: Function tree
                             CSTACK
    | Stack used (prev) :  000010F0
  01  LoadPlaylist
      | Stack used (prev) :  000010F0
      | + function block  :  00000050
  <-Sub-tree of type: Function tree
    | Stack used          :  00001140


  ->Sub-tree of type: Function tree
                             CSTACK
    | Stack used (prev) :  00001140
  01  LoadingPlaylist
      | Stack used (prev) :  00001140
      | + function block  :  00000010
  <-Sub-tree of type: Function tree
    | Stack used          :  00001150


  ->Sub-tree of type: Function tree
                             CSTACK
    | Stack used (prev) :  00001150
  01  LoadPlaylists
      | Stack used (prev) :  00001150
      | + function block  :  00000458
  <-Sub-tree of type: Function tree
    | Stack used          :  000015A8


  ->Sub-tree of type: Function tree
                             CSTACK
    | Stack used (prev) :  000015A8
  01  Disable_An
      | Stack used (prev) :  000015A8
      | + function block  :  00000018
  <-Sub-tree of type: Function tree
    | Stack used          :  000015C0


  ->Sub-tree of type: Function tree
                             CSTACK
    | Stack used (prev) :  000015C0
  01  MemoryFree
      | Stack used (prev) :  000015C0
      | + function block  :  00000004
  <-Sub-tree of type: Function tree
    | Stack used          :  000015C4


  ->Sub-tree of type: Function tree
                             CSTACK
    | Stack used (prev) :  000015C4
  01  CrPopup
      | Stack used (prev) :  000015C4
      | + function block  :  00000044
  <-Sub-tree of type: Function tree
    | Stack used          :  00001608


  ->Sub-tree of type: Function tree
                             CSTACK
    | Stack used (prev) :  00001608
  01  Disp_Sets_Menu
      | Stack used (prev) :  00001608
      | + function block  :  0000001C
  <-Sub-tree of type: Function tree
    | Stack used          :  00001624


  ->Sub-tree of type: Function tree
                             CSTACK
    | Stack used (prev) :  00001624
  01  initSetsMenuLangPack
      | Stack used (prev) :  00001624
      | + function block  :  00000000
  <-Sub-tree of type: Function tree
    | Stack used          :  00001624




                ****************************************
                *                                      *
                *      SEGMENTS IN ADDRESS ORDER       *
                *                                      *
                ****************************************


SEGMENT              SPACE    START ADDRESS   END ADDRESS     SIZE  TYPE  ALIGN
=======              =====    =============   ===========     ====  ====  =====
ELFBEGIN             CODE_AREA           00000000                     rel    0
DATA_ID              CODE_AREA      00000000 - 00000236         237   rel    2
START                CODE_AREA           00000237                     dse    0
CODE                 CODE_AREA      00000238 - 0000801B        7DE4   rel    2
DATA_C               CODE_AREA      0000801C - 00009573        1558   rel    2
INITTAB              CODE_AREA      00009574 - 0000958B          18   rel    2
DATA_Z               CODE_AREA      0000958C - 0000D24D        3CC2   rel    2
DATA_N               CODE_AREA           0000D24E                     dse    0
CONFIG_C             CODE_AREA      0000D250 - 0000DED7         C88   rel    2
DATA_I               DATA_AREA      00000000 - 00000236         237   rel    2

                ****************************************
                *                                      *
                *        END OF CROSS REFERENCE        *
                *                                      *
                ****************************************

 57 045 bytes of CODE memory
    567 bytes of DATA memory

Errors: none
Warnings: none

