################################################################################
#                                                                              #
#      IAR Universal Linker V4.60I/386                                         #
#                                                                              #
#           Link time     =  04/Apr/2011  01:21:39                             #
#           Target CPU    =  ARM                                               #
#           List file     =  C:\arm\nrss2\Release_ELKA\List\NRSS.map           #
#           Output file 1 =  C:\arm\nrss2\Release_ELKA\Exe\NRSS.elf            #
#                            Format: elf, variant: -ynpra                      #
#           Command line  =  C:\arm\nrss2\Release_ELKA\Obj\func.r79            #
#                            C:\arm\nrss2\Release_ELKA\Obj\items_menu.r79      #
#                            C:\arm\nrss2\Release_ELKA\Obj\main.r79            #
#                            C:\arm\nrss2\Release_ELKA\Obj\strings.r79         #
#                            C:\arm\nrss2\Release_ELKA\Obj\view_item.r79 -o    #
#                            C:\arm\nrss2\Release_ELKA\Exe\NRSS.elf -Felf -l   #
#                            C:\arm\nrss2\Release_ELKA\List\NRSS.map -xms      #
#                            "-IC:\arm2\Embedded Workbench 4.0 Evaluation\ARM\ #
#                            LIB\"                                             #
#                            -f C:\arm\nrss2\test.xcl (-carm                   #
#                            -V(CODE)CODE_AREA,12 -V(DATA)DATA_AREA,12         #
#                            -Z(CODE_AREA)ELFBEGIN,DATA_ID,START,CODE,DATA_C,I #
#                            NITTAB,DATA_Z,DATA_N,CONFIG_C=0-FFFFFFFF          #
#                            -Z(DATA_AREA)DATA_I=0-FFFFFFFF) -ynpra            #
#                            "C:\arm2\Embedded Workbench 4.0 Evaluation\ARM\LI #
#                            B\dl5tpainl8n.r79"                                #
#                            -s main                                           #
#                                                                              #
#                        Copyright 1987-2007 IAR Systems. All rights reserved. #
################################################################################





                ****************************************
                *                                      *
                *           CROSS REFERENCE            *
                *                                      *
                ****************************************

       Program entry at : CODE_AREA 00000C94  Relocatable, from module : main




                ****************************************
                *                                      *
                *            RUNTIME MODEL             *
                *                                      *
                ****************************************

  StackAlign4  = USED
  __cpu_mode   = __pcs__interwork
  __data_model = absolute
  __endian     = little
  __rt_version = 6



                ****************************************
                *                                      *
                *              MODULE MAP              *
                *                                      *
                ****************************************


  DEFINED ABSOLUTE ENTRIES
    *************************************************************************

  DEFINED ABSOLUTE ENTRIES
    *************************************************************************

  FILE NAME : C:\arm\nrss2\Release_ELKA\Obj\func.r79
  PROGRAM MODULE, NAME : func

  SEGMENTS IN THE MODULE
  ======================
ELFBEGIN
  Relative segment, address: CODE_AREA 00000000, align: 0
  Segment part 0. ROOT.
           ENTRY                   ADDRESS         REF BY
           =====                   =======         ======
           ELF_BEGIN               00000000 
    -------------------------------------------------------------------------
CODE
  Relative segment, address: CODE_AREA 000001A0 - 000001A7 (0x8 bytes), align: 2
  Segment part 1. ROOT.
           ENTRY                   ADDRESS         REF BY
           =====                   =======         ======
           kill_data               000001A0        ElfKiller (main)
                                                   gui_methods (main)
           seqkill                 000001A4 

    *************************************************************************

  FILE NAME : C:\arm\nrss2\Release_ELKA\Obj\items_menu.r79
    *************************************************************************

  FILE NAME : C:\arm\nrss2\Release_ELKA\Obj\main.r79
  PROGRAM MODULE, NAME : main

  SEGMENTS IN THE MODULE
  ======================
DATA_Z
  Relative segment, address: CODE_AREA 00000E6C - 00000E7B (0x10 bytes), align: 2
  Segment part 18.            Intra module refs:   maincsm_onclose
           ENTRY                   ADDRESS         REF BY
           =====                   =======         ======
           mytmr                   00000E6C 
    -------------------------------------------------------------------------
DATA_C
  Relative segment, address: CODE_AREA 00000CD4 - 00000D1B (0x48 bytes), align: 2
  Segment part 2.             Intra module refs:   OnRedraw
           ENTRY                   ADDRESS         REF BY
           =====                   =======         ======
           _percent_t              00000CD4 
    -------------------------------------------------------------------------
DATA_C
  Relative segment, address: CODE_AREA 00000D1C - 00000D3B (0x20 bytes), align: 2
  Segment part 8.             Intra module refs:   send_req
    -------------------------------------------------------------------------
DATA_C
  Relative segment, address: CODE_AREA 00000D3C - 00000D43 (0x8 bytes), align: 2
  Segment part 9.             Intra module refs:   get_answer
    -------------------------------------------------------------------------
DATA_C
  Relative segment, address: CODE_AREA 00000D44 - 00000DAB (0x68 bytes), align: 2
  Segment part 10.            Intra module refs:   create_connect
    -------------------------------------------------------------------------
DATA_C
  Relative segment, address: CODE_AREA 00000DAC - 00000DD7 (0x2c bytes), align: 2
  Segment part 13.            Intra module refs:   maincsm_onmessage
    -------------------------------------------------------------------------
DATA_Z
  Relative segment, address: CODE_AREA 00000E7C - 00000E7F (0x4 bytes), align: 2
  Segment part 20.            Intra module refs:   Segment part 71
           ENTRY                   ADDRESS         REF BY
           =====                   =======         ======
           maingui_id              00000E7C 
    -------------------------------------------------------------------------
CODE
  Relative segment, address: CODE_AREA 000001A8 - 000001D3 (0x2c bytes), align: 2
  Segment part 29.            Intra module refs:   OnKey
                                                   create_connect
                                                   get_answer
                                                   maincsm_onmessage
                                                   send_answer
           ENTRY                   ADDRESS         REF BY
           =====                   =======         ======
           SMART_REDRAW            000001A8 
               stack 1 = 00000000 ( 00000008 )
    -------------------------------------------------------------------------
CODE
  Relative segment, address: CODE_AREA 000001D4 - 0000022F (0x5c bytes), align: 2
  Segment part 31.            Intra module refs:   send_req
           ENTRY                   ADDRESS         REF BY
           =====                   =======         ======
           get_path_from_url       000001D4 
               stack 1 = 00000000 ( 00000010 )
    -------------------------------------------------------------------------
CODE
  Relative segment, address: CODE_AREA 00000230 - 000002A3 (0x74 bytes), align: 2
  Segment part 33.            Intra module refs:   create_connect
                                                   send_req
           ENTRY                   ADDRESS         REF BY
           =====                   =======         ======
           get_host_from_url       00000230 
               stack 1 = 00000000 ( 00000010 )
    -------------------------------------------------------------------------
CODE
  Relative segment, address: CODE_AREA 000002A4 - 0000043F (0x19c bytes), align: 2
  Segment part 35.            Intra module refs:   Segment part 79
           ENTRY                   ADDRESS         REF BY
           =====                   =======         ======
           create_connect          000002A4 
               stack 1 = 00000000 ( 00000128 )
    -------------------------------------------------------------------------
CODE
  Relative segment, address: CODE_AREA 00000440 - 0000045F (0x20 bytes), align: 2
  Segment part 37.            Intra module refs:   free_socket
                                                   get_answer
                                                   maincsm_onmessage
           ENTRY                   ADDRESS         REF BY
           =====                   =======         ======
           free_recv_buf           00000440 
               stack 1 = 00000000 ( 00000004 )
    -------------------------------------------------------------------------
CODE
  Relative segment, address: CODE_AREA 00000460 - 000005C7 (0x168 bytes), align: 2
  Segment part 39.            Intra module refs:   maincsm_onmessage
           ENTRY                   ADDRESS         REF BY
           =====                   =======         ======
           get_answer              00000460 
               stack 1 = 00000000 ( 00000814 )
    -------------------------------------------------------------------------
CODE
  Relative segment, address: CODE_AREA 000005C8 - 000005E7 (0x20 bytes), align: 2
  Segment part 41.            Intra module refs:   free_socket
                                                   maincsm_onmessage
           ENTRY                   ADDRESS         REF BY
           =====                   =======         ======
           free_send_buf           000005C8 
               stack 1 = 00000000 ( 00000004 )
    -------------------------------------------------------------------------
CODE
  Relative segment, address: CODE_AREA 000005E8 - 000006DB (0xf4 bytes), align: 2
  Segment part 43.            Intra module refs:   maincsm_onmessage
                                                   send_req
           ENTRY                   ADDRESS         REF BY
           =====                   =======         ======
           send_answer             000005E8 
               stack 1 = 00000000 ( 00000010 )
    -------------------------------------------------------------------------
CODE
  Relative segment, address: CODE_AREA 000006DC - 00000703 (0x28 bytes), align: 2
  Segment part 45.            Intra module refs:   maincsm_onmessage
           LOCAL                   ADDRESS         
           =====                   =======         
           end_socket              000006DC 
               stack 1 = 00000000 ( 00000008 )
    -------------------------------------------------------------------------
CODE
  Relative segment, address: CODE_AREA 00000704 - 0000072B (0x28 bytes), align: 2
  Segment part 47.            Intra module refs:   Segment part 80
           LOCAL                   ADDRESS         
           =====                   =======         
           free_socket             00000704 
               stack 1 = 00000000 ( 00000004 )
    -------------------------------------------------------------------------
CODE
  Relative segment, address: CODE_AREA 0000072C - 0000079F (0x74 bytes), align: 2
  Segment part 49.            Intra module refs:   maincsm_onmessage
           ENTRY                   ADDRESS         REF BY
           =====                   =======         ======
           send_req                0000072C 
               stack 1 = 00000000 ( 000003A0 )
    -------------------------------------------------------------------------
CODE
  Relative segment, address: CODE_AREA 000007A0 - 00000903 (0x164 bytes), align: 2
  Segment part 53.            Intra module refs:   gui_methods
           LOCAL                   ADDRESS         
           =====                   =======         
           OnRedraw                000007A0 
               stack 1 = 00000000 ( 00000048 )
    -------------------------------------------------------------------------
CODE
  Relative segment, address: CODE_AREA 00000904 - 00000907 (0x4 bytes), align: 2
  Segment part 54.            Intra module refs:   OnRedraw
                                                   free_recv_buf
                                                   free_send_buf
                                                   send_req
    -------------------------------------------------------------------------
CODE
  Relative segment, address: CODE_AREA 00000908 - 00000927 (0x20 bytes), align: 2
  Segment part 56.            Intra module refs:   gui_methods
           LOCAL                   ADDRESS         
           =====                   =======         
           onCreate                00000908 
               stack 1 = 00000000 ( 00000008 )
    -------------------------------------------------------------------------
CODE
  Relative segment, address: CODE_AREA 00000928 - 0000093F (0x18 bytes), align: 2
  Segment part 58.            Intra module refs:   gui_methods
           LOCAL                   ADDRESS         
           =====                   =======         
           onClose                 00000928 
               stack 1 = 00000000 ( 00000004 )
    -------------------------------------------------------------------------
CODE
  Relative segment, address: CODE_AREA 00000940 - 00000953 (0x14 bytes), align: 2
  Segment part 60.            Intra module refs:   gui_methods
           LOCAL                   ADDRESS         
           =====                   =======         
           onFocus                 00000940 
               stack 1 = 00000000 ( 00000004 )
    -------------------------------------------------------------------------
CODE
  Relative segment, address: CODE_AREA 00000954 - 00000967 (0x14 bytes), align: 2
  Segment part 62.            Intra module refs:   gui_methods
           LOCAL                   ADDRESS         
           =====                   =======         
           onUnfocus               00000954 
    -------------------------------------------------------------------------
CODE
  Relative segment, address: CODE_AREA 00000968 - 000009C3 (0x5c bytes), align: 2
  Segment part 64.            Intra module refs:   gui_methods
           LOCAL                   ADDRESS         
           =====                   =======         
           OnKey                   00000968 
               stack 1 = 00000000 ( 00000004 )
    -------------------------------------------------------------------------
CODE
  Relative segment, address: CODE_AREA 000009C4 - 000009CB (0x8 bytes), align: 2
  Segment part 66.            Intra module refs:   gui_methods
           ENTRY                   ADDRESS         REF BY
           =====                   =======         ======
           method8                 000009C4 
    -------------------------------------------------------------------------
CODE
  Relative segment, address: CODE_AREA 000009CC - 000009D3 (0x8 bytes), align: 2
  Segment part 68.            Intra module refs:   gui_methods
           ENTRY                   ADDRESS         REF BY
           =====                   =======         ======
           method9                 000009CC 
    -------------------------------------------------------------------------
CODE
  Relative segment, address: CODE_AREA 000009D4 - 00000A5F (0x8c bytes), align: 2
  Segment part 70.            Intra module refs:   Segment part 14
           LOCAL                   ADDRESS         
           =====                   =======         
           maincsm_oncreate        000009D4 
               stack 1 = 00000000 ( 00000010 )
    -------------------------------------------------------------------------
CODE
  Relative segment, address: CODE_AREA 00000A60 - 00000A63 (0x4 bytes), align: 2
  Segment part 71.            Intra module refs:   SMART_REDRAW
                                                   maincsm_oncreate
    -------------------------------------------------------------------------
CODE
  Relative segment, address: CODE_AREA 00000A64 - 00000A7F (0x1c bytes), align: 2
  Segment part 73.            Intra module refs:   maincsm_onclose
           ENTRY                   ADDRESS         REF BY
           =====                   =======         ======
           ElfKiller               00000A64 
               stack 1 = 00000000 ( 00000004 )
    -------------------------------------------------------------------------
CODE
  Relative segment, address: CODE_AREA 00000A80 - 00000AA7 (0x28 bytes), align: 2
  Segment part 75.            Intra module refs:   Segment part 14
           LOCAL                   ADDRESS         
           =====                   =======         
           maincsm_onclose         00000A80 
               stack 1 = 00000000 ( 00000004 )
    -------------------------------------------------------------------------
DATA_I
  Relative segment, address: DATA_AREA 00000000 - 0000019F (0x1a0 bytes), align: 2
  Segment part 15.            Intra module refs:   OnKey
                                                   Segment part 54
                                                   Segment part 78
           ENTRY                   ADDRESS         REF BY
           =====                   =======         ======
           ALLTOTALRECEIVED        00000014 
           ALLTOTALSENDED          00000018 
           DNR_ID                  00000010 
           DNR_TRIES               0000000C 
           HOST                    0000013C 
           buffer                  0000001C 
           buffer_len              00000020 
           connect_state           00000004 
           f                       00000038 
           is_gprs_online          00000008 
           logmsg                  0000003C 
           receive_mode            00000034 
           recv_buf                00000024 
           recv_buf_len            00000028 
           send_buf                0000002C 
           send_buf_len            00000030 
           sock                    00000000 
    -------------------------------------------------------------------------
CODE
  Relative segment, address: CODE_AREA 00000AA8 - 00000C6B (0x1c4 bytes), align: 2
  Segment part 77.            Intra module refs:   Segment part 14
           LOCAL                   ADDRESS         
           =====                   =======         
           maincsm_onmessage       00000AA8 
               stack 1 = 00000000 ( 00000018 )
    -------------------------------------------------------------------------
CODE
  Relative segment, address: CODE_AREA 00000C6C - 00000C6F (0x4 bytes), align: 2
  Segment part 78.            Intra module refs:   create_connect
                                                   end_socket
                                                   free_socket
                                                   get_answer
                                                   maincsm_onmessage
                                                   send_answer
    -------------------------------------------------------------------------
CODE
  Relative segment, address: CODE_AREA 00000C70 - 00000C73 (0x4 bytes), align: 2
  Segment part 79.            Intra module refs:   OnKey
                                                   maincsm_onmessage
    -------------------------------------------------------------------------
CODE
  Relative segment, address: CODE_AREA 00000C74 - 00000C77 (0x4 bytes), align: 2
  Segment part 80.            Intra module refs:   maincsm_onclose
                                                   maincsm_onmessage
    -------------------------------------------------------------------------
DATA_Z
  Relative segment, address: CODE_AREA 00000E80 - 00000F97 (0x118 bytes), align: 2
  Segment part 26.            Intra module refs:   Segment part 14
    -------------------------------------------------------------------------
DATA_C
  Relative segment, address: CODE_AREA 00000DD8 - 00000E1B (0x44 bytes), align: 2
  Segment part 14.            Intra module refs:   UpdateCSMname
                                                   main
    -------------------------------------------------------------------------
DATA_C
  Relative segment, address: CODE_AREA 00000E1C - 00000E4F (0x34 bytes), align: 2
  Segment part 25.            Intra module refs:   maincsm_oncreate
           ENTRY                   ADDRESS         REF BY
           =====                   =======         ======
           gui_methods             00000E24 
    -------------------------------------------------------------------------
DATA_C
  Relative segment, address: CODE_AREA 00000E50 - 00000E53 (0x4 bytes), align: 2
  Segment part 27.            Intra module refs:   Segment part 14
    -------------------------------------------------------------------------
CODE
  Relative segment, address: CODE_AREA 00000C78 - 00000C93 (0x1c bytes), align: 2
  Segment part 82.            Intra module refs:   main
           ENTRY                   ADDRESS         REF BY
           =====                   =======         ======
           UpdateCSMname           00000C78 
               stack 1 = 00000000 ( 00000004 )
    -------------------------------------------------------------------------
CODE
  Relative segment, address: CODE_AREA 00000C94 - 00000CD3 (0x40 bytes), align: 2
  Segment part 84.
           ENTRY                   ADDRESS         REF BY
           =====                   =======         ======
           main                    00000C94        Absolute parts (?ABS_ENTRY_MOD)
               stack 1 = 00000000 ( 00000030 )
    -------------------------------------------------------------------------
DATA_ID
  Relative segment, address: CODE_AREA 00000000 - 0000019F (0x1a0 bytes), align: 2
  Segment part 16.            Intra module refs:   Segment part 15
    -------------------------------------------------------------------------
INITTAB
  Relative segment, address: CODE_AREA 00000E54 - 00000E5F (0xc bytes), align: 2
  Segment part 87. ROOT.
           ENTRY                   ADDRESS         REF BY
           =====                   =======         ======
           ?init?tab?DATA_Z        00000E54 
    -------------------------------------------------------------------------
INITTAB
  Relative segment, address: CODE_AREA 00000E60 - 00000E6B (0xc bytes), align: 2
  Segment part 89. ROOT.
           ENTRY                   ADDRESS         REF BY
           =====                   =======         ======
           ?init?tab?DATA_I        00000E60 

    *************************************************************************

  FILE NAME : C:\arm\nrss2\Release_ELKA\Obj\strings.r79
    *************************************************************************

  FILE NAME : C:\arm\nrss2\Release_ELKA\Obj\view_item.r79



                ****************************************
                *                                      *
                *      SEGMENTS IN ADDRESS ORDER       *
                *                                      *
                ****************************************


SEGMENT              SPACE    START ADDRESS   END ADDRESS     SIZE  TYPE  ALIGN
=======              =====    =============   ===========     ====  ====  =====
ELFBEGIN             CODE_AREA           00000000                     rel    0
DATA_ID              CODE_AREA      00000000 - 0000019F         1A0   rel    2
START                CODE_AREA           000001A0                     dse    0
CODE                 CODE_AREA      000001A0 - 00000CD3         B34   rel    2
DATA_C               CODE_AREA      00000CD4 - 00000E53         180   rel    2
INITTAB              CODE_AREA      00000E54 - 00000E6B          18   rel    2
DATA_Z               CODE_AREA      00000E6C - 00000F97         12C   rel    2
DATA_I               DATA_AREA      00000000 - 0000019F         1A0   rel    2

                ****************************************
                *                                      *
                *        END OF CROSS REFERENCE        *
                *                                      *
                ****************************************

 3 992 bytes of CODE memory
   416 bytes of DATA memory

Errors: none
Warnings: none

