##############################################################################
#                                                                            #
# IAR ARM ANSI C/C++ Compiler V4.42A/W32 EVALUATION    03/Dec/2010  11:08:12 #
# Copyright 1999-2005 IAR Systems. All rights reserved.                      #
#                                                                            #
#    Cpu mode        =  interwork                                            #
#    Endian          =  little                                               #
#    Stack alignment =  4                                                    #
#    Source file     =  D:\pasha\elf\SVN2\NATICQ\conf_loader.c               #
#    Command line    =  D:\pasha\elf\SVN2\NATICQ\conf_loader.c -D NEWSGOLD   #
#                       -D ELKA --preprocess D:\pasha\elf\SVN2\NATICQ\Releas #
#                       e_ELKA\List\ -lC D:\pasha\elf\SVN2\NATICQ\Release_EL #
#                       KA\List\ -o D:\pasha\elf\SVN2\NATICQ\Release_ELKA\Ob #
#                       j\ -s9 --no_unroll --cpu_mode arm --endian little    #
#                       --cpu ARM926EJ-S --stack_align 4 --interwork -e      #
#                       --fpu None --dlib_config "D:\pasha\Embedded          #
#                       Workbench 4.0 Evaluation2\ARM\LIB\dl5tpainl8n.h" -I  #
#                       "D:\pasha\Embedded Workbench 4.0                     #
#                       Evaluation2\ARM\INC\" --inline_threshold=2           #
#    List file       =  D:\pasha\elf\SVN2\NATICQ\Release_ELKA\List\conf_load #
#                       er.lst                                               #
#    Object file     =  D:\pasha\elf\SVN2\NATICQ\Release_ELKA\Obj\conf_loade #
#                       r.r79                                                #
#                                                                            #
#                                                                            #
##############################################################################

D:\pasha\elf\SVN2\NATICQ\conf_loader.c
      1          #include "..\inc\swilib.h"
      2          #include "..\inc\cfg_items.h"
      3          #include "conf_loader.h"
      4          

   \                                 In segment DATA_Z, align 4, align-sorted
      5          char *successed_config_filename;
   \                     successed_config_filename:
   \   00000000                      DS8 4
      6          
      7          #pragma segment="CONFIG_C"

   \                                 In segment CODE, align 4, keep-with-next
      8          int SaveConfigData(const char *fname)
      9          {
     10            int f;
     11            unsigned int ul;
     12            int result=-1;
     13            unsigned int wlen;
     14            unsigned int len=(char *)__segment_end("CONFIG_C")-(char *)__segment_begin("CONFIG_C");
   \                     SaveConfigData:
   \   00000000   60109FE5           LDR      R1,??SaveConfigData_0  ;; SFE(CONFIG_C)
   \   00000004   F0402DE9           PUSH     {R4-R7,LR}
   \   00000008   5C509FE5           LDR      R5,??SaveConfigData_0+0x4  ;; SFB(CONFIG_C)
   \   0000000C   04D04DE2           SUB      SP,SP,#+4
   \   00000010   0040E0E3           MVN      R4,#+0
   \   00000014   056041E0           SUB      R6,R1,R5
     15          
     16            if ((f=fopen(fname,A_WriteOnly+A_BIN+A_Create+A_Truncate,P_WRITE,&ul))!=-1)
   \   00000018   0D30A0E1           MOV      R3,SP
   \   0000001C   402FA0E3           MOV      R2,#+256
   \   00000020   0110A0E3           MOV      R1,#+1
   \   00000024   831C81E3           ORR      R1,R1,#0x8300
   \   00000028   0A0000EF           SWI      +10
   \   0000002C   0070A0E1           MOV      R7,R0
   \   00000030   010077E3           CMN      R7,#+1
   \   00000034   0900000A           BEQ      ??SaveConfigData_1
     17            {
     18              wlen=fwrite(f,__segment_begin("CONFIG_C"),len,&ul);
   \   00000038   0D30A0E1           MOV      R3,SP
   \   0000003C   0620A0E1           MOV      R2,R6
   \   00000040   0510A0E1           MOV      R1,R5
   \   00000044   0C0000EF           SWI      +12
   \   00000048   0050A0E1           MOV      R5,R0
     19              fclose(f,&ul);
   \   0000004C   0D10A0E1           MOV      R1,SP
   \   00000050   0700A0E1           MOV      R0,R7
   \   00000054   0D0000EF           SWI      +13
     20              if (wlen==len) result=0;
   \   00000058   060055E1           CMP      R5,R6
   \   0000005C   0040A003           MOVEQ    R4,#+0
     21            }
     22            return(result);
   \                     ??SaveConfigData_1:
   \   00000060   0400A0E1           MOV      R0,R4
   \   00000064   F280BDE8           POP      {R1,R4-R7,PC}    ;; return
   \                     ??SaveConfigData_0:
   \   00000068   ........           DC32     SFE(CONFIG_C)
   \   0000006C   ........           DC32     SFB(CONFIG_C)
     23          }
     24          
     25          
     26          #pragma segment="CONFIG_C"

   \                                 In segment CODE, align 4, keep-with-next
     27          int LoadConfigData(const char *fname)
     28          {
   \                     LoadConfigData:
   \   00000000   F0472DE9           PUSH     {R4-R10,LR}
     29            int f;
     30            unsigned int ul;
     31            char *buf;
     32            int result=0;
     33            void *cfg;
     34            unsigned int rlen, end;
     35          
     36            extern const CFG_HDR cfghdr0; //first var in CONFIG
     37            cfg=(void*)&cfghdr0;
     38          
     39            unsigned int len=(int)__segment_end("CONFIG_C")-(int)__segment_begin("CONFIG_C");
   \   00000004   E4609FE5           LDR      R6,??LoadConfigData_0  ;; SFE(CONFIG_C) - SFB(CONFIG_C)
   \   00000008   04D04DE2           SUB      SP,SP,#+4
   \   0000000C   0040A0E1           MOV      R4,R0
     40          
     41            if (!(buf=malloc(len))) return -1;
   \   00000010   0600A0E1           MOV      R0,R6
   \   00000014   140000EF           SWI      +20
   \   00000018   0070B0E1           MOVS     R7,R0
   \   0000001C   0000E003           MVNEQ    R0,#+0
   \   00000020   F287BD08           POPEQ    {R1,R4-R10,PC}
     42            if ((f=fopen(fname,A_ReadOnly+A_BIN,P_READ,&ul))!=-1)
   \   00000024   0D30A0E1           MOV      R3,SP
   \   00000028   8020A0E3           MOV      R2,#+128
   \   0000002C   801CA0E3           MOV      R1,#+32768
   \   00000030   0400A0E1           MOV      R0,R4
   \   00000034   0A0000EF           SWI      +10
   \   00000038   0080A0E1           MOV      R8,R0
   \   0000003C   010078E3           CMN      R8,#+1
   \   00000040   1900000A           BEQ      ??LoadConfigData_1
     43            {
     44              result = 0;
     45              rlen=fread(f,buf,len,&ul);
   \   00000044   0D30A0E1           MOV      R3,SP
   \   00000048   0620A0E1           MOV      R2,R6
   \   0000004C   0710A0E1           MOV      R1,R7
   \   00000050   0B0000EF           SWI      +11
   \   00000054   0090A0E1           MOV      R9,R0
     46              end=lseek(f,0,S_END,&ul,&ul);
   \   00000058   0D00A0E1           MOV      R0,SP
   \   0000005C   01002DE9           PUSH     {R0}
   \   00000060   0050A0E3           MOV      R5,#+0
   \   00000064   04308DE2           ADD      R3,SP,#+4
   \   00000068   0220A0E3           MOV      R2,#+2
   \   0000006C   0010A0E3           MOV      R1,#+0
   \   00000070   0800A0E1           MOV      R0,R8
   \   00000074   0F0000EF           SWI      +15
   \   00000078   00A0A0E1           MOV      R10,R0
     47              fclose(f,&ul);
   \   0000007C   04108DE2           ADD      R1,SP,#+4
   \   00000080   0800A0E1           MOV      R0,R8
   \   00000084   0D0000EF           SWI      +13
     48              if (rlen!=end || rlen!=len)  goto L_SAVENEWCFG;
   \   00000088   0A0059E1           CMP      R9,R10
   \   0000008C   04D08DE2           ADD      SP,SP,#+4
   \   00000090   06005901           CMPEQ    R9,R6
   \   00000094   0400001A           BNE      ??LoadConfigData_1
     49              memcpy(cfg,buf,len);
   \   00000098   54009FE5           LDR      R0,??LoadConfigData_0+0x4  ;; cfghdr0
   \   0000009C   0620A0E1           MOV      R2,R6
   \   000000A0   0710A0E1           MOV      R1,R7
   \   000000A4   1E0100EF           SWI      +286
   \   000000A8   020000EA           B        ??LoadConfigData_2
     50            }
     51            else
     52            {
     53            L_SAVENEWCFG:
     54              result=SaveConfigData(fname);
   \                     ??LoadConfigData_1:
   \   000000AC   0400A0E1           MOV      R0,R4
   \   000000B0   ........           BL       SaveConfigData
   \   000000B4   0050A0E1           MOV      R5,R0
     55            }
     56            mfree(buf);
   \                     ??LoadConfigData_2:
   \   000000B8   0700A0E1           MOV      R0,R7
   \   000000BC   150000EF           SWI      +21
     57            if (result>=0)
   \   000000C0   000055E3           CMP      R5,#+0
   \   000000C4   0700004A           BMI      ??LoadConfigData_3
     58            {
     59              successed_config_filename = malloc(strlen(fname)*2);
   \   000000C8   28609FE5           LDR      R6,??LoadConfigData_0+0x8  ;; successed_config_filename
   \   000000CC   0400A0E1           MOV      R0,R4
   \   000000D0   1B0000EF           SWI      +27
   \   000000D4   8000A0E1           LSL      R0,R0,#+1
   \   000000D8   140000EF           SWI      +20
   \   000000DC   000086E5           STR      R0,[R6, #+0]
     60              strcpy(successed_config_filename, fname);
   \   000000E0   0410A0E1           MOV      R1,R4
   \   000000E4   1A0000EF           SWI      +26
     61              //successed_config_filename = fname;
     62            }
     63            return(result);
   \                     ??LoadConfigData_3:
   \   000000E8   0500A0E1           MOV      R0,R5
   \   000000EC   F287BDE8           POP      {R1,R4-R10,PC}   ;; return
   \                     ??LoadConfigData_0:
   \   000000F0   ........           DC32     SFE(CONFIG_C) - SFB(CONFIG_C)
   \   000000F4   ........           DC32     cfghdr0
   \   000000F8   ........           DC32     successed_config_filename
     64          }
     65          

   \                                 In segment CODE, align 4, keep-with-next
     66          void InitConfig(const char *config)
     67          {
   \                     InitConfig:
   \   00000000   10402DE9           PUSH     {R4,LR}
     68            // tridog, 18 april 2009
     69            // Делаем многопрофильность
     70              if (LoadConfigData(config)<0)
   \   00000004   ........           BL       LoadConfigData
   \   00000008   000050E3           CMP      R0,#+0
   \   0000000C   1080BD58           POPPL    {R4,PC}
     71              {
     72                if (LoadConfigData("4:\\ZBin\\etc\\NATICQ.bcfg")<0)
   \   00000010   18409FE5           LDR      R4,??InitConfig_0  ;; `?<Constant "0:\\\\ZBin\\\\etc\\\\NATICQ.bcfg">`
   \   00000014   180084E2           ADD      R0,R4,#+24
   \   00000018   ........           BL       LoadConfigData
   \   0000001C   000050E3           CMP      R0,#+0
   \   00000020   1080BD58           POPPL    {R4,PC}
     73                {
     74                  LoadConfigData("0:\\ZBin\\etc\\NATICQ.bcfg");
   \   00000024   0400A0E1           MOV      R0,R4
   \   00000028   ........           BL       LoadConfigData
     75                }
     76              }
     77          }
   \   0000002C   1080BDE8           POP      {R4,PC}          ;; return
   \                     ??InitConfig_0:
   \   00000030   ........           DC32     `?<Constant "0:\\\\ZBin\\\\etc\\\\NATICQ.bcfg">`

   \                                 In segment CONFIG_C, align 1

   \                                 In segment DATA_C, align 4, align-sorted
   \                     `?<Constant "0:\\\\ZBin\\\\etc\\\\NATICQ.bcfg">`:
   \   00000000   303A5C5A4269       DC8 "0:\\ZBin\\etc\\NATICQ.bcfg"
   \              6E5C6574635C
   \              4E4154494351
   \              2E6263666700
   \   00000018   343A5C5A4269       DC8 "4:\\ZBin\\etc\\NATICQ.bcfg"
   \              6E5C6574635C
   \              4E4154494351
   \              2E6263666700

   Maximum stack usage in bytes:

     Function       CSTACK
     --------       ------
     InitConfig         8
     LoadConfigData    40
     SaveConfigData    24


   Segment part sizes:

     Function/Label                 Bytes
     --------------                 -----
     successed_config_filename         4
     SaveConfigData                  112
     LoadConfigData                  252
     InitConfig                       52
     ?<Constant "0:\\ZBin\\etc\\NATICQ.bcfg">
                                      48
      Others                          24

 
 428 bytes in segment CODE
  48 bytes in segment DATA_C
   4 bytes in segment DATA_Z
  12 bytes in segment INITTAB
 
 416 bytes of CODE  memory (+ 24 bytes shared)
  48 bytes of CONST memory
   4 bytes of DATA  memory

Errors: none
Warnings: none
