##############################################################################
#                                                                            #
# IAR ARM ANSI C/C++ Compiler V4.42A/W32 EVALUATION    03/Dec/2010  11:08:04 #
# Copyright 1999-2005 IAR Systems. All rights reserved.                      #
#                                                                            #
#    Cpu mode        =  interwork                                            #
#    Endian          =  little                                               #
#    Stack alignment =  4                                                    #
#    Source file     =  D:\pasha\elf\SVN2\NATICQ\smiles_loader.c             #
#    Command line    =  D:\pasha\elf\SVN2\NATICQ\smiles_loader.c -D          #
#                       NEWSGOLD -D ELKA --preprocess                        #
#                       D:\pasha\elf\SVN2\NATICQ\Release_ELKA\List\ -lC      #
#                       D:\pasha\elf\SVN2\NATICQ\Release_ELKA\List\ -o       #
#                       D:\pasha\elf\SVN2\NATICQ\Release_ELKA\Obj\ -s9       #
#                       --no_unroll --cpu_mode arm --endian little --cpu     #
#                       ARM926EJ-S --stack_align 4 --interwork -e --fpu      #
#                       None --dlib_config "D:\pasha\Embedded Workbench 4.0  #
#                       Evaluation2\ARM\LIB\dl5tpainl8n.h" -I                #
#                       "D:\pasha\Embedded Workbench 4.0                     #
#                       Evaluation2\ARM\INC\" --inline_threshold=2           #
#    List file       =  D:\pasha\elf\SVN2\NATICQ\Release_ELKA\List\smiles_lo #
#                       ader.lst                                             #
#    Object file     =  D:\pasha\elf\SVN2\NATICQ\Release_ELKA\Obj\smiles_loa #
#                       der.r79                                              #
#                                                                            #
#                                                                            #
##############################################################################

D:\pasha\elf\SVN2\NATICQ\smiles_loader.c
      1          #include "../inc/swilib.h"
      2          #include "../inc/pnglist.h"
      3          #include "naticq_ipc.h"
      4          #include "smiles.h"
      5          #include "naticq.h"
      6          

   \                                 In segment DATA_Z, align 4, align-sorted
      7          S_SMILES *s_top=0;
      8          
      9          DYNPNGICONLIST *SmilesImgList;
     10          DYNPNGICONLIST *XStatusesImgList;
     11          
     12          int *XStatusesIconArray;
     13          
     14          volatile int total_smiles;
     15          volatile int total_xstatuses;
     16          volatile int xstatuses_load;
     17          volatile int pictures_max;
     18          volatile int pictures_loaded;
     19          
     20          extern const char SMILE_FILE[];
     21          extern const char SMILE_PATH[];
     22          extern const char XSTATUSES_PATH[];
     23          extern const char ipc_my_name[32];
     24          extern  int S_ICONS[];
     25          
     26          static IPC_REQ gipc1;
   \                     gipc1:
   \   00000000                      DS8 12
   \   0000000C                      DS8 12
   \                     s_top:
   \   00000018                      DS8 4
   \                     SmilesImgList:
   \   0000001C                      DS8 4
   \                     XStatusesImgList:
   \   00000020                      DS8 4
   \                     XStatusesIconArray:
   \   00000024                      DS8 4
   \                     total_smiles:
   \   00000028                      DS8 4
   \                     total_xstatuses:
   \   0000002C                      DS8 4
   \                     xstatuses_load:
   \   00000030                      DS8 4
   \                     pictures_max:
   \   00000034                      DS8 4
   \                     pictures_loaded:
   \   00000038                      DS8 4
   \   0000003C                      DS8 4
   \   00000040                      DS8 4
   \   00000044                      DS8 4
   \   00000048                      DS8 4
   \   0000004C                      DS8 4
     27          static char *p_buf;
     28          static char *s_buf;
     29          static S_SMILES *s_bot;
     30          static int n_pic1;
     31          
     32          static int n_pic2;
     33          static IPC_REQ gipc2;
     34          
     35          

   \                                 In segment CODE, align 4, keep-with-next
     36          S_SMILES *FindSmileById(int n)
     37          {
     38            int i=0;
     39            S_SMILES *sl=(S_SMILES *)s_top;
   \                     FindSmileById:
   \   00000000   ........           LDR      R1,??DataTable1  ;; gipc1 + 24
   \   00000004   0020A0E3           MOV      R2,#+0
   \   00000008   001091E5           LDR      R1,[R1, #+0]
   \   0000000C   010000EA           B        ??FindSmileById_0
     40            while(sl && i!=n)
     41            {
     42              sl=sl->next;
   \                     ??FindSmileById_1:
   \   00000010   001091E5           LDR      R1,[R1, #+0]
     43              i++;
   \   00000014   012082E2           ADD      R2,R2,#+1
     44            }
   \                     ??FindSmileById_0:
   \   00000018   000051E3           CMP      R1,#+0
   \   0000001C   00005211           CMPNE    R2,R0
   \   00000020   FAFFFF1A           BNE      ??FindSmileById_1
     45            return sl;
   \   00000024   0100A0E1           MOV      R0,R1
   \   00000028   1EFF2FE1           BX       LR               ;; return
     46          }
     47          

   \                                 In segment CODE, align 4, keep-with-next
     48          S_SMILES *FindSmileByUni(int wchar)
     49          {
     50            S_SMILES *sl=(S_SMILES *)s_top;
   \                     FindSmileByUni:
   \   00000000   ........           LDR      R1,??DataTable1  ;; gipc1 + 24
     51            while(sl)
     52            {
     53              if (sl->uni_smile == wchar) return (sl);
     54              sl=sl->next;
   \                     ??FindSmileByUni_0:
   \   00000004   001091E5           LDR      R1,[R1, #+0]
   \   00000008   000051E3           CMP      R1,#+0
   \   0000000C   0400000A           BEQ      ??FindSmileByUni_1
   \   00000010   042091E5           LDR      R2,[R1, #+4]
   \   00000014   000052E1           CMP      R2,R0
   \   00000018   F9FFFF1A           BNE      ??FindSmileByUni_0
   \   0000001C   0100A0E1           MOV      R0,R1
   \   00000020   1EFF2FE1           BX       LR
     55            }
     56            return (0);
   \                     ??FindSmileByUni_1:
   \   00000024   0000A0E3           MOV      R0,#+0
   \   00000028   1EFF2FE1           BX       LR               ;; return
     57          }
     58          

   \                                 In segment CODE, align 4, keep-with-next
     59          void FreeSmiles(void)
     60          {
   \                     FreeSmiles:
   \   00000000   F0412DE9           PUSH     {R4-R8,LR}
     61            S_SMILES *s_smile;
     62            STXT_SMILES *n;
     63            STXT_SMILES *st;
     64            DYNPNGICONLIST *d;
     65            DYNPNGICONLIST *nd;
     66            LockSched();
     67            total_smiles=0;
   \   00000004   ........           LDR      R4,??DataTable15  ;; gipc1
   \   00000008   04D04DE2           SUB      SP,SP,#+4
   \   0000000C   0050A0E3           MOV      R5,#+0
   \   00000010   460100EF           SWI      +326
   \   00000014   285084E5           STR      R5,[R4, #+40]
     68            s_smile=(S_SMILES *)s_top;
   \   00000018   186094E5           LDR      R6,[R4, #+24]
     69            s_top=0;
   \   0000001C   185084E5           STR      R5,[R4, #+24]
     70            s_bot=0;
   \   00000020   445084E5           STR      R5,[R4, #+68]
     71            UnlockSched();
   \   00000024   470100EF           SWI      +327
   \   00000028   000056E3           CMP      R6,#+0
   \   0000002C   1300000A           BEQ      ??FreeSmiles_0
     72            while(s_smile)
     73            {
     74              S_SMILES *s;
     75              s=s_smile;
   \                     ??FreeSmiles_1:
   \   00000030   0670A0E1           MOV      R7,R6
     76              st=s->lines;
   \   00000034   080097E5           LDR      R0,[R7, #+8]
   \   00000038   000050E3           CMP      R0,#+0
   \   0000003C   0A00000A           BEQ      ??FreeSmiles_2
     77              while(st)
     78              {
     79                n=st->next;
   \                     ??FreeSmiles_3:
   \   00000040   0010A0E3           MOV      R1,#+0
   \   00000044   0D20A0E1           MOV      R2,SP
   \                     ??FreeSmiles_4:
   \   00000048   0030D1E7           LDRB     R3,[R1, +R0]
   \   0000004C   0230C1E7           STRB     R3,[R1, +R2]
   \   00000050   011081E2           ADD      R1,R1,#+1
   \   00000054   040051E3           CMP      R1,#+4
   \   00000058   FAFFFFBA           BLT      ??FreeSmiles_4
   \   0000005C   00809DE5           LDR      R8,[SP, #+0]
     80                mfree(st);
   \   00000060   150000EF           SWI      +21
     81                st=n;
   \   00000064   0800B0E1           MOVS     R0,R8
     82              }
   \   00000068   F4FFFF1A           BNE      ??FreeSmiles_3
     83              s_smile=(S_SMILES *)(s_smile->next);
   \                     ??FreeSmiles_2:
   \   0000006C   006096E5           LDR      R6,[R6, #+0]
     84              mfree(s);
   \   00000070   0700A0E1           MOV      R0,R7
   \   00000074   150000EF           SWI      +21
     85            }
   \   00000078   000056E3           CMP      R6,#+0
   \   0000007C   EBFFFF1A           BNE      ??FreeSmiles_1
     86            LockSched();
   \                     ??FreeSmiles_0:
   \   00000080   460100EF           SWI      +326
     87            d=SmilesImgList;
   \   00000084   1C6094E5           LDR      R6,[R4, #+28]
     88            SmilesImgList=0;
   \   00000088   1C5084E5           STR      R5,[R4, #+28]
     89            UnlockSched();
   \   0000008C   470100EF           SWI      +327
   \   00000090   000056E3           CMP      R6,#+0
   \   00000094   0B00000A           BEQ      ??FreeSmiles_5
     90            while(d)
     91            {
     92              if (d->img)
   \                     ??FreeSmiles_6:
   \   00000098   080096E5           LDR      R0,[R6, #+8]
   \   0000009C   000050E3           CMP      R0,#+0
   \   000000A0   0300000A           BEQ      ??FreeSmiles_7
     93              {
     94                mfree(d->img->bitmap);
   \   000000A4   080090E5           LDR      R0,[R0, #+8]
   \   000000A8   150000EF           SWI      +21
     95                mfree(d->img);
   \   000000AC   080096E5           LDR      R0,[R6, #+8]
   \   000000B0   150000EF           SWI      +21
     96              }
     97              nd=d->next;
   \                     ??FreeSmiles_7:
   \   000000B4   005096E5           LDR      R5,[R6, #+0]
     98              mfree(d);
   \   000000B8   0600A0E1           MOV      R0,R6
   \   000000BC   150000EF           SWI      +21
     99              d=nd;
   \   000000C0   0560B0E1           MOVS     R6,R5
    100            }
   \   000000C4   F3FFFF1A           BNE      ??FreeSmiles_6
    101            mfree(s_buf);
   \                     ??FreeSmiles_5:
   \   000000C8   400094E5           LDR      R0,[R4, #+64]
   \   000000CC   150000EF           SWI      +21
    102          }
   \   000000D0   F181BDE8           POP      {R0,R4-R8,PC}    ;; return
    103          

   \                                 In segment CODE, align 4, keep-with-next
    104          void InitSmiles(void)
    105          {
   \                     InitSmiles:
   \   00000000   F0412DE9           PUSH     {R4-R8,LR}
    106            int f;
    107            unsigned int err;
    108            int fsize;
    109            char *buf;
    110            FSTATS stat;
    111          
    112            FreeSmiles();
    113          
    114            n_pic1=FIRST_UCS2_BITMAP;
   \   00000004   ........           LDR      R4,??DataTable8  ;; gipc1
    115            if (GetFileStats(SMILE_FILE,&stat,&err)==-1)
   \   00000008   ........           LDR      R6,??DataTable6  ;; SMILE_FILE
   \   0000000C   2CD04DE2           SUB      SP,SP,#+44
   \   00000010   ........           BL       FreeSmiles
   \   00000014   2A00A0E3           MOV      R0,#+42
   \   00000018   E10C80E3           ORR      R0,R0,#0xE100
   \   0000001C   480084E5           STR      R0,[R4, #+72]
   \   00000020   0050E0E3           MVN      R5,#+0
   \   00000024   0D20A0E1           MOV      R2,SP
   \   00000028   04108DE2           ADD      R1,SP,#+4
   \   0000002C   0600A0E1           MOV      R0,R6
   \   00000030   840000EF           SWI      +132
   \   00000034   050050E1           CMP      R0,R5
   \   00000038   2400000A           BEQ      ??InitSmiles_0
    116              return;
    117          
    118            if ((fsize=stat.size)<=0)
   \   0000003C   08709DE5           LDR      R7,[SP, #+8]
   \   00000040   010057E3           CMP      R7,#+1
   \   00000044   210000BA           BLT      ??InitSmiles_0
    119              return;
    120          
    121            if ((f=fopen(SMILE_FILE,A_ReadOnly+A_BIN,P_READ,&err))==-1)
   \   00000048   0D30A0E1           MOV      R3,SP
   \   0000004C   8020A0E3           MOV      R2,#+128
   \   00000050   801CA0E3           MOV      R1,#+32768
   \   00000054   0600A0E1           MOV      R0,R6
   \   00000058   0A0000EF           SWI      +10
   \   0000005C   0060A0E1           MOV      R6,R0
   \   00000060   050056E1           CMP      R6,R5
   \   00000064   1900000A           BEQ      ??InitSmiles_0
    122              return;
    123          
    124            buf=s_buf=p_buf=malloc(fsize+1);
   \   00000068   010087E2           ADD      R0,R7,#+1
   \   0000006C   140000EF           SWI      +20
   \   00000070   0050A0E1           MOV      R5,R0
   \   00000074   3C5084E5           STR      R5,[R4, #+60]
   \   00000078   405084E5           STR      R5,[R4, #+64]
    125            buf[fread(f,buf,fsize,&err)]=0;
   \   0000007C   0080A0E3           MOV      R8,#+0
   \   00000080   0D30A0E1           MOV      R3,SP
   \   00000084   0720A0E1           MOV      R2,R7
   \   00000088   0510A0E1           MOV      R1,R5
   \   0000008C   0600A0E1           MOV      R0,R6
   \   00000090   0B0000EF           SWI      +11
   \   00000094   0580C0E7           STRB     R8,[R0, +R5]
    126            fclose(f,&err);
   \   00000098   0D10A0E1           MOV      R1,SP
   \   0000009C   0600A0E1           MOV      R0,R6
   \   000000A0   0D0000EF           SWI      +13
    127            //f=fopen("4:\\smiles.cfg",A_ReadWrite+A_BIN+A_Create+A_Append,P_READ+P_WRITE,&err);
    128            gipc1.name_to=ipc_my_name;
   \   000000A4   ........           LDR      R0,??DataTable16  ;; ipc_my_name
    129            gipc1.name_from=ipc_my_name;
    130            gipc1.data=0;
   \   000000A8   088084E5           STR      R8,[R4, #+8]
   \   000000AC   000084E5           STR      R0,[R4, #+0]
   \   000000B0   040084E5           STR      R0,[R4, #+4]
    131            GBS_SendMessage(MMI_CEPID,MSG_IPC,IPC_SMILE_PROCESSED,&gipc1);
   \   000000B4   0430A0E1           MOV      R3,R4
   \   000000B8   0220A0E3           MOV      R2,#+2
   \   000000BC   B010A0E3           MOV      R1,#+176
   \   000000C0   DE1C81E3           ORR      R1,R1,#0xDE00
   \   000000C4   0900A0E3           MOV      R0,#+9
   \   000000C8   420C80E3           ORR      R0,R0,#0x4200
   \   000000CC   000100EF           SWI      +256
    132          }
   \                     ??InitSmiles_0:
   \   000000D0   2CD08DE2           ADD      SP,SP,#+44       ;; stack cleaning
   \   000000D4   F081BDE8           POP      {R4-R8,PC}       ;; return
    133          

   \                                 In segment CODE, align 4, keep-with-next
    134          void CheckSmiles(void)
    135          {
   \                     CheckSmiles:
   \   00000000   F0402DE9           PUSH     {R4-R7,LR}
    136            int f;
    137            unsigned int err;
    138            int fsize;
    139            char *buf, *p_buf;
    140            FSTATS stat;
    141          
    142            if (GetFileStats(SMILE_FILE,&stat,&err)==-1)
   \   00000004   ........           LDR      R5,??DataTable6  ;; SMILE_FILE
   \   00000008   2CD04DE2           SUB      SP,SP,#+44
   \   0000000C   0040E0E3           MVN      R4,#+0
   \   00000010   0D20A0E1           MOV      R2,SP
   \   00000014   04108DE2           ADD      R1,SP,#+4
   \   00000018   0500A0E1           MOV      R0,R5
   \   0000001C   840000EF           SWI      +132
   \   00000020   040050E1           CMP      R0,R4
   \   00000024   2C00000A           BEQ      ??CheckSmiles_0
    143              return;
    144          
    145            if ((fsize=stat.size)<=0)
   \   00000028   08609DE5           LDR      R6,[SP, #+8]
   \   0000002C   010056E3           CMP      R6,#+1
   \   00000030   290000BA           BLT      ??CheckSmiles_0
    146              return;
    147          
    148            if ((f=fopen(SMILE_FILE,A_ReadOnly+A_BIN,P_READ,&err))==-1)
   \   00000034   0D30A0E1           MOV      R3,SP
   \   00000038   8020A0E3           MOV      R2,#+128
   \   0000003C   801CA0E3           MOV      R1,#+32768
   \   00000040   0500A0E1           MOV      R0,R5
   \   00000044   0A0000EF           SWI      +10
   \   00000048   0070A0E1           MOV      R7,R0
   \   0000004C   040057E1           CMP      R7,R4
   \   00000050   2100000A           BEQ      ??CheckSmiles_0
    149              return;
    150          
    151            buf=p_buf=malloc(fsize+1);
   \   00000054   010086E2           ADD      R0,R6,#+1
   \   00000058   140000EF           SWI      +20
   \   0000005C   0040A0E1           MOV      R4,R0
    152            buf[fread(f,buf,fsize,&err)]=0;
   \   00000060   0D30A0E1           MOV      R3,SP
   \   00000064   0620A0E1           MOV      R2,R6
   \   00000068   0410A0E1           MOV      R1,R4
   \   0000006C   0700A0E1           MOV      R0,R7
   \   00000070   0B0000EF           SWI      +11
   \   00000074   0010A0E3           MOV      R1,#+0
   \   00000078   0410C0E7           STRB     R1,[R0, +R4]
    153            fclose(f,&err);
   \   0000007C   0D10A0E1           MOV      R1,SP
   \   00000080   0700A0E1           MOV      R0,R7
   \   00000084   0D0000EF           SWI      +13
    154            
    155            f = pictures_max;
   \   00000088   ........           LDR      R0,??DataTable15  ;; gipc1
   \   0000008C   0450A0E1           MOV      R5,R4
   \   00000090   341090E5           LDR      R1,[R0, #+52]
    156            for(buf=p_buf;*buf; buf++)
   \   00000094   0010D5E5           LDRB     R1,[R5, #+0]
   \   00000098   000051E3           CMP      R1,#+0
   \   0000009C   0C00000A           BEQ      ??CheckSmiles_1
    157              if(*buf == ':')
   \                     ??CheckSmiles_2:
   \   000000A0   0010D5E5           LDRB     R1,[R5, #+0]
   \   000000A4   3A0051E3           CMP      R1,#+58
   \   000000A8   0600001A           BNE      ??CheckSmiles_3
    158              {
    159                buf++;
    160                while(*buf && *buf != 0x0D) buf++;
   \                     ??CheckSmiles_4:
   \   000000AC   0110F5E5           LDRB     R1,[R5, #+1]!
   \   000000B0   000051E3           CMP      R1,#+0
   \   000000B4   0D005113           CMPNE    R1,#+13
   \   000000B8   FBFFFF1A           BNE      ??CheckSmiles_4
    161                pictures_max++;
   \   000000BC   341090E5           LDR      R1,[R0, #+52]
   \   000000C0   011081E2           ADD      R1,R1,#+1
   \   000000C4   341080E5           STR      R1,[R0, #+52]
    162              }
   \                     ??CheckSmiles_3:
   \   000000C8   0110F5E5           LDRB     R1,[R5, #+1]!
   \   000000CC   000051E3           CMP      R1,#+0
   \   000000D0   F2FFFF1A           BNE      ??CheckSmiles_2
    163          /*  if(f == pictures_max)                 //А вдруг у нас кривые переводы строк?
    164            {
    165              for(buf=p_buf;*buf; buf++)
    166              if(*buf == 0x0A)
    167              {
    168                buf++;
    169                while(*buf && *buf != 0x0A && *buf!=':') buf++;
    170                if(*buf!=':') pictures_max++;
    171              }
    172            }*/
    173            mfree(p_buf);
   \                     ??CheckSmiles_1:
   \   000000D4   0400A0E1           MOV      R0,R4
   \   000000D8   150000EF           SWI      +21
    174          }
   \                     ??CheckSmiles_0:
   \   000000DC   2CD08DE2           ADD      SP,SP,#+44       ;; stack cleaning
   \   000000E0   F080BDE8           POP      {R4-R7,PC}       ;; return
    175          

   \                                 In segment CODE, align 4, keep-with-next
    176          void ProcessNextSmile(void)  
    177          {  
    178            int c;
    179            char fn[128];
    180            const char _slash[]="\\";
   \                     ProcessNextSmile:
   \   00000000   38139FE5           LDR      R1,??ProcessNextSmile_0  ;; `?<Constant "\\\\">`
   \   00000004   F0432DE9           PUSH     {R4-R9,LR}
    181            DYNPNGICONLIST *dp;
    182            S_SMILES *si;
    183            STXT_SMILES *st;
    184            char *buf=p_buf;
   \   00000008   ........           LDR      R4,??DataTable8  ;; gipc1
   \   0000000C   88D04DE2           SUB      SP,SP,#+136
   \   00000010   0020D1E5           LDRB     R2,[R1, #0]
   \   00000014   3C6094E5           LDR      R6,[R4, #+60]
   \   00000018   04008DE2           ADD      R0,SP,#+4
   \   0000001C   0020C0E5           STRB     R2,[R0, #+0]
   \   00000020   0120D1E5           LDRB     R2,[R1, #+1]
    185            if (!buf) return;
   \   00000024   000056E3           CMP      R6,#+0
   \   00000028   0050A0E3           MOV      R5,#+0
   \   0000002C   0120C0E5           STRB     R2,[R0, #+1]
   \   00000030   0600001A           BNE      ??ProcessNextSmile_1
   \   00000034   180000EA           B        ??ProcessNextSmile_2
    186            while ((c=*buf))
    187            {
    188              char *p;
    189              if ((c==10)||(c==13))
    190              {
    191                buf++;
    192                gipc1.name_to=ipc_my_name;
    193                gipc1.name_from=ipc_my_name;
    194                gipc1.data=0;
    195                GBS_SendMessage(MMI_CEPID,MSG_IPC,IPC_SMILE_PROCESSED,&gipc1);
    196                p_buf=buf;
    197                return;
    198              }
    199              p=strchr(buf,':');
    200              if (!p) break;
    201              zeromem(fn,128);
    202              strcpy(fn,SMILE_PATH);
    203              if (fn[strlen(fn)-1]!='\\') strcat(fn,_slash);
    204              c=p-buf;
    205              if (c>(127-strlen(fn))) break;
    206              strncpy(fn+strlen(fn),buf,c);
    207          //    snprintf(logmsg,255,"Process file %s...",fn);
    208          //    REDRAW();
    209              buf=p;
    210              dp=malloc(sizeof(DYNPNGICONLIST));
    211              zeromem(dp,sizeof(DYNPNGICONLIST));
    212              dp->icon=GetPicNByUnicodeSymbol(n_pic1);
    213              dp->img=CreateIMGHDRFromPngFile(fn,0);
    214              LockSched();
    215              if (SmilesImgList)
    216              {
    217                dp->next=SmilesImgList;
    218              }
    219              SmilesImgList=dp;
    220              UnlockSched();
    221              si=malloc(sizeof(S_SMILES));
    222              si->next=NULL;
    223              si->lines=NULL;
    224              si->botlines=NULL;
    225              si->uni_smile=n_pic1;
    226              if (s_bot)
    227              {
    228                //Не первый
    229                s_bot->next=si;
    230                s_bot=si;
    231              }
    232              else
    233              {
    234                //Первый
    235                s_top=si;
    236                s_bot=si;
    237              }
    238              n_pic1++;
    239              while (*buf!=10 && *buf!=13 && *buf!=0)
    240              {
    241                buf++;
    242                int i=0;
    243                while (buf[i]!=0&&buf [i]!=','&&buf [i]!=10&&buf[i]!=13)  i++;
    244                st=malloc(sizeof(STXT_SMILES)+i);
    245                strncpy(st->text,buf,i);
    246                st->text[i]=0;
    247                
    248                st->next=NULL;
    249                st->key=*((unsigned long *)st->text);
    250                st->mask=~(0xFFFFFFFFUL<<(8*i));
    251                st->key&=st->mask;
    252                if (si->botlines)
    253                {
    254          	si->botlines->next=st;
    255          	si->botlines=st;
    256                }
    257                else
    258                {
    259          	si->lines=st;
    260          	si->botlines=st;
    261                }
    262                buf+=i;
    263              }
    264              pictures_loaded++;
   \                     ??ProcessNextSmile_3:
   \   00000038   380094E5           LDR      R0,[R4, #+56]
   \   0000003C   010080E2           ADD      R0,R0,#+1
   \   00000040   380084E5           STR      R0,[R4, #+56]
    265              total_smiles++;
   \   00000044   280094E5           LDR      R0,[R4, #+40]
   \   00000048   010080E2           ADD      R0,R0,#+1
   \   0000004C   280084E5           STR      R0,[R4, #+40]
   \                     ??ProcessNextSmile_1:
   \   00000050   0080D6E5           LDRB     R8,[R6, #+0]
   \   00000054   000058E3           CMP      R8,#+0
   \   00000058   B000000A           BEQ      ??ProcessNextSmile_4
   \   0000005C   0A0058E3           CMP      R8,#+10
   \   00000060   0D005813           CMPNE    R8,#+13
   \   00000064   0E00001A           BNE      ??ProcessNextSmile_5
   \   00000068   ........           LDR      R0,??DataTable16  ;; ipc_my_name
   \   0000006C   085084E5           STR      R5,[R4, #+8]
   \   00000070   000084E5           STR      R0,[R4, #+0]
   \   00000074   040084E5           STR      R0,[R4, #+4]
   \   00000078   0430A0E1           MOV      R3,R4
   \   0000007C   0220A0E3           MOV      R2,#+2
   \   00000080   B010A0E3           MOV      R1,#+176
   \   00000084   DE1C81E3           ORR      R1,R1,#0xDE00
   \   00000088   0900A0E3           MOV      R0,#+9
   \   0000008C   420C80E3           ORR      R0,R0,#0x4200
   \   00000090   000100EF           SWI      +256
   \   00000094   016086E2           ADD      R6,R6,#+1
   \   00000098   3C6084E5           STR      R6,[R4, #+60]
   \                     ??ProcessNextSmile_2:
   \   0000009C   88D08DE2           ADD      SP,SP,#+136
   \   000000A0   F083BDE8           POP      {R4-R9,PC}
   \                     ??ProcessNextSmile_5:
   \   000000A4   3A10A0E3           MOV      R1,#+58
   \   000000A8   0600A0E1           MOV      R0,R6
   \   000000AC   180000EF           SWI      +24
   \   000000B0   0070B0E1           MOVS     R7,R0
   \   000000B4   9900000A           BEQ      ??ProcessNextSmile_4
   \   000000B8   8010A0E3           MOV      R1,#+128
   \   000000BC   08008DE2           ADD      R0,SP,#+8
   \   000000C0   1D0100EF           SWI      +285
   \   000000C4   78129FE5           LDR      R1,??ProcessNextSmile_0+0x4  ;; SMILE_PATH
   \   000000C8   08008DE2           ADD      R0,SP,#+8
   \   000000CC   1A0000EF           SWI      +26
   \   000000D0   08008DE2           ADD      R0,SP,#+8
   \   000000D4   1B0000EF           SWI      +27
   \   000000D8   08108DE2           ADD      R1,SP,#+8
   \   000000DC   010080E0           ADD      R0,R0,R1
   \   000000E0   010050E5           LDRB     R0,[R0, #-1]
   \   000000E4   5C0050E3           CMP      R0,#+92
   \   000000E8   0200000A           BEQ      ??ProcessNextSmile_6
   \   000000EC   04108DE2           ADD      R1,SP,#+4
   \   000000F0   08008DE2           ADD      R0,SP,#+8
   \   000000F4   170000EF           SWI      +23
   \                     ??ProcessNextSmile_6:
   \   000000F8   068047E0           SUB      R8,R7,R6
   \   000000FC   08008DE2           ADD      R0,SP,#+8
   \   00000100   1B0000EF           SWI      +27
   \   00000104   7F0060E2           RSB      R0,R0,#+127
   \   00000108   080050E1           CMP      R0,R8
   \   0000010C   8300003A           BCC      ??ProcessNextSmile_4
   \   00000110   08008DE2           ADD      R0,SP,#+8
   \   00000114   1B0000EF           SWI      +27
   \   00000118   0820A0E1           MOV      R2,R8
   \   0000011C   0610A0E1           MOV      R1,R6
   \   00000120   08308DE2           ADD      R3,SP,#+8
   \   00000124   030080E0           ADD      R0,R0,R3
   \   00000128   160100EF           SWI      +278
   \   0000012C   0760A0E1           MOV      R6,R7
   \   00000130   0C00A0E3           MOV      R0,#+12
   \   00000134   140000EF           SWI      +20
   \   00000138   0070A0E1           MOV      R7,R0
   \   0000013C   0C10A0E3           MOV      R1,#+12
   \   00000140   1D0100EF           SWI      +285
   \   00000144   480094E5           LDR      R0,[R4, #+72]
   \   00000148   E40100EF           SWI      +484
   \   0000014C   040087E5           STR      R0,[R7, #+4]
   \   00000150   0010A0E3           MOV      R1,#+0
   \   00000154   08008DE2           ADD      R0,SP,#+8
   \   00000158   E90100EF           SWI      +489
   \   0000015C   080087E5           STR      R0,[R7, #+8]
   \   00000160   460100EF           SWI      +326
   \   00000164   1C0094E5           LDR      R0,[R4, #+28]
   \   00000168   000050E3           CMP      R0,#+0
   \   0000016C   00008715           STRNE    R0,[R7, #+0]
   \   00000170   1C7084E5           STR      R7,[R4, #+28]
   \   00000174   470100EF           SWI      +327
   \   00000178   1000A0E3           MOV      R0,#+16
   \   0000017C   140000EF           SWI      +20
   \   00000180   0070A0E1           MOV      R7,R0
   \   00000184   005087E5           STR      R5,[R7, #+0]
   \   00000188   085087E5           STR      R5,[R7, #+8]
   \   0000018C   0C5087E5           STR      R5,[R7, #+12]
   \   00000190   480094E5           LDR      R0,[R4, #+72]
   \   00000194   040087E5           STR      R0,[R7, #+4]
   \   00000198   441094E5           LDR      R1,[R4, #+68]
   \   0000019C   010080E2           ADD      R0,R0,#+1
   \   000001A0   000051E3           CMP      R1,#+0
   \   000001A4   00708115           STRNE    R7,[R1, #+0]
   \   000001A8   18708405           STREQ    R7,[R4, #+24]
   \   000001AC   0710A0E1           MOV      R1,R7
   \   000001B0   441084E5           STR      R1,[R4, #+68]
   \   000001B4   480084E5           STR      R0,[R4, #+72]
   \   000001B8   020000EA           B        ??ProcessNextSmile_7
   \                     ??ProcessNextSmile_8:
   \   000001BC   089087E5           STR      R9,[R7, #+8]
   \                     ??ProcessNextSmile_9:
   \   000001C0   0C9087E5           STR      R9,[R7, #+12]
   \   000001C4   066088E0           ADD      R6,R8,R6
   \                     ??ProcessNextSmile_7:
   \   000001C8   0000D6E5           LDRB     R0,[R6, #+0]
   \   000001CC   0A0050E3           CMP      R0,#+10
   \   000001D0   0D005013           CMPNE    R0,#+13
   \   000001D4   00005013           CMPNE    R0,#+0
   \   000001D8   96FFFF0A           BEQ      ??ProcessNextSmile_3
   \   000001DC   016086E2           ADD      R6,R6,#+1
   \   000001E0   0080A0E3           MOV      R8,#+0
   \   000001E4   000000EA           B        ??ProcessNextSmile_10
   \                     ??ProcessNextSmile_11:
   \   000001E8   018088E2           ADD      R8,R8,#+1
   \                     ??ProcessNextSmile_10:
   \   000001EC   0600D8E7           LDRB     R0,[R8, +R6]
   \   000001F0   000050E3           CMP      R0,#+0
   \   000001F4   2C005013           CMPNE    R0,#+44
   \   000001F8   0A005013           CMPNE    R0,#+10
   \   000001FC   0D005013           CMPNE    R0,#+13
   \   00000200   F8FFFF1A           BNE      ??ProcessNextSmile_11
   \   00000204   0D0088E2           ADD      R0,R8,#+13
   \   00000208   140000EF           SWI      +20
   \   0000020C   0090A0E1           MOV      R9,R0
   \   00000210   0820A0E1           MOV      R2,R8
   \   00000214   0610A0E1           MOV      R1,R6
   \   00000218   0C0089E2           ADD      R0,R9,#+12
   \   0000021C   160100EF           SWI      +278
   \   00000220   090088E0           ADD      R0,R8,R9
   \   00000224   0C50C0E5           STRB     R5,[R0, #+12]
   \   00000228   00508DE5           STR      R5,[SP, #+0]
   \   0000022C   0000A0E3           MOV      R0,#+0
   \                     ??ProcessNextSmile_12:
   \   00000230   0D10A0E1           MOV      R1,SP
   \   00000234   0110D0E7           LDRB     R1,[R0, +R1]
   \   00000238   0910C0E7           STRB     R1,[R0, +R9]
   \   0000023C   010080E2           ADD      R0,R0,#+1
   \   00000240   040050E3           CMP      R0,#+4
   \   00000244   F9FFFFBA           BLT      ??ProcessNextSmile_12
   \   00000248   0C0099E5           LDR      R0,[R9, #+12]
   \   0000024C   0810A0E1           MOV      R1,R8
   \   00000250   0400C9E5           STRB     R0,[R9, #+4]
   \   00000254   2004A0E1           LSR      R0,R0,#+8
   \   00000258   0500C9E5           STRB     R0,[R9, #+5]
   \   0000025C   2004A0E1           LSR      R0,R0,#+8
   \   00000260   0600C9E5           STRB     R0,[R9, #+6]
   \   00000264   2004A0E1           LSR      R0,R0,#+8
   \   00000268   0700C9E5           STRB     R0,[R9, #+7]
   \   0000026C   0500E0E1           MVN      R0,R5
   \   00000270   8111A0E1           LSL      R1,R1,#+3
   \   00000274   1001E0E1           MVN      R0,R0, LSL R1
   \   00000278   0800C9E5           STRB     R0,[R9, #+8]
   \   0000027C   2004A0E1           LSR      R0,R0,#+8
   \   00000280   0900C9E5           STRB     R0,[R9, #+9]
   \   00000284   2004A0E1           LSR      R0,R0,#+8
   \   00000288   0A00C9E5           STRB     R0,[R9, #+10]
   \   0000028C   2004A0E1           LSR      R0,R0,#+8
   \   00000290   0B00C9E5           STRB     R0,[R9, #+11]
   \   00000294   0700D9E5           LDRB     R0,[R9, #+7]
   \   00000298   0610D9E5           LDRB     R1,[R9, #+6]
   \   0000029C   0A20D9E5           LDRB     R2,[R9, #+10]
   \   000002A0   000481E1           ORR      R0,R1,R0, LSL #+8
   \   000002A4   0510D9E5           LDRB     R1,[R9, #+5]
   \   000002A8   000481E1           ORR      R0,R1,R0, LSL #+8
   \   000002AC   0410D9E5           LDRB     R1,[R9, #+4]
   \   000002B0   000481E1           ORR      R0,R1,R0, LSL #+8
   \   000002B4   0B10D9E5           LDRB     R1,[R9, #+11]
   \   000002B8   011482E1           ORR      R1,R2,R1, LSL #+8
   \   000002BC   0920D9E5           LDRB     R2,[R9, #+9]
   \   000002C0   011482E1           ORR      R1,R2,R1, LSL #+8
   \   000002C4   0820D9E5           LDRB     R2,[R9, #+8]
   \   000002C8   011482E1           ORR      R1,R2,R1, LSL #+8
   \   000002CC   000001E0           AND      R0,R1,R0
   \   000002D0   0400C9E5           STRB     R0,[R9, #+4]
   \   000002D4   2004A0E1           LSR      R0,R0,#+8
   \   000002D8   0500C9E5           STRB     R0,[R9, #+5]
   \   000002DC   2004A0E1           LSR      R0,R0,#+8
   \   000002E0   0600C9E5           STRB     R0,[R9, #+6]
   \   000002E4   2004A0E1           LSR      R0,R0,#+8
   \   000002E8   0700C9E5           STRB     R0,[R9, #+7]
   \   000002EC   0C0097E5           LDR      R0,[R7, #+12]
   \   000002F0   000050E3           CMP      R0,#+0
   \   000002F4   B0FFFF0A           BEQ      ??ProcessNextSmile_8
   \   000002F8   00908DE5           STR      R9,[SP, #+0]
   \   000002FC   0000A0E3           MOV      R0,#+0
   \                     ??ProcessNextSmile_13:
   \   00000300   0C1097E5           LDR      R1,[R7, #+12]
   \   00000304   0D20A0E1           MOV      R2,SP
   \   00000308   0220D0E7           LDRB     R2,[R0, +R2]
   \   0000030C   0120C0E7           STRB     R2,[R0, +R1]
   \   00000310   010080E2           ADD      R0,R0,#+1
   \   00000314   040050E3           CMP      R0,#+4
   \   00000318   F8FFFFBA           BLT      ??ProcessNextSmile_13
   \   0000031C   A7FFFFEA           B        ??ProcessNextSmile_9
    266            }
    267            //fclose(f,&err);
    268            total_smiles=0;
   \                     ??ProcessNextSmile_4:
   \   00000320   285084E5           STR      R5,[R4, #+40]
    269            p_buf=NULL;
    270            mfree(s_buf);
   \   00000324   400094E5           LDR      R0,[R4, #+64]
   \   00000328   3C5084E5           STR      R5,[R4, #+60]
   \   0000032C   150000EF           SWI      +21
    271            s_buf=NULL;
   \   00000330   405084E5           STR      R5,[R4, #+64]
    272            REDRAW();
   \   00000334   720100EF           SWI      +370
    273          }
   \   00000338   88D08DE2           ADD      SP,SP,#+136
   \   0000033C   F083BDE8           POP      {R4-R9,PC}       ;; return
   \                     ??ProcessNextSmile_0:
   \   00000340   ........           DC32     `?<Constant "\\\\">`
   \   00000344   ........           DC32     SMILE_PATH
    274          

   \                                 In segment CODE, align 4, keep-with-next
    275          void FreeXStatusesImg(void)
    276          {
   \                     FreeXStatusesImg:
   \   00000000   70402DE9           PUSH     {R4-R6,LR}
    277            DYNPNGICONLIST *d;
    278            DYNPNGICONLIST *nd;
    279            LockSched();
    280            total_xstatuses=0;
   \   00000004   ........           LDR      R4,??DataTable15  ;; gipc1
   \   00000008   0050A0E3           MOV      R5,#+0
   \   0000000C   460100EF           SWI      +326
   \   00000010   2C5084E5           STR      R5,[R4, #+44]
    281            d=XStatusesImgList;
   \   00000014   206094E5           LDR      R6,[R4, #+32]
    282            XStatusesImgList=0;
   \   00000018   205084E5           STR      R5,[R4, #+32]
    283            UnlockSched();
   \   0000001C   470100EF           SWI      +327
    284            mfree(XStatusesIconArray);
   \   00000020   240094E5           LDR      R0,[R4, #+36]
   \   00000024   150000EF           SWI      +21
    285            XStatusesIconArray=NULL;
   \   00000028   245084E5           STR      R5,[R4, #+36]
   \   0000002C   000056E3           CMP      R6,#+0
   \   00000030   7080BD08           POPEQ    {R4-R6,PC}
    286            while(d)
    287            {
    288              if (d->img)
   \                     ??FreeXStatusesImg_0:
   \   00000034   080096E5           LDR      R0,[R6, #+8]
   \   00000038   000050E3           CMP      R0,#+0
   \   0000003C   0300000A           BEQ      ??FreeXStatusesImg_1
    289              {
    290                mfree(d->img->bitmap);
   \   00000040   080090E5           LDR      R0,[R0, #+8]
   \   00000044   150000EF           SWI      +21
    291                mfree(d->img);
   \   00000048   080096E5           LDR      R0,[R6, #+8]
   \   0000004C   150000EF           SWI      +21
    292              }
    293              nd=d->next;
   \                     ??FreeXStatusesImg_1:
   \   00000050   004096E5           LDR      R4,[R6, #+0]
    294              mfree(d);
   \   00000054   0600A0E1           MOV      R0,R6
   \   00000058   150000EF           SWI      +21
    295              d=nd;
   \   0000005C   0460B0E1           MOVS     R6,R4
    296            }
   \   00000060   F3FFFF1A           BNE      ??FreeXStatusesImg_0
    297          }
   \   00000064   7080BDE8           POP      {R4-R6,PC}       ;; return
    298          
    299          
    300          

   \                                 In segment CODE, align 4, keep-with-next
    301          void InitXStatusesImg(void)
    302          {
   \                     InitXStatusesImg:
   \   00000000   F0472DE9           PUSH     {R4-R10,LR}
    303            char fn[128];
    304            const char _slash[]="\\";
   \   00000004   38419FE5           LDR      R4,??InitXStatusesImg_0  ;; `?<Constant "\\\\">_1`
    305            FSTATS stat;
    306            unsigned err;
    307            
    308            FreeXStatusesImg();
    309            total_xstatuses=0;
   \   00000008   ........           LDR      R5,??DataTable15  ;; gipc1
    310            *(XStatusesIconArray=malloc(sizeof(int)))=S_ICONS[IS_NULLICON];
    311            xstatuses_load=1;
    312            n_pic2=FIRST_UCS2_BITMAP;
    313            gipc2.name_to=ipc_my_name;
    314            gipc2.name_from=ipc_my_name;
    315            gipc2.data=0;
    316            GBS_SendMessage(MMI_CEPID,MSG_IPC,IPC_XSTATUSIMG_PROCESSED,&gipc2);
    317            pictures_max = 0;
   \   0000000C   ........           LDR      R9,??DataTable14  ;; XSTATUSES_PATH
   \   00000010   B0D04DE2           SUB      SP,SP,#+176
   \   00000014   0010D4E5           LDRB     R1,[R4, #0]
   \   00000018   0D00A0E1           MOV      R0,SP
   \   0000001C   0080A0E3           MOV      R8,#+0
   \   00000020   0010C0E5           STRB     R1,[R0, #+0]
   \   00000024   0110D4E5           LDRB     R1,[R4, #+1]
   \   00000028   0960A0E3           MOV      R6,#+9
   \   0000002C   426C86E3           ORR      R6,R6,#0x4200
   \   00000030   0110C0E5           STRB     R1,[R0, #+1]
   \   00000034   ........           BL       FreeXStatusesImg
   \   00000038   2C8085E5           STR      R8,[R5, #+44]
   \   0000003C   0400A0E3           MOV      R0,#+4
   \   00000040   140000EF           SWI      +20
   \   00000044   FC109FE5           LDR      R1,??InitXStatusesImg_0+0x4  ;; S_ICONS + 68
   \   00000048   240085E5           STR      R0,[R5, #+36]
   \   0000004C   001091E5           LDR      R1,[R1, #+0]
   \   00000050   B070A0E3           MOV      R7,#+176
   \   00000054   001080E5           STR      R1,[R0, #+0]
   \   00000058   0100A0E3           MOV      R0,#+1
   \   0000005C   300085E5           STR      R0,[R5, #+48]
   \   00000060   2A00A0E3           MOV      R0,#+42
   \   00000064   E10C80E3           ORR      R0,R0,#0xE100
   \   00000068   4C0085E5           STR      R0,[R5, #+76]
   \   0000006C   ........           LDR      R0,??DataTable16  ;; ipc_my_name
   \   00000070   148085E5           STR      R8,[R5, #+20]
   \   00000074   0C0085E5           STR      R0,[R5, #+12]
   \   00000078   100085E5           STR      R0,[R5, #+16]
   \   0000007C   DE7C87E3           ORR      R7,R7,#0xDE00
   \   00000080   0C3085E2           ADD      R3,R5,#+12
   \   00000084   0320A0E3           MOV      R2,#+3
   \   00000088   0710A0E1           MOV      R1,R7
   \   0000008C   0600A0E1           MOV      R0,R6
   \   00000090   000100EF           SWI      +256
   \   00000094   348085E5           STR      R8,[R5, #+52]
   \   00000098   0880E0E1           MVN      R8,R8
    318            do
    319            {
    320              strcpy(fn,XSTATUSES_PATH);
   \                     ??InitXStatusesImg_1:
   \   0000009C   08008DE2           ADD      R0,SP,#+8
   \   000000A0   0910A0E1           MOV      R1,R9
   \   000000A4   1A0000EF           SWI      +26
    321              if (fn[strlen(fn)-1]!='\\') strcat(fn,_slash);
   \   000000A8   08008DE2           ADD      R0,SP,#+8
   \   000000AC   1B0000EF           SWI      +27
   \   000000B0   08108DE2           ADD      R1,SP,#+8
   \   000000B4   011041E2           SUB      R1,R1,#+1
   \   000000B8   0100D0E7           LDRB     R0,[R0, +R1]
   \   000000BC   5C0050E3           CMP      R0,#+92
   \   000000C0   0200000A           BEQ      ??InitXStatusesImg_2
   \   000000C4   0D10A0E1           MOV      R1,SP
   \   000000C8   08008DE2           ADD      R0,SP,#+8
   \   000000CC   170000EF           SWI      +23
    322              sprintf(fn+strlen(fn),"%d.png",pictures_max++);
   \                     ??InitXStatusesImg_2:
   \   000000D0   34A095E5           LDR      R10,[R5, #+52]
   \   000000D4   01008AE2           ADD      R0,R10,#+1
   \   000000D8   340085E5           STR      R0,[R5, #+52]
   \   000000DC   08008DE2           ADD      R0,SP,#+8
   \   000000E0   1B0000EF           SWI      +27
   \   000000E4   0A20A0E1           MOV      R2,R10
   \   000000E8   041084E2           ADD      R1,R4,#+4
   \   000000EC   08308DE2           ADD      R3,SP,#+8
   \   000000F0   030080E0           ADD      R0,R0,R3
   \   000000F4   160000EF           SWI      +22
    323              if (GetFileStats(fn,&stat,&err)==-1) break;
   \   000000F8   04208DE2           ADD      R2,SP,#+4
   \   000000FC   88108DE2           ADD      R1,SP,#+136
   \   00000100   08008DE2           ADD      R0,SP,#+8
   \   00000104   840000EF           SWI      +132
   \   00000108   080050E1           CMP      R0,R8
    324            }  
    325            while (stat.size>0);
   \   0000010C   8C009D15           LDRNE    R0,[SP, #+140]
   \   00000110   00005013           CMPNE    R0,#+0
   \   00000114   E0FFFF1A           BNE      ??InitXStatusesImg_1
    326            pictures_max--;
   \   00000118   340095E5           LDR      R0,[R5, #+52]
   \   0000011C   010040E2           SUB      R0,R0,#+1
   \   00000120   340085E5           STR      R0,[R5, #+52]
    327            CheckSmiles();
   \   00000124   ........           BL       CheckSmiles
    328            
    329            GBS_SendMessage(MMI_CEPID,MSG_IPC,IPC_XSTATUSIMG_PROCESSED,&gipc2);
   \   00000128   0C3085E2           ADD      R3,R5,#+12
   \   0000012C   0320A0E3           MOV      R2,#+3
   \   00000130   0710A0E1           MOV      R1,R7
   \   00000134   0600A0E1           MOV      R0,R6
   \   00000138   000100EF           SWI      +256
    330          }
   \   0000013C   B0D08DE2           ADD      SP,SP,#+176
   \   00000140   F087BDE8           POP      {R4-R10,PC}      ;; return
   \                     ??InitXStatusesImg_0:
   \   00000144   ........           DC32     `?<Constant "\\\\">_1`
   \   00000148   ........           DC32     S_ICONS + 68
    331          

   \                                 In segment CODE, align 4, keep-with-next
    332          void ProcessNextXStatImg(void)
    333          {
    334            char fn[128];
    335            const char _slash[]="\\";
   \                     ProcessNextXStatImg:
   \   00000000   68119FE5           LDR      R1,??ProcessNextXStatImg_0  ;; `?<Constant "\\\\">_2`
   \   00000004   F0402DE9           PUSH     {R4-R7,LR}
   \   00000008   B0D04DE2           SUB      SP,SP,#+176
   \   0000000C   0020D1E5           LDRB     R2,[R1, #0]
   \   00000010   0D00A0E1           MOV      R0,SP
   \   00000014   0020C0E5           STRB     R2,[R0, #+0]
   \   00000018   0120D1E5           LDRB     R2,[R1, #+1]
    336            DYNPNGICONLIST *dp;
    337            unsigned int err;
    338            FSTATS stat;
    339            int i;
    340            
    341            strcpy(fn,XSTATUSES_PATH);
   \   0000001C   ........           LDR      R1,??DataTable14  ;; XSTATUSES_PATH
   \   00000020   0120C0E5           STRB     R2,[R0, #+1]
   \   00000024   08008DE2           ADD      R0,SP,#+8
   \   00000028   1A0000EF           SWI      +26
    342            if (fn[strlen(fn)-1]!='\\') strcat(fn,_slash);
   \   0000002C   08008DE2           ADD      R0,SP,#+8
   \   00000030   1B0000EF           SWI      +27
   \   00000034   08108DE2           ADD      R1,SP,#+8
   \   00000038   010080E0           ADD      R0,R0,R1
   \   0000003C   010050E5           LDRB     R0,[R0, #-1]
   \   00000040   5C0050E3           CMP      R0,#+92
   \   00000044   0200000A           BEQ      ??ProcessNextXStatImg_1
   \   00000048   0D10A0E1           MOV      R1,SP
   \   0000004C   08008DE2           ADD      R0,SP,#+8
   \   00000050   170000EF           SWI      +23
    343            sprintf(fn+strlen(fn),"%d.png",total_xstatuses);
   \                     ??ProcessNextXStatImg_1:
   \   00000054   ........           LDR      R4,??DataTable15  ;; gipc1
   \   00000058   08008DE2           ADD      R0,SP,#+8
   \   0000005C   2C5094E5           LDR      R5,[R4, #+44]
   \   00000060   1B0000EF           SWI      +27
   \   00000064   08119FE5           LDR      R1,??ProcessNextXStatImg_0+0x4  ;; `?<Constant "\\\\">_1` + 4
   \   00000068   0520A0E1           MOV      R2,R5
   \   0000006C   08308DE2           ADD      R3,SP,#+8
   \   00000070   030080E0           ADD      R0,R0,R3
   \   00000074   160000EF           SWI      +22
    344            if (GetFileStats(fn,&stat,&err)!=-1)
   \   00000078   04208DE2           ADD      R2,SP,#+4
   \   0000007C   88108DE2           ADD      R1,SP,#+136
   \   00000080   08008DE2           ADD      R0,SP,#+8
   \   00000084   840000EF           SWI      +132
   \   00000088   010070E3           CMN      R0,#+1
    345            {
    346              if (stat.size>0)
   \   0000008C   8C009D15           LDRNE    R0,[SP, #+140]
   \   00000090   0050A0E3           MOV      R5,#+0
   \   00000094   00005013           CMPNE    R0,#+0
   \   00000098   3100000A           BEQ      ??ProcessNextXStatImg_2
    347              {
    348                dp=malloc(sizeof(DYNPNGICONLIST));
   \   0000009C   0C00A0E3           MOV      R0,#+12
   \   000000A0   140000EF           SWI      +20
   \   000000A4   0070A0E1           MOV      R7,R0
    349                zeromem(dp,sizeof(DYNPNGICONLIST));
   \   000000A8   0C10A0E3           MOV      R1,#+12
   \   000000AC   1D0100EF           SWI      +285
    350                dp->icon=i=GetPicNByUnicodeSymbol(n_pic2);
   \   000000B0   4C0094E5           LDR      R0,[R4, #+76]
   \   000000B4   E40100EF           SWI      +484
   \   000000B8   0060A0E1           MOV      R6,R0
   \   000000BC   046087E5           STR      R6,[R7, #+4]
    351                dp->img=CreateIMGHDRFromPngFile(fn,0);
   \   000000C0   0010A0E3           MOV      R1,#+0
   \   000000C4   08008DE2           ADD      R0,SP,#+8
   \   000000C8   E90100EF           SWI      +489
   \   000000CC   080087E5           STR      R0,[R7, #+8]
    352                LockSched();
   \   000000D0   460100EF           SWI      +326
    353                if (XStatusesImgList)
   \   000000D4   200094E5           LDR      R0,[R4, #+32]
   \   000000D8   000050E3           CMP      R0,#+0
    354                {
    355          	dp->next=XStatusesImgList;
   \   000000DC   00008715           STRNE    R0,[R7, #+0]
    356                }
    357                XStatusesImgList=dp;
   \   000000E0   207084E5           STR      R7,[R4, #+32]
    358                UnlockSched();
   \   000000E4   470100EF           SWI      +327
    359                total_xstatuses++;
   \   000000E8   2C0094E5           LDR      R0,[R4, #+44]
   \   000000EC   010080E2           ADD      R0,R0,#+1
   \   000000F0   2C0084E5           STR      R0,[R4, #+44]
    360                pictures_loaded++;
   \   000000F4   380094E5           LDR      R0,[R4, #+56]
   \   000000F8   010080E2           ADD      R0,R0,#+1
   \   000000FC   380084E5           STR      R0,[R4, #+56]
    361                XStatusesIconArray=realloc(XStatusesIconArray,(total_xstatuses*sizeof(int)));
   \   00000100   2C0094E5           LDR      R0,[R4, #+44]
   \   00000104   0011A0E1           LSL      R1,R0,#+2
   \   00000108   240094E5           LDR      R0,[R4, #+36]
   \   0000010C   BA0000EF           SWI      +186
   \   00000110   240084E5           STR      R0,[R4, #+36]
    362                *(XStatusesIconArray+(total_xstatuses-1))=i;
   \   00000114   2C0094E5           LDR      R0,[R4, #+44]
   \   00000118   241094E5           LDR      R1,[R4, #+36]
    363                n_pic2++;
    364                gipc2.name_to=ipc_my_name;
    365                gipc2.name_from=ipc_my_name;
    366                gipc2.data=0;
    367                GBS_SendMessage(MMI_CEPID,MSG_IPC,IPC_XSTATUSIMG_PROCESSED,&gipc2);
   \   0000011C   0C3084E2           ADD      R3,R4,#+12
   \   00000120   000181E0           ADD      R0,R1,R0, LSL #+2
   \   00000124   046000E5           STR      R6,[R0, #-4]
   \   00000128   4C0094E5           LDR      R0,[R4, #+76]
   \   0000012C   145084E5           STR      R5,[R4, #+20]
   \   00000130   010080E2           ADD      R0,R0,#+1
   \   00000134   4C0084E5           STR      R0,[R4, #+76]
   \   00000138   ........           LDR      R0,??DataTable16  ;; ipc_my_name
   \   0000013C   0320A0E3           MOV      R2,#+3
   \   00000140   0C0084E5           STR      R0,[R4, #+12]
   \   00000144   100084E5           STR      R0,[R4, #+16]
   \   00000148   B010A0E3           MOV      R1,#+176
   \   0000014C   DE1C81E3           ORR      R1,R1,#0xDE00
   \   00000150   0900A0E3           MOV      R0,#+9
   \   00000154   420C80E3           ORR      R0,R0,#0x4200
   \   00000158   000100EF           SWI      +256
    368                return;
   \   0000015C   B0D08DE2           ADD      SP,SP,#+176
   \   00000160   F080BDE8           POP      {R4-R7,PC}
    369              }
    370            }
    371            xstatuses_load=0;
   \                     ??ProcessNextXStatImg_2:
   \   00000164   305084E5           STR      R5,[R4, #+48]
    372          //  SUBPROC((void *)InitSmiles);
    373          }
   \   00000168   B0D08DE2           ADD      SP,SP,#+176
   \   0000016C   F080BDE8           POP      {R4-R7,PC}       ;; return
   \                     ??ProcessNextXStatImg_0:
   \   00000170   ........           DC32     `?<Constant "\\\\">_2`
   \   00000174   ........           DC32     `?<Constant "\\\\">_1` + 4

   \                                 In segment CODE, align 4, keep-with-next
   \                     ??DataTable1:
   \   00000000   ........           DC32     gipc1 + 24

   \                                 In segment CODE, align 4, keep-with-next
   \                     ??DataTable6:
   \   00000000   ........           DC32     SMILE_FILE

   \                                 In segment CODE, align 4, keep-with-next
   \                     ??DataTable8:
   \   00000000   ........           DC32     gipc1

   \                                 In segment CODE, align 4, keep-with-next
   \                     ??DataTable14:
   \   00000000   ........           DC32     XSTATUSES_PATH

   \                                 In segment CODE, align 4, keep-with-next
   \                     ??DataTable15:
   \   00000000   ........           DC32     gipc1

   \                                 In segment CODE, align 4, keep-with-next
   \                     ??DataTable16:
   \   00000000   ........           DC32     ipc_my_name

   \                                 In segment DATA_C, align 1, align-sorted
   \                     `?<Constant "\\\\">`:
   \   00000000   5C00               DC8 "\\"

   \                                 In segment DATA_C, align 4, align-sorted
   \                     `?<Constant "\\\\">_1`:
   \   00000000   5C00               DC8 "\\"
   \   00000002   0000               DC8 0, 0
   \   00000004   25642E706E67       DC8 "%d.png"
   \              00          
   \   0000000B   00                 DC8 0

   \                                 In segment DATA_C, align 1, align-sorted
   \                     `?<Constant "\\\\">_2`:
   \   00000000   5C00               DC8 "\\"

   Maximum stack usage in bytes:

     Function            CSTACK
     --------            ------
     CheckSmiles            64
     FindSmileById           0
     FindSmileByUni          0
     FreeSmiles             28
     FreeXStatusesImg       16
     InitSmiles             68
     InitXStatusesImg      208
     ProcessNextSmile      164
     ProcessNextXStatImg   196


   Segment part sizes:

     Function/Label      Bytes
     --------------      -----
     gipc1                 80
     FindSmileById         44
     FindSmileByUni        44
     FreeSmiles           212
     InitSmiles           216
     CheckSmiles          228
     ProcessNextSmile     840
     FreeXStatusesImg     104
     InitXStatusesImg     332
     ProcessNextXStatImg  376
     ??DataTable1           4
     ??DataTable6           4
     ??DataTable8           4
     ??DataTable14          4
     ??DataTable15          4
     ??DataTable16          4
     ?<Constant "\\">       2
     ?<Constant "\\">_1    12
     ?<Constant "\\">_2     2
      Others               48

 
 2 456 bytes in segment CODE
    16 bytes in segment DATA_C
    80 bytes in segment DATA_Z
    12 bytes in segment INITTAB
 
 2 420 bytes of CODE  memory (+ 48 bytes shared)
    16 bytes of CONST memory
    80 bytes of DATA  memory

Errors: none
Warnings: none
