##############################################################################
#                                                                            #
# IAR ARM ANSI C/C++ Compiler V4.42A/W32 EVALUATION    09/Mar/2011  21:52:44 #
# Copyright 1999-2005 IAR Systems. All rights reserved.                      #
#                                                                            #
#    Cpu mode        =  interwork                                            #
#    Endian          =  little                                               #
#    Stack alignment =  4                                                    #
#    Source file     =  C:\arm\miosd_src\main.c                              #
#    Command line    =  C:\arm\miosd_src\main.c -D NEWSGOLD -D ELKA -lC      #
#                       C:\arm\miosd_src\Release_ELKA\List\ -lA              #
#                       C:\arm\miosd_src\Release_ELKA\List\ -o               #
#                       C:\arm\miosd_src\Release_ELKA\Obj\ -s9 --no_unroll   #
#                       --cpu_mode arm --endian little --cpu ARM926EJ-S      #
#                       --stack_align 4 --interwork -e --fpu None            #
#                       --dlib_config "C:\arm2\Embedded Workbench 4.0        #
#                       Evaluation\ARM\LIB\dl5tpainl8n.h" -I                 #
#                       "C:\arm2\Embedded Workbench 4.0                      #
#                       Evaluation\ARM\INC\" --inline_threshold=2            #
#    List file       =  C:\arm\miosd_src\Release_ELKA\List\main.lst          #
#    Object file     =  C:\arm\miosd_src\Release_ELKA\Obj\main.r79           #
#                                                                            #
#                                                                            #
##############################################################################

C:\arm\miosd_src\main.c
      1          #include "..\inc\swilib.h"
      2          #include "conf_loader.h"
      3          #include "gprs_write.h"
      4          #include "string_works.h"
      5          #include "missed_events.h"
      6          #include "language.h"
      7          
      8          extern const int use_plugin;
      9          extern const char COLORfont1[4];
     10          extern const char COLORfont2[4];
     11          extern const unsigned int font1;
     12          extern const unsigned int font2;
     13          int naticq_plugin;
     14          char naticq_time[16];
     15          char naticq_ping[16]="none";
     16          void Execute();
     17          
     18          extern const int engade_mis;
     19          extern unsigned long  strtoul (const char *nptr,char **endptr,int base);
     20          
     21          extern const char linksound[64];
     22          GBSTMR rs_tmr;
     23          
     24          
     25          CSM_DESC icsmd;
     26          int ker_state=0;
     27          
     28          int r_s=20;
     29          int r_m;
     30          int r_h;
     31          int mode_enter;
     32          int mode;
     33          int pos=1;
     34          int phase;
     35          int pos_main_x;
     36          int pos_main_y;
     37          int lock_keys;
     38          GBSTMR mytmr;
     39          int pos_link_x;
     40          int pos_link_y;
     41          int pos_msg_x;
     42          int pos_msg_y;
     43          char chinfo[32];
     44          char start_g2[32];
     45          int monthc;
     46          char month[10];
     47          int hmm;
     48          int ggg;
     49          int trafiks;
     50          int start_traffic;
     51          GBSTMR mytmr2;
     52          int ffq;
     53          char gpinfo[32];
     54          int isfile;
     55          extern int result3;
     56          int switch_gprs_info;
     57          int do_st=3;
     58          extern const char link1_name[64];
     59          extern const char link2_name[64];
     60          extern const char link3_name[64];
     61          extern const char link1[64];
     62          extern const char link2[64];
     63          extern const char link3[64];
     64          int con;
     65          int charge_m;
     66          int charge_s;
     67          GBSTMR charger;
     68          int g_min;
     69          int g_sec;
     70          int g_hour;
     71          GBSTMR gipi;
     72          #define IPC_RECIEVE_MSG 55

   \                                 In segment DATA_C, align 4, align-sorted
   \                     `?<Constant "MIOSD_mod update">`:
   \   00000000   4D494F53445F       DC8 "MIOSD_mod update"
   \              6D6F64207570
   \              6461746500  
   \   00000011   000000             DC8 0, 0, 0
   \   00000014   6E6F6E6500         DC8 "none"
   \   00000019   000000             DC8 0, 0, 0
   \   0000001C   436861726769       DC8 "Charging(%dmin)"
   \              6E672825646D
   \              696E2900    
   \   0000002C   253032643A25       DC8 "%02d:%02d, %02d-%02d"
   \              3032642C2025
   \              3032642D2530
   \              326400      
   \   00000041   000000             DC8 0, 0, 0
   \   00000044   303A5C7A6269       DC8 "0:\\zbin\\miosd\\miosd.file"
   \              6E5C6D696F73
   \              645C6D696F73
   \              642E66696C65
   \              00          
   \   0000005D   000000             DC8 0, 0, 0
   \   00000060   4E6576657200       DC8 "Never"
   \   00000066   0000               DC8 0, 0
     73          const char ipc_my_name[]="MioSD";
   \                     ipc_my_name:
   \   00000068   4D696F534400       DC8 "MioSD"
   \   0000006E   0000               DC8 0, 0
     74          extern GBSTMR missedt;
     75          int rem_mis;
     76          extern int alt_state;
     77          extern const unsigned int CALL_BUTTON;
     78          extern const unsigned int CALL_BUTTON2;
     79          int first_con=1;
     80          int key_mode;
     81          int app_pos=1;
     82          int pos_link2_x;
     83          int pos_link2_y;
     84          
     85          
     86          
     87          IMGHDR screen={0,0,8,""};
     88          

   \                                 In segment CODE, align 4, keep-with-next
     89          void DrwImg(IMGHDR *img, int x, int y, char *pen, char *brush)
     90          {
   \                     DrwImg:
   \   00000000   70402DE9           PUSH     {R4-R6,LR}
   \   00000004   2CD04DE2           SUB      SP,SP,#+44
   \   00000008   3C609DE5           LDR      R6,[SP, #+60]
   \   0000000C   0040A0E1           MOV      R4,R0
     91            RECT rc;
     92            DRWOBJ drwobj;
     93            StoreXYWHtoRECT(&rc,x,y,img->w,img->h);
   \   00000010   B200D4E1           LDRH     R0,[R4, #+2]
   \   00000014   0350A0E1           MOV      R5,R3
   \   00000018   01002DE9           PUSH     {R0}
   \   0000001C   B030D4E1           LDRH     R3,[R4, #+0]
   \   00000020   04008DE2           ADD      R0,SP,#+4
   \   00000024   330100EF           SWI      +307
     94            SetPropTo_Obj5(&drwobj,&rc,0,img);
   \   00000028   0430A0E1           MOV      R3,R4
   \   0000002C   0020A0E3           MOV      R2,#+0
   \   00000030   04108DE2           ADD      R1,SP,#+4
   \   00000034   0C008DE2           ADD      R0,SP,#+12
   \   00000038   510100EF           SWI      +337
     95            SetColor(&drwobj,pen,brush);
   \   0000003C   0620A0E1           MOV      R2,R6
   \   00000040   0510A0E1           MOV      R1,R5
   \   00000044   0C008DE2           ADD      R0,SP,#+12
   \   00000048   4B0100EF           SWI      +331
     96            DrawObject(&drwobj);
   \   0000004C   0C008DE2           ADD      R0,SP,#+12
   \   00000050   2A0100EF           SWI      +298
     97          }
   \   00000054   30D08DE2           ADD      SP,SP,#+48
   \   00000058   7080BDE8           POP      {R4-R6,PC}       ;; return
     98          

   \                                 In segment CODE, align 4, keep-with-next
     99          void DoScreen()
    100          {
   \                     DoScreen:
   \   00000000   F0402DE9           PUSH     {R4-R7,LR}
    101              int ScrH=ScreenH();
    102              int ScrW=ScreenW();
    103              char *ms=RamScreenBuffer();
    104              screen.w=ScrW;
   \   00000004   ........           LDR      R7,??DataTable0  ;; screen
   \   00000008   898100EF           SWI      +33161
   \   0000000C   0040A0E1           MOV      R4,R0
   \   00000010   888100EF           SWI      +33160
   \   00000014   0050A0E1           MOV      R5,R0
   \   00000018   E08000EF           SWI      +32992
   \   0000001C   0060A0E1           MOV      R6,R0
    105              screen.h=ScrH;
    106              screen.bitmap=malloc(ScrW*ScrH*2);
   \   00000020   940500E0           MUL      R0,R4,R5
   \   00000024   B050C7E1           STRH     R5,[R7, #+0]
   \   00000028   B240C7E1           STRH     R4,[R7, #+2]
   \   0000002C   8040A0E1           LSL      R4,R0,#+1
   \   00000030   0400A0E1           MOV      R0,R4
   \   00000034   140000EF           SWI      +20
   \   00000038   080087E5           STR      R0,[R7, #+8]
    107              memcpy(screen.bitmap, ms, ScrW*ScrH*2);
   \   0000003C   0420A0E1           MOV      R2,R4
   \   00000040   0610A0E1           MOV      R1,R6
   \   00000044   1E0100EF           SWI      +286
    108          }
   \   00000048   F080BDE8           POP      {R4-R7,PC}       ;; return
    109          

   \                                 In segment CODE, align 4, keep-with-next
    110          void DoShowIt()
    111          {
   \                     DoShowIt:
   \   00000000   F04F2DE9           PUSH     {R4-R11,LR}
    112            switch(phase)
   \   00000004   ........           LDR      R4,??DataTable15  ;; screen
   \   00000008   840094E5           LDR      R0,[R4, #+132]
   \   0000000C   74A094E5           LDR      R10,[R4, #+116]
   \   00000010   78C094E5           LDR      R12,[R4, #+120]
   \   00000014   D82094E5           LDR      R2,[R4, #+216]
   \   00000018   90E094E5           LDR      LR,[R4, #+144]
   \   0000001C   E43094E5           LDR      R3,[R4, #+228]
   \   00000020   1C739FE5           LDR      R7,??DoShowIt_1  ;; DoShowIt
   \   00000024   011040E2           SUB      R1,R0,#+1
   \   00000028   0250A0E3           MOV      R5,#+2
   \   0000002C   506FA0E3           MOV      R6,#+320
   \   00000030   0380A0E3           MOV      R8,#+3
   \   00000034   0790A0E3           MOV      R9,#+7
   \   00000038   01A04AE2           SUB      R10,R10,#+1
   \   0000003C   07005AE3           CMP      R10,#+7
   \   00000040   F08FBD88           POPHI    {R4-R11,PC}
   \   00000044   01BF8FE2           ADR      R11,??DoShowIt_0
   \   00000048   0AB0DBE7           LDRB     R11,[R11, R10]
   \   0000004C   0BF18FE0           ADD      PC,PC,R11, LSL #+2
   \                     ??DoShowIt_0:
   \   00000050   011B555C           DC8      +1,+27,+85,+92
   \   00000054   7D8FA8B0           DC8      +125,+143,+168,+176
    113            {
    114          case 1:
    115            {
    116              if(key_mode==1)
   \                     ??DoShowIt_2:
   \   00000058   010052E3           CMP      R2,#+1
   \   0000005C   0800001A           BNE      ??DoShowIt_3
    117              {
    118              if(pos_main_x<0)
   \   00000060   00005CE3           CMP      R12,#+0
    119              {
    120                pos_main_x++;
   \   00000064   01008C42           ADDMI    R0,R12,#+1
   \   00000068   78008445           STRMI    R0,[R4, #+120]
    121              }
    122              else
    123                phase=2;
   \   0000006C   74508455           STRPL    R5,[R4, #+116]
    124              DirectRedrawGUI();
   \   00000070   3F0100EF           SWI      +319
    125              GBS_StartTimerProc(&mytmr, 3, DoShowIt);
   \   00000074   0720A0E1           MOV      R2,R7
   \   00000078   0310A0E3           MOV      R1,#+3
   \   0000007C   040086E0           ADD      R0,R6,R4
   \   00000080   4D0000EF           SWI      +77
    126              }
    127              if(key_mode==2)
   \                     ??DoShowIt_3:
   \   00000084   D80094E5           LDR      R0,[R4, #+216]
   \   00000088   020050E3           CMP      R0,#+2
   \   0000008C   F08FBD18           POPNE    {R4-R11,PC}
    128              {
    129              if(pos_main_x>112)
   \   00000090   780094E5           LDR      R0,[R4, #+120]
   \   00000094   710050E3           CMP      R0,#+113
    130              {
    131                pos_main_x--;
   \   00000098   010040A2           SUBGE    R0,R0,#+1
   \   0000009C   780084A5           STRGE    R0,[R4, #+120]
   \   000000A0   000000AA           BGE      ??DoShowIt_4
    132              }
    133              else
    134                phase=2;
   \                     ??DoShowIt_5:
   \   000000A4   745084E5           STR      R5,[R4, #+116]
    135              DirectRedrawGUI();
   \                     ??DoShowIt_4:
   \   000000A8   3F0100EF           SWI      +319
    136              GBS_StartTimerProc(&mytmr, 3, DoShowIt);
   \   000000AC   0720A0E1           MOV      R2,R7
   \   000000B0   0310A0E3           MOV      R1,#+3
   \   000000B4   040086E0           ADD      R0,R6,R4
   \   000000B8   4D0000EF           SWI      +77
    137              }
    138            }
    139            break;
    140          case 2:
    141            {
    142              if(key_mode==1)
    143              {
    144              if(pos_link_x<20)
    145              {
    146                pos_link_x++;
    147                DirectRedrawGUI();
    148              }
    149              else
    150              {
    151                DirectRedrawGUI();
    152                if(pos==5)
    153                {
    154                  pos_msg_y=pos_link_y-34;
    155                  pos_link2_y=pos_msg_y+24;
    156                  pos_link2_x=pos_msg_x-12+(app_pos*20);
    157                  phase=7;
    158                }
    159                else
    160                phase=3;
    161              }
    162              GBS_StartTimerProc(&mytmr, 3, DoShowIt);
    163              }
    164              if(key_mode==2)
    165              {
    166              if(pos_link_x>102)
    167              {
    168                pos_link_x--;
    169                DirectRedrawGUI();
    170              }
    171              else
    172              {
    173                DirectRedrawGUI();
    174                if(pos==5)
    175                {
    176                  pos_msg_y=pos_link_y-34;
    177                  pos_link2_y=pos_msg_y+24;
    178                  pos_link2_x=pos_msg_x-12+(app_pos*20);
    179                  phase=7;
    180                }
    181                else
    182                phase=3;
    183              }
    184              GBS_StartTimerProc(&mytmr, 3, DoShowIt);
    185              }
    186            }
    187            break;
    188          case 3:
    189            {
    190              pos_msg_y=pos_link_y-34;
    191              lock_keys=1;
    192              DirectRedrawGUI();
    193            }
    194            break;
    195          case 4:
    196            {
    197              if(key_mode==1)
    198              {
    199              if(pos_link_x>10)
    200              {
    201                pos_link_x--;
    202              }
    203              else
    204              {
    205                pos_link_y=pos_main_y-12+(pos*20);
    206                phase=2;
    207              }
    208              DirectRedrawGUI();
    209              GBS_StartTimerProc(&mytmr, 3, DoShowIt);
    210              }
    211              if(key_mode==2)
    212              {
    213              if(pos_link_x<112)
    214              {
    215                pos_link_x++;
    216              }
    217              else
    218              {
    219                pos_link_y=pos_main_y-12+(pos*20);
    220                phase=2;
    221              }
    222              DirectRedrawGUI();
    223              GBS_StartTimerProc(&mytmr, 3, DoShowIt);
    224              }
    225            }
    226            break;
    227          case 5:
    228            {
    229              if(key_mode==1)
    230              {
    231              if(pos_link_x>10)
    232                pos_link_x--;
    233              else
    234                phase=6;
    235              DirectRedrawGUI();
    236              GBS_StartTimerProc(&mytmr, 3, DoShowIt);
    237              }
    238              if(key_mode==2)
    239              {
    240              if(pos_link_x<112)
    241                pos_link_x++;
    242              else
    243                phase=6;
    244              DirectRedrawGUI();
    245              GBS_StartTimerProc(&mytmr, 3, DoShowIt);
    246              }
    247            }
    248            break;
    249          case 6:
    250            {
    251              if(key_mode==1)
    252              {
    253              if(pos_main_x>-20)
    254              {
    255                pos_main_x--;
    256                DirectRedrawGUI();
    257                GBS_StartTimerProc(&mytmr, 3, DoShowIt);
    258              }
    259              else;
    260              //  CloseCSM(MAINCSM_ID);
    261              }
    262              if(key_mode==2)
    263              {
    264              if(pos_main_x<240)
    265              {
    266                pos_main_x++;
    267                DirectRedrawGUI();
    268                GBS_StartTimerProc(&mytmr, 3, DoShowIt);
    269              }
    270              else;
    271             //   CloseCSM(MAINCSM_ID);
    272              }
    273            }
    274            break;
    275          case 7:
    276            {
    277              if(pos_link2_y>(pos_msg_y+14))
    278              {
    279                pos_link2_y--;
    280              }
    281              else
    282                phase=3;
    283              DirectRedrawGUI();
    284              GBS_StartTimerProc(&mytmr, 3, DoShowIt);
    285            }
    286            break;
    287          case 8:
    288            {
    289              {
    290              if(pos_link2_y<pos_msg_y+24)
    291              {
    292                pos_link2_y++;
    293              }
    294              else
    295              {
    296                phase=7;
    297                pos_link2_x=pos_msg_x-12+(app_pos*20);
    298              }
    299              DirectRedrawGUI();
    300              GBS_StartTimerProc(&mytmr, 3, DoShowIt);
    301            }
    302            }
    303            break;
    304            }
    305          }
   \                     ??DoShowIt_6:
   \   000000BC   F08FBDE8           POP      {R4-R11,PC}      ;; return
   \                     ??DoShowIt_7:
   \   000000C0   010052E3           CMP      R2,#+1
   \   000000C4   1B00001A           BNE      ??DoShowIt_8
   \   000000C8   140050E3           CMP      R0,#+20
   \   000000CC   030000AA           BGE      ??DoShowIt_9
   \   000000D0   010080E2           ADD      R0,R0,#+1
   \   000000D4   840084E5           STR      R0,[R4, #+132]
   \   000000D8   3F0100EF           SWI      +319
   \   000000DC   110000EA           B        ??DoShowIt_10
   \                     ??DoShowIt_9:
   \   000000E0   3F0100EF           SWI      +319
   \   000000E4   700094E5           LDR      R0,[R4, #+112]
   \   000000E8   050050E3           CMP      R0,#+5
   \   000000EC   0C00001A           BNE      ??DoShowIt_11
   \   000000F0   880094E5           LDR      R0,[R4, #+136]
   \   000000F4   DC1094E5           LDR      R1,[R4, #+220]
   \   000000F8   220040E2           SUB      R0,R0,#+34
   \   000000FC   900084E5           STR      R0,[R4, #+144]
   \   00000100   180080E2           ADD      R0,R0,#+24
   \   00000104   E40084E5           STR      R0,[R4, #+228]
   \   00000108   8C0094E5           LDR      R0,[R4, #+140]
   \   0000010C   1420A0E3           MOV      R2,#+20
   \   00000110   920120E0           MLA      R0,R2,R1,R0
   \   00000114   749084E5           STR      R9,[R4, #+116]
   \   00000118   0C0040E2           SUB      R0,R0,#+12
   \   0000011C   E00084E5           STR      R0,[R4, #+224]
   \   00000120   000000EA           B        ??DoShowIt_10
   \                     ??DoShowIt_11:
   \   00000124   748084E5           STR      R8,[R4, #+116]
   \                     ??DoShowIt_10:
   \   00000128   0720A0E1           MOV      R2,R7
   \   0000012C   0310A0E3           MOV      R1,#+3
   \   00000130   040086E0           ADD      R0,R6,R4
   \   00000134   4D0000EF           SWI      +77
   \                     ??DoShowIt_8:
   \   00000138   D80094E5           LDR      R0,[R4, #+216]
   \   0000013C   020050E3           CMP      R0,#+2
   \   00000140   F08FBD18           POPNE    {R4-R11,PC}
   \   00000144   840094E5           LDR      R0,[R4, #+132]
   \   00000148   670050E3           CMP      R0,#+103
   \   0000014C   020000BA           BLT      ??DoShowIt_12
   \   00000150   010040E2           SUB      R0,R0,#+1
   \   00000154   840084E5           STR      R0,[R4, #+132]
   \   00000158   5F0000EA           B        ??DoShowIt_13
   \                     ??DoShowIt_12:
   \   0000015C   3F0100EF           SWI      +319
   \   00000160   700094E5           LDR      R0,[R4, #+112]
   \   00000164   050050E3           CMP      R0,#+5
   \   00000168   0C00001A           BNE      ??DoShowIt_14
   \   0000016C   880094E5           LDR      R0,[R4, #+136]
   \   00000170   DC1094E5           LDR      R1,[R4, #+220]
   \   00000174   220040E2           SUB      R0,R0,#+34
   \   00000178   900084E5           STR      R0,[R4, #+144]
   \   0000017C   180080E2           ADD      R0,R0,#+24
   \   00000180   E40084E5           STR      R0,[R4, #+228]
   \   00000184   8C0094E5           LDR      R0,[R4, #+140]
   \   00000188   1420A0E3           MOV      R2,#+20
   \   0000018C   920120E0           MLA      R0,R2,R1,R0
   \   00000190   749084E5           STR      R9,[R4, #+116]
   \   00000194   0C0040E2           SUB      R0,R0,#+12
   \   00000198   E00084E5           STR      R0,[R4, #+224]
   \   0000019C   4F0000EA           B        ??DoShowIt_15
   \                     ??DoShowIt_14:
   \   000001A0   748084E5           STR      R8,[R4, #+116]
   \   000001A4   4D0000EA           B        ??DoShowIt_15
   \                     ??DoShowIt_16:
   \   000001A8   880094E5           LDR      R0,[R4, #+136]
   \   000001AC   220040E2           SUB      R0,R0,#+34
   \   000001B0   900084E5           STR      R0,[R4, #+144]
   \   000001B4   0100A0E3           MOV      R0,#+1
   \   000001B8   800084E5           STR      R0,[R4, #+128]
   \   000001BC   3F0100EF           SWI      +319
   \   000001C0   F08FBDE8           POP      {R4-R11,PC}
   \                     ??DoShowIt_17:
   \   000001C4   010052E3           CMP      R2,#+1
   \   000001C8   0E00001A           BNE      ??DoShowIt_18
   \   000001CC   0B0050E3           CMP      R0,#+11
   \   000001D0   841084A5           STRGE    R1,[R4, #+132]
   \   000001D4   060000AA           BGE      ??DoShowIt_19
   \   000001D8   701094E5           LDR      R1,[R4, #+112]
   \   000001DC   7C0094E5           LDR      R0,[R4, #+124]
   \   000001E0   1420A0E3           MOV      R2,#+20
   \   000001E4   920120E0           MLA      R0,R2,R1,R0
   \   000001E8   745084E5           STR      R5,[R4, #+116]
   \   000001EC   0C0040E2           SUB      R0,R0,#+12
   \   000001F0   880084E5           STR      R0,[R4, #+136]
   \                     ??DoShowIt_19:
   \   000001F4   3F0100EF           SWI      +319
   \   000001F8   0720A0E1           MOV      R2,R7
   \   000001FC   0310A0E3           MOV      R1,#+3
   \   00000200   040086E0           ADD      R0,R6,R4
   \   00000204   4D0000EF           SWI      +77
   \                     ??DoShowIt_18:
   \   00000208   D80094E5           LDR      R0,[R4, #+216]
   \   0000020C   020050E3           CMP      R0,#+2
   \   00000210   F08FBD18           POPNE    {R4-R11,PC}
   \   00000214   840094E5           LDR      R0,[R4, #+132]
   \   00000218   700050E3           CMP      R0,#+112
   \   0000021C   020000AA           BGE      ??DoShowIt_20
   \                     ??DoShowIt_21:
   \   00000220   010080E2           ADD      R0,R0,#+1
   \   00000224   840084E5           STR      R0,[R4, #+132]
   \   00000228   9EFFFFEA           B        ??DoShowIt_4
   \                     ??DoShowIt_20:
   \   0000022C   701094E5           LDR      R1,[R4, #+112]
   \   00000230   7C0094E5           LDR      R0,[R4, #+124]
   \   00000234   1420A0E3           MOV      R2,#+20
   \   00000238   920120E0           MLA      R0,R2,R1,R0
   \   0000023C   0C0040E2           SUB      R0,R0,#+12
   \   00000240   880084E5           STR      R0,[R4, #+136]
   \   00000244   96FFFFEA           B        ??DoShowIt_5
   \                     ??DoShowIt_22:
   \   00000248   0650A0E3           MOV      R5,#+6
   \   0000024C   010052E3           CMP      R2,#+1
   \   00000250   0700001A           BNE      ??DoShowIt_23
   \   00000254   0B0050E3           CMP      R0,#+11
   \   00000258   841084A5           STRGE    R1,[R4, #+132]
   \   0000025C   745084B5           STRLT    R5,[R4, #+116]
   \   00000260   3F0100EF           SWI      +319
   \   00000264   0720A0E1           MOV      R2,R7
   \   00000268   0310A0E3           MOV      R1,#+3
   \   0000026C   040086E0           ADD      R0,R6,R4
   \   00000270   4D0000EF           SWI      +77
   \                     ??DoShowIt_23:
   \   00000274   D80094E5           LDR      R0,[R4, #+216]
   \   00000278   020050E3           CMP      R0,#+2
   \   0000027C   F08FBD18           POPNE    {R4-R11,PC}
   \   00000280   840094E5           LDR      R0,[R4, #+132]
   \   00000284   700050E3           CMP      R0,#+112
   \   00000288   85FFFFAA           BGE      ??DoShowIt_5
   \   0000028C   E3FFFFEA           B        ??DoShowIt_21
   \                     ??DoShowIt_24:
   \   00000290   010052E3           CMP      R2,#+1
   \   00000294   0800001A           BNE      ??DoShowIt_25
   \   00000298   13007CE3           CMN      R12,#+19
   \   0000029C   F08FBDB8           POPLT    {R4-R11,PC}
   \   000002A0   01004CE2           SUB      R0,R12,#+1
   \   000002A4   780084E5           STR      R0,[R4, #+120]
   \   000002A8   3F0100EF           SWI      +319
   \   000002AC   0720A0E1           MOV      R2,R7
   \   000002B0   0310A0E3           MOV      R1,#+3
   \   000002B4   040086E0           ADD      R0,R6,R4
   \   000002B8   4D0000EF           SWI      +77
   \                     ??DoShowIt_25:
   \   000002BC   D80094E5           LDR      R0,[R4, #+216]
   \   000002C0   020050E3           CMP      R0,#+2
   \   000002C4   F08FBD18           POPNE    {R4-R11,PC}
   \   000002C8   780094E5           LDR      R0,[R4, #+120]
   \   000002CC   F00050E3           CMP      R0,#+240
   \   000002D0   F08FBDA8           POPGE    {R4-R11,PC}
   \   000002D4   010080E2           ADD      R0,R0,#+1
   \   000002D8   780084E5           STR      R0,[R4, #+120]
   \                     ??DoShowIt_13:
   \   000002DC   3F0100EF           SWI      +319
   \                     ??DoShowIt_15:
   \   000002E0   0720A0E1           MOV      R2,R7
   \   000002E4   0310A0E3           MOV      R1,#+3
   \   000002E8   040086E0           ADD      R0,R6,R4
   \   000002EC   4D0000EF           SWI      +77
   \   000002F0   F08FBDE8           POP      {R4-R11,PC}
   \                     ??DoShowIt_26:
   \   000002F4   0E008EE2           ADD      R0,LR,#+14
   \   000002F8   030050E1           CMP      R0,R3
   \   000002FC   020000AA           BGE      ??DoShowIt_27
   \   00000300   010043E2           SUB      R0,R3,#+1
   \                     ??DoShowIt_28:
   \   00000304   E40084E5           STR      R0,[R4, #+228]
   \   00000308   66FFFFEA           B        ??DoShowIt_4
   \                     ??DoShowIt_27:
   \   0000030C   748084E5           STR      R8,[R4, #+116]
   \   00000310   64FFFFEA           B        ??DoShowIt_4
   \                     ??DoShowIt_29:
   \   00000314   18008EE2           ADD      R0,LR,#+24
   \   00000318   000053E1           CMP      R3,R0
   \   0000031C   010083B2           ADDLT    R0,R3,#+1
   \   00000320   F7FFFFBA           BLT      ??DoShowIt_28
   \   00000324   DC1094E5           LDR      R1,[R4, #+220]
   \   00000328   8C0094E5           LDR      R0,[R4, #+140]
   \   0000032C   1420A0E3           MOV      R2,#+20
   \   00000330   920120E0           MLA      R0,R2,R1,R0
   \   00000334   749084E5           STR      R9,[R4, #+116]
   \   00000338   0C0040E2           SUB      R0,R0,#+12
   \   0000033C   E00084E5           STR      R0,[R4, #+224]
   \   00000340   58FFFFEA           B        ??DoShowIt_4
   \                     ??DoShowIt_1:
   \   00000344   ........           DC32     DoShowIt

   \                                 In segment DATA_I, align 4, align-sorted
   \                     screen:
   \   00000000                      DS8 12
   \   0000000C                      REQUIRE `?<Initializer for screen>`
   \                     icsmd:
   \   0000000C                      DS8 40
   \   00000034                      REQUIRE `?<Initializer for icsmd>`
   \                     naticq_time:
   \   00000034                      DS8 16
   \   00000044                      REQUIRE `?<Initializer for naticq_time>`
   \                     naticq_ping:
   \   00000044                      DS8 16
   \   00000054                      REQUIRE `?<Initializer for naticq_ping>`
   \                     naticq_plugin:
   \   00000054                      DS8 4
   \   00000058                      REQUIRE `?<Initializer for naticq_plugin>`
   \                     ker_state:
   \   00000058                      DS8 4
   \   0000005C                      REQUIRE `?<Initializer for ker_state>`
   \                     r_s:
   \   0000005C                      DS8 4
   \   00000060                      REQUIRE `?<Initializer for r_s>`
   \                     r_m:
   \   00000060                      DS8 4
   \   00000064                      REQUIRE `?<Initializer for r_m>`
   \                     r_h:
   \   00000064                      DS8 4
   \   00000068                      REQUIRE `?<Initializer for r_h>`
   \                     mode_enter:
   \   00000068                      DS8 4
   \   0000006C                      REQUIRE `?<Initializer for mode_enter>`
   \                     mode:
   \   0000006C                      DS8 4
   \   00000070                      REQUIRE `?<Initializer for mode>`
   \                     pos:
   \   00000070                      DS8 4
   \   00000074                      REQUIRE `?<Initializer for pos>`
   \                     phase:
   \   00000074                      DS8 4
   \   00000078                      REQUIRE `?<Initializer for phase>`
   \                     pos_main_x:
   \   00000078                      DS8 4
   \   0000007C                      REQUIRE `?<Initializer for pos_main_x>`
   \                     pos_main_y:
   \   0000007C                      DS8 4
   \   00000080                      REQUIRE `?<Initializer for pos_main_y>`
   \                     lock_keys:
   \   00000080                      DS8 4
   \   00000084                      REQUIRE `?<Initializer for lock_keys>`
   \                     pos_link_x:
   \   00000084                      DS8 4
   \   00000088                      REQUIRE `?<Initializer for pos_link_x>`
   \                     pos_link_y:
   \   00000088                      DS8 4
   \   0000008C                      REQUIRE `?<Initializer for pos_link_y>`
   \                     pos_msg_x:
   \   0000008C                      DS8 4
   \   00000090                      REQUIRE `?<Initializer for pos_msg_x>`
   \                     pos_msg_y:
   \   00000090                      DS8 4
   \   00000094                      REQUIRE `?<Initializer for pos_msg_y>`
   \                     monthc:
   \   00000094                      DS8 4
   \   00000098                      REQUIRE `?<Initializer for monthc>`
   \                     hmm:
   \   00000098                      DS8 4
   \   0000009C                      REQUIRE `?<Initializer for hmm>`
   \                     ggg:
   \   0000009C                      DS8 4
   \   000000A0                      REQUIRE `?<Initializer for ggg>`
   \                     trafiks:
   \   000000A0                      DS8 4
   \   000000A4                      REQUIRE `?<Initializer for trafiks>`
   \                     start_traffic:
   \   000000A4                      DS8 4
   \   000000A8                      REQUIRE `?<Initializer for start_traffic>`
   \                     ffq:
   \   000000A8                      DS8 4
   \   000000AC                      REQUIRE `?<Initializer for ffq>`
   \                     isfile:
   \   000000AC                      DS8 4
   \   000000B0                      REQUIRE `?<Initializer for isfile>`
   \                     switch_gprs_info:
   \   000000B0                      DS8 4
   \   000000B4                      REQUIRE `?<Initializer for switch_gprs_info>`
   \                     do_st:
   \   000000B4                      DS8 4
   \   000000B8                      REQUIRE `?<Initializer for do_st>`
   \                     con:
   \   000000B8                      DS8 4
   \   000000BC                      REQUIRE `?<Initializer for con>`
   \                     charge_m:
   \   000000BC                      DS8 4
   \   000000C0                      REQUIRE `?<Initializer for charge_m>`
   \                     charge_s:
   \   000000C0                      DS8 4
   \   000000C4                      REQUIRE `?<Initializer for charge_s>`
   \                     g_min:
   \   000000C4                      DS8 4
   \   000000C8                      REQUIRE `?<Initializer for g_min>`
   \                     g_sec:
   \   000000C8                      DS8 4
   \   000000CC                      REQUIRE `?<Initializer for g_sec>`
   \                     g_hour:
   \   000000CC                      DS8 4
   \   000000D0                      REQUIRE `?<Initializer for g_hour>`
   \                     rem_mis:
   \   000000D0                      DS8 4
   \   000000D4                      REQUIRE `?<Initializer for rem_mis>`
   \                     first_con:
   \   000000D4                      DS8 4
   \   000000D8                      REQUIRE `?<Initializer for first_con>`
   \                     key_mode:
   \   000000D8                      DS8 4
   \   000000DC                      REQUIRE `?<Initializer for key_mode>`
   \                     app_pos:
   \   000000DC                      DS8 4
   \   000000E0                      REQUIRE `?<Initializer for app_pos>`
   \                     pos_link2_x:
   \   000000E0                      DS8 4
   \   000000E4                      REQUIRE `?<Initializer for pos_link2_x>`
   \                     pos_link2_y:
   \   000000E4                      DS8 4
   \   000000E8                      REQUIRE `?<Initializer for pos_link2_y>`
    306          
    307          int (*old_icsm_onMessage)(CSM_RAM*,GBS_MSG*);
   \                     old_icsm_onMessage:
   \   000000E8                      DS8 4
   \   000000EC                      REQUIRE `?<Initializer for old_icsm_onMessage>`
    308          void (*old_icsm_onClose)(CSM_RAM*);
   \                     old_icsm_onClose:
   \   000000EC                      DS8 4
   \   000000F0                      REQUIRE `?<Initializer for old_icsm_onClose>`
   \                     chinfo:
   \   000000F0                      DS8 32
   \   00000110                      REQUIRE `?<Initializer for chinfo>`
   \                     gpinfo:
   \   00000110                      DS8 32
   \   00000130                      REQUIRE `?<Initializer for gpinfo>`
   \                     rs_tmr:
   \   00000130                      DS8 16
   \   00000140                      REQUIRE `?<Initializer for rs_tmr>`
   \                     mytmr:
   \   00000140                      DS8 16
   \   00000150                      REQUIRE `?<Initializer for mytmr>`
   \                     start_g2:
   \   00000150                      DS8 32
   \   00000170                      REQUIRE `?<Initializer for start_g2>`
   \                     month:
   \   00000170                      DS8 12
   \   0000017C                      REQUIRE `?<Initializer for month>`
   \                     mytmr2:
   \   0000017C                      DS8 16
   \   0000018C                      REQUIRE `?<Initializer for mytmr2>`
   \                     charger:
   \   0000018C                      DS8 16
   \   0000019C                      REQUIRE `?<Initializer for charger>`
   \                     gipi:
   \   0000019C                      DS8 16
   \   000001AC                      REQUIRE `?<Initializer for gipi>`
    309          

   \                                 In segment DATA_C, align 4, align-sorted
    310          const int minus11=-11;
   \                     minus11:
   \   00000000   F5FFFFFF           DC32 -11
    311          
    312          typedef struct
    313          {
    314            CSM_RAM csm;
    315          }MAIN_CSM;
    316          typedef struct
    317          {
    318            GUI gui;
    319            WSHDR *ws1;
    320            WSHDR *ws2;
    321            int i1;
    322          }MAIN_GUI;
    323          
    324          

   \                                 In segment DATA_Z, align 4, align-sorted
    325          CSM_RAM *under_idle;
   \                     under_idle:
   \   00000000                      DS8 4
    326          
    327          extern void kill_data(void *p, void (*func_p)(void *));
    328          
    329          #pragma inline=forced
    330          
    331          int toupper(int c)
    332          {
    333            if ((c>='a')&&(c<='z')) c+='A'-'a';
    334            return(c);
    335          }
    336          
    337          

   \                                 In segment CODE, align 4, keep-with-next
    338          int maincsm_onmessage(CSM_RAM* data,GBS_MSG* msg)
    339          {
    340           
    341            return (1);  
   \                     maincsm_onmessage:
   \   00000000   0100A0E3           MOV      R0,#+1
   \   00000004   1EFF2FE1           BX       LR               ;; return
    342          }
    343          

   \                                 In segment CODE, align 4, keep-with-next
    344          static void maincsm_oncreate(CSM_RAM *data)
    345          {
    346           
    347          }
   \                     maincsm_oncreate:
   \   00000000   1EFF2FE1           BX       LR               ;; return
    348          
    349          
    350          
    351          
    352          

   \                                 In segment CODE, align 4, keep-with-next
    353          void DrawBatteryLog()
    354          {
   \                     DrawBatteryLog:
   \   00000000   F0472DE9           PUSH     {R4-R10,LR}
    355            int battery = *RamCap();
    356            WSHDR *ws=AllocWS(64);
    357            wsprintf(ws, "[%t]", LG_BATI);
   \   00000004   ........           LDR      R8,??DataTable17  ;; `?<Constant "\\321\\310\\321\\322\\305\\314\\300">`
    358            DrawString(ws,pos_msg_x+113,pos_msg_y+13,pos_msg_x+Get_WS_width(ws,font1)+113,pos_msg_y+GetFontYSIZE(font1)+13,font1,0,COLORfont1,GetPaletteAdrByColorIndex(23));
   \   00000008   ........           LDR      R5,??DataTable15  ;; screen
   \   0000000C   C88000EF           SWI      +32968
   \   00000010   B060D0E1           LDRH     R6,[R0, #+0]
   \   00000014   4000A0E3           MOV      R0,#+64
   \   00000018   250100EF           SWI      +293
   \   0000001C   0040A0E1           MOV      R4,R0
   \   00000020   BC2088E2           ADD      R2,R8,#+188
   \   00000024   B41088E2           ADD      R1,R8,#+180
   \   00000028   240100EF           SWI      +292
   \   0000002C   1700A0E3           MOV      R0,#+23
   \   00000030   2E0100EF           SWI      +302
   \   00000034   0070A0E1           MOV      R7,R0
   \   00000038   ........           LDR      R0,??DataTable22  ;; font1
   \   0000003C   009090E5           LDR      R9,[R0, #+0]
   \   00000040   0900A0E1           MOV      R0,R9
   \   00000044   C50100EF           SWI      +453
   \   00000048   00A0A0E1           MOV      R10,R0
   \   0000004C   0910A0E1           MOV      R1,R9
   \   00000050   0400A0E1           MOV      R0,R4
   \   00000054   080200EF           SWI      +520
   \   00000058   8C1095E5           LDR      R1,[R5, #+140]
   \   0000005C   902095E5           LDR      R2,[R5, #+144]
   \   00000060   ........           LDR      R3,??DataTable23  ;; COLORfont1
   \   00000064   80002DE9           PUSH     {R7}
    359            wsprintf(ws,"%t: %d%", LG_BCAP, battery);
    360            DrawString(ws,pos_msg_x+113,pos_msg_y+28,pos_msg_x+Get_WS_width(ws,font2)+113,pos_msg_y+GetFontYSIZE(font2)+28,font2,0,COLORfont2,GetPaletteAdrByColorIndex(23));
   \   00000068   ........           LDR      R7,??DataTable25  ;; COLORfont2
   \   0000006C   08002DE9           PUSH     {R3}
   \   00000070   010080E0           ADD      R0,R0,R1
   \   00000074   711081E2           ADD      R1,R1,#+113
   \   00000078   0030A0E3           MOV      R3,#+0
   \   0000007C   08002DE9           PUSH     {R3}
   \   00000080   00022DE9           PUSH     {R9}
   \   00000084   02308AE0           ADD      R3,R10,R2
   \   00000088   0D3083E2           ADD      R3,R3,#+13
   \   0000008C   08002DE9           PUSH     {R3}
   \   00000090   0D2082E2           ADD      R2,R2,#+13
   \   00000094   713080E2           ADD      R3,R0,#+113
   \   00000098   0400A0E1           MOV      R0,R4
   \   0000009C   4C0100EF           SWI      +332
   \   000000A0   0630A0E1           MOV      R3,R6
   \   000000A4   CC2088E2           ADD      R2,R8,#+204
   \   000000A8   C41088E2           ADD      R1,R8,#+196
   \   000000AC   0400A0E1           MOV      R0,R4
   \   000000B0   240100EF           SWI      +292
   \   000000B4   1700A0E3           MOV      R0,#+23
   \   000000B8   2E0100EF           SWI      +302
   \   000000BC   0090A0E1           MOV      R9,R0
   \   000000C0   ........           LDR      R0,??DataTable27  ;; font2
   \   000000C4   006090E5           LDR      R6,[R0, #+0]
   \   000000C8   0600A0E1           MOV      R0,R6
   \   000000CC   C50100EF           SWI      +453
   \   000000D0   00A0A0E1           MOV      R10,R0
   \   000000D4   0610A0E1           MOV      R1,R6
   \   000000D8   0400A0E1           MOV      R0,R4
   \   000000DC   080200EF           SWI      +520
   \   000000E0   8C1095E5           LDR      R1,[R5, #+140]
   \   000000E4   902095E5           LDR      R2,[R5, #+144]
   \   000000E8   00022DE9           PUSH     {R9}
   \   000000EC   0730A0E1           MOV      R3,R7
   \   000000F0   08002DE9           PUSH     {R3}
   \   000000F4   010080E0           ADD      R0,R0,R1
   \   000000F8   711081E2           ADD      R1,R1,#+113
   \   000000FC   0030A0E3           MOV      R3,#+0
   \   00000100   08002DE9           PUSH     {R3}
   \   00000104   0630A0E1           MOV      R3,R6
   \   00000108   08002DE9           PUSH     {R3}
   \   0000010C   02308AE0           ADD      R3,R10,R2
   \   00000110   1C2082E2           ADD      R2,R2,#+28
   \   00000114   1C3083E2           ADD      R3,R3,#+28
   \   00000118   08002DE9           PUSH     {R3}
   \   0000011C   713080E2           ADD      R3,R0,#+113
   \   00000120   0400A0E1           MOV      R0,R4
   \   00000124   4C0100EF           SWI      +332
   \   00000128   28D08DE2           ADD      SP,SP,#+40
    361            if(GetAccessoryType()==13) wsprintf(ws, "%t: On", LG_BCON); else wsprintf(ws, "%t: Off", LG_BCON);
   \   0000012C   880000EF           SWI      +136
   \   00000130   0D0050E3           CMP      R0,#+13
   \   00000134   A82088E2           ADD      R2,R8,#+168
   \   00000138   D4108802           ADDEQ    R1,R8,#+212
   \   0000013C   DC108812           ADDNE    R1,R8,#+220
   \   00000140   0400A0E1           MOV      R0,R4
   \   00000144   240100EF           SWI      +292
    362            DrawString(ws,pos_msg_x+113,pos_msg_y+38,pos_msg_x+Get_WS_width(ws,font2)+113,pos_msg_y+GetFontYSIZE(font2)+38,font2,0,COLORfont2,GetPaletteAdrByColorIndex(23));
   \   00000148   1700A0E3           MOV      R0,#+23
   \   0000014C   2E0100EF           SWI      +302
   \   00000150   0090A0E1           MOV      R9,R0
   \   00000154   0600A0E1           MOV      R0,R6
   \   00000158   C50100EF           SWI      +453
   \   0000015C   00A0A0E1           MOV      R10,R0
   \   00000160   0610A0E1           MOV      R1,R6
   \   00000164   0400A0E1           MOV      R0,R4
   \   00000168   080200EF           SWI      +520
   \   0000016C   8C1095E5           LDR      R1,[R5, #+140]
   \   00000170   902095E5           LDR      R2,[R5, #+144]
   \   00000174   00022DE9           PUSH     {R9}
   \   00000178   0730A0E1           MOV      R3,R7
   \   0000017C   08002DE9           PUSH     {R3}
   \   00000180   010080E0           ADD      R0,R0,R1
   \   00000184   711081E2           ADD      R1,R1,#+113
   \   00000188   0030A0E3           MOV      R3,#+0
   \   0000018C   08002DE9           PUSH     {R3}
   \   00000190   0630A0E1           MOV      R3,R6
   \   00000194   08002DE9           PUSH     {R3}
   \   00000198   02308AE0           ADD      R3,R10,R2
   \   0000019C   262082E2           ADD      R2,R2,#+38
   \   000001A0   263083E2           ADD      R3,R3,#+38
   \   000001A4   08002DE9           PUSH     {R3}
   \   000001A8   713080E2           ADD      R3,R0,#+113
   \   000001AC   0400A0E1           MOV      R0,R4
   \   000001B0   4C0100EF           SWI      +332
    363            wsprintf(ws, "%t:", LG_CLCH);
   \   000001B4   E42088E2           ADD      R2,R8,#+228
   \   000001B8   3F1F8FE2           ADR      R1,??DrawBatteryLog_0  ;; "%t:"
   \   000001BC   0400A0E1           MOV      R0,R4
   \   000001C0   240100EF           SWI      +292
    364            DrawString(ws,pos_msg_x+113,pos_msg_y+48,pos_msg_x+Get_WS_width(ws,font2)+113,pos_msg_y+GetFontYSIZE(font2)+48,font2,0,COLORfont2,GetPaletteAdrByColorIndex(23));
   \   000001C4   1700A0E3           MOV      R0,#+23
   \   000001C8   2E0100EF           SWI      +302
   \   000001CC   0080A0E1           MOV      R8,R0
   \   000001D0   0600A0E1           MOV      R0,R6
   \   000001D4   C50100EF           SWI      +453
   \   000001D8   0090A0E1           MOV      R9,R0
   \   000001DC   0610A0E1           MOV      R1,R6
   \   000001E0   0400A0E1           MOV      R0,R4
   \   000001E4   080200EF           SWI      +520
   \   000001E8   8C1095E5           LDR      R1,[R5, #+140]
   \   000001EC   902095E5           LDR      R2,[R5, #+144]
   \   000001F0   00012DE9           PUSH     {R8}
   \   000001F4   0730A0E1           MOV      R3,R7
   \   000001F8   08002DE9           PUSH     {R3}
   \   000001FC   0030A0E3           MOV      R3,#+0
   \   00000200   08002DE9           PUSH     {R3}
   \   00000204   010080E0           ADD      R0,R0,R1
   \   00000208   711081E2           ADD      R1,R1,#+113
   \   0000020C   0630A0E1           MOV      R3,R6
   \   00000210   08002DE9           PUSH     {R3}
   \   00000214   023089E0           ADD      R3,R9,R2
   \   00000218   302082E2           ADD      R2,R2,#+48
   \   0000021C   303083E2           ADD      R3,R3,#+48
   \   00000220   08002DE9           PUSH     {R3}
   \   00000224   713080E2           ADD      R3,R0,#+113
   \   00000228   0400A0E1           MOV      R0,R4
   \   0000022C   4C0100EF           SWI      +332
   \   00000230   28D08DE2           ADD      SP,SP,#+40
    365            wsprintf(ws, chinfo);
   \   00000234   F01085E2           ADD      R1,R5,#+240
   \   00000238   0400A0E1           MOV      R0,R4
   \   0000023C   240100EF           SWI      +292
    366            DrawString(ws,pos_msg_x+1118,pos_msg_y+58,pos_msg_x+Get_WS_width(ws,font2)+1118,pos_msg_y+GetFontYSIZE(font2)+58,font2,0,COLORfont2,GetPaletteAdrByColorIndex(23));
   \   00000240   1700A0E3           MOV      R0,#+23
   \   00000244   2E0100EF           SWI      +302
   \   00000248   0080A0E1           MOV      R8,R0
   \   0000024C   0600A0E1           MOV      R0,R6
   \   00000250   C50100EF           SWI      +453
   \   00000254   0090A0E1           MOV      R9,R0
   \   00000258   0610A0E1           MOV      R1,R6
   \   0000025C   0400A0E1           MOV      R0,R4
   \   00000260   080200EF           SWI      +520
   \   00000264   8C1095E5           LDR      R1,[R5, #+140]
   \   00000268   902095E5           LDR      R2,[R5, #+144]
   \   0000026C   00012DE9           PUSH     {R8}
   \   00000270   80002DE9           PUSH     {R7}
   \   00000274   0030A0E3           MOV      R3,#+0
   \   00000278   08002DE9           PUSH     {R3}
   \   0000027C   40002DE9           PUSH     {R6}
   \   00000280   5E50A0E3           MOV      R5,#+94
   \   00000284   023089E0           ADD      R3,R9,R2
   \   00000288   3A3083E2           ADD      R3,R3,#+58
   \   0000028C   08002DE9           PUSH     {R3}
   \   00000290   405E85E3           ORR      R5,R5,#0x400
   \   00000294   010080E0           ADD      R0,R0,R1
   \   00000298   3A2082E2           ADD      R2,R2,#+58
   \   0000029C   003085E0           ADD      R3,R5,R0
   \   000002A0   011085E0           ADD      R1,R5,R1
   \   000002A4   0400A0E1           MOV      R0,R4
   \   000002A8   4C0100EF           SWI      +332
    367            FreeWS(ws);
   \   000002AC   0400A0E1           MOV      R0,R4
   \   000002B0   290100EF           SWI      +297
    368          }
   \   000002B4   14D08DE2           ADD      SP,SP,#+20
   \   000002B8   F087BDE8           POP      {R4-R10,PC}      ;; return
   \                     ??DrawBatteryLog_0:
   \   000002BC   25743A00           DC8      "%t:"
    369          
    370          #pragma swi_number=0x41
    371          __swi __arm char GetProvider(WSHDR *ws, int zero);
    372          
    373          
    374          

   \                                 In segment CODE, align 4, keep-with-next
    375          void get_month()
    376          {
   \                     get_month:
   \   00000000   70402DE9           PUSH     {R4-R6,LR}
   \   00000004   08D04DE2           SUB      SP,SP,#+8
    377            TDate date;
    378            GetDateTime(&date, NULL);
   \   00000008   0010A0E3           MOV      R1,#+0
    379            if(date.month==1) strcpy(month, " ");
   \   0000000C   ........           LDR      R5,??DataTable15  ;; screen
   \   00000010   34619FE5           LDR      R6,??get_month_0  ;; `?<Constant " \\340\\357\\360\\345\\353\\377">`
   \   00000014   0D00A0E1           MOV      R0,SP
   \   00000018   B40000EF           SWI      +180
   \   0000001C   0400DDE5           LDRB     R0,[SP, #+4]
   \   00000020   5C4FA0E3           MOV      R4,#+368
   \   00000024   010050E3           CMP      R0,#+1
   \   00000028   0200001A           BNE      ??get_month_1
   \   0000002C   581086E2           ADD      R1,R6,#+88
   \   00000030   050084E0           ADD      R0,R4,R5
   \   00000034   1A0000EF           SWI      +26
    380            if(date.month==2) strcpy(month, " ");
   \                     ??get_month_1:
   \   00000038   0400DDE5           LDRB     R0,[SP, #+4]
   \   0000003C   020050E3           CMP      R0,#+2
   \   00000040   0200001A           BNE      ??get_month_2
   \   00000044   601086E2           ADD      R1,R6,#+96
   \   00000048   050084E0           ADD      R0,R4,R5
   \   0000004C   1A0000EF           SWI      +26
    381            if(date.month==3) strcpy(month, " ");
   \                     ??get_month_2:
   \   00000050   0400DDE5           LDRB     R0,[SP, #+4]
   \   00000054   030050E3           CMP      R0,#+3
   \   00000058   0200001A           BNE      ??get_month_3
   \   0000005C   6C1086E2           ADD      R1,R6,#+108
   \   00000060   050084E0           ADD      R0,R4,R5
   \   00000064   1A0000EF           SWI      +26
    382            if(date.month==4) strcpy(month, " ");
   \                     ??get_month_3:
   \   00000068   0400DDE5           LDRB     R0,[SP, #+4]
   \   0000006C   040050E3           CMP      R0,#+4
   \   00000070   0200001A           BNE      ??get_month_4
   \   00000074   0610A0E1           MOV      R1,R6
   \   00000078   050084E0           ADD      R0,R4,R5
   \   0000007C   1A0000EF           SWI      +26
    383            if(date.month==5) strcpy(month, " ");
   \                     ??get_month_4:
   \   00000080   0400DDE5           LDRB     R0,[SP, #+4]
   \   00000084   050050E3           CMP      R0,#+5
   \   00000088   0200001A           BNE      ??get_month_5
   \   0000008C   081086E2           ADD      R1,R6,#+8
   \   00000090   050084E0           ADD      R0,R4,R5
   \   00000094   1A0000EF           SWI      +26
    384            if(date.month==6) strcpy(month, " ");
   \                     ??get_month_5:
   \   00000098   0400DDE5           LDRB     R0,[SP, #+4]
   \   0000009C   060050E3           CMP      R0,#+6
   \   000000A0   0200001A           BNE      ??get_month_6
   \   000000A4   101086E2           ADD      R1,R6,#+16
   \   000000A8   050084E0           ADD      R0,R4,R5
   \   000000AC   1A0000EF           SWI      +26
    385            if(date.month==7) strcpy(month, " ");
   \                     ??get_month_6:
   \   000000B0   0400DDE5           LDRB     R0,[SP, #+4]
   \   000000B4   070050E3           CMP      R0,#+7
   \   000000B8   0200001A           BNE      ??get_month_7
   \   000000BC   181086E2           ADD      R1,R6,#+24
   \   000000C0   050084E0           ADD      R0,R4,R5
   \   000000C4   1A0000EF           SWI      +26
    386            if(date.month==8) strcpy(month, " ");
   \                     ??get_month_7:
   \   000000C8   0400DDE5           LDRB     R0,[SP, #+4]
   \   000000CC   080050E3           CMP      R0,#+8
   \   000000D0   0200001A           BNE      ??get_month_8
   \   000000D4   201086E2           ADD      R1,R6,#+32
   \   000000D8   050084E0           ADD      R0,R4,R5
   \   000000DC   1A0000EF           SWI      +26
    387            if(date.month==9) strcpy(month, " ");
   \                     ??get_month_8:
   \   000000E0   0400DDE5           LDRB     R0,[SP, #+4]
   \   000000E4   090050E3           CMP      R0,#+9
   \   000000E8   0200001A           BNE      ??get_month_9
   \   000000EC   2C1086E2           ADD      R1,R6,#+44
   \   000000F0   050084E0           ADD      R0,R4,R5
   \   000000F4   1A0000EF           SWI      +26
    388            if(date.month==10) strcpy(month, " ");
   \                     ??get_month_9:
   \   000000F8   0400DDE5           LDRB     R0,[SP, #+4]
   \   000000FC   0A0050E3           CMP      R0,#+10
   \   00000100   0200001A           BNE      ??get_month_10
   \   00000104   381086E2           ADD      R1,R6,#+56
   \   00000108   050084E0           ADD      R0,R4,R5
   \   0000010C   1A0000EF           SWI      +26
    389            if(date.month==11) strcpy(month, " ");
   \                     ??get_month_10:
   \   00000110   0400DDE5           LDRB     R0,[SP, #+4]
   \   00000114   0B0050E3           CMP      R0,#+11
   \   00000118   0200001A           BNE      ??get_month_11
   \   0000011C   441086E2           ADD      R1,R6,#+68
   \   00000120   050084E0           ADD      R0,R4,R5
   \   00000124   1A0000EF           SWI      +26
    390            if(date.month==12) strcpy(month, " ");
   \                     ??get_month_11:
   \   00000128   0400DDE5           LDRB     R0,[SP, #+4]
   \   0000012C   0C0050E3           CMP      R0,#+12
   \   00000130   0200001A           BNE      ??get_month_12
   \   00000134   4C1086E2           ADD      R1,R6,#+76
   \   00000138   050084E0           ADD      R0,R4,R5
   \   0000013C   1A0000EF           SWI      +26
    391            monthc=date.month;
   \                     ??get_month_12:
   \   00000140   0400DDE5           LDRB     R0,[SP, #+4]
   \   00000144   940085E5           STR      R0,[R5, #+148]
    392          }
   \   00000148   7380BDE8           POP      {R0,R1,R4-R6,PC}  ;; return
   \                     ??get_month_0:
   \   0000014C   ........           DC32     `?<Constant " \\340\\357\\360\\345\\353\\377">`
    393          
    394          

   \                                 In segment CODE, align 4, keep-with-next
    395          void DrawSystemLog()
    396          {
   \                     DrawSystemLog:
   \   00000000   F04F2DE9           PUSH     {R4-R11,LR}
    397            int ram = GetFreeRamAvail();
    398            ram=ram/1024;
    399            WSHDR *ws=AllocWS(64);
    400            wsprintf(ws, "[%t]", LG_SYSI);
   \   00000004   ........           LDR      R6,??DataTable17  ;; `?<Constant "\\321\\310\\321\\322\\305\\314\\300">`
    401            DrawString(ws,pos_msg_x+16,pos_msg_y+73,pos_msg_x+Get_WS_width(ws,font1)+16,pos_msg_y+GetFontYSIZE(font1)+73,font1,0,COLORfont1,GetPaletteAdrByColorIndex(23));
   \   00000008   ........           LDR      R7,??DataTable15  ;; screen
   \   0000000C   14D04DE2           SUB      SP,SP,#+20
   \   00000010   5F0000EF           SWI      +95
   \   00000014   0040A0E1           MOV      R4,R0
   \   00000018   4000A0E3           MOV      R0,#+64
   \   0000001C   250100EF           SWI      +293
   \   00000020   0050A0E1           MOV      R5,R0
   \   00000024   0620A0E1           MOV      R2,R6
   \   00000028   B41086E2           ADD      R1,R6,#+180
   \   0000002C   240100EF           SWI      +292
   \   00000030   1700A0E3           MOV      R0,#+23
   \   00000034   2E0100EF           SWI      +302
   \   00000038   0080A0E1           MOV      R8,R0
   \   0000003C   ........           LDR      R0,??DataTable22  ;; font1
   \   00000040   009090E5           LDR      R9,[R0, #+0]
   \   00000044   0900A0E1           MOV      R0,R9
   \   00000048   C50100EF           SWI      +453
   \   0000004C   00A0A0E1           MOV      R10,R0
   \   00000050   0910A0E1           MOV      R1,R9
   \   00000054   0500A0E1           MOV      R0,R5
   \   00000058   080200EF           SWI      +520
   \   0000005C   8C1097E5           LDR      R1,[R7, #+140]
   \   00000060   902097E5           LDR      R2,[R7, #+144]
   \   00000064   ........           LDR      R3,??DataTable23  ;; COLORfont1
   \   00000068   00012DE9           PUSH     {R8}
   \   0000006C   08002DE9           PUSH     {R3}
   \   00000070   010080E0           ADD      R0,R0,R1
   \   00000074   101081E2           ADD      R1,R1,#+16
   \   00000078   0030A0E3           MOV      R3,#+0
   \   0000007C   08002DE9           PUSH     {R3}
   \   00000080   00022DE9           PUSH     {R9}
   \   00000084   02308AE0           ADD      R3,R10,R2
   \   00000088   493083E2           ADD      R3,R3,#+73
   \   0000008C   08002DE9           PUSH     {R3}
   \   00000090   492082E2           ADD      R2,R2,#+73
   \   00000094   103080E2           ADD      R3,R0,#+16
   \   00000098   0500A0E1           MOV      R0,R5
   \   0000009C   4C0100EF           SWI      +332
    402            TTime time;
    403            TDate date;
    404            GetDateTime(&date, &time);
   \   000000A0   20108DE2           ADD      R1,SP,#+32
   \   000000A4   18008DE2           ADD      R0,SP,#+24
   \   000000A8   B40000EF           SWI      +180
    405            if(monthc!=date.month) get_month();
   \   000000AC   1C10DDE5           LDRB     R1,[SP, #+28]
   \   000000B0   940097E5           LDR      R0,[R7, #+148]
   \   000000B4   14D08DE2           ADD      SP,SP,#+20
   \   000000B8   010050E1           CMP      R0,R1
   \   000000BC   0000000A           BEQ      ??DrawSystemLog_0
   \   000000C0   ........           BL       get_month
    406            RAMNET *net_data;
    407            net_data=RamNet();
    408            wsprintf(ws,"%t %d db",LG_NET, net_data->power); 
    409            DrawString(ws,pos_msg_x+16,pos_msg_y+88,pos_msg_x+Get_WS_width(ws,font2)+16,pos_msg_y+GetFontYSIZE(font2)+88,font2,0,COLORfont2,GetPaletteAdrByColorIndex(23));
   \                     ??DrawSystemLog_0:
   \   000000C4   ........           LDR      R11,??DataTable25  ;; COLORfont2
   \   000000C8   CA8000EF           SWI      +32970
   \   000000CC   0630D0E5           LDRB     R3,[R0, #+6]
   \   000000D0   142086E2           ADD      R2,R6,#+20
   \   000000D4   081086E2           ADD      R1,R6,#+8
   \   000000D8   0500A0E1           MOV      R0,R5
   \   000000DC   240100EF           SWI      +292
   \   000000E0   1700A0E3           MOV      R0,#+23
   \   000000E4   2E0100EF           SWI      +302
   \   000000E8   0080A0E1           MOV      R8,R0
   \   000000EC   ........           LDR      R0,??DataTable27  ;; font2
   \   000000F0   009090E5           LDR      R9,[R0, #+0]
   \   000000F4   0900A0E1           MOV      R0,R9
   \   000000F8   C50100EF           SWI      +453
   \   000000FC   00A0A0E1           MOV      R10,R0
   \   00000100   0910A0E1           MOV      R1,R9
   \   00000104   0500A0E1           MOV      R0,R5
   \   00000108   080200EF           SWI      +520
   \   0000010C   8C1097E5           LDR      R1,[R7, #+140]
   \   00000110   902097E5           LDR      R2,[R7, #+144]
   \   00000114   00012DE9           PUSH     {R8}
   \   00000118   0B30A0E1           MOV      R3,R11
   \   0000011C   08002DE9           PUSH     {R3}
   \   00000120   010080E0           ADD      R0,R0,R1
   \   00000124   101081E2           ADD      R1,R1,#+16
   \   00000128   0030A0E3           MOV      R3,#+0
   \   0000012C   08002DE9           PUSH     {R3}
   \   00000130   0930A0E1           MOV      R3,R9
   \   00000134   08002DE9           PUSH     {R3}
   \   00000138   02308AE0           ADD      R3,R10,R2
   \   0000013C   582082E2           ADD      R2,R2,#+88
   \   00000140   583083E2           ADD      R3,R3,#+88
   \   00000144   08002DE9           PUSH     {R3}
   \   00000148   103080E2           ADD      R3,R0,#+16
   \   0000014C   0500A0E1           MOV      R0,R5
   \   00000150   4C0100EF           SWI      +332
    410             
    411            int freemem0 = GetFreeFlexSpace(0, 0)/1024;
   \   00000154   0010A0E3           MOV      R1,#+0
   \   00000158   0000A0E3           MOV      R0,#+0
   \   0000015C   8A0000EF           SWI      +138
   \   00000160   C014A0E1           ASR      R1,R0,#+9
   \   00000164   210B80E0           ADD      R0,R0,R1, LSR #+22
   \   00000168   4085A0E1           ASR      R8,R0,#+10
    412            int freemem4 = GetFreeFlexSpace(4, 0)/1024; 
   \   0000016C   0010A0E3           MOV      R1,#+0
   \   00000170   0400A0E3           MOV      R0,#+4
   \   00000174   8A0000EF           SWI      +138
   \   00000178   C024A0E1           ASR      R2,R0,#+9
   \   0000017C   220B80E0           ADD      R0,R0,R2, LSR #+22
   \   00000180   4005A0E1           ASR      R0,R0,#+10
   \   00000184   14008DE5           STR      R0,[SP, #+20]
    413            wsprintf(ws,"0:= %d Kb",freemem0);
   \   00000188   0820A0E1           MOV      R2,R8
   \   0000018C   1C1086E2           ADD      R1,R6,#+28
   \   00000190   0500A0E1           MOV      R0,R5
   \   00000194   240100EF           SWI      +292
    414            DrawString(ws,pos_msg_x+16,pos_msg_y+98,pos_msg_x+Get_WS_width(ws,font2)+16,pos_msg_y+GetFontYSIZE(font2)+98,font2,0,COLORfont2,GetPaletteAdrByColorIndex(23));
   \   00000198   1700A0E3           MOV      R0,#+23
   \   0000019C   2E0100EF           SWI      +302
   \   000001A0   0080A0E1           MOV      R8,R0
   \   000001A4   0900A0E1           MOV      R0,R9
   \   000001A8   C50100EF           SWI      +453
   \   000001AC   00A0A0E1           MOV      R10,R0
   \   000001B0   0910A0E1           MOV      R1,R9
   \   000001B4   0500A0E1           MOV      R0,R5
   \   000001B8   080200EF           SWI      +520
   \   000001BC   8C1097E5           LDR      R1,[R7, #+140]
   \   000001C0   902097E5           LDR      R2,[R7, #+144]
   \   000001C4   00012DE9           PUSH     {R8}
   \   000001C8   0B30A0E1           MOV      R3,R11
   \   000001CC   08002DE9           PUSH     {R3}
   \   000001D0   010080E0           ADD      R0,R0,R1
   \   000001D4   101081E2           ADD      R1,R1,#+16
   \   000001D8   0030A0E3           MOV      R3,#+0
   \   000001DC   08002DE9           PUSH     {R3}
   \   000001E0   0930A0E1           MOV      R3,R9
   \   000001E4   08002DE9           PUSH     {R3}
   \   000001E8   02308AE0           ADD      R3,R10,R2
   \   000001EC   622082E2           ADD      R2,R2,#+98
   \   000001F0   623083E2           ADD      R3,R3,#+98
   \   000001F4   08002DE9           PUSH     {R3}
   \   000001F8   103080E2           ADD      R3,R0,#+16
   \   000001FC   0500A0E1           MOV      R0,R5
   \   00000200   4C0100EF           SWI      +332
   \   00000204   28D08DE2           ADD      SP,SP,#+40
    415            wsprintf(ws,"4:= %d Kb",freemem4);
   \   00000208   00209DE5           LDR      R2,[SP, #+0]
   \   0000020C   281086E2           ADD      R1,R6,#+40
   \   00000210   0500A0E1           MOV      R0,R5
   \   00000214   240100EF           SWI      +292
    416            DrawString(ws,pos_msg_x+16,pos_msg_y+108,pos_msg_x+Get_WS_width(ws,font2)+16,pos_msg_y+GetFontYSIZE(font2)+108,font2,0,COLORfont2,GetPaletteAdrByColorIndex(23));
   \   00000218   1700A0E3           MOV      R0,#+23
   \   0000021C   2E0100EF           SWI      +302
   \   00000220   0080A0E1           MOV      R8,R0
   \   00000224   0900A0E1           MOV      R0,R9
   \   00000228   C50100EF           SWI      +453
   \   0000022C   00A0A0E1           MOV      R10,R0
   \   00000230   0910A0E1           MOV      R1,R9
   \   00000234   0500A0E1           MOV      R0,R5
   \   00000238   080200EF           SWI      +520
   \   0000023C   8C1097E5           LDR      R1,[R7, #+140]
   \   00000240   902097E5           LDR      R2,[R7, #+144]
   \   00000244   00012DE9           PUSH     {R8}
   \   00000248   0B30A0E1           MOV      R3,R11
   \   0000024C   08002DE9           PUSH     {R3}
   \   00000250   010080E0           ADD      R0,R0,R1
   \   00000254   101081E2           ADD      R1,R1,#+16
   \   00000258   0030A0E3           MOV      R3,#+0
   \   0000025C   08002DE9           PUSH     {R3}
   \   00000260   0930A0E1           MOV      R3,R9
   \   00000264   08002DE9           PUSH     {R3}
   \   00000268   02308AE0           ADD      R3,R10,R2
   \   0000026C   6C2082E2           ADD      R2,R2,#+108
   \   00000270   6C3083E2           ADD      R3,R3,#+108
   \   00000274   08002DE9           PUSH     {R3}
   \   00000278   103080E2           ADD      R3,R0,#+16
   \   0000027C   0500A0E1           MOV      R0,R5
   \   00000280   4C0100EF           SWI      +332
    417            wsprintf(ws,"%t: %dKb", LG_SRAM, ram);
   \   00000284   C404A0E1           ASR      R0,R4,#+9
   \   00000288   200B84E0           ADD      R0,R4,R0, LSR #+22
   \   0000028C   4035A0E1           ASR      R3,R0,#+10
   \   00000290   402086E2           ADD      R2,R6,#+64
   \   00000294   341086E2           ADD      R1,R6,#+52
   \   00000298   0500A0E1           MOV      R0,R5
   \   0000029C   240100EF           SWI      +292
    418            DrawString(ws,pos_msg_x+16,pos_msg_y+118,pos_msg_x+Get_WS_width(ws,font2)+16,pos_msg_y+GetFontYSIZE(font2)+118,font2,0,COLORfont2,GetPaletteAdrByColorIndex(23));
   \   000002A0   1700A0E3           MOV      R0,#+23
   \   000002A4   2E0100EF           SWI      +302
   \   000002A8   0040A0E1           MOV      R4,R0
   \   000002AC   0900A0E1           MOV      R0,R9
   \   000002B0   C50100EF           SWI      +453
   \   000002B4   0060A0E1           MOV      R6,R0
   \   000002B8   0910A0E1           MOV      R1,R9
   \   000002BC   0500A0E1           MOV      R0,R5
   \   000002C0   080200EF           SWI      +520
   \   000002C4   8C1097E5           LDR      R1,[R7, #+140]
   \   000002C8   902097E5           LDR      R2,[R7, #+144]
   \   000002CC   10002DE9           PUSH     {R4}
   \   000002D0   00082DE9           PUSH     {R11}
   \   000002D4   0030A0E3           MOV      R3,#+0
   \   000002D8   08002DE9           PUSH     {R3}
   \   000002DC   00022DE9           PUSH     {R9}
   \   000002E0   010080E0           ADD      R0,R0,R1
   \   000002E4   023086E0           ADD      R3,R6,R2
   \   000002E8   763083E2           ADD      R3,R3,#+118
   \   000002EC   08002DE9           PUSH     {R3}
   \   000002F0   762082E2           ADD      R2,R2,#+118
   \   000002F4   101081E2           ADD      R1,R1,#+16
   \   000002F8   103080E2           ADD      R3,R0,#+16
   \   000002FC   0500A0E1           MOV      R0,R5
   \   00000300   4C0100EF           SWI      +332
   \   00000304   28D08DE2           ADD      SP,SP,#+40
    419            FreeWS(ws);
   \   00000308   0500A0E1           MOV      R0,R5
   \   0000030C   290100EF           SWI      +297
    420            
    421          }
   \   00000310   14D08DE2           ADD      SP,SP,#+20
   \   00000314   F08FBDE8           POP      {R4-R11,PC}      ;; return
    422          

   \                                 In segment CODE, align 4, keep-with-next
    423          void DrawNaticqLog()
    424          {
   \                     DrawNaticqLog:
   \   00000000   F0472DE9           PUSH     {R4-R10,LR}
    425            WSHDR *ws=AllocWS(64);
    426            wsprintf(ws, "[Naticq plugin]");
   \   00000004   1C729FE5           LDR      R7,??DrawNaticqLog_0  ;; `?<Constant "[Naticq plugin]">`
    427            DrawString(ws,pos_msg_x+3,pos_msg_y+3,pos_msg_x+Get_WS_width(ws,font2)+3,pos_msg_y+GetFontYSIZE(font2)+3,font2,0,GetPaletteAdrByColorIndex(2),GetPaletteAdrByColorIndex(23));
   \   00000008   ........           LDR      R6,??DataTable15  ;; screen
   \   0000000C   4000A0E3           MOV      R0,#+64
   \   00000010   250100EF           SWI      +293
   \   00000014   0040A0E1           MOV      R4,R0
   \   00000018   0710A0E1           MOV      R1,R7
   \   0000001C   240100EF           SWI      +292
   \   00000020   1700A0E3           MOV      R0,#+23
   \   00000024   2E0100EF           SWI      +302
   \   00000028   0080A0E1           MOV      R8,R0
   \   0000002C   0200A0E3           MOV      R0,#+2
   \   00000030   2E0100EF           SWI      +302
   \   00000034   0090A0E1           MOV      R9,R0
   \   00000038   ........           LDR      R0,??DataTable27  ;; font2
   \   0000003C   005090E5           LDR      R5,[R0, #+0]
   \   00000040   0500A0E1           MOV      R0,R5
   \   00000044   C50100EF           SWI      +453
   \   00000048   00A0A0E1           MOV      R10,R0
   \   0000004C   0510A0E1           MOV      R1,R5
   \   00000050   0400A0E1           MOV      R0,R4
   \   00000054   080200EF           SWI      +520
   \   00000058   8C1096E5           LDR      R1,[R6, #+140]
   \   0000005C   902096E5           LDR      R2,[R6, #+144]
   \   00000060   00012DE9           PUSH     {R8}
   \   00000064   00022DE9           PUSH     {R9}
   \   00000068   0030A0E3           MOV      R3,#+0
   \   0000006C   08002DE9           PUSH     {R3}
   \   00000070   010080E0           ADD      R0,R0,R1
   \   00000074   031081E2           ADD      R1,R1,#+3
   \   00000078   0530A0E1           MOV      R3,R5
   \   0000007C   08002DE9           PUSH     {R3}
   \   00000080   02308AE0           ADD      R3,R10,R2
   \   00000084   032082E2           ADD      R2,R2,#+3
   \   00000088   033083E2           ADD      R3,R3,#+3
   \   0000008C   08002DE9           PUSH     {R3}
   \   00000090   033080E2           ADD      R3,R0,#+3
   \   00000094   0400A0E1           MOV      R0,R4
   \   00000098   4C0100EF           SWI      +332
    428            if(!naticq_plugin)
   \   0000009C   540096E5           LDR      R0,[R6, #+84]
   \   000000A0   14D08DE2           ADD      SP,SP,#+20
   \   000000A4   000050E3           CMP      R0,#+0
   \   000000A8   1900001A           BNE      ??DrawNaticqLog_1
    429            {
    430            wsprintf(ws, "Naticq not running or wrong version");
   \   000000AC   101087E2           ADD      R1,R7,#+16
   \   000000B0   0400A0E1           MOV      R0,R4
   \   000000B4   240100EF           SWI      +292
    431            DrawString(ws,pos_msg_x+3,pos_msg_y+25,pos_msg_x+80,pos_msg_y+50+25,font2,0,GetPaletteAdrByColorIndex(4),GetPaletteAdrByColorIndex(23));
   \   000000B8   1700A0E3           MOV      R0,#+23
   \   000000BC   2E0100EF           SWI      +302
   \   000000C0   0070A0E1           MOV      R7,R0
   \   000000C4   0400A0E3           MOV      R0,#+4
   \   000000C8   2E0100EF           SWI      +302
   \   000000CC   8C1096E5           LDR      R1,[R6, #+140]
   \   000000D0   902096E5           LDR      R2,[R6, #+144]
   \   000000D4   80002DE9           PUSH     {R7}
   \   000000D8   01002DE9           PUSH     {R0}
   \   000000DC   503081E2           ADD      R3,R1,#+80
   \   000000E0   031081E2           ADD      R1,R1,#+3
   \   000000E4   0000A0E3           MOV      R0,#+0
   \   000000E8   01002DE9           PUSH     {R0}
   \   000000EC   20002DE9           PUSH     {R5}
   \   000000F0   4B0082E2           ADD      R0,R2,#+75
   \   000000F4   01002DE9           PUSH     {R0}
   \   000000F8   192082E2           ADD      R2,R2,#+25
   \   000000FC   0400A0E1           MOV      R0,R4
   \   00000100   4C0100EF           SWI      +332
   \   00000104   14D08DE2           ADD      SP,SP,#+20
   \   00000108   0400A0E1           MOV      R0,R4
   \   0000010C   290100EF           SWI      +297
   \   00000110   F087BDE8           POP      {R4-R10,PC}
    432            }
    433            else
    434            {
    435              wsprintf(ws, "Online: %s", naticq_time);
   \                     ??DrawNaticqLog_1:
   \   00000114   342086E2           ADD      R2,R6,#+52
   \   00000118   341087E2           ADD      R1,R7,#+52
   \   0000011C   0400A0E1           MOV      R0,R4
   \   00000120   240100EF           SWI      +292
    436              DrawString(ws,pos_msg_x+3,pos_msg_y+20,pos_msg_x+Get_WS_width(ws,font2)+3,pos_msg_y+GetFontYSIZE(font2)+25,font2,0,GetPaletteAdrByColorIndex(4),GetPaletteAdrByColorIndex(23));
   \   00000124   1700A0E3           MOV      R0,#+23
   \   00000128   2E0100EF           SWI      +302
   \   0000012C   0080A0E1           MOV      R8,R0
   \   00000130   0400A0E3           MOV      R0,#+4
   \   00000134   2E0100EF           SWI      +302
   \   00000138   0090A0E1           MOV      R9,R0
   \   0000013C   0500A0E1           MOV      R0,R5
   \   00000140   C50100EF           SWI      +453
   \   00000144   00A0A0E1           MOV      R10,R0
   \   00000148   0510A0E1           MOV      R1,R5
   \   0000014C   0400A0E1           MOV      R0,R4
   \   00000150   080200EF           SWI      +520
   \   00000154   8C1096E5           LDR      R1,[R6, #+140]
   \   00000158   902096E5           LDR      R2,[R6, #+144]
   \   0000015C   00012DE9           PUSH     {R8}
   \   00000160   00022DE9           PUSH     {R9}
   \   00000164   0030A0E3           MOV      R3,#+0
   \   00000168   08002DE9           PUSH     {R3}
   \   0000016C   010080E0           ADD      R0,R0,R1
   \   00000170   031081E2           ADD      R1,R1,#+3
   \   00000174   0530A0E1           MOV      R3,R5
   \   00000178   08002DE9           PUSH     {R3}
   \   0000017C   02308AE0           ADD      R3,R10,R2
   \   00000180   142082E2           ADD      R2,R2,#+20
   \   00000184   193083E2           ADD      R3,R3,#+25
   \   00000188   08002DE9           PUSH     {R3}
   \   0000018C   033080E2           ADD      R3,R0,#+3
   \   00000190   0400A0E1           MOV      R0,R4
   \   00000194   4C0100EF           SWI      +332
    437              wsprintf(ws, "Ping: %s", naticq_ping);
   \   00000198   442086E2           ADD      R2,R6,#+68
   \   0000019C   401087E2           ADD      R1,R7,#+64
   \   000001A0   0400A0E1           MOV      R0,R4
   \   000001A4   240100EF           SWI      +292
    438              DrawString(ws,pos_msg_x+3,pos_msg_y+30,pos_msg_x+Get_WS_width(ws,font2)+3,pos_msg_y+GetFontYSIZE(font2)+35,font2,0,GetPaletteAdrByColorIndex(4),GetPaletteAdrByColorIndex(23));
   \   000001A8   1700A0E3           MOV      R0,#+23
   \   000001AC   2E0100EF           SWI      +302
   \   000001B0   0070A0E1           MOV      R7,R0
   \   000001B4   0400A0E3           MOV      R0,#+4
   \   000001B8   2E0100EF           SWI      +302
   \   000001BC   0080A0E1           MOV      R8,R0
   \   000001C0   0500A0E1           MOV      R0,R5
   \   000001C4   C50100EF           SWI      +453
   \   000001C8   0090A0E1           MOV      R9,R0
   \   000001CC   0510A0E1           MOV      R1,R5
   \   000001D0   0400A0E1           MOV      R0,R4
   \   000001D4   080200EF           SWI      +520
   \   000001D8   8C1096E5           LDR      R1,[R6, #+140]
   \   000001DC   902096E5           LDR      R2,[R6, #+144]
   \   000001E0   80002DE9           PUSH     {R7}
   \   000001E4   00012DE9           PUSH     {R8}
   \   000001E8   0030A0E3           MOV      R3,#+0
   \   000001EC   08002DE9           PUSH     {R3}
   \   000001F0   20002DE9           PUSH     {R5}
   \   000001F4   010080E0           ADD      R0,R0,R1
   \   000001F8   023089E0           ADD      R3,R9,R2
   \   000001FC   233083E2           ADD      R3,R3,#+35
   \   00000200   08002DE9           PUSH     {R3}
   \   00000204   1E2082E2           ADD      R2,R2,#+30
   \   00000208   031081E2           ADD      R1,R1,#+3
   \   0000020C   033080E2           ADD      R3,R0,#+3
   \   00000210   0400A0E1           MOV      R0,R4
   \   00000214   4C0100EF           SWI      +332
   \   00000218   28D08DE2           ADD      SP,SP,#+40
    439            }
    440            FreeWS(ws);
   \   0000021C   0400A0E1           MOV      R0,R4
   \   00000220   290100EF           SWI      +297
    441          }
   \   00000224   F087BDE8           POP      {R4-R10,PC}      ;; return
   \                     ??DrawNaticqLog_0:
   \   00000228   ........           DC32     `?<Constant "[Naticq plugin]">`

   \                                 In segment CODE, align 4, keep-with-next
    442          void reboot_ref()
    443          {
   \                     reboot_ref:
   \   00000000   00402DE9           PUSH     {LR}
    444            DirectRedrawGUI();
   \   00000004   3F0100EF           SWI      +319
    445          }
   \   00000008   0080BDE8           POP      {PC}             ;; return
    446          

   \                                 In segment CODE, align 4, keep-with-next
    447          void DrawGPRSLog()
    448          {
   \                     DrawGPRSLog:
   \   00000000   F04F2DE9           PUSH     {R4-R11,LR}
    449            WSHDR *ws=AllocWS(64);
    450            if(IsGPRSConnected())
   \   00000004   ........           LDR      R5,??DataTable17  ;; `?<Constant "\\321\\310\\321\\322\\305\\314\\300">`
   \   00000008   ........           LDR      R6,??DataTable25  ;; COLORfont2
   \   0000000C   ........           LDR      R7,??DataTable34  ;; screen
   \   00000010   04D04DE2           SUB      SP,SP,#+4
   \   00000014   4000A0E3           MOV      R0,#+64
   \   00000018   250100EF           SWI      +293
   \   0000001C   0040A0E1           MOV      R4,R0
   \   00000020   A80000EF           SWI      +168
   \   00000024   000050E3           CMP      R0,#+0
   \   00000028   A900000A           BEQ      ??DrawGPRSLog_0
    451            {
    452              RefreshGPRSTraffic();
   \   0000002C   6F0000EF           SWI      +111
    453              int *traf = GetGPRSTrafficPointer();
   \   00000030   700000EF           SWI      +112
    454              hmm=*traf-ggg;
   \   00000034   9C1097E5           LDR      R1,[R7, #+156]
   \   00000038   0080A0E1           MOV      R8,R0
   \   0000003C   000098E5           LDR      R0,[R8, #+0]
   \   00000040   010040E0           SUB      R0,R0,R1
   \   00000044   980087E5           STR      R0,[R7, #+152]
    455              ascii2ws(ws, start_g2);
   \   00000048   541F87E2           ADD      R1,R7,#+336
   \   0000004C   0400A0E1           MOV      R0,R4
   \   00000050   ........           _BLF     ascii2ws,??ascii2ws??rA
    456              DrawString(ws,pos_msg_x+16,pos_msg_y+28,pos_msg_x+Get_WS_width(ws,font2)+16,pos_msg_y+GetFontYSIZE(font2)+28,font2,0,COLORfont2,GetPaletteAdrByColorIndex(23));
   \   00000054   1700A0E3           MOV      R0,#+23
   \   00000058   2E0100EF           SWI      +302
   \   0000005C   0090A0E1           MOV      R9,R0
   \   00000060   ........           LDR      R0,??DataTable27  ;; font2
   \   00000064   00A090E5           LDR      R10,[R0, #+0]
   \   00000068   0A00A0E1           MOV      R0,R10
   \   0000006C   C50100EF           SWI      +453
   \   00000070   00B0A0E1           MOV      R11,R0
   \   00000074   0A10A0E1           MOV      R1,R10
   \   00000078   0400A0E1           MOV      R0,R4
   \   0000007C   080200EF           SWI      +520
   \   00000080   8C1097E5           LDR      R1,[R7, #+140]
   \   00000084   902097E5           LDR      R2,[R7, #+144]
   \   00000088   00022DE9           PUSH     {R9}
   \   0000008C   0630A0E1           MOV      R3,R6
   \   00000090   08002DE9           PUSH     {R3}
   \   00000094   010080E0           ADD      R0,R0,R1
   \   00000098   101081E2           ADD      R1,R1,#+16
    457              if(ffq) 
   \   0000009C   0090A0E3           MOV      R9,#+0
   \   000000A0   0030A0E3           MOV      R3,#+0
   \   000000A4   08002DE9           PUSH     {R3}
   \   000000A8   0A30A0E1           MOV      R3,R10
   \   000000AC   08002DE9           PUSH     {R3}
   \   000000B0   02308BE0           ADD      R3,R11,R2
   \   000000B4   1C2082E2           ADD      R2,R2,#+28
   \   000000B8   1C3083E2           ADD      R3,R3,#+28
   \   000000BC   08002DE9           PUSH     {R3}
   \   000000C0   103080E2           ADD      R3,R0,#+16
   \   000000C4   0400A0E1           MOV      R0,R4
   \   000000C8   4C0100EF           SWI      +332
   \   000000CC   A80097E5           LDR      R0,[R7, #+168]
   \   000000D0   14D08DE2           ADD      SP,SP,#+20
   \   000000D4   000050E3           CMP      R0,#+0
    458              {
    459                hmm=0;
   \   000000D8   98908715           STRNE    R9,[R7, #+152]
    460                ffq=0;
    461              }
    462              wsprintf(ws, "%t: %dB/s", LG_GSPE, hmm);
   \   000000DC   983097E5           LDR      R3,[R7, #+152]
   \   000000E0   A8908715           STRNE    R9,[R7, #+168]
   \   000000E4   542085E2           ADD      R2,R5,#+84
   \   000000E8   481085E2           ADD      R1,R5,#+72
   \   000000EC   0400A0E1           MOV      R0,R4
   \   000000F0   240100EF           SWI      +292
    463              DrawString(ws,pos_msg_x+16,pos_msg_y+38,pos_msg_x+Get_WS_width(ws,font2)+16,pos_msg_y+GetFontYSIZE(font2)+38,font2,0,COLORfont2,GetPaletteAdrByColorIndex(23));
   \   000000F4   1700A0E3           MOV      R0,#+23
   \   000000F8   2E0100EF           SWI      +302
   \   000000FC   00B0A0E1           MOV      R11,R0
   \   00000100   0A00A0E1           MOV      R0,R10
   \   00000104   C50100EF           SWI      +453
   \   00000108   00008DE5           STR      R0,[SP, #+0]
   \   0000010C   0A10A0E1           MOV      R1,R10
   \   00000110   0400A0E1           MOV      R0,R4
   \   00000114   080200EF           SWI      +520
   \   00000118   8C1097E5           LDR      R1,[R7, #+140]
   \   0000011C   902097E5           LDR      R2,[R7, #+144]
   \   00000120   00082DE9           PUSH     {R11}
   \   00000124   0630A0E1           MOV      R3,R6
   \   00000128   08002DE9           PUSH     {R3}
   \   0000012C   010080E0           ADD      R0,R0,R1
   \   00000130   101081E2           ADD      R1,R1,#+16
   \   00000134   0030A0E3           MOV      R3,#+0
   \   00000138   08002DE9           PUSH     {R3}
   \   0000013C   0A30A0E1           MOV      R3,R10
   \   00000140   08002DE9           PUSH     {R3}
   \   00000144   10309DE5           LDR      R3,[SP, #+16]
   \   00000148   023083E0           ADD      R3,R3,R2
   \   0000014C   263083E2           ADD      R3,R3,#+38
   \   00000150   08002DE9           PUSH     {R3}
   \   00000154   262082E2           ADD      R2,R2,#+38
   \   00000158   103080E2           ADD      R3,R0,#+16
   \   0000015C   0400A0E1           MOV      R0,R4
   \   00000160   4C0100EF           SWI      +332
    464              ggg=*traf;
   \   00000164   000098E5           LDR      R0,[R8, #+0]
    465              trafiks=(*traf-start_traffic)/1024;
   \   00000168   A41097E5           LDR      R1,[R7, #+164]
   \   0000016C   9C0087E5           STR      R0,[R7, #+156]
   \   00000170   000098E5           LDR      R0,[R8, #+0]
    466              wsprintf(ws, "%t: %dKb", LG_GSES, trafiks);
   \   00000174   602085E2           ADD      R2,R5,#+96
   \   00000178   010040E0           SUB      R0,R0,R1
   \   0000017C   C014A0E1           ASR      R1,R0,#+9
   \   00000180   210B80E0           ADD      R0,R0,R1, LSR #+22
   \   00000184   4035A0E1           ASR      R3,R0,#+10
   \   00000188   A03087E5           STR      R3,[R7, #+160]
   \   0000018C   341085E2           ADD      R1,R5,#+52
   \   00000190   0400A0E1           MOV      R0,R4
   \   00000194   240100EF           SWI      +292
    467              DrawString(ws,pos_msg_x+16,pos_msg_y+48,pos_msg_x+Get_WS_width(ws,font2)+16,pos_msg_y+GetFontYSIZE(font2)+48,font2,0,COLORfont2,GetPaletteAdrByColorIndex(23));
   \   00000198   1700A0E3           MOV      R0,#+23
   \   0000019C   2E0100EF           SWI      +302
   \   000001A0   0080A0E1           MOV      R8,R0
   \   000001A4   0A00A0E1           MOV      R0,R10
   \   000001A8   C50100EF           SWI      +453
   \   000001AC   00B0A0E1           MOV      R11,R0
   \   000001B0   0A10A0E1           MOV      R1,R10
   \   000001B4   0400A0E1           MOV      R0,R4
   \   000001B8   080200EF           SWI      +520
   \   000001BC   8C1097E5           LDR      R1,[R7, #+140]
   \   000001C0   902097E5           LDR      R2,[R7, #+144]
   \   000001C4   00012DE9           PUSH     {R8}
   \   000001C8   0630A0E1           MOV      R3,R6
   \   000001CC   08002DE9           PUSH     {R3}
   \   000001D0   010080E0           ADD      R0,R0,R1
   \   000001D4   101081E2           ADD      R1,R1,#+16
   \   000001D8   0930A0E1           MOV      R3,R9
   \   000001DC   08002DE9           PUSH     {R3}
   \   000001E0   0A30A0E1           MOV      R3,R10
   \   000001E4   08002DE9           PUSH     {R3}
   \   000001E8   02308BE0           ADD      R3,R11,R2
   \   000001EC   302082E2           ADD      R2,R2,#+48
   \   000001F0   303083E2           ADD      R3,R3,#+48
   \   000001F4   08002DE9           PUSH     {R3}
   \   000001F8   103080E2           ADD      R3,R0,#+16
   \   000001FC   0400A0E1           MOV      R0,R4
   \   00000200   4C0100EF           SWI      +332
   \   00000204   28D08DE2           ADD      SP,SP,#+40
    468              if(!do_st) 
   \   00000208   B40097E5           LDR      R0,[R7, #+180]
   \   0000020C   000050E3           CMP      R0,#+0
   \   00000210   0600001A           BNE      ??DrawGPRSLog_1
    469              {
    470                switch_gprs_info=(!switch_gprs_info);
   \   00000214   B00097E5           LDR      R0,[R7, #+176]
   \   00000218   000050E3           CMP      R0,#+0
   \   0000021C   0100A003           MOVEQ    R0,#+1
   \   00000220   0000A013           MOVNE    R0,#+0
   \   00000224   B00087E5           STR      R0,[R7, #+176]
    471                do_st=3;
   \   00000228   0300A0E3           MOV      R0,#+3
   \   0000022C   000000EA           B        ??DrawGPRSLog_2
    472              }
    473              else
    474                do_st--;
   \                     ??DrawGPRSLog_1:
   \   00000230   010040E2           SUB      R0,R0,#+1
   \                     ??DrawGPRSLog_2:
   \   00000234   B40087E5           STR      R0,[R7, #+180]
    475              if(!switch_gprs_info)
   \   00000238   B00097E5           LDR      R0,[R7, #+176]
   \   0000023C   000050E3           CMP      R0,#+0
   \   00000240   0700001A           BNE      ??DrawGPRSLog_3
    476              {
    477                if(isfile)
   \   00000244   AC1097E5           LDR      R1,[R7, #+172]
   \   00000248   440FA0E3           MOV      R0,#+272
   \   0000024C   000051E3           CMP      R1,#+0
   \   00000250   073080E0           ADD      R3,R0,R7
   \   00000254   742085E2           ADD      R2,R5,#+116
   \   00000258   80108502           ADDEQ    R1,R5,#+128
    478                wsprintf(ws, "%t: %sKb", LG_GLAS, gpinfo);
   \   0000025C   68108512           ADDNE    R1,R5,#+104
   \   00000260   030000EA           B        ??DrawGPRSLog_4
    479                else
    480                  wsprintf(ws, "%t: %s", LG_GLAS, gpinfo);
    481              }
    482              else
    483                wsprintf(ws, "%t: %dKb", LG_GTOT, result3);
   \                     ??DrawGPRSLog_3:
   \   00000264   7C019FE5           LDR      R0,??DrawGPRSLog_5+0x4  ;; result3
   \   00000268   882085E2           ADD      R2,R5,#+136
   \   0000026C   003090E5           LDR      R3,[R0, #+0]
   \   00000270   341085E2           ADD      R1,R5,#+52
   \                     ??DrawGPRSLog_4:
   \   00000274   0400A0E1           MOV      R0,R4
   \   00000278   240100EF           SWI      +292
    484                DrawString(ws,pos_msg_x+16,pos_msg_y+58,pos_msg_x+Get_WS_width(ws,font2)+16,pos_msg_y+GetFontYSIZE(font2)+58,font2,0,COLORfont2,GetPaletteAdrByColorIndex(23));    
   \   0000027C   1700A0E3           MOV      R0,#+23
   \   00000280   2E0100EF           SWI      +302
   \   00000284   0080A0E1           MOV      R8,R0
   \   00000288   0A00A0E1           MOV      R0,R10
   \   0000028C   C50100EF           SWI      +453
   \   00000290   0090A0E1           MOV      R9,R0
   \   00000294   0A10A0E1           MOV      R1,R10
   \   00000298   0400A0E1           MOV      R0,R4
   \   0000029C   080200EF           SWI      +520
   \   000002A0   8C1097E5           LDR      R1,[R7, #+140]
   \   000002A4   902097E5           LDR      R2,[R7, #+144]
   \   000002A8   00012DE9           PUSH     {R8}
   \   000002AC   40002DE9           PUSH     {R6}
   \   000002B0   0030A0E3           MOV      R3,#+0
   \   000002B4   08002DE9           PUSH     {R3}
   \   000002B8   00042DE9           PUSH     {R10}
   \   000002BC   010080E0           ADD      R0,R0,R1
   \   000002C0   023089E0           ADD      R3,R9,R2
   \   000002C4   3A3083E2           ADD      R3,R3,#+58
   \   000002C8   08002DE9           PUSH     {R3}
   \   000002CC   3A2082E2           ADD      R2,R2,#+58
   \   000002D0   1A0000EA           B        ??DrawGPRSLog_6
    485            }
    486            else
    487            {
    488              wsprintf(ws, "%t ", LG_GPOF);
   \                     ??DrawGPRSLog_0:
   \   000002D4   902085E2           ADD      R2,R5,#+144
   \   000002D8   411F8FE2           ADR      R1,??DrawGPRSLog_5  ;; "%t "
   \   000002DC   0400A0E1           MOV      R0,R4
   \   000002E0   240100EF           SWI      +292
    489              DrawString(ws,pos_msg_x+16,pos_msg_y+28,pos_msg_x+Get_WS_width(ws, font2)+16,pos_msg_y+GetFontYSIZE(font2)+28,font2,0,COLORfont2,GetPaletteAdrByColorIndex(23));
   \   000002E4   1700A0E3           MOV      R0,#+23
   \   000002E8   2E0100EF           SWI      +302
   \   000002EC   0080A0E1           MOV      R8,R0
   \   000002F0   ........           LDR      R0,??DataTable27  ;; font2
   \   000002F4   00A090E5           LDR      R10,[R0, #+0]
   \   000002F8   0A00A0E1           MOV      R0,R10
   \   000002FC   C50100EF           SWI      +453
   \   00000300   0090A0E1           MOV      R9,R0
   \   00000304   0A10A0E1           MOV      R1,R10
   \   00000308   0400A0E1           MOV      R0,R4
   \   0000030C   080200EF           SWI      +520
   \   00000310   8C1097E5           LDR      R1,[R7, #+140]
   \   00000314   902097E5           LDR      R2,[R7, #+144]
   \   00000318   00012DE9           PUSH     {R8}
   \   0000031C   40002DE9           PUSH     {R6}
   \   00000320   0030A0E3           MOV      R3,#+0
   \   00000324   08002DE9           PUSH     {R3}
   \   00000328   00042DE9           PUSH     {R10}
   \   0000032C   010080E0           ADD      R0,R0,R1
   \   00000330   023089E0           ADD      R3,R9,R2
   \   00000334   1C3083E2           ADD      R3,R3,#+28
   \   00000338   08002DE9           PUSH     {R3}
   \   0000033C   1C2082E2           ADD      R2,R2,#+28
   \                     ??DrawGPRSLog_6:
   \   00000340   103080E2           ADD      R3,R0,#+16
   \   00000344   101081E2           ADD      R1,R1,#+16
   \   00000348   0400A0E1           MOV      R0,R4
   \   0000034C   4C0100EF           SWI      +332
   \   00000350   14D08DE2           ADD      SP,SP,#+20
    490            }
    491            wsprintf(ws, "[%t]", LG_GINF);
   \   00000354   A02085E2           ADD      R2,R5,#+160
   \   00000358   B41085E2           ADD      R1,R5,#+180
   \   0000035C   0400A0E1           MOV      R0,R4
   \   00000360   240100EF           SWI      +292
    492            DrawString(ws,pos_msg_x+16,pos_msg_y+13,pos_msg_x+Get_WS_width(ws, font1)+16,pos_msg_y+GetFontYSIZE(font1)+13,font1,0,COLORfont1,GetPaletteAdrByColorIndex(23));
   \   00000364   1700A0E3           MOV      R0,#+23
   \   00000368   2E0100EF           SWI      +302
   \   0000036C   0050A0E1           MOV      R5,R0
   \   00000370   ........           LDR      R0,??DataTable22  ;; font1
   \   00000374   006090E5           LDR      R6,[R0, #+0]
   \   00000378   0600A0E1           MOV      R0,R6
   \   0000037C   C50100EF           SWI      +453
   \   00000380   0080A0E1           MOV      R8,R0
   \   00000384   0610A0E1           MOV      R1,R6
   \   00000388   0400A0E1           MOV      R0,R4
   \   0000038C   080200EF           SWI      +520
   \   00000390   8C1097E5           LDR      R1,[R7, #+140]
   \   00000394   902097E5           LDR      R2,[R7, #+144]
   \   00000398   ........           LDR      R3,??DataTable23  ;; COLORfont1
   \   0000039C   20002DE9           PUSH     {R5}
   \   000003A0   08002DE9           PUSH     {R3}
   \   000003A4   010080E0           ADD      R0,R0,R1
   \   000003A8   101081E2           ADD      R1,R1,#+16
   \   000003AC   0030A0E3           MOV      R3,#+0
   \   000003B0   08002DE9           PUSH     {R3}
   \   000003B4   40002DE9           PUSH     {R6}
   \   000003B8   023088E0           ADD      R3,R8,R2
   \   000003BC   0D3083E2           ADD      R3,R3,#+13
   \   000003C0   08002DE9           PUSH     {R3}
   \   000003C4   0D2082E2           ADD      R2,R2,#+13
   \   000003C8   103080E2           ADD      R3,R0,#+16
   \   000003CC   0400A0E1           MOV      R0,R4
   \   000003D0   4C0100EF           SWI      +332
    493            FreeWS(ws);
   \   000003D4   0400A0E1           MOV      R0,R4
   \   000003D8   290100EF           SWI      +297
    494          }
   \   000003DC   18D08DE2           ADD      SP,SP,#+24
   \   000003E0   F08FBDE8           POP      {R4-R11,PC}      ;; return
   \                     ??DrawGPRSLog_5:
   \   000003E4   25742000           DC8      "%t "
   \   000003E8   ........           DC32     result3

   \                                 In segment CODE, align 4, keep-with-next
    495          void DrawAppLog()
    496          {
   \                     DrawAppLog:
   \   00000000   F0432DE9           PUSH     {R4-R9,LR}
    497            WSHDR *ws=AllocWS(64);
    498            switch(app_pos)
   \   00000004   ........           LDR      R6,??DataTable34  ;; screen
   \   00000008   ........           LDR      R5,??DataTable25  ;; COLORfont2
   \   0000000C   4000A0E3           MOV      R0,#+64
   \   00000010   250100EF           SWI      +293
   \   00000014   0040A0E1           MOV      R4,R0
   \   00000018   DC0096E5           LDR      R0,[R6, #+220]
   \   0000001C   010050E2           SUBS     R0,R0,#+1
   \   00000020   0400000A           BEQ      ??DrawAppLog_0
   \   00000024   010050E2           SUBS     R0,R0,#+1
   \   00000028   1F00000A           BEQ      ??DrawAppLog_1
   \   0000002C   010050E2           SUBS     R0,R0,#+1
   \   00000030   1F00000A           BEQ      ??DrawAppLog_2
   \   00000034   F083BDE8           POP      {R4-R9,PC}
    499            {
    500            case 1:
    501              {
    502              wsprintf(ws, link1_name);
   \                     ??DrawAppLog_0:
   \   00000038   FC109FE5           LDR      R1,??DrawAppLog_3  ;; link1_name
   \   0000003C   0400A0E1           MOV      R0,R4
   \   00000040   240100EF           SWI      +292
    503              DrawString(ws,pos_link2_x+3,pos_link2_y-14,pos_link2_x+Get_WS_width(ws,font2)+3,pos_link2_y+GetFontYSIZE(font2)-14,font2,0, COLORfont2,GetPaletteAdrByColorIndex(23));
   \   00000044   1700A0E3           MOV      R0,#+23
   \   00000048   2E0100EF           SWI      +302
   \   0000004C   0080A0E1           MOV      R8,R0
   \   00000050   ........           LDR      R0,??DataTable27  ;; font2
   \   00000054   007090E5           LDR      R7,[R0, #+0]
   \   00000058   0700A0E1           MOV      R0,R7
   \   0000005C   C50100EF           SWI      +453
   \   00000060   0090A0E1           MOV      R9,R0
   \   00000064   0710A0E1           MOV      R1,R7
   \   00000068   0400A0E1           MOV      R0,R4
   \   0000006C   080200EF           SWI      +520
   \   00000070   E01096E5           LDR      R1,[R6, #+224]
   \   00000074   E42096E5           LDR      R2,[R6, #+228]
   \   00000078   00012DE9           PUSH     {R8}
   \   0000007C   20002DE9           PUSH     {R5}
   \   00000080   0030A0E3           MOV      R3,#+0
   \   00000084   08002DE9           PUSH     {R3}
   \   00000088   80002DE9           PUSH     {R7}
   \   0000008C   010080E0           ADD      R0,R0,R1
   \   00000090   023089E0           ADD      R3,R9,R2
   \   00000094   0E3043E2           SUB      R3,R3,#+14
   \   00000098   08002DE9           PUSH     {R3}
   \   0000009C   0E2042E2           SUB      R2,R2,#+14
   \   000000A0   031081E2           ADD      R1,R1,#+3
   \   000000A4   033080E2           ADD      R3,R0,#+3
   \   000000A8   1D0000EA           B        ??DrawAppLog_4
    504              FreeWS(ws);
    505              }
    506              break;
    507            case 2:
    508              wsprintf(ws, link2_name);
   \                     ??DrawAppLog_1:
   \   000000AC   8C109FE5           LDR      R1,??DrawAppLog_3+0x4  ;; link2_name
   \   000000B0   000000EA           B        ??DrawAppLog_5
    509              DrawString(ws,pos_link2_x-7,pos_link2_y-14,pos_link2_x+Get_WS_width(ws,font2)-7,pos_link2_y+GetFontYSIZE(font2)-14,font2,0,COLORfont2,GetPaletteAdrByColorIndex(23));
    510              FreeWS(ws);
    511              break;
    512            case 3:
    513              wsprintf(ws, link3_name);
   \                     ??DrawAppLog_2:
   \   000000B4   88109FE5           LDR      R1,??DrawAppLog_3+0x8  ;; link3_name
   \                     ??DrawAppLog_5:
   \   000000B8   0400A0E1           MOV      R0,R4
   \   000000BC   240100EF           SWI      +292
    514              DrawString(ws,pos_link2_x-7,pos_link2_y-14,pos_link2_x+Get_WS_width(ws,font2)-7,pos_link2_y+GetFontYSIZE(font2)-14,font2,0,COLORfont2,GetPaletteAdrByColorIndex(23));
   \   000000C0   1700A0E3           MOV      R0,#+23
   \   000000C4   2E0100EF           SWI      +302
   \   000000C8   0080A0E1           MOV      R8,R0
   \   000000CC   ........           LDR      R0,??DataTable27  ;; font2
   \   000000D0   007090E5           LDR      R7,[R0, #+0]
   \   000000D4   0700A0E1           MOV      R0,R7
   \   000000D8   C50100EF           SWI      +453
   \   000000DC   0090A0E1           MOV      R9,R0
   \   000000E0   0710A0E1           MOV      R1,R7
   \   000000E4   0400A0E1           MOV      R0,R4
   \   000000E8   080200EF           SWI      +520
   \   000000EC   E01096E5           LDR      R1,[R6, #+224]
   \   000000F0   E42096E5           LDR      R2,[R6, #+228]
   \   000000F4   00012DE9           PUSH     {R8}
   \   000000F8   20002DE9           PUSH     {R5}
   \   000000FC   0030A0E3           MOV      R3,#+0
   \   00000100   08002DE9           PUSH     {R3}
   \   00000104   80002DE9           PUSH     {R7}
   \   00000108   010080E0           ADD      R0,R0,R1
   \   0000010C   023089E0           ADD      R3,R9,R2
   \   00000110   0E3043E2           SUB      R3,R3,#+14
   \   00000114   08002DE9           PUSH     {R3}
   \   00000118   0E2042E2           SUB      R2,R2,#+14
   \   0000011C   071041E2           SUB      R1,R1,#+7
   \   00000120   073040E2           SUB      R3,R0,#+7
   \                     ??DrawAppLog_4:
   \   00000124   0400A0E1           MOV      R0,R4
   \   00000128   4C0100EF           SWI      +332
    515              FreeWS(ws);
   \   0000012C   0400A0E1           MOV      R0,R4
   \   00000130   290100EF           SWI      +297
   \   00000134   14D08DE2           ADD      SP,SP,#+20
    516              break;
    517            }
    518          }
   \   00000138   F083BDE8           POP      {R4-R9,PC}       ;; return
   \                     ??DrawAppLog_3:
   \   0000013C   ........           DC32     link1_name
   \   00000140   ........           DC32     link2_name
   \   00000144   ........           DC32     link3_name
    519          
    520          

   \                                 In segment CODE, align 4, keep-with-next
    521          void RedrawScreen()
    522          {
   \                     RedrawScreen:
   \   00000000   F04F2DE9           PUSH     {R4-R11,LR}
   \   00000004   14D04DE2           SUB      SP,SP,#+20
    523            DrwImg(&screen, 0, 0, NULL, NULL);
   \   00000008   ........           LDR      R4,??DataTable28  ;; screen
    524            void *canvasdata = BuildCanvas();
   \   0000000C   64549FE5           LDR      R5,??RedrawScreen_2  ;; `?<Constant "0:\\\\zbin\\\\miosd\\\\img8.png">`
   \   00000010   0000A0E3           MOV      R0,#+0
   \   00000014   01002DE9           PUSH     {R0}
   \   00000018   0030A0E3           MOV      R3,#+0
   \   0000001C   0020A0E1           MOV      R2,R0
   \   00000020   0010A0E1           MOV      R1,R0
   \   00000024   0400A0E1           MOV      R0,R4
   \   00000028   ........           BL       DrwImg
   \   0000002C   F18000EF           SWI      +33009
   \   00000030   ........           LDR      R0,??DataTable38  ;; use_plugin
   \   00000034   781085E2           ADD      R1,R5,#+120
   \   00000038   10108DE5           STR      R1,[SP, #+16]
   \   0000003C   481085E2           ADD      R1,R5,#+72
   \   00000040   14108DE5           STR      R1,[SP, #+20]
   \   00000044   00B090E5           LDR      R11,[R0, #+0]
   \   00000048   740094E5           LDR      R0,[R4, #+116]
   \   0000004C   4A6F85E2           ADD      R6,R5,#+296
   \   00000050   447F85E2           ADD      R7,R5,#+272
   \   00000054   F88085E2           ADD      R8,R5,#+248
   \   00000058   509F85E2           ADD      R9,R5,#+320
   \   0000005C   18A085E2           ADD      R10,R5,#+24
   \   00000060   302085E2           ADD      R2,R5,#+48
   \   00000064   04D08DE2           ADD      SP,SP,#+4
   \   00000068   010040E2           SUB      R0,R0,#+1
   \   0000006C   070050E3           CMP      R0,#+7
   \   00000070   FE00008A           BHI      ??RedrawScreen_3
   \   00000074   021F8FE2           ADR      R1,??RedrawScreen_0
   \   00000078   8000A0E1           MOV      R0,R0, LSL #+1
   \   0000007C   B01091E1           LDRH     R1,[R1, R0]
   \   00000080   01F18FE0           ADD      PC,PC,R1, LSL #+2
   \                     ??RedrawScreen_0:
   \   00000084   03000E001200       DC16     +3,+14,+18,+14
   \              0E00        
   \   0000008C   B1000300B500       DC16     +177,+3,+181,+181
   \              B500        
    525            switch(phase)
    526            {
    527            case 1:
    528              if(use_plugin)
   \                     ??RedrawScreen_4:
   \   00000094   00005BE3           CMP      R11,#+0
   \   00000098   0400000A           BEQ      ??RedrawScreen_5
    529              DrawImg(pos_main_x, pos_main_y-20, (int)"0:\\zbin\\miosd\\img8.png");
   \   0000009C   7C0094E5           LDR      R0,[R4, #+124]
   \   000000A0   0520A0E1           MOV      R2,R5
   \   000000A4   141040E2           SUB      R1,R0,#+20
   \   000000A8   780094E5           LDR      R0,[R4, #+120]
   \   000000AC   230000EF           SWI      +35
    530              DrawImg(pos_main_x, pos_main_y, (int)"0:\\zbin\\miosd\\img1.png");
   \                     ??RedrawScreen_5:
   \   000000B0   7C1094E5           LDR      R1,[R4, #+124]
   \   000000B4   780094E5           LDR      R0,[R4, #+120]
   \   000000B8   0A20A0E1           MOV      R2,R10
   \   000000BC   EA0000EA           B        ??RedrawScreen_6
    531              break;
    532            case 2:
    533              DrawImg(pos_link_x, pos_link_y, (int)"0:\\zbin\\miosd\\img2.png");
   \                     ??RedrawScreen_7:
   \   000000C0   881094E5           LDR      R1,[R4, #+136]
   \   000000C4   840094E5           LDR      R0,[R4, #+132]
   \   000000C8   230000EF           SWI      +35
    534              if(use_plugin)
   \   000000CC   F0FFFFEA           B        ??RedrawScreen_4
    535              DrawImg(pos_main_x, pos_main_y-20, (int)"0:\\zbin\\miosd\\img8.png");
    536              DrawImg(pos_main_x, pos_main_y, (int)"0:\\zbin\\miosd\\img1.png");
    537             break;
    538            case 3:
    539              if(pos==5)
   \                     ??RedrawScreen_8:
   \   000000D0   703094E5           LDR      R3,[R4, #+112]
   \   000000D4   840094E5           LDR      R0,[R4, #+132]
   \   000000D8   881094E5           LDR      R1,[R4, #+136]
   \   000000DC   050053E3           CMP      R3,#+5
   \   000000E0   1D00001A           BNE      ??RedrawScreen_9
    540              {
    541                DrawImg(pos_link_x, pos_link_y, (int)"0:\\zbin\\miosd\\img2.png");
   \   000000E4   230000EF           SWI      +35
    542              if(use_plugin)
   \   000000E8   00005BE3           CMP      R11,#+0
   \   000000EC   0400000A           BEQ      ??RedrawScreen_10
    543              DrawImg(pos_main_x, pos_main_y-20, (int)"0:\\zbin\\miosd\\img8.png");
   \   000000F0   7C0094E5           LDR      R0,[R4, #+124]
   \   000000F4   0520A0E1           MOV      R2,R5
   \   000000F8   141040E2           SUB      R1,R0,#+20
   \   000000FC   780094E5           LDR      R0,[R4, #+120]
   \   00000100   230000EF           SWI      +35
    544              DrawImg(pos_main_x, pos_main_y, (int)"0:\\zbin\\miosd\\img1.png");
   \                     ??RedrawScreen_10:
   \   00000104   7C1094E5           LDR      R1,[R4, #+124]
   \   00000108   780094E5           LDR      R0,[R4, #+120]
   \   0000010C   0A20A0E1           MOV      R2,R10
   \   00000110   230000EF           SWI      +35
    545              DrawImg(pos_link2_x+10, pos_link2_y, (int)"0:\\zbin\\miosd\\img6.png");
   \   00000114   E00094E5           LDR      R0,[R4, #+224]
   \   00000118   10209DE5           LDR      R2,[SP, #+16]
   \   0000011C   E41094E5           LDR      R1,[R4, #+228]
   \   00000120   0A0080E2           ADD      R0,R0,#+10
   \   00000124   230000EF           SWI      +35
    546              if(app_pos==1)DrawImg(pos_link2_x, pos_link2_y-17, (int)"0:\\zbin\\miosd\\img7.png");
   \   00000128   DC0094E5           LDR      R0,[R4, #+220]
   \   0000012C   602085E2           ADD      R2,R5,#+96
   \   00000130   010050E3           CMP      R0,#+1
   \   00000134   E40094E5           LDR      R0,[R4, #+228]
   \   00000138   111040E2           SUB      R1,R0,#+17
   \   0000013C   E00094E5           LDR      R0,[R4, #+224]
    547              else DrawImg(pos_link2_x-10, pos_link2_y-17, (int)"0:\\zbin\\miosd\\img7.png");
   \   00000140   0A004012           SUBNE    R0,R0,#+10
   \   00000144   230000EF           SWI      +35
    548              DrawAppLog();
   \   00000148   ........           BL       DrawAppLog
    549              DrawImg(pos_msg_x+10, pos_msg_y+24, (int)"0:\\zbin\\miosd\\img4.png"); 
   \   0000014C   900094E5           LDR      R0,[R4, #+144]
   \   00000150   0C209DE5           LDR      R2,[SP, #+12]
   \   00000154   181080E2           ADD      R1,R0,#+24
   \   00000158   0D0000EA           B        ??RedrawScreen_11
    550              }
    551              else
    552              {
    553                DrawImg(pos_link_x, pos_link_y, (int)"0:\\zbin\\miosd\\img2.png");
   \                     ??RedrawScreen_9:
   \   0000015C   230000EF           SWI      +35
    554              if(use_plugin)
   \   00000160   00005BE3           CMP      R11,#+0
   \   00000164   0400000A           BEQ      ??RedrawScreen_12
    555              DrawImg(pos_main_x, pos_main_y-20, (int)"0:\\zbin\\miosd\\img8.png");
   \   00000168   7C0094E5           LDR      R0,[R4, #+124]
   \   0000016C   0520A0E1           MOV      R2,R5
   \   00000170   141040E2           SUB      R1,R0,#+20
   \   00000174   780094E5           LDR      R0,[R4, #+120]
   \   00000178   230000EF           SWI      +35
    556                DrawImg(pos_main_x, pos_main_y, (int)"0:\\zbin\\miosd\\img1.png");
   \                     ??RedrawScreen_12:
   \   0000017C   7C1094E5           LDR      R1,[R4, #+124]
   \   00000180   780094E5           LDR      R0,[R4, #+120]
   \   00000184   0A20A0E1           MOV      R2,R10
   \   00000188   230000EF           SWI      +35
    557                DrawImg(pos_msg_x+10, pos_msg_y, (int)"0:\\zbin\\miosd\\img3.png");
   \   0000018C   901094E5           LDR      R1,[R4, #+144]
   \   00000190   902085E2           ADD      R2,R5,#+144
   \                     ??RedrawScreen_11:
   \   00000194   8C0094E5           LDR      R0,[R4, #+140]
    558              }
    559              switch(pos)
   \   00000198   DCB29FE5           LDR      R11,??RedrawScreen_2+0x4  ;; reboot_ref
   \   0000019C   0A0080E2           ADD      R0,R0,#+10
   \   000001A0   230000EF           SWI      +35
   \   000001A4   8C3094E5           LDR      R3,[R4, #+140]
   \   000001A8   702094E5           LDR      R2,[R4, #+112]
   \   000001AC   901094E5           LDR      R1,[R4, #+144]
   \   000001B0   0A0083E2           ADD      R0,R3,#+10
   \   000001B4   5FAFA0E3           MOV      R10,#+380
   \   000001B8   050052E3           CMP      R2,#+5
   \   000001BC   AB00008A           BHI      ??RedrawScreen_3
   \   000001C0   01CF8FE2           ADR      R12,??RedrawScreen_1
   \   000001C4   02C0DCE7           LDRB     R12,[R12, R2]
   \   000001C8   0CF18FE0           ADD      PC,PC,R12, LSL #+2
   \                     ??RedrawScreen_1:
   \   000001CC   01030A12           DC8      +1,+3,+10,+18
   \   000001D0   15170000           DC8      +21,+23,+0,+0
    560              {
    561              case 0:
    562                DrawNaticqLog();
   \                     ??RedrawScreen_13:
   \   000001D4   ........           BL       DrawNaticqLog
    563                GBS_StartTimerProc(&mytmr2, 216, reboot_ref);
   \                     ??RedrawScreen_14:
   \   000001D8   080000EA           B        ??RedrawScreen_15
    564                break;
    565              case 1:
    566                DrawImg(pos_msg_x+10, pos_msg_y+10, (int)"0:\\zbin\\miosd\\1.png");
   \                     ??RedrawScreen_16:
   \   000001DC   A82085E2           ADD      R2,R5,#+168
   \   000001E0   0A1081E2           ADD      R1,R1,#+10
   \   000001E4   230000EF           SWI      +35
    567                DrawBatteryLog();
   \   000001E8   ........           BL       DrawBatteryLog
    568                DrawSystemLog();
   \   000001EC   ........           BL       DrawSystemLog
    569                DrawGPRSLog();
   \   000001F0   ........           BL       DrawGPRSLog
    570                GBS_StartTimerProc(&mytmr2, 216, reboot_ref);
   \   000001F4   010000EA           B        ??RedrawScreen_15
    571                break;
    572              case 2:
    573                DrawImg(pos_msg_x+10, pos_msg_y, (int)"0:\\zbin\\miosd\\2.png");
   \                     ??RedrawScreen_17:
   \   000001F8   BC2085E2           ADD      R2,R5,#+188
   \                     ??RedrawScreen_18:
   \   000001FC   230000EF           SWI      +35
    574                GBS_StartTimerProc(&mytmr2, 216, reboot_ref);
   \                     ??RedrawScreen_15:
   \   00000200   0B20A0E1           MOV      R2,R11
   \   00000204   D810A0E3           MOV      R1,#+216
   \   00000208   04008AE0           ADD      R0,R10,R4
   \   0000020C   4D0000EF           SWI      +77
   \                     ??RedrawScreen_19:
   \   00000210   14D08DE2           ADD      SP,SP,#+20
   \   00000214   F08FBDE8           POP      {R4-R11,PC}
    575                break;
    576              case 3:
    577                DrawImg(pos_msg_x+10, pos_msg_y, (int)"0:\\zbin\\miosd\\3.png");
   \                     ??RedrawScreen_20:
   \   00000218   D02085E2           ADD      R2,R5,#+208
   \                     ??RedrawScreen_21:
   \   0000021C   230000EF           SWI      +35
    578                GBS_StartTimerProc(&mytmr2, 216, reboot_ref);
   \   00000220   F6FFFFEA           B        ??RedrawScreen_15
    579                break;
    580              case 4:
    581                DrawImg(pos_msg_x+10, pos_msg_y, (int)"0:\\zbin\\miosd\\4.png");
   \                     ??RedrawScreen_22:
   \   00000224   E42085E2           ADD      R2,R5,#+228
   \   00000228   F3FFFFEA           B        ??RedrawScreen_18
    582                GBS_StartTimerProc(&mytmr2, 216, reboot_ref);
    583                break;
    584              case 5: 
    585                switch(app_pos)
   \                     ??RedrawScreen_23:
   \   0000022C   DC2094E5           LDR      R2,[R4, #+220]
   \   00000230   181081E2           ADD      R1,R1,#+24
   \   00000234   012052E2           SUBS     R2,R2,#+1
   \   00000238   0400000A           BEQ      ??RedrawScreen_24
   \   0000023C   012052E2           SUBS     R2,R2,#+1
   \   00000240   1600000A           BEQ      ??RedrawScreen_25
   \   00000244   012052E2           SUBS     R2,R2,#+1
   \   00000248   2900000A           BEQ      ??RedrawScreen_26
   \   0000024C   EFFFFFEA           B        ??RedrawScreen_19
    586                {
    587                case 1:
    588                  DrawImg(pos_msg_x+10, pos_msg_y+24, (int)"0:\\zbin\\miosd\\img5.png"); 
   \                     ??RedrawScreen_24:
   \   00000250   0920A0E1           MOV      R2,R9
   \   00000254   230000EF           SWI      +35
    589                  DrawImg(pos_msg_x+10, pos_msg_y+24, (int)"0:\\zbin\\miosd\\app1.png"); 
   \   00000258   900094E5           LDR      R0,[R4, #+144]
   \   0000025C   0820A0E1           MOV      R2,R8
   \   00000260   181080E2           ADD      R1,R0,#+24
   \   00000264   8C0094E5           LDR      R0,[R4, #+140]
   \   00000268   0A0080E2           ADD      R0,R0,#+10
   \   0000026C   230000EF           SWI      +35
    590                  DrawImg(pos_msg_x+30, pos_msg_y+24, (int)"0:\\zbin\\miosd\\app2.png"); 
   \   00000270   900094E5           LDR      R0,[R4, #+144]
   \   00000274   0720A0E1           MOV      R2,R7
   \   00000278   181080E2           ADD      R1,R0,#+24
   \   0000027C   8C0094E5           LDR      R0,[R4, #+140]
   \   00000280   1E0080E2           ADD      R0,R0,#+30
   \   00000284   230000EF           SWI      +35
    591                  DrawImg(pos_msg_x+50, pos_msg_y+24, (int)"0:\\zbin\\miosd\\app3.png");
   \   00000288   900094E5           LDR      R0,[R4, #+144]
   \   0000028C   0620A0E1           MOV      R2,R6
   \   00000290   181080E2           ADD      R1,R0,#+24
   \   00000294   8C0094E5           LDR      R0,[R4, #+140]
   \   00000298   320080E2           ADD      R0,R0,#+50
   \   0000029C   DEFFFFEA           B        ??RedrawScreen_21
    592                  GBS_StartTimerProc(&mytmr2, 216, reboot_ref);
    593                  break;
    594                case 2:
    595                  DrawImg(pos_msg_x+30, pos_msg_y+24, (int)"0:\\zbin\\miosd\\img5.png"); 
   \                     ??RedrawScreen_25:
   \   000002A0   0920A0E1           MOV      R2,R9
   \   000002A4   1E0083E2           ADD      R0,R3,#+30
   \   000002A8   230000EF           SWI      +35
    596                  DrawImg(pos_msg_x+10, pos_msg_y+24, (int)"0:\\zbin\\miosd\\app1.png"); 
   \   000002AC   900094E5           LDR      R0,[R4, #+144]
   \   000002B0   0820A0E1           MOV      R2,R8
   \   000002B4   181080E2           ADD      R1,R0,#+24
   \   000002B8   8C0094E5           LDR      R0,[R4, #+140]
   \   000002BC   0A0080E2           ADD      R0,R0,#+10
   \   000002C0   230000EF           SWI      +35
    597                  DrawImg(pos_msg_x+30, pos_msg_y+24, (int)"0:\\zbin\\miosd\\app2.png"); 
   \   000002C4   900094E5           LDR      R0,[R4, #+144]
   \   000002C8   0720A0E1           MOV      R2,R7
   \   000002CC   181080E2           ADD      R1,R0,#+24
   \   000002D0   8C0094E5           LDR      R0,[R4, #+140]
   \   000002D4   1E0080E2           ADD      R0,R0,#+30
   \   000002D8   230000EF           SWI      +35
    598                  DrawImg(pos_msg_x+50, pos_msg_y+24, (int)"0:\\zbin\\miosd\\app3.png"); 
   \   000002DC   900094E5           LDR      R0,[R4, #+144]
   \   000002E0   0620A0E1           MOV      R2,R6
   \   000002E4   181080E2           ADD      R1,R0,#+24
   \   000002E8   8C0094E5           LDR      R0,[R4, #+140]
   \   000002EC   320080E2           ADD      R0,R0,#+50
   \   000002F0   C1FFFFEA           B        ??RedrawScreen_18
    599                  GBS_StartTimerProc(&mytmr2, 216, reboot_ref);
    600                  break;
    601                case 3:
    602                  DrawImg(pos_msg_x+50, pos_msg_y+24, (int)"0:\\zbin\\miosd\\img5.png");
   \                     ??RedrawScreen_26:
   \   000002F4   0920A0E1           MOV      R2,R9
   \   000002F8   320083E2           ADD      R0,R3,#+50
   \   000002FC   230000EF           SWI      +35
    603                  DrawImg(pos_msg_x+10, pos_msg_y+24, (int)"0:\\zbin\\miosd\\app1.png"); 
   \   00000300   900094E5           LDR      R0,[R4, #+144]
   \   00000304   0820A0E1           MOV      R2,R8
   \   00000308   181080E2           ADD      R1,R0,#+24
   \   0000030C   8C0094E5           LDR      R0,[R4, #+140]
   \   00000310   0A0080E2           ADD      R0,R0,#+10
   \   00000314   230000EF           SWI      +35
    604                  DrawImg(pos_msg_x+30, pos_msg_y+24, (int)"0:\\zbin\\miosd\\app2.png"); 
   \   00000318   900094E5           LDR      R0,[R4, #+144]
   \   0000031C   0720A0E1           MOV      R2,R7
   \   00000320   181080E2           ADD      R1,R0,#+24
   \   00000324   8C0094E5           LDR      R0,[R4, #+140]
   \   00000328   1E0080E2           ADD      R0,R0,#+30
   \   0000032C   230000EF           SWI      +35
    605                  DrawImg(pos_msg_x+50, pos_msg_y+24, (int)"0:\\zbin\\miosd\\app3.png");
   \   00000330   900094E5           LDR      R0,[R4, #+144]
   \   00000334   0620A0E1           MOV      R2,R6
   \   00000338   181080E2           ADD      R1,R0,#+24
   \   0000033C   8C0094E5           LDR      R0,[R4, #+140]
   \   00000340   320080E2           ADD      R0,R0,#+50
   \   00000344   230000EF           SWI      +35
    606                  GBS_StartTimerProc(&mytmr2, 216, reboot_ref);
   \   00000348   ACFFFFEA           B        ??RedrawScreen_15
    607                  break;
    608                }
    609                break;
    610              }
    611              break;
    612            case 4:
    613              DrawImg(pos_link_x, pos_link_y, (int)"0:\\zbin\\miosd\\img2.png");
    614              if(use_plugin)
    615              DrawImg(pos_main_x, pos_main_y-20, (int)"0:\\zbin\\miosd\\img8.png");
    616              DrawImg(pos_main_x, pos_main_y, (int)"0:\\zbin\\miosd\\img1.png");
    617              break;
    618            case 5:
    619              DrawImg(pos_link_x, pos_link_y, (int)"0:\\zbin\\miosd\\img2.png");
   \                     ??RedrawScreen_27:
   \   0000034C   881094E5           LDR      R1,[R4, #+136]
   \   00000350   840094E5           LDR      R0,[R4, #+132]
   \   00000354   230000EF           SWI      +35
    620              if(use_plugin)
   \   00000358   4DFFFFEA           B        ??RedrawScreen_4
    621              DrawImg(pos_main_x, pos_main_y-20, (int)"0:\\zbin\\miosd\\img8.png");
    622              DrawImg(pos_main_x, pos_main_y, (int)"0:\\zbin\\miosd\\img1.png");
    623              break;
    624            case 6:
    625              if(use_plugin)
    626              DrawImg(pos_main_x, pos_main_y-20, (int)"0:\\zbin\\miosd\\img8.png");
    627              DrawImg(pos_main_x, pos_main_y, (int)"0:\\zbin\\miosd\\img1.png");
    628              break;
    629            case 7:
    630            case 8:
    631              DrawImg(pos_link_x, pos_link_y, (int)"0:\\zbin\\miosd\\img2.png");
   \                     ??RedrawScreen_28:
   \   0000035C   881094E5           LDR      R1,[R4, #+136]
   \   00000360   840094E5           LDR      R0,[R4, #+132]
   \   00000364   230000EF           SWI      +35
    632              if(use_plugin)
   \   00000368   00005BE3           CMP      R11,#+0
   \   0000036C   0400000A           BEQ      ??RedrawScreen_29
    633              DrawImg(pos_main_x, pos_main_y-20, (int)"0:\\zbin\\miosd\\img8.png");
   \   00000370   7C0094E5           LDR      R0,[R4, #+124]
   \   00000374   0520A0E1           MOV      R2,R5
   \   00000378   141040E2           SUB      R1,R0,#+20
   \   0000037C   780094E5           LDR      R0,[R4, #+120]
   \   00000380   230000EF           SWI      +35
    634              DrawImg(pos_main_x, pos_main_y, (int)"0:\\zbin\\miosd\\img1.png");
   \                     ??RedrawScreen_29:
   \   00000384   7C1094E5           LDR      R1,[R4, #+124]
   \   00000388   780094E5           LDR      R0,[R4, #+120]
   \   0000038C   0A20A0E1           MOV      R2,R10
   \   00000390   230000EF           SWI      +35
    635              DrawImg(pos_link2_x+10, pos_link2_y, (int)"0:\\zbin\\miosd\\img6.png"); 
   \   00000394   E00094E5           LDR      R0,[R4, #+224]
   \   00000398   10209DE5           LDR      R2,[SP, #+16]
   \   0000039C   E41094E5           LDR      R1,[R4, #+228]
   \   000003A0   0A0080E2           ADD      R0,R0,#+10
   \   000003A4   230000EF           SWI      +35
    636              DrawImg(pos_msg_x+10, pos_msg_y+24, (int)"0:\\zbin\\miosd\\img4.png"); 
   \   000003A8   900094E5           LDR      R0,[R4, #+144]
   \   000003AC   0C209DE5           LDR      R2,[SP, #+12]
   \   000003B0   181080E2           ADD      R1,R0,#+24
   \   000003B4   8C0094E5           LDR      R0,[R4, #+140]
   \   000003B8   0A0080E2           ADD      R0,R0,#+10
   \   000003BC   230000EF           SWI      +35
    637              switch(app_pos)
   \   000003C0   DC0094E5           LDR      R0,[R4, #+220]
   \   000003C4   010050E2           SUBS     R0,R0,#+1
   \   000003C8   0400000A           BEQ      ??RedrawScreen_30
   \   000003CC   010050E2           SUBS     R0,R0,#+1
   \   000003D0   0800000A           BEQ      ??RedrawScreen_31
   \   000003D4   010050E2           SUBS     R0,R0,#+1
   \   000003D8   0C00000A           BEQ      ??RedrawScreen_32
   \   000003DC   8BFFFFEA           B        ??RedrawScreen_19
    638                {
    639                case 1:
    640                  DrawImg(pos_msg_x+10, pos_msg_y+24, (int)"0:\\zbin\\miosd\\img5.png"); 
   \                     ??RedrawScreen_30:
   \   000003E0   900094E5           LDR      R0,[R4, #+144]
   \   000003E4   0920A0E1           MOV      R2,R9
   \   000003E8   181080E2           ADD      R1,R0,#+24
   \   000003EC   8C0094E5           LDR      R0,[R4, #+140]
   \   000003F0   0A0080E2           ADD      R0,R0,#+10
   \   000003F4   0A0000EA           B        ??RedrawScreen_33
    641                  DrawImg(pos_msg_x+10, pos_msg_y+24, (int)"0:\\zbin\\miosd\\app1.png"); 
    642                  DrawImg(pos_msg_x+30, pos_msg_y+24, (int)"0:\\zbin\\miosd\\app2.png"); 
    643                  DrawImg(pos_msg_x+50, pos_msg_y+24, (int)"0:\\zbin\\miosd\\app3.png"); 
    644                  break;
    645                case 2:
    646                  DrawImg(pos_msg_x+30, pos_msg_y+24, (int)"0:\\zbin\\miosd\\img5.png"); 
   \                     ??RedrawScreen_31:
   \   000003F8   900094E5           LDR      R0,[R4, #+144]
   \   000003FC   0920A0E1           MOV      R2,R9
   \   00000400   181080E2           ADD      R1,R0,#+24
   \   00000404   8C0094E5           LDR      R0,[R4, #+140]
   \   00000408   1E0080E2           ADD      R0,R0,#+30
   \   0000040C   040000EA           B        ??RedrawScreen_33
    647                  DrawImg(pos_msg_x+10, pos_msg_y+24, (int)"0:\\zbin\\miosd\\app1.png"); 
    648                  DrawImg(pos_msg_x+30, pos_msg_y+24, (int)"0:\\zbin\\miosd\\app2.png"); 
    649                  DrawImg(pos_msg_x+50, pos_msg_y+24, (int)"0:\\zbin\\miosd\\app3.png"); 
    650                  break;
    651                case 3:
    652                  DrawImg(pos_msg_x+50, pos_msg_y+24, (int)"0:\\zbin\\miosd\\img5.png");
   \                     ??RedrawScreen_32:
   \   00000410   900094E5           LDR      R0,[R4, #+144]
   \   00000414   0920A0E1           MOV      R2,R9
   \   00000418   181080E2           ADD      R1,R0,#+24
   \   0000041C   8C0094E5           LDR      R0,[R4, #+140]
   \   00000420   320080E2           ADD      R0,R0,#+50
   \                     ??RedrawScreen_33:
   \   00000424   230000EF           SWI      +35
    653                  DrawImg(pos_msg_x+10, pos_msg_y+24, (int)"0:\\zbin\\miosd\\app1.png"); 
   \   00000428   900094E5           LDR      R0,[R4, #+144]
   \   0000042C   0820A0E1           MOV      R2,R8
   \   00000430   181080E2           ADD      R1,R0,#+24
   \   00000434   8C0094E5           LDR      R0,[R4, #+140]
   \   00000438   0A0080E2           ADD      R0,R0,#+10
   \   0000043C   230000EF           SWI      +35
    654                  DrawImg(pos_msg_x+30, pos_msg_y+24, (int)"0:\\zbin\\miosd\\app2.png"); 
   \   00000440   900094E5           LDR      R0,[R4, #+144]
   \   00000444   0720A0E1           MOV      R2,R7
   \   00000448   181080E2           ADD      R1,R0,#+24
   \   0000044C   8C0094E5           LDR      R0,[R4, #+140]
   \   00000450   1E0080E2           ADD      R0,R0,#+30
   \   00000454   230000EF           SWI      +35
    655                  DrawImg(pos_msg_x+50, pos_msg_y+24, (int)"0:\\zbin\\miosd\\app3.png");
   \   00000458   900094E5           LDR      R0,[R4, #+144]
   \   0000045C   0620A0E1           MOV      R2,R6
   \   00000460   181080E2           ADD      R1,R0,#+24
   \   00000464   8C0094E5           LDR      R0,[R4, #+140]
   \   00000468   320080E2           ADD      R0,R0,#+50
   \                     ??RedrawScreen_6:
   \   0000046C   230000EF           SWI      +35
    656                  break;
    657                }
    658              break;
    659            }
    660          }
   \                     ??RedrawScreen_3:
   \   00000470   14D08DE2           ADD      SP,SP,#+20       ;; stack cleaning
   \   00000474   F08FBDE8           POP      {R4-R11,PC}      ;; return
   \                     ??RedrawScreen_2:
   \   00000478   ........           DC32     `?<Constant "0:\\\\zbin\\\\miosd\\\\img8.png">`
   \   0000047C   ........           DC32     reboot_ref
    661          
    662          
    663          

   \                                 In segment CODE, align 4, keep-with-next
    664          void MyIDLECSM_onClose(CSM_RAM *data)
    665          {
   \                     MyIDLECSM_onClose:
   \   00000000   10402DE9           PUSH     {R4,LR}
   \   00000004   0040A0E1           MOV      R4,R0
    666            extern void seqkill(void *data, void(*next_in_seq)(CSM_RAM *), void *data_to_kill, void *seqkiller);
    667            extern void *ELF_BEGIN;
    668            seqkill(data,old_icsm_onClose,&ELF_BEGIN,SEQKILLER_ADR());
   \   00000008   9C8100EF           SWI      +33180
   \   0000000C   ........           LDR      R2,??DataTable44  ;; ELF_BEGIN
   \   00000010   0030A0E1           MOV      R3,R0
   \   00000014   0C009FE5           LDR      R0,??MyIDLECSM_onClose_0  ;; screen + 236
   \   00000018   001090E5           LDR      R1,[R0, #+0]
   \   0000001C   0400A0E1           MOV      R0,R4
   \   00000020   1040BDE8           POP      {R4,LR}          ;; Pop
   \   00000024   ........           _BF      seqkill,??seqkill??rA  ;; tailcall
   \                     ??MyIDLECSM_onClose_0:
   \   00000028   ........           DC32     screen + 236
    669          }
    670          

   \                                 In segment CODE, align 4, keep-with-next
    671          void charger_c()
    672          {
    673            charge_s++;
   \                     charger_c:
   \   00000000   ........           LDR      R0,??DataTable34  ;; screen
   \   00000004   00402DE9           PUSH     {LR}
   \   00000008   C01090E5           LDR      R1,[R0, #+192]
   \   0000000C   011081E2           ADD      R1,R1,#+1
    674            if(charge_s==60){charge_s=0;charge_m++;}
   \   00000010   3C0051E3           CMP      R1,#+60
   \   00000014   0300001A           BNE      ??charger_c_0
   \   00000018   BC2090E5           LDR      R2,[R0, #+188]
   \   0000001C   0010A0E3           MOV      R1,#+0
   \   00000020   012082E2           ADD      R2,R2,#+1
   \   00000024   BC2080E5           STR      R2,[R0, #+188]
    675            GBS_StartTimerProc(&charger, 216, charger_c);
   \                     ??charger_c_0:
   \   00000028   10209FE5           LDR      R2,??charger_c_1  ;; charger_c
   \   0000002C   C01080E5           STR      R1,[R0, #+192]
   \   00000030   D810A0E3           MOV      R1,#+216
   \   00000034   630F80E2           ADD      R0,R0,#+396
   \   00000038   4D0000EF           SWI      +77
    676          }
   \   0000003C   0080BDE8           POP      {PC}             ;; return
   \                     ??charger_c_1:
   \   00000040   ........           DC32     charger_c
    677          

   \                                 In segment CODE, align 4, keep-with-next
    678          void write_log(int number)
    679          {
   \                     write_log:
   \   00000000   10402DE9           PUSH     {R4,LR}
   \   00000004   24D04DE2           SUB      SP,SP,#+36
    680                volatile int hFile = fopen("0:\\zbin\\miosd\\miosd2.file",A_ReadWrite+A_Create+A_Truncate+ A_BIN,P_READ+P_WRITE, 0);
   \   00000008   0030A0E3           MOV      R3,#+0
   \   0000000C   0040A0E1           MOV      R4,R0
   \   00000010   ........           LDR      R0,??DataTable41  ;; `?<Constant "0:\\\\zbin\\\\miosd\\\\miosd2....">`
   \   00000014   602FA0E3           MOV      R2,#+384
   \   00000018   0210A0E3           MOV      R1,#+2
   \   0000001C   831C81E3           ORR      R1,R1,#0x8300
   \   00000020   0A0000EF           SWI      +10
   \   00000024   00008DE5           STR      R0,[SP, #+0]
    681                if(hFile!=-1)
   \   00000028   00009DE5           LDR      R0,[SP, #+0]
   \   0000002C   010070E3           CMN      R0,#+1
   \   00000030   0D00000A           BEQ      ??write_log_0
    682                {
    683                  char writer[32];
    684                  sprintf(writer, "%d", number);
   \   00000034   0420A0E1           MOV      R2,R4
   \   00000038   0D1F8FE2           ADR      R1,??write_log_1  ;; "%d"
   \   0000003C   04008DE2           ADD      R0,SP,#+4
   \   00000040   160000EF           SWI      +22
    685                  fwrite(hFile, writer, strlen(writer), 0);
   \   00000044   04008DE2           ADD      R0,SP,#+4
   \   00000048   1B0000EF           SWI      +27
   \   0000004C   0030A0E3           MOV      R3,#+0
   \   00000050   0020A0E1           MOV      R2,R0
   \   00000054   00009DE5           LDR      R0,[SP, #+0]
   \   00000058   04108DE2           ADD      R1,SP,#+4
   \   0000005C   0C0000EF           SWI      +12
    686                  fclose(hFile, 0);
   \   00000060   00009DE5           LDR      R0,[SP, #+0]
   \   00000064   0010A0E3           MOV      R1,#+0
   \   00000068   0D0000EF           SWI      +13
    687                }
    688          }
   \                     ??write_log_0:
   \   0000006C   24D08DE2           ADD      SP,SP,#+36       ;; stack cleaning
   \   00000070   1080BDE8           POP      {R4,PC}          ;; return
   \                     ??write_log_1:
   \   00000074   25640000           DC8      "%d",+0
    689          
    690          

   \                                 In segment CODE, align 4, keep-with-next
    691          void Count_GPRS()
    692          {
   \                     Count_GPRS:
   \   00000000   10402DE9           PUSH     {R4,LR}
    693            int rewriter=0;
    694            g_sec++;
   \   00000004   ........           LDR      R4,??DataTable34  ;; screen
   \   00000008   C80094E5           LDR      R0,[R4, #+200]
    695            if (g_sec==60){g_sec=0;g_min++;}
   \   0000000C   C41094E5           LDR      R1,[R4, #+196]
   \   00000010   010080E2           ADD      R0,R0,#+1
   \   00000014   3C0050E3           CMP      R0,#+60
   \   00000018   0000A003           MOVEQ    R0,#+0
   \   0000001C   01108102           ADDEQ    R1,R1,#+1
   \   00000020   C80084E5           STR      R0,[R4, #+200]
    696            if(g_min==60){g_min=0;g_hour++;}
   \   00000024   3C0051E3           CMP      R1,#+60
   \   00000028   0300001A           BNE      ??Count_GPRS_0
   \   0000002C   CC0094E5           LDR      R0,[R4, #+204]
   \   00000030   0010A0E3           MOV      R1,#+0
   \   00000034   010080E2           ADD      R0,R0,#+1
   \   00000038   CC0084E5           STR      R0,[R4, #+204]
   \                     ??Count_GPRS_0:
   \   0000003C   C41084E5           STR      R1,[R4, #+196]
    697            int r=g_min;
   \   00000040   010051E3           CMP      R1,#+1
   \   00000044   020000BA           BLT      ??Count_GPRS_1
    698            while(r>0)r-=2;
   \                     ??Count_GPRS_2:
   \   00000048   021041E2           SUB      R1,R1,#+2
   \   0000004C   010051E3           CMP      R1,#+1
   \   00000050   FCFFFFAA           BGE      ??Count_GPRS_2
    699            if((r==0)&&(g_min!=0)&&(rewriter!=g_min)) 
   \                     ??Count_GPRS_1:
   \   00000054   000051E3           CMP      R1,#+0
   \   00000058   0B00001A           BNE      ??Count_GPRS_3
   \   0000005C   C40094E5           LDR      R0,[R4, #+196]
   \   00000060   000050E3           CMP      R0,#+0
   \   00000064   0800000A           BEQ      ??Count_GPRS_3
    700            {
    701              int *trafik2 = GetGPRSTrafficPointer();
   \   00000068   700000EF           SWI      +112
    702              int trafiks2=(*trafik2-start_traffic)/1024;
    703              SUBPROC((void *)write_log,trafiks2);   //latest fix
   \   0000006C   000090E5           LDR      R0,[R0, #+0]
   \   00000070   A41094E5           LDR      R1,[R4, #+164]
   \   00000074   010040E0           SUB      R0,R0,R1
   \   00000078   C014A0E1           ASR      R1,R0,#+9
   \   0000007C   210B80E0           ADD      R0,R0,R1, LSR #+22
   \   00000080   4015A0E1           ASR      R1,R0,#+10
   \   00000084   30009FE5           LDR      R0,??Count_GPRS_4  ;; write_log
   \   00000088   710100EF           SWI      +369
    704              rewriter=g_min;
    705            }
    706            sprintf(start_g2, ". .: %02d:%02d:%02d", g_hour, g_min, g_sec);
   \                     ??Count_GPRS_3:
   \   0000008C   C80094E5           LDR      R0,[R4, #+200]
   \   00000090   28109FE5           LDR      R1,??Count_GPRS_4+0x4  ;; `?<Constant "\\342\\360. \\361\\345\\361.: %02d:%02d`
   \   00000094   01002DE9           PUSH     {R0}
   \   00000098   C43094E5           LDR      R3,[R4, #+196]
   \   0000009C   CC2094E5           LDR      R2,[R4, #+204]
   \   000000A0   540F84E2           ADD      R0,R4,#+336
   \   000000A4   160000EF           SWI      +22
    707            GBS_StartTimerProc(&gipi, 216, Count_GPRS);
   \   000000A8   14209FE5           LDR      R2,??Count_GPRS_4+0x8  ;; Count_GPRS
   \   000000AC   D810A0E3           MOV      R1,#+216
   \   000000B0   670F84E2           ADD      R0,R4,#+412
   \   000000B4   4D0000EF           SWI      +77
    708          }
   \   000000B8   1180BDE8           POP      {R0,R4,PC}       ;; return
   \                     ??Count_GPRS_4:
   \   000000BC   ........           DC32     write_log
   \   000000C0   ........           DC32     `?<Constant "\\342\\360. \\361\\345\\361.: %02d:%02d`
   \   000000C4   ........           DC32     Count_GPRS

   \                                 In segment CODE, align 4, keep-with-next
    709          int MyIDLECSM_onMessage(CSM_RAM* data, GBS_MSG* msg)
    710          {
   \                     MyIDLECSM_onMessage:
   \   00000000   F0472DE9           PUSH     {R4-R10,LR}
    711            int csm_result;
    712            csm_result=old_icsm_onMessage(data,msg);
   \   00000004   ........           LDR      R4,??DataTable34  ;; screen
   \   00000008   7CD04DE2           SUB      SP,SP,#+124
   \   0000000C   E82094E5           LDR      R2,[R4, #+232]
    713            
    714            if(msg->msg == MSG_RECONFIGURE_REQ) //    
   \   00000010   ........           LDR      R6,??DataTable39  ;; `?<Constant "MIOSD_mod update">`
   \   00000014   0190A0E1           MOV      R9,R1
   \   00000018   32FF2FE1           BLX      R2
   \   0000001C   0050A0E1           MOV      R5,R0
   \   00000020   040099E5           LDR      R0,[R9, #+4]
   \   00000024   AF10A0E3           MOV      R1,#+175
   \   00000028   DE1C81E3           ORR      R1,R1,#0xDE00
   \   0000002C   010050E1           CMP      R0,R1
   \   00000030   0900001A           BNE      ??MyIDLECSM_onMessage_0
    715            {
    716              extern const char *successed_config_filename;
    717              if (strcmp_nocase(successed_config_filename,(char *)msg->data0)==0)
   \   00000034   BC029FE5           LDR      R0,??MyIDLECSM_onMessage_1+0x4  ;; successed_config_filename
   \   00000038   0C1099E5           LDR      R1,[R9, #+12]
   \   0000003C   000090E5           LDR      R0,[R0, #+0]
   \   00000040   ........           _BLF     strcmp_nocase,??strcmp_nocase??rA
   \   00000044   000050E3           CMP      R0,#+0
   \   00000048   0300001A           BNE      ??MyIDLECSM_onMessage_0
    718              {
    719                InitConfig();
   \   0000004C   ........           _BLF     InitConfig,??InitConfig??rA
    720                ShowMSG(1,(int)"MIOSD_mod update");
   \   00000050   0610A0E1           MOV      R1,R6
   \   00000054   0100A0E3           MOV      R0,#+1
   \   00000058   480100EF           SWI      +328
    721              }
    722            }
    723          
    724            if (msg->msg==MSG_IPC)
   \                     ??MyIDLECSM_onMessage_0:
   \   0000005C   040099E5           LDR      R0,[R9, #+4]
   \   00000060   0170A0E3           MOV      R7,#+1
   \   00000064   0080A0E3           MOV      R8,#+0
   \   00000068   B010A0E3           MOV      R1,#+176
   \   0000006C   DE1C81E3           ORR      R1,R1,#0xDE00
   \   00000070   010050E1           CMP      R0,R1
   \   00000074   3600001A           BNE      ??MyIDLECSM_onMessage_2
    725              {
    726                IPC_REQ *ipc;
    727                if ((ipc=(IPC_REQ*)msg->data0))
   \   00000078   0CA099E5           LDR      R10,[R9, #+12]
   \   0000007C   00005AE3           CMP      R10,#+0
   \   00000080   3300000A           BEQ      ??MyIDLECSM_onMessage_2
    728                {
    729          	if (strcmp_nocase(ipc->name_to,ipc_my_name)==0)
   \   00000084   00009AE5           LDR      R0,[R10, #+0]
   \   00000088   681086E2           ADD      R1,R6,#+104
   \   0000008C   ........           _BLF     strcmp_nocase,??strcmp_nocase??rA
   \   00000090   000050E3           CMP      R0,#+0
    730          	{
    731          	  switch (msg->submess)
   \   00000094   08009905           LDREQ    R0,[R9, #+8]
   \   00000098   37005003           CMPEQ    R0,#+55
   \   0000009C   2C00001A           BNE      ??MyIDLECSM_onMessage_2
    732          	  {
    733          	  case IPC_RECIEVE_MSG:
    734                      {
    735                        char test[64];
    736                        int len=strlen(ipc->data);
   \   000000A0   08009AE5           LDR      R0,[R10, #+8]
   \   000000A4   1B0000EF           SWI      +27
    737                        sprintf(test,"%s",ipc->data);
   \   000000A8   08209AE5           LDR      R2,[R10, #+8]
   \   000000AC   0090A0E1           MOV      R9,R0
   \   000000B0   8F1F8FE2           ADR      R1,??MyIDLECSM_onMessage_1  ;; "%s"
   \   000000B4   14008DE2           ADD      R0,SP,#+20
   \   000000B8   160000EF           SWI      +22
    738                        test[len]='\0';
   \   000000BC   14008DE2           ADD      R0,SP,#+20
   \   000000C0   0080C9E7           STRB     R8,[R9, +R0]
    739                        if(test[0]!='0')
   \   000000C4   1400DDE5           LDRB     R0,[SP, #+20]
   \   000000C8   300050E3           CMP      R0,#+48
   \   000000CC   0800000A           BEQ      ??MyIDLECSM_onMessage_3
    740                        {
    741                          if(test[0]=='1') naticq_plugin=1;
   \   000000D0   310050E3           CMP      R0,#+49
   \   000000D4   54708405           STREQ    R7,[R4, #+84]
   \   000000D8   0800000A           BEQ      ??MyIDLECSM_onMessage_4
    742                          if(test[0]=='2') 
   \   000000DC   320050E3           CMP      R0,#+50
   \   000000E0   0300001A           BNE      ??MyIDLECSM_onMessage_3
    743                          {
    744                            naticq_plugin=0;
   \   000000E4   548084E5           STR      R8,[R4, #+84]
    745                            sprintf(naticq_ping, "none");
   \   000000E8   141086E2           ADD      R1,R6,#+20
   \   000000EC   440084E2           ADD      R0,R4,#+68
   \   000000F0   160000EF           SWI      +22
    746                          }
    747                        }
    748                        if(naticq_plugin)
   \                     ??MyIDLECSM_onMessage_3:
   \   000000F4   540094E5           LDR      R0,[R4, #+84]
   \   000000F8   000050E3           CMP      R0,#+0
   \   000000FC   1500000A           BEQ      ??MyIDLECSM_onMessage_5
    749                        {
    750                          if(test[1]!='0')
   \                     ??MyIDLECSM_onMessage_4:
   \   00000100   1500DDE5           LDRB     R0,[SP, #+21]
   \   00000104   300050E3           CMP      R0,#+48
   \   00000108   1100000A           BEQ      ??MyIDLECSM_onMessage_2
    751                          {
    752                            if(test[1]=='1');
    753                            {
    754                              strncpy(naticq_time,test+2,8);
   \   0000010C   0820A0E3           MOV      R2,#+8
   \   00000110   16108DE2           ADD      R1,SP,#+22
   \   00000114   340084E2           ADD      R0,R4,#+52
   \   00000118   160100EF           SWI      +278
    755                              naticq_time[8]='\0';
   \   0000011C   3C80C4E5           STRB     R8,[R4, #+60]
    756                            }
    757                            if(test[1]=='2')
   \   00000120   1500DDE5           LDRB     R0,[SP, #+21]
   \   00000124   320050E3           CMP      R0,#+50
   \   00000128   0900001A           BNE      ??MyIDLECSM_onMessage_2
    758                            {
    759                              strncpy(naticq_time,test+2,8);
   \   0000012C   0820A0E3           MOV      R2,#+8
   \   00000130   16108DE2           ADD      R1,SP,#+22
   \   00000134   340084E2           ADD      R0,R4,#+52
   \   00000138   160100EF           SWI      +278
    760                              naticq_time[8]='\0';
   \   0000013C   3C80C4E5           STRB     R8,[R4, #+60]
    761                              strncpy(naticq_ping,test+10,6);
   \   00000140   0620A0E3           MOV      R2,#+6
   \   00000144   1E108DE2           ADD      R1,SP,#+30
   \   00000148   440084E2           ADD      R0,R4,#+68
   \   0000014C   160100EF           SWI      +278
    762                              naticq_ping[6]='\0';
   \   00000150   4A80C4E5           STRB     R8,[R4, #+74]
    763                            }
    764                          }
    765                        }
    766                      }
    767          	    break;
    768                    }
    769                  }
    770                }
    771              }
    772            if(rem_mis!=GetMissedEventCount(0))
   \                     ??MyIDLECSM_onMessage_2:
   \   00000154   0000A0E3           MOV      R0,#+0
   \                     ??MyIDLECSM_onMessage_5:
   \   00000158   9E0000EF           SWI      +158
   \   0000015C   D01094E5           LDR      R1,[R4, #+208]
   \   00000160   000051E1           CMP      R1,R0
   \   00000164   1200000A           BEQ      ??MyIDLECSM_onMessage_6
    773            {
    774              if(GetMissedEventCount(0)<rem_mis) rem_mis=GetMissedEventCount(0);
   \   00000168   0000A0E3           MOV      R0,#+0
   \   0000016C   9E0000EF           SWI      +158
   \   00000170   D01094E5           LDR      R1,[R4, #+208]
   \   00000174   010050E1           CMP      R0,R1
   \   00000178   0800A0E1           MOV      R0,R8
   \   0000017C   020000AA           BGE      ??MyIDLECSM_onMessage_7
   \   00000180   9E0000EF           SWI      +158
   \   00000184   D00084E5           STR      R0,[R4, #+208]
   \   00000188   090000EA           B        ??MyIDLECSM_onMessage_6
    775              else
    776              {
    777                rem_mis=GetMissedEventCount(0);
   \                     ??MyIDLECSM_onMessage_7:
   \   0000018C   9E0000EF           SWI      +158
   \   00000190   D00084E5           STR      R0,[R4, #+208]
    778                if(engade_mis) GBS_StartTimerProc(&missedt, 216*3, start_timerize);
   \   00000194   60019FE5           LDR      R0,??MyIDLECSM_onMessage_1+0x8  ;; engade_mis
   \   00000198   000090E5           LDR      R0,[R0, #+0]
   \   0000019C   000050E3           CMP      R0,#+0
   \   000001A0   0300000A           BEQ      ??MyIDLECSM_onMessage_6
   \   000001A4   54219FE5           LDR      R2,??MyIDLECSM_onMessage_1+0xC  ;; start_timerize
   \   000001A8   54019FE5           LDR      R0,??MyIDLECSM_onMessage_1+0x10  ;; missedt
   \   000001AC   A21FA0E3           MOV      R1,#+648
   \   000001B0   4D0000EF           SWI      +77
    779              }
    780            }
    781            if((IsGPRSConnected())&&(first_con))
   \                     ??MyIDLECSM_onMessage_6:
   \   000001B4   A80000EF           SWI      +168
   \   000001B8   000050E3           CMP      R0,#+0
   \   000001BC   D4009415           LDRNE    R0,[R4, #+212]
   \   000001C0   00005013           CMPNE    R0,#+0
   \   000001C4   0900000A           BEQ      ??MyIDLECSM_onMessage_8
    782            {
    783            int *trafik = GetGPRSTrafficPointer();
    784            start_traffic=*trafik;
   \   000001C8   700000EF           SWI      +112
   \   000001CC   000090E5           LDR      R0,[R0, #+0]
    785          
    786            g_min=0;
   \   000001D0   C48084E5           STR      R8,[R4, #+196]
   \   000001D4   A40084E5           STR      R0,[R4, #+164]
    787            g_sec=0;
   \   000001D8   C88084E5           STR      R8,[R4, #+200]
    788            g_hour=0;
   \   000001DC   CC8084E5           STR      R8,[R4, #+204]
    789            GBS_DelTimer(&gipi);
   \   000001E0   670F84E2           ADD      R0,R4,#+412
   \   000001E4   8C0100EF           SWI      +396
    790            Count_GPRS();
   \   000001E8   ........           BL       Count_GPRS
    791            first_con=0;
   \   000001EC   D48084E5           STR      R8,[R4, #+212]
    792            }
    793            if(!IsGPRSConnected()) first_con=1;
   \                     ??MyIDLECSM_onMessage_8:
   \   000001F0   A80000EF           SWI      +168
   \   000001F4   000050E3           CMP      R0,#+0
   \   000001F8   D4708405           STREQ    R7,[R4, #+212]
    794            if(GetAccessoryType()==13) 
   \   000001FC   880000EF           SWI      +136
   \   00000200   0D0050E3           CMP      R0,#+13
   \   00000204   B80094E5           LDR      R0,[R4, #+184]
   \   00000208   0C00001A           BNE      ??MyIDLECSM_onMessage_9
    795            {
    796              if(!con) 
   \   0000020C   000050E3           CMP      R0,#+0
   \   00000210   0300001A           BNE      ??MyIDLECSM_onMessage_10
    797              {
    798                charge_s=0;
   \   00000214   C08084E5           STR      R8,[R4, #+192]
    799                charge_m=0;
   \   00000218   BC8084E5           STR      R8,[R4, #+188]
    800                charger_c();
   \   0000021C   ........           BL       charger_c
    801                con=1;
   \   00000220   B87084E5           STR      R7,[R4, #+184]
    802              }
    803              sprintf(chinfo, "Charging(%dmin)", charge_m);
   \                     ??MyIDLECSM_onMessage_10:
   \   00000224   BC2094E5           LDR      R2,[R4, #+188]
   \   00000228   1C1086E2           ADD      R1,R6,#+28
   \   0000022C   F00084E2           ADD      R0,R4,#+240
   \   00000230   160000EF           SWI      +22
   \   00000234   0500A0E1           MOV      R0,R5
   \   00000238   7CD08DE2           ADD      SP,SP,#+124
   \   0000023C   F087BDE8           POP      {R4-R10,PC}
    804            }
    805            else 
    806            {
    807              if(con)
   \                     ??MyIDLECSM_onMessage_9:
   \   00000240   000050E3           CMP      R0,#+0
   \   00000244   2700000A           BEQ      ??MyIDLECSM_onMessage_11
    808              {
    809                GBS_DelTimer(&charger);
   \   00000248   630F84E2           ADD      R0,R4,#+396
   \   0000024C   8C0100EF           SWI      +396
    810                TTime time;
    811                TDate date;
    812                GetDateTime(&date, &time);
   \   00000250   04108DE2           ADD      R1,SP,#+4
   \   00000254   0C008DE2           ADD      R0,SP,#+12
   \   00000258   B40000EF           SWI      +180
    813                sprintf(chinfo, "%02d:%02d, %02d-%02d", time.hour, time.min, date.month, date.day);
   \   0000025C   1100DDE5           LDRB     R0,[SP, #+17]
   \   00000260   2C1086E2           ADD      R1,R6,#+44
   \   00000264   01002DE9           PUSH     {R0}
   \   00000268   1400DDE5           LDRB     R0,[SP, #+20]
   \   0000026C   01002DE9           PUSH     {R0}
   \   00000270   0D30DDE5           LDRB     R3,[SP, #+13]
   \   00000274   0C20DDE5           LDRB     R2,[SP, #+12]
   \   00000278   F00084E2           ADD      R0,R4,#+240
   \   0000027C   160000EF           SWI      +22
    814                FSTATS stat;
    815                GetFileStats("0:\\zbin\\miosd\\miosd.file",&stat,0);
   \   00000280   0020A0E3           MOV      R2,#+0
   \   00000284   5C108DE2           ADD      R1,SP,#+92
   \   00000288   440086E2           ADD      R0,R6,#+68
   \   0000028C   840000EF           SWI      +132
    816                volatile int hFile = fopen("0:\\zbin\\miosd\\miosd.file",A_ReadWrite+A_Create+A_Truncate+ A_BIN,P_READ+P_WRITE, 0);
   \   00000290   0830A0E1           MOV      R3,R8
   \   00000294   602FA0E3           MOV      R2,#+384
   \   00000298   0210A0E3           MOV      R1,#+2
   \   0000029C   831C81E3           ORR      R1,R1,#0x8300
   \   000002A0   440086E2           ADD      R0,R6,#+68
   \   000002A4   0A0000EF           SWI      +10
   \   000002A8   08008DE5           STR      R0,[SP, #+8]
    817                if(hFile!=-1)
   \   000002AC   08009DE5           LDR      R0,[SP, #+8]
   \   000002B0   08D08DE2           ADD      SP,SP,#+8
   \   000002B4   010070E3           CMN      R0,#+1
   \   000002B8   0900000A           BEQ      ??MyIDLECSM_onMessage_12
    818                {
    819                  fwrite(hFile, chinfo, strlen(chinfo), 0);
   \   000002BC   F00084E2           ADD      R0,R4,#+240
   \   000002C0   1B0000EF           SWI      +27
   \   000002C4   0020A0E1           MOV      R2,R0
   \   000002C8   00009DE5           LDR      R0,[SP, #+0]
   \   000002CC   0030A0E3           MOV      R3,#+0
   \   000002D0   F01084E2           ADD      R1,R4,#+240
   \   000002D4   0C0000EF           SWI      +12
    820                  fclose(hFile, 0);
   \   000002D8   00009DE5           LDR      R0,[SP, #+0]
   \   000002DC   0810A0E1           MOV      R1,R8
   \   000002E0   0D0000EF           SWI      +13
    821                }
    822                con=0;
   \                     ??MyIDLECSM_onMessage_12:
   \   000002E4   B88084E5           STR      R8,[R4, #+184]
    823              }
    824            }
    825            return(csm_result);
   \                     ??MyIDLECSM_onMessage_11:
   \   000002E8   0500A0E1           MOV      R0,R5
   \   000002EC   7CD08DE2           ADD      SP,SP,#+124
   \   000002F0   F087BDE8           POP      {R4-R10,PC}      ;; return
   \                     ??MyIDLECSM_onMessage_1:
   \   000002F4   25730000           DC8      "%s",+0
   \   000002F8   ........           DC32     successed_config_filename
   \   000002FC   ........           DC32     engade_mis
   \   00000300   ........           DC32     start_timerize
   \   00000304   ........           DC32     missedt
    826          }  
    827          

   \                                 In segment CODE, align 4, keep-with-next
    828          int my_keyhook(int submsg, int msg)
    829          {
   \                     my_keyhook:
   \   00000000   F0432DE9           PUSH     {R4-R9,LR}
   \   00000004   0040A0E1           MOV      R4,R0
   \   00000008   0180A0E1           MOV      R8,R1
    830            if((submsg==9)&&(IsIdleUiOnTop())&&(IsUnlocked()))Execute();
   \   0000000C   090054E3           CMP      R4,#+9
   \   00000010   0600001A           BNE      ??my_keyhook_1
   \   00000014   C50000EF           SWI      +197
   \   00000018   000050E3           CMP      R0,#+0
   \   0000001C   0300000A           BEQ      ??my_keyhook_1
   \   00000020   430000EF           SWI      +67
   \   00000024   000050E3           CMP      R0,#+0
   \   00000028   0000000A           BEQ      ??my_keyhook_1
   \   0000002C   ........           BL       Execute
    831            if(submsg==CALL_BUTTON2) 
   \                     ??my_keyhook_1:
   \   00000030   30039FE5           LDR      R0,??my_keyhook_2  ;; CALL_BUTTON2
   \   00000034   0150A0E3           MOV      R5,#+1
   \   00000038   000090E5           LDR      R0,[R0, #+0]
   \   0000003C   000054E1           CMP      R4,R0
   \   00000040   0200001A           BNE      ??my_keyhook_3
    832            {
    833              alt_state=1;
   \   00000044   20039FE5           LDR      R0,??my_keyhook_2+0x4  ;; alt_state
   \   00000048   005080E5           STR      R5,[R0, #+0]
    834              process_missed();
   \   0000004C   ........           _BLF     process_missed,??process_missed??rA
    835            }
    836            if (submsg!=CALL_BUTTON) return(0);
   \                     ??my_keyhook_3:
   \   00000050   18039FE5           LDR      R0,??my_keyhook_2+0x8  ;; CALL_BUTTON
   \   00000054   002090E5           LDR      R2,[R0, #+0]
   \   00000058   020054E1           CMP      R4,R2
   \   0000005C   0000A013           MOVNE    R0,#+0
   \   00000060   F083BD18           POPNE    {R4-R9,PC}
    837            switch(msg)
   \   00000064   ........           LDR      R6,??DataTable47  ;; screen
   \   00000068   0900A0E3           MOV      R0,#+9
   \   0000006C   6C1096E5           LDR      R1,[R6, #+108]
   \   00000070   683096E5           LDR      R3,[R6, #+104]
   \   00000074   420C80E3           ORR      R0,R0,#0x4200
   \   00000078   9390A0E3           MOV      R9,#+147
   \   0000007C   409F89E3           ORR      R9,R9,#0x100
   \   00000080   0070A0E3           MOV      R7,#+0
   \   00000084   090058E1           CMP      R8,R9
   \   00000088   0500000A           BEQ      ??my_keyhook_4
   \   0000008C   650F58E3           CMP      R8,#+404
   \   00000090   0B00000A           BEQ      ??my_keyhook_5
   \   00000094   65EF85E3           ORR      LR,R5,#0x194
   \   00000098   0E0058E1           CMP      R8,LR
   \   0000009C   1700000A           BEQ      ??my_keyhook_6
   \   000000A0   210000EA           B        ??my_keyhook_7
    838            {
    839            case KEY_DOWN:
    840              if (mode_enter==2)
   \                     ??my_keyhook_4:
   \   000000A4   020053E3           CMP      R3,#+2
   \   000000A8   0300001A           BNE      ??my_keyhook_8
    841              {
    842                GBS_SendMessage(MMI_CEPID,KEY_UP,CALL_BUTTON);
   \   000000AC   651FA0E3           MOV      R1,#+404
   \   000000B0   000100EF           SWI      +256
    843                return (0);
   \   000000B4   0000A0E3           MOV      R0,#+0
   \   000000B8   F083BDE8           POP      {R4-R9,PC}
    844              }
    845              mode_enter=0;
   \                     ??my_keyhook_8:
   \   000000BC   687086E5           STR      R7,[R6, #+104]
    846              return (2);
   \   000000C0   5E0000EA           B        ??my_keyhook_9
    847            case KEY_UP:
    848              if (mode==1)mode=0;
   \                     ??my_keyhook_5:
   \   000000C4   010051E3           CMP      R1,#+1
   \   000000C8   6C708605           STREQ    R7,[R6, #+108]
    849              if (!mode_enter)
   \   000000CC   000053E3           CMP      R3,#+0
   \   000000D0   0500001A           BNE      ??my_keyhook_10
    850              {
    851                mode_enter=2;
   \   000000D4   0210A0E3           MOV      R1,#+2
   \   000000D8   681086E5           STR      R1,[R6, #+104]
    852                GBS_SendMessage(MMI_CEPID,KEY_DOWN,CALL_BUTTON);
   \   000000DC   0910A0E1           MOV      R1,R9
   \   000000E0   000100EF           SWI      +256
    853                return (2);
   \                     ??my_keyhook_11:
   \   000000E4   0200A0E3           MOV      R0,#+2
   \   000000E8   F083BDE8           POP      {R4-R9,PC}
    854              }
    855              if (mode_enter==2)
   \                     ??my_keyhook_10:
   \   000000EC   020053E3           CMP      R3,#+2
   \   000000F0   F1FFFF1A           BNE      ??my_keyhook_8
    856              {
    857                mode_enter=0;
   \   000000F4   687086E5           STR      R7,[R6, #+104]
    858                return (0);
   \   000000F8   0000A0E3           MOV      R0,#+0
   \   000000FC   F083BDE8           POP      {R4-R9,PC}
    859              }
    860              mode_enter=0;
    861              return (2);      
    862            case LONG_PRESS:
    863              mode_enter=1;
   \                     ??my_keyhook_6:
   \   00000100   685086E5           STR      R5,[R6, #+104]
    864              if (!mode&&IsUnlocked()&&(!IsIdleUiOnTop())) Execute();
   \   00000104   000051E3           CMP      R1,#+0
   \   00000108   0600001A           BNE      ??my_keyhook_12
   \   0000010C   430000EF           SWI      +67
   \   00000110   000050E3           CMP      R0,#+0
   \   00000114   0300000A           BEQ      ??my_keyhook_12
   \   00000118   C50000EF           SWI      +197
   \   0000011C   000050E3           CMP      R0,#+0
   \   00000120   0000001A           BNE      ??my_keyhook_12
   \   00000124   ........           BL       Execute
    865              mode=1;
   \                     ??my_keyhook_12:
   \   00000128   6C5086E5           STR      R5,[R6, #+108]
    866              break;
    867            }
    868            if(lock_keys)
   \                     ??my_keyhook_7:
   \   0000012C   800096E5           LDR      R0,[R6, #+128]
   \   00000130   000050E3           CMP      R0,#+0
   \   00000134   EAFFFF0A           BEQ      ??my_keyhook_11
    869            {
    870              DirectRedrawGUI();
   \   00000138   3F0100EF           SWI      +319
    871             if (msg==KEY_DOWN)
   \   0000013C   090058E1           CMP      R8,R9
   \   00000140   E7FFFF1A           BNE      ??my_keyhook_11
    872            {          
    873              switch(submsg)
   \   00000144   DC0096E5           LDR      R0,[R6, #+220]
   \   00000148   701096E5           LDR      R1,[R6, #+112]
   \   0000014C   0820A0E3           MOV      R2,#+8
   \   00000150   0580A0E3           MOV      R8,#+5
   \   00000154   5F3FA0E3           MOV      R3,#+380
   \   00000158   044044E2           SUB      R4,R4,#+4
   \   0000015C   3A0054E3           CMP      R4,#+58
   \   00000160   DFFFFF8A           BHI      ??my_keyhook_11
   \   00000164   019F8FE2           ADR      R9,??my_keyhook_0
   \   00000168   0490D9E7           LDRB     R9,[R9, R4]
   \   0000016C   09F18FE0           ADD      PC,PC,R9, LSL #+2
   \                     ??my_keyhook_0:
   \   00000170   15333333           DC8      +21,+51,+51,+51
   \   00000174   33333333           DC8      +51,+51,+51,+51
   \   00000178   33333333           DC8      +51,+51,+51,+51
   \   0000017C   33333333           DC8      +51,+51,+51,+51
   \   00000180   33333333           DC8      +51,+51,+51,+51
   \   00000184   33333C33           DC8      +51,+51,+60,+51
   \   00000188   33333333           DC8      +51,+51,+51,+51
   \   0000018C   33333333           DC8      +51,+51,+51,+51
   \   00000190   33333333           DC8      +51,+51,+51,+51
   \   00000194   33333333           DC8      +51,+51,+51,+51
   \   00000198   33333333           DC8      +51,+51,+51,+51
   \   0000019C   33333333           DC8      +51,+51,+51,+51
   \   000001A0   330E3333           DC8      +51,+14,+51,+51
   \   000001A4   3333336D           DC8      +51,+51,+51,+109
   \   000001A8   59212800           DC8      +89,+33,+40,+0
    874              {
    875              case 0x35:
    876                if(pos==1)
   \                     ??my_keyhook_13:
   \   000001AC   010051E3           CMP      R1,#+1
   \   000001B0   CBFFFF1A           BNE      ??my_keyhook_11
    877                {
    878                  ffq=1;
   \   000001B4   A85086E5           STR      R5,[R6, #+168]
    879                  GBS_DelTimer(&mytmr2);
   \   000001B8   060083E0           ADD      R0,R3,R6
   \   000001BC   8C0100EF           SWI      +396
    880          
    881                DirectRedrawGUI();
   \   000001C0   3F0100EF           SWI      +319
    882                }
    883                break;
    884                case RIGHT_SOFT:
    885                if(key_mode==1) goto set1;
    886                else goto set2;
    887                case LEFT_BUTTON:
    888                  if((pos==5)&&(app_pos>1))
    889                  {
    890                    app_pos--;
    891                    lock_keys=0;
    892                    phase=8;
    893                    DoShowIt();
    894                  }
    895                  else
    896                  {
    897                  set1:
    898                    ffq=1;
    899                    GBS_DelTimer(&mytmr2);
    900                    if(key_mode==1)
    901                    {
    902                lock_keys=0;
    903                phase=5;
    904                DoShowIt();
    905                    }
    906                  }
    907                break;
    908                case RIGHT_BUTTON:
    909                  if(pos==5)
    910                  {
    911                    app_pos++;
    912                    if(app_pos==4) app_pos--;
    913                    else
    914                    {
    915                      lock_keys=0;
    916                      phase=8;
    917                      DoShowIt();
    918                    }
    919                  }
    920                  else
    921                  {
    922                  set2:
    923                    ffq=1;
    924                    GBS_DelTimer(&mytmr2);
    925                    if(key_mode==2)
    926                    {
    927                lock_keys=0;
    928                phase=5;
    929                DoShowIt();
    930                    }
    931                  }
    932                break;
    933              case ENTER_BUTTON:
    934                if(pos==5)
    935                {
    936                  WSHDR *elfname=AllocWS(256);
    937                  switch(app_pos)
    938                  {
    939                  case 1:
    940                    app_pos=1;
    941                    wsprintf(elfname, link1);
    942                    ExecuteFile(elfname,NULL,NULL);
    943                    FreeWS(elfname);
    944                    return(1);
    945                  case 2:
    946                    app_pos=1;
    947                    wsprintf(elfname, link2);
    948                    ExecuteFile(elfname,NULL,NULL);
    949                    FreeWS(elfname);
    950                    return(1);
    951                  case 3:
    952                    app_pos=1;
    953                    wsprintf(elfname, link3);
    954                    ExecuteFile(elfname,NULL,NULL);
    955                    FreeWS(elfname);
    956                    return(1);
    957                  }
    958                }
    959                break;
    960              case DOWN_BUTTON:
    961                {
    962                  ffq=1;
    963                  GBS_DelTimer(&mytmr2);
    964                  pos++;
    965                  if(use_plugin)
    966                  {
    967                  if (pos==6) pos=0;
    968                  }
    969                  else
    970                  {
    971                    if (pos==6) pos=1;
    972                  }
    973                  lock_keys=0;
    974                  phase=4;
    975                  DoShowIt();
    976                }
    977                  break;
    978              case UP_BUTTON:
    979                 {
    980                   ffq=1;
    981                   GBS_DelTimer(&mytmr2);
    982                    pos--;
    983                    if(use_plugin)
    984                    {
    985                    if (pos==-1) pos=5;
    986                    }
    987                    else
    988                    {
    989                      if (pos==0) pos=5;
    990                    }
    991                    lock_keys=0;
    992                    phase=4;
    993                    DoShowIt();
    994                 }
    995                  break;        
    996              }
    997            }
    998            }
    999          return(2); 
   \                     ??my_keyhook_14:
   \   000001C4   1D0000EA           B        ??my_keyhook_9
   \                     ??my_keyhook_15:
   \   000001C8   D80096E5           LDR      R0,[R6, #+216]
   \   000001CC   010050E3           CMP      R0,#+1
   \   000001D0   1C00001A           BNE      ??my_keyhook_16
   \                     ??my_keyhook_17:
   \   000001D4   A85086E5           STR      R5,[R6, #+168]
   \   000001D8   060083E0           ADD      R0,R3,R6
   \   000001DC   8C0100EF           SWI      +396
   \   000001E0   D80096E5           LDR      R0,[R6, #+216]
   \   000001E4   010050E3           CMP      R0,#+1
   \   000001E8   BDFFFF1A           BNE      ??my_keyhook_11
   \                     ??my_keyhook_18:
   \   000001EC   807086E5           STR      R7,[R6, #+128]
   \   000001F0   748086E5           STR      R8,[R6, #+116]
   \   000001F4   100000EA           B        ??my_keyhook_19
   \                     ??my_keyhook_20:
   \   000001F8   050051E3           CMP      R1,#+5
   \   000001FC   F4FFFF1A           BNE      ??my_keyhook_17
   \   00000200   020050E3           CMP      R0,#+2
   \   00000204   F2FFFFBA           BLT      ??my_keyhook_17
   \   00000208   010040E2           SUB      R0,R0,#+1
   \   0000020C   DC0086E5           STR      R0,[R6, #+220]
   \   00000210   070000EA           B        ??my_keyhook_21
   \                     ??my_keyhook_22:
   \   00000214   050051E3           CMP      R1,#+5
   \   00000218   0A00001A           BNE      ??my_keyhook_16
   \   0000021C   010080E2           ADD      R0,R0,#+1
   \   00000220   DC0086E5           STR      R0,[R6, #+220]
   \   00000224   040050E3           CMP      R0,#+4
   \   00000228   0300A003           MOVEQ    R0,#+3
   \   0000022C   DC008605           STREQ    R0,[R6, #+220]
   \   00000230   ABFFFF0A           BEQ      ??my_keyhook_11
   \                     ??my_keyhook_21:
   \   00000234   807086E5           STR      R7,[R6, #+128]
   \   00000238   742086E5           STR      R2,[R6, #+116]
   \                     ??my_keyhook_19:
   \   0000023C   ........           BL       DoShowIt
   \                     ??my_keyhook_9:
   \   00000240   0200A0E3           MOV      R0,#+2
   \   00000244   F083BDE8           POP      {R4-R9,PC}
   \                     ??my_keyhook_16:
   \   00000248   A85086E5           STR      R5,[R6, #+168]
   \   0000024C   060083E0           ADD      R0,R3,R6
   \   00000250   8C0100EF           SWI      +396
   \   00000254   D80096E5           LDR      R0,[R6, #+216]
   \   00000258   020050E3           CMP      R0,#+2
   \   0000025C   A0FFFF1A           BNE      ??my_keyhook_11
   \   00000260   E1FFFFEA           B        ??my_keyhook_18
   \                     ??my_keyhook_23:
   \   00000264   050051E3           CMP      R1,#+5
   \   00000268   9DFFFF1A           BNE      ??my_keyhook_11
   \   0000026C   400FA0E3           MOV      R0,#+256
   \   00000270   250100EF           SWI      +293
   \   00000274   0040A0E1           MOV      R4,R0
   \   00000278   DC0096E5           LDR      R0,[R6, #+220]
   \   0000027C   010050E2           SUBS     R0,R0,#+1
   \   00000280   0400000A           BEQ      ??my_keyhook_24
   \   00000284   010050E2           SUBS     R0,R0,#+1
   \   00000288   0400000A           BEQ      ??my_keyhook_25
   \   0000028C   010050E2           SUBS     R0,R0,#+1
   \   00000290   0E00000A           BEQ      ??my_keyhook_26
   \   00000294   E9FFFFEA           B        ??my_keyhook_9
   \                     ??my_keyhook_24:
   \   00000298   D4109FE5           LDR      R1,??my_keyhook_2+0xC  ;; link1
   \   0000029C   000000EA           B        ??my_keyhook_27
   \                     ??my_keyhook_25:
   \   000002A0   D0109FE5           LDR      R1,??my_keyhook_2+0x10  ;; link2
   \                     ??my_keyhook_27:
   \   000002A4   DC5086E5           STR      R5,[R6, #+220]
   \   000002A8   0400A0E1           MOV      R0,R4
   \   000002AC   240100EF           SWI      +292
   \   000002B0   0020A0E3           MOV      R2,#+0
   \   000002B4   0210A0E1           MOV      R1,R2
   \   000002B8   0400A0E1           MOV      R0,R4
   \   000002BC   940000EF           SWI      +148
   \   000002C0   0400A0E1           MOV      R0,R4
   \   000002C4   290100EF           SWI      +297
   \   000002C8   0500A0E1           MOV      R0,R5
   \   000002CC   F083BDE8           POP      {R4-R9,PC}
   \                     ??my_keyhook_26:
   \   000002D0   A4109FE5           LDR      R1,??my_keyhook_2+0x14  ;; link3
   \   000002D4   F2FFFFEA           B        ??my_keyhook_27
   \                     ??my_keyhook_28:
   \   000002D8   A85086E5           STR      R5,[R6, #+168]
   \   000002DC   060083E0           ADD      R0,R3,R6
   \   000002E0   8C0100EF           SWI      +396
   \   000002E4   ........           LDR      R1,??DataTable38  ;; use_plugin
   \   000002E8   700096E5           LDR      R0,[R6, #+112]
   \   000002EC   001091E5           LDR      R1,[R1, #+0]
   \   000002F0   010080E2           ADD      R0,R0,#+1
   \   000002F4   700086E5           STR      R0,[R6, #+112]
   \   000002F8   000051E3           CMP      R1,#+0
   \   000002FC   0300000A           BEQ      ??my_keyhook_29
   \   00000300   060050E3           CMP      R0,#+6
   \   00000304   0300001A           BNE      ??my_keyhook_30
   \   00000308   707086E5           STR      R7,[R6, #+112]
   \   0000030C   010000EA           B        ??my_keyhook_30
   \                     ??my_keyhook_29:
   \   00000310   060050E3           CMP      R0,#+6
   \   00000314   70508605           STREQ    R5,[R6, #+112]
   \                     ??my_keyhook_30:
   \   00000318   807086E5           STR      R7,[R6, #+128]
   \   0000031C   0400A0E3           MOV      R0,#+4
   \   00000320   740086E5           STR      R0,[R6, #+116]
   \   00000324   C4FFFFEA           B        ??my_keyhook_19
   \                     ??my_keyhook_31:
   \   00000328   A85086E5           STR      R5,[R6, #+168]
   \   0000032C   060083E0           ADD      R0,R3,R6
   \   00000330   8C0100EF           SWI      +396
   \   00000334   ........           LDR      R1,??DataTable38  ;; use_plugin
   \   00000338   700096E5           LDR      R0,[R6, #+112]
   \   0000033C   001091E5           LDR      R1,[R1, #+0]
   \   00000340   010040E2           SUB      R0,R0,#+1
   \   00000344   700086E5           STR      R0,[R6, #+112]
   \   00000348   000051E3           CMP      R1,#+0
   \   0000034C   0300000A           BEQ      ??my_keyhook_32
   \   00000350   010070E3           CMN      R0,#+1
   \                     ??my_keyhook_33:
   \   00000354   EFFFFF1A           BNE      ??my_keyhook_30
   \   00000358   708086E5           STR      R8,[R6, #+112]
   \   0000035C   EDFFFFEA           B        ??my_keyhook_30
   \                     ??my_keyhook_32:
   \   00000360   000050E3           CMP      R0,#+0
   \   00000364   FAFFFFEA           B        ??my_keyhook_33
   \                     ??my_keyhook_2:
   \   00000368   ........           DC32     CALL_BUTTON2
   \   0000036C   ........           DC32     alt_state
   \   00000370   ........           DC32     CALL_BUTTON
   \   00000374   ........           DC32     link1
   \   00000378   ........           DC32     link2
   \   0000037C   ........           DC32     link3
   1000          }

   \                                 In segment CODE, align 4, keep-with-next
   1001          void check_battery()
   1002          {
   \                     check_battery:
   \   00000000   70402DE9           PUSH     {R4-R6,LR}
   1003            volatile int hFile_ex = fopen("0:\\zbin\\miosd\\miosd.file",A_ReadOnly + A_BIN,P_READ, 0);
   \   00000004   ........           LDR      R5,??DataTable39  ;; `?<Constant "MIOSD_mod update">`
   \   00000008   2CD04DE2           SUB      SP,SP,#+44
   \   0000000C   0030A0E3           MOV      R3,#+0
   \   00000010   8020A0E3           MOV      R2,#+128
   \   00000014   801CA0E3           MOV      R1,#+32768
   1004            if(hFile_ex!=-1)
   \   00000018   ........           LDR      R4,??DataTable47  ;; screen
   \   0000001C   440085E2           ADD      R0,R5,#+68
   \   00000020   0A0000EF           SWI      +10
   \   00000024   00008DE5           STR      R0,[SP, #+0]
   \   00000028   00009DE5           LDR      R0,[SP, #+0]
   \   0000002C   010070E3           CMN      R0,#+1
   \   00000030   2500000A           BEQ      ??check_battery_0
   1005            {
   1006             fclose(hFile_ex, 0);
   \   00000034   00009DE5           LDR      R0,[SP, #+0]
   \   00000038   0010A0E3           MOV      R1,#+0
   \   0000003C   0D0000EF           SWI      +13
   1007              FSTATS stat;
   1008              GetFileStats("0:\\zbin\\miosd\\miosd.file",&stat,0);
   \   00000040   0020A0E3           MOV      R2,#+0
   \   00000044   04108DE2           ADD      R1,SP,#+4
   \   00000048   440085E2           ADD      R0,R5,#+68
   \   0000004C   840000EF           SWI      +132
   1009              if(stat.size>0)
   \   00000050   08009DE5           LDR      R0,[SP, #+8]
   \   00000054   000050E3           CMP      R0,#+0
   \   00000058   1E00000A           BEQ      ??check_battery_1
   1010              {
   1011                int f=fopen("0:\\zbin\\miosd\\miosd.file",A_ReadOnly+A_BIN,P_READ,0);
   \   0000005C   0030A0E3           MOV      R3,#+0
   \   00000060   8020A0E3           MOV      R2,#+128
   \   00000064   801CA0E3           MOV      R1,#+32768
   \   00000068   440085E2           ADD      R0,R5,#+68
   \   0000006C   0A0000EF           SWI      +10
   \   00000070   0050A0E1           MOV      R5,R0
   1012                char *p=malloc(stat.size);
   \   00000074   08009DE5           LDR      R0,[SP, #+8]
   \   00000078   140000EF           SWI      +20
   1013                p[fread(f,p,stat.size,0)];
   \   0000007C   08209DE5           LDR      R2,[SP, #+8]
   \   00000080   0060A0E1           MOV      R6,R0
   \   00000084   0030A0E3           MOV      R3,#+0
   \   00000088   0610A0E1           MOV      R1,R6
   \   0000008C   0500A0E1           MOV      R0,R5
   \   00000090   0B0000EF           SWI      +11
   1014                fclose(f,0);
   \   00000094   0010A0E3           MOV      R1,#+0
   \   00000098   0500A0E1           MOV      R0,R5
   \   0000009C   0D0000EF           SWI      +13
   1015                strcpy(chinfo, p);
   \   000000A0   0610A0E1           MOV      R1,R6
   \   000000A4   F00084E2           ADD      R0,R4,#+240
   \   000000A8   1A0000EF           SWI      +26
   1016                chinfo[stat.size]='\0';
   \   000000AC   08009DE5           LDR      R0,[SP, #+8]
   \   000000B0   0010A0E3           MOV      R1,#+0
   \   000000B4   040080E0           ADD      R0,R0,R4
   \   000000B8   F010C0E5           STRB     R1,[R0, #+240]
   1017                mfree(p);
   \   000000BC   0600A0E1           MOV      R0,R6
   \   000000C0   150000EF           SWI      +21
   \   000000C4   2CD08DE2           ADD      SP,SP,#+44
   \   000000C8   7080BDE8           POP      {R4-R6,PC}
   1018              }
   1019            }
   1020            else
   1021              sprintf(chinfo, "Never");
   \                     ??check_battery_0:
   \   000000CC   601085E2           ADD      R1,R5,#+96
   \   000000D0   F00084E2           ADD      R0,R4,#+240
   \   000000D4   160000EF           SWI      +22
   1022          }
   \                     ??check_battery_1:
   \   000000D8   2CD08DE2           ADD      SP,SP,#+44       ;; stack cleaning
   \   000000DC   7080BDE8           POP      {R4-R6,PC}       ;; return
   1023          
   1024          

   \                                 In segment CODE, align 4, keep-with-next
   1025          void check_gprs()
   1026          {
   \                     check_gprs:
   \   00000000   F0402DE9           PUSH     {R4-R7,LR}
   1027            volatile int hFile_ex = fopen("0:\\zbin\\miosd\\miosd2.file",A_ReadOnly + A_BIN,P_READ, 0);
   \   00000004   ........           LDR      R6,??DataTable41  ;; `?<Constant "0:\\\\zbin\\\\miosd\\\\miosd2....">`
   \   00000008   2CD04DE2           SUB      SP,SP,#+44
   \   0000000C   0030A0E3           MOV      R3,#+0
   \   00000010   8020A0E3           MOV      R2,#+128
   \   00000014   801CA0E3           MOV      R1,#+32768
   1028            if(hFile_ex!=-1)
   \   00000018   ........           LDR      R5,??DataTable47  ;; screen
   \   0000001C   0600A0E1           MOV      R0,R6
   \   00000020   0A0000EF           SWI      +10
   \   00000024   00008DE5           STR      R0,[SP, #+0]
   \   00000028   00009DE5           LDR      R0,[SP, #+0]
   \   0000002C   444FA0E3           MOV      R4,#+272
   \   00000030   010070E3           CMN      R0,#+1
   \   00000034   2800000A           BEQ      ??check_gprs_0
   1029            {
   1030             fclose(hFile_ex, 0);
   \   00000038   00009DE5           LDR      R0,[SP, #+0]
   \   0000003C   0010A0E3           MOV      R1,#+0
   \   00000040   0D0000EF           SWI      +13
   1031              FSTATS stat;
   1032              GetFileStats("0:\\zbin\\miosd\\miosd2.file",&stat,0);
   \   00000044   0020A0E3           MOV      R2,#+0
   \   00000048   04108DE2           ADD      R1,SP,#+4
   \   0000004C   0600A0E1           MOV      R0,R6
   \   00000050   840000EF           SWI      +132
   1033              if(stat.size>0)
   \   00000054   08009DE5           LDR      R0,[SP, #+8]
   \   00000058   000050E3           CMP      R0,#+0
   \   0000005C   2100000A           BEQ      ??check_gprs_1
   1034              {
   1035                int f=fopen("0:\\zbin\\miosd\\miosd2.file",A_ReadOnly+A_BIN,P_READ,0);
   \   00000060   0030A0E3           MOV      R3,#+0
   \   00000064   8020A0E3           MOV      R2,#+128
   \   00000068   801CA0E3           MOV      R1,#+32768
   \   0000006C   0600A0E1           MOV      R0,R6
   \   00000070   0A0000EF           SWI      +10
   \   00000074   0070A0E1           MOV      R7,R0
   1036                char *p=malloc(stat.size);
   \   00000078   08009DE5           LDR      R0,[SP, #+8]
   \   0000007C   140000EF           SWI      +20
   1037                p[fread(f,p,stat.size,0)];
   \   00000080   08209DE5           LDR      R2,[SP, #+8]
   \   00000084   0060A0E1           MOV      R6,R0
   \   00000088   0030A0E3           MOV      R3,#+0
   \   0000008C   0610A0E1           MOV      R1,R6
   \   00000090   0700A0E1           MOV      R0,R7
   \   00000094   0B0000EF           SWI      +11
   1038                fclose(f,0);
   \   00000098   0010A0E3           MOV      R1,#+0
   \   0000009C   0700A0E1           MOV      R0,R7
   \   000000A0   0D0000EF           SWI      +13
   1039                strcpy(gpinfo, p);
   \   000000A4   0610A0E1           MOV      R1,R6
   \   000000A8   050084E0           ADD      R0,R4,R5
   \   000000AC   1A0000EF           SWI      +26
   1040                gpinfo[stat.size]='\0';
   \   000000B0   08009DE5           LDR      R0,[SP, #+8]
   \   000000B4   0010A0E3           MOV      R1,#+0
   \   000000B8   050080E0           ADD      R0,R0,R5
   \   000000BC   1011C0E5           STRB     R1,[R0, #+272]
   1041                mfree(p);
   \   000000C0   0600A0E1           MOV      R0,R6
   \   000000C4   150000EF           SWI      +21
   1042                isfile=1;
   \   000000C8   0100A0E3           MOV      R0,#+1
   \   000000CC   AC0085E5           STR      R0,[R5, #+172]
   1043                write_total();
   \   000000D0   ........           _BLF     write_total,??write_total??rA
   \   000000D4   2CD08DE2           ADD      SP,SP,#+44
   \   000000D8   F080BDE8           POP      {R4-R7,PC}
   1044              }
   1045            }
   1046            else
   1047              sprintf(gpinfo, "Unknown");
   \                     ??check_gprs_0:
   \   000000DC   1C1086E2           ADD      R1,R6,#+28
   \   000000E0   050084E0           ADD      R0,R4,R5
   \   000000E4   160000EF           SWI      +22
   1048          }
   \                     ??check_gprs_1:
   \   000000E8   2CD08DE2           ADD      SP,SP,#+44       ;; stack cleaning
   \   000000EC   F080BDE8           POP      {R4-R7,PC}       ;; return
   1049          
   1050          
   1051          

   \                                 In segment CODE, align 4, keep-with-next
   1052          void runtime_count()
   1053          {
   1054            r_s++;
   \                     runtime_count:
   \   00000000   ........           LDR      R0,??DataTable47  ;; screen
   \   00000004   00402DE9           PUSH     {LR}
   \   00000008   5C1090E5           LDR      R1,[R0, #+92]
   1055           if(r_s>=60){r_s=0;r_m++;}
   \   0000000C   602090E5           LDR      R2,[R0, #+96]
   \   00000010   011081E2           ADD      R1,R1,#+1
   \   00000014   3C0051E3           CMP      R1,#+60
   \   00000018   0010A0A3           MOVGE    R1,#+0
   \   0000001C   012082A2           ADDGE    R2,R2,#+1
   \   00000020   5C1080E5           STR      R1,[R0, #+92]
   1056           if(r_m>=60){r_m=0;r_h++;}
   \   00000024   3C0052E3           CMP      R2,#+60
   \   00000028   030000BA           BLT      ??runtime_count_0
   \   0000002C   641090E5           LDR      R1,[R0, #+100]
   \   00000030   0020A0E3           MOV      R2,#+0
   \   00000034   011081E2           ADD      R1,R1,#+1
   \   00000038   641080E5           STR      R1,[R0, #+100]
   \                     ??runtime_count_0:
   \   0000003C   602080E5           STR      R2,[R0, #+96]
   1057           GBS_StartTimerProc(&rs_tmr, 216, runtime_count);
   \   00000040   0C209FE5           LDR      R2,??runtime_count_1  ;; runtime_count
   \   00000044   D810A0E3           MOV      R1,#+216
   \   00000048   4C0F80E2           ADD      R0,R0,#+304
   \   0000004C   4D0000EF           SWI      +77
   1058          }
   \   00000050   0080BDE8           POP      {PC}             ;; return
   \                     ??runtime_count_1:
   \   00000054   ........           DC32     runtime_count
   1059          
   1060          

   \                                 In segment CODE, align 4, keep-with-next
   1061          static void Killer(void)
   1062          {
   \                     Killer:
   \   00000000   00402DE9           PUSH     {LR}
   1063            extern void *ELF_BEGIN;
   1064            kill_data(&ELF_BEGIN,(void (*)(void *))mfree_adr());
   \   00000004   158000EF           SWI      +32789
   \   00000008   0010A0E1           MOV      R1,R0
   \   0000000C   ........           LDR      R0,??DataTable44  ;; ELF_BEGIN
   \   00000010   0040BDE8           POP      {LR}             ;; Pop
   \   00000014   ........           _BF      kill_data,??kill_data??rA  ;; tailcall
   1065          }
   1066          

   \                                 In segment CODE, align 4, keep-with-next
   1067          static void maincsm_onclose(CSM_RAM *csm)
   1068          {
   \                     maincsm_onclose:
   \   00000000   10402DE9           PUSH     {R4,LR}
   1069            GBS_DelTimer(&rs_tmr);
   \   00000004   ........           LDR      R4,??DataTable45  ;; screen
   \   00000008   4C0F84E2           ADD      R0,R4,#+304
   \   0000000C   8C0100EF           SWI      +396
   1070            mfree(screen.bitmap);
   \   00000010   080094E5           LDR      R0,[R4, #+8]
   \   00000014   150000EF           SWI      +21
   1071            SUBPROC((void *)Killer);
   \   00000018   04009FE5           LDR      R0,??maincsm_onclose_0  ;; Killer
   \   0000001C   710100EF           SWI      +369
   1072          }
   \   00000020   1080BDE8           POP      {R4,PC}          ;; return
   \                     ??maincsm_onclose_0:
   \   00000024   ........           DC32     Killer
   1073          

   \                                 In segment DATA_Z, align 4, align-sorted
   1074          static unsigned short maincsm_name_body[140];
   \                     maincsm_name_body:
   \   00000000                      DS8 280
   1075          
   1076          static const struct
   1077          {
   1078            CSM_DESC maincsm;
   1079            WSHDR maincsm_name;

   \                                 In segment DATA_C, align 4, align-sorted
   \                     `?<Constant "MIOSD">`:
   \   00000000   4D494F534400       DC8 "MIOSD"
   \   00000006   0000               DC8 0, 0
   \   00000008   ............       DC32 maincsm_onmessage, maincsm_oncreate, 0, 0, 0, 0, maincsm_onclose
   \              ....00000000
   \              000000000000
   \              000000000000
   \              ........    
   \   00000024   280000000100       DC32 40, 1, minus11, maincsm_name_body, 55AACCCCH, 3333AA55H, 0
   \              0000........
   \              ........CCCC
   \              AA5555AA3333
   \              00000000    
   \   00000040   8B00               DC16 139
   \   00000042   0000               DC8 0, 0
   1080          }MAINCSM =
   1081          {
   1082            {
   1083            maincsm_onmessage,
   1084            maincsm_oncreate,
   1085          #ifdef NEWSGOLD
   1086            0,
   1087            0,
   1088            0,
   1089            0,
   1090          #endif
   1091            maincsm_onclose,
   1092            sizeof(MAIN_CSM),
   1093            1,
   1094            &minus11
   1095            },
   1096            {
   1097              maincsm_name_body,
   1098              NAMECSM_MAGIC1,
   1099              NAMECSM_MAGIC2,
   1100              0x0,
   1101              139
   1102            }
   1103          };
   1104          

   \                                 In segment CODE, align 4, keep-with-next
   1105          void UpdateCSMname(void)
   1106          {
   1107            wsprintf((WSHDR *)(&MAINCSM.maincsm_name),"MIOSD");
   \                     UpdateCSMname:
   \   00000000   10009FE5           LDR      R0,??UpdateCSMname_0  ;; `?<Constant "MIOSD">`
   \   00000004   00402DE9           PUSH     {LR}
   \   00000008   0010A0E1           MOV      R1,R0
   \   0000000C   300080E2           ADD      R0,R0,#+48
   \   00000010   240100EF           SWI      +292
   1108          }
   \   00000014   0080BDE8           POP      {PC}             ;; return
   \                     ??UpdateCSMname_0:
   \   00000018   ........           DC32     `?<Constant "MIOSD">`
   1109          

   \                                 In segment CODE, align 4, keep-with-next
   1110          void Execute()
   1111          {
   \                     Execute:
   \   00000000   00402DE9           PUSH     {LR}
   1112            LockSched();
   \   00000004   460100EF           SWI      +326
   1113            UpdateCSMname();
   \   00000008   ........           BL       UpdateCSMname
   1114            UnlockSched();
   \   0000000C   470100EF           SWI      +327
   1115            lock_keys=0;
   \   00000010   ........           LDR      R0,??DataTable47  ;; screen
   \   00000014   0010A0E3           MOV      R1,#+0
   \   00000018   801080E5           STR      R1,[R0, #+128]
   1116            phase=1;
   1117            ker_state=1;
   1118            pos_main_x=-20;
   1119            pos_main_y=50;
   1120            pos_link_x=0;
   \   0000001C   841080E5           STR      R1,[R0, #+132]
   1121            pos_link_y=pos_main_y-12+(pos*20);
   \   00000020   701090E5           LDR      R1,[R0, #+112]
   \   00000024   1330E0E3           MVN      R3,#+19
   \   00000028   783080E5           STR      R3,[R0, #+120]
   \   0000002C   3230A0E3           MOV      R3,#+50
   \   00000030   7C3080E5           STR      R3,[R0, #+124]
   \   00000034   1430A0E3           MOV      R3,#+20
   \   00000038   930101E0           MUL      R1,R3,R1
   \   0000003C   0120A0E3           MOV      R2,#+1
   \   00000040   742080E5           STR      R2,[R0, #+116]
   \   00000044   582080E5           STR      R2,[R0, #+88]
   \   00000048   261081E2           ADD      R1,R1,#+38
   \   0000004C   881080E5           STR      R1,[R0, #+136]
   1122            pos_msg_x=21;
   \   00000050   1510A0E3           MOV      R1,#+21
   \   00000054   8C1080E5           STR      R1,[R0, #+140]
   1123            key_mode=1;
   \   00000058   D82080E5           STR      R2,[R0, #+216]
   1124            DoScreen();
   \   0000005C   ........           BL       DoScreen
   1125            DoShowIt();
   \   00000060   ........           BL       DoShowIt
   1126          }
   \   00000064   0080BDE8           POP      {PC}             ;; return
   1127          
   1128          

   \                                 In segment CODE, align 4, keep-with-next
   1129          int main()
   1130          {
   \                     main:
   \   00000000   30402DE9           PUSH     {R4,R5,LR}
   \   00000004   28D04DE2           SUB      SP,SP,#+40
   1131            InitConfig();
   \   00000008   ........           _BLF     InitConfig,??InitConfig??rA
   1132            CSM_RAM *save_cmpc;
   1133            char dummy[sizeof(MAIN_CSM)];
   1134            UpdateCSMname();  
   \   0000000C   ........           BL       UpdateCSMname
   1135            LockSched();
   \   00000010   460100EF           SWI      +326
   1136            save_cmpc=CSM_root()->csm_q->current_msg_processing_csm;
   \   00000014   068100EF           SWI      +33030
   \   00000018   080090E5           LDR      R0,[R0, #+8]
   \   0000001C   044090E5           LDR      R4,[R0, #+4]
   1137            CSM_root()->csm_q->current_msg_processing_csm=CSM_root()->csm_q->csm.first;
   \   00000020   068100EF           SWI      +33030
   \   00000024   0050A0E1           MOV      R5,R0
   \   00000028   068100EF           SWI      +33030
   \   0000002C   080090E5           LDR      R0,[R0, #+8]
   \   00000030   081095E5           LDR      R1,[R5, #+8]
   \   00000034   080090E5           LDR      R0,[R0, #+8]
   1138            CreateCSM(&MAINCSM.maincsm,dummy,0);
   1139            CSM_root()->csm_q->current_msg_processing_csm=save_cmpc;
   1140            CSM_RAM *icsm=FindCSMbyID(CSM_root()->idle_id);
   1141            memcpy(&icsmd,icsm->constr,sizeof(icsmd));
   \   00000038   ........           LDR      R5,??DataTable47  ;; screen
   \   0000003C   040081E5           STR      R0,[R1, #+4]
   \   00000040   84009FE5           LDR      R0,??main_0      ;; `?<Constant "MIOSD">` + 8
   \   00000044   0020A0E3           MOV      R2,#+0
   \   00000048   0D10A0E1           MOV      R1,SP
   \   0000004C   070100EF           SWI      +263
   \   00000050   068100EF           SWI      +33030
   \   00000054   080090E5           LDR      R0,[R0, #+8]
   \   00000058   044080E5           STR      R4,[R0, #+4]
   \   0000005C   068100EF           SWI      +33030
   \   00000060   040090E5           LDR      R0,[R0, #+4]
   \   00000064   080100EF           SWI      +264
   \   00000068   0040A0E1           MOV      R4,R0
   \   0000006C   081094E5           LDR      R1,[R4, #+8]
   \   00000070   2820A0E3           MOV      R2,#+40
   \   00000074   0C0085E2           ADD      R0,R5,#+12
   \   00000078   1E0100EF           SWI      +286
   1142            old_icsm_onMessage=icsmd.onMessage;
   \   0000007C   0C0095E5           LDR      R0,[R5, #+12]
   \   00000080   E80085E5           STR      R0,[R5, #+232]
   1143            icsmd.onMessage=MyIDLECSM_onMessage;
   \   00000084   44009FE5           LDR      R0,??main_0+0x4  ;; MyIDLECSM_onMessage
   \   00000088   0C0085E5           STR      R0,[R5, #+12]
   1144            old_icsm_onClose=icsmd.onClose;
   \   0000008C   240095E5           LDR      R0,[R5, #+36]
   \   00000090   EC0085E5           STR      R0,[R5, #+236]
   1145            icsmd.onClose=MyIDLECSM_onClose;  
   \   00000094   38009FE5           LDR      R0,??main_0+0x8  ;; MyIDLECSM_onClose
   \   00000098   240085E5           STR      R0,[R5, #+36]
   1146            icsm->constr=&icsmd;  
   \   0000009C   0C0085E2           ADD      R0,R5,#+12
   \   000000A0   080084E5           STR      R0,[R4, #+8]
   1147            AddKeybMsgHook((void *)my_keyhook);
   \   000000A4   2C009FE5           LDR      R0,??main_0+0xC  ;; my_keyhook
   \   000000A8   2B0100EF           SWI      +299
   1148            UnlockSched();
   \   000000AC   470100EF           SWI      +327
   1149            check_battery();
   \   000000B0   ........           BL       check_battery
   1150            check_gprs();
   \   000000B4   ........           BL       check_gprs
   1151            runtime_count();
   \   000000B8   ........           BL       runtime_count
   1152            UnlockSched();
   \   000000BC   470100EF           SWI      +327
   1153            return 0;
   \   000000C0   0000A0E3           MOV      R0,#+0
   \   000000C4   28D08DE2           ADD      SP,SP,#+40
   \   000000C8   3080BDE8           POP      {R4,R5,PC}       ;; return
   \                     ??main_0:
   \   000000CC   ........           DC32     `?<Constant "MIOSD">` + 8
   \   000000D0   ........           DC32     MyIDLECSM_onMessage
   \   000000D4   ........           DC32     MyIDLECSM_onClose
   \   000000D8   ........           DC32     my_keyhook
   1154          }

   \                                 In segment CODE, align 4, keep-with-next
   \                     ??DataTable0:
   \   00000000   ........           DC32     screen

   \                                 In segment CODE, align 4, keep-with-next
   \                     ??DataTable15:
   \   00000000   ........           DC32     screen

   \                                 In segment CODE, align 4, keep-with-next
   \                     ??DataTable17:
   \   00000000   ........           DC32     `?<Constant "\\321\\310\\321\\322\\305\\314\\300">`

   \                                 In segment CODE, align 4, keep-with-next
   \                     ??DataTable22:
   \   00000000   ........           DC32     font1

   \                                 In segment CODE, align 4, keep-with-next
   \                     ??DataTable23:
   \   00000000   ........           DC32     COLORfont1

   \                                 In segment CODE, align 4, keep-with-next
   \                     ??DataTable25:
   \   00000000   ........           DC32     COLORfont2

   \                                 In segment CODE, align 4, keep-with-next
   \                     ??DataTable27:
   \   00000000   ........           DC32     font2

   \                                 In segment CODE, align 4, keep-with-next
   \                     ??DataTable28:
   \   00000000   ........           DC32     screen

   \                                 In segment CODE, align 4, keep-with-next
   \                     ??DataTable34:
   \   00000000   ........           DC32     screen

   \                                 In segment CODE, align 4, keep-with-next
   \                     ??DataTable38:
   \   00000000   ........           DC32     use_plugin

   \                                 In segment CODE, align 4, keep-with-next
   \                     ??DataTable39:
   \   00000000   ........           DC32     `?<Constant "MIOSD_mod update">`

   \                                 In segment CODE, align 4, keep-with-next
   \                     ??DataTable41:
   \   00000000   ........           DC32     `?<Constant "0:\\\\zbin\\\\miosd\\\\miosd2....">`

   \                                 In segment CODE, align 4, keep-with-next
   \                     ??DataTable44:
   \   00000000   ........           DC32     ELF_BEGIN

   \                                 In segment CODE, align 4, keep-with-next
   \                     ??DataTable45:
   \   00000000   ........           DC32     screen

   \                                 In segment CODE, align 4, keep-with-next
   \                     ??DataTable47:
   \   00000000   ........           DC32     screen

   \                                 In segment DATA_ID, align 4, align-sorted
   \                     `?<Initializer for screen>`:
   \   00000000   00000000           DC16 0, 0
   \   00000004   08000000....       DC32 8, `?<Constant "">`
   \              ....        
   \                     `?<Initializer for icsmd>`:
   \   0000000C   000000000000       DC8 0, 0, 0, 0, 0, 0, 0, 0, 0, 0, 0, 0, 0, 0, 0, 0
   \              000000000000
   \              00000000    
   \   0000001C   000000000000       DC8 0, 0, 0, 0, 0, 0, 0, 0, 0, 0, 0, 0, 0, 0, 0, 0
   \              000000000000
   \              00000000    
   \   0000002C   000000000000       DC8 0, 0, 0, 0, 0, 0, 0, 0
   \              0000        
   \                     `?<Initializer for naticq_time>`:
   \   00000034   000000000000       DC8 0, 0, 0, 0, 0, 0, 0, 0, 0, 0, 0, 0, 0, 0, 0, 0
   \              000000000000
   \              00000000    
   \                     `?<Initializer for naticq_ping>`:
   \   00000044   6E6F6E6500         DC8 "none"
   \   00000049   000000000000       DC8 0, 0, 0, 0, 0, 0, 0, 0, 0, 0, 0
   \              0000000000  
   \                     `?<Initializer for naticq_plugin>`:
   \   00000054   00000000           DC8 0, 0, 0, 0
   \                     `?<Initializer for ker_state>`:
   \   00000058   00000000           DC32 0
   \                     `?<Initializer for r_s>`:
   \   0000005C   14000000           DC32 20
   \                     `?<Initializer for r_m>`:
   \   00000060   00000000           DC8 0, 0, 0, 0
   \                     `?<Initializer for r_h>`:
   \   00000064   00000000           DC8 0, 0, 0, 0
   \                     `?<Initializer for mode_enter>`:
   \   00000068   00000000           DC8 0, 0, 0, 0
   \                     `?<Initializer for mode>`:
   \   0000006C   00000000           DC8 0, 0, 0, 0
   \                     `?<Initializer for pos>`:
   \   00000070   01000000           DC32 1
   \                     `?<Initializer for phase>`:
   \   00000074   00000000           DC8 0, 0, 0, 0
   \                     `?<Initializer for pos_main_x>`:
   \   00000078   00000000           DC8 0, 0, 0, 0
   \                     `?<Initializer for pos_main_y>`:
   \   0000007C   00000000           DC8 0, 0, 0, 0
   \                     `?<Initializer for lock_keys>`:
   \   00000080   00000000           DC8 0, 0, 0, 0
   \                     `?<Initializer for pos_link_x>`:
   \   00000084   00000000           DC8 0, 0, 0, 0
   \                     `?<Initializer for pos_link_y>`:
   \   00000088   00000000           DC8 0, 0, 0, 0
   \                     `?<Initializer for pos_msg_x>`:
   \   0000008C   00000000           DC8 0, 0, 0, 0
   \                     `?<Initializer for pos_msg_y>`:
   \   00000090   00000000           DC8 0, 0, 0, 0
   \                     `?<Initializer for monthc>`:
   \   00000094   00000000           DC8 0, 0, 0, 0
   \                     `?<Initializer for hmm>`:
   \   00000098   00000000           DC8 0, 0, 0, 0
   \                     `?<Initializer for ggg>`:
   \   0000009C   00000000           DC8 0, 0, 0, 0
   \                     `?<Initializer for trafiks>`:
   \   000000A0   00000000           DC8 0, 0, 0, 0
   \                     `?<Initializer for start_traffic>`:
   \   000000A4   00000000           DC8 0, 0, 0, 0
   \                     `?<Initializer for ffq>`:
   \   000000A8   00000000           DC8 0, 0, 0, 0
   \                     `?<Initializer for isfile>`:
   \   000000AC   00000000           DC8 0, 0, 0, 0
   \                     `?<Initializer for switch_gprs_info>`:
   \   000000B0   00000000           DC8 0, 0, 0, 0
   \                     `?<Initializer for do_st>`:
   \   000000B4   03000000           DC32 3
   \                     `?<Initializer for con>`:
   \   000000B8   00000000           DC8 0, 0, 0, 0
   \                     `?<Initializer for charge_m>`:
   \   000000BC   00000000           DC8 0, 0, 0, 0
   \                     `?<Initializer for charge_s>`:
   \   000000C0   00000000           DC8 0, 0, 0, 0
   \                     `?<Initializer for g_min>`:
   \   000000C4   00000000           DC8 0, 0, 0, 0
   \                     `?<Initializer for g_sec>`:
   \   000000C8   00000000           DC8 0, 0, 0, 0
   \                     `?<Initializer for g_hour>`:
   \   000000CC   00000000           DC8 0, 0, 0, 0
   \                     `?<Initializer for rem_mis>`:
   \   000000D0   00000000           DC8 0, 0, 0, 0
   \                     `?<Initializer for first_con>`:
   \   000000D4   01000000           DC32 1
   \                     `?<Initializer for key_mode>`:
   \   000000D8   00000000           DC8 0, 0, 0, 0
   \                     `?<Initializer for app_pos>`:
   \   000000DC   01000000           DC32 1
   \                     `?<Initializer for pos_link2_x>`:
   \   000000E0   00000000           DC8 0, 0, 0, 0
   \                     `?<Initializer for pos_link2_y>`:
   \   000000E4   00000000           DC8 0, 0, 0, 0
   \                     `?<Initializer for old_icsm_onMessage>`:
   \   000000E8   00000000           DC8 0, 0, 0, 0
   \                     `?<Initializer for old_icsm_onClose>`:
   \   000000EC   00000000           DC8 0, 0, 0, 0
   \                     `?<Initializer for chinfo>`:
   \   000000F0   000000000000       DC8 0, 0, 0, 0, 0, 0, 0, 0, 0, 0, 0, 0, 0, 0, 0, 0
   \              000000000000
   \              00000000    
   \   00000100   000000000000       DC8 0, 0, 0, 0, 0, 0, 0, 0, 0, 0, 0, 0, 0, 0, 0, 0
   \              000000000000
   \              00000000    
   \                     `?<Initializer for gpinfo>`:
   \   00000110   000000000000       DC8 0, 0, 0, 0, 0, 0, 0, 0, 0, 0, 0, 0, 0, 0, 0, 0
   \              000000000000
   \              00000000    
   \   00000120   000000000000       DC8 0, 0, 0, 0, 0, 0, 0, 0, 0, 0, 0, 0, 0, 0, 0, 0
   \              000000000000
   \              00000000    
   \                     `?<Initializer for rs_tmr>`:
   \   00000130   000000000000       DC8 0, 0, 0, 0, 0, 0, 0, 0, 0, 0, 0, 0, 0, 0, 0, 0
   \              000000000000
   \              00000000    
   \                     `?<Initializer for mytmr>`:
   \   00000140   000000000000       DC8 0, 0, 0, 0, 0, 0, 0, 0, 0, 0, 0, 0, 0, 0, 0, 0
   \              000000000000
   \              00000000    
   \                     `?<Initializer for start_g2>`:
   \   00000150   000000000000       DC8 0, 0, 0, 0, 0, 0, 0, 0, 0, 0, 0, 0, 0, 0, 0, 0
   \              000000000000
   \              00000000    
   \   00000160   000000000000       DC8 0, 0, 0, 0, 0, 0, 0, 0, 0, 0, 0, 0, 0, 0, 0, 0
   \              000000000000
   \              00000000    
   \                     `?<Initializer for month>`:
   \   00000170   000000000000       DC8 0, 0, 0, 0, 0, 0, 0, 0, 0, 0, 0, 0
   \              000000000000
   \                     `?<Initializer for mytmr2>`:
   \   0000017C   000000000000       DC8 0, 0, 0, 0, 0, 0, 0, 0, 0, 0, 0, 0, 0, 0, 0, 0
   \              000000000000
   \              00000000    
   \                     `?<Initializer for charger>`:
   \   0000018C   000000000000       DC8 0, 0, 0, 0, 0, 0, 0, 0, 0, 0, 0, 0, 0, 0, 0, 0
   \              000000000000
   \              00000000    
   \                     `?<Initializer for gipi>`:
   \   0000019C   000000000000       DC8 0, 0, 0, 0, 0, 0, 0, 0, 0, 0, 0, 0, 0, 0, 0, 0
   \              000000000000
   \              00000000    

   \                                 In segment DATA_C, align 4, align-sorted
   \                     `?<Constant " \\340\\357\\360\\345\\353\\377">`:
   \   00000000   20E0EFF0E5EB       DC8 " \340\357\360\345\353\377"
   \              FF00        
   \   00000008   20ECE0FF00         DC8 " \354\340\377"
   \   0000000D   000000             DC8 0, 0, 0
   \   00000010   20E8FEEDFF00       DC8 " \350\376\355\377"
   \   00000016   0000               DC8 0, 0
   \   00000018   20E8FEEBFF00       DC8 " \350\376\353\377"
   \   0000001E   0000               DC8 0, 0
   \   00000020   20E0E2E3F3F1       DC8 " \340\342\343\363\361\362\340"
   \              F2E000      
   \   00000029   000000             DC8 0, 0, 0
   \   0000002C   20F1E5EDF2FF       DC8 " \361\345\355\362\377\341\360\377"
   \              E1F0FF00    
   \   00000036   0000               DC8 0, 0
   \   00000038   20EEEAF2FFE1       DC8 " \356\352\362\377\341\360\377"
   \              F0FF00      
   \   00000041   000000             DC8 0, 0, 0
   \   00000044   20EDEEFFE1F0       DC8 " \355\356\377\341\360\377"
   \              FF00        
   \   0000004C   20E4E5EAE0E1       DC8 " \344\345\352\340\341\360\377"
   \              F0FF00      
   \   00000055   000000             DC8 0, 0, 0
   \   00000058   20FFEDE2E0F0       DC8 " \377\355\342\340\360\377"
   \              FF00        
   \   00000060   20F4E5E2F0E0       DC8 " \364\345\342\360\340\353\377"
   \              EBFF00      
   \   00000069   000000             DC8 0, 0, 0
   \   0000006C   20ECE0F0F2E0       DC8 " \354\340\360\362\340"
   \              00          
   \   00000073   00                 DC8 0

   \                                 In segment DATA_C, align 4, align-sorted
   \                     `?<Constant "\\321\\310\\321\\322\\305\\314\\300">`:
   \   00000000   D1C8D1D2C5CC       DC8 "\321\310\321\322\305\314\300"
   \              C000        
   \   00000008   257420256420       DC8 "%t %d db"
   \              646200      
   \   00000011   000000             DC8 0, 0, 0
   \   00000014   D1E5F2FC00         DC8 "\321\345\362\374"
   \   00000019   000000             DC8 0, 0, 0
   \   0000001C   303A3D202564       DC8 "0:= %d Kb"
   \              204B6200    
   \   00000026   0000               DC8 0, 0
   \   00000028   343A3D202564       DC8 "4:= %d Kb"
   \              204B6200    
   \   00000032   0000               DC8 0, 0
   \   00000034   25743A202564       DC8 "%t: %dKb"
   \              4B6200      
   \   0000003D   000000             DC8 0, 0, 0
   \   00000040   CEEFE5F02E00       DC8 "\316\357\345\360."
   \   00000046   0000               DC8 0, 0
   \   00000048   25743A202564       DC8 "%t: %dB/s"
   \              422F7300    
   \   00000052   0000               DC8 0, 0
   \   00000054   D1EAEEF0EEF1       DC8 "\321\352\356\360\356\361\362\374"
   \              F2FC00      
   \   0000005D   000000             DC8 0, 0, 0
   \   00000060   D1E5F1F1E8FF       DC8 "\321\345\361\361\350\377"
   \              00          
   \   00000067   00                 DC8 0
   \   00000068   25743A202573       DC8 "%t: %sKb"
   \              4B6200      
   \   00000071   000000             DC8 0, 0, 0
   \   00000074   EFEEF1EB2E20       DC8 "\357\356\361\353. \361\345\361."
   \              F1E5F12E00  
   \   0000007F   00                 DC8 0
   \   00000080   25743A202573       DC8 "%t: %s"
   \              00          
   \   00000087   00                 DC8 0
   \   00000088   C2F1E5E3EE00       DC8 "\302\361\345\343\356"
   \   0000008E   0000               DC8 0, 0
   \   00000090   454750525320       DC8 "EGPRS \342\373\352\353\376\367\345\355"
   \              E2FBEAEBFEF7
   \              E5ED00      
   \   0000009F   00                 DC8 0
   \   000000A0   454750525300       DC8 "EGPRS"
   \   000000A6   0000               DC8 0, 0
   \   000000A8   E7E0F0FFE4ED       DC8 "\347\340\360\377\344\355\350\352"
   \              E8EA00      
   \   000000B1   000000             DC8 0, 0, 0
   \   000000B4   5B25745D00         DC8 "[%t]"
   \   000000B9   000000             DC8 0, 0, 0
   \   000000BC   C1C0D2C0D0C5       DC8 "\301\300\322\300\320\305\337"
   \              DF00        
   \   000000C4   25743A202564       DC8 "%t: %d%"
   \              2500        
   \   000000CC   C7E0F0FFE400       DC8 "\307\340\360\377\344"
   \   000000D2   0000               DC8 0, 0
   \   000000D4   25743A204F6E       DC8 "%t: On"
   \              00          
   \   000000DB   00                 DC8 0
   \   000000DC   25743A204F66       DC8 "%t: Off"
   \              6600        
   \   000000E4   EFEEF1EB2E20       DC8 "\357\356\361\353. \347\340\360\377\344\352\340"
   \              E7E0F0FFE4EA
   \              E000        
   \   000000F2   0000               DC8 0, 0

   \                                 In segment DATA_C, align 4, align-sorted
   \                     `?<Constant "[Naticq plugin]">`:
   \   00000000   5B4E61746963       DC8 "[Naticq plugin]"
   \              7120706C7567
   \              696E5D00    
   \   00000010   4E6174696371       DC8 "Naticq not running or wrong version"
   \              206E6F742072
   \              756E6E696E67
   \              206F72207772
   \              6F6E67207665
   \              7273696F6E00
   \   00000034   4F6E6C696E65       DC8 "Online: %s"
   \              3A20257300  
   \   0000003F   00                 DC8 0
   \   00000040   50696E673A20       DC8 "Ping: %s"
   \              257300      
   \   00000049   000000             DC8 0, 0, 0

   \                                 In segment DATA_C, align 4, align-sorted
   \   00000000   25742000           DC8 "%t "

   \                                 In segment DATA_C, align 4, align-sorted
   \                     `?<Constant "0:\\\\zbin\\\\miosd\\\\img8.png">`:
   \   00000000   303A5C7A6269       DC8 "0:\\zbin\\miosd\\img8.png"
   \              6E5C6D696F73
   \              645C696D6738
   \              2E706E6700  
   \   00000017   00                 DC8 0
   \   00000018   303A5C7A6269       DC8 "0:\\zbin\\miosd\\img1.png"
   \              6E5C6D696F73
   \              645C696D6731
   \              2E706E6700  
   \   0000002F   00                 DC8 0
   \   00000030   303A5C7A6269       DC8 "0:\\zbin\\miosd\\img2.png"
   \              6E5C6D696F73
   \              645C696D6732
   \              2E706E6700  
   \   00000047   00                 DC8 0
   \   00000048   303A5C7A6269       DC8 "0:\\zbin\\miosd\\img6.png"
   \              6E5C6D696F73
   \              645C696D6736
   \              2E706E6700  
   \   0000005F   00                 DC8 0
   \   00000060   303A5C7A6269       DC8 "0:\\zbin\\miosd\\img7.png"
   \              6E5C6D696F73
   \              645C696D6737
   \              2E706E6700  
   \   00000077   00                 DC8 0
   \   00000078   303A5C7A6269       DC8 "0:\\zbin\\miosd\\img4.png"
   \              6E5C6D696F73
   \              645C696D6734
   \              2E706E6700  
   \   0000008F   00                 DC8 0
   \   00000090   303A5C7A6269       DC8 "0:\\zbin\\miosd\\img3.png"
   \              6E5C6D696F73
   \              645C696D6733
   \              2E706E6700  
   \   000000A7   00                 DC8 0
   \   000000A8   303A5C7A6269       DC8 "0:\\zbin\\miosd\\1.png"
   \              6E5C6D696F73
   \              645C312E706E
   \              6700        
   \   000000BC   303A5C7A6269       DC8 "0:\\zbin\\miosd\\2.png"
   \              6E5C6D696F73
   \              645C322E706E
   \              6700        
   \   000000D0   303A5C7A6269       DC8 "0:\\zbin\\miosd\\3.png"
   \              6E5C6D696F73
   \              645C332E706E
   \              6700        
   \   000000E4   303A5C7A6269       DC8 "0:\\zbin\\miosd\\4.png"
   \              6E5C6D696F73
   \              645C342E706E
   \              6700        
   \   000000F8   303A5C7A6269       DC8 "0:\\zbin\\miosd\\app1.png"
   \              6E5C6D696F73
   \              645C61707031
   \              2E706E6700  
   \   0000010F   00                 DC8 0
   \   00000110   303A5C7A6269       DC8 "0:\\zbin\\miosd\\app2.png"
   \              6E5C6D696F73
   \              645C61707032
   \              2E706E6700  
   \   00000127   00                 DC8 0
   \   00000128   303A5C7A6269       DC8 "0:\\zbin\\miosd\\app3.png"
   \              6E5C6D696F73
   \              645C61707033
   \              2E706E6700  
   \   0000013F   00                 DC8 0
   \   00000140   303A5C7A6269       DC8 "0:\\zbin\\miosd\\img5.png"
   \              6E5C6D696F73
   \              645C696D6735
   \              2E706E6700  
   \   00000157   00                 DC8 0

   \                                 In segment DATA_C, align 4, align-sorted
   \                     `?<Constant "0:\\\\zbin\\\\miosd\\\\miosd2....">`:
   \   00000000   303A5C7A6269       DC8 "0:\\zbin\\miosd\\miosd2.file"
   \              6E5C6D696F73
   \              645C6D696F73
   \              64322E66696C
   \              6500        
   \   0000001A   0000               DC8 0, 0
   \   0000001C   556E6B6E6F77       DC8 "Unknown"
   \              6E00        

   \                                 In segment DATA_C, align 1, align-sorted
   \   00000000   256400             DC8 "%d"

   \                                 In segment DATA_C, align 4, align-sorted
   \                     `?<Constant "\\342\\360. \\361\\345\\361.: %02d:%02d`:
   \   00000000   E2F02E20F1E5       DC8 "\342\360. \361\345\361.: %02d:%02d:%02d"
   \              F12E3A202530
   \              32643A253032
   \              643A25303264
   \              00          
   \   00000019   000000             DC8 0, 0, 0

   \                                 In segment DATA_C, align 1, align-sorted
   \   00000000   257300             DC8 "%s"

   \                                 In segment DATA_C, align 1, align-sorted
   \                     `?<Constant "">`:
   \   00000000   00                 DC8 ""

   \                                 In segment DATA_C, align 4, align-sorted
   \   00000000   25743A00           DC8 "%t:"
   1155          
   1156          

   Maximum stack usage in bytes:

     Function            CSTACK
     --------            ------
     Count_GPRS             12
     DoScreen               20
     DoShowIt               36
     DrawAppLog             48
     DrawBatteryLog         72
     DrawGPRSLog            80
     DrawNaticqLog          72
     DrawSystemLog          96
     DrwImg                 64
     Execute                 4
     Killer                  4
     MyIDLECSM_onClose       8
     MyIDLECSM_onMessage   164
     RedrawScreen           60
     UpdateCSMname           4
     charger_c               4
     check_battery          60
     check_gprs             64
     get_month              24
     main                   52
     maincsm_onclose         8
     maincsm_oncreate        0
     maincsm_onmessage       0
     my_keyhook             28
     reboot_ref              4
     runtime_count           4
     write_log              44


   Segment part sizes:

     Function/Label                 Bytes
     --------------                 -----
     ?<Constant "MIOSD_mod update">  112
     DrwImg                           92
     DoScreen                         76
     DoShowIt                        840
     screen                          428
     minus11                           4
     under_idle                        4
     maincsm_onmessage                 8
     maincsm_oncreate                  4
     DrawBatteryLog                  704
     get_month                       336
     DrawSystemLog                   792
     DrawNaticqLog                   556
     reboot_ref                       12
     DrawGPRSLog                    1004
     DrawAppLog                      328
     RedrawScreen                   1152
     MyIDLECSM_onClose                44
     charger_c                        68
     write_log                       120
     Count_GPRS                      200
     MyIDLECSM_onMessage             776
     my_keyhook                      896
     check_battery                   224
     check_gprs                      240
     runtime_count                    88
     Killer                           24
     maincsm_onclose                  40
     maincsm_name_body               280
     ?<Constant "MIOSD">              68
     UpdateCSMname                    28
     Execute                         104
     main                            220
     ??DataTable0                      4
     ??DataTable15                     4
     ??DataTable17                     4
     ??DataTable22                     4
     ??DataTable23                     4
     ??DataTable25                     4
     ??DataTable27                     4
     ??DataTable28                     4
     ??DataTable34                     4
     ??DataTable38                     4
     ??DataTable39                     4
     ??DataTable41                     4
     ??DataTable44                     4
     ??DataTable45                     4
     ??DataTable47                     4
     ?<Initializer for screen>       428
     ?<Constant " \340\357\360\345\353\377">
                                     116
     ?<Constant "\321\310\321\322\305\314\300">
                                     244
     ?<Constant "[Naticq plugin]">    76
     ?<Constant "%t ">                 4
     ?<Constant "0:\\zbin\\miosd\\img8.png">
                                     344
     ?<Constant "0:\\zbin\\miosd\\miosd2....">
                                      36
     ?<Constant "%d">                  3
     ?<Constant "\342\360. \361\345\361.: %02d:%02d
                                      28
     ?<Constant "%s">                  3
     ?<Constant "">                    1
     ?<Constant "%t:">                 4
      Others                         216

 
 9 228 bytes in segment CODE
 1 043 bytes in segment DATA_C
   428 bytes in segment DATA_I
   428 bytes in segment DATA_ID
   284 bytes in segment DATA_Z
    24 bytes in segment INITTAB
 
 9 036 bytes of CODE  memory (+ 216 bytes shared)
 1 471 bytes of CONST memory
   712 bytes of DATA  memory

Errors: none
Warnings: none
