##############################################################################
#                                                                            #
# IAR ARM ANSI C/C++ Compiler V4.42A/W32 EVALUATION    08/Feb/2014  18:09:03 #
# Copyright 1999-2005 IAR Systems. All rights reserved.                      #
#                                                                            #
#    Cpu mode        =  interwork                                            #
#    Endian          =  little                                               #
#    Stack alignment =  4                                                    #
#    Source file     =  C:\arm\google_maps\cache\cache.c                     #
#    Command line    =  C:\arm\google_maps\cache\cache.c -D NEWSGOLD -D      #
#                       ELKA -lC C:\arm\google_maps\Release_ELKA\List\ -o    #
#                       C:\arm\google_maps\Release_ELKA\Obj\ -s9             #
#                       --no_unroll --no_clustering --cpu_mode arm --endian  #
#                       little --cpu ARM926EJ-S --stack_align 4 --interwork  #
#                       -e --fpu None --dlib_config "C:\arm2\Embedded        #
#                       Workbench 4.0 Evaluation\ARM\LIB\dl5tpainl8f.h" -I   #
#                       "C:\arm2\Embedded Workbench 4.0                      #
#                       Evaluation\ARM\INC\" --inline_threshold=2            #
#    List file       =  C:\arm\google_maps\Release_ELKA\List\cache.lst       #
#    Object file     =  C:\arm\google_maps\Release_ELKA\Obj\cache.r79        #
#                                                                            #
#                                                                            #
##############################################################################

C:\arm\google_maps\cache\cache.c
      1          #include "..\inc\swilib.h"
      2          #include "../include.h"
      3          #include "cache.h"
      4          #include "../draw/image.h"

   \                                 In segment CODE, align 4, keep-with-next
      5          void load_cache()
      6          {
   \                     load_cache:
   \   00000000   F0402DE9           PUSH     {R4-R7,LR}
   \   00000004   28D04DE2           SUB      SP,SP,#+40
      7            FSTATS fs;
      8            for(int j=0;j<MAP_Y;j++)
   \   00000008   C4609FE5           LDR      R6,??load_cache_0  ;; filename
   \   0000000C   ........           LDR      R7,??DataTable4  ;; elf_path
   \   00000010   0040A0E3           MOV      R4,#+0
      9            for(int i=0;i<MAP_X;i++)
   \                     ??load_cache_1:
   \   00000014   0050A0E3           MOV      R5,#+0
     10            {
     11            sprintf(filename,"%scache%f_%f\\map_%d_%d_%d_%d.png",elf_path,longitude,latitude,i,j,zoom,map_type);
   \                     ??load_cache_2:
   \   00000018   B8009FE5           LDR      R0,??load_cache_0+0x4  ;; map_type
   \   0000001C   0720A0E1           MOV      R2,R7
   \   00000020   000090E5           LDR      R0,[R0, #+0]
   \   00000024   01002DE9           PUSH     {R0}
   \   00000028   ........           LDR      R0,??DataTable7  ;; zoom
   \   0000002C   000090E5           LDR      R0,[R0, #+0]
   \   00000030   01002DE9           PUSH     {R0}
   \   00000034   0400A0E1           MOV      R0,R4
   \   00000038   01002DE9           PUSH     {R0}
   \   0000003C   0500A0E1           MOV      R0,R5
   \   00000040   01002DE9           PUSH     {R0}
   \   00000044   ........           LDR      R0,??DataTable5  ;; latitude
   \   00000048   030090E8           LDM      R0,{R0,R1}
   \   0000004C   03002DE9           PUSH     {R0,R1}
   \   00000050   ........           LDR      R0,??DataTable6  ;; longitude
   \   00000054   030090E8           LDM      R0,{R0,R1}
   \   00000058   03002DE9           PUSH     {R0,R1}
   \   0000005C   0800BDE8           POP      {R3}
   \   00000060   74109FE5           LDR      R1,??load_cache_0+0x8  ;; `?<Constant "%scache%f_%f\\\\map_%d_%...">`
   \   00000064   0600A0E1           MOV      R0,R6
   \   00000068   160000EF           SWI      +22
     12            if(GetFileStats(filename,&fs,0)==-1)sprintf(filename,"%s%s",elf_path,resource[NO_TILE]);
   \   0000006C   0020A0E3           MOV      R2,#+0
   \   00000070   1C108DE2           ADD      R1,SP,#+28
   \   00000074   0600A0E1           MOV      R0,R6
   \   00000078   840000EF           SWI      +132
   \   0000007C   010070E3           CMN      R0,#+1
   \   00000080   1CD08DE2           ADD      SP,SP,#+28
   \   00000084   0500001A           BNE      ??load_cache_3
   \   00000088   50009FE5           LDR      R0,??load_cache_0+0xC  ;; resource + 4
   \   0000008C   50109FE5           LDR      R1,??load_cache_0+0x10  ;; `?<Constant "%s%s">`
   \   00000090   003090E5           LDR      R3,[R0, #+0]
   \   00000094   0720A0E1           MOV      R2,R7
   \   00000098   0600A0E1           MOV      R0,R6
   \   0000009C   160000EF           SWI      +22
     13            map[i][j]=CreateIMGHDRFromPng(filename);
   \                     ??load_cache_3:
   \   000000A0   0600A0E1           MOV      R0,R6
   \   000000A4   ........           _BLF     CreateIMGHDRFromPng,??CreateIMGHDRFromPng??rA
   \   000000A8   38109FE5           LDR      R1,??load_cache_0+0x14  ;; map
   \   000000AC   041181E0           ADD      R1,R1,R4, LSL #+2
   \   000000B0   050281E7           STR      R0,[R1, +R5, LSL #+4]
     14            }
   \   000000B4   015085E2           ADD      R5,R5,#+1
   \   000000B8   030055E3           CMP      R5,#+3
   \   000000BC   D5FFFFBA           BLT      ??load_cache_2
   \   000000C0   014084E2           ADD      R4,R4,#+1
   \   000000C4   040054E3           CMP      R4,#+4
   \   000000C8   D1FFFFBA           BLT      ??load_cache_1
     15          }
   \   000000CC   28D08DE2           ADD      SP,SP,#+40       ;; stack cleaning
   \   000000D0   F080BDE8           POP      {R4-R7,PC}       ;; return
   \                     ??load_cache_0:
   \   000000D4   ........           DC32     filename
   \   000000D8   ........           DC32     map_type
   \   000000DC   ........           DC32     `?<Constant "%scache%f_%f\\\\map_%d_%...">`
   \   000000E0   ........           DC32     resource + 4
   \   000000E4   ........           DC32     `?<Constant "%s%s">`
   \   000000E8   ........           DC32     map
     16          

   \                                 In segment CODE, align 4, keep-with-next
     17          void search_cache()
     18          {
     19            mode=2;//загрузка кеша
     20            DIR_ENTRY de;
     21            char folder[128];
     22            strcpy(folder,elf_path);
   \                     search_cache:
   \   00000000   ........           LDR      R1,??DataTable4  ;; elf_path
   \   00000004   10402DE9           PUSH     {R4,LR}
   \   00000008   B8409FE5           LDR      R4,??search_cache_0+0x4  ;; mode
   \   0000000C   F1DF4DE2           SUB      SP,SP,#+964
   \   00000010   0200A0E3           MOV      R0,#+2
   \   00000014   000084E5           STR      R0,[R4, #+0]
   \   00000018   D10F8DE2           ADD      R0,SP,#+836
   \   0000001C   1A0000EF           SWI      +26
     23            strcat(folder,"*.*");
   \   00000020   271F8FE2           ADR      R1,??search_cache_0  ;; "*.*"
   \   00000024   D10F8DE2           ADD      R0,SP,#+836
   \   00000028   170000EF           SWI      +23
     24            
     25              if (FindFirstFile(&de,folder,0))
   \   0000002C   0020A0E3           MOV      R2,#+0
   \   00000030   D11F8DE2           ADD      R1,SP,#+836
   \   00000034   0D00A0E1           MOV      R0,SP
   \   00000038   6B0000EF           SWI      +107
   \   0000003C   000050E3           CMP      R0,#+0
   \   00000040   1600000A           BEQ      ??search_cache_1
     26            {
     27              do
     28              {
     29                if(strstr(de.file_name,"cache"))
   \                     ??search_cache_2:
   \   00000044   80109FE5           LDR      R1,??search_cache_0+0x8  ;; `?<Constant "cache">`
   \   00000048   B5008DE2           ADD      R0,SP,#+181
   \   0000004C   180100EF           SWI      +280
   \   00000050   000050E3           CMP      R0,#+0
   \   00000054   0C00000A           BEQ      ??search_cache_3
     30                {
     31                  strcpy(folder,de.file_name);
   \   00000058   B5108DE2           ADD      R1,SP,#+181
   \   0000005C   D10F8DE2           ADD      R0,SP,#+836
   \   00000060   1A0000EF           SWI      +26
     32                  sscanf(folder,"cache%lf_%lf",&longitude,&latitude);
   \   00000064   ........           LDR      R3,??DataTable5  ;; latitude
   \   00000068   ........           LDR      R2,??DataTable6  ;; longitude
   \   0000006C   5C109FE5           LDR      R1,??search_cache_0+0xC  ;; `?<Constant "cache%lf_%lf">`
   \   00000070   D10F8DE2           ADD      R0,SP,#+836
   \   00000074   F50100EF           SWI      +501
     33                  zoom=Zoom;
   \   00000078   54109FE5           LDR      R1,??search_cache_0+0x10  ;; Zoom
   \   0000007C   ........           LDR      R0,??DataTable7  ;; zoom
   \   00000080   001091E5           LDR      R1,[R1, #+0]
   \   00000084   001080E5           STR      R1,[R0, #+0]
     34                 
     35                 goto a;
   \   00000088   040000EA           B        ??search_cache_1
     36                }
     37              }
     38              while(FindNextFile(&de,0));
   \                     ??search_cache_3:
   \   0000008C   0010A0E3           MOV      R1,#+0
   \   00000090   0D00A0E1           MOV      R0,SP
   \   00000094   6C0000EF           SWI      +108
   \   00000098   000050E3           CMP      R0,#+0
   \   0000009C   E8FFFF1A           BNE      ??search_cache_2
     39            }    
     40          a:
     41                 FindClose(&de,0);
   \                     ??search_cache_1:
   \   000000A0   0010A0E3           MOV      R1,#+0
   \   000000A4   0D00A0E1           MOV      R0,SP
   \   000000A8   6D0000EF           SWI      +109
     42                 SUBPROC((void*)load_cache);
   \   000000AC   24009FE5           LDR      R0,??search_cache_0+0x14  ;; load_cache
   \   000000B0   710100EF           SWI      +369
     43                 mode=0;//загрузили кеш
   \   000000B4   0000A0E3           MOV      R0,#+0
   \   000000B8   000084E5           STR      R0,[R4, #+0]
     44          }
   \   000000BC   F1DF8DE2           ADD      SP,SP,#+964
   \   000000C0   1080BDE8           POP      {R4,PC}          ;; return
   \                     ??search_cache_0:
   \   000000C4   2A2E2A00           DC8      "*.*"
   \   000000C8   ........           DC32     mode
   \   000000CC   ........           DC32     `?<Constant "cache">`
   \   000000D0   ........           DC32     `?<Constant "cache%lf_%lf">`
   \   000000D4   ........           DC32     Zoom
   \   000000D8   ........           DC32     load_cache

   \                                 In segment CODE, align 4, keep-with-next
   \                     ??DataTable4:
   \   00000000   ........           DC32     elf_path

   \                                 In segment CODE, align 4, keep-with-next
   \                     ??DataTable5:
   \   00000000   ........           DC32     latitude

   \                                 In segment CODE, align 4, keep-with-next
   \                     ??DataTable6:
   \   00000000   ........           DC32     longitude

   \                                 In segment CODE, align 4, keep-with-next
   \                     ??DataTable7:
   \   00000000   ........           DC32     zoom

   \                                 In segment DATA_C, align 4, align-sorted
   \                     `?<Constant "%scache%f_%f\\\\map_%d_%...">`:
   \   00000000   257363616368       DC8 "%scache%f_%f\\map_%d_%d_%d_%d.png"
   \              6525665F2566
   \              5C6D61705F25
   \              645F25645F25
   \              645F25642E70
   \              6E6700      
   \   00000021   000000             DC8 0, 0, 0

   \                                 In segment DATA_C, align 4, align-sorted
   \                     `?<Constant "%s%s">`:
   \   00000000   2573257300         DC8 "%s%s"
   \   00000005   000000             DC8 0, 0, 0

   \                                 In segment DATA_C, align 4, align-sorted
   \   00000000   2A2E2A00           DC8 "*.*"

   \                                 In segment DATA_C, align 4, align-sorted
   \                     `?<Constant "cache%lf_%lf">`:
   \   00000000   636163686525       DC8 "cache%lf_%lf"
   \              6C665F256C66
   \              00          
   \   0000000D   000000             DC8 0, 0, 0

   \                                 In segment DATA_C, align 4, align-sorted
   \                     `?<Constant "cache">`:
   \   00000000   636163686500       DC8 "cache"
   \   00000006   0000               DC8 0, 0

   Maximum stack usage in bytes:

     Function     CSTACK
     --------     ------
     load_cache      92
     search_cache   972


   Segment part sizes:

     Function/Label                 Bytes
     --------------                 -----
     load_cache                      236
     search_cache                    220
     ??DataTable4                      4
     ??DataTable5                      4
     ??DataTable6                      4
     ??DataTable7                      4
     ?<Constant "%scache%f_%f\\map_%d_%...">
                                      36
     ?<Constant "%s%s">                8
     ?<Constant "*.*">                 4
     ?<Constant "cache%lf_%lf">       16
     ?<Constant "cache">               8
      Others                          20

 
 492 bytes in segment CODE
  72 bytes in segment DATA_C
 
 472 bytes of CODE  memory (+ 20 bytes shared)
  72 bytes of CONST memory

Errors: none
Warnings: none
