##############################################################################
#                                                                            #
# IAR ARM ANSI C/C++ Compiler V4.42A/W32 EVALUATION    08/Feb/2014  18:09:05 #
# Copyright 1999-2005 IAR Systems. All rights reserved.                      #
#                                                                            #
#    Cpu mode        =  interwork                                            #
#    Endian          =  little                                               #
#    Stack alignment =  4                                                    #
#    Source file     =  C:\arm\google_maps\map\map.c                         #
#    Command line    =  C:\arm\google_maps\map\map.c -D NEWSGOLD -D ELKA     #
#                       -lC C:\arm\google_maps\Release_ELKA\List\ -o         #
#                       C:\arm\google_maps\Release_ELKA\Obj\ -s9             #
#                       --no_unroll --no_clustering --cpu_mode arm --endian  #
#                       little --cpu ARM926EJ-S --stack_align 4 --interwork  #
#                       -e --fpu None --dlib_config "C:\arm2\Embedded        #
#                       Workbench 4.0 Evaluation\ARM\LIB\dl5tpainl8f.h" -I   #
#                       "C:\arm2\Embedded Workbench 4.0                      #
#                       Evaluation\ARM\INC\" --inline_threshold=2            #
#    List file       =  C:\arm\google_maps\Release_ELKA\List\map.lst         #
#    Object file     =  C:\arm\google_maps\Release_ELKA\Obj\map.r79          #
#                                                                            #
#                                                                            #
##############################################################################

C:\arm\google_maps\map\map.c
      1          #include "..\..\inc\swilib.h"
      2          #include "../draw/image.h"
      3          #include "../include.h"
      4          #include "map.h"

   \                                 In segment DATA_I, align 4, align-sorted
   \   double __data radius
   \                     radius:
   \   00000000                      DS8 8
   \   00000008                      REQUIRE `?<Initializer for radius>`
      5          

   \                                 In segment CODE, align 4, keep-with-next
      6          int mktree(char* path)
      7          {
   \                     mktree:
   \   00000000   F0412DE9           PUSH     {R4-R8,LR}
   \   00000004   40DF4DE2           SUB      SP,SP,#+256
   \   00000008   0040A0E1           MOV      R4,R0
      8          	if (isdir(path, 0)) return 1;
   \   0000000C   0010A0E3           MOV      R1,#+0
   \   00000010   910000EF           SWI      +145
   \   00000014   000050E3           CMP      R0,#+0
   \   00000018   0100A013           MOVNE    R0,#+1
   \   0000001C   1700001A           BNE      ??mktree_0
      9          	int len = strlen(path);
   \   00000020   0400A0E1           MOV      R0,R4
   \   00000024   1B0000EF           SWI      +27
   \   00000028   0050A0E1           MOV      R5,R0
     10          	char c;
     11          	char buf[256];
     12          
     13          	for(int ii=0;ii<len;ii++)
   \   0000002C   0060A0E3           MOV      R6,#+0
   \   00000030   010055E3           CMP      R5,#+1
   \   00000034   0C0000AA           BGE      ??mktree_1
   \   00000038   0D0000EA           B        ??mktree_2
     14          	{
     15          		c = path[ii];
   \                     ??mktree_3:
   \   0000003C   0470D6E7           LDRB     R7,[R6, +R4]
     16          		if (c=='\\')
   \   00000040   0D00A0E1           MOV      R0,SP
   \   00000044   008086E0           ADD      R8,R6,R0
   \   00000048   5C0057E3           CMP      R7,#+92
   \   0000004C   0400001A           BNE      ??mktree_4
     17          		{
     18          			buf[ii]=0;
   \   00000050   0000A0E3           MOV      R0,#+0
   \   00000054   0000C8E5           STRB     R0,[R8, #+0]
     19          			mkdir(buf, 0);
   \   00000058   0010A0E3           MOV      R1,#+0
   \   0000005C   0D00A0E1           MOV      R0,SP
   \   00000060   100000EF           SWI      +16
     20          		}  
     21          		buf[ii]=c;
   \                     ??mktree_4:
   \   00000064   0070C8E5           STRB     R7,[R8, #+0]
     22          	}
   \   00000068   016086E2           ADD      R6,R6,#+1
   \                     ??mktree_1:
   \   0000006C   050056E1           CMP      R6,R5
   \   00000070   F1FFFFBA           BLT      ??mktree_3
     23          	return mkdir(path, 0);
   \                     ??mktree_2:
   \   00000074   0010A0E3           MOV      R1,#+0
   \   00000078   0400A0E1           MOV      R0,R4
   \   0000007C   100000EF           SWI      +16
   \                     ??mktree_0:
   \   00000080   40DF8DE2           ADD      SP,SP,#+256      ;; stack cleaning
   \   00000084   F081BDE8           POP      {R4-R8,PC}       ;; return
     24          }
     25          
     26          
     27          

   \                                 In segment CODE, align 4, keep-with-next
     28          void save_image_in_cache(int n)
     29          {
   \                     save_image_in_cache:
   \   00000000   F04F2DE9           PUSH     {R4-R11,LR}
     30             int size_image=0;
     31              int f=0;
     32             if(n==1)goto a;
   \   00000004   34439FE5           LDR      R4,??save_image_in_cache_0  ;; mapi
   \   00000008   34539FE5           LDR      R5,??save_image_in_cache_0+0x4  ;; mapj
   \   0000000C   34639FE5           LDR      R6,??save_image_in_cache_0+0x8  ;; filename
   \   00000010   0090A0E3           MOV      R9,#+0
   \   00000014   00A0A0E3           MOV      R10,#+0
   \   00000018   010050E3           CMP      R0,#+1
   \   0000001C   5C00000A           BEQ      ??save_image_in_cache_1
     33          
     34             if(tag=findtag(buf,"Content-Lat:"))
   \   00000020   24739FE5           LDR      R7,??save_image_in_cache_0+0xC  ;; buf
   \   00000024   24839FE5           LDR      R8,??save_image_in_cache_0+0x10  ;; tag
   \   00000028   000097E5           LDR      R0,[R7, #+0]
   \   0000002C   20139FE5           LDR      R1,??save_image_in_cache_0+0x14  ;; `?<Constant "Content-Lat:">`
   \   00000030   ........           _BLF     findtag,??findtag??rA
   \   00000034   000088E5           STR      R0,[R8, #+0]
   \   00000038   000050E3           CMP      R0,#+0
   \   0000003C   0600000A           BEQ      ??save_image_in_cache_2
     35            {
     36              valuetag(tag, filename, sizeof(filename)-1);
   \   00000040   7F20A0E3           MOV      R2,#+127
   \   00000044   0610A0E1           MOV      R1,R6
   \   00000048   ........           _BLF     valuetag,??valuetag??rA
     37              latitude=str_to_double(filename);
   \   0000004C   0600A0E1           MOV      R0,R6
   \   00000050   ........           _BLF     str_to_double,??str_to_double??rA
   \   00000054   FC229FE5           LDR      R2,??save_image_in_cache_0+0x18  ;; latitude
   \   00000058   030082E8           STM      R2,{R0,R1}
     38            }
     39          
     40            if(tag=findtag(buf,"Content-Lon:"))
   \                     ??save_image_in_cache_2:
   \   0000005C   000097E5           LDR      R0,[R7, #+0]
   \   00000060   F4129FE5           LDR      R1,??save_image_in_cache_0+0x1C  ;; `?<Constant "Content-Lon:">`
   \   00000064   ........           _BLF     findtag,??findtag??rA
   \   00000068   000088E5           STR      R0,[R8, #+0]
   \   0000006C   000050E3           CMP      R0,#+0
   \   00000070   0600000A           BEQ      ??save_image_in_cache_3
     41            {
     42              valuetag(tag, filename, sizeof(filename)-1);
   \   00000074   7F20A0E3           MOV      R2,#+127
   \   00000078   0610A0E1           MOV      R1,R6
   \   0000007C   ........           _BLF     valuetag,??valuetag??rA
     43              longitude=str_to_double(filename);  
   \   00000080   0600A0E1           MOV      R0,R6
   \   00000084   ........           _BLF     str_to_double,??str_to_double??rA
   \   00000088   D0229FE5           LDR      R2,??save_image_in_cache_0+0x20  ;; longitude
   \   0000008C   030082E8           STM      R2,{R0,R1}
     44            }
     45          
     46            if(tag=findtag(buf,"Content-Length:"))
   \                     ??save_image_in_cache_3:
   \   00000090   000097E5           LDR      R0,[R7, #+0]
   \   00000094   C8129FE5           LDR      R1,??save_image_in_cache_0+0x24  ;; `?<Constant "Content-Length:">`
   \   00000098   ........           _BLF     findtag,??findtag??rA
   \   0000009C   000088E5           STR      R0,[R8, #+0]
   \   000000A0   000050E3           CMP      R0,#+0
   \   000000A4   0600000A           BEQ      ??save_image_in_cache_4
     47            {
     48              valuetag(tag, filename, sizeof(filename)-1);
   \   000000A8   7F20A0E3           MOV      R2,#+127
   \   000000AC   0610A0E1           MOV      R1,R6
   \   000000B0   ........           _BLF     valuetag,??valuetag??rA
     49              size_image=(int)str_to_double(filename);
   \   000000B4   0600A0E1           MOV      R0,R6
   \   000000B8   ........           _BLF     str_to_double,??str_to_double??rA
   \   000000BC   ........           _BLF     __doubleToLong,??__doubleToLong??rA
   \   000000C0   0090A0E1           MOV      R9,R0
     50            }
     51          
     52            sprintf(filename,"%scache%f_%f\\",elf_path,longitude,latitude);
   \                     ??save_image_in_cache_4:
   \   000000C4   8C029FE5           LDR      R0,??save_image_in_cache_0+0x18  ;; latitude
   \   000000C8   98229FE5           LDR      R2,??save_image_in_cache_0+0x28  ;; elf_path
   \   000000CC   030090E8           LDM      R0,{R0,R1}
     53          
     54            mktree(filename);
     55          
     56            sprintf(filename,"%smap_%d_%d_%d_%d.png",filename,mapi,mapj,zoom,map_type);
     57          
     58            f = fopen(filename,A_WriteOnly+A_BIN+A_Create+A_Truncate,P_WRITE,0);
     59          
     60            fwrite(f,buf+(pbuf-size_image),size_image,0);
   \   000000D0   94829FE5           LDR      R8,??save_image_in_cache_0+0x2C  ;; pbuf
   \   000000D4   03002DE9           PUSH     {R0,R1}
   \   000000D8   80029FE5           LDR      R0,??save_image_in_cache_0+0x20  ;; longitude
   \   000000DC   030090E8           LDM      R0,{R0,R1}
   \   000000E0   03002DE9           PUSH     {R0,R1}
   \   000000E4   0800BDE8           POP      {R3}
   \   000000E8   80129FE5           LDR      R1,??save_image_in_cache_0+0x30  ;; `?<Constant "%scache%f_%f\\\\">`
   \   000000EC   0600A0E1           MOV      R0,R6
   \   000000F0   160000EF           SWI      +22
   \   000000F4   0600A0E1           MOV      R0,R6
   \   000000F8   ........           BL       mktree
   \   000000FC   70029FE5           LDR      R0,??save_image_in_cache_0+0x34  ;; map_type
   \   00000100   70129FE5           LDR      R1,??save_image_in_cache_0+0x38  ;; `?<Constant "%smap_%d_%d_%d_%d.png">`
   \   00000104   000090E5           LDR      R0,[R0, #+0]
   \   00000108   0620A0E1           MOV      R2,R6
   \   0000010C   01002DE9           PUSH     {R0}
   \   00000110   64029FE5           LDR      R0,??save_image_in_cache_0+0x3C  ;; zoom
   \   00000114   000090E5           LDR      R0,[R0, #+0]
   \   00000118   01002DE9           PUSH     {R0}
   \   0000011C   000095E5           LDR      R0,[R5, #+0]
   \   00000120   01002DE9           PUSH     {R0}
   \   00000124   003094E5           LDR      R3,[R4, #+0]
   \   00000128   0600A0E1           MOV      R0,R6
   \   0000012C   160000EF           SWI      +22
   \   00000130   0030A0E3           MOV      R3,#+0
   \   00000134   402FA0E3           MOV      R2,#+256
   \   00000138   0110A0E3           MOV      R1,#+1
   \   0000013C   831C81E3           ORR      R1,R1,#0x8300
   \   00000140   0600A0E1           MOV      R0,R6
   \   00000144   0A0000EF           SWI      +10
   \   00000148   001097E5           LDR      R1,[R7, #+0]
   \   0000014C   00B0A0E1           MOV      R11,R0
   \   00000150   000098E5           LDR      R0,[R8, #+0]
   \   00000154   0A30A0E1           MOV      R3,R10
   \   00000158   0920A0E1           MOV      R2,R9
   \   0000015C   090040E0           SUB      R0,R0,R9
   \   00000160   011080E0           ADD      R1,R0,R1
   \   00000164   0B00A0E1           MOV      R0,R11
   \   00000168   0C0000EF           SWI      +12
     61          
     62            fclose(f,0);
   \   0000016C   0A10A0E1           MOV      R1,R10
   \   00000170   0B00A0E1           MOV      R0,R11
   \   00000174   0D0000EF           SWI      +13
     63          
     64          
     65          
     66            if(buf)mfree(buf);
   \   00000178   000097E5           LDR      R0,[R7, #+0]
   \   0000017C   18D08DE2           ADD      SP,SP,#+24
   \   00000180   000050E3           CMP      R0,#+0
   \   00000184   0000000A           BEQ      ??save_image_in_cache_5
   \   00000188   150000EF           SWI      +21
     67          
     68            buf=0;
   \                     ??save_image_in_cache_5:
   \   0000018C   00A087E5           STR      R10,[R7, #+0]
     69          
     70            pbuf=0;
   \   00000190   00A088E5           STR      R10,[R8, #+0]
     71            
     72          a:
     73            if(my_latitude==0)my_latitude=latitude;
   \                     ??save_image_in_cache_1:
   \   00000194   E4719FE5           LDR      R7,??save_image_in_cache_0+0x40  ;; my_latitude
   \   00000198   030097E8           LDM      R7,{R0,R1}
   \   0000019C   0020A0E1           MOV      R2,R0
   \   000001A0   0130A0E1           MOV      R3,R1
   \   000001A4   0000A0E3           MOV      R0,#+0
   \   000001A8   0010A0E1           MOV      R1,R0
   \   000001AC   ........           _BLF     __dEqual,??__dEqual??rA
   \   000001B0   000050E3           CMP      R0,#+0
   \   000001B4   9C019F15           LDRNE    R0,??save_image_in_cache_0+0x18  ;; latitude
   \   000001B8   03009018           LDMNE    R0,{R0,R1}
   \   000001BC   03008718           STMNE    R7,{R0,R1}
     74            if(my_longitude==0)my_longitude=longitude;
   \   000001C0   BC719FE5           LDR      R7,??save_image_in_cache_0+0x44  ;; my_longitude
   \   000001C4   030097E8           LDM      R7,{R0,R1}
   \   000001C8   0020A0E1           MOV      R2,R0
   \   000001CC   0130A0E1           MOV      R3,R1
   \   000001D0   0000A0E3           MOV      R0,#+0
   \   000001D4   0010A0E1           MOV      R1,R0
   \   000001D8   ........           _BLF     __dEqual,??__dEqual??rA
   \   000001DC   000050E3           CMP      R0,#+0
   \   000001E0   78019F15           LDRNE    R0,??save_image_in_cache_0+0x20  ;; longitude
   \   000001E4   03009018           LDMNE    R0,{R0,R1}
   \   000001E8   03008718           STMNE    R7,{R0,R1}
     75            FreeImg(map[mapi][mapj]);
   \   000001EC   94719FE5           LDR      R7,??save_image_in_cache_0+0x48  ;; map
   \   000001F0   000095E5           LDR      R0,[R5, #+0]
   \   000001F4   001094E5           LDR      R1,[R4, #+0]
   \   000001F8   011287E0           ADD      R1,R7,R1, LSL #+4
   \   000001FC   000191E7           LDR      R0,[R1, +R0, LSL #+2]
   \   00000200   ........           _BLF     FreeImg,??FreeImg??rA
     76            sprintf(filename,"%scache%f_%f\\map_%d_%d_%d_%d.png",elf_path,longitude,latitude,mapi,mapj,zoom,map_type);
   \   00000204   68019FE5           LDR      R0,??save_image_in_cache_0+0x34  ;; map_type
   \   00000208   58219FE5           LDR      R2,??save_image_in_cache_0+0x28  ;; elf_path
   \   0000020C   000090E5           LDR      R0,[R0, #+0]
   \   00000210   01002DE9           PUSH     {R0}
   \   00000214   60019FE5           LDR      R0,??save_image_in_cache_0+0x3C  ;; zoom
   \   00000218   000090E5           LDR      R0,[R0, #+0]
   \   0000021C   01002DE9           PUSH     {R0}
   \   00000220   000095E5           LDR      R0,[R5, #+0]
   \   00000224   01002DE9           PUSH     {R0}
   \   00000228   000094E5           LDR      R0,[R4, #+0]
   \   0000022C   01002DE9           PUSH     {R0}
   \   00000230   20019FE5           LDR      R0,??save_image_in_cache_0+0x18  ;; latitude
   \   00000234   030090E8           LDM      R0,{R0,R1}
   \   00000238   03002DE9           PUSH     {R0,R1}
   \   0000023C   1C019FE5           LDR      R0,??save_image_in_cache_0+0x20  ;; longitude
   \   00000240   030090E8           LDM      R0,{R0,R1}
   \   00000244   03002DE9           PUSH     {R0,R1}
   \   00000248   0800BDE8           POP      {R3}
   \   0000024C   38119FE5           LDR      R1,??save_image_in_cache_0+0x4C  ;; `?<Constant "%scache%f_%f\\\\map_%d_%...">`
   \   00000250   0600A0E1           MOV      R0,R6
   \   00000254   160000EF           SWI      +22
     77            map[mapi][mapj]=CreateIMGHDRFromPng(filename);
   \   00000258   0600A0E1           MOV      R0,R6
   \   0000025C   ........           _BLF     CreateIMGHDRFromPng,??CreateIMGHDRFromPng??rA
   \   00000260   001095E5           LDR      R1,[R5, #+0]
   \   00000264   002094E5           LDR      R2,[R4, #+0]
   \   00000268   023287E0           ADD      R3,R7,R2, LSL #+4
   \   0000026C   010183E7           STR      R0,[R3, +R1, LSL #+2]
     78            
     79            if(mapi==MAP_X-1&&mapj==MAP_Y-1)goto end;
   \   00000270   020052E3           CMP      R2,#+2
   \   00000274   1CD08DE2           ADD      SP,SP,#+28
   \   00000278   03005103           CMPEQ    R1,#+3
   \   0000027C   1400000A           BEQ      ??save_image_in_cache_6
     80            
     81            switch(Type)
   \   00000280   08319FE5           LDR      R3,??save_image_in_cache_0+0x50  ;; Type
   \   00000284   010082E2           ADD      R0,R2,#+1
   \   00000288   003093E5           LDR      R3,[R3, #+0]
   \   0000028C   010053E3           CMP      R3,#+1
   \   00000290   1400009A           BLS      ??save_image_in_cache_7
   \   00000294   023053E2           SUBS     R3,R3,#+2
   \   00000298   0B00000A           BEQ      ??save_image_in_cache_8
   \   0000029C   013053E2           SUBS     R3,R3,#+1
   \   000002A0   1300001A           BNE      ??save_image_in_cache_9
     82           {
     83          case RIGHT:
     84             if(mapj==MAP_Y-1)
   \   000002A4   030051E3           CMP      R1,#+3
   \   000002A8   0400001A           BNE      ??save_image_in_cache_10
     85           {
     86             if(mapi<MAP_X-1)mapi++;
   \   000002AC   020052E3           CMP      R2,#+2
   \   000002B0   070000AA           BGE      ??save_image_in_cache_6
   \   000002B4   000084E5           STR      R0,[R4, #+0]
     87             else goto end;
     88             mapj=0;
   \   000002B8   00A085E5           STR      R10,[R5, #+0]
   \   000002BC   0C0000EA           B        ??save_image_in_cache_9
     89           }
     90           else mapj++;   
   \                     ??save_image_in_cache_10:
   \   000002C0   010081E2           ADD      R0,R1,#+1
   \   000002C4   000085E5           STR      R0,[R5, #+0]
   \   000002C8   090000EA           B        ??save_image_in_cache_9
     91          break;
     92                   
     93          case LEFT:
     94            if(mapj==MAP_Y-1)goto end;
   \                     ??save_image_in_cache_8:
   \   000002CC   030051E3           CMP      R1,#+3
   \   000002D0   FAFFFF1A           BNE      ??save_image_in_cache_10
     95            else mapj++;
     96          break;
     97            
     98          case UP:case DOWN:
     99              if(mapi>=MAP_X-1)
    100              {
    101                goto end;
    102              }
    103              else mapi++;
    104          break;
    105          }
    106          
    107            FreeImg(map[mapi][mapj]);
    108          
    109            sprintf(filename,"%s%s",elf_path,resource[LOAD_TILE]);
    110           
    111            map[mapi][mapj]=CreateIMGHDRFromPng(filename);
    112          
    113            c();
    114            return;
    115          end:
    116            mapi=0;
    117            mapj=0;
    118            mode=0;
   \                     ??save_image_in_cache_6:
   \   000002D4   B8009FE5           LDR      R0,??save_image_in_cache_0+0x54  ;; mode
   \   000002D8   00A084E5           STR      R10,[R4, #+0]
   \   000002DC   00A085E5           STR      R10,[R5, #+0]
   \   000002E0   00A080E5           STR      R10,[R0, #+0]
    119          }
   \   000002E4   F08FBDE8           POP      {R4-R11,PC}      ;; return
   \                     ??save_image_in_cache_7:
   \   000002E8   020052E3           CMP      R2,#+2
   \   000002EC   F8FFFFAA           BGE      ??save_image_in_cache_6
   \   000002F0   000084E5           STR      R0,[R4, #+0]
   \                     ??save_image_in_cache_9:
   \   000002F4   000095E5           LDR      R0,[R5, #+0]
   \   000002F8   001094E5           LDR      R1,[R4, #+0]
   \   000002FC   011287E0           ADD      R1,R7,R1, LSL #+4
   \   00000300   000191E7           LDR      R0,[R1, +R0, LSL #+2]
   \   00000304   ........           _BLF     FreeImg,??FreeImg??rA
   \   00000308   88009FE5           LDR      R0,??save_image_in_cache_0+0x58  ;; resource
   \   0000030C   54209FE5           LDR      R2,??save_image_in_cache_0+0x28  ;; elf_path
   \   00000310   003090E5           LDR      R3,[R0, #+0]
   \   00000314   80109FE5           LDR      R1,??save_image_in_cache_0+0x5C  ;; `?<Constant "%s%s">`
   \   00000318   0600A0E1           MOV      R0,R6
   \   0000031C   160000EF           SWI      +22
   \   00000320   0600A0E1           MOV      R0,R6
   \   00000324   ........           _BLF     CreateIMGHDRFromPng,??CreateIMGHDRFromPng??rA
   \   00000328   001095E5           LDR      R1,[R5, #+0]
   \   0000032C   002094E5           LDR      R2,[R4, #+0]
   \   00000330   022287E0           ADD      R2,R7,R2, LSL #+4
   \   00000334   010182E7           STR      R0,[R2, +R1, LSL #+2]
   \   00000338   ........           _BLF     c,??c??rA
   \   0000033C   F08FBDE8           POP      {R4-R11,PC}
   \                     ??save_image_in_cache_0:
   \   00000340   ........           DC32     mapi
   \   00000344   ........           DC32     mapj
   \   00000348   ........           DC32     filename
   \   0000034C   ........           DC32     buf
   \   00000350   ........           DC32     tag
   \   00000354   ........           DC32     `?<Constant "Content-Lat:">`
   \   00000358   ........           DC32     latitude
   \   0000035C   ........           DC32     `?<Constant "Content-Lon:">`
   \   00000360   ........           DC32     longitude
   \   00000364   ........           DC32     `?<Constant "Content-Length:">`
   \   00000368   ........           DC32     elf_path
   \   0000036C   ........           DC32     pbuf
   \   00000370   ........           DC32     `?<Constant "%scache%f_%f\\\\">`
   \   00000374   ........           DC32     map_type
   \   00000378   ........           DC32     `?<Constant "%smap_%d_%d_%d_%d.png">`
   \   0000037C   ........           DC32     zoom
   \   00000380   ........           DC32     my_latitude
   \   00000384   ........           DC32     my_longitude
   \   00000388   ........           DC32     map
   \   0000038C   ........           DC32     `?<Constant "%scache%f_%f\\\\map_%d_%...">`
   \   00000390   ........           DC32     Type
   \   00000394   ........           DC32     mode
   \   00000398   ........           DC32     resource
   \   0000039C   ........           DC32     `?<Constant "%s%s">`
    120          
    121          //ported from .java
    122          
    123          

   \                                 In segment CODE, align 4, keep-with-next
    124          double round(double num)
    125          {
   \                     round:
   \   00000000   F0402DE9           PUSH     {R4-R7,LR}
   \   00000004   0040A0E1           MOV      R4,R0
   \   00000008   0150A0E1           MOV      R5,R1
    126                   double flr = (int)num;
   \   0000000C   ........           _BLF     __doubleToLong,??__doubleToLong??rA
   \   00000010   ........           _BLF     __longToDouble,??__longToDouble??rA
   \   00000014   0060A0E1           MOV      R6,R0
   \   00000018   0170A0E1           MOV      R7,R1
    127          
    128          	if(num - flr >= 0.5)
   \   0000001C   0400A0E1           MOV      R0,R4
   \   00000020   0510A0E1           MOV      R1,R5
   \   00000024   0620A0E1           MOV      R2,R6
   \   00000028   0730A0E1           MOV      R3,R7
   \   0000002C   ........           _BLF     __dSub,??__dSub??rA
   \   00000030   0020A0E3           MOV      R2,#+0
   \   00000034   C035A0E3           MOV      R3,#+805306368
   \   00000038   FE3683E3           ORR      R3,R3,#0xFE00000
   \   0000003C   ........           _BLF     __dGreaterEqual,??__dGreaterEqual??rA
   \   00000040   000050E3           CMP      R0,#+0
   \   00000044   0300000A           BEQ      ??round_0
    129          		return ceil(num);
   \   00000048   0400A0E1           MOV      R0,R4
   \   0000004C   0510A0E1           MOV      R1,R5
   \   00000050   ........           _BLF     ceil,??ceil??rA
   \   00000054   F080BDE8           POP      {R4-R7,PC}
    130          	else
    131          		return flr;
   \                     ??round_0:
   \   00000058   0600A0E1           MOV      R0,R6
   \   0000005C   0710A0E1           MOV      R1,R7
   \   00000060   F080BDE8           POP      {R4-R7,PC}       ;; return
    132          }

   \                                 In segment CODE, align 4, keep-with-next
    133          double LToX(double x)
    134          {
    135          	return round(offset + radius * x * PI / 180);
   \                     LToX:
   \   00000000   ........           LDR      R2,??DataTable12  ;; radius
   \   00000004   00402DE9           PUSH     {LR}
   \   00000008   0C0092E8           LDM      R2,{R2,R3}
   \   0000000C   ........           _BLF     __dMul,??__dMul??rA
   \   00000010   ........           LDR      R2,??DataTable15  ;; 0x54411744
   \   00000014   ........           LDR      R3,??DataTable16  ;; 0x400921fb
   \   00000018   ........           _BLF     __dMul,??__dMul??rA
   \   0000001C   ........           LDR      R3,??DataTable14  ;; 0x40668000
   \   00000020   0020A0E3           MOV      R2,#+0
   \   00000024   ........           _BLF     __dDiv,??__dDiv??rA
   \   00000028   0020A0E3           MOV      R2,#+0
   \   0000002C   4034A0E3           MOV      R3,#+1073741824
   \   00000030   6C3783E3           ORR      R3,R3,#0x1B00000
   \   00000034   ........           _BLF     __dAdd,??__dAdd??rA
   \   00000038   0040BDE8           POP      {LR}             ;; Pop
   \   0000003C   ........           B        round            ;; tailcall
    136          }
    137           

   \                                 In segment CODE, align 4, keep-with-next
    138          double LToY(double y)
    139          {
    140          	return round(
    141          		offset - radius * 
    142          		log(
    143          			
    144          			(1 + sin(y * PI / 180))
    145          			/
    146          			(1 - sin(y * PI / 180))
    147          			
    148          		) / 2);
   \                     LToY:
   \   00000000   ........           LDR      R2,??DataTable15  ;; 0x54411744
   \   00000004   ........           LDR      R3,??DataTable16  ;; 0x400921fb
   \   00000008   F0402DE9           PUSH     {R4-R7,LR}
   \   0000000C   ........           _BLF     __dMul,??__dMul??rA
   \   00000010   ........           LDR      R3,??DataTable14  ;; 0x40668000
   \   00000014   0020A0E3           MOV      R2,#+0
   \   00000018   ........           _BLF     __dDiv,??__dDiv??rA
   \   0000001C   0040A0E1           MOV      R4,R0
   \   00000020   0150A0E1           MOV      R5,R1
   \   00000024   0020A0E3           MOV      R2,#+0
   \   00000028   ........           _BLF     _Sin,??_Sin??rA
   \   0000002C   0060A0E1           MOV      R6,R0
   \   00000030   0170A0E1           MOV      R7,R1
   \   00000034   0020A0E3           MOV      R2,#+0
   \   00000038   0400A0E1           MOV      R0,R4
   \   0000003C   0510A0E1           MOV      R1,R5
   \   00000040   ........           _BLF     _Sin,??_Sin??rA
   \   00000044   0020A0E1           MOV      R2,R0
   \   00000048   0130A0E1           MOV      R3,R1
   \   0000004C   0000A0E3           MOV      R0,#+0
   \   00000050   C015A0E3           MOV      R1,#+805306368
   \   00000054   FF1681E3           ORR      R1,R1,#0xFF00000
   \   00000058   ........           _BLF     __dSub,??__dSub??rA
   \   0000005C   0040A0E1           MOV      R4,R0
   \   00000060   0150A0E1           MOV      R5,R1
   \   00000064   0000A0E3           MOV      R0,#+0
   \   00000068   C015A0E3           MOV      R1,#+805306368
   \   0000006C   FF1681E3           ORR      R1,R1,#0xFF00000
   \   00000070   0620A0E1           MOV      R2,R6
   \   00000074   0730A0E1           MOV      R3,R7
   \   00000078   ........           _BLF     __dAdd,??__dAdd??rA
   \   0000007C   0420A0E1           MOV      R2,R4
   \   00000080   0530A0E1           MOV      R3,R5
   \   00000084   ........           _BLF     __dDiv,??__dDiv??rA
   \   00000088   0020A0E3           MOV      R2,#+0
   \   0000008C   ........           _BLF     _Log,??_Log??rA
   \   00000090   0020A0E1           MOV      R2,R0
   \   00000094   ........           LDR      R0,??DataTable12  ;; radius
   \   00000098   0130A0E1           MOV      R3,R1
   \   0000009C   030090E8           LDM      R0,{R0,R1}
   \   000000A0   ........           _BLF     __dMul,??__dMul??rA
   \   000000A4   0020A0E3           MOV      R2,#+0
   \   000000A8   4034A0E3           MOV      R3,#+1073741824
   \   000000AC   ........           _BLF     __dDiv,??__dDiv??rA
   \   000000B0   0020A0E1           MOV      R2,R0
   \   000000B4   0130A0E1           MOV      R3,R1
   \   000000B8   0000A0E3           MOV      R0,#+0
   \   000000BC   4014A0E3           MOV      R1,#+1073741824
   \   000000C0   6C1781E3           ORR      R1,R1,#0x1B00000
   \   000000C4   ........           _BLF     __dSub,??__dSub??rA
   \   000000C8   ........           BL       round
   \   000000CC   F080BDE8           POP      {R4-R7,PC}       ;; return
    149          } 
    150           

   \                                 In segment CODE, align 4, keep-with-next
    151          double XToL(double x)
    152          {
   \                     XToL:
   \   00000000   00402DE9           PUSH     {LR}
    153          	return ((round(x) - offset) / radius) * 180 / PI;
   \   00000004   ........           BL       round
   \   00000008   0020A0E3           MOV      R2,#+0
   \   0000000C   C034A0E3           MOV      R3,#-1073741824
   \   00000010   6C3783E3           ORR      R3,R3,#0x1B00000
   \   00000014   ........           _BLF     __dAdd,??__dAdd??rA
   \   00000018   ........           LDR      R2,??DataTable12  ;; radius
   \   0000001C   0C0092E8           LDM      R2,{R2,R3}
   \   00000020   ........           _BLF     __dDiv,??__dDiv??rA
   \   00000024   ........           LDR      R3,??DataTable14  ;; 0x40668000
   \   00000028   0020A0E3           MOV      R2,#+0
   \   0000002C   ........           _BLF     __dMul,??__dMul??rA
   \   00000030   ........           LDR      R2,??DataTable15  ;; 0x54411744
   \   00000034   ........           LDR      R3,??DataTable16  ;; 0x400921fb
   \   00000038   0040BDE8           POP      {LR}             ;; Pop
   \   0000003C   ........           _BF      __dDiv,??__dDiv??rA  ;; tailcall
    154          }
    155           

   \                                 In segment CODE, align 4, keep-with-next
    156          double YToL(double y)
    157          {
   \                     YToL:
   \   00000000   00402DE9           PUSH     {LR}
    158          	return (PI / 2 - 2 * atan(exp((round(y)-offset)/radius))) * 180 / PI;
   \   00000004   ........           BL       round
   \   00000008   0020A0E3           MOV      R2,#+0
   \   0000000C   C034A0E3           MOV      R3,#-1073741824
   \   00000010   6C3783E3           ORR      R3,R3,#0x1B00000
   \   00000014   ........           _BLF     __dAdd,??__dAdd??rA
   \   00000018   ........           LDR      R2,??DataTable12  ;; radius
   \   0000001C   0C0092E8           LDM      R2,{R2,R3}
   \   00000020   ........           _BLF     __dDiv,??__dDiv??rA
   \   00000024   ........           _BLF     exp,??exp??rA
   \   00000028   ........           _BLF     atan,??atan??rA
   \   0000002C   0020A0E3           MOV      R2,#+0
   \   00000030   4034A0E3           MOV      R3,#+1073741824
   \   00000034   ........           _BLF     __dMul,??__dMul??rA
   \   00000038   0020A0E1           MOV      R2,R0
   \   0000003C   ........           LDR      R0,??DataTable15  ;; 0x54411744
   \   00000040   0130A0E1           MOV      R3,R1
   \   00000044   1C109FE5           LDR      R1,??YToL_0      ;; 0x3ff921fb
   \   00000048   ........           _BLF     __dSub,??__dSub??rA
   \   0000004C   ........           LDR      R3,??DataTable14  ;; 0x40668000
   \   00000050   0020A0E3           MOV      R2,#+0
   \   00000054   ........           _BLF     __dMul,??__dMul??rA
   \   00000058   ........           LDR      R2,??DataTable15  ;; 0x54411744
   \   0000005C   ........           LDR      R3,??DataTable16  ;; 0x400921fb
   \   00000060   ........           _BLF     __dDiv,??__dDiv??rA
   \   00000064   0080BDE8           POP      {PC}             ;; return
   \                     ??YToL_0:
   \   00000068   FB21F93F           DC32     0x3ff921fb
    159          }

   \                                 In segment CODE, align 4, keep-with-next
   \                     ??DataTable12:
   \   00000000   ........           DC32     radius

   \                                 In segment CODE, align 4, keep-with-next
   \                     ??DataTable14:
   \   00000000   00806640           DC32     0x40668000

   \                                 In segment CODE, align 4, keep-with-next
   \                     ??DataTable15:
   \   00000000   44174154           DC32     0x54411744

   \                                 In segment CODE, align 4, keep-with-next
   \                     ??DataTable16:
   \   00000000   FB210940           DC32     0x400921fb

   \                                 In segment DATA_ID, align 4, align-sorted
   \                     `?<Initializer for radius>`:
   \   00000000   B948CC6D305F       DC32 6DCC48B9H, 41945F30H
   \              9441        

   \                                 In segment DATA_C, align 4, align-sorted
   \                     `?<Constant "Content-Lat:">`:
   \   00000000   436F6E74656E       DC8 "Content-Lat:"
   \              742D4C61743A
   \              00          
   \   0000000D   000000             DC8 0, 0, 0

   \                                 In segment DATA_C, align 4, align-sorted
   \                     `?<Constant "Content-Lon:">`:
   \   00000000   436F6E74656E       DC8 "Content-Lon:"
   \              742D4C6F6E3A
   \              00          
   \   0000000D   000000             DC8 0, 0, 0

   \                                 In segment DATA_C, align 4, align-sorted
   \                     `?<Constant "Content-Length:">`:
   \   00000000   436F6E74656E       DC8 "Content-Length:"
   \              742D4C656E67
   \              74683A00    

   \                                 In segment DATA_C, align 4, align-sorted
   \                     `?<Constant "%scache%f_%f\\\\">`:
   \   00000000   257363616368       DC8 "%scache%f_%f\\"
   \              6525665F2566
   \              5C00        
   \   0000000E   0000               DC8 0, 0

   \                                 In segment DATA_C, align 4, align-sorted
   \                     `?<Constant "%smap_%d_%d_%d_%d.png">`:
   \   00000000   25736D61705F       DC8 "%smap_%d_%d_%d_%d.png"
   \              25645F25645F
   \              25645F25642E
   \              706E6700    
   \   00000016   0000               DC8 0, 0

   \                                 In segment DATA_C, align 4, align-sorted
   \                     `?<Constant "%scache%f_%f\\\\map_%d_%...">`:
   \   00000000   257363616368       DC8 "%scache%f_%f\\map_%d_%d_%d_%d.png"
   \              6525665F2566
   \              5C6D61705F25
   \              645F25645F25
   \              645F25642E70
   \              6E6700      
   \   00000021   000000             DC8 0, 0, 0

   \                                 In segment DATA_C, align 4, align-sorted
   \                     `?<Constant "%s%s">`:
   \   00000000   2573257300         DC8 "%s%s"
   \   00000005   000000             DC8 0, 0, 0

   Maximum stack usage in bytes:

     Function            CSTACK
     --------            ------
     LToX                    4
     LToY                   20
     XToL                    4
     YToL                    4
     mktree                280
     round                  20
     save_image_in_cache    68


   Segment part sizes:

     Function/Label                 Bytes
     --------------                 -----
     radius                            8
     mktree                          136
     save_image_in_cache             928
     round                           100
     LToX                             64
     LToY                            208
     XToL                             64
     YToL                            108
     ??DataTable12                     4
     ??DataTable14                     4
     ??DataTable15                     4
     ??DataTable16                     4
     ?<Initializer for radius>         8
     ?<Constant "Content-Lat:">       16
     ?<Constant "Content-Lon:">       16
     ?<Constant "Content-Length:">    16
     ?<Constant "%scache%f_%f\\">     16
     ?<Constant "%smap_%d_%d_%d_%d.png">
                                      24
     ?<Constant "%scache%f_%f\\map_%d_%...">
                                      36
     ?<Constant "%s%s">                8
      Others                         268

 
 1 880 bytes in segment CODE
   132 bytes in segment DATA_C
     8 bytes in segment DATA_I
     8 bytes in segment DATA_ID
    12 bytes in segment INITTAB
 
 1 624 bytes of CODE  memory (+ 268 bytes shared)
   140 bytes of CONST memory
     8 bytes of DATA  memory

Errors: none
Warnings: none
