##############################################################################
#                                                                            #
# IAR ARM ANSI C/C++ Compiler V4.42A/W32 EVALUATION    31/Jul/2009  18:08:43 #
# Copyright 1999-2005 IAR Systems. All rights reserved.                      #
#                                                                            #
#    Cpu mode        =  interwork                                            #
#    Endian          =  little                                               #
#    Stack alignment =  4                                                    #
#    Source file     =  D:\programming\мои проекты\ArcanoidStudio\config.c   #
#    Command line    =  "D:\programming\мои проекты\ArcanoidStudio\config.c" #
#                        -D NEWSGOLD -D ELKA -lC "D:\programming\мои         #
#                       проекты\ArcanoidStudio\Release_ELKA\List\" -o        #
#                       "D:\programming\мои проекты\ArcanoidStudio\Release_E #
#                       LKA\Obj\" -s9 --cpu_mode arm --endian little --cpu   #
#                       ARM926EJ-S --stack_align 4 --interwork -e --fpu      #
#                       None --dlib_config "D:\Embedded Workbench 4.0        #
#                       Evaluation\ARM\LIB\dl5tpainl8n.h" -I "D:\Embedded    #
#                       Workbench 4.0 Evaluation\ARM\INC\"                   #
#                       --inline_threshold=2                                 #
#    List file       =  D:\programming\мои проекты\ArcanoidStudio\Release_EL #
#                       KA\List\config.lst                                   #
#    Object file     =  D:\programming\мои проекты\ArcanoidStudio\Release_EL #
#                       KA\Obj\config.r79                                    #
#                                                                            #
#                                                                            #
##############################################################################

D:\programming\мои проекты\ArcanoidStudio\config.c
      1          #include <swilib.h>
      2          #include "config.h"
      3          #include "engine.h"
      4          
      5          
      6          
      7          SAVE_DATA savedata;
      8          
      9          

   \                                 In segment CODE, align 4, keep-with-next
     10          void SetDefaultSettings()
     11          {
     12            savedata.difficulty = DIFF_NORMAL;
   \                     SetDefaultSettings:
   \   00000000   ........           LDR      R2,??DataTable4  ;; savedata
   \   00000004   00402DE9           PUSH     {LR}
   \   00000008   0100A0E3           MOV      R0,#+1
   \   0000000C   0000C2E5           STRB     R0,[R2, #+0]
     13            savedata.opened_levels = 1;
   \   00000010   0100C2E5           STRB     R0,[R2, #+1]
     14            savedata.recs_autosave = 1;
   \   00000014   0200C2E5           STRB     R0,[R2, #+2]
     15            savedata.SoundsEnable = 0;
   \   00000018   0000A0E3           MOV      R0,#+0
   \   0000001C   0300C2E5           STRB     R0,[R2, #+3]
     16            savedata.SndEnable = 0;
   \   00000020   0400C2E5           STRB     R0,[R2, #+4]
     17            savedata.StdSnd_user = 52;
   \   00000024   3410A0E3           MOV      R1,#+52
   \   00000028   B610C2E1           STRH     R1,[R2, #+6]
     18            savedata.StdSnd_brick = 53;
   \   0000002C   3510A0E3           MOV      R1,#+53
   \   00000030   B810C2E1           STRH     R1,[R2, #+8]
     19            savedata.VibraEnable = 0;
   \   00000034   0A00C2E5           STRB     R0,[R2, #+10]
     20            savedata.SndVolume = 2;
   \   00000038   0200A0E3           MOV      R0,#+2
   \   0000003C   0B00C2E5           STRB     R0,[R2, #+11]
     21            savedata.VibraVolume = 20;
   \   00000040   1400A0E3           MOV      R0,#+20
   \   00000044   0C00C2E5           STRB     R0,[R2, #+12]
     22            savedata.VibraCount = 15;
   \   00000048   0F00A0E3           MOV      R0,#+15
   \   0000004C   BE00C2E1           STRH     R0,[R2, #+14]
     23            savedata.tmr_speed = 9;
   \   00000050   0900A0E3           MOV      R0,#+9
   \   00000054   1000C2E5           STRB     R0,[R2, #+16]
     24            zeromem(savedata.recs,sizeof(RECORDS)*MAX_RECORDS);
   \   00000058   4A10A0E3           MOV      R1,#+74
   \   0000005C   401F81E3           ORR      R1,R1,#0x100
   \   00000060   110082E2           ADD      R0,R2,#+17
   \   00000064   1D0100EF           SWI      +285
     25          }
   \   00000068   0080BDE8           POP      {PC}             ;; return

   \                                 In segment DATA_Z, align 4, align-sorted
   \                     savedata:
   \   00000000                      DS8 348
   \   0000015C                      DS8 4
     26          
     27          static int f;

   \                                 In segment CODE, align 4, keep-with-next
     28          void saveSettings()
     29          {
   \                     saveSettings:
   \   00000000   30402DE9           PUSH     {R4,R5,LR}
     30            if((f=fopen("savedata.bin",A_WriteOnly+A_BIN+A_Create+A_Truncate,P_WRITE,0))!=-1)
   \   00000004   ........           LDR      R4,??DataTable3  ;; `?<Constant "\\355\\345 \\354\\356\\343\\363 \\361\\356`
   \   00000008   ........           LDR      R5,??DataTable4  ;; savedata
   \   0000000C   0030A0E3           MOV      R3,#+0
   \   00000010   402FA0E3           MOV      R2,#+256
   \   00000014   0110A0E3           MOV      R1,#+1
   \   00000018   831C81E3           ORR      R1,R1,#0x8300
   \   0000001C   200084E2           ADD      R0,R4,#+32
   \   00000020   ........           _BLF     fopen,??fopen??rA
   \   00000024   5C0185E5           STR      R0,[R5, #+348]
   \   00000028   010070E3           CMN      R0,#+1
   \   0000002C   0700000A           BEQ      ??saveSettings_0
     31            {
     32             fwrite(f,&savedata,sizeof(savedata),0);
   \   00000030   0030A0E3           MOV      R3,#+0
   \   00000034   572FA0E3           MOV      R2,#+348
   \   00000038   0510A0E1           MOV      R1,R5
   \   0000003C   0C0000EF           SWI      +12
     33             fclose(f,0);
   \   00000040   5C0195E5           LDR      R0,[R5, #+348]
   \   00000044   0010A0E3           MOV      R1,#+0
   \   00000048   0D0000EF           SWI      +13
   \   0000004C   3080BDE8           POP      {R4,R5,PC}
     34            }
     35            else 
     36            {
     37              ShowMSG(1,(int)"не могу сохранить настройки!");
   \                     ??saveSettings_0:
   \   00000050   0410A0E1           MOV      R1,R4
   \   00000054   0100A0E3           MOV      R0,#+1
   \   00000058   480100EF           SWI      +328
     38            }
     39          }
   \   0000005C   3080BDE8           POP      {R4,R5,PC}       ;; return
     40          

   \                                 In segment CODE, align 4, keep-with-next
     41          void loadSettings()
     42          {
   \                     loadSettings:
   \   00000000   30402DE9           PUSH     {R4,R5,LR}
     43            if((f=fopen("savedata.bin",A_ReadOnly+A_BIN,P_READ,0))!=-1)
   \   00000004   ........           LDR      R4,??DataTable3  ;; `?<Constant "\\355\\345 \\354\\356\\343\\363 \\361\\356`
   \   00000008   ........           LDR      R5,??DataTable4  ;; savedata
   \   0000000C   0030A0E3           MOV      R3,#+0
   \   00000010   8020A0E3           MOV      R2,#+128
   \   00000014   801CA0E3           MOV      R1,#+32768
   \   00000018   200084E2           ADD      R0,R4,#+32
   \   0000001C   ........           _BLF     fopen,??fopen??rA
   \   00000020   5C0185E5           STR      R0,[R5, #+348]
   \   00000024   010070E3           CMN      R0,#+1
   \   00000028   0700000A           BEQ      ??loadSettings_0
     44            {
     45              fread(f,&savedata,sizeof(savedata),0);
   \   0000002C   0030A0E3           MOV      R3,#+0
   \   00000030   572FA0E3           MOV      R2,#+348
   \   00000034   0510A0E1           MOV      R1,R5
   \   00000038   0B0000EF           SWI      +11
     46              fclose(f,0);
   \   0000003C   5C0195E5           LDR      R0,[R5, #+348]
   \   00000040   0010A0E3           MOV      R1,#+0
   \   00000044   0D0000EF           SWI      +13
   \   00000048   3080BDE8           POP      {R4,R5,PC}
     47            }
     48            else
     49            {
     50              ShowMSG(1,(int)"не могу загрузить настройки!");
   \                     ??loadSettings_0:
   \   0000004C   301084E2           ADD      R1,R4,#+48
   \   00000050   0100A0E3           MOV      R0,#+1
   \   00000054   480100EF           SWI      +328
     51              SetDefaultSettings();
   \   00000058   ........           BL       SetDefaultSettings
     52              saveSettings();
   \   0000005C   ........           BL       saveSettings
     53            }
     54          }
   \   00000060   3080BDE8           POP      {R4,R5,PC}       ;; return

   \                                 In segment CODE, align 4, keep-with-next
   \                     ??DataTable3:
   \   00000000   ........           DC32     `?<Constant "\\355\\345 \\354\\356\\343\\363 \\361\\356`

   \                                 In segment CODE, align 4, keep-with-next
   \                     ??DataTable4:
   \   00000000   ........           DC32     savedata

   \                                 In segment DATA_C, align 4, align-sorted
   \                     `?<Constant "\\355\\345 \\354\\356\\343\\363 \\361\\356`:
   \   00000000   EDE520ECEEE3       DC8 "\355\345 \354\356\343\363 \361\356\365\360\340\355\350\362\374 \355\340\361\362\360\356\351\352\350!"
   \              F320F1EEF5F0
   \              E0EDE8F2FC20
   \              EDE0F1F2F0EE
   \              E9EAE82100  
   \   0000001D   000000             DC8 0, 0, 0
   \   00000020   736176656461       DC8 "savedata.bin"
   \              74612E62696E
   \              00          
   \   0000002D   000000             DC8 0, 0, 0
   \   00000030   EDE520ECEEE3       DC8 "\355\345 \354\356\343\363 \347\340\343\360\363\347\350\362\374 \355\340\361\362\360\356\351\352\350!"
   \              F320E7E0E3F0
   \              F3E7E8F2FC20
   \              EDE0F1F2F0EE
   \              E9EAE82100  
   \   0000004D   000000             DC8 0, 0, 0
     55          
     56          
     57          

   Maximum stack usage in bytes:

     Function           CSTACK
     --------           ------
     SetDefaultSettings     4
     loadSettings          12
     saveSettings          12


   Segment part sizes:

     Function/Label                 Bytes
     --------------                 -----
     SetDefaultSettings              108
     savedata                        352
     saveSettings                     96
     loadSettings                    100
     ??DataTable3                      4
     ??DataTable4                      4
     ?<Constant "\355\345 \354\356\343\363 \361\356
                                      80
      Others                          36

 
 336 bytes in segment CODE
  80 bytes in segment DATA_C
 352 bytes in segment DATA_Z
  12 bytes in segment INITTAB
 
 312 bytes of CODE  memory (+ 36 bytes shared)
  80 bytes of CONST memory
 352 bytes of DATA  memory

Errors: none
Warnings: none
