################################################################################
#                                                                              #
#      IAR Universal Linker V4.60I/386                                         #
#                                                                              #
#           Link time     =  04/Jun/2011  02:32:06                             #
#           Target CPU    =  ARM                                               #
#           List file     =  C:\arm\elfloader\E71sw45\List\ELFLoader.map       #
#           Output file 1 =  C:\arm\elfloader\E71sw45\Exe\ELFLoader.elf        #
#                            Format: elf, variant: -yas                        #
#           Output file 2 =  C:\arm\elfloader\E71sw45\Exe\ELFLoader.hex        #
#                            Format: intel-extended                            #
#           Command line  =  C:\arm\elfloader\E71sw45\Obj\ESI.r79              #
#                            C:\arm\elfloader\E71sw45\Obj\EXT2.r79             #
#                            C:\arm\elfloader\E71sw45\Obj\FSWI.r79             #
#                            C:\arm\elfloader\E71sw45\Obj\IMB.r79              #
#                            C:\arm\elfloader\E71sw45\Obj\conf_loader.r79      #
#                            C:\arm\elfloader\E71sw45\Obj\config_data.r79      #
#                            C:\arm\elfloader\E71sw45\Obj\elfloader.r79        #
#                            C:\arm\elfloader\E71sw45\Obj\png.r79              #
#                            C:\arm\elfloader\E71sw45\Obj\rets_E71sw45.r79     #
#                            -o C:\arm\elfloader\E71sw45\Exe\ELFLoader.hex     #
#                            -Fintel-extended -l                               #
#                            C:\arm\elfloader\E71sw45\List\ELFLoader.map       #
#                            -xmsnio -f C:\arm\elfloader\E71sw45.xcl (-carm    #
#                            -Z(CODE)START,CODE,SWITAB,INITTAB,DATA_ID,CONFIG_ #
#                            DATA_ID,DATA_C=A1324000-A1328000                  #
#                            -Z(DATA)CONFIG_DATA_I,DATA_N=A8D9F178-A8D9FAD7    #
#                            -Z(CODE)PATCH_ONCREATE=A084B698-A084B69B          #
#                            -Z(CODE)PATCH_ONCLOSE=A084B6AC-A084B6AF           #
#                            -Z(CODE)PATCH_ESI1=A08D5FF4-A08D5FF7              #
#                            -Z(CODE)PATCH_ESI2=A08D6004-A08D6007              #
#                            -Z(CODE)PATCH_SHOWMSG_BLF=A07F9600-A07F9603       #
#                            -Z(CODE)PATCH_NO_BROWSE_TXT=A06C697A-A06C697D     #
#                            -Z(CODE)SWILIB_FUNC171=A13205C4-A13205C7          #
#                            -Z(CODE)SWILIB_FUNC172=A13205C8-A13205CB          #
#                            -Z(CODE)SWILIB_FUNC19C=A1320670-A1320673          #
#                            -Z(CODE)SWILIB_FUNC1B8_1BB=A13206E0-A13206EF      #
#                            -Z(CODE)SWILIB_FUNC1E9=A13207A4-A13207A7          #
#                            -Z(CODE)SWILIB_FUNC2DF=A1320F54-A1320F57          #
#                            -Z(DATA)REGEXPL_CNT=A8D9F174-A8D9F177             #
#                            -Z(CODE)PATCH_EXT2_R7=A0502A78-A0502A7B           #
#                            -Z(CODE)PATCH_EXT2_R6=A0502C5C-A0502C5F           #
#                            -Z(CODE)PATCH_EXT2_R7_1=A05026AC-A05026AF         #
#                            -Z(CODE)PATCH_EXT2_R2=A0502830-A0502833           #
#                            -Z(CODE)PATCH_EXT2_IMPL=A0502AFC-A0502B1F         #
#                            -Z(CODE)PATCH_ENABLE_ALTOPEN=A071CDD4-A071CDD7    #
#                            -Z(CODE)PATCH_GET_PIT=A094CE9A-A094CE9D           #
#                            -Z(CODE)PATCH_GET_PITJ=A094CEA0-A094CEA3          #
#                            -Z(CODE)FSWI_PATCH1=A12D1414-A12D1417             #
#                            -Z(CODE)FSWI_PATCH2=A12D1328-A12D132B             #
#                            -Z(CODE)LIBR=A1320000-A1323FFF)                   #
#                            -Oelf,as=C:\arm\elfloader\E71sw45\Exe\ELFLoader.e #
#                            lf                                                #
#                                                                              #
#                        Copyright 1987-2007 IAR Systems. All rights reserved. #
################################################################################





                ****************************************
                *                                      *
                *           CROSS REFERENCE            *
                *                                      *
                ****************************************

                  There are no program entries.




                ****************************************
                *                                      *
                *            RUNTIME MODEL             *
                *                                      *
                ****************************************

  StackAlign4  = USED
  __cpu_mode   = __pcs__interwork
  __data_model = absolute
  __endian     = little
  __rt_version = 6



                ****************************************
                *                                      *
                *              MODULE MAP              *
                *                                      *
                ****************************************


  DEFINED ABSOLUTE ENTRIES
    *************************************************************************

  FILE NAME : C:\arm\elfloader\E71sw45\Obj\ESI.r79
  PROGRAM MODULE, NAME : ESI

  SEGMENTS IN THE MODULE
  ======================
CODE
  Relative segment, address: A1324000 - A1324003 (0x4 bytes), align: 2
  Segment part 0. ROOT.
           ENTRY                   ADDRESS         REF BY
           =====                   =======         ======
           BXR1                    A1324000        MyIDLECSMonClose (elfloader)
                                                   MyIDLECSMonCreate (elfloader)
                                                   Segment part 81 (elfloader)
    -------------------------------------------------------------------------
PATCH_NO_BROWSE_TXT
  Relative segment, address: A06C697A - A06C697B (0x2 bytes), align: 1
  Segment part 1. ROOT.
    -------------------------------------------------------------------------
PATCH_ESI1
  Relative segment, address: A08D5FF4 - A08D5FF7 (0x4 bytes), align: 2
  Segment part 2. ROOT.
    -------------------------------------------------------------------------
PATCH_ESI2
  Relative segment, address: A08D6004 - A08D6007 (0x4 bytes), align: 2
  Segment part 3. ROOT.       Intra module refs:   Segment part 2
    -------------------------------------------------------------------------
CODE
  Relative segment, address: A1324004 - A132400F (0xc bytes), align: 2
  Segment part 4. ROOT.       Intra module refs:   Segment part 3
    -------------------------------------------------------------------------
PATCH_GET_PIT
  Relative segment, address: A094CE9A - A094CE9D (0x4 bytes), align: 1
  Segment part 5. ROOT.
    -------------------------------------------------------------------------
PATCH_GET_PITJ
  Relative segment, address: A094CEA0 - A094CEA3 (0x4 bytes), align: 2
  Segment part 6. ROOT.       Intra module refs:   Segment part 5
    -------------------------------------------------------------------------
CODE
  Relative segment, address: A1324010 - A132404B (0x3c bytes), align: 2
  Segment part 7. ROOT.       Intra module refs:   Segment part 6

    *************************************************************************

  FILE NAME : C:\arm\elfloader\E71sw45\Obj\EXT2.r79
  PROGRAM MODULE, NAME : EXT2

  SEGMENTS IN THE MODULE
  ======================
PATCH_ENABLE_ALTOPEN
  Relative segment, address: A071CDD4 - A071CDD7 (0x4 bytes), align: 2
  Segment part 0. ROOT.
    -------------------------------------------------------------------------
PATCH_EXT2_R7
  Relative segment, address: A0502A78 - A0502A7B (0x4 bytes), align: 2
  Segment part 1. ROOT.
    -------------------------------------------------------------------------
PATCH_EXT2_R6
  Relative segment, address: A0502C5C - A0502C5F (0x4 bytes), align: 2
  Segment part 2. ROOT.
    -------------------------------------------------------------------------
PATCH_EXT2_R7_1
  Relative segment, address: A05026AC - A05026AF (0x4 bytes), align: 2
  Segment part 3. ROOT.
    -------------------------------------------------------------------------
PATCH_EXT2_R2
  Relative segment, address: A0502830 - A0502833 (0x4 bytes), align: 2
  Segment part 4. ROOT.
    -------------------------------------------------------------------------
CODE
  Relative segment, address: A132404C - A1324073 (0x28 bytes), align: 2
  Segment part 5.             Intra module refs:   Segment part 1
                                                   Segment part 2
                                                   Segment part 3
                                                   Segment part 4
    -------------------------------------------------------------------------
PATCH_EXT2_IMPL
  Relative segment, address: A0502AFC - A0502B1F (0x24 bytes), align: 2
  Segment part 6. ROOT.

    *************************************************************************

  FILE NAME : C:\arm\elfloader\E71sw45\Obj\FSWI.r79
  PROGRAM MODULE, NAME : FSWI

  SEGMENTS IN THE MODULE
  ======================
FSWI_PATCH1
  Relative segment, address: A12D1414 - A12D1417 (0x4 bytes), align: 2
  Segment part 0. ROOT.
    -------------------------------------------------------------------------
FSWI_PATCH2
  Relative segment, address: A12D1328 - A12D132B (0x4 bytes), align: 2
  Segment part 1. ROOT.       Intra module refs:   Segment part 0
    -------------------------------------------------------------------------
CODE
  Relative segment, address: A1324074 - A13240FF (0x8c bytes), align: 2
  Segment part 2. ROOT.       Intra module refs:   Segment part 1
    -------------------------------------------------------------------------
LIBR
  Relative segment, address: A1320000, align: 2
  Segment part 3. ROOT.       Intra module refs:   Segment part 2
           ENTRY                   ADDRESS         REF BY
           =====                   =======         ======
           Library                 A1320000        LoadLibrary (elfloader)

    *************************************************************************

  FILE NAME : C:\arm\elfloader\E71sw45\Obj\IMB.r79
  PROGRAM MODULE, NAME : IMB

  SEGMENTS IN THE MODULE
  ======================
CODE
  Relative segment, address: A1324100 - A132416B (0x6c bytes), align: 2
  Segment part 0. ROOT.
           ENTRY                   ADDRESS         REF BY
           =====                   =======         ======
           ExecuteIMB              A1324100        ExecuteIMB::??rT (elfloader)
                                                   elfload (elfloader)

    *************************************************************************

  FILE NAME : C:\arm\elfloader\E71sw45\Obj\conf_loader.r79
  PROGRAM MODULE, NAME : conf_loader

  SEGMENTS IN THE MODULE
  ======================
DATA_N
  Relative segment, address: A8D9F740 - A8D9F743 (0x4 bytes), align: 2
  Segment part 2.             Intra module refs:   LoadConfigData
           ENTRY                   ADDRESS         REF BY
           =====                   =======         ======
           successed_config_filename
                                   A8D9F740 
    -------------------------------------------------------------------------
CODE
  Relative segment, address: A132416C - A132416F (0x4 bytes), align: 2
  Segment part 3.
           ENTRY                   ADDRESS         REF BY
           =====                   =======         ======
           LoadConfigData::??rT    A132416D 
    -------------------------------------------------------------------------
CODE
  Relative segment, address: A1324170 - A132428F (0x120 bytes), align: 2
  Segment part 4.             Intra module refs:   LoadConfigData::??rT
           ENTRY                   ADDRESS         REF BY
           =====                   =======         ======
           LoadConfigData          A1324170        start (elfloader)
               stack 1 = 00000000 ( 00000030 )
    -------------------------------------------------------------------------
CSTACK
  Segment part 1. NOT NEEDED.
    -------------------------------------------------------------------------
CONFIG_DATA_I
  Segment part 5. NOT NEEDED.
    -------------------------------------------------------------------------
CONFIG_DATA_ID
  Segment part 6. NOT NEEDED.

    *************************************************************************

  FILE NAME : C:\arm\elfloader\E71sw45\Obj\config_data.r79
  PROGRAM MODULE, NAME : config_data

  SEGMENTS IN THE MODULE
  ======================
CONFIG_DATA_I
  Relative segment, address: A8D9F178 - A8D9F1A3 (0x2c bytes), align: 2
  Segment part 2. ROOT.
           ENTRY                   ADDRESS         REF BY
           =====                   =======         ======
           cfghdr_m11              A8D9F178 
    -------------------------------------------------------------------------
CONFIG_DATA_I
  Relative segment, address: A8D9F1A4 - A8D9F1CF (0x2c bytes), align: 2
  Segment part 4. ROOT.
           ENTRY                   ADDRESS         REF BY
           =====                   =======         ======
           cfghdr1_1               A8D9F1A4 
    -------------------------------------------------------------------------
CONFIG_DATA_I
  Relative segment, address: A8D9F1D0 - A8D9F2CF (0x100 bytes), align: 2
  Segment part 6. ROOT.
           ENTRY                   ADDRESS         REF BY
           =====                   =======         ======
           folder_d                A8D9F1D0        LoadDaemons (elfloader)
    -------------------------------------------------------------------------
CONFIG_DATA_I
  Relative segment, address: A8D9F2D0 - A8D9F2FB (0x2c bytes), align: 2
  Segment part 8. ROOT.
           ENTRY                   ADDRESS         REF BY
           =====                   =======         ======
           cfghdr2_22              A8D9F2D0 
    -------------------------------------------------------------------------
CONFIG_DATA_I
  Relative segment, address: A8D9F2FC - A8D9F2FF (0x4 bytes), align: 2
  Segment part 10. ROOT.
           ENTRY                   ADDRESS         REF BY
           =====                   =======         ======
           subproc                 A8D9F2FC        loading (elfloader)
    -------------------------------------------------------------------------
CONFIG_DATA_I
  Relative segment, address: A8D9F300 - A8D9F32B (0x2c bytes), align: 2
  Segment part 12. ROOT.
           ENTRY                   ADDRESS         REF BY
           =====                   =======         ======
           cfghdr1_2               A8D9F300 
    -------------------------------------------------------------------------
CONFIG_DATA_I
  Relative segment, address: A8D9F32C - A8D9F32F (0x4 bytes), align: 2
  Segment part 14. ROOT.
           ENTRY                   ADDRESS         REF BY
           =====                   =======         ======
           key_break               A8D9F32C        loading (elfloader)
    -------------------------------------------------------------------------
CONFIG_DATA_I
  Relative segment, address: A8D9F330 - A8D9F35B (0x2c bytes), align: 2
  Segment part 16. ROOT.
           ENTRY                   ADDRESS         REF BY
           =====                   =======         ======
           cfghdr_m10              A8D9F330 
    -------------------------------------------------------------------------
CONFIG_DATA_I
  Relative segment, address: A8D9F35C - A8D9F387 (0x2c bytes), align: 2
  Segment part 18. ROOT.
           ENTRY                   ADDRESS         REF BY
           =====                   =======         ======
           cfghdr_m21              A8D9F35C 
    -------------------------------------------------------------------------
CONFIG_DATA_I
  Relative segment, address: A8D9F388 - A8D9F3B3 (0x2c bytes), align: 2
  Segment part 20. ROOT.
           ENTRY                   ADDRESS         REF BY
           =====                   =======         ======
           cfghdr2_1               A8D9F388 
    -------------------------------------------------------------------------
CONFIG_DATA_I
  Relative segment, address: A8D9F3B4 - A8D9F3F3 (0x40 bytes), align: 2
  Segment part 22. ROOT.
           ENTRY                   ADDRESS         REF BY
           =====                   =======         ======
           swi_blib                A8D9F3B4        LoadLibrary (elfloader)
    -------------------------------------------------------------------------
CONFIG_DATA_I
  Relative segment, address: A8D9F3F4 - A8D9F41F (0x2c bytes), align: 2
  Segment part 24. ROOT.
           ENTRY                   ADDRESS         REF BY
           =====                   =======         ======
           cfghdr2_2               A8D9F3F4 
    -------------------------------------------------------------------------
CONFIG_DATA_I
  Relative segment, address: A8D9F420 - A8D9F423 (0x4 bytes), align: 2
  Segment part 26. ROOT.
           ENTRY                   ADDRESS         REF BY
           =====                   =======         ======
           load_blib               A8D9F420        loading (elfloader)
    -------------------------------------------------------------------------
CONFIG_DATA_I
  Relative segment, address: A8D9F424 - A8D9F44F (0x2c bytes), align: 2
  Segment part 28. ROOT.
           ENTRY                   ADDRESS         REF BY
           =====                   =======         ======
           cfghdr2_3               A8D9F424 
    -------------------------------------------------------------------------
CONFIG_DATA_I
  Relative segment, address: A8D9F450 - A8D9F453 (0x4 bytes), align: 2
  Segment part 30. ROOT.
           ENTRY                   ADDRESS         REF BY
           =====                   =======         ======
           msg_conf                A8D9F450        LoadLibrary (elfloader)
    -------------------------------------------------------------------------
CONFIG_DATA_I
  Relative segment, address: A8D9F454 - A8D9F47F (0x2c bytes), align: 2
  Segment part 32. ROOT.
           ENTRY                   ADDRESS         REF BY
           =====                   =======         ======
           cfghdr2_4               A8D9F454 
    -------------------------------------------------------------------------
CONFIG_DATA_I
  Relative segment, address: A8D9F480 - A8D9F483 (0x4 bytes), align: 2
  Segment part 34. ROOT.
           ENTRY                   ADDRESS         REF BY
           =====                   =======         ======
           msg_missed              A8D9F480        NO_FUNC (elfloader)
    -------------------------------------------------------------------------
CONFIG_DATA_I
  Relative segment, address: A8D9F484 - A8D9F4AF (0x2c bytes), align: 2
  Segment part 36. ROOT.
           ENTRY                   ADDRESS         REF BY
           =====                   =======         ======
           cfghdr_m20              A8D9F484 
    -------------------------------------------------------------------------
CONFIG_DATA_I
  Relative segment, address: A8D9F4B0 - A8D9F4DB (0x2c bytes), align: 2
  Segment part 38. ROOT.
           ENTRY                   ADDRESS         REF BY
           =====                   =======         ======
           cfghdr_m31              A8D9F4B0 
    -------------------------------------------------------------------------
CONFIG_DATA_I
  Relative segment, address: A8D9F4DC - A8D9F507 (0x2c bytes), align: 2
  Segment part 40. ROOT.
           ENTRY                   ADDRESS         REF BY
           =====                   =======         ======
           cfghdr3_1               A8D9F4DC 
    -------------------------------------------------------------------------
CONFIG_DATA_I
  Relative segment, address: A8D9F508 - A8D9F587 (0x80 bytes), align: 2
  Segment part 42. ROOT.
           ENTRY                   ADDRESS         REF BY
           =====                   =======         ======
           folder_i                A8D9F508        PatchGetPIT (png)
    -------------------------------------------------------------------------
CONFIG_DATA_I
  Relative segment, address: A8D9F588 - A8D9F5B3 (0x2c bytes), align: 2
  Segment part 44. ROOT.
           ENTRY                   ADDRESS         REF BY
           =====                   =======         ======
           cfghdr3_2               A8D9F588 
    -------------------------------------------------------------------------
CONFIG_DATA_I
  Relative segment, address: A8D9F5B4 - A8D9F5B7 (0x4 bytes), align: 2
  Segment part 46. ROOT.
           ENTRY                   ADDRESS         REF BY
           =====                   =======         ======
           png_load                A8D9F5B4        loading (elfloader)
    -------------------------------------------------------------------------
CONFIG_DATA_I
  Relative segment, address: A8D9F5B8 - A8D9F5E3 (0x2c bytes), align: 2
  Segment part 48. ROOT.
           ENTRY                   ADDRESS         REF BY
           =====                   =======         ======
           cfghdr3_4               A8D9F5B8 
    -------------------------------------------------------------------------
CONFIG_DATA_I
  Relative segment, address: A8D9F5E4 - A8D9F623 (0x40 bytes), align: 2
  Segment part 50. ROOT.
           ENTRY                   ADDRESS         REF BY
           =====                   =======         ======
           folder_e                A8D9F5E4        loading (elfloader)
    -------------------------------------------------------------------------
CONFIG_DATA_I
  Relative segment, address: A8D9F624 - A8D9F64F (0x2c bytes), align: 2
  Segment part 52. ROOT.
           ENTRY                   ADDRESS         REF BY
           =====                   =======         ======
           cfghdr5                 A8D9F624 
    -------------------------------------------------------------------------
CONFIG_DATA_I
  Relative segment, address: A8D9F650 - A8D9F653 (0x4 bytes), align: 2
  Segment part 54. ROOT.
           ENTRY                   ADDRESS         REF BY
           =====                   =======         ======
           ALPHA_THRESHOLD         A8D9F650        create_imghdr (png)
    -------------------------------------------------------------------------
CONFIG_DATA_I
  Relative segment, address: A8D9F654 - A8D9F67F (0x2c bytes), align: 2
  Segment part 56. ROOT.
           ENTRY                   ADDRESS         REF BY
           =====                   =======         ======
           cfghdr6                 A8D9F654 
    -------------------------------------------------------------------------
CONFIG_DATA_I
  Relative segment, address: A8D9F680 - A8D9F683 (0x4 bytes), align: 2
  Segment part 58. ROOT.
           ENTRY                   ADDRESS         REF BY
           =====                   =======         ======
           CACHE_PNG               A8D9F680        PatchGetPIT (png)
    -------------------------------------------------------------------------
CONFIG_DATA_I
  Relative segment, address: A8D9F684 - A8D9F6AF (0x2c bytes), align: 2
  Segment part 60. ROOT.
           ENTRY                   ADDRESS         REF BY
           =====                   =======         ======
           cfghdr7                 A8D9F684 
    -------------------------------------------------------------------------
CONFIG_DATA_I
  Relative segment, address: A8D9F6B0 - A8D9F6B3 (0x4 bytes), align: 2
  Segment part 62. ROOT.
           ENTRY                   ADDRESS         REF BY
           =====                   =======         ======
           DEFAULT_COLOR           A8D9F6B0        create_imghdr (png)
    -------------------------------------------------------------------------
CONFIG_DATA_I
  Relative segment, address: A8D9F6B4 - A8D9F713 (0x60 bytes), align: 2
  Segment part 64. ROOT.
           ENTRY                   ADDRESS         REF BY
           =====                   =======         ======
           cfgcbox7_1              A8D9F6B4 
    -------------------------------------------------------------------------
CONFIG_DATA_I
  Relative segment, address: A8D9F714 - A8D9F73F (0x2c bytes), align: 2
  Segment part 66. ROOT.
           ENTRY                   ADDRESS         REF BY
           =====                   =======         ======
           cfghdr_m30              A8D9F714 
    -------------------------------------------------------------------------
CSTACK
  Segment part 1. NOT NEEDED.
    -------------------------------------------------------------------------
CONFIG_DATA_ID
  Relative segment, address: A132579C - A13257C7 (0x2c bytes), align: 2
  Segment part 3. ROOT.       Intra module refs:   cfghdr_m11
    -------------------------------------------------------------------------
CONFIG_DATA_ID
  Relative segment, address: A13257C8 - A13257F3 (0x2c bytes), align: 2
  Segment part 5. ROOT.       Intra module refs:   cfghdr1_1
    -------------------------------------------------------------------------
CONFIG_DATA_ID
  Relative segment, address: A13257F4 - A13258F3 (0x100 bytes), align: 2
  Segment part 7. ROOT.       Intra module refs:   folder_d
    -------------------------------------------------------------------------
CONFIG_DATA_ID
  Relative segment, address: A13258F4 - A132591F (0x2c bytes), align: 2
  Segment part 9. ROOT.       Intra module refs:   cfghdr2_22
    -------------------------------------------------------------------------
CONFIG_DATA_ID
  Relative segment, address: A1325920 - A1325923 (0x4 bytes), align: 2
  Segment part 11. ROOT.      Intra module refs:   subproc
    -------------------------------------------------------------------------
CONFIG_DATA_ID
  Relative segment, address: A1325924 - A132594F (0x2c bytes), align: 2
  Segment part 13. ROOT.      Intra module refs:   cfghdr1_2
    -------------------------------------------------------------------------
CONFIG_DATA_ID
  Relative segment, address: A1325950 - A1325953 (0x4 bytes), align: 2
  Segment part 15. ROOT.      Intra module refs:   key_break
    -------------------------------------------------------------------------
CONFIG_DATA_ID
  Relative segment, address: A1325954 - A132597F (0x2c bytes), align: 2
  Segment part 17. ROOT.      Intra module refs:   cfghdr_m10
    -------------------------------------------------------------------------
CONFIG_DATA_ID
  Relative segment, address: A1325980 - A13259AB (0x2c bytes), align: 2
  Segment part 19. ROOT.      Intra module refs:   cfghdr_m21
    -------------------------------------------------------------------------
CONFIG_DATA_ID
  Relative segment, address: A13259AC - A13259D7 (0x2c bytes), align: 2
  Segment part 21. ROOT.      Intra module refs:   cfghdr2_1
    -------------------------------------------------------------------------
CONFIG_DATA_ID
  Relative segment, address: A13259D8 - A1325A17 (0x40 bytes), align: 2
  Segment part 23. ROOT.      Intra module refs:   swi_blib
    -------------------------------------------------------------------------
CONFIG_DATA_ID
  Relative segment, address: A1325A18 - A1325A43 (0x2c bytes), align: 2
  Segment part 25. ROOT.      Intra module refs:   cfghdr2_2
    -------------------------------------------------------------------------
CONFIG_DATA_ID
  Relative segment, address: A1325A44 - A1325A47 (0x4 bytes), align: 2
  Segment part 27. ROOT.      Intra module refs:   load_blib
    -------------------------------------------------------------------------
CONFIG_DATA_ID
  Relative segment, address: A1325A48 - A1325A73 (0x2c bytes), align: 2
  Segment part 29. ROOT.      Intra module refs:   cfghdr2_3
    -------------------------------------------------------------------------
CONFIG_DATA_ID
  Relative segment, address: A1325A74 - A1325A77 (0x4 bytes), align: 2
  Segment part 31. ROOT.      Intra module refs:   msg_conf
    -------------------------------------------------------------------------
CONFIG_DATA_ID
  Relative segment, address: A1325A78 - A1325AA3 (0x2c bytes), align: 2
  Segment part 33. ROOT.      Intra module refs:   cfghdr2_4
    -------------------------------------------------------------------------
CONFIG_DATA_ID
  Relative segment, address: A1325AA4 - A1325AA7 (0x4 bytes), align: 2
  Segment part 35. ROOT.      Intra module refs:   msg_missed
    -------------------------------------------------------------------------
CONFIG_DATA_ID
  Relative segment, address: A1325AA8 - A1325AD3 (0x2c bytes), align: 2
  Segment part 37. ROOT.      Intra module refs:   cfghdr_m20
    -------------------------------------------------------------------------
CONFIG_DATA_ID
  Relative segment, address: A1325AD4 - A1325AFF (0x2c bytes), align: 2
  Segment part 39. ROOT.      Intra module refs:   cfghdr_m31
    -------------------------------------------------------------------------
CONFIG_DATA_ID
  Relative segment, address: A1325B00 - A1325B2B (0x2c bytes), align: 2
  Segment part 41. ROOT.      Intra module refs:   cfghdr3_1
    -------------------------------------------------------------------------
CONFIG_DATA_ID
  Relative segment, address: A1325B2C - A1325BAB (0x80 bytes), align: 2
  Segment part 43. ROOT.      Intra module refs:   folder_i
    -------------------------------------------------------------------------
CONFIG_DATA_ID
  Relative segment, address: A1325BAC - A1325BD7 (0x2c bytes), align: 2
  Segment part 45. ROOT.      Intra module refs:   cfghdr3_2
    -------------------------------------------------------------------------
CONFIG_DATA_ID
  Relative segment, address: A1325BD8 - A1325BDB (0x4 bytes), align: 2
  Segment part 47. ROOT.      Intra module refs:   png_load
    -------------------------------------------------------------------------
CONFIG_DATA_ID
  Relative segment, address: A1325BDC - A1325C07 (0x2c bytes), align: 2
  Segment part 49. ROOT.      Intra module refs:   cfghdr3_4
    -------------------------------------------------------------------------
CONFIG_DATA_ID
  Relative segment, address: A1325C08 - A1325C47 (0x40 bytes), align: 2
  Segment part 51. ROOT.      Intra module refs:   folder_e
    -------------------------------------------------------------------------
CONFIG_DATA_ID
  Relative segment, address: A1325C48 - A1325C73 (0x2c bytes), align: 2
  Segment part 53. ROOT.      Intra module refs:   cfghdr5
    -------------------------------------------------------------------------
CONFIG_DATA_ID
  Relative segment, address: A1325C74 - A1325C77 (0x4 bytes), align: 2
  Segment part 55. ROOT.      Intra module refs:   ALPHA_THRESHOLD
    -------------------------------------------------------------------------
CONFIG_DATA_ID
  Relative segment, address: A1325C78 - A1325CA3 (0x2c bytes), align: 2
  Segment part 57. ROOT.      Intra module refs:   cfghdr6
    -------------------------------------------------------------------------
CONFIG_DATA_ID
  Relative segment, address: A1325CA4 - A1325CA7 (0x4 bytes), align: 2
  Segment part 59. ROOT.      Intra module refs:   CACHE_PNG
    -------------------------------------------------------------------------
CONFIG_DATA_ID
  Relative segment, address: A1325CA8 - A1325CD3 (0x2c bytes), align: 2
  Segment part 61. ROOT.      Intra module refs:   cfghdr7
    -------------------------------------------------------------------------
CONFIG_DATA_ID
  Relative segment, address: A1325CD4 - A1325CD7 (0x4 bytes), align: 2
  Segment part 63. ROOT.      Intra module refs:   DEFAULT_COLOR
    -------------------------------------------------------------------------
CONFIG_DATA_ID
  Relative segment, address: A1325CD8 - A1325D37 (0x60 bytes), align: 2
  Segment part 65. ROOT.      Intra module refs:   cfgcbox7_1
    -------------------------------------------------------------------------
CONFIG_DATA_ID
  Relative segment, address: A1325D38 - A1325D63 (0x2c bytes), align: 2
  Segment part 67. ROOT.      Intra module refs:   cfghdr_m30
    -------------------------------------------------------------------------
CONFIG_DATA_ID
  Segment part 68. NOT NEEDED.
           ENTRY                   ADDRESS         REF BY
           =====                   =======         ======
           ?*?CONFIG_DATA_ID       
    -------------------------------------------------------------------------
INITTAB
  Relative segment, address: A1325790 - A132579B (0xc bytes), align: 2
  Segment part 69. ROOT.
           ENTRY                   ADDRESS         REF BY
           =====                   =======         ======
           ?init?tab?CONFIG_DATA_I
                                   A1325790 

    *************************************************************************

  FILE NAME : C:\arm\elfloader\E71sw45\Obj\elfloader.r79
  PROGRAM MODULE, NAME : elfloader

  SEGMENTS IN THE MODULE
  ======================
CODE
  Segment part 28. NOT NEEDED.
    -------------------------------------------------------------------------
CODE
  Relative segment, address: A1324290 - A132429B (0xc bytes), align: 2
  Segment part 29.            Intra module refs:   elfload
           ENTRY                   ADDRESS         REF BY
           =====                   =======         ======
           zeromem_a               A1324290 
               stack 1 = 00000000 ( 00000004 )
    -------------------------------------------------------------------------
CODE
  Segment part 30. NOT NEEDED.
    -------------------------------------------------------------------------
CODE
  Relative segment, address: A132429C - A1324557 (0x2bc bytes), align: 2
  Segment part 31.            Intra module refs:   LoadDaemons
                                                   elfloader_onload
           ENTRY                   ADDRESS         REF BY
           =====                   =======         ======
           elfload                 A132429D 
               stack 1 = 00000000 ( 00000224 )
    -------------------------------------------------------------------------
CODE
  Segment part 32. NOT NEEDED.
    -------------------------------------------------------------------------
CODE
  Relative segment, address: A1324558 - A132457F (0x28 bytes), align: 2
  Segment part 33.            Intra module refs:   Segment part 2
           ENTRY                   ADDRESS         REF BY
           =====                   =======         ======
           elfloader_onload        A1324559 
               stack 1 = 00000000 ( 00000108 )
    -------------------------------------------------------------------------
CODE
  Segment part 34. NOT NEEDED.
    -------------------------------------------------------------------------
CODE
  Relative segment, address: A1324580 - A13245EB (0x6c bytes), align: 2
  Segment part 35.            Intra module refs:   CreateHELPER_PROC
           ENTRY                   ADDRESS         REF BY
           =====                   =======         ======
           proc_HELPER             A1324580 
               stack 1 = 00000000 ( 0000001C )
    -------------------------------------------------------------------------
CODE
  Segment part 36. NOT NEEDED.
    -------------------------------------------------------------------------
CODE
  Relative segment, address: A13245EC - A132461B (0x30 bytes), align: 2
  Segment part 37.            Intra module refs:   loading
           ENTRY                   ADDRESS         REF BY
           =====                   =======         ======
           CreateHELPER_PROC       A13245EC 
               stack 1 = 00000000 ( 00000008 )
    -------------------------------------------------------------------------
CODE
  Segment part 38. NOT NEEDED.
    -------------------------------------------------------------------------
CODE
  Relative segment, address: A132461C - A132462F (0x14 bytes), align: 2
  Segment part 39.            Intra module refs:   Segment part 26
           ENTRY                   ADDRESS         REF BY
           =====                   =======         ======
           REDRAW_impl             A132461C 
               stack 1 = 00000000 ( 00000004 )
    -------------------------------------------------------------------------
CODE
  Segment part 40. NOT NEEDED.
    -------------------------------------------------------------------------
CODE
  Relative segment, address: A1324630 - A1324653 (0x24 bytes), align: 2
  Segment part 41.            Intra module refs:   Segment part 25
           ENTRY                   ADDRESS         REF BY
           =====                   =======         ======
           SUBPROC_impl            A1324630 
               stack 1 = 00000000 ( 00000008 )
    -------------------------------------------------------------------------
CODE
  Segment part 42. NOT NEEDED.
    -------------------------------------------------------------------------
CODE
  Relative segment, address: A1324654 - A132465F (0xc bytes), align: 2
  Segment part 43.            Intra module refs:   Segment part 27
           ENTRY                   ADDRESS         REF BY
           =====                   =======         ======
           SEQKILLER_impl          A1324655 
               stack 1 = 00000000 ( 00000008 )
    -------------------------------------------------------------------------
CODE
  Segment part 44. NOT NEEDED.
    -------------------------------------------------------------------------
CODE
  Relative segment, address: A1324660 - A132468B (0x2c bytes), align: 2
  Segment part 45.            Intra module refs:   Segment part 23
           ENTRY                   ADDRESS         REF BY
           =====                   =======         ======
           MyIDLECSMonClose        A1324660 
               stack 1 = 00000000 ( 00000008 )
    -------------------------------------------------------------------------
CODE
  Segment part 46. NOT NEEDED.
    -------------------------------------------------------------------------
CODE
  Relative segment, address: A132468C - A1324767 (0xdc bytes), align: 2
  Segment part 47.            Intra module refs:   Segment part 2
           ENTRY                   ADDRESS         REF BY
           =====                   =======         ======
           lnkloader_onload        A132468C 
               stack 1 = 00000000 ( 00000018 )
    -------------------------------------------------------------------------
CODE
  Segment part 48. NOT NEEDED.
    -------------------------------------------------------------------------
CODE
  Relative segment, address: A1324768 - A132482B (0xc4 bytes), align: 2
  Segment part 49.            Intra module refs:   loading
           ENTRY                   ADDRESS         REF BY
           =====                   =======         ======
           LoadDaemons             A1324768 
               stack 1 = 00000000 ( 00000354 )
    -------------------------------------------------------------------------
CODE
  Segment part 50. NOT NEEDED.
    -------------------------------------------------------------------------
DATA_N
  Relative segment, address: A8D9F744 - A8D9F747 (0x4 bytes), align: 2
  Segment part 14.            Intra module refs:   LoadLibrary
           ENTRY                   ADDRESS         REF BY
           =====                   =======         ======
           pLIB_TOP                A8D9F744        Segment part 1 (rets_E71sw45)
                                                   Segment part 2 (FSWI)
    -------------------------------------------------------------------------
CODE
  Relative segment, address: A132482C - A1324847 (0x1c bytes), align: 2
  Segment part 51.            Intra module refs:   LoadLibrary
                                                   lnkloader_onload
           ENTRY                   ADDRESS         REF BY
           =====                   =======         ======
           get_file_size           A132482D 
               stack 1 = 00000000 ( 00000034 )
    -------------------------------------------------------------------------
CODE
  Segment part 52. NOT NEEDED.
    -------------------------------------------------------------------------
CODE
  Relative segment, address: A1324848 - A132499F (0x158 bytes), align: 2
  Segment part 53.            Intra module refs:   loading
           ENTRY                   ADDRESS         REF BY
           =====                   =======         ======
           LoadLibrary             A1324848 
               stack 1 = 00000000 ( 00000050 )
    -------------------------------------------------------------------------
CODE
  Segment part 54. NOT NEEDED.
    -------------------------------------------------------------------------
DATA_N
  Relative segment, address: A8D9F748 - A8D9F847 (0x100 bytes), align: 2
  Segment part 15.            Intra module refs:   Segment part 16
                                                   Segment part 17
                                                   Segment part 18
                                                   Segment part 19
                                                   loading
           ENTRY                   ADDRESS         REF BY
           =====                   =======         ======
           bigicons_str            A8D9F788 
           lnkbigicons_str         A8D9F808 
           lnksmallicons_str       A8D9F7C8 
           smallicons_str          A8D9F748 
    -------------------------------------------------------------------------
CODE
  Relative segment, address: A13249A0 - A13249E5 (0x46 bytes), align: 2
  Segment part 55.            Intra module refs:   start
           ENTRY                   ADDRESS         REF BY
           =====                   =======         ======
           mktree                  A13249A1 
               stack 1 = 00000000 ( 00000118 )
    -------------------------------------------------------------------------
CODE
  Segment part 56. NOT NEEDED.
    -------------------------------------------------------------------------
CODE
  Relative segment, address: A13249E8 - A1324B5B (0x174 bytes), align: 2
  Segment part 57.            Intra module refs:   start
           ENTRY                   ADDRESS         REF BY
           =====                   =======         ======
           loading                 A13249E8 
               stack 1 = 00000000 ( 00000010 )
    -------------------------------------------------------------------------
CODE
  Segment part 58. NOT NEEDED.
    -------------------------------------------------------------------------
DATA_C
  Relative segment, address: A1325D64 - A1325E2B (0xc8 bytes), align: 2
  Segment part 2.             Intra module refs:   loading
    -------------------------------------------------------------------------
DATA_C
  Relative segment, address: A1325E2C - A1325E2F (0x4 bytes), align: 2
  Segment part 3.             Intra module refs:   Segment part 2
    -------------------------------------------------------------------------
DATA_C
  Relative segment, address: A1325E30 - A1325E37 (0x8 bytes), align: 2
  Segment part 4.             Intra module refs:   Segment part 2
    -------------------------------------------------------------------------
DATA_C
  Relative segment, address: A1325E38 - A1325E3F (0x8 bytes), align: 2
  Segment part 5.             Intra module refs:   Segment part 2
    -------------------------------------------------------------------------
DATA_C
  Relative segment, address: A1325E40 - A1325E43 (0x4 bytes), align: 2
  Segment part 6.             Intra module refs:   Segment part 2
    -------------------------------------------------------------------------
DATA_C
  Relative segment, address: A1325E44 - A1325ED7 (0x94 bytes), align: 2
  Segment part 7.             Intra module refs:   start
    -------------------------------------------------------------------------
DATA_C
  Relative segment, address: A1325ED8 - A1325EDF (0x8 bytes), align: 2
  Segment part 8.             Intra module refs:   LoadDaemons
    -------------------------------------------------------------------------
DATA_C
  Relative segment, address: A1325EE0 - A1325F23 (0x44 bytes), align: 2
  Segment part 9.             Intra module refs:   LoadLibrary
    -------------------------------------------------------------------------
DATA_C
  Relative segment, address: A1325F24 - A1325F2B (0x8 bytes), align: 2
  Segment part 10.            Intra module refs:   ESI
    -------------------------------------------------------------------------
DATA_C
  Segment part 11. NOT NEEDED.
    -------------------------------------------------------------------------
DATA_C
  Relative segment, address: A1325F2C - A1325F4B (0x20 bytes), align: 2
  Segment part 12.            Intra module refs:   NO_FUNC
    -------------------------------------------------------------------------
DATA_C
  Relative segment, address: A1325F4C - A1325F53 (0x8 bytes), align: 2
  Segment part 13.            Intra module refs:   CreateHELPER_PROC
    -------------------------------------------------------------------------
DATA_C
  Relative segment, address: A1325F54 - A1325F5B (0x8 bytes), align: 2
  Segment part 16.            Intra module refs:   Segment part 2
    -------------------------------------------------------------------------
DATA_C
  Relative segment, address: A1325F5C - A1325F63 (0x8 bytes), align: 2
  Segment part 17.            Intra module refs:   Segment part 2
    -------------------------------------------------------------------------
DATA_C
  Relative segment, address: A1325F64 - A1325F6B (0x8 bytes), align: 2
  Segment part 18.            Intra module refs:   Segment part 2
    -------------------------------------------------------------------------
DATA_C
  Relative segment, address: A1325F6C - A1325F73 (0x8 bytes), align: 2
  Segment part 19.            Intra module refs:   Segment part 2
    -------------------------------------------------------------------------
CODE
  Relative segment, address: A1324B5C - A1324BA3 (0x48 bytes), align: 2
  Segment part 59.            Intra module refs:   MyIDLECSMonCreate
           ENTRY                   ADDRESS         REF BY
           =====                   =======         ======
           start                   A1324B5D 
               stack 1 = 00000000 ( 00000008 )
    -------------------------------------------------------------------------
CODE
  Segment part 60. NOT NEEDED.
    -------------------------------------------------------------------------
CODE
  Relative segment, address: A1324BA4 - A1324BBB (0x18 bytes), align: 2
  Segment part 61.            Intra module refs:   Segment part 22
           ENTRY                   ADDRESS         REF BY
           =====                   =======         ======
           MyIDLECSMonCreate       A1324BA5 
               stack 1 = 00000000 ( 00000008 )
    -------------------------------------------------------------------------
CODE
  Segment part 62. NOT NEEDED.
    -------------------------------------------------------------------------
CODE
  Relative segment, address: A1324BBC - A1324C2B (0x70 bytes), align: 2
  Segment part 63.            Intra module refs:   ascii2ws
           ENTRY                   ADDRESS         REF BY
           =====                   =======         ======
           char8to16               A1324BBD 
               stack 1 = 00000000 ( 00000004 )
    -------------------------------------------------------------------------
CODE
  Segment part 64. NOT NEEDED.
    -------------------------------------------------------------------------
CODE
  Relative segment, address: A1324C2C - A1324C47 (0x1c bytes), align: 2
  Segment part 65.            Intra module refs:   ESI
           ENTRY                   ADDRESS         REF BY
           =====                   =======         ======
           ascii2ws                A1324C2D 
               stack 1 = 00000000 ( 0000000C )
    -------------------------------------------------------------------------
CODE
  Segment part 66. NOT NEEDED.
    -------------------------------------------------------------------------
CODE
  Relative segment, address: A1324C48 - A1324C8F (0x48 bytes), align: 2
  Segment part 67.
           ENTRY                   ADDRESS         REF BY
           =====                   =======         ======
           ESI                     A1324C48        Segment part 4 (ESI)
               stack 1 = 00000000 ( 0000000C )
    -------------------------------------------------------------------------
CODE
  Segment part 68. NOT NEEDED.
    -------------------------------------------------------------------------
CODE
  Relative segment, address: A1324C90 - A1324CCB (0x3c bytes), align: 2
  Segment part 69.            Intra module refs:   MyShowMSG
           ENTRY                   ADDRESS         REF BY
           =====                   =======         ======
           DoUnknownFileType       A1324C90 
               stack 1 = 00000000 ( 0000000C )
    -------------------------------------------------------------------------
CODE
  Segment part 70. NOT NEEDED.
    -------------------------------------------------------------------------
DATA_N
  Relative segment, address: A8D9F848 - A8D9F84B (0x4 bytes), align: 2
  Segment part 20.            Intra module refs:   EXT2_REALLOC
           ENTRY                   ADDRESS         REF BY
           =====                   =======         ======
           EXT2_AREA               A8D9F848        Segment part 1 (rets_E71sw45)
                                                   Segment part 5 (EXT2)
    -------------------------------------------------------------------------
REGEXPL_CNT
  Relative segment, address: A8D9F174 - A8D9F177 (0x4 bytes), align: 2
  Segment part 21.            Intra module refs:   EXT2_REALLOC
           ENTRY                   ADDRESS         REF BY
           =====                   =======         ======
           EXT2_CNT                A8D9F174 
    -------------------------------------------------------------------------
CODE
  Relative segment, address: A1324CCC - A1324D3F (0x74 bytes), align: 2
  Segment part 71.
           ENTRY                   ADDRESS         REF BY
           =====                   =======         ======
           EXT2_REALLOC            A1324CCC        Segment part 6 (EXT2)
               stack 1 = 00000000 ( 0000001C )
    -------------------------------------------------------------------------
CODE
  Segment part 72. NOT NEEDED.
    -------------------------------------------------------------------------
CODE
  Relative segment, address: A1324D40 - A1324D5F (0x20 bytes), align: 2
  Segment part 73.            Intra module refs:   Segment part 24
           ENTRY                   ADDRESS         REF BY
           =====                   =======         ======
           MyShowMSG               A1324D41 
               stack 1 = 00000000 ( 00000004 )
    -------------------------------------------------------------------------
CODE
  Segment part 74. NOT NEEDED.
    -------------------------------------------------------------------------
CODE
  Relative segment, address: A1324D60 - A1324DA7 (0x48 bytes), align: 2
  Segment part 75.
           ENTRY                   ADDRESS         REF BY
           =====                   =======         ======
           NO_FUNC                 A1324D60        Segment part 2 (FSWI)
               stack 1 = 00000000 ( 00000024 )
    -------------------------------------------------------------------------
CODE
  Relative segment, address: A1324DA8 - A1324DAF (0x8 bytes), align: 2
  Segment part 76.            Intra module refs:   elfload
           ENTRY                   ADDRESS         REF BY
           =====                   =======         ======
           ExecuteIMB::??rT        A1324DA9 
    -------------------------------------------------------------------------
CODE
  Segment part 77. NOT NEEDED.Intra module refs:   MyIDLECSMonClose
    -------------------------------------------------------------------------
CODE
  Segment part 78. NOT NEEDED.Intra module refs:   loading
    -------------------------------------------------------------------------
CODE
  Segment part 79. NOT NEEDED.Intra module refs:   start
    -------------------------------------------------------------------------
CODE
  Relative segment, address: A1324DB0 - A1324DB3 (0x4 bytes), align: 2
  Segment part 80.            Intra module refs:   MyIDLECSMonCreate
           ENTRY                   ADDRESS         REF BY
           =====                   =======         ======
           BXR1::??rT              A1324DB1 
    -------------------------------------------------------------------------
CODE
  Relative segment, address: A1324DB4 - A1324DB7 (0x4 bytes), align: 2
  Segment part 81.            Intra module refs:   BXR1::??rT
    -------------------------------------------------------------------------
PATCH_ONCREATE
  Relative segment, address: A084B698 - A084B69B (0x4 bytes), align: 2
  Segment part 22. ROOT.
    -------------------------------------------------------------------------
PATCH_ONCLOSE
  Relative segment, address: A084B6AC - A084B6AF (0x4 bytes), align: 2
  Segment part 23. ROOT.
    -------------------------------------------------------------------------
PATCH_SHOWMSG_BLF
  Relative segment, address: A07F9600 - A07F9603 (0x4 bytes), align: 2
  Segment part 24. ROOT.
    -------------------------------------------------------------------------
SWILIB_FUNC171
  Relative segment, address: A13205C4 - A13205C7 (0x4 bytes), align: 2
  Segment part 25. ROOT.
    -------------------------------------------------------------------------
SWILIB_FUNC172
  Relative segment, address: A13205C8 - A13205CB (0x4 bytes), align: 2
  Segment part 26. ROOT.
    -------------------------------------------------------------------------
SWILIB_FUNC19C
  Relative segment, address: A1320670 - A1320673 (0x4 bytes), align: 2
  Segment part 27. ROOT.
    -------------------------------------------------------------------------
CSTACK
  Segment part 1. NOT NEEDED.

    *************************************************************************

  FILE NAME : C:\arm\elfloader\E71sw45\Obj\png.r79
  PROGRAM MODULE, NAME : png

  SEGMENTS IN THE MODULE
  ======================
DATA_C
  Relative segment, address: A1325F74 - A1325F7B (0x8 bytes), align: 2
  Segment part 2.             Intra module refs:   create_imghdr
    -------------------------------------------------------------------------
DATA_C
  Relative segment, address: A1325F88 - A1325F88 (0x1 bytes), align: 0
  Segment part 3.             Intra module refs:   empty_img
           ENTRY                   ADDRESS         REF BY
           =====                   =======         ======
           Pointer                 A1325F88 
    -------------------------------------------------------------------------
DATA_C
  Relative segment, address: A1325F7C - A1325F87 (0xc bytes), align: 2
  Segment part 4.             Intra module refs:   PatchGetPIT
           ENTRY                   ADDRESS         REF BY
           =====                   =======         ======
           empty_img               A1325F7C 
    -------------------------------------------------------------------------
CODE
  Segment part 7. NOT NEEDED.
    -------------------------------------------------------------------------
CODE
  Relative segment, address: A1324DB8 - A1324DBF (0x8 bytes), align: 2
  Segment part 8.             Intra module refs:   create_imghdr
           ENTRY                   ADDRESS         REF BY
           =====                   =======         ======
           xmalloc                 A1324DB9 
               stack 1 = 00000000 ( 00000004 )
    -------------------------------------------------------------------------
CODE
  Segment part 9. NOT NEEDED.
    -------------------------------------------------------------------------
CODE
  Relative segment, address: A1324DC0 - A1324DC7 (0x8 bytes), align: 2
  Segment part 10.            Intra module refs:   create_imghdr
           ENTRY                   ADDRESS         REF BY
           =====                   =======         ======
           xmfree                  A1324DC1 
               stack 1 = 00000000 ( 00000004 )
    -------------------------------------------------------------------------
CODE
  Segment part 11. NOT NEEDED.
    -------------------------------------------------------------------------
CODE
  Relative segment, address: A1324DC8 - A1324DEF (0x28 bytes), align: 2
  Segment part 12.            Intra module refs:   create_imghdr
           ENTRY                   ADDRESS         REF BY
           =====                   =======         ======
           read_data_fn            A1324DC8 
               stack 1 = 00000000 ( 00000010 )
    -------------------------------------------------------------------------
CODE
  Segment part 13. NOT NEEDED.
    -------------------------------------------------------------------------
CODE
  Relative segment, address: A1324DF0 - A132539B (0x5ac bytes), align: 2
  Segment part 14.            Intra module refs:   PatchGetPIT
                                                   Segment part 6
           ENTRY                   ADDRESS         REF BY
           =====                   =======         ======
           create_imghdr           A1324DF0 
               stack 1 = 00000000 ( 00000060 )
    -------------------------------------------------------------------------
CODE
  Segment part 15. NOT NEEDED.
    -------------------------------------------------------------------------
DATA_N
  Relative segment, address: A8D9F84C - A8D9F857 (0xc bytes), align: 2
  Segment part 5.             Intra module refs:   InitPngBitMap
                                                   Segment part 23
           ENTRY                   ADDRESS         REF BY
           =====                   =======         ======
           pngtop                  A8D9F84C        Segment part 1 (rets_E71sw45)
    -------------------------------------------------------------------------
CODE
  Relative segment, address: A132539C - A13253BF (0x24 bytes), align: 2
  Segment part 16.            Intra module refs:   PatchGetPIT
           ENTRY                   ADDRESS         REF BY
           =====                   =======         ======
           strcpy_tolow            A132539D 
               stack 1 = 00000000 ( 00000004 )
    -------------------------------------------------------------------------
CODE
  Segment part 17. NOT NEEDED.
    -------------------------------------------------------------------------
CODE
  Relative segment, address: A13253C0 - A1325457 (0x98 bytes), align: 2
  Segment part 18.            Intra module refs:   PatchGetPIT
           ENTRY                   ADDRESS         REF BY
           =====                   =======         ======
           print10                 A13253C0 
               stack 1 = 00000000 ( 00000004 )
    -------------------------------------------------------------------------
CODE
  Segment part 19. NOT NEEDED.
    -------------------------------------------------------------------------
CODE
  Relative segment, address: A1325458 - A13254CB (0x74 bytes), align: 2
  Segment part 20.            Intra module refs:   PatchGetPIT
           ENTRY                   ADDRESS         REF BY
           =====                   =======         ======
           find_png_in_cache       A1325458 
               stack 1 = 00000000 ( 00000014 )
    -------------------------------------------------------------------------
CODE
  Segment part 21. NOT NEEDED.
    -------------------------------------------------------------------------
CODE
  Relative segment, address: A13254CC - A132573B (0x270 bytes), align: 2
  Segment part 22.
           ENTRY                   ADDRESS         REF BY
           =====                   =======         ======
           PatchGetPIT             A13254CC        Segment part 7 (ESI)
               stack 1 = 00000000 ( 00000120 )
    -------------------------------------------------------------------------
CODE
  Relative segment, address: A132573C - A132573F (0x4 bytes), align: 2
  Segment part 23.            Intra module refs:   PatchGetPIT
                                                   find_png_in_cache
    -------------------------------------------------------------------------
CODE
  Segment part 24. NOT NEEDED.
    -------------------------------------------------------------------------
CODE
  Relative segment, address: A1325740 - A132577B (0x3c bytes), align: 2
  Segment part 25.
           ENTRY                   ADDRESS         REF BY
           =====                   =======         ======
           InitPngBitMap           A1325740        loading (elfloader)
               stack 1 = 00000000 ( 0000000C )
    -------------------------------------------------------------------------
SWILIB_FUNC1E9
  Relative segment, address: A13207A4 - A13207A7 (0x4 bytes), align: 2
  Segment part 6. ROOT.
    -------------------------------------------------------------------------
CSTACK
  Segment part 1. NOT NEEDED.

    *************************************************************************

  FILE NAME : C:\arm\elfloader\E71sw45\Obj\rets_E71sw45.r79
  PROGRAM MODULE, NAME : rets_E71sw45

  SEGMENTS IN THE MODULE
  ======================
DATA_N
  Relative segment, address: A8D9F858, align: 2
  Segment part 0. ROOT.
    -------------------------------------------------------------------------
SWILIB_FUNC1B8_1BB
  Relative segment, address: A13206E0 - A13206EF (0x10 bytes), align: 2
  Segment part 1. ROOT.
    -------------------------------------------------------------------------
CODE
  Relative segment, address: A132577C - A132578F (0x14 bytes), align: 2
  Segment part 2. ROOT.
           ENTRY                   ADDRESS         REF BY
           =====                   =======         ======
           OldOnClose              A132577C        MyIDLECSMonClose (elfloader)
           OldOnCreate             A1325780        MyIDLECSMonCreate (elfloader)
           OldShowMsg              A1325784        MyShowMSG (elfloader)
           PITgetN                 A1325788        Segment part 7 (ESI)
           PITret                  A132578C        Segment part 7 (ESI)




                ****************************************
                *                                      *
                *            MODULE SUMMARY            *
                *                                      *
                ****************************************

Module            CODE   DATA
------            ----   ----
                 (Rel)  (Rel)
ESI                 94
EXT2                96
FSWI               148
IMB                108
conf_loader        288      4
  + shared           4
config_data      1 492  1 480
elfloader        3 396    268
  + shared          12
png              2 525     12
rets_E71sw45        36
N/A (alignment)
------           -----  -----
Total:           8 199  1 764


                ****************************************
                *                                      *
                *              CALL GRAPH              *
                *                                      *
                ****************************************

  ->Sub-tree of type: Indirectly called function tree that does not make
                    : indirect calls (Is not an interrupt and is not flagged
                    : as not overlayable)
                             CSTACK
    | Stack used (prev) :  00000000
  01  elfloader_onload
      | Stack used (prev) :  00000000
      | + function block  :  00000108
  <-Sub-tree of type: Indirectly called function tree that does not make
                    : indirect calls (Is not an interrupt and is not flagged
                    : as not overlayable)
    | Stack used          :  00000108


  ->Sub-tree of type: Indirectly called function tree that does not make
                    : indirect calls (Is not an interrupt and is not flagged
                    : as not overlayable)
                             CSTACK
    | Stack used (prev) :  00000000
  01  proc_HELPER
      | Stack used (prev) :  00000000
      | + function block  :  0000001C
  <-Sub-tree of type: Indirectly called function tree that does not make
                    : indirect calls (Is not an interrupt and is not flagged
                    : as not overlayable)
    | Stack used          :  0000001C


  ->Sub-tree of type: Indirectly called function tree that does not make
                    : indirect calls (Is not an interrupt and is not flagged
                    : as not overlayable)
                             CSTACK
    | Stack used (prev) :  00000000
  01  REDRAW_impl
      | Stack used (prev) :  00000000
      | + function block  :  00000004
  <-Sub-tree of type: Indirectly called function tree that does not make
                    : indirect calls (Is not an interrupt and is not flagged
                    : as not overlayable)
    | Stack used          :  00000004


  ->Sub-tree of type: Indirectly called function tree that does not make
                    : indirect calls (Is not an interrupt and is not flagged
                    : as not overlayable)
                             CSTACK
    | Stack used (prev) :  00000000
  01  SUBPROC_impl
      | Stack used (prev) :  00000000
      | + function block  :  00000008
  <-Sub-tree of type: Indirectly called function tree that does not make
                    : indirect calls (Is not an interrupt and is not flagged
                    : as not overlayable)
    | Stack used          :  00000008


  ->Sub-tree of type: Indirectly called function tree that does not make
                    : indirect calls (Is not an interrupt and is not flagged
                    : as not overlayable)
                             CSTACK
    | Stack used (prev) :  00000000
  01  SEQKILLER_impl
      | Stack used (prev) :  00000000
      | + function block  :  00000008
  <-Sub-tree of type: Indirectly called function tree that does not make
                    : indirect calls (Is not an interrupt and is not flagged
                    : as not overlayable)
    | Stack used          :  00000008


  ->Sub-tree of type: Indirectly called function tree that does not make
                    : indirect calls (Is not an interrupt and is not flagged
                    : as not overlayable)
                             CSTACK
    | Stack used (prev) :  00000000
  01  MyIDLECSMonClose
      | Stack used (prev) :  00000000
      | + function block  :  00000008
  <-Sub-tree of type: Indirectly called function tree that does not make
                    : indirect calls (Is not an interrupt and is not flagged
                    : as not overlayable)
    | Stack used          :  00000008


  ->Sub-tree of type: Indirectly called function tree that does not make
                    : indirect calls (Is not an interrupt and is not flagged
                    : as not overlayable)
                             CSTACK
    | Stack used (prev) :  00000000
  01  lnkloader_onload
      | Stack used (prev) :  00000000
      | + function block  :  00000018
  <-Sub-tree of type: Indirectly called function tree that does not make
                    : indirect calls (Is not an interrupt and is not flagged
                    : as not overlayable)
    | Stack used          :  00000018


  ->Sub-tree of type: Indirectly called function tree that does not make
                    : indirect calls (Is not an interrupt and is not flagged
                    : as not overlayable)
                             CSTACK
    | Stack used (prev) :  00000000
  01  LoadDaemons
      | Stack used (prev) :  00000000
      | + function block  :  00000354
  <-Sub-tree of type: Indirectly called function tree that does not make
                    : indirect calls (Is not an interrupt and is not flagged
                    : as not overlayable)
    | Stack used          :  00000354


  ->Sub-tree of type: Indirectly called function tree that does not make
                    : indirect calls (Is not an interrupt and is not flagged
                    : as not overlayable)
                             CSTACK
    | Stack used (prev) :  00000000
  01  MyIDLECSMonCreate
      | Stack used (prev) :  00000000
      | + function block  :  00000008
  <-Sub-tree of type: Indirectly called function tree that does not make
                    : indirect calls (Is not an interrupt and is not flagged
                    : as not overlayable)
    | Stack used          :  00000008


  ->Sub-tree of type: Indirectly called function tree that does not make
                    : indirect calls (Is not an interrupt and is not flagged
                    : as not overlayable)
                             CSTACK
    | Stack used (prev) :  00000000
  01  MyShowMSG
      | Stack used (prev) :  00000000
      | + function block  :  00000004
  <-Sub-tree of type: Indirectly called function tree that does not make
                    : indirect calls (Is not an interrupt and is not flagged
                    : as not overlayable)
    | Stack used          :  00000004


  ->Sub-tree of type: Indirectly called function tree that does not make
                    : indirect calls (Is not an interrupt and is not flagged
                    : as not overlayable)
                             CSTACK
    | Stack used (prev) :  00000000
  01  xmalloc
      | Stack used (prev) :  00000000
      | + function block  :  00000004
  <-Sub-tree of type: Indirectly called function tree that does not make
                    : indirect calls (Is not an interrupt and is not flagged
                    : as not overlayable)
    | Stack used          :  00000004


  ->Sub-tree of type: Indirectly called function tree that does not make
                    : indirect calls (Is not an interrupt and is not flagged
                    : as not overlayable)
                             CSTACK
    | Stack used (prev) :  00000000
  01  xmfree
      | Stack used (prev) :  00000000
      | + function block  :  00000004
  <-Sub-tree of type: Indirectly called function tree that does not make
                    : indirect calls (Is not an interrupt and is not flagged
                    : as not overlayable)
    | Stack used          :  00000004


  ->Sub-tree of type: Indirectly called function tree that does not make
                    : indirect calls (Is not an interrupt and is not flagged
                    : as not overlayable)
                             CSTACK
    | Stack used (prev) :  00000000
  01  read_data_fn
      | Stack used (prev) :  00000000
      | + function block  :  00000010
  <-Sub-tree of type: Indirectly called function tree that does not make
                    : indirect calls (Is not an interrupt and is not flagged
                    : as not overlayable)
    | Stack used          :  00000010


  ->Sub-tree of type: Indirectly called function tree that does not make
                    : indirect calls (Is not an interrupt and is not flagged
                    : as not overlayable)
                             CSTACK
    | Stack used (prev) :  00000000
  01  create_imghdr
      | Stack used (prev) :  00000000
      | + function block  :  00000060
  <-Sub-tree of type: Indirectly called function tree that does not make
                    : indirect calls (Is not an interrupt and is not flagged
                    : as not overlayable)
    | Stack used          :  00000060


  ->Sub-tree of type: Function tree
                             CSTACK
    | Stack used (prev) :  00000354
  01  LoadConfigData
      | Stack used (prev) :  00000354
      | + function block  :  00000030
  <-Sub-tree of type: Function tree
    | Stack used          :  00000384


  ->Sub-tree of type: Function tree
                             CSTACK
    | Stack used (prev) :  00000384
  01  zeromem_a
      | Stack used (prev) :  00000384
      | + function block  :  00000004
  <-Sub-tree of type: Function tree
    | Stack used          :  00000388


  ->Sub-tree of type: Function tree
                             CSTACK
    | Stack used (prev) :  00000388
  01  elfload
      | Stack used (prev) :  00000388
      | + function block  :  00000224
  <-Sub-tree of type: Function tree
    | Stack used          :  000005AC


  ->Sub-tree of type: Function tree
                             CSTACK
    | Stack used (prev) :  000005AC
  01  CreateHELPER_PROC
      | Stack used (prev) :  000005AC
      | + function block  :  00000008
  <-Sub-tree of type: Function tree
    | Stack used          :  000005B4


  ->Sub-tree of type: Function tree
                             CSTACK
    | Stack used (prev) :  000005B4
  01  get_file_size
      | Stack used (prev) :  000005B4
      | + function block  :  00000034
  <-Sub-tree of type: Function tree
    | Stack used          :  000005E8


  ->Sub-tree of type: Function tree
                             CSTACK
    | Stack used (prev) :  000005E8
  01  LoadLibrary
      | Stack used (prev) :  000005E8
      | + function block  :  00000050
  <-Sub-tree of type: Function tree
    | Stack used          :  00000638


  ->Sub-tree of type: Function tree
                             CSTACK
    | Stack used (prev) :  00000638
  01  mktree
      | Stack used (prev) :  00000638
      | + function block  :  00000118
  <-Sub-tree of type: Function tree
    | Stack used          :  00000750


  ->Sub-tree of type: Function tree
                             CSTACK
    | Stack used (prev) :  00000750
  01  loading
      | Stack used (prev) :  00000750
      | + function block  :  00000010
  <-Sub-tree of type: Function tree
    | Stack used          :  00000760


  ->Sub-tree of type: Function tree
                             CSTACK
    | Stack used (prev) :  00000760
  01  start
      | Stack used (prev) :  00000760
      | + function block  :  00000008
  <-Sub-tree of type: Function tree
    | Stack used          :  00000768


  ->Sub-tree of type: Function tree
                             CSTACK
    | Stack used (prev) :  00000768
  01  char8to16
      | Stack used (prev) :  00000768
      | + function block  :  00000004
  <-Sub-tree of type: Function tree
    | Stack used          :  0000076C


  ->Sub-tree of type: Function tree
                             CSTACK
    | Stack used (prev) :  0000076C
  01  ascii2ws
      | Stack used (prev) :  0000076C
      | + function block  :  0000000C
  <-Sub-tree of type: Function tree
    | Stack used          :  00000778


  ->Sub-tree of type: Function tree
                             CSTACK
    | Stack used (prev) :  00000778
  01  ESI
      | Stack used (prev) :  00000778
      | + function block  :  0000000C
  <-Sub-tree of type: Function tree
    | Stack used          :  00000784


  ->Sub-tree of type: Function tree
                             CSTACK
    | Stack used (prev) :  00000784
  01  DoUnknownFileType
      | Stack used (prev) :  00000784
      | + function block  :  0000000C
  <-Sub-tree of type: Function tree
    | Stack used          :  00000790


  ->Sub-tree of type: Function tree
                             CSTACK
    | Stack used (prev) :  00000790
  01  EXT2_REALLOC
      | Stack used (prev) :  00000790
      | + function block  :  0000001C
  <-Sub-tree of type: Function tree
    | Stack used          :  000007AC


  ->Sub-tree of type: Function tree
                             CSTACK
    | Stack used (prev) :  000007AC
  01  NO_FUNC
      | Stack used (prev) :  000007AC
      | + function block  :  00000024
  <-Sub-tree of type: Function tree
    | Stack used          :  000007D0


  ->Sub-tree of type: Function tree
                             CSTACK
    | Stack used (prev) :  000007D0
  01  strcpy_tolow
      | Stack used (prev) :  000007D0
      | + function block  :  00000004
  <-Sub-tree of type: Function tree
    | Stack used          :  000007D4


  ->Sub-tree of type: Function tree
                             CSTACK
    | Stack used (prev) :  000007D4
  01  print10
      | Stack used (prev) :  000007D4
      | + function block  :  00000004
  <-Sub-tree of type: Function tree
    | Stack used          :  000007D8


  ->Sub-tree of type: Function tree
                             CSTACK
    | Stack used (prev) :  000007D8
  01  find_png_in_cache
      | Stack used (prev) :  000007D8
      | + function block  :  00000014
  <-Sub-tree of type: Function tree
    | Stack used          :  000007EC


  ->Sub-tree of type: Function tree
                             CSTACK
    | Stack used (prev) :  000007EC
  01  PatchGetPIT
      | Stack used (prev) :  000007EC
      | + function block  :  00000120
  <-Sub-tree of type: Function tree
    | Stack used          :  0000090C


  ->Sub-tree of type: Function tree
                             CSTACK
    | Stack used (prev) :  0000090C
  01  InitPngBitMap
      | Stack used (prev) :  0000090C
      | + function block  :  0000000C
  <-Sub-tree of type: Function tree
    | Stack used          :  00000918




                ****************************************
                *                                      *
                *      SEGMENTS IN ADDRESS ORDER       *
                *                                      *
                ****************************************


SEGMENT              SPACE    START ADDRESS   END ADDRESS     SIZE  TYPE  ALIGN
=======              =====    =============   ===========     ====  ====  =====
PATCH_EXT2_R7_1                    A05026AC - A05026AF           4   rel    2
PATCH_EXT2_R2                      A0502830 - A0502833           4   rel    2
PATCH_EXT2_R7                      A0502A78 - A0502A7B           4   rel    2
PATCH_EXT2_IMPL                    A0502AFC - A0502B1F          24   rel    2
PATCH_EXT2_R6                      A0502C5C - A0502C5F           4   rel    2
PATCH_NO_BROWSE_TXT
                                   A06C697A - A06C697B           2   rel    1
PATCH_ENABLE_ALTOPEN
                                   A071CDD4 - A071CDD7           4   rel    2
PATCH_SHOWMSG_BLF                  A07F9600 - A07F9603           4   rel    2
PATCH_ONCREATE                     A084B698 - A084B69B           4   rel    2
PATCH_ONCLOSE                      A084B6AC - A084B6AF           4   rel    2
PATCH_ESI1                         A08D5FF4 - A08D5FF7           4   rel    2
PATCH_ESI2                         A08D6004 - A08D6007           4   rel    2
PATCH_GET_PIT                      A094CE9A - A094CE9D           4   rel    1
PATCH_GET_PITJ                     A094CEA0 - A094CEA3           4   rel    2
FSWI_PATCH2                        A12D1328 - A12D132B           4   rel    2
FSWI_PATCH1                        A12D1414 - A12D1417           4   rel    2
LIBR                                    A1320000                     rel    2
SWILIB_FUNC171                     A13205C4 - A13205C7           4   rel    2
SWILIB_FUNC172                     A13205C8 - A13205CB           4   rel    2
SWILIB_FUNC19C                     A1320670 - A1320673           4   rel    2
SWILIB_FUNC1B8_1BB                 A13206E0 - A13206EF          10   rel    2
SWILIB_FUNC1E9                     A13207A4 - A13207A7           4   rel    2
START                                   A1324000                     dse    0
CODE                               A1324000 - A132578F        1790   rel    2
SWITAB                                  A1325790                     dse    0
INITTAB                            A1325790 - A132579B           C   rel    2
DATA_ID                                 A132579C                     dse    0
CONFIG_DATA_ID                     A132579C - A1325D63         5C8   rel    2
DATA_C                             A1325D64 - A1325F88         225   rel    2
REGEXPL_CNT                        A8D9F174 - A8D9F177           4   rel    2
CONFIG_DATA_I                      A8D9F178 - A8D9F73F         5C8   rel    2
DATA_N                             A8D9F740 - A8D9F857         118   rel    2

                ****************************************
                *                                      *
                *        END OF CROSS REFERENCE        *
                *                                      *
                ****************************************

 8 199 bytes of CODE memory
 1 764 bytes of DATA memory

Errors: none
Warnings: none

