################################################################################
#                                                                              #
#      IAR Universal Linker V4.60E/386                                         #
#                                                                              #
#           Link time     =  15/Jul/2008  14:41:19                             #
#           Target CPU    =  ARM                                               #
#           List file     =  E:\cd\e71\Develop\Eraser\Menu\Release_ELKA\List\M #
#                            enu.map                                           #
#           Output file 1 =  E:\cd\e71\Develop\Eraser\Menu\Release_ELKA\Exe\Me #
#                            nu.elf                                            #
#                            Format: elf, variant: -ynpra                      #
#           Command line  =  E:\cd\e71\Develop\Eraser\Menu\Release_ELKA\Obj\co #
#                            nf_loader.r79                                     #
#                            E:\cd\e71\Develop\Eraser\Menu\Release_ELKA\Obj\co #
#                            nfig_data.r79                                     #
#                            E:\cd\e71\Develop\Eraser\Menu\Release_ELKA\Obj\fu #
#                            nc.r79                                            #
#                            E:\cd\e71\Develop\Eraser\Menu\Release_ELKA\Obj\ma #
#                            in.r79                                            #
#                            -o                                                #
#                            E:\cd\e71\Develop\Eraser\Menu\Release_ELKA\Exe\Me #
#                            nu.elf                                            #
#                            -Felf -l                                          #
#                            E:\cd\e71\Develop\Eraser\Menu\Release_ELKA\List\M #
#                            enu.map                                           #
#                            -xmsnio -f                                        #
#                            E:\cd\e71\Develop\Eraser\Menu\test.xcl (-carm     #
#                            -V(CODE)CODE_AREA,12 -V(DATA)DATA_AREA,12         #
#                            -Z(CODE_AREA)ELFBEGIN,DATA_ID,START,CODE,DATA_C,I #
#                            NITTAB,DATA_Z,DATA_N,MYSEG,CONFIG_C=0-FFFFFFFF    #
#                            -Z(DATA_AREA)DATA_I=0-FFFFFFFF) -ynpra            #
#                            "E:\cd\e71\Develop\Embedded Workbench 4.0 Evaluat #
#                            ion\ARM\LIB\dl5tpainl8n.r79"                      #
#                            -s main                                           #
#                                                                              #
#                        Copyright 1987-2006 IAR Systems. All rights reserved. #
################################################################################





                ****************************************
                *                                      *
                *           CROSS REFERENCE            *
                *                                      *
                ****************************************

       Program entry at : CODE_AREA 00000C38  Relocatable, from module : main




                ****************************************
                *                                      *
                *            RUNTIME MODEL             *
                *                                      *
                ****************************************

  StackAlign4  = USED
  StackAlign8  = USED
  __cpu_mode   = __pcs__interwork
  __data_model = absolute
  __endian     = little
  __rt_version = 6



                ****************************************
                *                                      *
                *              MODULE MAP              *
                *                                      *
                ****************************************


  DEFINED ABSOLUTE ENTRIES
    *************************************************************************

  DEFINED ABSOLUTE ENTRIES
    *************************************************************************

  FILE NAME : E:\cd\e71\Develop\Eraser\Menu\Release_ELKA\Obj\conf_loader.r79
  PROGRAM MODULE, NAME : conf_loader

  SEGMENTS IN THE MODULE
  ======================
DATA_I
  Relative segment, address: DATA_AREA 00000000 - 00000003 (0x4 bytes), align: 2
  Segment part 5.             Intra module refs:   LoadConfigData
           ENTRY                   ADDRESS         REF BY
           =====                   =======         ======
           successed_config_filename
                                   00000000 
    -------------------------------------------------------------------------
CODE
  Segment part 7. NOT NEEDED.
    -------------------------------------------------------------------------
CODE
  Relative segment, address: CODE_AREA 00000080 - 000000E7 (0x68 bytes), align: 2
  Segment part 8.             Intra module refs:   LoadConfigData
           ENTRY                   ADDRESS         REF BY
           =====                   =======         ======
           SaveConfigData          00000080 
               stack 1 = 00000000 ( 00000018 )
    -------------------------------------------------------------------------
CODE
  Segment part 9. NOT NEEDED.
    -------------------------------------------------------------------------
CODE
  Relative segment, address: CODE_AREA 000000E8 - 000001C7 (0xe0 bytes), align: 2
  Segment part 10.            Intra module refs:   InitConfig
           ENTRY                   ADDRESS         REF BY
           =====                   =======         ======
           LoadConfigData          000000E8 
               stack 1 = 00000000 ( 00000028 )
    -------------------------------------------------------------------------
CODE
  Relative segment, address: CODE_AREA 000001C8 - 000001CB (0x4 bytes), align: 2
  Segment part 11.            Intra module refs:   LoadConfigData
                                                   SaveConfigData
    -------------------------------------------------------------------------
CODE
  Relative segment, address: CODE_AREA 000001CC - 000001CF (0x4 bytes), align: 2
  Segment part 12.            Intra module refs:   LoadConfigData
                                                   SaveConfigData
    -------------------------------------------------------------------------
CODE
  Segment part 13. NOT NEEDED.
    -------------------------------------------------------------------------
CODE
  Relative segment, address: CODE_AREA 000001D0 - 000001F7 (0x28 bytes), align: 2
  Segment part 14.
           ENTRY                   ADDRESS         REF BY
           =====                   =======         ======
           InitConfig              000001D0        MOnKey (main)
                                                   main (main)
               stack 1 = 00000000 ( 00000004 )
    -------------------------------------------------------------------------
CSTACK
  Segment part 1. NOT NEEDED.
    -------------------------------------------------------------------------
DATA_ID
  Relative segment, address: CODE_AREA 00000000 - 00000003 (0x4 bytes), align: 2
  Segment part 6.             Intra module refs:   successed_config_filename
    -------------------------------------------------------------------------
DATA_ID
  Segment part 15. NOT NEEDED.
           ENTRY                   ADDRESS         REF BY
           =====                   =======         ======
           ?*?DATA_ID              
    -------------------------------------------------------------------------
INITTAB
  Relative segment, address: CODE_AREA 000011EC - 000011F7 (0xc bytes), align: 2
  Segment part 16. ROOT.
           ENTRY                   ADDRESS         REF BY
           =====                   =======         ======
           ?init?tab?DATA_I        000011EC 
    -------------------------------------------------------------------------
CONFIG_C
  Segment part 17. NOT NEEDED.
    -------------------------------------------------------------------------
DATA_C
  Relative segment, address: CODE_AREA 000011E8 - 000011E8 (0x1 bytes), align: 0
  Segment part 2.             Intra module refs:   Segment part 6
    -------------------------------------------------------------------------
DATA_C
  Relative segment, address: CODE_AREA 000010FC - 00001113 (0x18 bytes), align: 2
  Segment part 3.             Intra module refs:   InitConfig
    -------------------------------------------------------------------------
DATA_C
  Relative segment, address: CODE_AREA 00001114 - 0000112B (0x18 bytes), align: 2
  Segment part 4.             Intra module refs:   InitConfig

    *************************************************************************

  FILE NAME : E:\cd\e71\Develop\Eraser\Menu\Release_ELKA\Obj\config_data.r79
  PROGRAM MODULE, NAME : config_data

  SEGMENTS IN THE MODULE
  ======================
CONFIG_C
  Relative segment, address: CODE_AREA 000013DC - 00001407 (0x2c bytes), align: 2
  Segment part 2. ROOT.
           ENTRY                   ADDRESS         REF BY
           =====                   =======         ======
           cfghdr0                 000013DC 
    -------------------------------------------------------------------------
CONFIG_C
  Relative segment, address: CODE_AREA 00001408 - 0000140B (0x4 bytes), align: 2
  Segment part 3. ROOT.
           ENTRY                   ADDRESS         REF BY
           =====                   =======         ======
           ENA_HELLO_MSG           00001408 
    -------------------------------------------------------------------------
CONFIG_C
  Relative segment, address: CODE_AREA 0000140C - 0000144B (0x40 bytes), align: 2
  Segment part 4. ROOT.
           ENTRY                   ADDRESS         REF BY
           =====                   =======         ======
           cfgcbox1                0000140C 
    -------------------------------------------------------------------------
CONFIG_C
  Relative segment, address: CODE_AREA 0000144C - 00001477 (0x2c bytes), align: 2
  Segment part 5. ROOT.
           ENTRY                   ADDRESS         REF BY
           =====                   =======         ======
           cfghdr1_4               0000144C 
    -------------------------------------------------------------------------
CONFIG_C
  Relative segment, address: CODE_AREA 00001478 - 0000147B (0x4 bytes), align: 2
  Segment part 6. ROOT.
           ENTRY                   ADDRESS         REF BY
           =====                   =======         ======
           Rows                    00001478        Segment part 108 (main)
    -------------------------------------------------------------------------
CONFIG_C
  Relative segment, address: CODE_AREA 0000147C - 000014A7 (0x2c bytes), align: 2
  Segment part 7. ROOT.
           ENTRY                   ADDRESS         REF BY
           =====                   =======         ======
           cfghdr1_5               0000147C 
    -------------------------------------------------------------------------
CONFIG_C
  Relative segment, address: CODE_AREA 000014A8 - 000014AB (0x4 bytes), align: 2
  Segment part 8. ROOT.
           ENTRY                   ADDRESS         REF BY
           =====                   =======         ======
           Columns                 000014A8        Segment part 107 (main)
    -------------------------------------------------------------------------
CONFIG_C
  Relative segment, address: CODE_AREA 000014AC - 000014D7 (0x2c bytes), align: 2
  Segment part 9. ROOT.
           ENTRY                   ADDRESS         REF BY
           =====                   =======         ======
           cfghdr1_6               000014AC 
    -------------------------------------------------------------------------
CONFIG_C
  Relative segment, address: CODE_AREA 000014D8 - 000014DB (0x4 bytes), align: 2
  Segment part 10. ROOT.
           ENTRY                   ADDRESS         REF BY
           =====                   =======         ======
           OffsetX                 000014D8        NOnRedraw (main)
    -------------------------------------------------------------------------
CONFIG_C
  Relative segment, address: CODE_AREA 000014DC - 00001507 (0x2c bytes), align: 2
  Segment part 11. ROOT.
           ENTRY                   ADDRESS         REF BY
           =====                   =======         ======
           cfghdr1_7               000014DC 
    -------------------------------------------------------------------------
CONFIG_C
  Relative segment, address: CODE_AREA 00001508 - 0000150B (0x4 bytes), align: 2
  Segment part 12. ROOT.
           ENTRY                   ADDRESS         REF BY
           =====                   =======         ======
           OffsetY                 00001508        NOnRedraw (main)
    -------------------------------------------------------------------------
CONFIG_C
  Relative segment, address: CODE_AREA 0000150C - 00001537 (0x2c bytes), align: 2
  Segment part 13. ROOT.
           ENTRY                   ADDRESS         REF BY
           =====                   =======         ======
           cfghdr2_2               0000150C 
    -------------------------------------------------------------------------
CONFIG_C
  Relative segment, address: CODE_AREA 00001538 - 000015B7 (0x80 bytes), align: 2
  Segment part 14. ROOT.
           ENTRY                   ADDRESS         REF BY
           =====                   =======         ======
           MENU_PATH               00001538        LoadItems (main)
    -------------------------------------------------------------------------
CONFIG_C
  Relative segment, address: CODE_AREA 000015B8 - 000015E3 (0x2c bytes), align: 2
  Segment part 15. ROOT.
           ENTRY                   ADDRESS         REF BY
           =====                   =======         ======
           cfghdr2_3               000015B8 
    -------------------------------------------------------------------------
CONFIG_C
  Relative segment, address: CODE_AREA 000015E4 - 00001663 (0x80 bytes), align: 2
  Segment part 16. ROOT.
           ENTRY                   ADDRESS         REF BY
           =====                   =======         ======
           CURSOR_PATH             000015E4        NOnRedraw (main)
    -------------------------------------------------------------------------
CSTACK
  Segment part 1. NOT NEEDED.

    *************************************************************************

  FILE NAME : E:\cd\e71\Develop\Eraser\Menu\Release_ELKA\Obj\func.r79
  PROGRAM MODULE, NAME : func

  SEGMENTS IN THE MODULE
  ======================
ELFBEGIN
  Relative segment, address: CODE_AREA 00000000, align: 0
  Segment part 0. ROOT.
           ENTRY                   ADDRESS         REF BY
           =====                   =======         ======
           ELF_BEGIN               00000000        Segment part 95 (main)
    -------------------------------------------------------------------------
CODE
  Relative segment, address: CODE_AREA 000001F8 - 000001FF (0x8 bytes), align: 2
  Segment part 1. ROOT.
           ENTRY                   ADDRESS         REF BY
           =====                   =======         ======
           kill_data               000001F8 
           seqkill                 000001FC        newIcsmOnClose (main)

    *************************************************************************

  FILE NAME : E:\cd\e71\Develop\Eraser\Menu\Release_ELKA\Obj\main.r79
  PROGRAM MODULE, NAME : main

  SEGMENTS IN THE MODULE
  ======================
DATA_Z
  Relative segment, address: CODE_AREA 00001204 - 00001207 (0x4 bytes), align: 2
  Segment part 10.            Intra module refs:   Segment part 106
           ENTRY                   ADDRESS         REF BY
           =====                   =======         ======
           CellX                   00001204 
    -------------------------------------------------------------------------
DATA_Z
  Relative segment, address: CODE_AREA 00001208 - 0000120B (0x4 bytes), align: 2
  Segment part 11.            Intra module refs:   Segment part 109
           ENTRY                   ADDRESS         REF BY
           =====                   =======         ======
           CellY                   00001208 
    -------------------------------------------------------------------------
DATA_Z
  Relative segment, address: CODE_AREA 0000120C - 0000120F (0x4 bytes), align: 2
  Segment part 12.            Intra module refs:   Segment part 103
                                                   Segment part 82
           ENTRY                   ADDRESS         REF BY
           =====                   =======         ======
           MsgBox                  0000120C 
    -------------------------------------------------------------------------
DATA_Z
  Relative segment, address: CODE_AREA 00001210 - 00001213 (0x4 bytes), align: 2
  Segment part 13.            Intra module refs:   Segment part 104
           ENTRY                   ADDRESS         REF BY
           =====                   =======         ======
           AddHeader               00001210 
    -------------------------------------------------------------------------
DATA_Z
  Relative segment, address: CODE_AREA 00001214 - 00001217 (0x4 bytes), align: 2
  Segment part 14.            Intra module refs:   main
           ENTRY                   ADDRESS         REF BY
           =====                   =======         ======
           m                       00001214 
    -------------------------------------------------------------------------
CODE
  Segment part 45. NOT NEEDED.
    -------------------------------------------------------------------------
CODE
  Segment part 46. NOT NEEDED.
           ENTRY                   ADDRESS         REF BY
           =====                   =======         ======
           ElfKiller               
               not allocated function
    -------------------------------------------------------------------------
CODE
  Segment part 47. NOT NEEDED.
    -------------------------------------------------------------------------
DATA_Z
  Relative segment, address: CODE_AREA 00001218 - 0000123F (0x28 bytes), align: 2
  Segment part 15.            Intra module refs:   main
           ENTRY                   ADDRESS         REF BY
           =====                   =======         ======
           icsmd                   00001218 
    -------------------------------------------------------------------------
DATA_Z
  Relative segment, address: CODE_AREA 00001240 - 00001243 (0x4 bytes), align: 2
  Segment part 16.            Intra module refs:   Segment part 111
           ENTRY                   ADDRESS         REF BY
           =====                   =======         ======
           oldIcsmOnClose          00001240 
    -------------------------------------------------------------------------
CODE
  Segment part 48. NOT NEEDED.
           ENTRY                   ADDRESS         REF BY
           =====                   =======         ======
           _WriteLog               
               not allocated function
    -------------------------------------------------------------------------
CODE
  Segment part 49. NOT NEEDED.
    -------------------------------------------------------------------------
DATA_Z
  Relative segment, address: CODE_AREA 00001244 - 00001247 (0x4 bytes), align: 2
  Segment part 17.            Intra module refs:   Segment part 19
                                                   UpdateHeader
           ENTRY                   ADDRESS         REF BY
           =====                   =======         ======
           MHico                   00001244 
    -------------------------------------------------------------------------
DATA_I
  Relative segment, address: DATA_AREA 00000004 - 00000017 (0x14 bytes), align: 2
  Segment part 18.            Intra module refs:   Segment part 102
           ENTRY                   ADDRESS         REF BY
           =====                   =======         ======
           MHeader                 00000004 
    -------------------------------------------------------------------------
DATA_I
  Relative segment, address: DATA_AREA 00000018 - 00000023 (0xc bytes), align: 2
  Segment part 20.            Intra module refs:   Segment part 37
           ENTRY                   ADDRESS         REF BY
           =====                   =======         ======
           MSoftKeys               00000018 
    -------------------------------------------------------------------------
DATA_I
  Relative segment, address: DATA_AREA 00000024 - 0000003B (0x18 bytes), align: 2
  Segment part 22.            Intra module refs:   Segment part 25
           ENTRY                   ADDRESS         REF BY
           =====                   =======         ======
           Msk                     00000024 
    -------------------------------------------------------------------------
DATA_I
  Relative segment, address: DATA_AREA 0000003C - 00000043 (0x8 bytes), align: 2
  Segment part 24.            Intra module refs:   Segment part 37
           ENTRY                   ADDRESS         REF BY
           =====                   =======         ======
           Mskt                    0000003C 
    -------------------------------------------------------------------------
DATA_Z
  Relative segment, address: CODE_AREA 00001248 - 00001257 (0x10 bytes), align: 2
  Segment part 26.            Intra module refs:   Segment part 87
           ENTRY                   ADDRESS         REF BY
           =====                   =======         ======
           tmr                     00001248 
    -------------------------------------------------------------------------
DATA_I
  Segment part 27. NOT NEEDED.
           ENTRY                   ADDRESS         REF BY
           =====                   =======         ======
           hs                      
    -------------------------------------------------------------------------
DATA_Z
  Relative segment, address: CODE_AREA 00001258 - 0000125B (0x4 bytes), align: 2
  Segment part 29.            Intra module refs:   Segment part 67
           ENTRY                   ADDRESS         REF BY
           =====                   =======         ======
           pic_n                   00001258 
    -------------------------------------------------------------------------
DATA_I
  Relative segment, address: DATA_AREA 00000044 - 00000047 (0x4 bytes), align: 2
  Segment part 30.            Intra module refs:   Segment part 88
           ENTRY                   ADDRESS         REF BY
           =====                   =======         ======
           pos                     00000044 
    -------------------------------------------------------------------------
DATA_Z
  Relative segment, address: CODE_AREA 0000125C - 0000125F (0x4 bytes), align: 2
  Segment part 32.            Intra module refs:   Segment part 110
           ENTRY                   ADDRESS         REF BY
           =====                   =======         ======
           items                   0000125C 
    -------------------------------------------------------------------------
DATA_Z
  Relative segment, address: CODE_AREA 00001260 - 00001263 (0x4 bytes), align: 2
  Segment part 33.            Intra module refs:   Segment part 105
           ENTRY                   ADDRESS         REF BY
           =====                   =======         ======
           ItemsCount              00001260 
    -------------------------------------------------------------------------
CODE
  Relative segment, address: CODE_AREA 00000200 - 00000257 (0x58 bytes), align: 2
  Segment part 50.            Intra module refs:   GetFunctionPointByName
           ENTRY                   ADDRESS         REF BY
           =====                   =======         ======
           strncmpNoCase           00000200 
               stack 1 = 00000000 ( 00000004 )
    -------------------------------------------------------------------------
CODE
  Segment part 51. NOT NEEDED.
    -------------------------------------------------------------------------
CODE
  Segment part 52. NOT NEEDED.
           ENTRY                   ADDRESS         REF BY
           =====                   =======         ======
           strcmp_nocase           
               not allocated function
    -------------------------------------------------------------------------
CODE
  Segment part 53. NOT NEEDED.
    -------------------------------------------------------------------------
CODE
  Relative segment, address: CODE_AREA 00000258 - 000002B3 (0x5c bytes), align: 2
  Segment part 54.            Intra module refs:   RunBM2
           ENTRY                   ADDRESS         REF BY
           =====                   =======         ======
           GetFunctionPointByName
                                   00000258 
               stack 1 = 00000000 ( 00000010 )
    -------------------------------------------------------------------------
CODE
  Segment part 55. NOT NEEDED.
    -------------------------------------------------------------------------
CODE
  Relative segment, address: CODE_AREA 000002B4 - 000002C7 (0x14 bytes), align: 2
  Segment part 56.            Intra module refs:   RunBM2
           ENTRY                   ADDRESS         REF BY
           =====                   =======         ======
           run_address             000002B4 
               stack 1 = 00000000 ( 00000004 )
    -------------------------------------------------------------------------
CODE
  Segment part 57. NOT NEEDED.
    -------------------------------------------------------------------------
CODE
  Segment part 58. NOT NEEDED.
           ENTRY                   ADDRESS         REF BY
           =====                   =======         ======
           run_shortcut            
               not allocated function
    -------------------------------------------------------------------------
CODE
  Segment part 59. NOT NEEDED.
    -------------------------------------------------------------------------
CODE
  Relative segment, address: CODE_AREA 000002C8 - 0000030B (0x44 bytes), align: 2
  Segment part 60.            Intra module refs:   RunBM2
           ENTRY                   ADDRESS         REF BY
           =====                   =======         ======
           chr2num                 000002C8 
    -------------------------------------------------------------------------
CODE
  Segment part 61. NOT NEEDED.
    -------------------------------------------------------------------------
CODE
  Relative segment, address: CODE_AREA 0000030C - 000004DF (0x1d4 bytes), align: 2
  Segment part 62.            Intra module refs:   MOnKey
           ENTRY                   ADDRESS         REF BY
           =====                   =======         ======
           RunBM2                  0000030C 
               stack 1 = 00000000 ( 0000003C )
    -------------------------------------------------------------------------
CODE
  Segment part 63. NOT NEEDED.
    -------------------------------------------------------------------------
CODE
  Relative segment, address: CODE_AREA 000004E0 - 00000513 (0x34 bytes), align: 2
  Segment part 64.            Intra module refs:   Segment part 68
           ENTRY                   ADDRESS         REF BY
           =====                   =======         ======
           PickNumTmr              000004E0 
               stack 1 = 00000000 ( 00000004 )
    -------------------------------------------------------------------------
CODE
  Segment part 65. NOT NEEDED.
    -------------------------------------------------------------------------
CODE
  Relative segment, address: CODE_AREA 00000514 - 00000543 (0x30 bytes), align: 2
  Segment part 66.            Intra module refs:   MGHook
                                                   MOnKey
           ENTRY                   ADDRESS         REF BY
           =====                   =======         ======
           TmrReset                00000514 
               stack 1 = 00000000 ( 00000008 )
    -------------------------------------------------------------------------
CODE
  Relative segment, address: CODE_AREA 00000544 - 00000547 (0x4 bytes), align: 2
  Segment part 67.            Intra module refs:   PickNumTmr
                                                   TmrReset
    -------------------------------------------------------------------------
CODE
  Relative segment, address: CODE_AREA 00000548 - 0000054B (0x4 bytes), align: 2
  Segment part 68.            Intra module refs:   PickNumTmr
                                                   TmrReset
    -------------------------------------------------------------------------
CODE
  Segment part 69. NOT NEEDED.
    -------------------------------------------------------------------------
CODE
  Relative segment, address: CODE_AREA 0000054C - 00000583 (0x38 bytes), align: 2
  Segment part 70.            Intra module refs:   NOnRedraw
                                                   UpdateHeader
           ENTRY                   ADDRESS         REF BY
           =====                   =======         ======
           CalcPic                 0000054C 
               stack 1 = 00000000 ( 0000000C )
    -------------------------------------------------------------------------
CODE
  Segment part 71. NOT NEEDED.
    -------------------------------------------------------------------------
CODE
  Relative segment, address: CODE_AREA 00000584 - 000005DB (0x58 bytes), align: 2
  Segment part 72.            Intra module refs:   MGHook
                                                   MOnKey
           ENTRY                   ADDRESS         REF BY
           =====                   =======         ======
           UpdateHeader            00000584 
               stack 1 = 00000000 ( 00000010 )
    -------------------------------------------------------------------------
CODE
  Segment part 73. NOT NEEDED.
    -------------------------------------------------------------------------
DATA_Z
  Relative segment, address: CODE_AREA 00001264 - 00001267 (0x4 bytes), align: 2
  Segment part 34.            Intra module refs:   Segment part 77
           ENTRY                   ADDRESS         REF BY
           =====                   =======         ======
           OOnRedraw               00001264 
    -------------------------------------------------------------------------
CODE
  Relative segment, address: CODE_AREA 000005DC - 0000072F (0x154 bytes), align: 2
  Segment part 74.            Intra module refs:   MGHook
           ENTRY                   ADDRESS         REF BY
           =====                   =======         ======
           NOnRedraw               000005DC 
               stack 1 = 00000000 ( 00000028 )
    -------------------------------------------------------------------------
CODE
  Segment part 75. NOT NEEDED.
    -------------------------------------------------------------------------
DATA_Z
  Relative segment, address: CODE_AREA 00001268 - 00001293 (0x2c bytes), align: 2
  Segment part 35.            Intra module refs:   MGHook
           ENTRY                   ADDRESS         REF BY
           =====                   =======         ======
           NGuiMeths               00001268 
    -------------------------------------------------------------------------
CODE
  Relative segment, address: CODE_AREA 00000730 - 000007BF (0x90 bytes), align: 2
  Segment part 76.            Intra module refs:   Segment part 37
           ENTRY                   ADDRESS         REF BY
           =====                   =======         ======
           MGHook                  00000730 
               stack 1 = 00000000 ( 0000000C )
    -------------------------------------------------------------------------
CODE
  Relative segment, address: CODE_AREA 000007C0 - 000007C3 (0x4 bytes), align: 2
  Segment part 77.            Intra module refs:   MGHook
                                                   NOnRedraw
    -------------------------------------------------------------------------
CODE
  Segment part 78. NOT NEEDED.
    -------------------------------------------------------------------------
CODE
  Relative segment, address: CODE_AREA 000007C4 - 00000957 (0x194 bytes), align: 2
  Segment part 79.            Intra module refs:   Segment part 37
           ENTRY                   ADDRESS         REF BY
           =====                   =======         ======
           MOnKey                  000007C4 
               stack 1 = 00000000 ( 00000010 )
    -------------------------------------------------------------------------
CODE
  Segment part 80. NOT NEEDED.
    -------------------------------------------------------------------------
DATA_I
  Relative segment, address: DATA_AREA 00000048 - 0000007F (0x38 bytes), align: 2
  Segment part 36.            Intra module refs:   MOnCreate
           ENTRY                   ADDRESS         REF BY
           =====                   =======         ======
           MMenu                   00000048 
    -------------------------------------------------------------------------
DATA_C
  Relative segment, address: CODE_AREA 0000112C - 0000113B (0x10 bytes), align: 2
  Segment part 2.             Intra module refs:   main
    -------------------------------------------------------------------------
DATA_C
  Segment part 3. NOT NEEDED.
    -------------------------------------------------------------------------
DATA_C
  Relative segment, address: CODE_AREA 0000113C - 00001143 (0x8 bytes), align: 2
  Segment part 4.             Intra module refs:   Segment part 23
    -------------------------------------------------------------------------
DATA_C
  Relative segment, address: CODE_AREA 000011E9 - 000011E9 (0x1 bytes), align: 0
  Segment part 5.             Intra module refs:   Segment part 23
    -------------------------------------------------------------------------
DATA_C
  Segment part 6. NOT NEEDED.
    -------------------------------------------------------------------------
DATA_C
  Relative segment, address: CODE_AREA 00001144 - 0000114B (0x8 bytes), align: 2
  Segment part 7.             Intra module refs:   LoadItems
    -------------------------------------------------------------------------
DATA_C
  Relative segment, address: CODE_AREA 0000114C - 00001157 (0xc bytes), align: 2
  Segment part 8.             Intra module refs:   LoadItems
    -------------------------------------------------------------------------
DATA_C
  Segment part 9. NOT NEEDED.
    -------------------------------------------------------------------------
DATA_C
  Relative segment, address: CODE_AREA 00001158 - 0000115B (0x4 bytes), align: 2
  Segment part 38.            Intra module refs:   MAINCSM
           ENTRY                   ADDRESS         REF BY
           =====                   =======         ======
           minus11                 00001158 
    -------------------------------------------------------------------------
DATA_Z
  Relative segment, address: CODE_AREA 00001294 - 000013AB (0x118 bytes), align: 2
  Segment part 39.            Intra module refs:   MAINCSM
           ENTRY                   ADDRESS         REF BY
           =====                   =======         ======
           maincsm_name_body       00001294 
    -------------------------------------------------------------------------
DATA_Z
  Relative segment, address: CODE_AREA 000013AC - 000013AF (0x4 bytes), align: 2
  Segment part 40.            Intra module refs:   hook
           ENTRY                   ADDRESS         REF BY
           =====                   =======         ======
           MCSMid                  000013AC 
    -------------------------------------------------------------------------
CODE
  Relative segment, address: CODE_AREA 00000958 - 00000977 (0x20 bytes), align: 2
  Segment part 81.            Intra module refs:   MAINCSM
           ENTRY                   ADDRESS         REF BY
           =====                   =======         ======
           MOnCreate               00000959 
               stack 1 = 00000000 ( 0000000C )
    -------------------------------------------------------------------------
CODE
  Relative segment, address: CODE_AREA 00000978 - 0000097B (0x4 bytes), align: 2
  Segment part 82.            Intra module refs:   MOnCreate
    -------------------------------------------------------------------------
CODE
  Segment part 83. NOT NEEDED.
    -------------------------------------------------------------------------
CODE
  Relative segment, address: CODE_AREA 0000097C - 0000099B (0x20 bytes), align: 2
  Segment part 84.            Intra module refs:   MAINCSM
           ENTRY                   ADDRESS         REF BY
           =====                   =======         ======
           MOnMsg                  0000097D 
               stack 1 = 00000000 ( 00000004 )
    -------------------------------------------------------------------------
CODE
  Segment part 85. NOT NEEDED.
    -------------------------------------------------------------------------
CODE
  Relative segment, address: CODE_AREA 0000099C - 000009B7 (0x1c bytes), align: 2
  Segment part 86.            Intra module refs:   MAINCSM
           ENTRY                   ADDRESS         REF BY
           =====                   =======         ======
           MOnClose                0000099C 
               stack 1 = 00000000 ( 00000004 )
    -------------------------------------------------------------------------
CODE
  Relative segment, address: CODE_AREA 000009B8 - 000009BB (0x4 bytes), align: 2
  Segment part 87.            Intra module refs:   MGHook
                                                   MOnClose
                                                   MOnKey
                                                   PickNumTmr
                                                   TmrReset
    -------------------------------------------------------------------------
CODE
  Relative segment, address: CODE_AREA 000009BC - 000009BF (0x4 bytes), align: 2
  Segment part 88.            Intra module refs:   MOnClose
                                                   MOnKey
                                                   NOnRedraw
                                                   UpdateHeader
    -------------------------------------------------------------------------
CODE
  Segment part 89. NOT NEEDED.
    -------------------------------------------------------------------------
DATA_C
  Relative segment, address: CODE_AREA 0000115C - 00001197 (0x3c bytes), align: 2
  Segment part 41.            Intra module refs:   hook
                                                   main
           ENTRY                   ADDRESS         REF BY
           =====                   =======         ======
           MAINCSM                 0000115C 
    -------------------------------------------------------------------------
DATA_Z
  Relative segment, address: CODE_AREA 000013B0 - 000013BF (0x10 bytes), align: 2
  Segment part 42.            Intra module refs:   Segment part 114
           ENTRY                   ADDRESS         REF BY
           =====                   =======         ======
           errtmr                  000013B0 
    -------------------------------------------------------------------------
DATA_Z
  Relative segment, address: CODE_AREA 000013C0 - 000013C3 (0x4 bytes), align: 2
  Segment part 43.            Intra module refs:   ErrTmr
           ENTRY                   ADDRESS         REF BY
           =====                   =======         ======
           errgui                  000013C0 
    -------------------------------------------------------------------------
CODE
  Relative segment, address: CODE_AREA 000009C0 - 00000A27 (0x68 bytes), align: 2
  Segment part 90.            Intra module refs:   Segment part 113
           ENTRY                   ADDRESS         REF BY
           =====                   =======         ======
           ErrTmr                  000009C0 
               stack 1 = 00000000 ( 00000008 )
    -------------------------------------------------------------------------
CODE
  Segment part 91. NOT NEEDED.
    -------------------------------------------------------------------------
CODE
  Relative segment, address: CODE_AREA 00000A28 - 00000ACF (0xa8 bytes), align: 2
  Segment part 92.            Intra module refs:   Segment part 112
           ENTRY                   ADDRESS         REF BY
           =====                   =======         ======
           hook                    00000A28 
               stack 1 = 00000000 ( 00000038 )
    -------------------------------------------------------------------------
CODE
  Segment part 93. NOT NEEDED.
    -------------------------------------------------------------------------
CODE
  Relative segment, address: CODE_AREA 00000AD0 - 00000AFF (0x30 bytes), align: 2
  Segment part 94.            Intra module refs:   main
           ENTRY                   ADDRESS         REF BY
           =====                   =======         ======
           newIcsmOnClose          00000AD0 
               stack 1 = 00000000 ( 00000008 )
    -------------------------------------------------------------------------
CODE
  Relative segment, address: CODE_AREA 00000B00 - 00000B03 (0x4 bytes), align: 2
  Segment part 95.            Intra module refs:   newIcsmOnClose
    -------------------------------------------------------------------------
CODE
  Segment part 96. NOT NEEDED.
    -------------------------------------------------------------------------
CODE
  Relative segment, address: CODE_AREA 00000B04 - 00000B43 (0x40 bytes), align: 2
  Segment part 97.            Intra module refs:   main
           ENTRY                   ADDRESS         REF BY
           =====                   =======         ======
           GetBLAddr               00000B05 
               stack 1 = 00000000 ( 0000000C )
    -------------------------------------------------------------------------
CODE
  Segment part 98. NOT NEEDED.
    -------------------------------------------------------------------------
CODE
  Relative segment, address: CODE_AREA 00000B44 - 00000C37 (0xf4 bytes), align: 2
  Segment part 99.            Intra module refs:   MOnKey
                                                   main
           ENTRY                   ADDRESS         REF BY
           =====                   =======         ======
           LoadItems               00000B44 
               stack 1 = 00000000 ( 00000244 )
    -------------------------------------------------------------------------
CODE
  Segment part 100. NOT NEEDED.
    -------------------------------------------------------------------------
CODE
  Relative segment, address: CODE_AREA 00000C38 - 00000DD7 (0x1a0 bytes), align: 2
  Segment part 101.
           ENTRY                   ADDRESS         REF BY
           =====                   =======         ======
           main                    00000C38        Absolute parts (?ABS_ENTRY_MOD)
               stack 1 = 00000000 ( 0000000C )
    -------------------------------------------------------------------------
CODE
  Relative segment, address: CODE_AREA 00000DD8 - 00000DDB (0x4 bytes), align: 2
  Segment part 102.           Intra module refs:   MGHook
                                                   main
    -------------------------------------------------------------------------
CODE
  Relative segment, address: CODE_AREA 00000DDC - 00000DDF (0x4 bytes), align: 2
  Segment part 103.           Intra module refs:   main
    -------------------------------------------------------------------------
CODE
  Relative segment, address: CODE_AREA 00000DE0 - 00000DE3 (0x4 bytes), align: 2
  Segment part 104.           Intra module refs:   MGHook
                                                   main
    -------------------------------------------------------------------------
CODE
  Relative segment, address: CODE_AREA 00000DE4 - 00000DE7 (0x4 bytes), align: 2
  Segment part 105.           Intra module refs:   MOnKey
                                                   NOnRedraw
                                                   main
    -------------------------------------------------------------------------
CODE
  Relative segment, address: CODE_AREA 00000DE8 - 00000DEB (0x4 bytes), align: 2
  Segment part 106.           Intra module refs:   MOnKey
                                                   NOnRedraw
                                                   main
    -------------------------------------------------------------------------
CODE
  Relative segment, address: CODE_AREA 00000DEC - 00000DEF (0x4 bytes), align: 2
  Segment part 107.           Intra module refs:   MOnKey
                                                   NOnRedraw
                                                   main
    -------------------------------------------------------------------------
CODE
  Relative segment, address: CODE_AREA 00000DF0 - 00000DF3 (0x4 bytes), align: 2
  Segment part 108.           Intra module refs:   MOnKey
                                                   NOnRedraw
                                                   main
    -------------------------------------------------------------------------
CODE
  Relative segment, address: CODE_AREA 00000DF4 - 00000DF7 (0x4 bytes), align: 2
  Segment part 109.           Intra module refs:   MOnKey
                                                   NOnRedraw
                                                   main
    -------------------------------------------------------------------------
CODE
  Relative segment, address: CODE_AREA 00000DF8 - 00000DFB (0x4 bytes), align: 2
  Segment part 110.           Intra module refs:   LoadItems
                                                   NOnRedraw
                                                   RunBM2
                                                   UpdateHeader
                                                   main
    -------------------------------------------------------------------------
CODE
  Relative segment, address: CODE_AREA 00000DFC - 00000DFF (0x4 bytes), align: 2
  Segment part 111.           Intra module refs:   main
                                                   newIcsmOnClose
    -------------------------------------------------------------------------
CODE
  Relative segment, address: CODE_AREA 00000E00 - 00000E03 (0x4 bytes), align: 2
  Segment part 112.           Intra module refs:   main
                                                   newIcsmOnClose
    -------------------------------------------------------------------------
CODE
  Relative segment, address: CODE_AREA 00000E04 - 00000E07 (0x4 bytes), align: 2
  Segment part 113.           Intra module refs:   ErrTmr
                                                   main
    -------------------------------------------------------------------------
CODE
  Relative segment, address: CODE_AREA 00000E08 - 00000E0B (0x4 bytes), align: 2
  Segment part 114.           Intra module refs:   ErrTmr
                                                   main
    -------------------------------------------------------------------------
CODE
  Segment part 115. NOT NEEDED.
    -------------------------------------------------------------------------
CODE
  Segment part 116. NOT NEEDED.Intra module refs   CalcPic
    -------------------------------------------------------------------------
CODE
  Segment part 117. NOT NEEDED.Intra module refs   MOnKey
                                                   NOnRedraw
                                                   main
    -------------------------------------------------------------------------
CODE
  Segment part 118. NOT NEEDED.Intra module refs   MOnKey
                                                   main
    -------------------------------------------------------------------------
CODE
  Segment part 119. NOT NEEDED.Intra module refs   newIcsmOnClose
    -------------------------------------------------------------------------
DATA_Z
  Relative segment, address: CODE_AREA 000013C4 - 000013D3 (0x10 bytes), align: 2
  Segment part 44.            Intra module refs:   main
    -------------------------------------------------------------------------
CSTACK
  Segment part 1. NOT NEEDED.
    -------------------------------------------------------------------------
DATA_ID
  Relative segment, address: CODE_AREA 00000004 - 00000017 (0x14 bytes), align: 2
  Segment part 19.            Intra module refs:   MHeader
    -------------------------------------------------------------------------
DATA_ID
  Relative segment, address: CODE_AREA 00000018 - 00000023 (0xc bytes), align: 2
  Segment part 21.            Intra module refs:   MSoftKeys
    -------------------------------------------------------------------------
DATA_ID
  Relative segment, address: CODE_AREA 00000024 - 0000003B (0x18 bytes), align: 2
  Segment part 23.            Intra module refs:   Msk
    -------------------------------------------------------------------------
DATA_ID
  Relative segment, address: CODE_AREA 0000003C - 00000043 (0x8 bytes), align: 2
  Segment part 25.            Intra module refs:   Mskt
    -------------------------------------------------------------------------
DATA_ID
  Segment part 28. NOT NEEDED.
    -------------------------------------------------------------------------
DATA_ID
  Relative segment, address: CODE_AREA 00000044 - 00000047 (0x4 bytes), align: 2
  Segment part 31.            Intra module refs:   pos
    -------------------------------------------------------------------------
DATA_ID
  Relative segment, address: CODE_AREA 00000048 - 0000007F (0x38 bytes), align: 2
  Segment part 37.            Intra module refs:   MMenu
    -------------------------------------------------------------------------
DATA_ID
  Segment part 120. TENTATIVE. Used definition from conf_loader
           ENTRY                   ADDRESS         REF BY
           =====                   =======         ======
           ?*?DATA_ID              
    -------------------------------------------------------------------------
INITTAB
  Segment part 121. TENTATIVE. Used definition from conf_loader
           ENTRY                   ADDRESS         REF BY
           =====                   =======         ======
           ?init?tab?DATA_I        
    -------------------------------------------------------------------------
INITTAB
  Relative segment, address: CODE_AREA 000011F8 - 00001203 (0xc bytes), align: 2
  Segment part 122. ROOT.
           ENTRY                   ADDRESS         REF BY
           =====                   =======         ======
           ?init?tab?DATA_Z        000011F8 

    *************************************************************************

  FILE NAME : E:\cd\e71\Develop\Embedded Workbench 4.0 Evaluation\ARM\LIB\dl5tpainl8n.r79
  LIBRARY MODULE, NAME : ?errno

  SEGMENTS IN THE MODULE
  ======================
DATA_Z
  Relative segment, address: CODE_AREA 000013D4 - 000013DB (0x8 bytes), align: 2
  Segment part 2.             Intra module refs:   _Geterrno
           ENTRY                   ADDRESS         REF BY
           =====                   =======         ======
           _Errno                  000013D8 
           _Tls_setup__Errno       000013D4 
    -------------------------------------------------------------------------
CODE
  Segment part 3. NOT NEEDED.
    -------------------------------------------------------------------------
CODE
  Relative segment, address: CODE_AREA 00000E0C - 00000E2F (0x24 bytes), align: 2
  Segment part 4.
           ENTRY                   ADDRESS         REF BY
           =====                   =======         ======
           _Geterrno               00000E0C        _Stoul (?xstoul)
               stack 1 = 00000000 ( 00000008 )
    -------------------------------------------------------------------------
CSTACK
  Segment part 1. NOT NEEDED.
    -------------------------------------------------------------------------
INITTAB
  Segment part 5. TENTATIVE. Used definition from main
           ENTRY                   ADDRESS         REF BY
           =====                   =======         ======
           ?init?tab?DATA_Z        

    -------------------------------------------------------------------------
  LIBRARY MODULE, NAME : ?memchr

  SEGMENTS IN THE MODULE
  ======================
CODE
  Segment part 3. NOT NEEDED.
           ENTRY                   ADDRESS         REF BY
           =====                   =======         ======
           memchr                  
               not allocated function
    -------------------------------------------------------------------------
CODE
  Segment part 4. NOT NEEDED.
    -------------------------------------------------------------------------
DATA_C
  Segment part 2. NOT NEEDED.
           ENTRY                   ADDRESS         REF BY
           =====                   =======         ======
           _Instansiator_memchr    
    -------------------------------------------------------------------------
CODE
  Relative segment, address: CODE_AREA 00000E30 - 00000E5B (0x2c bytes), align: 2
  Segment part 5.
           ENTRY                   ADDRESS         REF BY
           =====                   =======         ======
           _Memchr                 00000E30        _Stoul (?xstoul)
    -------------------------------------------------------------------------
CSTACK
  Segment part 1. NOT NEEDED.

    -------------------------------------------------------------------------
  LIBRARY MODULE, NAME : ?strtoul

  SEGMENTS IN THE MODULE
  ======================
CODE
  Relative segment, address: CODE_AREA 00000E5C - 00000E6B (0x10 bytes), align: 2
  Segment part 3.
           ENTRY                   ADDRESS         REF BY
           =====                   =======         ======
           strtoul                 00000E5C        CalcPic (main)
               stack 1 = 00000000 ( 00000008 )
    -------------------------------------------------------------------------
CODE
  Segment part 4. NOT NEEDED. Intra module refs:   strtoul
    -------------------------------------------------------------------------
DATA_C
  Segment part 2. NOT NEEDED.
           ENTRY                   ADDRESS         REF BY
           =====                   =======         ======
           _Instansiator_strtoul   
    -------------------------------------------------------------------------
CSTACK
  Segment part 1. NOT NEEDED.

    -------------------------------------------------------------------------
  LIBRARY MODULE, NAME : ?xstoul

  SEGMENTS IN THE MODULE
  ======================
DATA_C
  Relative segment, address: CODE_AREA 00001198 - 000011E7 (0x50 bytes), align: 2
  Segment part 2.             Intra module refs:   _Stoul
    -------------------------------------------------------------------------
CODE
  Segment part 3. NOT NEEDED.
    -------------------------------------------------------------------------
CODE
  Relative segment, address: CODE_AREA 00000E6C - 00001017 (0x1ac bytes), align: 2
  Segment part 4.
           ENTRY                   ADDRESS         REF BY
           =====                   =======         ======
           _Stoul                  00000E6C        strtoul (?strtoul)
               stack 1 = 00000000 ( 00000030 )
    -------------------------------------------------------------------------
CODE
  Segment part 5. NOT NEEDED. Intra module refs:   _Stoul
    -------------------------------------------------------------------------
CODE
  Segment part 6. NOT NEEDED. Intra module refs:   _Stoul
    -------------------------------------------------------------------------
CODE
  Segment part 7. NOT NEEDED. Intra module refs:   _Stoul
    -------------------------------------------------------------------------
CSTACK
  Segment part 1. NOT NEEDED.

    -------------------------------------------------------------------------
  LIBRARY MODULE, NAME : ?div_module

  SEGMENTS IN THE MODULE
  ======================
CODE
  Segment part 0. NOT NEEDED.
           ENTRY                   ADDRESS         REF BY
           =====                   =======         ======
           ??divu8_t               
    -------------------------------------------------------------------------
CODE
  Segment part 1. NOT NEEDED.
           ENTRY                   ADDRESS         REF BY
           =====                   =======         ======
           ??divu8_a               
    -------------------------------------------------------------------------
CODE
  Segment part 2. NOT NEEDED.
           ENTRY                   ADDRESS         REF BY
           =====                   =======         ======
           ??divu16_t              
    -------------------------------------------------------------------------
CODE
  Segment part 3. NOT NEEDED.
           ENTRY                   ADDRESS         REF BY
           =====                   =======         ======
           ??divu16_a              
    -------------------------------------------------------------------------
CODE
  Segment part 4. NOT NEEDED.
           ENTRY                   ADDRESS         REF BY
           =====                   =======         ======
           ??divu32_t              
    -------------------------------------------------------------------------
CODE
  Relative segment, address: CODE_AREA 00001018 - 00001023 (0xc bytes), align: 2
  Segment part 5.
           ENTRY                   ADDRESS         REF BY
           =====                   =======         ======
           ??divu32_a              00001018        MOnKey (main)
                                                   NOnRedraw (main)
                                                   _Stoul (?xstoul)
                                                   main (main)
    -------------------------------------------------------------------------
CODE
  Segment part 6. NOT NEEDED.
           ENTRY                   ADDRESS         REF BY
           =====                   =======         ======
           ??div8_t                
    -------------------------------------------------------------------------
CODE
  Segment part 7. NOT NEEDED.
           ENTRY                   ADDRESS         REF BY
           =====                   =======         ======
           ??div8_a                
    -------------------------------------------------------------------------
CODE
  Segment part 8. NOT NEEDED.
           ENTRY                   ADDRESS         REF BY
           =====                   =======         ======
           ??div16_t               
    -------------------------------------------------------------------------
CODE
  Segment part 9. NOT NEEDED.
           ENTRY                   ADDRESS         REF BY
           =====                   =======         ======
           ??div16_a               
    -------------------------------------------------------------------------
CODE
  Segment part 10. NOT NEEDED.
           ENTRY                   ADDRESS         REF BY
           =====                   =======         ======
           ??div32_t               
    -------------------------------------------------------------------------
CODE
  Segment part 11. NOT NEEDED.
           ENTRY                   ADDRESS         REF BY
           =====                   =======         ======
           ??div32_a               
    -------------------------------------------------------------------------
CODE
  Relative segment, address: CODE_AREA 00001024 - 000010FB (0xd8 bytes), align: 2
  Segment part 12.            Intra module refs:   ??divu32_a




                ****************************************
                *                                      *
                *            MODULE SUMMARY            *
                *                                      *
                ****************************************

Module            CODE   DATA
------            ----   ----
                 (Rel)  (Rel)
?div_module        228
?errno              44
?memchr             44
?strtoul            16
?xstoul            508
conf_loader        429      4
  + shared          12
config_data        648
func                 8
main             3 781    124
  + shared          12
N/A (alignment)
------           -----    ---
Total:           5 730    128


                ****************************************
                *                                      *
                *              CALL GRAPH              *
                *                                      *
                ****************************************

  ->Sub-tree of type: Indirectly called function tree that does not make
                    : indirect calls (Is not an interrupt and is not flagged
                    : as not overlayable)
                             CSTACK
    | Stack used (prev) :  00000000
  01  PickNumTmr
      | Stack used (prev) :  00000000
      | + function block  :  00000004
  <-Sub-tree of type: Indirectly called function tree that does not make
                    : indirect calls (Is not an interrupt and is not flagged
                    : as not overlayable)
    | Stack used          :  00000004


  ->Sub-tree of type: Indirectly called function tree that does not make
                    : indirect calls (Is not an interrupt and is not flagged
                    : as not overlayable)
                             CSTACK
    | Stack used (prev) :  00000000
  01  NOnRedraw
      | Stack used (prev) :  00000000
      | + function block  :  00000028
  <-Sub-tree of type: Indirectly called function tree that does not make
                    : indirect calls (Is not an interrupt and is not flagged
                    : as not overlayable)
    | Stack used          :  00000028


  ->Sub-tree of type: Indirectly called function tree that does not make
                    : indirect calls (Is not an interrupt and is not flagged
                    : as not overlayable)
                             CSTACK
    | Stack used (prev) :  00000000
  01  MGHook
      | Stack used (prev) :  00000000
      | + function block  :  0000000C
  <-Sub-tree of type: Indirectly called function tree that does not make
                    : indirect calls (Is not an interrupt and is not flagged
                    : as not overlayable)
    | Stack used          :  0000000C


  ->Sub-tree of type: Indirectly called function tree that does not make
                    : indirect calls (Is not an interrupt and is not flagged
                    : as not overlayable)
                             CSTACK
    | Stack used (prev) :  00000000
  01  MOnKey
      | Stack used (prev) :  00000000
      | + function block  :  00000010
  <-Sub-tree of type: Indirectly called function tree that does not make
                    : indirect calls (Is not an interrupt and is not flagged
                    : as not overlayable)
    | Stack used          :  00000010


  ->Sub-tree of type: Indirectly called function tree that does not make
                    : indirect calls (Is not an interrupt and is not flagged
                    : as not overlayable)
                             CSTACK
    | Stack used (prev) :  00000000
  01  MOnCreate
      | Stack used (prev) :  00000000
      | + function block  :  0000000C
  <-Sub-tree of type: Indirectly called function tree that does not make
                    : indirect calls (Is not an interrupt and is not flagged
                    : as not overlayable)
    | Stack used          :  0000000C


  ->Sub-tree of type: Indirectly called function tree that does not make
                    : indirect calls (Is not an interrupt and is not flagged
                    : as not overlayable)
                             CSTACK
    | Stack used (prev) :  00000000
  01  MOnMsg
      | Stack used (prev) :  00000000
      | + function block  :  00000004
  <-Sub-tree of type: Indirectly called function tree that does not make
                    : indirect calls (Is not an interrupt and is not flagged
                    : as not overlayable)
    | Stack used          :  00000004


  ->Sub-tree of type: Indirectly called function tree that does not make
                    : indirect calls (Is not an interrupt and is not flagged
                    : as not overlayable)
                             CSTACK
    | Stack used (prev) :  00000000
  01  MOnClose
      | Stack used (prev) :  00000000
      | + function block  :  00000004
  <-Sub-tree of type: Indirectly called function tree that does not make
                    : indirect calls (Is not an interrupt and is not flagged
                    : as not overlayable)
    | Stack used          :  00000004


  ->Sub-tree of type: Indirectly called function tree that does not make
                    : indirect calls (Is not an interrupt and is not flagged
                    : as not overlayable)
                             CSTACK
    | Stack used (prev) :  00000000
  01  ErrTmr
      | Stack used (prev) :  00000000
      | + function block  :  00000008
  <-Sub-tree of type: Indirectly called function tree that does not make
                    : indirect calls (Is not an interrupt and is not flagged
                    : as not overlayable)
    | Stack used          :  00000008


  ->Sub-tree of type: Indirectly called function tree that does not make
                    : indirect calls (Is not an interrupt and is not flagged
                    : as not overlayable)
                             CSTACK
    | Stack used (prev) :  00000000
  01  hook
      | Stack used (prev) :  00000000
      | + function block  :  00000038
  <-Sub-tree of type: Indirectly called function tree that does not make
                    : indirect calls (Is not an interrupt and is not flagged
                    : as not overlayable)
    | Stack used          :  00000038


  ->Sub-tree of type: Indirectly called function tree that does not make
                    : indirect calls (Is not an interrupt and is not flagged
                    : as not overlayable)
                             CSTACK
    | Stack used (prev) :  00000000
  01  newIcsmOnClose
      | Stack used (prev) :  00000000
      | + function block  :  00000008
  <-Sub-tree of type: Indirectly called function tree that does not make
                    : indirect calls (Is not an interrupt and is not flagged
                    : as not overlayable)
    | Stack used          :  00000008


  ->Sub-tree of type: Indirectly called function tree that does not make
                    : indirect calls (Is not an interrupt and is not flagged
                    : as not overlayable)
                             CSTACK
    | Stack used (prev) :  00000000
  01  strtoul
      | Stack used (prev) :  00000000
      | + function block  :  00000008
  <-Sub-tree of type: Indirectly called function tree that does not make
                    : indirect calls (Is not an interrupt and is not flagged
                    : as not overlayable)
    | Stack used          :  00000008


  ->Sub-tree of type: Function tree
                             CSTACK
    | Stack used (prev) :  00000038
  01  SaveConfigData
      | Stack used (prev) :  00000038
      | + function block  :  00000018
  <-Sub-tree of type: Function tree
    | Stack used          :  00000050


  ->Sub-tree of type: Function tree
                             CSTACK
    | Stack used (prev) :  00000050
  01  LoadConfigData
      | Stack used (prev) :  00000050
      | + function block  :  00000028
  <-Sub-tree of type: Function tree
    | Stack used          :  00000078


  ->Sub-tree of type: Function tree
                             CSTACK
    | Stack used (prev) :  00000078
  01  InitConfig
      | Stack used (prev) :  00000078
      | + function block  :  00000004
  <-Sub-tree of type: Function tree
    | Stack used          :  0000007C


  ->Sub-tree of type: Function tree
                             CSTACK
    | Stack used (prev) :  0000007C
  01  strncmpNoCase
      | Stack used (prev) :  0000007C
      | + function block  :  00000004
  <-Sub-tree of type: Function tree
    | Stack used          :  00000080


  ->Sub-tree of type: Function tree
                             CSTACK
    | Stack used (prev) :  00000080
  01  GetFunctionPointByName
      | Stack used (prev) :  00000080
      | + function block  :  00000010
  <-Sub-tree of type: Function tree
    | Stack used          :  00000090


  ->Sub-tree of type: Function tree
                             CSTACK
    | Stack used (prev) :  00000090
  01  run_address
      | Stack used (prev) :  00000090
      | + function block  :  00000004
  <-Sub-tree of type: Function tree
    | Stack used          :  00000094


  ->Sub-tree of type: Function tree
                             CSTACK
    | Stack used (prev) :  00000094
  01  chr2num
      | Stack used (prev) :  00000094
      | + function block  :  00000000
  <-Sub-tree of type: Function tree
    | Stack used          :  00000094


  ->Sub-tree of type: Function tree
                             CSTACK
    | Stack used (prev) :  00000094
  01  RunBM2
      | Stack used (prev) :  00000094
      | + function block  :  0000003C
  <-Sub-tree of type: Function tree
    | Stack used          :  000000D0


  ->Sub-tree of type: Function tree
                             CSTACK
    | Stack used (prev) :  000000D0
  01  TmrReset
      | Stack used (prev) :  000000D0
      | + function block  :  00000008
  <-Sub-tree of type: Function tree
    | Stack used          :  000000D8


  ->Sub-tree of type: Function tree
                             CSTACK
    | Stack used (prev) :  000000D8
  01  CalcPic
      | Stack used (prev) :  000000D8
      | + function block  :  0000000C
  <-Sub-tree of type: Function tree
    | Stack used          :  000000E4


  ->Sub-tree of type: Function tree
                             CSTACK
    | Stack used (prev) :  000000E4
  01  UpdateHeader
      | Stack used (prev) :  000000E4
      | + function block  :  00000010
  <-Sub-tree of type: Function tree
    | Stack used          :  000000F4


  ->Sub-tree of type: Function tree
                             CSTACK
    | Stack used (prev) :  000000F4
  01  GetBLAddr
      | Stack used (prev) :  000000F4
      | + function block  :  0000000C
  <-Sub-tree of type: Function tree
    | Stack used          :  00000100


  ->Sub-tree of type: Function tree
                             CSTACK
    | Stack used (prev) :  00000100
  01  LoadItems
      | Stack used (prev) :  00000100
      | + function block  :  00000244
  <-Sub-tree of type: Function tree
    | Stack used          :  00000344


  ->Sub-tree of type: Function tree
                             CSTACK
    | Stack used (prev) :  00000344
  01  main
      | Stack used (prev) :  00000344
      | + function block  :  0000000C
  <-Sub-tree of type: Function tree
    | Stack used          :  00000350


  ->Sub-tree of type: Function tree
                             CSTACK
    | Stack used (prev) :  00000350
  01  _Geterrno
      | Stack used (prev) :  00000350
      | + function block  :  00000008
  <-Sub-tree of type: Function tree
    | Stack used          :  00000358


  ->Sub-tree of type: Function tree
                             CSTACK
    | Stack used (prev) :  00000358
  01  _Memchr
      | Stack used (prev) :  00000358
      | + function block  :  00000000
  <-Sub-tree of type: Function tree
    | Stack used          :  00000358


  ->Sub-tree of type: Function tree
                             CSTACK
    | Stack used (prev) :  00000358
  01  _Stoul
      | Stack used (prev) :  00000358
      | + function block  :  00000030
  <-Sub-tree of type: Function tree
    | Stack used          :  00000388




                ****************************************
                *                                      *
                *      SEGMENTS IN ADDRESS ORDER       *
                *                                      *
                ****************************************


SEGMENT              SPACE    START ADDRESS   END ADDRESS     SIZE  TYPE  ALIGN
=======              =====    =============   ===========     ====  ====  =====
ELFBEGIN             CODE_AREA           00000000                     rel    0
DATA_ID              CODE_AREA      00000000 - 0000007F          80   rel    2
START                CODE_AREA           00000080                     dse    0
CODE                 CODE_AREA      00000080 - 000010FB        107C   rel    2
DATA_C               CODE_AREA      000010FC - 000011E9          EE   rel    2
INITTAB              CODE_AREA      000011EC - 00001203          18   rel    2
DATA_Z               CODE_AREA      00001204 - 000013DB         1D8   rel    2
MYSEG                CODE_AREA           000013DC                     dse    0
DATA_N               CODE_AREA           000013DC                     dse    0
CONFIG_C             CODE_AREA      000013DC - 00001663         288   rel    2
DATA_I               DATA_AREA      00000000 - 0000007F          80   rel    2

                ****************************************
                *                                      *
                *        END OF CROSS REFERENCE        *
                *                                      *
                ****************************************

 5 730 bytes of CODE memory
   128 bytes of DATA memory

Errors: none
Warnings: none

