##############################################################################
#                                                                            #
# IAR ARM ANSI C/C++ Compiler V4.42A/W32 EVALUATION    24/Aug/2009  11:30:06 #
# Copyright 1999-2005 IAR Systems. All rights reserved.                      #
#                                                                            #
#    Cpu mode        =  interwork                                            #
#    Endian          =  little                                               #
#    Stack alignment =  4                                                    #
#    Source file     =  C:\arm\xtask3 mod scrooling\main.c                   #
#    Command line    =  "C:\arm\xtask3 mod scrooling\main.c" -D NEWSGOLD -D  #
#                       ELKA -lC "C:\arm\xtask3 mod                          #
#                       scrooling\Release_ELKA\List\" -o "C:\arm\xtask3 mod  #
#                       scrooling\Release_ELKA\Obj\" -s9 --no_unroll         #
#                       --no_clustering --cpu_mode arm --endian little       #
#                       --cpu ARM926EJ-S --stack_align 4 --interwork -e      #
#                       --fpu None --dlib_config "C:\arm2\Embedded           #
#                       Workbench 4.0 Evaluation\ARM\LIB\dl5tpainl8n.h" -I   #
#                       "C:\arm2\Embedded Workbench 4.0                      #
#                       Evaluation\ARM\INC\" --inline_threshold=2            #
#    List file       =  C:\arm\xtask3 mod scrooling\Release_ELKA\List\main.l #
#                       st                                                   #
#    Object file     =  C:\arm\xtask3 mod scrooling\Release_ELKA\Obj\main.r7 #
#                       9                                                    #
#                                                                            #
#                                                                            #
##############################################################################

C:\arm\xtask3 mod scrooling\main.c
      1          #include "..\inc\swilib.h"
      2          #include "..\inc\xtask_ipc.h"
      3          #include "swaper.h"
      4          #include "gui.h"
      5          #include "main.h"
      6          #include "conf_loader.h"
      7          

   \                                 In segment DATA_Z, align 4, align-sorted
      8          char background_img[64];
   \                     background_img:
   \   00000000                      DS8 64

   \                                 In segment DATA_Z, align 4, align-sorted
      9          char cursor_img[64];
   \                     cursor_img:
   \   00000000                      DS8 64

   \                                 In segment DATA_Z, align 4, align-sorted
     10          char icon_list_path[64];
   \                     icon_list_path:
   \   00000000                      DS8 64

   \                                 In segment DATA_Z, align 4, align-sorted
     11          char bokmark_list_path[64];
   \                     bokmark_list_path:
   \   00000000                      DS8 64

   \                                 In segment DATA_Z, align 4, align-sorted
     12          char selection_img[64];
   \                     selection_img:
   \   00000000                      DS8 64

   \                                 In segment DATA_Z, align 4, align-sorted
     13          char tasks_img[64];
   \                     tasks_img:
   \   00000000                      DS8 64

   \                                 In segment DATA_Z, align 4, align-sorted
     14          char bookmarks_img[64];
   \                     bookmarks_img:
   \   00000000                      DS8 64

   \                                 In segment DATA_Z, align 4, align-sorted
     15          char shutdown1[128];
   \                     shutdown1:
   \   00000000                      DS8 128

   \                                 In segment DATA_Z, align 4, align-sorted
     16          char shutdown2[128];
   \                     shutdown2:
   \   00000000                      DS8 128

   \                                 In segment DATA_Z, align 4, align-sorted
     17          char reboot1[128];
   \                     reboot1:
   \   00000000                      DS8 128

   \                                 In segment DATA_Z, align 4, align-sorted
     18          char reboot2[128];
   \                     reboot2:
   \   00000000                      DS8 128

   \                                 In segment DATA_Z, align 4, align-sorted
     19          int book_show;
   \                     book_show:
   \   00000000                      DS8 4

   \                                 In segment DATA_I, align 4, align-sorted
     20          int time_not=1;
   \                     time_not:
   \   00000000                      DS8 4
   \   00000004                      REQUIRE `?<Initializer for time_not>`
     21          extern const int style;

   \                                 In segment DATA_Z, align 4, align-sorted
     22          GBSTMR start_tmr;
   \                     start_tmr:
   \   00000000                      DS8 16
     23          extern const char ctasks[4];
     24          extern const char cdaemons[4];
     25          extern const char cinfo[4];
     26          extern const char turnoff_path[128];
     27          extern const int cleseri;
     28          extern const char path[128];

   \                                 In segment CODE, align 4, keep-with-next
     29          void init_turnoff()
     30          {
     31            sprintf(shutdown1, "%s%s", turnoff_path, "shutdown1.png");
   \                     init_turnoff:
   \   00000000   58309FE5           LDR      R3,??init_turnoff_0  ;; `?<Constant "shutdown1.png">`
   \   00000004   ........           LDR      R0,??DataTable0  ;; shutdown1
   \   00000008   30402DE9           PUSH     {R4,R5,LR}
   \   0000000C   ........           LDR      R4,??DataTable21  ;; `?<Constant "%s%s">`
   \   00000010   4C509FE5           LDR      R5,??init_turnoff_0+0x4  ;; turnoff_path
   \   00000014   0410A0E1           MOV      R1,R4
   \   00000018   0520A0E1           MOV      R2,R5
   \   0000001C   160000EF           SWI      +22
     32            sprintf(shutdown2, "%s%s", turnoff_path, "shutdown2.png");
   \   00000020   40309FE5           LDR      R3,??init_turnoff_0+0x8  ;; `?<Constant "shutdown2.png">`
   \   00000024   ........           LDR      R0,??DataTable2  ;; shutdown2
   \   00000028   0520A0E1           MOV      R2,R5
   \   0000002C   0410A0E1           MOV      R1,R4
   \   00000030   160000EF           SWI      +22
     33            sprintf(reboot1, "%s%s", turnoff_path, "reboot1.png");
   \   00000034   30309FE5           LDR      R3,??init_turnoff_0+0xC  ;; `?<Constant "reboot1.png">`
   \   00000038   ........           LDR      R0,??DataTable3  ;; reboot1
   \   0000003C   0520A0E1           MOV      R2,R5
   \   00000040   0410A0E1           MOV      R1,R4
   \   00000044   160000EF           SWI      +22
     34            sprintf(reboot2, "%s%s", turnoff_path, "reboot2.png");
   \   00000048   20309FE5           LDR      R3,??init_turnoff_0+0x10  ;; `?<Constant "reboot2.png">`
   \   0000004C   ........           LDR      R0,??DataTable4  ;; reboot2
   \   00000050   0520A0E1           MOV      R2,R5
   \   00000054   0410A0E1           MOV      R1,R4
   \   00000058   160000EF           SWI      +22
     35          }
   \   0000005C   3080BDE8           POP      {R4,R5,PC}       ;; return
   \                     ??init_turnoff_0:
   \   00000060   ........           DC32     `?<Constant "shutdown1.png">`
   \   00000064   ........           DC32     turnoff_path
   \   00000068   ........           DC32     `?<Constant "shutdown2.png">`
   \   0000006C   ........           DC32     `?<Constant "reboot1.png">`
   \   00000070   ........           DC32     `?<Constant "reboot2.png">`
     36          
     37          
     38          //=================================bookmarks

   \                                 In segment DATA_Z, align 4, align-sorted
     39          char BM1NAME[32];
   \                     BM1NAME:
   \   00000000                      DS8 32

   \                                 In segment DATA_Z, align 4, align-sorted
     40          char BM1FILE[128];
   \                     BM1FILE:
   \   00000000                      DS8 128

   \                                 In segment DATA_Z, align 4, align-sorted
     41          char BM2NAME[32];
   \                     BM2NAME:
   \   00000000                      DS8 32

   \                                 In segment DATA_Z, align 4, align-sorted
     42          char BM2FILE[128];
   \                     BM2FILE:
   \   00000000                      DS8 128

   \                                 In segment DATA_Z, align 4, align-sorted
     43          char BM3NAME[32];
   \                     BM3NAME:
   \   00000000                      DS8 32

   \                                 In segment DATA_Z, align 4, align-sorted
     44          char BM3FILE[128];
   \                     BM3FILE:
   \   00000000                      DS8 128

   \                                 In segment DATA_Z, align 4, align-sorted
     45          char BM4NAME[32];
   \                     BM4NAME:
   \   00000000                      DS8 32

   \                                 In segment DATA_Z, align 4, align-sorted
     46          char BM4FILE[128];
   \                     BM4FILE:
   \   00000000                      DS8 128

   \                                 In segment DATA_Z, align 4, align-sorted
     47          char BM5NAME[32];
   \                     BM5NAME:
   \   00000000                      DS8 32

   \                                 In segment DATA_Z, align 4, align-sorted
     48          char BM5FILE[128];
   \                     BM5FILE:
   \   00000000                      DS8 128

   \                                 In segment DATA_Z, align 4, align-sorted
     49          char BM6NAME[32];
   \                     BM6NAME:
   \   00000000                      DS8 32

   \                                 In segment DATA_Z, align 4, align-sorted
     50          char BM6FILE[128];
   \                     BM6FILE:
   \   00000000                      DS8 128

   \                                 In segment DATA_Z, align 4, align-sorted
     51          char BM7NAME[32];
   \                     BM7NAME:
   \   00000000                      DS8 32

   \                                 In segment DATA_Z, align 4, align-sorted
     52          char BM7FILE[128];
   \                     BM7FILE:
   \   00000000                      DS8 128

   \                                 In segment DATA_Z, align 4, align-sorted
     53          char BM8NAME[32];
   \                     BM8NAME:
   \   00000000                      DS8 32

   \                                 In segment DATA_Z, align 4, align-sorted
     54          char BM8FILE[128];
   \                     BM8FILE:
   \   00000000                      DS8 128

   \                                 In segment DATA_Z, align 4, align-sorted
     55          char BM9NAME[32];
   \                     BM9NAME:
   \   00000000                      DS8 32

   \                                 In segment DATA_Z, align 4, align-sorted
     56          char BM9FILE[128];
   \                     BM9FILE:
   \   00000000                      DS8 128

   \                                 In segment DATA_Z, align 4, align-sorted
     57          char BM0NAME[32];
   \                     BM0NAME:
   \   00000000                      DS8 32

   \                                 In segment DATA_Z, align 4, align-sorted
     58          char BM0FILE[128];
   \                     BM0FILE:
   \   00000000                      DS8 128
     59          

   \                                 In segment CODE, align 4, keep-with-next
     60          void Start_bookmark(int casa)
     61          {
   \                     Start_bookmark:
   \   00000000   10402DE9           PUSH     {R4,LR}
     62            switch(casa)
   \   00000004   010040E2           SUB      R0,R0,#+1
   \   00000008   090050E3           CMP      R0,#+9
   \   0000000C   1080BD88           POPHI    {R4,PC}
   \   00000010   011F8FE2           ADR      R1,??Start_bookmark_0
   \   00000014   0010D1E7           LDRB     R1,[R1, R0]
   \   00000018   01F18FE0           ADD      PC,PC,R1, LSL #+2
   \                     ??Start_bookmark_0:
   \   0000001C   02061216           DC8      +2,+6,+18,+22
   \   00000020   1A1E2226           DC8      +26,+30,+34,+38
   \   00000024   2A2E0000           DC8      +42,+46,+0,+0
     63            {
     64            case 1:
     65              {
     66              WSHDR *elfname=AllocWS(256);
   \                     ??Start_bookmark_1:
   \   00000028   400FA0E3           MOV      R0,#+256
   \   0000002C   250100EF           SWI      +293
     67              wsprintf(elfname, BM1FILE);
   \   00000030   ........           LDR      R1,??DataTable5  ;; BM1FILE
   \   00000034   020000EA           B        ??Start_bookmark_2
     68              ExecuteFile(elfname,NULL,NULL);
     69              FreeWS(elfname);
     70              }
     71              break;
     72            case 2:
     73              {
     74              WSHDR *elfname=AllocWS(256);
   \                     ??Start_bookmark_3:
   \   00000038   400FA0E3           MOV      R0,#+256
   \   0000003C   250100EF           SWI      +293
     75              wsprintf(elfname, BM2FILE);
   \   00000040   ........           LDR      R1,??DataTable6  ;; BM2FILE
   \                     ??Start_bookmark_2:
   \   00000044   0040A0E1           MOV      R4,R0
   \   00000048   240100EF           SWI      +292
     76              ExecuteFile(elfname,NULL,NULL);
   \   0000004C   0020A0E3           MOV      R2,#+0
   \   00000050   0010A0E3           MOV      R1,#+0
   \   00000054   0400A0E1           MOV      R0,R4
   \   00000058   940000EF           SWI      +148
     77              FreeWS(elfname);
   \   0000005C   0400A0E1           MOV      R0,R4
   \   00000060   290100EF           SWI      +297
   \   00000064   1080BDE8           POP      {R4,PC}
     78              }
     79              break;
     80            case 3:
     81              {
     82              WSHDR *elfname=AllocWS(256);
   \                     ??Start_bookmark_4:
   \   00000068   400FA0E3           MOV      R0,#+256
   \   0000006C   250100EF           SWI      +293
     83              wsprintf(elfname, BM3FILE);
   \   00000070   ........           LDR      R1,??DataTable7  ;; BM3FILE
   \   00000074   F2FFFFEA           B        ??Start_bookmark_2
     84              ExecuteFile(elfname,NULL,NULL);
     85              FreeWS(elfname);
     86              }
     87              break;
     88            case 4:
     89              {
     90              WSHDR *elfname=AllocWS(256);
   \                     ??Start_bookmark_5:
   \   00000078   400FA0E3           MOV      R0,#+256
   \   0000007C   250100EF           SWI      +293
     91              wsprintf(elfname, BM4FILE);
   \   00000080   ........           LDR      R1,??DataTable8  ;; BM4FILE
   \   00000084   EEFFFFEA           B        ??Start_bookmark_2
     92              ExecuteFile(elfname,NULL,NULL);
     93              FreeWS(elfname);
     94              }
     95              break;
     96            case 5:
     97              {
     98              WSHDR *elfname=AllocWS(256);
   \                     ??Start_bookmark_6:
   \   00000088   400FA0E3           MOV      R0,#+256
   \   0000008C   250100EF           SWI      +293
     99              wsprintf(elfname, BM5FILE);
   \   00000090   ........           LDR      R1,??DataTable9  ;; BM5FILE
   \   00000094   EAFFFFEA           B        ??Start_bookmark_2
    100              ExecuteFile(elfname,NULL,NULL);
    101              FreeWS(elfname);
    102              }
    103              break;
    104            case 6:
    105              {
    106              WSHDR *elfname=AllocWS(256);
   \                     ??Start_bookmark_7:
   \   00000098   400FA0E3           MOV      R0,#+256
   \   0000009C   250100EF           SWI      +293
    107              wsprintf(elfname, BM6FILE);
   \   000000A0   ........           LDR      R1,??DataTable10  ;; BM6FILE
   \   000000A4   E6FFFFEA           B        ??Start_bookmark_2
    108              ExecuteFile(elfname,NULL,NULL);
    109              FreeWS(elfname);
    110              }
    111              break;
    112            case 7:
    113              {
    114              WSHDR *elfname=AllocWS(256);
   \                     ??Start_bookmark_8:
   \   000000A8   400FA0E3           MOV      R0,#+256
   \   000000AC   250100EF           SWI      +293
    115              wsprintf(elfname, BM7FILE);
   \   000000B0   ........           LDR      R1,??DataTable11  ;; BM7FILE
   \   000000B4   E2FFFFEA           B        ??Start_bookmark_2
    116              ExecuteFile(elfname,NULL,NULL);
    117              FreeWS(elfname);
    118              }
    119              break;
    120            case 8:
    121              {
    122              WSHDR *elfname=AllocWS(256);
   \                     ??Start_bookmark_9:
   \   000000B8   400FA0E3           MOV      R0,#+256
   \   000000BC   250100EF           SWI      +293
    123              wsprintf(elfname, BM8FILE);
   \   000000C0   ........           LDR      R1,??DataTable12  ;; BM8FILE
   \   000000C4   DEFFFFEA           B        ??Start_bookmark_2
    124              ExecuteFile(elfname,NULL,NULL);
    125              FreeWS(elfname);
    126              }
    127              break;
    128            case 9:
    129              {
    130              WSHDR *elfname=AllocWS(256);
   \                     ??Start_bookmark_10:
   \   000000C8   400FA0E3           MOV      R0,#+256
   \   000000CC   250100EF           SWI      +293
    131              wsprintf(elfname, BM9FILE);
   \   000000D0   ........           LDR      R1,??DataTable13  ;; BM9FILE
   \   000000D4   DAFFFFEA           B        ??Start_bookmark_2
    132              ExecuteFile(elfname,NULL,NULL);
    133              FreeWS(elfname);
    134              }
    135              break;
    136            case 10:
    137              {
    138              WSHDR *elfname=AllocWS(256);
   \                     ??Start_bookmark_11:
   \   000000D8   400FA0E3           MOV      R0,#+256
   \   000000DC   250100EF           SWI      +293
    139              wsprintf(elfname, BM0FILE);
   \   000000E0   ........           LDR      R1,??DataTable14  ;; BM0FILE
   \   000000E4   0040A0E1           MOV      R4,R0
   \   000000E8   240100EF           SWI      +292
    140              ExecuteFile(elfname,NULL,NULL);
   \   000000EC   0020A0E3           MOV      R2,#+0
   \   000000F0   0010A0E3           MOV      R1,#+0
   \   000000F4   0400A0E1           MOV      R0,R4
   \   000000F8   940000EF           SWI      +148
    141              FreeWS(elfname);
   \   000000FC   0400A0E1           MOV      R0,R4
   \   00000100   290100EF           SWI      +297
    142              }
    143              break;
    144            }
    145          }
   \                     ??Start_bookmark_12:
   \   00000104   1080BDE8           POP      {R4,PC}          ;; return
    146          //=================================bookmarks
    147          
    148          

   \                                 In segment DATA_I, align 4, align-sorted
    149          IMGHDR screen2={0,0,8,""};
   \                     screen2:
   \   00000000                      DS8 12
   \   0000000C                      REQUIRE `?<Initializer for screen2>`

   \                                 In segment DATA_Z, align 4, align-sorted
    150          int tasks;
   \                     tasks:
   \   00000000                      DS8 4

   \                                 In segment DATA_Z, align 4, align-sorted
    151          char icon_text[32768];
   \                     icon_text:
   \   00000000                      DS8 32768

   \                                 In segment DATA_I, align 4, align-sorted
    152          int task_list=1;
   \                     task_list:
   \   00000000                      DS8 4
   \   00000004                      REQUIRE `?<Initializer for task_list>`
    153          

   \                                 In segment CODE, align 4, keep-with-next
    154          void DrwImg3(IMGHDR *img, int x, int y, char *pen, char *brush)
    155          {
   \                     DrwImg3:
   \   00000000   70402DE9           PUSH     {R4-R6,LR}
   \   00000004   2CD04DE2           SUB      SP,SP,#+44
   \   00000008   3C609DE5           LDR      R6,[SP, #+60]
   \   0000000C   0040A0E1           MOV      R4,R0
    156            RECT rc;
    157            DRWOBJ drwobj;
    158            StoreXYWHtoRECT(&rc,x,y,img->w,img->h);
   \   00000010   B200D4E1           LDRH     R0,[R4, #+2]
   \   00000014   0350A0E1           MOV      R5,R3
   \   00000018   01002DE9           PUSH     {R0}
   \   0000001C   B030D4E1           LDRH     R3,[R4, #+0]
   \   00000020   04008DE2           ADD      R0,SP,#+4
   \   00000024   330100EF           SWI      +307
    159            SetPropTo_Obj5(&drwobj,&rc,0,img);
   \   00000028   0430A0E1           MOV      R3,R4
   \   0000002C   0020A0E3           MOV      R2,#+0
   \   00000030   04108DE2           ADD      R1,SP,#+4
   \   00000034   0C008DE2           ADD      R0,SP,#+12
   \   00000038   510100EF           SWI      +337
    160            SetColor(&drwobj,pen,brush);
   \   0000003C   0620A0E1           MOV      R2,R6
   \   00000040   0510A0E1           MOV      R1,R5
   \   00000044   0C008DE2           ADD      R0,SP,#+12
   \   00000048   4B0100EF           SWI      +331
    161            DrawObject(&drwobj);
   \   0000004C   0C008DE2           ADD      R0,SP,#+12
   \   00000050   2A0100EF           SWI      +298
    162          }
   \   00000054   30D08DE2           ADD      SP,SP,#+48
   \   00000058   7080BDE8           POP      {R4-R6,PC}       ;; return
    163          

   \                                 In segment CODE, align 4, keep-with-next
    164          void DoScreen2()
    165          {
   \                     DoScreen2:
   \   00000000   F0402DE9           PUSH     {R4-R7,LR}
    166              int ScrH=ScreenH();
    167              int ScrW=ScreenW();
    168              char *ms=RamScreenBuffer();
    169              screen2.w=ScrW;
   \   00000004   ........           LDR      R7,??DataTable25  ;; screen2
   \   00000008   898100EF           SWI      +33161
   \   0000000C   0040A0E1           MOV      R4,R0
   \   00000010   888100EF           SWI      +33160
   \   00000014   0050A0E1           MOV      R5,R0
   \   00000018   E08000EF           SWI      +32992
   \   0000001C   0060A0E1           MOV      R6,R0
    170              screen2.h=ScrH;
    171              screen2.bitmap=malloc(ScrW*ScrH*2);
   \   00000020   940500E0           MUL      R0,R4,R5
   \   00000024   B050C7E1           STRH     R5,[R7, #+0]
   \   00000028   B240C7E1           STRH     R4,[R7, #+2]
   \   0000002C   8040A0E1           LSL      R4,R0,#+1
   \   00000030   0400A0E1           MOV      R0,R4
   \   00000034   140000EF           SWI      +20
   \   00000038   080087E5           STR      R0,[R7, #+8]
    172              memcpy(screen2.bitmap, ms, ScrW*ScrH*2);
   \   0000003C   0420A0E1           MOV      R2,R4
   \   00000040   0610A0E1           MOV      R1,R6
   \   00000044   1E0100EF           SWI      +286
    173          }
   \   00000048   F080BDE8           POP      {R4-R7,PC}       ;; return
    174          
    175          

   \                                 In segment DATA_C, align 4, align-sorted
    176          const int minus11=-11; // стремная константа =)
   \                     minus11:
   \   00000000   F5FFFFFF           DC32 -11

   \                                 In segment DATA_Z, align 4, align-sorted
    177          unsigned short maincsm_name_body[140];
   \                     maincsm_name_body:
   \   00000000                      DS8 280
    178          extern unsigned long  strtoul (const char *nptr,char **endptr,int base);
    179          

   \                                 In segment DATA_Z, align 4, align-sorted
    180          unsigned int MAINCSM_ID = 0;
   \                     MAINCSM_ID:
   \   00000000                      DS8 4
    181          
    182          typedef struct
    183          {
    184            CSM_RAM csm;
    185            int gui_id;
    186          }MAIN_CSM;
    187          
    188          typedef struct
    189          {
    190            GUI gui;
    191            WSHDR *ws1;
    192            WSHDR *ws2;
    193            int i1;
    194          }MAIN_GUI;
    195          
    196          extern NAMELIST * volatile nltop;

   \                                 In segment DATA_I, align 4, align-sorted
    197          int pos=1;
   \                     pos:
   \   00000000                      DS8 4
   \   00000004                      REQUIRE `?<Initializer for pos>`

   \                                 In segment DATA_I, align 4, align-sorted
    198          int total_pos=1;
   \                     total_pos:
   \   00000000                      DS8 4
   \   00000004                      REQUIRE `?<Initializer for total_pos>`

   \                                 In segment DATA_Z, align 4, align-sorted
    199          int total_d;
   \                     total_d:
   \   00000000                      DS8 4

   \                                 In segment DATA_Z, align 4, align-sorted
    200          int move_skip;
   \                     move_skip:
   \   00000000                      DS8 4
    201          void redrit(void);

   \                                 In segment DATA_Z, align 4, align-sorted
    202          int sm;
   \                     sm:
   \   00000000                      DS8 4

   \                                 In segment DATA_Z, align 4, align-sorted
    203          int forward;
   \                     forward:
   \   00000000                      DS8 4

   \                                 In segment DATA_Z, align 4, align-sorted
    204          int halt;
   \                     halt:
   \   00000000                      DS8 4

   \                                 In segment DATA_Z, align 4, align-sorted
    205          int shutd;
   \                     shutd:
   \   00000000                      DS8 4

   \                                 In segment DATA_Z, align 4, align-sorted
    206          int logout;
   \                     logout:
   \   00000000                      DS8 4
    207          
    208          #include "strings2.h"
    209          

   \                                 In segment DATA_Z, align 4, align-sorted
    210          WSHDR *data4;
   \                     data4:
   \   00000000                      DS8 4

   \                                 In segment DATA_Z, align 4, align-sorted
    211          WSHDR *data5;
   \                     data5:
   \   00000000                      DS8 4

   \                                 In segment DATA_Z, align 4, align-sorted
    212          int draw_rec;
   \                     draw_rec:
   \   00000000                      DS8 4

   \                                 In segment DATA_Z, align 4, align-sorted
    213          int this_rec;
   \                     this_rec:
   \   00000000                      DS8 4
    214          

   \                                 In segment CODE, align 4, keep-with-next
    215          void DrawProgress(WSHDR *dat, int casi)
    216          {
   \                     DrawProgress:
   \   00000000   F0432DE9           PUSH     {R4-R9,LR}
    217            if (casi)
   \   00000004   ........           LDR      R7,??DataTable16  ;; data4
   \   00000008   ........           LDR      R5,??DataTable17  ;; ctasks
   \   0000000C   68429FE5           LDR      R4,??DrawProgress_0  ;; this_rec
   \   00000010   0060A0E1           MOV      R6,R0
   \   00000014   000097E5           LDR      R0,[R7, #+0]
   \   00000018   000051E3           CMP      R1,#+0
   \   0000001C   6800000A           BEQ      ??DrawProgress_1
    218            {
    219              this_rec++;
   \   00000020   001094E5           LDR      R1,[R4, #+0]
   \   00000024   011081E2           ADD      R1,R1,#+1
   \   00000028   001084E5           STR      R1,[R4, #+0]
    220              wsprintf(data4, "Closing...");
   \   0000002C   4C129FE5           LDR      R1,??DrawProgress_0+0x4  ;; `?<Constant "Closing...">`
   \   00000030   240100EF           SWI      +292
    221              DrawScrollString(data4,17,97,100,97+GetFontYSIZE(11),1,11,TEXT_ALIGNLEFT,ctasks,GetPaletteAdrByColorIndex(23));
   \   00000034   1700A0E3           MOV      R0,#+23
   \   00000038   2E0100EF           SWI      +302
   \   0000003C   0080A0E1           MOV      R8,R0
   \   00000040   0B00A0E3           MOV      R0,#+11
   \   00000044   C50100EF           SWI      +453
   \   00000048   00012DE9           PUSH     {R8}
   \   0000004C   0510A0E1           MOV      R1,R5
   \   00000050   02002DE9           PUSH     {R1}
   \   00000054   610080E2           ADD      R0,R0,#+97
   \   00000058   6430A0E3           MOV      R3,#+100
   \   0000005C   6120A0E3           MOV      R2,#+97
   \   00000060   0110A0E3           MOV      R1,#+1
   \   00000064   02002DE9           PUSH     {R1}
   \   00000068   0B10A0E3           MOV      R1,#+11
   \   0000006C   02002DE9           PUSH     {R1}
   \   00000070   0110A0E3           MOV      R1,#+1
   \   00000074   02002DE9           PUSH     {R1}
   \   00000078   01002DE9           PUSH     {R0}
   \   0000007C   000097E5           LDR      R0,[R7, #+0]
   \   00000080   1110A0E3           MOV      R1,#+17
   \   00000084   070200EF           SWI      +519
    222              wsprintf(data4,"...............[OK]");
   \   00000088   000097E5           LDR      R0,[R7, #+0]
   \   0000008C   F0119FE5           LDR      R1,??DrawProgress_0+0x8  ;; `?<Constant "...............[OK]">`
   \   00000090   240100EF           SWI      +292
    223              DrawString(data4,115-Get_WS_width(data4,11),109,115+3,109+GetFontYSIZE(11)+1,11,0,ctasks,GetPaletteAdrByColorIndex(23));
   \   00000094   1700A0E3           MOV      R0,#+23
   \   00000098   2E0100EF           SWI      +302
   \   0000009C   0090A0E1           MOV      R9,R0
   \   000000A0   0B00A0E3           MOV      R0,#+11
   \   000000A4   C50100EF           SWI      +453
   \   000000A8   0080A0E1           MOV      R8,R0
   \   000000AC   000097E5           LDR      R0,[R7, #+0]
   \   000000B0   0B10A0E3           MOV      R1,#+11
   \   000000B4   080200EF           SWI      +520
   \   000000B8   00022DE9           PUSH     {R9}
   \   000000BC   0510A0E1           MOV      R1,R5
   \   000000C0   02002DE9           PUSH     {R1}
   \   000000C4   7630A0E3           MOV      R3,#+118
   \   000000C8   6D20A0E3           MOV      R2,#+109
   \   000000CC   0010A0E3           MOV      R1,#+0
   \   000000D0   02002DE9           PUSH     {R1}
   \   000000D4   0B10A0E3           MOV      R1,#+11
   \   000000D8   02002DE9           PUSH     {R1}
   \   000000DC   6E1088E2           ADD      R1,R8,#+110
   \   000000E0   02002DE9           PUSH     {R1}
   \   000000E4   731060E2           RSB      R1,R0,#+115
   \   000000E8   000097E5           LDR      R0,[R7, #+0]
   \   000000EC   4C0100EF           SWI      +332
   \   000000F0   2CD08DE2           ADD      SP,SP,#+44
    224              void *canv = BuildCanvas();
   \   000000F4   F18000EF           SWI      +33009
   \   000000F8   0070A0E1           MOV      R7,R0
    225              if(Get_WS_width(dat,11)<70)
   \   000000FC   0B10A0E3           MOV      R1,#+11
   \   00000100   0600A0E1           MOV      R0,R6
   \   00000104   080200EF           SWI      +520
   \   00000108   460050E3           CMP      R0,#+70
   \   0000010C   0B00A0E3           MOV      R0,#+11
   \   00000110   0A0000AA           BGE      ??DrawProgress_2
    226              DrawCanvas(canv,17,109,17+Get_WS_width(dat,11),109+GetFontYSIZE(11),1);
   \   00000114   C50100EF           SWI      +453
   \   00000118   0080A0E1           MOV      R8,R0
   \   0000011C   0B10A0E3           MOV      R1,#+11
   \   00000120   0600A0E1           MOV      R0,R6
   \   00000124   080200EF           SWI      +520
   \   00000128   0110A0E3           MOV      R1,#+1
   \   0000012C   02002DE9           PUSH     {R1}
   \   00000130   113080E2           ADD      R3,R0,#+17
   \   00000134   6D1088E2           ADD      R1,R8,#+109
   \   00000138   02002DE9           PUSH     {R1}
   \   0000013C   050000EA           B        ??DrawProgress_3
    227              else DrawCanvas(canv,17,109,87,109+GetFontYSIZE(11),1);
   \                     ??DrawProgress_2:
   \   00000140   C50100EF           SWI      +453
   \   00000144   0110A0E3           MOV      R1,#+1
   \   00000148   02002DE9           PUSH     {R1}
   \   0000014C   6D0080E2           ADD      R0,R0,#+109
   \   00000150   01002DE9           PUSH     {R0}
   \   00000154   5730A0E3           MOV      R3,#+87
   \                     ??DrawProgress_3:
   \   00000158   6D20A0E3           MOV      R2,#+109
   \   0000015C   1110A0E3           MOV      R1,#+17
   \   00000160   0700A0E1           MOV      R0,R7
   \   00000164   250000EF           SWI      +37
   \   00000168   08D08DE2           ADD      SP,SP,#+8
    228              DrawScrollString(dat,17,109,87,109+GetFontYSIZE(11),1,11,TEXT_ALIGNLEFT,ctasks,GetPaletteAdrByColorIndex(23)); 
   \   0000016C   1700A0E3           MOV      R0,#+23
   \   00000170   2E0100EF           SWI      +302
   \   00000174   0070A0E1           MOV      R7,R0
   \   00000178   0B00A0E3           MOV      R0,#+11
   \   0000017C   C50100EF           SWI      +453
   \   00000180   80002DE9           PUSH     {R7}
   \   00000184   20002DE9           PUSH     {R5}
   \   00000188   0110A0E3           MOV      R1,#+1
   \   0000018C   02002DE9           PUSH     {R1}
   \   00000190   6D0080E2           ADD      R0,R0,#+109
   \   00000194   5730A0E3           MOV      R3,#+87
   \   00000198   6D20A0E3           MOV      R2,#+109
   \   0000019C   0B10A0E3           MOV      R1,#+11
   \   000001A0   02002DE9           PUSH     {R1}
   \   000001A4   0110A0E3           MOV      R1,#+1
   \   000001A8   02002DE9           PUSH     {R1}
   \   000001AC   01002DE9           PUSH     {R0}
   \   000001B0   1110A0E3           MOV      R1,#+17
   \   000001B4   0600A0E1           MOV      R0,R6
   \   000001B8   070200EF           SWI      +519
   \   000001BC   18D08DE2           ADD      SP,SP,#+24
   \   000001C0   180000EA           B        ??DrawProgress_4
    229            }
    230            else
    231            {
    232              if(shutd) wsprintf(data4,"Shut down......");
   \                     ??DrawProgress_1:
   \   000001C4   ........           LDR      R1,??DataTable37  ;; shutd
   \   000001C8   001091E5           LDR      R1,[R1, #+0]
   \   000001CC   000051E3           CMP      R1,#+0
   \   000001D0   B0109F15           LDRNE    R1,??DrawProgress_0+0xC  ;; `?<Constant "Shut down......">`
    233              else wsprintf(data4,"Restarting......");
   \   000001D4   B0109F05           LDREQ    R1,??DrawProgress_0+0x10  ;; `?<Constant "Restarting......">`
   \   000001D8   240100EF           SWI      +292
    234              DrawString(data4,17,109,115,109+GetFontYSIZE(11)+1,11,0,ctasks,GetPaletteAdrByColorIndex(23));
   \   000001DC   1700A0E3           MOV      R0,#+23
   \   000001E0   2E0100EF           SWI      +302
   \   000001E4   0060A0E1           MOV      R6,R0
   \   000001E8   0B00A0E3           MOV      R0,#+11
   \   000001EC   C50100EF           SWI      +453
   \   000001F0   40002DE9           PUSH     {R6}
   \   000001F4   20002DE9           PUSH     {R5}
   \   000001F8   0010A0E3           MOV      R1,#+0
   \   000001FC   02002DE9           PUSH     {R1}
   \   00000200   6E0080E2           ADD      R0,R0,#+110
   \   00000204   7330A0E3           MOV      R3,#+115
   \   00000208   6D20A0E3           MOV      R2,#+109
   \   0000020C   0B10A0E3           MOV      R1,#+11
   \   00000210   02002DE9           PUSH     {R1}
   \   00000214   01002DE9           PUSH     {R0}
   \   00000218   000097E5           LDR      R0,[R7, #+0]
   \   0000021C   1110A0E3           MOV      R1,#+17
   \   00000220   4C0100EF           SWI      +332
   \   00000224   14D08DE2           ADD      SP,SP,#+20
    235            }
    236            DrawRectangle(18,125,(115 * this_rec)/draw_rec,135,0,GetPaletteAdrByColorIndex(23),GetPaletteAdrByColorIndex(4));
   \                     ??DrawProgress_4:
   \   00000228   0400A0E3           MOV      R0,#+4
   \   0000022C   2E0100EF           SWI      +302
   \   00000230   0050A0E1           MOV      R5,R0
   \   00000234   1700A0E3           MOV      R0,#+23
   \   00000238   2E0100EF           SWI      +302
   \   0000023C   20002DE9           PUSH     {R5}
   \   00000240   01002DE9           PUSH     {R0}
   \   00000244   7310A0E3           MOV      R1,#+115
   \   00000248   8730A0E3           MOV      R3,#+135
   \   0000024C   0000A0E3           MOV      R0,#+0
   \   00000250   01002DE9           PUSH     {R0}
   \   00000254   000094E5           LDR      R0,[R4, #+0]
   \   00000258   910000E0           MUL      R0,R1,R0
   \   0000025C   ........           LDR      R1,??DataTable34  ;; draw_rec
   \   00000260   001091E5           LDR      R1,[R1, #+0]
   \   00000264   ........           _BLF     ??div32_a,??rA??div32_a
   \   00000268   0120A0E1           MOV      R2,R1
   \   0000026C   7D10A0E3           MOV      R1,#+125
   \   00000270   1200A0E3           MOV      R0,#+18
   \   00000274   B40100EF           SWI      +436
    237          }
   \   00000278   F783BDE8           POP      {R0-R2,R4-R9,PC}  ;; return
   \                     ??DrawProgress_0:
   \   0000027C   ........           DC32     this_rec
   \   00000280   ........           DC32     `?<Constant "Closing...">`
   \   00000284   ........           DC32     `?<Constant "...............[OK]">`
   \   00000288   ........           DC32     `?<Constant "Shut down......">`
   \   0000028C   ........           DC32     `?<Constant "Restarting......">`
    238          

   \                                 In segment DATA_Z, align 4, align-sorted
    239          int zin;
   \                     zin:
   \   00000000                      DS8 4

   \                                 In segment DATA_I, align 4, align-sorted
    240          int init_rec=1;
   \                     init_rec:
   \   00000000                      DS8 4
   \   00000004                      REQUIRE `?<Initializer for init_rec>`
    241          

   \                                 In segment CODE, align 4, keep-with-next
    242          void task_list3()
    243          {
   \                     task_list3:
   \   00000000   F0412DE9           PUSH     {R4-R8,LR}
    244            DrwImg3(&screen2, 0, 0, NULL, NULL);
    245            sprintf(background_img,"%s%s",path,"background.png");
   \   00000004   ........           LDR      R4,??DataTable20  ;; background_img
   \   00000008   ........           LDR      R5,??DataTable21  ;; `?<Constant "%s%s">`
   \   0000000C   ........           LDR      R6,??DataTable22  ;; path
    246            sprintf(cursor_img,"%s%s",path,"cursor.png");
    247            sprintf(selection_img,"%s%s",path,"selection.png");
    248            sprintf(tasks_img,"%s%s",path,"tasks.png");
   \   00000010   ........           LDR      R7,??DataTable23  ;; tasks_img
    249            sprintf(bookmarks_img,"%s%s",path,"bookmarks.png");
   \   00000014   ........           LDR      R8,??DataTable24  ;; bookmarks_img
   \   00000018   0000A0E3           MOV      R0,#+0
   \   0000001C   01002DE9           PUSH     {R0}
   \   00000020   0030A0E3           MOV      R3,#+0
   \   00000024   0020A0E1           MOV      R2,R0
   \   00000028   0010A0E1           MOV      R1,R0
   \   0000002C   ........           LDR      R0,??DataTable25  ;; screen2
   \   00000030   ........           BL       DrwImg3
   \   00000034   ........           LDR      R3,??DataTable26  ;; `?<Constant "background.png">`
   \   00000038   0620A0E1           MOV      R2,R6
   \   0000003C   0510A0E1           MOV      R1,R5
   \   00000040   0400A0E1           MOV      R0,R4
   \   00000044   160000EF           SWI      +22
   \   00000048   ........           LDR      R3,??DataTable27  ;; `?<Constant "cursor.png">`
   \   0000004C   ........           LDR      R0,??DataTable28  ;; cursor_img
   \   00000050   0620A0E1           MOV      R2,R6
   \   00000054   0510A0E1           MOV      R1,R5
   \   00000058   160000EF           SWI      +22
   \   0000005C   ........           LDR      R3,??DataTable29  ;; `?<Constant "selection.png">`
   \   00000060   ........           LDR      R0,??DataTable30  ;; selection_img
   \   00000064   0620A0E1           MOV      R2,R6
   \   00000068   0510A0E1           MOV      R1,R5
   \   0000006C   160000EF           SWI      +22
   \   00000070   ........           LDR      R3,??DataTable31  ;; `?<Constant "tasks.png">`
   \   00000074   0620A0E1           MOV      R2,R6
   \   00000078   0510A0E1           MOV      R1,R5
   \   0000007C   0700A0E1           MOV      R0,R7
   \   00000080   160000EF           SWI      +22
   \   00000084   ........           LDR      R3,??DataTable32  ;; `?<Constant "bookmarks.png">`
   \   00000088   0620A0E1           MOV      R2,R6
   \   0000008C   0510A0E1           MOV      R1,R5
   \   00000090   0800A0E1           MOV      R0,R8
   \   00000094   160000EF           SWI      +22
    250            
    251            
    252            
    253            DrawImg(12, 26,(int)background_img);  //12,37
   \   00000098   0420A0E1           MOV      R2,R4
    254            DrawImg(83,40,(int)tasks_img);
    255            DrawImg(101,40,(int)bookmarks_img);
    256            total_d=GetNumberOfDialogs()-2;
   \   0000009C   ........           LDR      R4,??DataTable33  ;; total_d
   \   000000A0   1A10A0E3           MOV      R1,#+26
   \   000000A4   0C00A0E3           MOV      R0,#+12
   \   000000A8   230000EF           SWI      +35
   \   000000AC   0720A0E1           MOV      R2,R7
   \   000000B0   2810A0E3           MOV      R1,#+40
   \   000000B4   5300A0E3           MOV      R0,#+83
   \   000000B8   230000EF           SWI      +35
   \   000000BC   0820A0E1           MOV      R2,R8
   \   000000C0   2810A0E3           MOV      R1,#+40
   \   000000C4   6500A0E3           MOV      R0,#+101
   \   000000C8   230000EF           SWI      +35
   \   000000CC   ........           _BLF     GetNumberOfDialogs,??GetNumberOfDialogs??rA
   \   000000D0   020040E2           SUB      R0,R0,#+2
   \   000000D4   000084E5           STR      R0,[R4, #+0]
    257            if(init_rec) {draw_rec=total_d; init_rec=0;}
   \   000000D8   C0009FE5           LDR      R0,??task_list3_0  ;; init_rec
   \   000000DC   001090E5           LDR      R1,[R0, #+0]
   \   000000E0   04D08DE2           ADD      SP,SP,#+4
   \   000000E4   000051E3           CMP      R1,#+0
   \   000000E8   0400000A           BEQ      ??task_list3_1
   \   000000EC   ........           LDR      R1,??DataTable34  ;; draw_rec
   \   000000F0   002094E5           LDR      R2,[R4, #+0]
   \   000000F4   002081E5           STR      R2,[R1, #+0]
   \   000000F8   0010A0E3           MOV      R1,#+0
   \   000000FC   001080E5           STR      R1,[R0, #+0]
    258            NAMELIST *nl=nltop;
   \                     ??task_list3_1:
   \   00000100   ........           LDR      R0,??DataTable35  ;; nltop
   \   00000104   005090E5           LDR      R5,[R0, #+0]
    259            if(total_d>0)
   \   00000108   000094E5           LDR      R0,[R4, #+0]
   \   0000010C   010050E3           CMP      R0,#+1
   \   00000110   170000BA           BLT      ??task_list3_2
    260            {
    261              NAMELIST *p=nl;
    262              nl=p->next;
   \   00000114   005095E5           LDR      R5,[R5, #+0]
    263              zin=((CSM_RAM *)(nl->p))->id;
   \   00000118   84409FE5           LDR      R4,??task_list3_0+0x4  ;; zin
   \   0000011C   0C0095E5           LDR      R0,[R5, #+12]
   \   00000120   0C0090E5           LDR      R0,[R0, #+12]
   \   00000124   000084E5           STR      R0,[R4, #+0]
    264              if (zin==CSM_root()->idle_id) 
   \   00000128   068100EF           SWI      +33030
   \   0000012C   001094E5           LDR      R1,[R4, #+0]
   \   00000130   040090E5           LDR      R0,[R0, #+4]
   \   00000134   000051E1           CMP      R1,R0
   \   00000138   0300001A           BNE      ??task_list3_3
    265              {
    266                NAMELIST *p=nl;
    267                nl=p->next; 
   \   0000013C   005095E5           LDR      R5,[R5, #+0]
    268                zin=((CSM_RAM *)(nl->p))->id;
   \   00000140   0C0095E5           LDR      R0,[R5, #+12]
   \   00000144   0C0090E5           LDR      R0,[R0, #+12]
   \   00000148   000084E5           STR      R0,[R4, #+0]
    269              }
    270              DrawProgress(nl->name, 1);
   \                     ??task_list3_3:
   \   0000014C   080095E5           LDR      R0,[R5, #+8]
   \   00000150   0110A0E3           MOV      R1,#+1
   \   00000154   ........           BL       DrawProgress
    271              CloseCSM(zin);
   \   00000158   000094E5           LDR      R0,[R4, #+0]
   \   0000015C   FC0100EF           SWI      +508
    272              GBS_StartTimerProc(&start_tmr, 216, task_list3);
   \   00000160   40209FE5           LDR      R2,??task_list3_0+0x8  ;; task_list3
   \   00000164   ........           LDR      R0,??DataTable36  ;; start_tmr
   \   00000168   D810A0E3           MOV      R1,#+216
   \   0000016C   4D0000EF           SWI      +77
   \   00000170   F081BDE8           POP      {R4-R8,PC}
    273            }
    274            else
    275            {
    276              DrawProgress(NULL, 0);
   \                     ??task_list3_2:
   \   00000174   0010A0E3           MOV      R1,#+0
   \   00000178   0000A0E3           MOV      R0,#+0
   \   0000017C   ........           BL       DrawProgress
    277              if (shutd==1) SwitchPhoneOff();
   \   00000180   ........           LDR      R0,??DataTable37  ;; shutd
   \   00000184   000090E5           LDR      R0,[R0, #+0]
   \   00000188   010050E3           CMP      R0,#+1
   \   0000018C   0100001A           BNE      ??task_list3_4
   \   00000190   090000EF           SWI      +9
   \   00000194   F081BDE8           POP      {R4-R8,PC}
    278              else RebootPhone();
   \                     ??task_list3_4:
   \   00000198   930000EF           SWI      +147
    279            }
    280          }
   \   0000019C   F081BDE8           POP      {R4-R8,PC}       ;; return
   \                     ??task_list3_0:
   \   000001A0   ........           DC32     init_rec
   \   000001A4   ........           DC32     zin
   \   000001A8   ........           DC32     task_list3
    281          

   \                                 In segment CODE, align 4, keep-with-next
    282          void SearchIcon(WSHDR *ramed, int w, int show)
    283          {
   \                     SearchIcon:
   \   00000000   F0412DE9           PUSH     {R4-R8,LR}
    284            char buffer[256];
    285            //ws_2str(ramed, buffer, 64);
    286            convWS_to_ANSI(ramed, buffer);
    287            if(strstr(buffer, "NATICQ")>0) strcpy(buffer, "NATICQ");
   \   00000004   58619FE5           LDR      R6,??SearchIcon_0+0xC  ;; `?<Constant "NATICQ">`
   \   00000008   42DF4DE2           SUB      SP,SP,#+264
   \   0000000C   0140A0E1           MOV      R4,R1
   \   00000010   0250A0E1           MOV      R5,R2
   \   00000014   08108DE2           ADD      R1,SP,#+8
   \   00000018   ........           _BLF     convWS_to_ANSI,??convWS_to_ANSI??rA
   \   0000001C   0610A0E1           MOV      R1,R6
   \   00000020   08008DE2           ADD      R0,SP,#+8
   \   00000024   180100EF           SWI      +280
   \   00000028   000050E3           CMP      R0,#+0
   \   0000002C   0200000A           BEQ      ??SearchIcon_1
   \   00000030   0610A0E1           MOV      R1,R6
   \   00000034   08008DE2           ADD      R0,SP,#+8
   \   00000038   1A0000EF           SWI      +26
    288            if(strstr(buffer, "SieJC")>0) strcpy(buffer, "SieJC");
   \                     ??SearchIcon_1:
   \   0000003C   24619FE5           LDR      R6,??SearchIcon_0+0x10  ;; `?<Constant "SieJC">`
   \   00000040   08008DE2           ADD      R0,SP,#+8
   \   00000044   0610A0E1           MOV      R1,R6
   \   00000048   180100EF           SWI      +280
   \   0000004C   000050E3           CMP      R0,#+0
   \   00000050   0200000A           BEQ      ??SearchIcon_2
   \   00000054   0610A0E1           MOV      R1,R6
   \   00000058   08008DE2           ADD      R0,SP,#+8
   \   0000005C   1A0000EF           SWI      +26
    289            if(strstr(buffer, "MC:")>0) strcpy(buffer, "MC");
   \                     ??SearchIcon_2:
   \   00000060   3C1F8FE2           ADR      R1,??SearchIcon_0  ;; "MC:"
   \   00000064   08008DE2           ADD      R0,SP,#+8
   \   00000068   180100EF           SWI      +280
   \   0000006C   000050E3           CMP      R0,#+0
   \   00000070   0200000A           BEQ      ??SearchIcon_3
   \   00000074   381F8FE2           ADR      R1,??SearchIcon_0+0x4  ;; "MC"
   \   00000078   08008DE2           ADD      R0,SP,#+8
   \   0000007C   1A0000EF           SWI      +26
    290            if(strstr(buffer, "BM:")>0) strcpy(buffer, "BM:");
   \                     ??SearchIcon_3:
   \   00000080   366F8FE2           ADR      R6,??SearchIcon_0+0x8  ;; "BM:"
   \   00000084   0610A0E1           MOV      R1,R6
   \   00000088   08008DE2           ADD      R0,SP,#+8
   \   0000008C   180100EF           SWI      +280
   \   00000090   000050E3           CMP      R0,#+0
   \   00000094   0200000A           BEQ      ??SearchIcon_4
   \   00000098   0610A0E1           MOV      R1,R6
   \   0000009C   08008DE2           ADD      R0,SP,#+8
   \   000000A0   1A0000EF           SWI      +26
    291            char p2[]="||";
   \                     ??SearchIcon_4:
   \   000000A4   C0109FE5           LDR      R1,??SearchIcon_0+0x14  ;; `?<Constant "||">`
   \   000000A8   0D00A0E1           MOV      R0,SP
   \   000000AC   0020D1E5           LDRB     R2,[R1, #0]
   \   000000B0   0020C0E5           STRB     R2,[R0, #+0]
   \   000000B4   0120D1E5           LDRB     R2,[R1, #+1]
   \   000000B8   0120C0E5           STRB     R2,[R0, #+1]
   \   000000BC   0220D1E5           LDRB     R2,[R1, #+2]
    292            char *s,*s1,*s2;
    293            int len;
    294            if((s1=strstr(icon_text,buffer))>0)
   \   000000C0   08108DE2           ADD      R1,SP,#+8
   \   000000C4   0220C0E5           STRB     R2,[R0, #+2]
   \   000000C8   ........           LDR      R0,??DataTable38  ;; icon_text
   \   000000CC   180100EF           SWI      +280
   \   000000D0   0060B0E1           MOVS     R6,R0
   \   000000D4   1D00000A           BEQ      ??SearchIcon_5
    295            {
    296              s1+=strlen(buffer);
   \   000000D8   08008DE2           ADD      R0,SP,#+8
   \   000000DC   1B0000EF           SWI      +27
   \   000000E0   066080E0           ADD      R6,R0,R6
    297              if((s2=strstr(s1,p2))>0)
   \   000000E4   0D10A0E1           MOV      R1,SP
   \   000000E8   0600A0E1           MOV      R0,R6
   \   000000EC   180100EF           SWI      +280
   \   000000F0   000050E3           CMP      R0,#+0
   \   000000F4   1500000A           BEQ      ??SearchIcon_5
    298              {
    299                len=s2-s1-1;
   \   000000F8   060040E0           SUB      R0,R0,R6
   \   000000FC   017040E2           SUB      R7,R0,#+1
    300                s=malloc(len+1);
   \   00000100   140000EF           SWI      +20
   \   00000104   0080A0E1           MOV      R8,R0
    301                strncpy(s,s1+1,len);
   \   00000108   0720A0E1           MOV      R2,R7
   \   0000010C   011086E2           ADD      R1,R6,#+1
   \   00000110   160100EF           SWI      +278
    302                s[len]='\0';
   \   00000114   0000A0E3           MOV      R0,#+0
   \   00000118   0800C7E7           STRB     R0,[R7, +R8]
    303                if(show) DrawImg(17,w+1,(int)s);
   \   0000011C   014084E2           ADD      R4,R4,#+1
   \   00000120   000055E3           CMP      R5,#+0
   \   00000124   0300000A           BEQ      ??SearchIcon_6
   \   00000128   0820A0E1           MOV      R2,R8
   \   0000012C   0410A0E1           MOV      R1,R4
   \   00000130   1100A0E3           MOV      R0,#+17
   \   00000134   230000EF           SWI      +35
    304                DrawImg(102,w+1,(int)s);
   \                     ??SearchIcon_6:
   \   00000138   0820A0E1           MOV      R2,R8
   \   0000013C   0410A0E1           MOV      R1,R4
   \   00000140   6600A0E3           MOV      R0,#+102
   \   00000144   230000EF           SWI      +35
    305                mfree(s);
   \   00000148   0800A0E1           MOV      R0,R8
   \   0000014C   150000EF           SWI      +21
    306              }
    307            }
    308          }
   \                     ??SearchIcon_5:
   \   00000150   42DF8DE2           ADD      SP,SP,#+264      ;; stack cleaning
   \   00000154   F081BDE8           POP      {R4-R8,PC}       ;; return
   \                     ??SearchIcon_0:
   \   00000158   4D433A00           DC8      "MC:"
   \   0000015C   4D430000           DC8      "MC",+0
   \   00000160   424D3A00           DC8      "BM:"
   \   00000164   ........           DC32     `?<Constant "NATICQ">`
   \   00000168   ........           DC32     `?<Constant "SieJC">`
   \   0000016C   ........           DC32     `?<Constant "||">`
    309          

   \                                 In segment DATA_Z, align 4, align-sorted
    310          int refresh;
   \                     refresh:
   \   00000000                      DS8 4
    311          

   \                                 In segment CODE, align 4, keep-with-next
    312          void OnRedraw(MAIN_GUI *data)
    313          { 
    314            sprintf(background_img,"%s%s",path,"background.png");
   \                     OnRedraw:
   \   00000000   04399FE5           LDR      R3,??OnRedraw_0+0x4  ;; `?<Constant "background.png">`
   \   00000004   F04F2DE9           PUSH     {R4-R11,LR}
   \   00000008   00699FE5           LDR      R6,??OnRedraw_0+0x8  ;; background_img
   \   0000000C   00499FE5           LDR      R4,??OnRedraw_0+0xC  ;; `?<Constant "%s%s">`
   \   00000010   00599FE5           LDR      R5,??OnRedraw_0+0x10  ;; path
    315            sprintf(cursor_img,"%s%s",path,"cursor.png");
   \   00000014   00799FE5           LDR      R7,??OnRedraw_0+0x14  ;; cursor_img
    316            sprintf(selection_img,"%s%s",path,"selection.png");
   \   00000018   00899FE5           LDR      R8,??OnRedraw_0+0x18  ;; selection_img
    317            sprintf(tasks_img,"%s%s",path,"tasks.png");
   \   0000001C   00999FE5           LDR      R9,??OnRedraw_0+0x1C  ;; tasks_img
    318            sprintf(bookmarks_img,"%s%s",path,"bookmarks.png");
   \   00000020   00A99FE5           LDR      R10,??OnRedraw_0+0x20  ;; bookmarks_img
   \   00000024   30D04DE2           SUB      SP,SP,#+48
   \   00000028   0520A0E1           MOV      R2,R5
   \   0000002C   0410A0E1           MOV      R1,R4
   \   00000030   F4B89FE5           LDR      R11,??OnRedraw_0+0x24  ;; screen2
   \   00000034   0600A0E1           MOV      R0,R6
   \   00000038   160000EF           SWI      +22
   \   0000003C   EC389FE5           LDR      R3,??OnRedraw_0+0x28  ;; `?<Constant "cursor.png">`
   \   00000040   0520A0E1           MOV      R2,R5
   \   00000044   0410A0E1           MOV      R1,R4
   \   00000048   0700A0E1           MOV      R0,R7
   \   0000004C   160000EF           SWI      +22
   \   00000050   DC389FE5           LDR      R3,??OnRedraw_0+0x2C  ;; `?<Constant "selection.png">`
   \   00000054   0520A0E1           MOV      R2,R5
   \   00000058   0410A0E1           MOV      R1,R4
   \   0000005C   0800A0E1           MOV      R0,R8
   \   00000060   160000EF           SWI      +22
   \   00000064   CC389FE5           LDR      R3,??OnRedraw_0+0x30  ;; `?<Constant "tasks.png">`
   \   00000068   0520A0E1           MOV      R2,R5
   \   0000006C   0410A0E1           MOV      R1,R4
   \   00000070   0900A0E1           MOV      R0,R9
   \   00000074   160000EF           SWI      +22
   \   00000078   BC389FE5           LDR      R3,??OnRedraw_0+0x34  ;; `?<Constant "bookmarks.png">`
   \   0000007C   0520A0E1           MOV      R2,R5
   \   00000080   0410A0E1           MOV      R1,R4
   \   00000084   B4489FE5           LDR      R4,??OnRedraw_0+0x38  ;; ctasks
   \   00000088   B4589FE5           LDR      R5,??OnRedraw_0+0x3C  ;; cinfo
   \   0000008C   0A00A0E1           MOV      R0,R10
   \   00000090   160000EF           SWI      +22
   \   00000094   AC089FE5           LDR      R0,??OnRedraw_0+0x40  ;; refresh
   \   00000098   D810A0E3           MOV      R1,#+216
   \   0000009C   001080E5           STR      R1,[R0, #+0]
   \   000000A0   A4089FE5           LDR      R0,??OnRedraw_0+0x44  ;; task_list
   \   000000A4   000090E5           LDR      R0,[R0, #+0]
   \   000000A8   010050E3           CMP      R0,#+1
   \   000000AC   6E01001A           BNE      ??OnRedraw_1
    319            refresh=216;
    320            if(task_list==1)
    321            {
    322            total_d=GetNumberOfDialogs()-1;
   \   000000B0   ........           _BLF     GetNumberOfDialogs,??GetNumberOfDialogs??rA
   \   000000B4   94189FE5           LDR      R1,??OnRedraw_0+0x48  ;; total_d
   \   000000B8   010040E2           SUB      R0,R0,#+1
   \   000000BC   000081E5           STR      R0,[R1, #+0]
    323          #ifdef NEWSGOLD
    324            DrwImg3(&screen2, 0, 0, NULL, NULL);
   \   000000C0   0000A0E3           MOV      R0,#+0
   \   000000C4   01002DE9           PUSH     {R0}
   \   000000C8   0030A0E3           MOV      R3,#+0
   \   000000CC   0020A0E1           MOV      R2,R0
   \   000000D0   0010A0E1           MOV      R1,R0
   \   000000D4   0B00A0E1           MOV      R0,R11
   \   000000D8   ........           BL       DrwImg3
    325          #endif
    326            DrawImg(12, 26,(int)background_img);  //12,37
   \   000000DC   0620A0E1           MOV      R2,R6
   \   000000E0   1A10A0E3           MOV      R1,#+26
   \   000000E4   0C00A0E3           MOV      R0,#+12
   \   000000E8   230000EF           SWI      +35
    327            DrawImg(16,48+(pos*12),(int)cursor_img);
   \   000000EC   60089FE5           LDR      R0,??OnRedraw_0+0x4C  ;; pos
   \   000000F0   0C10A0E3           MOV      R1,#+12
   \   000000F4   000090E5           LDR      R0,[R0, #+0]
   \   000000F8   0720A0E1           MOV      R2,R7
   \   000000FC   910000E0           MUL      R0,R1,R0
    328            DrawImg(82,39,(int)selection_img);
    329            DrawImg(83,40,(int)tasks_img);
    330            DrawImg(101,40,(int)bookmarks_img);
    331            int show=1;
    332            NAMELIST *nl=nltop;
    333            int i=60;
   \   00000100   3C60A0E3           MOV      R6,#+60
   \   00000104   301080E2           ADD      R1,R0,#+48
   \   00000108   1000A0E3           MOV      R0,#+16
   \   0000010C   230000EF           SWI      +35
   \   00000110   0820A0E1           MOV      R2,R8
   \   00000114   2710A0E3           MOV      R1,#+39
   \   00000118   5200A0E3           MOV      R0,#+82
   \   0000011C   230000EF           SWI      +35
   \   00000120   0920A0E1           MOV      R2,R9
   \   00000124   2810A0E3           MOV      R1,#+40
   \   00000128   5300A0E3           MOV      R0,#+83
   \   0000012C   230000EF           SWI      +35
   \   00000130   0A20A0E1           MOV      R2,R10
   \   00000134   2810A0E3           MOV      R1,#+40
   \   00000138   6500A0E3           MOV      R0,#+101
   \   0000013C   230000EF           SWI      +35
   \   00000140   10089FE5           LDR      R0,??OnRedraw_0+0x50  ;; nltop
   \   00000144   0110A0E3           MOV      R1,#+1
   \   00000148   04108DE5           STR      R1,[SP, #+4]
   \   0000014C   008090E5           LDR      R8,[R0, #+0]
    334            WSHDR *ws=AllocWS(64);
   \   00000150   4000A0E3           MOV      R0,#+64
   \   00000154   250100EF           SWI      +293
    335            int skip=move_skip+1;
   \   00000158   FC179FE5           LDR      R1,??OnRedraw_0+0x54  ;; move_skip
   \   0000015C   0070A0E1           MOV      R7,R0
   \   00000160   001091E5           LDR      R1,[R1, #+0]
   \   00000164   011081E2           ADD      R1,R1,#+1
   \   00000168   10108DE5           STR      R1,[SP, #+16]
   \   0000016C   04D08DE2           ADD      SP,SP,#+4
   \   00000170   020000EA           B        ??OnRedraw_2
    336            while((nl)&&(show<=5))
    337            {
    338              NAMELIST *p=nl;
    339              if(!skip) 
    340              {
    341          /*      if(nl->is_daemon)
    342                {
    343                  DrawString(nl->name,17,i+1,115,i+GetFontYSIZE(11)+2,11,0,cdaemons,GetPaletteAdrByColorIndex(23));
    344                  SearchIcon(nl->name, i);
    345                }
    346                else
    347                {*/
    348                  if(Get_WS_width(nl->name,11)<85)
    349                  {
    350                    if(nl->is_daemon) DrawString(nl->name,17,i+1,115,i+GetFontYSIZE(11),11,0,cdaemons,GetPaletteAdrByColorIndex(23));
    351                    else
    352                  DrawString(nl->name,17,i+1,115,i+GetFontYSIZE(11),11,0,ctasks,GetPaletteAdrByColorIndex(23));
    353                  }
    354                  else
    355                  {
    356                    if(pos!=show)
    357                    {
    358                      if(nl->is_daemon) DrawScrollString(nl->name,17,i+1,100,i+GetFontYSIZE(11),1,11,TEXT_ALIGNLEFT,cdaemons,GetPaletteAdrByColorIndex(23)); else
    359                    DrawScrollString(nl->name,17,i+1,100,i+GetFontYSIZE(11),1,11,TEXT_ALIGNLEFT,ctasks,GetPaletteAdrByColorIndex(23));
    360                    }
    361                    else
    362                    {
    363                      if(nl->is_daemon) DrawScrollString(nl->name,17,i+1,100,i+GetFontYSIZE(11),sm+1,11,TEXT_ALIGNLEFT,cdaemons,GetPaletteAdrByColorIndex(23)); else
    364                      DrawScrollString(nl->name,17,i+1,100,i+GetFontYSIZE(11),sm+1,11,TEXT_ALIGNLEFT,ctasks,GetPaletteAdrByColorIndex(23));
    365                      refresh=30;
    366                      if(forward==1) sm=sm+3;
    367                      if(forward==0) sm=sm-3;
    368                      if(forward==2)
    369                      {
    370                        if(halt) halt--;
    371                        else forward=3;
    372                      }
    373                      if ((sm>Get_WS_width(nl->name,11)-85)&&(forward==1)) {forward=2; halt=5;}
    374                      if (forward==3) {
    375                        if (sm==0) {forward=4; halt=5;}
    376                        else sm=sm-3;
    377                      }
    378                      if(forward==4)
    379                      {
    380                        if(halt) halt--;
    381                        else forward=1;
    382                      }
    383                     // if ((sm==0)&&(forward==3) forward=1;
    384                    }
    385                  }
    386                  SearchIcon(nl->name, i, 0);
    387            //    }
    388                show++;
    389                i=i+12;
    390              }
    391              else skip--;
   \                     ??OnRedraw_3:
   \   00000174   011040E2           SUB      R1,R0,#+1
   \   00000178   0C108DE5           STR      R1,[SP, #+12]
    392              nl=p->next;
   \                     ??OnRedraw_4:
   \   0000017C   008098E5           LDR      R8,[R8, #+0]
   \                     ??OnRedraw_2:
   \   00000180   000058E3           CMP      R8,#+0
   \   00000184   B600000A           BEQ      ??OnRedraw_5
   \   00000188   00009DE5           LDR      R0,[SP, #+0]
   \   0000018C   060050E3           CMP      R0,#+6
   \   00000190   B30000AA           BGE      ??OnRedraw_5
   \   00000194   0C009DE5           LDR      R0,[SP, #+12]
   \   00000198   000050E3           CMP      R0,#+0
   \   0000019C   F4FFFF1A           BNE      ??OnRedraw_3
   \   000001A0   080098E5           LDR      R0,[R8, #+8]
   \   000001A4   B4A79FE5           LDR      R10,??OnRedraw_0+0x58  ;; cdaemons
   \   000001A8   019086E2           ADD      R9,R6,#+1
   \   000001AC   0B10A0E3           MOV      R1,#+11
   \   000001B0   080200EF           SWI      +520
   \   000001B4   550050E3           CMP      R0,#+85
   \   000001B8   100098E5           LDR      R0,[R8, #+16]
   \   000001BC   1D0000AA           BGE      ??OnRedraw_6
   \   000001C0   000050E3           CMP      R0,#+0
   \   000001C4   1700A0E3           MOV      R0,#+23
   \   000001C8   1200000A           BEQ      ??OnRedraw_7
   \   000001CC   2E0100EF           SWI      +302
   \   000001D0   00B0A0E1           MOV      R11,R0
   \   000001D4   0B00A0E3           MOV      R0,#+11
   \   000001D8   C50100EF           SWI      +453
   \   000001DC   00082DE9           PUSH     {R11}
   \   000001E0   00042DE9           PUSH     {R10}
   \                     ??OnRedraw_8:
   \   000001E4   0010A0E3           MOV      R1,#+0
   \   000001E8   02002DE9           PUSH     {R1}
   \   000001EC   060080E0           ADD      R0,R0,R6
   \   000001F0   7330A0E3           MOV      R3,#+115
   \   000001F4   0920A0E1           MOV      R2,R9
   \   000001F8   0B10A0E3           MOV      R1,#+11
   \   000001FC   02002DE9           PUSH     {R1}
   \   00000200   01002DE9           PUSH     {R0}
   \   00000204   080098E5           LDR      R0,[R8, #+8]
   \   00000208   1110A0E3           MOV      R1,#+17
   \   0000020C   4C0100EF           SWI      +332
   \   00000210   14D08DE2           ADD      SP,SP,#+20
   \   00000214   890000EA           B        ??OnRedraw_9
   \                     ??OnRedraw_7:
   \   00000218   2E0100EF           SWI      +302
   \   0000021C   00A0A0E1           MOV      R10,R0
   \   00000220   0B00A0E3           MOV      R0,#+11
   \   00000224   C50100EF           SWI      +453
   \   00000228   00042DE9           PUSH     {R10}
   \   0000022C   0410A0E1           MOV      R1,R4
   \   00000230   02002DE9           PUSH     {R1}
   \   00000234   EAFFFFEA           B        ??OnRedraw_8
   \                     ??OnRedraw_6:
   \   00000238   14179FE5           LDR      R1,??OnRedraw_0+0x4C  ;; pos
   \   0000023C   00209DE5           LDR      R2,[SP, #+0]
   \   00000240   001091E5           LDR      R1,[R1, #+0]
   \   00000244   020051E1           CMP      R1,R2
   \   00000248   1F00000A           BEQ      ??OnRedraw_10
   \   0000024C   000050E3           CMP      R0,#+0
   \   00000250   1700A0E3           MOV      R0,#+23
   \   00000254   1400000A           BEQ      ??OnRedraw_11
   \   00000258   2E0100EF           SWI      +302
   \   0000025C   00B0A0E1           MOV      R11,R0
   \   00000260   0B00A0E3           MOV      R0,#+11
   \   00000264   C50100EF           SWI      +453
   \   00000268   00082DE9           PUSH     {R11}
   \   0000026C   00042DE9           PUSH     {R10}
   \                     ??OnRedraw_12:
   \   00000270   0110A0E3           MOV      R1,#+1
   \   00000274   02002DE9           PUSH     {R1}
   \   00000278   060080E0           ADD      R0,R0,R6
   \   0000027C   6430A0E3           MOV      R3,#+100
   \   00000280   0920A0E1           MOV      R2,R9
   \   00000284   0B10A0E3           MOV      R1,#+11
   \   00000288   02002DE9           PUSH     {R1}
   \   0000028C   0110A0E3           MOV      R1,#+1
   \   00000290   02002DE9           PUSH     {R1}
   \   00000294   01002DE9           PUSH     {R0}
   \   00000298   080098E5           LDR      R0,[R8, #+8]
   \   0000029C   1110A0E3           MOV      R1,#+17
   \   000002A0   070200EF           SWI      +519
   \   000002A4   18D08DE2           ADD      SP,SP,#+24
   \   000002A8   640000EA           B        ??OnRedraw_9
   \                     ??OnRedraw_11:
   \   000002AC   2E0100EF           SWI      +302
   \   000002B0   00A0A0E1           MOV      R10,R0
   \   000002B4   0B00A0E3           MOV      R0,#+11
   \   000002B8   C50100EF           SWI      +453
   \   000002BC   00042DE9           PUSH     {R10}
   \   000002C0   0410A0E1           MOV      R1,R4
   \   000002C4   02002DE9           PUSH     {R1}
   \   000002C8   E8FFFFEA           B        ??OnRedraw_12
   \                     ??OnRedraw_10:
   \   000002CC   90B69FE5           LDR      R11,??OnRedraw_0+0x5C  ;; sm
   \   000002D0   000050E3           CMP      R0,#+0
   \   000002D4   1700A0E3           MOV      R0,#+23
   \   000002D8   0700000A           BEQ      ??OnRedraw_13
   \   000002DC   2E0100EF           SWI      +302
   \   000002E0   2C008DE5           STR      R0,[SP, #+44]
   \   000002E4   0B00A0E3           MOV      R0,#+11
   \   000002E8   C50100EF           SWI      +453
   \   000002EC   2C109DE5           LDR      R1,[SP, #+44]
   \   000002F0   02002DE9           PUSH     {R1}
   \   000002F4   00042DE9           PUSH     {R10}
   \   000002F8   060000EA           B        ??OnRedraw_14
   \                     ??OnRedraw_13:
   \   000002FC   2E0100EF           SWI      +302
   \   00000300   00A0A0E1           MOV      R10,R0
   \   00000304   0B00A0E3           MOV      R0,#+11
   \   00000308   C50100EF           SWI      +453
   \   0000030C   00042DE9           PUSH     {R10}
   \   00000310   0410A0E1           MOV      R1,R4
   \   00000314   02002DE9           PUSH     {R1}
   \                     ??OnRedraw_14:
   \   00000318   0110A0E3           MOV      R1,#+1
   \   0000031C   02002DE9           PUSH     {R1}
   \   00000320   060080E0           ADD      R0,R0,R6
   \   00000324   6430A0E3           MOV      R3,#+100
   \   00000328   0920A0E1           MOV      R2,R9
   \   0000032C   B09E9FE5           LDR      R9,??OnRedraw_15+0x4  ;; forward
   \   00000330   0B10A0E3           MOV      R1,#+11
   \   00000334   02002DE9           PUSH     {R1}
   \   00000338   00109BE5           LDR      R1,[R11, #+0]
   \   0000033C   011081E2           ADD      R1,R1,#+1
   \   00000340   02002DE9           PUSH     {R1}
   \   00000344   01002DE9           PUSH     {R0}
   \   00000348   080098E5           LDR      R0,[R8, #+8]
   \   0000034C   1110A0E3           MOV      R1,#+17
   \   00000350   070200EF           SWI      +519
   \   00000354   EC059FE5           LDR      R0,??OnRedraw_0+0x40  ;; refresh
   \   00000358   18D08DE2           ADD      SP,SP,#+24
   \   0000035C   1E10A0E3           MOV      R1,#+30
   \   00000360   001080E5           STR      R1,[R0, #+0]
   \   00000364   00009BE5           LDR      R0,[R11, #+0]
   \   00000368   001099E5           LDR      R1,[R9, #+0]
   \   0000036C   010051E3           CMP      R1,#+1
   \   00000370   03008002           ADDEQ    R0,R0,#+3
   \   00000374   0100000A           BEQ      ??OnRedraw_16
   \   00000378   000051E3           CMP      R1,#+0
   \   0000037C   03004002           SUBEQ    R0,R0,#+3
   \                     ??OnRedraw_16:
   \   00000380   60AE9FE5           LDR      R10,??OnRedraw_15+0x8  ;; halt
   \   00000384   00008BE5           STR      R0,[R11, #+0]
   \   00000388   020051E3           CMP      R1,#+2
   \   0000038C   0500001A           BNE      ??OnRedraw_17
   \   00000390   00009AE5           LDR      R0,[R10, #+0]
   \   00000394   000050E3           CMP      R0,#+0
   \   00000398   01004012           SUBNE    R0,R0,#+1
   \   0000039C   00008A15           STRNE    R0,[R10, #+0]
   \   000003A0   0300A003           MOVEQ    R0,#+3
   \   000003A4   00008905           STREQ    R0,[R9, #+0]
   \                     ??OnRedraw_17:
   \   000003A8   080098E5           LDR      R0,[R8, #+8]
   \   000003AC   0B10A0E3           MOV      R1,#+11
   \   000003B0   080200EF           SWI      +520
   \   000003B4   00209BE5           LDR      R2,[R11, #+0]
   \   000003B8   0510A0E3           MOV      R1,#+5
   \   000003BC   550040E2           SUB      R0,R0,#+85
   \   000003C0   020050E1           CMP      R0,R2
   \   000003C4   060000AA           BGE      ??OnRedraw_18
   \   000003C8   000099E5           LDR      R0,[R9, #+0]
   \   000003CC   010050E3           CMP      R0,#+1
   \   000003D0   0300001A           BNE      ??OnRedraw_18
   \   000003D4   0200A0E3           MOV      R0,#+2
   \   000003D8   000089E5           STR      R0,[R9, #+0]
   \   000003DC   00108AE5           STR      R1,[R10, #+0]
   \   000003E0   160000EA           B        ??OnRedraw_9
   \                     ??OnRedraw_18:
   \   000003E4   000099E5           LDR      R0,[R9, #+0]
   \   000003E8   030050E3           CMP      R0,#+3
   \   000003EC   0800001A           BNE      ??OnRedraw_19
   \   000003F0   000052E3           CMP      R2,#+0
   \   000003F4   0300001A           BNE      ??OnRedraw_20
   \   000003F8   0400A0E3           MOV      R0,#+4
   \   000003FC   000089E5           STR      R0,[R9, #+0]
   \   00000400   00108AE5           STR      R1,[R10, #+0]
   \   00000404   070000EA           B        ??OnRedraw_21
   \                     ??OnRedraw_20:
   \   00000408   030042E2           SUB      R0,R2,#+3
   \   0000040C   00008BE5           STR      R0,[R11, #+0]
   \   00000410   0A0000EA           B        ??OnRedraw_9
   \                     ??OnRedraw_19:
   \   00000414   040050E3           CMP      R0,#+4
   \   00000418   0800001A           BNE      ??OnRedraw_9
   \   0000041C   00009AE5           LDR      R0,[R10, #+0]
   \   00000420   000050E3           CMP      R0,#+0
   \   00000424   0300000A           BEQ      ??OnRedraw_22
   \                     ??OnRedraw_21:
   \   00000428   00009AE5           LDR      R0,[R10, #+0]
   \   0000042C   010040E2           SUB      R0,R0,#+1
   \   00000430   00008AE5           STR      R0,[R10, #+0]
   \   00000434   010000EA           B        ??OnRedraw_9
   \                     ??OnRedraw_22:
   \   00000438   0100A0E3           MOV      R0,#+1
   \   0000043C   000089E5           STR      R0,[R9, #+0]
   \                     ??OnRedraw_9:
   \   00000440   080098E5           LDR      R0,[R8, #+8]
   \   00000444   0020A0E3           MOV      R2,#+0
   \   00000448   0610A0E1           MOV      R1,R6
   \   0000044C   ........           BL       SearchIcon
   \   00000450   00109DE5           LDR      R1,[SP, #+0]
   \   00000454   0C6086E2           ADD      R6,R6,#+12
   \   00000458   011081E2           ADD      R1,R1,#+1
   \   0000045C   00108DE5           STR      R1,[SP, #+0]
   \   00000460   45FFFFEA           B        ??OnRedraw_4
    393            }
    394            if(time_not)
   \                     ??OnRedraw_5:
   \   00000464   A80E9FE5           LDR      R0,??OnRedraw_23  ;; time_not
   \   00000468   000090E5           LDR      R0,[R0, #+0]
   \   0000046C   000050E3           CMP      R0,#+0
   \   00000470   3E00000A           BEQ      ??OnRedraw_24
    395            {
    396            if(!style) wsprintf(ws, "Tasks:%d", tasks);
   \   00000474   9C0E9FE5           LDR      R0,??OnRedraw_23+0x4  ;; tasks
   \   00000478   002090E5           LDR      R2,[R0, #+0]
   \   0000047C   980E9FE5           LDR      R0,??OnRedraw_23+0x8  ;; style
   \   00000480   000090E5           LDR      R0,[R0, #+0]
   \   00000484   000050E3           CMP      R0,#+0
   \   00000488   901E9F05           LDREQ    R1,??OnRedraw_23+0xC  ;; `?<Constant "Tasks:%d">`
    397            else wsprintf(ws, "T:%d", tasks);
   \   0000048C   0700A0E1           MOV      R0,R7
   \   00000490   8C1E9F15           LDRNE    R1,??OnRedraw_23+0x10  ;; `?<Constant "T:%d">`
   \   00000494   240100EF           SWI      +292
    398            DrawString(ws,16,124,16+Get_WS_width(ws,11)+3,124+GetFontYSIZE(11)+1,11,0,cinfo,GetPaletteAdrByColorIndex(23));
   \   00000498   1700A0E3           MOV      R0,#+23
   \   0000049C   2E0100EF           SWI      +302
   \   000004A0   0040A0E1           MOV      R4,R0
   \   000004A4   0B00A0E3           MOV      R0,#+11
   \   000004A8   C50100EF           SWI      +453
   \   000004AC   0060A0E1           MOV      R6,R0
   \   000004B0   0B10A0E3           MOV      R1,#+11
   \   000004B4   0700A0E1           MOV      R0,R7
   \   000004B8   080200EF           SWI      +520
   \   000004BC   10002DE9           PUSH     {R4}
   \   000004C0   0510A0E1           MOV      R1,R5
   \   000004C4   02002DE9           PUSH     {R1}
   \   000004C8   133080E2           ADD      R3,R0,#+19
   \   000004CC   7C20A0E3           MOV      R2,#+124
   \   000004D0   0700A0E1           MOV      R0,R7
   \   000004D4   0010A0E3           MOV      R1,#+0
   \   000004D8   02002DE9           PUSH     {R1}
   \   000004DC   0B10A0E3           MOV      R1,#+11
   \   000004E0   02002DE9           PUSH     {R1}
   \   000004E4   7D1086E2           ADD      R1,R6,#+125
   \   000004E8   02002DE9           PUSH     {R1}
   \   000004EC   1010A0E3           MOV      R1,#+16
   \   000004F0   4C0100EF           SWI      +332
    399            int ram = GetFreeRamAvail();
   \   000004F4   5F0000EF           SWI      +95
    400            ram=ram/1024;
    401            wsprintf(ws,"Ram:%dKb", ram);
   \   000004F8   C014A0E1           ASR      R1,R0,#+9
   \   000004FC   210B80E0           ADD      R0,R0,R1, LSR #+22
   \   00000500   201E9FE5           LDR      R1,??OnRedraw_23+0x14  ;; `?<Constant "Ram:%dKb">`
   \   00000504   4025A0E1           ASR      R2,R0,#+10
   \   00000508   0700A0E1           MOV      R0,R7
   \   0000050C   240100EF           SWI      +292
    402            DrawString(ws,115-Get_WS_width(ws,11),124,115+3,124+GetFontYSIZE(11)+1,11,0,cinfo,GetPaletteAdrByColorIndex(23));
   \   00000510   1700A0E3           MOV      R0,#+23
   \   00000514   2E0100EF           SWI      +302
   \   00000518   0040A0E1           MOV      R4,R0
   \   0000051C   0B00A0E3           MOV      R0,#+11
   \   00000520   C50100EF           SWI      +453
   \   00000524   0060A0E1           MOV      R6,R0
   \   00000528   0B10A0E3           MOV      R1,#+11
   \   0000052C   0700A0E1           MOV      R0,R7
   \   00000530   080200EF           SWI      +520
   \   00000534   10002DE9           PUSH     {R4}
   \   00000538   20002DE9           PUSH     {R5}
   \   0000053C   0010A0E3           MOV      R1,#+0
   \   00000540   02002DE9           PUSH     {R1}
   \   00000544   7630A0E3           MOV      R3,#+118
   \   00000548   7C20A0E3           MOV      R2,#+124
   \   0000054C   0B10A0E3           MOV      R1,#+11
   \   00000550   02002DE9           PUSH     {R1}
   \   00000554   7D1086E2           ADD      R1,R6,#+125
   \   00000558   02002DE9           PUSH     {R1}
   \   0000055C   731060E2           RSB      R1,R0,#+115
   \   00000560   0700A0E1           MOV      R0,R7
   \   00000564   4C0100EF           SWI      +332
   \   00000568   28D08DE2           ADD      SP,SP,#+40
   \   0000056C   3C0000EA           B        ??OnRedraw_25
    403            }
    404            else
    405              {
    406                int battery = *RamCap();
   \                     ??OnRedraw_24:
   \   00000570   C88000EF           SWI      +32968
   \   00000574   B020D0E1           LDRH     R2,[R0, #+0]
    407                wsprintf(ws,"%d%", battery);
   \   00000578   E21F8FE2           ADR      R1,??OnRedraw_0  ;; "%d%"
   \   0000057C   0700A0E1           MOV      R0,R7
   \   00000580   240100EF           SWI      +292
    408                DrawString(ws,16,124,16+Get_WS_width(ws,11)+3,124+GetFontYSIZE(11)+1,11,0,cinfo,GetPaletteAdrByColorIndex(23));
   \   00000584   1700A0E3           MOV      R0,#+23
   \   00000588   2E0100EF           SWI      +302
   \   0000058C   0040A0E1           MOV      R4,R0
   \   00000590   0B00A0E3           MOV      R0,#+11
   \   00000594   C50100EF           SWI      +453
   \   00000598   0060A0E1           MOV      R6,R0
   \   0000059C   0B10A0E3           MOV      R1,#+11
   \   000005A0   0700A0E1           MOV      R0,R7
   \   000005A4   080200EF           SWI      +520
   \   000005A8   10002DE9           PUSH     {R4}
   \   000005AC   0510A0E1           MOV      R1,R5
   \   000005B0   02002DE9           PUSH     {R1}
   \   000005B4   133080E2           ADD      R3,R0,#+19
   \   000005B8   7C20A0E3           MOV      R2,#+124
   \   000005BC   0700A0E1           MOV      R0,R7
   \   000005C0   0010A0E3           MOV      R1,#+0
   \   000005C4   02002DE9           PUSH     {R1}
   \   000005C8   0B10A0E3           MOV      R1,#+11
   \   000005CC   02002DE9           PUSH     {R1}
   \   000005D0   7D1086E2           ADD      R1,R6,#+125
   \   000005D4   02002DE9           PUSH     {R1}
   \   000005D8   1010A0E3           MOV      R1,#+16
   \   000005DC   4C0100EF           SWI      +332
    409                TTime time;
    410                TDate date;
    411                GetDateTime(&date, &time);
   \   000005E0   18108DE2           ADD      R1,SP,#+24
   \   000005E4   24008DE2           ADD      R0,SP,#+36
   \   000005E8   B40000EF           SWI      +180
    412                wsprintf(ws, "%02d:%02d:%02d", time.hour, time.min, time.sec);
   \   000005EC   1A00DDE5           LDRB     R0,[SP, #+26]
   \   000005F0   381D9FE5           LDR      R1,??OnRedraw_23+0x1C  ;; `?<Constant "%02d:%02d:%02d">`
   \   000005F4   01002DE9           PUSH     {R0}
   \   000005F8   1D30DDE5           LDRB     R3,[SP, #+29]
   \   000005FC   1C20DDE5           LDRB     R2,[SP, #+28]
   \   00000600   0700A0E1           MOV      R0,R7
   \   00000604   240100EF           SWI      +292
    413                DrawString(ws,115-Get_WS_width(ws,11),124,115+3,124+GetFontYSIZE(11)+1,11,0,cinfo,GetPaletteAdrByColorIndex(23));
   \   00000608   1700A0E3           MOV      R0,#+23
   \   0000060C   2E0100EF           SWI      +302
   \   00000610   0040A0E1           MOV      R4,R0
   \   00000614   0B00A0E3           MOV      R0,#+11
   \   00000618   C50100EF           SWI      +453
   \   0000061C   0060A0E1           MOV      R6,R0
   \   00000620   0B10A0E3           MOV      R1,#+11
   \   00000624   0700A0E1           MOV      R0,R7
   \   00000628   080200EF           SWI      +520
   \   0000062C   10002DE9           PUSH     {R4}
   \   00000630   20002DE9           PUSH     {R5}
   \   00000634   0010A0E3           MOV      R1,#+0
   \   00000638   02002DE9           PUSH     {R1}
   \   0000063C   7630A0E3           MOV      R3,#+118
   \   00000640   7C20A0E3           MOV      R2,#+124
   \   00000644   0B10A0E3           MOV      R1,#+11
   \   00000648   02002DE9           PUSH     {R1}
   \   0000064C   7D1086E2           ADD      R1,R6,#+125
   \   00000650   02002DE9           PUSH     {R1}
   \   00000654   731060E2           RSB      R1,R0,#+115
   \   00000658   0700A0E1           MOV      R0,R7
   \   0000065C   4C0100EF           SWI      +332
   \   00000660   2CD08DE2           ADD      SP,SP,#+44
    414          //      GBS_StartTimerProc(&start_tmr, 30, redrit); 
    415              }
    416            FreeWS(ws);
   \                     ??OnRedraw_25:
   \   00000664   0700A0E1           MOV      R0,R7
   \   00000668   1D0300EA           B        ??OnRedraw_26
    417            }
    418            else
    419              if(task_list==0)
   \                     ??OnRedraw_1:
   \   0000066C   000050E3           CMP      R0,#+0
   \   00000670   6C02001A           BNE      ??OnRedraw_27
    420            {//===============================do the links
    421              DrwImg3(&screen2, 0, 0, NULL, NULL);
   \   00000674   01002DE9           PUSH     {R0}
   \   00000678   0030A0E3           MOV      R3,#+0
   \   0000067C   0020A0E3           MOV      R2,#+0
   \   00000680   0210A0E1           MOV      R1,R2
   \   00000684   0B00A0E1           MOV      R0,R11
   \   00000688   ........           BL       DrwImg3
    422              DrawImg(12, 26,(int)background_img);  //12,37
   \   0000068C   0620A0E1           MOV      R2,R6
   \   00000690   1A10A0E3           MOV      R1,#+26
   \   00000694   0C00A0E3           MOV      R0,#+12
   \   00000698   230000EF           SWI      +35
    423              DrawImg(16,48+(pos*12),(int)cursor_img);
   \   0000069C   B0029FE5           LDR      R0,??OnRedraw_0+0x4C  ;; pos
   \   000006A0   0C10A0E3           MOV      R1,#+12
   \   000006A4   000090E5           LDR      R0,[R0, #+0]
   \   000006A8   0720A0E1           MOV      R2,R7
    424              DrawImg(100,39,(int)selection_img);
    425              DrawImg(83,40,(int)tasks_img);
    426              DrawImg(101,40,(int)bookmarks_img);
    427              int show=0;
    428              int i=60;
    429              int len;
    430              int skip=move_skip;
    431              WSHDR *ws=AllocWS(32);
    432              if((!skip)&&(book_show>=1)&&(show<5))
   \   000006AC   ........           LDR      R7,??DataTable39  ;; book_show
   \   000006B0   910000E0           MUL      R0,R1,R0
   \   000006B4   301080E2           ADD      R1,R0,#+48
   \   000006B8   1000A0E3           MOV      R0,#+16
   \   000006BC   230000EF           SWI      +35
   \   000006C0   0820A0E1           MOV      R2,R8
   \   000006C4   2710A0E3           MOV      R1,#+39
   \   000006C8   6400A0E3           MOV      R0,#+100
   \   000006CC   230000EF           SWI      +35
   \   000006D0   0920A0E1           MOV      R2,R9
   \   000006D4   2810A0E3           MOV      R1,#+40
   \   000006D8   5300A0E3           MOV      R0,#+83
   \   000006DC   230000EF           SWI      +35
   \   000006E0   0A20A0E1           MOV      R2,R10
   \   000006E4   2810A0E3           MOV      R1,#+40
   \   000006E8   6500A0E3           MOV      R0,#+101
   \   000006EC   230000EF           SWI      +35
   \   000006F0   64029FE5           LDR      R0,??OnRedraw_0+0x54  ;; move_skip
   \   000006F4   0080A0E3           MOV      R8,#+0
   \   000006F8   00B090E5           LDR      R11,[R0, #+0]
   \   000006FC   3C90A0E3           MOV      R9,#+60
   \   00000700   2000A0E3           MOV      R0,#+32
   \   00000704   250100EF           SWI      +293
   \   00000708   0060A0E1           MOV      R6,R0
   \   0000070C   00005BE3           CMP      R11,#+0
   \   00000710   04D08DE2           ADD      SP,SP,#+4
   \   00000714   2500001A           BNE      ??OnRedraw_28
   \   00000718   000097E5           LDR      R0,[R7, #+0]
   \   0000071C   010050E3           CMP      R0,#+1
   \   00000720   220000BA           BLT      ??OnRedraw_28
    433              {
    434                  wsprintf(ws, BM1NAME);
   \   00000724   ........           LDR      R1,??DataTable40  ;; BM1NAME
   \   00000728   0600A0E1           MOV      R0,R6
   \   0000072C   240100EF           SWI      +292
    435                //  DrawString(ws,17,i+1,115,i+GetFontYSIZE(11)+2,11,0,ctasks,GetPaletteAdrByColorIndex(23));
    436                  len=Get_WS_width(ws,11)/2;
   \   00000730   0B10A0E3           MOV      R1,#+11
   \   00000734   0600A0E1           MOV      R0,R6
   \   00000738   080200EF           SWI      +520
   \   0000073C   A00F80E0           ADD      R0,R0,R0, LSR #+31
   \   00000740   C0A0A0E1           ASR      R10,R0,#+1
    437                  DrawString(ws,66-len,i+1,66+len,i+GetFontYSIZE(11)+2,11,0,ctasks,GetPaletteAdrByColorIndex(23));
   \   00000744   1700A0E3           MOV      R0,#+23
   \   00000748   2E0100EF           SWI      +302
   \   0000074C   0080A0E1           MOV      R8,R0
   \   00000750   0B00A0E3           MOV      R0,#+11
   \   00000754   C50100EF           SWI      +453
   \   00000758   00012DE9           PUSH     {R8}
   \   0000075C   0410A0E1           MOV      R1,R4
   \   00000760   02002DE9           PUSH     {R1}
   \   00000764   3E0080E2           ADD      R0,R0,#+62
   \   00000768   42308AE2           ADD      R3,R10,#+66
   \   0000076C   3D20A0E3           MOV      R2,#+61
   \   00000770   0010A0E3           MOV      R1,#+0
   \   00000774   02002DE9           PUSH     {R1}
    438                  SearchIcon(ws, i, 1);
    439                  show++;
   \   00000778   0180A0E3           MOV      R8,#+1
    440                  i=i+12;
   \   0000077C   4890A0E3           MOV      R9,#+72
   \   00000780   0B10A0E3           MOV      R1,#+11
   \   00000784   02002DE9           PUSH     {R1}
   \   00000788   01002DE9           PUSH     {R0}
   \   0000078C   42106AE2           RSB      R1,R10,#+66
   \   00000790   0600A0E1           MOV      R0,R6
   \   00000794   4C0100EF           SWI      +332
   \   00000798   0120A0E3           MOV      R2,#+1
   \   0000079C   3C10A0E3           MOV      R1,#+60
   \   000007A0   0600A0E1           MOV      R0,R6
   \   000007A4   ........           BL       SearchIcon
   \   000007A8   14D08DE2           ADD      SP,SP,#+20
   \   000007AC   010000EA           B        ??OnRedraw_29
    441              }
    442              else
    443                skip--;
   \                     ??OnRedraw_28:
   \   000007B0   01B05BE2           SUBS     R11,R11,#+1
    444              if((!skip)&&(book_show>=2)&&(show<5))
   \   000007B4   2700001A           BNE      ??OnRedraw_30
   \                     ??OnRedraw_29:
   \   000007B8   000097E5           LDR      R0,[R7, #+0]
   \   000007BC   020050E3           CMP      R0,#+2
   \   000007C0   240000BA           BLT      ??OnRedraw_30
    445              {
    446                  wsprintf(ws, BM2NAME);
   \   000007C4   ........           LDR      R1,??DataTable41  ;; BM2NAME
   \   000007C8   0600A0E1           MOV      R0,R6
   \   000007CC   240100EF           SWI      +292
    447                  len=Get_WS_width(ws,11)/2;
   \   000007D0   0B10A0E3           MOV      R1,#+11
   \   000007D4   0600A0E1           MOV      R0,R6
   \   000007D8   080200EF           SWI      +520
   \   000007DC   A00F80E0           ADD      R0,R0,R0, LSR #+31
   \   000007E0   C0A0A0E1           ASR      R10,R0,#+1
    448                  DrawString(ws,66-len,i+1,66+len,i+GetFontYSIZE(11)+2,11,0,ctasks,GetPaletteAdrByColorIndex(23));
   \   000007E4   1700A0E3           MOV      R0,#+23
   \   000007E8   2E0100EF           SWI      +302
   \   000007EC   00008DE5           STR      R0,[SP, #+0]
   \   000007F0   0B00A0E3           MOV      R0,#+11
   \   000007F4   C50100EF           SWI      +453
   \   000007F8   00109DE5           LDR      R1,[SP, #+0]
   \   000007FC   090080E0           ADD      R0,R0,R9
   \   00000800   02002DE9           PUSH     {R1}
   \   00000804   020080E2           ADD      R0,R0,#+2
   \   00000808   42308AE2           ADD      R3,R10,#+66
   \   0000080C   012089E2           ADD      R2,R9,#+1
   \   00000810   0410A0E1           MOV      R1,R4
   \   00000814   02002DE9           PUSH     {R1}
    449                  SearchIcon(ws, i, 1);
    450                  show++;
   \   00000818   018088E2           ADD      R8,R8,#+1
   \   0000081C   0010A0E3           MOV      R1,#+0
   \   00000820   02002DE9           PUSH     {R1}
   \   00000824   0B10A0E3           MOV      R1,#+11
   \   00000828   02002DE9           PUSH     {R1}
   \   0000082C   01002DE9           PUSH     {R0}
   \   00000830   42106AE2           RSB      R1,R10,#+66
   \   00000834   0600A0E1           MOV      R0,R6
   \   00000838   4C0100EF           SWI      +332
   \   0000083C   0120A0E3           MOV      R2,#+1
   \   00000840   0910A0E1           MOV      R1,R9
   \   00000844   0600A0E1           MOV      R0,R6
   \   00000848   ........           BL       SearchIcon
    451                  i=i+12;
   \   0000084C   0C9089E2           ADD      R9,R9,#+12
   \   00000850   14D08DE2           ADD      SP,SP,#+20
   \   00000854   010000EA           B        ??OnRedraw_31
    452              }
    453              else
    454                skip--;
   \                     ??OnRedraw_30:
   \   00000858   01B05BE2           SUBS     R11,R11,#+1
    455              if((!skip)&&(book_show>=3)&&(show<5))
   \   0000085C   4100001A           BNE      ??OnRedraw_32
   \                     ??OnRedraw_31:
   \   00000860   000097E5           LDR      R0,[R7, #+0]
   \   00000864   030050E3           CMP      R0,#+3
   \   00000868   3E0000BA           BLT      ??OnRedraw_32
   \   0000086C   050058E3           CMP      R8,#+5
   \   00000870   3C0000AA           BGE      ??OnRedraw_32
    456              {
    457                  wsprintf(ws, BM3NAME);
   \   00000874   ........           LDR      R1,??DataTable42  ;; BM3NAME
   \   00000878   0600A0E1           MOV      R0,R6
   \   0000087C   240100EF           SWI      +292
    458                  len=Get_WS_width(ws,11)/2;
   \   00000880   0B10A0E3           MOV      R1,#+11
   \   00000884   0600A0E1           MOV      R0,R6
   \   00000888   080200EF           SWI      +520
   \   0000088C   A00F80E0           ADD      R0,R0,R0, LSR #+31
   \   00000890   C0A0A0E1           ASR      R10,R0,#+1
    459                  DrawString(ws,66-len,i+1,66+len,i+GetFontYSIZE(11)+2,11,0,ctasks,GetPaletteAdrByColorIndex(23));
   \   00000894   1700A0E3           MOV      R0,#+23
   \   00000898   2E0100EF           SWI      +302
   \   0000089C   00008DE5           STR      R0,[SP, #+0]
   \   000008A0   0B00A0E3           MOV      R0,#+11
   \   000008A4   C50100EF           SWI      +453
   \   000008A8   00109DE5           LDR      R1,[SP, #+0]
   \   000008AC   090080E0           ADD      R0,R0,R9
   \   000008B0   02002DE9           PUSH     {R1}
   \   000008B4   020080E2           ADD      R0,R0,#+2
   \   000008B8   42308AE2           ADD      R3,R10,#+66
   \   000008BC   012089E2           ADD      R2,R9,#+1
   \   000008C0   0410A0E1           MOV      R1,R4
   \   000008C4   02002DE9           PUSH     {R1}
    460                  SearchIcon(ws, i, 1);
    461                  show++;
   \   000008C8   018088E2           ADD      R8,R8,#+1
   \   000008CC   0010A0E3           MOV      R1,#+0
   \   000008D0   02002DE9           PUSH     {R1}
   \   000008D4   0B10A0E3           MOV      R1,#+11
   \   000008D8   02002DE9           PUSH     {R1}
   \   000008DC   01002DE9           PUSH     {R0}
   \   000008E0   42106AE2           RSB      R1,R10,#+66
   \   000008E4   0600A0E1           MOV      R0,R6
   \   000008E8   4C0100EF           SWI      +332
   \   000008EC   0120A0E3           MOV      R2,#+1
   \   000008F0   0910A0E1           MOV      R1,R9
   \   000008F4   0600A0E1           MOV      R0,R6
   \   000008F8   ........           BL       SearchIcon
    462                  i=i+12;
   \   000008FC   0C9089E2           ADD      R9,R9,#+12
   \   00000900   14D08DE2           ADD      SP,SP,#+20
   \   00000904   190000EA           B        ??OnRedraw_33
   \                     ??OnRedraw_0:
   \   00000908   25642500           DC8      "%d%"
   \   0000090C   ........           DC32     `?<Constant "background.png">`
   \   00000910   ........           DC32     background_img
   \   00000914   ........           DC32     `?<Constant "%s%s">`
   \   00000918   ........           DC32     path
   \   0000091C   ........           DC32     cursor_img
   \   00000920   ........           DC32     selection_img
   \   00000924   ........           DC32     tasks_img
   \   00000928   ........           DC32     bookmarks_img
   \   0000092C   ........           DC32     screen2
   \   00000930   ........           DC32     `?<Constant "cursor.png">`
   \   00000934   ........           DC32     `?<Constant "selection.png">`
   \   00000938   ........           DC32     `?<Constant "tasks.png">`
   \   0000093C   ........           DC32     `?<Constant "bookmarks.png">`
   \   00000940   ........           DC32     ctasks
   \   00000944   ........           DC32     cinfo
   \   00000948   ........           DC32     refresh
   \   0000094C   ........           DC32     task_list
   \   00000950   ........           DC32     total_d
   \   00000954   ........           DC32     pos
   \   00000958   ........           DC32     nltop
   \   0000095C   ........           DC32     move_skip
   \   00000960   ........           DC32     cdaemons
   \   00000964   ........           DC32     sm
    463              }
    464              else
    465                skip--;
   \                     ??OnRedraw_32:
   \   00000968   01B05BE2           SUBS     R11,R11,#+1
    466              if((!skip)&&(book_show>=4)&&(show<5))
   \   0000096C   2900001A           BNE      ??OnRedraw_34
   \                     ??OnRedraw_33:
   \   00000970   000097E5           LDR      R0,[R7, #+0]
   \   00000974   040050E3           CMP      R0,#+4
   \   00000978   260000BA           BLT      ??OnRedraw_34
   \   0000097C   050058E3           CMP      R8,#+5
   \   00000980   240000AA           BGE      ??OnRedraw_34
    467              {
    468                  wsprintf(ws, BM4NAME);
   \   00000984   ........           LDR      R1,??DataTable43  ;; BM4NAME
   \   00000988   0600A0E1           MOV      R0,R6
   \   0000098C   240100EF           SWI      +292
    469                  len=Get_WS_width(ws,11)/2;
   \   00000990   0B10A0E3           MOV      R1,#+11
   \   00000994   0600A0E1           MOV      R0,R6
   \   00000998   080200EF           SWI      +520
   \   0000099C   A00F80E0           ADD      R0,R0,R0, LSR #+31
   \   000009A0   C0A0A0E1           ASR      R10,R0,#+1
    470                  DrawString(ws,66-len,i+1,66+len,i+GetFontYSIZE(11)+2,11,0,ctasks,GetPaletteAdrByColorIndex(23));
   \   000009A4   1700A0E3           MOV      R0,#+23
   \   000009A8   2E0100EF           SWI      +302
   \   000009AC   00008DE5           STR      R0,[SP, #+0]
   \   000009B0   0B00A0E3           MOV      R0,#+11
   \   000009B4   C50100EF           SWI      +453
   \   000009B8   00109DE5           LDR      R1,[SP, #+0]
   \   000009BC   090080E0           ADD      R0,R0,R9
   \   000009C0   02002DE9           PUSH     {R1}
   \   000009C4   020080E2           ADD      R0,R0,#+2
   \   000009C8   42308AE2           ADD      R3,R10,#+66
   \   000009CC   012089E2           ADD      R2,R9,#+1
   \   000009D0   0410A0E1           MOV      R1,R4
   \   000009D4   02002DE9           PUSH     {R1}
    471                  SearchIcon(ws, i ,1);
    472                  show++;
   \   000009D8   018088E2           ADD      R8,R8,#+1
   \   000009DC   0010A0E3           MOV      R1,#+0
   \   000009E0   02002DE9           PUSH     {R1}
   \   000009E4   0B10A0E3           MOV      R1,#+11
   \   000009E8   02002DE9           PUSH     {R1}
   \   000009EC   01002DE9           PUSH     {R0}
   \   000009F0   42106AE2           RSB      R1,R10,#+66
   \   000009F4   0600A0E1           MOV      R0,R6
   \   000009F8   4C0100EF           SWI      +332
   \   000009FC   0120A0E3           MOV      R2,#+1
   \   00000A00   0910A0E1           MOV      R1,R9
   \   00000A04   0600A0E1           MOV      R0,R6
   \   00000A08   ........           BL       SearchIcon
    473                  i=i+12;
   \   00000A0C   0C9089E2           ADD      R9,R9,#+12
   \   00000A10   14D08DE2           ADD      SP,SP,#+20
   \   00000A14   010000EA           B        ??OnRedraw_35
    474              }
    475              else
    476                skip--;
   \                     ??OnRedraw_34:
   \   00000A18   01B05BE2           SUBS     R11,R11,#+1
    477              if((!skip)&&(book_show>=5)&&(show<5))
   \   00000A1C   2900001A           BNE      ??OnRedraw_36
   \                     ??OnRedraw_35:
   \   00000A20   000097E5           LDR      R0,[R7, #+0]
   \   00000A24   050050E3           CMP      R0,#+5
   \   00000A28   260000BA           BLT      ??OnRedraw_36
   \   00000A2C   050058E3           CMP      R8,#+5
   \   00000A30   240000AA           BGE      ??OnRedraw_36
    478              {
    479                  wsprintf(ws, BM5NAME);
   \   00000A34   ........           LDR      R1,??DataTable44  ;; BM5NAME
   \   00000A38   0600A0E1           MOV      R0,R6
   \   00000A3C   240100EF           SWI      +292
    480                  len=Get_WS_width(ws,11)/2;
   \   00000A40   0B10A0E3           MOV      R1,#+11
   \   00000A44   0600A0E1           MOV      R0,R6
   \   00000A48   080200EF           SWI      +520
   \   00000A4C   A00F80E0           ADD      R0,R0,R0, LSR #+31
   \   00000A50   C0A0A0E1           ASR      R10,R0,#+1
    481                  DrawString(ws,66-len,i+1,66+len,i+GetFontYSIZE(11)+2,11,0,ctasks,GetPaletteAdrByColorIndex(23));
   \   00000A54   1700A0E3           MOV      R0,#+23
   \   00000A58   2E0100EF           SWI      +302
   \   00000A5C   00008DE5           STR      R0,[SP, #+0]
   \   00000A60   0B00A0E3           MOV      R0,#+11
   \   00000A64   C50100EF           SWI      +453
   \   00000A68   00109DE5           LDR      R1,[SP, #+0]
   \   00000A6C   090080E0           ADD      R0,R0,R9
   \   00000A70   02002DE9           PUSH     {R1}
   \   00000A74   020080E2           ADD      R0,R0,#+2
   \   00000A78   42308AE2           ADD      R3,R10,#+66
   \   00000A7C   012089E2           ADD      R2,R9,#+1
   \   00000A80   0410A0E1           MOV      R1,R4
   \   00000A84   02002DE9           PUSH     {R1}
    482                  SearchIcon(ws, i, 1);
    483                  show++;
   \   00000A88   018088E2           ADD      R8,R8,#+1
   \   00000A8C   0010A0E3           MOV      R1,#+0
   \   00000A90   02002DE9           PUSH     {R1}
   \   00000A94   0B10A0E3           MOV      R1,#+11
   \   00000A98   02002DE9           PUSH     {R1}
   \   00000A9C   01002DE9           PUSH     {R0}
   \   00000AA0   42106AE2           RSB      R1,R10,#+66
   \   00000AA4   0600A0E1           MOV      R0,R6
   \   00000AA8   4C0100EF           SWI      +332
   \   00000AAC   0120A0E3           MOV      R2,#+1
   \   00000AB0   0910A0E1           MOV      R1,R9
   \   00000AB4   0600A0E1           MOV      R0,R6
   \   00000AB8   ........           BL       SearchIcon
    484                  i=i+12;
   \   00000ABC   0C9089E2           ADD      R9,R9,#+12
   \   00000AC0   14D08DE2           ADD      SP,SP,#+20
   \   00000AC4   010000EA           B        ??OnRedraw_37
    485              }
    486              else
    487                skip--;
   \                     ??OnRedraw_36:
   \   00000AC8   01B05BE2           SUBS     R11,R11,#+1
    488              if((!skip)&&(book_show>=6)&&(show<5))
   \   00000ACC   2900001A           BNE      ??OnRedraw_38
   \                     ??OnRedraw_37:
   \   00000AD0   000097E5           LDR      R0,[R7, #+0]
   \   00000AD4   060050E3           CMP      R0,#+6
   \   00000AD8   260000BA           BLT      ??OnRedraw_38
   \   00000ADC   050058E3           CMP      R8,#+5
   \   00000AE0   240000AA           BGE      ??OnRedraw_38
    489              {
    490                  wsprintf(ws, BM6NAME);
   \   00000AE4   ........           LDR      R1,??DataTable45  ;; BM6NAME
   \   00000AE8   0600A0E1           MOV      R0,R6
   \   00000AEC   240100EF           SWI      +292
    491                  len=Get_WS_width(ws,11)/2;
   \   00000AF0   0B10A0E3           MOV      R1,#+11
   \   00000AF4   0600A0E1           MOV      R0,R6
   \   00000AF8   080200EF           SWI      +520
   \   00000AFC   A00F80E0           ADD      R0,R0,R0, LSR #+31
   \   00000B00   C0A0A0E1           ASR      R10,R0,#+1
    492                  DrawString(ws,66-len,i+1,66+len,i+GetFontYSIZE(11)+2,11,0,ctasks,GetPaletteAdrByColorIndex(23));
   \   00000B04   1700A0E3           MOV      R0,#+23
   \   00000B08   2E0100EF           SWI      +302
   \   00000B0C   00008DE5           STR      R0,[SP, #+0]
   \   00000B10   0B00A0E3           MOV      R0,#+11
   \   00000B14   C50100EF           SWI      +453
   \   00000B18   00109DE5           LDR      R1,[SP, #+0]
   \   00000B1C   090080E0           ADD      R0,R0,R9
   \   00000B20   02002DE9           PUSH     {R1}
   \   00000B24   020080E2           ADD      R0,R0,#+2
   \   00000B28   42308AE2           ADD      R3,R10,#+66
   \   00000B2C   012089E2           ADD      R2,R9,#+1
   \   00000B30   0410A0E1           MOV      R1,R4
   \   00000B34   02002DE9           PUSH     {R1}
    493                  SearchIcon(ws, i, 1);
    494                  show++;
   \   00000B38   018088E2           ADD      R8,R8,#+1
   \   00000B3C   0010A0E3           MOV      R1,#+0
   \   00000B40   02002DE9           PUSH     {R1}
   \   00000B44   0B10A0E3           MOV      R1,#+11
   \   00000B48   02002DE9           PUSH     {R1}
   \   00000B4C   01002DE9           PUSH     {R0}
   \   00000B50   42106AE2           RSB      R1,R10,#+66
   \   00000B54   0600A0E1           MOV      R0,R6
   \   00000B58   4C0100EF           SWI      +332
   \   00000B5C   0120A0E3           MOV      R2,#+1
   \   00000B60   0910A0E1           MOV      R1,R9
   \   00000B64   0600A0E1           MOV      R0,R6
   \   00000B68   ........           BL       SearchIcon
    495                  i=i+12;
   \   00000B6C   0C9089E2           ADD      R9,R9,#+12
   \   00000B70   14D08DE2           ADD      SP,SP,#+20
   \   00000B74   010000EA           B        ??OnRedraw_39
    496              }
    497              else
    498                skip--;
   \                     ??OnRedraw_38:
   \   00000B78   01B05BE2           SUBS     R11,R11,#+1
    499              if((!skip)&&(book_show>=7)&&(show<5))
   \   00000B7C   2900001A           BNE      ??OnRedraw_40
   \                     ??OnRedraw_39:
   \   00000B80   000097E5           LDR      R0,[R7, #+0]
   \   00000B84   070050E3           CMP      R0,#+7
   \   00000B88   260000BA           BLT      ??OnRedraw_40
   \   00000B8C   050058E3           CMP      R8,#+5
   \   00000B90   240000AA           BGE      ??OnRedraw_40
    500              {
    501                  wsprintf(ws, BM7NAME);
   \   00000B94   ........           LDR      R1,??DataTable46  ;; BM7NAME
   \   00000B98   0600A0E1           MOV      R0,R6
   \   00000B9C   240100EF           SWI      +292
    502                  len=Get_WS_width(ws,11)/2;
   \   00000BA0   0B10A0E3           MOV      R1,#+11
   \   00000BA4   0600A0E1           MOV      R0,R6
   \   00000BA8   080200EF           SWI      +520
   \   00000BAC   A00F80E0           ADD      R0,R0,R0, LSR #+31
   \   00000BB0   C0A0A0E1           ASR      R10,R0,#+1
    503                  DrawString(ws,66-len,i+1,66+len,i+GetFontYSIZE(11)+2,11,0,ctasks,GetPaletteAdrByColorIndex(23));
   \   00000BB4   1700A0E3           MOV      R0,#+23
   \   00000BB8   2E0100EF           SWI      +302
   \   00000BBC   00008DE5           STR      R0,[SP, #+0]
   \   00000BC0   0B00A0E3           MOV      R0,#+11
   \   00000BC4   C50100EF           SWI      +453
   \   00000BC8   00109DE5           LDR      R1,[SP, #+0]
   \   00000BCC   090080E0           ADD      R0,R0,R9
   \   00000BD0   02002DE9           PUSH     {R1}
   \   00000BD4   020080E2           ADD      R0,R0,#+2
   \   00000BD8   42308AE2           ADD      R3,R10,#+66
   \   00000BDC   012089E2           ADD      R2,R9,#+1
   \   00000BE0   0410A0E1           MOV      R1,R4
   \   00000BE4   02002DE9           PUSH     {R1}
    504                  SearchIcon(ws, i, 1);
    505                  show++;
   \   00000BE8   018088E2           ADD      R8,R8,#+1
   \   00000BEC   0010A0E3           MOV      R1,#+0
   \   00000BF0   02002DE9           PUSH     {R1}
   \   00000BF4   0B10A0E3           MOV      R1,#+11
   \   00000BF8   02002DE9           PUSH     {R1}
   \   00000BFC   01002DE9           PUSH     {R0}
   \   00000C00   42106AE2           RSB      R1,R10,#+66
   \   00000C04   0600A0E1           MOV      R0,R6
   \   00000C08   4C0100EF           SWI      +332
   \   00000C0C   0120A0E3           MOV      R2,#+1
   \   00000C10   0910A0E1           MOV      R1,R9
   \   00000C14   0600A0E1           MOV      R0,R6
   \   00000C18   ........           BL       SearchIcon
    506                  i=i+12;
   \   00000C1C   0C9089E2           ADD      R9,R9,#+12
   \   00000C20   14D08DE2           ADD      SP,SP,#+20
   \   00000C24   010000EA           B        ??OnRedraw_41
    507              }
    508              else
    509                skip--;
   \                     ??OnRedraw_40:
   \   00000C28   01B05BE2           SUBS     R11,R11,#+1
    510              if((!skip)&&(book_show>=8)&&(show<5))
   \   00000C2C   2900001A           BNE      ??OnRedraw_42
   \                     ??OnRedraw_41:
   \   00000C30   000097E5           LDR      R0,[R7, #+0]
   \   00000C34   080050E3           CMP      R0,#+8
   \   00000C38   260000BA           BLT      ??OnRedraw_42
   \   00000C3C   050058E3           CMP      R8,#+5
   \   00000C40   240000AA           BGE      ??OnRedraw_42
    511              {
    512                  wsprintf(ws, BM8NAME);
   \   00000C44   ........           LDR      R1,??DataTable47  ;; BM8NAME
   \   00000C48   0600A0E1           MOV      R0,R6
   \   00000C4C   240100EF           SWI      +292
    513                  len=Get_WS_width(ws,11)/2;
   \   00000C50   0B10A0E3           MOV      R1,#+11
   \   00000C54   0600A0E1           MOV      R0,R6
   \   00000C58   080200EF           SWI      +520
   \   00000C5C   A00F80E0           ADD      R0,R0,R0, LSR #+31
   \   00000C60   C0A0A0E1           ASR      R10,R0,#+1
    514                  DrawString(ws,66-len,i+1,66+len,i+GetFontYSIZE(11)+2,11,0,ctasks,GetPaletteAdrByColorIndex(23));
   \   00000C64   1700A0E3           MOV      R0,#+23
   \   00000C68   2E0100EF           SWI      +302
   \   00000C6C   00008DE5           STR      R0,[SP, #+0]
   \   00000C70   0B00A0E3           MOV      R0,#+11
   \   00000C74   C50100EF           SWI      +453
   \   00000C78   00109DE5           LDR      R1,[SP, #+0]
   \   00000C7C   090080E0           ADD      R0,R0,R9
   \   00000C80   02002DE9           PUSH     {R1}
   \   00000C84   020080E2           ADD      R0,R0,#+2
   \   00000C88   42308AE2           ADD      R3,R10,#+66
   \   00000C8C   012089E2           ADD      R2,R9,#+1
   \   00000C90   0410A0E1           MOV      R1,R4
   \   00000C94   02002DE9           PUSH     {R1}
    515                  SearchIcon(ws, i, 1);
    516                  show++;
   \   00000C98   018088E2           ADD      R8,R8,#+1
   \   00000C9C   0010A0E3           MOV      R1,#+0
   \   00000CA0   02002DE9           PUSH     {R1}
   \   00000CA4   0B10A0E3           MOV      R1,#+11
   \   00000CA8   02002DE9           PUSH     {R1}
   \   00000CAC   01002DE9           PUSH     {R0}
   \   00000CB0   42106AE2           RSB      R1,R10,#+66
   \   00000CB4   0600A0E1           MOV      R0,R6
   \   00000CB8   4C0100EF           SWI      +332
   \   00000CBC   0120A0E3           MOV      R2,#+1
   \   00000CC0   0910A0E1           MOV      R1,R9
   \   00000CC4   0600A0E1           MOV      R0,R6
   \   00000CC8   ........           BL       SearchIcon
    517                  i=i+12;
   \   00000CCC   0C9089E2           ADD      R9,R9,#+12
   \   00000CD0   14D08DE2           ADD      SP,SP,#+20
   \   00000CD4   010000EA           B        ??OnRedraw_43
    518              }
    519              else
    520                skip--;
   \                     ??OnRedraw_42:
   \   00000CD8   01B05BE2           SUBS     R11,R11,#+1
    521              if((!skip)&&(book_show>=9)&&(show<5))
   \   00000CDC   2800001A           BNE      ??OnRedraw_44
   \                     ??OnRedraw_43:
   \   00000CE0   000097E5           LDR      R0,[R7, #+0]
   \   00000CE4   090050E3           CMP      R0,#+9
   \   00000CE8   250000BA           BLT      ??OnRedraw_44
   \   00000CEC   050058E3           CMP      R8,#+5
   \   00000CF0   230000AA           BGE      ??OnRedraw_44
    522              {
    523                  wsprintf(ws, BM9NAME);
   \   00000CF4   ........           LDR      R1,??DataTable48  ;; BM9NAME
   \   00000CF8   0600A0E1           MOV      R0,R6
   \   00000CFC   240100EF           SWI      +292
    524                  len=Get_WS_width(ws,11)/2;
   \   00000D00   0B10A0E3           MOV      R1,#+11
   \   00000D04   0600A0E1           MOV      R0,R6
   \   00000D08   080200EF           SWI      +520
   \   00000D0C   A00F80E0           ADD      R0,R0,R0, LSR #+31
   \   00000D10   C0A0A0E1           ASR      R10,R0,#+1
    525                  DrawString(ws,66-len,i+1,66+len,i+GetFontYSIZE(11)+2,11,0,ctasks,GetPaletteAdrByColorIndex(23));
   \   00000D14   1700A0E3           MOV      R0,#+23
   \   00000D18   2E0100EF           SWI      +302
   \   00000D1C   00B0A0E1           MOV      R11,R0
   \   00000D20   0B00A0E3           MOV      R0,#+11
   \   00000D24   C50100EF           SWI      +453
   \   00000D28   00082DE9           PUSH     {R11}
   \   00000D2C   0410A0E1           MOV      R1,R4
   \   00000D30   02002DE9           PUSH     {R1}
   \   00000D34   090080E0           ADD      R0,R0,R9
   \   00000D38   020080E2           ADD      R0,R0,#+2
   \   00000D3C   42308AE2           ADD      R3,R10,#+66
   \   00000D40   0010A0E3           MOV      R1,#+0
   \   00000D44   02002DE9           PUSH     {R1}
   \   00000D48   012089E2           ADD      R2,R9,#+1
    526                  SearchIcon(ws, i, 1);
    527                  show++;
   \   00000D4C   018088E2           ADD      R8,R8,#+1
   \   00000D50   0B10A0E3           MOV      R1,#+11
   \   00000D54   02002DE9           PUSH     {R1}
   \   00000D58   01002DE9           PUSH     {R0}
   \   00000D5C   42106AE2           RSB      R1,R10,#+66
   \   00000D60   0600A0E1           MOV      R0,R6
   \   00000D64   4C0100EF           SWI      +332
   \   00000D68   0120A0E3           MOV      R2,#+1
   \   00000D6C   0910A0E1           MOV      R1,R9
   \   00000D70   0600A0E1           MOV      R0,R6
   \   00000D74   ........           BL       SearchIcon
    528                  i=i+12;
   \   00000D78   0C9089E2           ADD      R9,R9,#+12
   \   00000D7C   14D08DE2           ADD      SP,SP,#+20
   \   00000D80   010000EA           B        ??OnRedraw_45
    529              }
    530              else
    531                skip--;
    532              if((!skip)&&(book_show>=10)&&(show<5))
   \                     ??OnRedraw_44:
   \   00000D84   01005BE2           SUBS     R0,R11,#+1
   \   00000D88   2400001A           BNE      ??OnRedraw_46
   \                     ??OnRedraw_45:
   \   00000D8C   000097E5           LDR      R0,[R7, #+0]
   \   00000D90   0A0050E3           CMP      R0,#+10
   \   00000D94   210000BA           BLT      ??OnRedraw_46
   \   00000D98   050058E3           CMP      R8,#+5
   \   00000D9C   1F0000AA           BGE      ??OnRedraw_46
    533              {
    534                  wsprintf(ws, BM0NAME);
   \   00000DA0   ........           LDR      R1,??DataTable49  ;; BM0NAME
   \   00000DA4   0600A0E1           MOV      R0,R6
   \   00000DA8   240100EF           SWI      +292
    535                  len=Get_WS_width(ws,11)/2;
   \   00000DAC   0B10A0E3           MOV      R1,#+11
   \   00000DB0   0600A0E1           MOV      R0,R6
   \   00000DB4   080200EF           SWI      +520
   \   00000DB8   A00F80E0           ADD      R0,R0,R0, LSR #+31
   \   00000DBC   C0A0A0E1           ASR      R10,R0,#+1
    536                  DrawString(ws,66-len,i+1,66+len,i+GetFontYSIZE(11)+2,11,0,ctasks,GetPaletteAdrByColorIndex(23));
   \   00000DC0   1700A0E3           MOV      R0,#+23
   \   00000DC4   2E0100EF           SWI      +302
   \   00000DC8   0070A0E1           MOV      R7,R0
   \   00000DCC   0B00A0E3           MOV      R0,#+11
   \   00000DD0   C50100EF           SWI      +453
   \   00000DD4   80002DE9           PUSH     {R7}
   \   00000DD8   10002DE9           PUSH     {R4}
   \   00000DDC   0010A0E3           MOV      R1,#+0
   \   00000DE0   02002DE9           PUSH     {R1}
   \   00000DE4   090080E0           ADD      R0,R0,R9
   \   00000DE8   020080E2           ADD      R0,R0,#+2
   \   00000DEC   42308AE2           ADD      R3,R10,#+66
   \   00000DF0   0B10A0E3           MOV      R1,#+11
   \   00000DF4   02002DE9           PUSH     {R1}
   \   00000DF8   01002DE9           PUSH     {R0}
   \   00000DFC   012089E2           ADD      R2,R9,#+1
   \   00000E00   42106AE2           RSB      R1,R10,#+66
   \   00000E04   0600A0E1           MOV      R0,R6
   \   00000E08   4C0100EF           SWI      +332
    537                  SearchIcon(ws, i, 1);
   \   00000E0C   0120A0E3           MOV      R2,#+1
   \   00000E10   0910A0E1           MOV      R1,R9
   \   00000E14   0600A0E1           MOV      R0,R6
   \   00000E18   ........           BL       SearchIcon
    538                  show++;
    539                  i=i+12;
   \   00000E1C   14D08DE2           ADD      SP,SP,#+20
    540              }
    541              else
    542                skip--;
    543              if(time_not)
   \                     ??OnRedraw_46:
   \   00000E20   EC049FE5           LDR      R0,??OnRedraw_23  ;; time_not
   \   00000E24   000090E5           LDR      R0,[R0, #+0]
   \   00000E28   000050E3           CMP      R0,#+0
   \   00000E2C   3E00000A           BEQ      ??OnRedraw_47
    544              {
    545                if(!style) wsprintf(ws, "Tasks:%d", tasks);
   \   00000E30   E0049FE5           LDR      R0,??OnRedraw_23+0x4  ;; tasks
   \   00000E34   002090E5           LDR      R2,[R0, #+0]
   \   00000E38   DC049FE5           LDR      R0,??OnRedraw_23+0x8  ;; style
   \   00000E3C   000090E5           LDR      R0,[R0, #+0]
   \   00000E40   000050E3           CMP      R0,#+0
   \   00000E44   D4149F05           LDREQ    R1,??OnRedraw_23+0xC  ;; `?<Constant "Tasks:%d">`
    546                else wsprintf(ws, "T:%d", tasks);
   \   00000E48   0600A0E1           MOV      R0,R6
   \   00000E4C   D0149F15           LDRNE    R1,??OnRedraw_23+0x10  ;; `?<Constant "T:%d">`
   \   00000E50   240100EF           SWI      +292
    547                DrawString(ws,16,124,16+Get_WS_width(ws,11)+3,124+GetFontYSIZE(11)+1,11,0,cinfo,GetPaletteAdrByColorIndex(23));
   \   00000E54   1700A0E3           MOV      R0,#+23
   \   00000E58   2E0100EF           SWI      +302
   \   00000E5C   0040A0E1           MOV      R4,R0
   \   00000E60   0B00A0E3           MOV      R0,#+11
   \   00000E64   C50100EF           SWI      +453
   \   00000E68   0070A0E1           MOV      R7,R0
   \   00000E6C   0B10A0E3           MOV      R1,#+11
   \   00000E70   0600A0E1           MOV      R0,R6
   \   00000E74   080200EF           SWI      +520
   \   00000E78   10002DE9           PUSH     {R4}
   \   00000E7C   0510A0E1           MOV      R1,R5
   \   00000E80   02002DE9           PUSH     {R1}
   \   00000E84   133080E2           ADD      R3,R0,#+19
   \   00000E88   7C20A0E3           MOV      R2,#+124
   \   00000E8C   0600A0E1           MOV      R0,R6
   \   00000E90   0010A0E3           MOV      R1,#+0
   \   00000E94   02002DE9           PUSH     {R1}
   \   00000E98   0B10A0E3           MOV      R1,#+11
   \   00000E9C   02002DE9           PUSH     {R1}
   \   00000EA0   7D1087E2           ADD      R1,R7,#+125
   \   00000EA4   02002DE9           PUSH     {R1}
   \   00000EA8   1010A0E3           MOV      R1,#+16
   \   00000EAC   4C0100EF           SWI      +332
    548                int ram = GetFreeRamAvail();
   \   00000EB0   5F0000EF           SWI      +95
    549                ram=ram/1024;
    550                wsprintf(ws,"Ram:%dKb", ram);
   \   00000EB4   C014A0E1           ASR      R1,R0,#+9
   \   00000EB8   210B80E0           ADD      R0,R0,R1, LSR #+22
   \   00000EBC   64149FE5           LDR      R1,??OnRedraw_23+0x14  ;; `?<Constant "Ram:%dKb">`
   \   00000EC0   4025A0E1           ASR      R2,R0,#+10
   \   00000EC4   0600A0E1           MOV      R0,R6
   \   00000EC8   240100EF           SWI      +292
    551                 DrawString(ws,115-Get_WS_width(ws,11),124,115+3,124+GetFontYSIZE(11)+1,11,0,cinfo,GetPaletteAdrByColorIndex(23));
   \   00000ECC   1700A0E3           MOV      R0,#+23
   \   00000ED0   2E0100EF           SWI      +302
   \   00000ED4   0040A0E1           MOV      R4,R0
   \   00000ED8   0B00A0E3           MOV      R0,#+11
   \   00000EDC   C50100EF           SWI      +453
   \   00000EE0   0070A0E1           MOV      R7,R0
   \   00000EE4   0B10A0E3           MOV      R1,#+11
   \   00000EE8   0600A0E1           MOV      R0,R6
   \   00000EEC   080200EF           SWI      +520
   \   00000EF0   10002DE9           PUSH     {R4}
   \   00000EF4   20002DE9           PUSH     {R5}
   \   00000EF8   0010A0E3           MOV      R1,#+0
   \   00000EFC   02002DE9           PUSH     {R1}
   \   00000F00   7630A0E3           MOV      R3,#+118
   \   00000F04   7C20A0E3           MOV      R2,#+124
   \   00000F08   0B10A0E3           MOV      R1,#+11
   \   00000F0C   02002DE9           PUSH     {R1}
   \   00000F10   7D1087E2           ADD      R1,R7,#+125
   \   00000F14   02002DE9           PUSH     {R1}
   \   00000F18   731060E2           RSB      R1,R0,#+115
   \   00000F1C   0600A0E1           MOV      R0,R6
   \   00000F20   4C0100EF           SWI      +332
   \   00000F24   28D08DE2           ADD      SP,SP,#+40
   \   00000F28   3C0000EA           B        ??OnRedraw_48
    552              }
    553              else
    554              {
    555                int battery = *RamCap();
   \                     ??OnRedraw_47:
   \   00000F2C   C88000EF           SWI      +32968
   \   00000F30   B020D0E1           LDRH     R2,[R0, #+0]
    556                wsprintf(ws,"%d%", battery);
   \   00000F34   A91F8FE2           ADR      R1,??OnRedraw_15  ;; "%d%"
   \   00000F38   0600A0E1           MOV      R0,R6
   \   00000F3C   240100EF           SWI      +292
    557                DrawString(ws,16,124,16+Get_WS_width(ws,11)+3,124+GetFontYSIZE(11)+1,11,0,cinfo,GetPaletteAdrByColorIndex(23));
   \   00000F40   1700A0E3           MOV      R0,#+23
   \   00000F44   2E0100EF           SWI      +302
   \   00000F48   0040A0E1           MOV      R4,R0
   \   00000F4C   0B00A0E3           MOV      R0,#+11
   \   00000F50   C50100EF           SWI      +453
   \   00000F54   0070A0E1           MOV      R7,R0
   \   00000F58   0B10A0E3           MOV      R1,#+11
   \   00000F5C   0600A0E1           MOV      R0,R6
   \   00000F60   080200EF           SWI      +520
   \   00000F64   10002DE9           PUSH     {R4}
   \   00000F68   0510A0E1           MOV      R1,R5
   \   00000F6C   02002DE9           PUSH     {R1}
   \   00000F70   133080E2           ADD      R3,R0,#+19
   \   00000F74   7C20A0E3           MOV      R2,#+124
   \   00000F78   0600A0E1           MOV      R0,R6
   \   00000F7C   0010A0E3           MOV      R1,#+0
   \   00000F80   02002DE9           PUSH     {R1}
   \   00000F84   0B10A0E3           MOV      R1,#+11
   \   00000F88   02002DE9           PUSH     {R1}
   \   00000F8C   7D1087E2           ADD      R1,R7,#+125
   \   00000F90   02002DE9           PUSH     {R1}
   \   00000F94   1010A0E3           MOV      R1,#+16
   \   00000F98   4C0100EF           SWI      +332
    558                TTime time;
    559                TDate date;
    560                GetDateTime(&date, &time);
   \   00000F9C   18108DE2           ADD      R1,SP,#+24
   \   00000FA0   24008DE2           ADD      R0,SP,#+36
   \   00000FA4   B40000EF           SWI      +180
    561                wsprintf(ws, "%02d:%02d:%02d", time.hour, time.min, time.sec);
   \   00000FA8   1A00DDE5           LDRB     R0,[SP, #+26]
   \   00000FAC   7C139FE5           LDR      R1,??OnRedraw_23+0x1C  ;; `?<Constant "%02d:%02d:%02d">`
   \   00000FB0   01002DE9           PUSH     {R0}
   \   00000FB4   1D30DDE5           LDRB     R3,[SP, #+29]
   \   00000FB8   1C20DDE5           LDRB     R2,[SP, #+28]
   \   00000FBC   0600A0E1           MOV      R0,R6
   \   00000FC0   240100EF           SWI      +292
    562                DrawString(ws,115-Get_WS_width(ws,11),124,115+3,124+GetFontYSIZE(11)+1,11,0,cinfo,GetPaletteAdrByColorIndex(23));
   \   00000FC4   1700A0E3           MOV      R0,#+23
   \   00000FC8   2E0100EF           SWI      +302
   \   00000FCC   0040A0E1           MOV      R4,R0
   \   00000FD0   0B00A0E3           MOV      R0,#+11
   \   00000FD4   C50100EF           SWI      +453
   \   00000FD8   0070A0E1           MOV      R7,R0
   \   00000FDC   0B10A0E3           MOV      R1,#+11
   \   00000FE0   0600A0E1           MOV      R0,R6
   \   00000FE4   080200EF           SWI      +520
   \   00000FE8   10002DE9           PUSH     {R4}
   \   00000FEC   20002DE9           PUSH     {R5}
   \   00000FF0   0010A0E3           MOV      R1,#+0
   \   00000FF4   02002DE9           PUSH     {R1}
   \   00000FF8   7630A0E3           MOV      R3,#+118
   \   00000FFC   7C20A0E3           MOV      R2,#+124
   \   00001000   0B10A0E3           MOV      R1,#+11
   \   00001004   02002DE9           PUSH     {R1}
   \   00001008   7D1087E2           ADD      R1,R7,#+125
   \   0000100C   02002DE9           PUSH     {R1}
   \   00001010   731060E2           RSB      R1,R0,#+115
   \   00001014   0600A0E1           MOV      R0,R6
   \   00001018   4C0100EF           SWI      +332
   \   0000101C   2CD08DE2           ADD      SP,SP,#+44
    563                
    564              }
    565            FreeWS(ws);
   \                     ??OnRedraw_48:
   \   00001020   0600A0E1           MOV      R0,R6
   \   00001024   AE0000EA           B        ??OnRedraw_26
    566            }//===============================end do links
    567            else
    568              if(task_list==2)
   \                     ??OnRedraw_27:
   \   00001028   020050E3           CMP      R0,#+2
   \   0000102C   AD00001A           BNE      ??OnRedraw_49
    569              {
    570                DrwImg3(&screen2, 0, 0, NULL, NULL);
   \   00001030   0000A0E3           MOV      R0,#+0
   \   00001034   01002DE9           PUSH     {R0}
   \   00001038   0030A0E3           MOV      R3,#+0
   \   0000103C   0020A0E1           MOV      R2,R0
   \   00001040   0010A0E1           MOV      R1,R0
   \   00001044   0B00A0E1           MOV      R0,R11
   \   00001048   ........           BL       DrwImg3
    571                DrawImg(12, 26,(int)background_img);  //12,37
   \   0000104C   0620A0E1           MOV      R2,R6
   \   00001050   1A10A0E3           MOV      R1,#+26
   \   00001054   0C00A0E3           MOV      R0,#+12
   \   00001058   230000EF           SWI      +35
    572          //      DrawImg(16,48+(pos*12),(int)cursor_img);
    573          //      DrawImg(100,39,(int)selection_img);
    574                DrawImg(83,40,(int)tasks_img);
   \   0000105C   0920A0E1           MOV      R2,R9
   \   00001060   2810A0E3           MOV      R1,#+40
   \   00001064   5300A0E3           MOV      R0,#+83
   \   00001068   230000EF           SWI      +35
    575                DrawImg(101,40,(int)bookmarks_img);
   \   0000106C   0A20A0E1           MOV      R2,R10
   \   00001070   2810A0E3           MOV      R1,#+40
   \   00001074   6500A0E3           MOV      R0,#+101
   \   00001078   230000EF           SWI      +35
    576                if(shutd) {DrawImg(16,60,(int)shutdown1); DrawImg(16,91,(int)reboot2);}
   \   0000107C   ........           LDR      R0,??DataTable81  ;; shutd
   \   00001080   000090E5           LDR      R0,[R0, #+0]
   \   00001084   04D08DE2           ADD      SP,SP,#+4
   \   00001088   000050E3           CMP      R0,#+0
   \   0000108C   0500000A           BEQ      ??OnRedraw_50
   \   00001090   ........           LDR      R2,??DataTable51  ;; shutdown1
   \   00001094   3C10A0E3           MOV      R1,#+60
   \   00001098   1000A0E3           MOV      R0,#+16
   \   0000109C   230000EF           SWI      +35
   \   000010A0   ........           LDR      R2,??DataTable52  ;; reboot2
   \   000010A4   040000EA           B        ??OnRedraw_51
    577                else
    578                {DrawImg(16,60,(int)shutdown2); DrawImg(16,91,(int)reboot1);}
   \                     ??OnRedraw_50:
   \   000010A8   ........           LDR      R2,??DataTable53  ;; shutdown2
   \   000010AC   3C10A0E3           MOV      R1,#+60
   \   000010B0   1000A0E3           MOV      R0,#+16
   \   000010B4   230000EF           SWI      +35
   \   000010B8   ........           LDR      R2,??DataTable54  ;; reboot1
   \                     ??OnRedraw_51:
   \   000010BC   5B10A0E3           MOV      R1,#+91
   \   000010C0   1000A0E3           MOV      R0,#+16
   \   000010C4   230000EF           SWI      +35
    579                WSHDR *ws=AllocWS(32);
   \   000010C8   2000A0E3           MOV      R0,#+32
   \   000010CC   250100EF           SWI      +293
   \   000010D0   0040A0E1           MOV      R4,R0
    580                if(time_not)
   \   000010D4   38029FE5           LDR      R0,??OnRedraw_23  ;; time_not
   \   000010D8   000090E5           LDR      R0,[R0, #+0]
   \   000010DC   000050E3           CMP      R0,#+0
   \   000010E0   4100000A           BEQ      ??OnRedraw_52
    581                {
    582                if(!style) wsprintf(ws, "Tasks:%d", tasks);
   \   000010E4   2C029FE5           LDR      R0,??OnRedraw_23+0x4  ;; tasks
   \   000010E8   002090E5           LDR      R2,[R0, #+0]
   \   000010EC   28029FE5           LDR      R0,??OnRedraw_23+0x8  ;; style
   \   000010F0   000090E5           LDR      R0,[R0, #+0]
   \   000010F4   000050E3           CMP      R0,#+0
   \   000010F8   20129F05           LDREQ    R1,??OnRedraw_23+0xC  ;; `?<Constant "Tasks:%d">`
    583                else wsprintf(ws, "T:%d", tasks);
   \   000010FC   0400A0E1           MOV      R0,R4
   \   00001100   1C129F15           LDRNE    R1,??OnRedraw_23+0x10  ;; `?<Constant "T:%d">`
   \   00001104   240100EF           SWI      +292
    584                DrawString(ws,16,124,16+Get_WS_width(ws,11)+3,124+GetFontYSIZE(11)+1,11,0,cinfo,GetPaletteAdrByColorIndex(23));
   \   00001108   1700A0E3           MOV      R0,#+23
   \   0000110C   2E0100EF           SWI      +302
   \   00001110   0060A0E1           MOV      R6,R0
   \   00001114   0B00A0E3           MOV      R0,#+11
   \   00001118   C50100EF           SWI      +453
   \   0000111C   0070A0E1           MOV      R7,R0
   \   00001120   0B10A0E3           MOV      R1,#+11
   \   00001124   0400A0E1           MOV      R0,R4
   \   00001128   080200EF           SWI      +520
   \   0000112C   40002DE9           PUSH     {R6}
   \   00001130   0510A0E1           MOV      R1,R5
   \   00001134   02002DE9           PUSH     {R1}
   \   00001138   133080E2           ADD      R3,R0,#+19
   \   0000113C   7C20A0E3           MOV      R2,#+124
   \   00001140   0400A0E1           MOV      R0,R4
   \   00001144   0010A0E3           MOV      R1,#+0
   \   00001148   02002DE9           PUSH     {R1}
   \   0000114C   0B10A0E3           MOV      R1,#+11
   \   00001150   02002DE9           PUSH     {R1}
   \   00001154   7D1087E2           ADD      R1,R7,#+125
   \   00001158   02002DE9           PUSH     {R1}
   \   0000115C   1010A0E3           MOV      R1,#+16
   \   00001160   4C0100EF           SWI      +332
    585                int ram = GetFreeRamAvail();
   \   00001164   5F0000EF           SWI      +95
    586                ram=ram/1024;
    587                wsprintf(ws,"Ram:%dKb", ram);
   \   00001168   C014A0E1           ASR      R1,R0,#+9
   \   0000116C   210B80E0           ADD      R0,R0,R1, LSR #+22
   \   00001170   B0119FE5           LDR      R1,??OnRedraw_23+0x14  ;; `?<Constant "Ram:%dKb">`
   \   00001174   4025A0E1           ASR      R2,R0,#+10
   \   00001178   0400A0E1           MOV      R0,R4
   \   0000117C   240100EF           SWI      +292
    588                 DrawString(ws,115-Get_WS_width(ws,11),124,115+3,124+GetFontYSIZE(11)+1,11,0,cinfo,GetPaletteAdrByColorIndex(23));
   \   00001180   1700A0E3           MOV      R0,#+23
   \   00001184   2E0100EF           SWI      +302
   \   00001188   0060A0E1           MOV      R6,R0
   \   0000118C   0B00A0E3           MOV      R0,#+11
   \   00001190   C50100EF           SWI      +453
   \   00001194   0070A0E1           MOV      R7,R0
   \   00001198   0B10A0E3           MOV      R1,#+11
   \   0000119C   0400A0E1           MOV      R0,R4
   \   000011A0   080200EF           SWI      +520
   \   000011A4   40002DE9           PUSH     {R6}
   \   000011A8   20002DE9           PUSH     {R5}
   \   000011AC   0010A0E3           MOV      R1,#+0
   \   000011B0   02002DE9           PUSH     {R1}
   \   000011B4   7630A0E3           MOV      R3,#+118
   \   000011B8   7C20A0E3           MOV      R2,#+124
   \   000011BC   0B10A0E3           MOV      R1,#+11
   \   000011C0   02002DE9           PUSH     {R1}
   \   000011C4   7D1087E2           ADD      R1,R7,#+125
   \   000011C8   02002DE9           PUSH     {R1}
   \   000011CC   731060E2           RSB      R1,R0,#+115
   \   000011D0   0400A0E1           MOV      R0,R4
   \   000011D4   4C0100EF           SWI      +332
   \   000011D8   28D08DE2           ADD      SP,SP,#+40
   \   000011DC   3F0000EA           B        ??OnRedraw_53
   \                     ??OnRedraw_15:
   \   000011E0   25642500           DC8      "%d%"
   \   000011E4   ........           DC32     forward
   \   000011E8   ........           DC32     halt
    589                }
    590                else
    591                {
    592                int battery = *RamCap();
   \                     ??OnRedraw_52:
   \   000011EC   C88000EF           SWI      +32968
   \   000011F0   B020D0E1           LDRH     R2,[R0, #+0]
    593                wsprintf(ws,"%d%", battery);
   \   000011F4   4C1F8FE2           ADR      R1,??OnRedraw_23+0x18  ;; "%d%"
   \   000011F8   0400A0E1           MOV      R0,R4
   \   000011FC   240100EF           SWI      +292
    594                DrawString(ws,16,124,16+Get_WS_width(ws,11)+3,124+GetFontYSIZE(11)+1,11,0,cinfo,GetPaletteAdrByColorIndex(23));
   \   00001200   1700A0E3           MOV      R0,#+23
   \   00001204   2E0100EF           SWI      +302
   \   00001208   0060A0E1           MOV      R6,R0
   \   0000120C   0B00A0E3           MOV      R0,#+11
   \   00001210   C50100EF           SWI      +453
   \   00001214   0070A0E1           MOV      R7,R0
   \   00001218   0B10A0E3           MOV      R1,#+11
   \   0000121C   0400A0E1           MOV      R0,R4
   \   00001220   080200EF           SWI      +520
   \   00001224   40002DE9           PUSH     {R6}
   \   00001228   0510A0E1           MOV      R1,R5
   \   0000122C   02002DE9           PUSH     {R1}
   \   00001230   133080E2           ADD      R3,R0,#+19
   \   00001234   7C20A0E3           MOV      R2,#+124
   \   00001238   0400A0E1           MOV      R0,R4
   \   0000123C   0010A0E3           MOV      R1,#+0
   \   00001240   02002DE9           PUSH     {R1}
   \   00001244   0B10A0E3           MOV      R1,#+11
   \   00001248   02002DE9           PUSH     {R1}
   \   0000124C   7D1087E2           ADD      R1,R7,#+125
   \   00001250   02002DE9           PUSH     {R1}
   \   00001254   1010A0E3           MOV      R1,#+16
   \   00001258   4C0100EF           SWI      +332
    595                TTime time;
    596                TDate date;
    597                GetDateTime(&date, &time);
   \   0000125C   18108DE2           ADD      R1,SP,#+24
   \   00001260   24008DE2           ADD      R0,SP,#+36
   \   00001264   B40000EF           SWI      +180
    598                wsprintf(ws, "%02d:%02d:%02d", time.hour, time.min, time.sec);
   \   00001268   1A00DDE5           LDRB     R0,[SP, #+26]
   \   0000126C   BC109FE5           LDR      R1,??OnRedraw_23+0x1C  ;; `?<Constant "%02d:%02d:%02d">`
   \   00001270   01002DE9           PUSH     {R0}
   \   00001274   1D30DDE5           LDRB     R3,[SP, #+29]
   \   00001278   1C20DDE5           LDRB     R2,[SP, #+28]
   \   0000127C   0400A0E1           MOV      R0,R4
   \   00001280   240100EF           SWI      +292
    599                DrawString(ws,115-Get_WS_width(ws,11),124,115+3,124+GetFontYSIZE(11)+1,11,0,cinfo,GetPaletteAdrByColorIndex(23));
   \   00001284   1700A0E3           MOV      R0,#+23
   \   00001288   2E0100EF           SWI      +302
   \   0000128C   0060A0E1           MOV      R6,R0
   \   00001290   0B00A0E3           MOV      R0,#+11
   \   00001294   C50100EF           SWI      +453
   \   00001298   0070A0E1           MOV      R7,R0
   \   0000129C   0B10A0E3           MOV      R1,#+11
   \   000012A0   0400A0E1           MOV      R0,R4
   \   000012A4   080200EF           SWI      +520
   \   000012A8   40002DE9           PUSH     {R6}
   \   000012AC   20002DE9           PUSH     {R5}
   \   000012B0   0010A0E3           MOV      R1,#+0
   \   000012B4   02002DE9           PUSH     {R1}
   \   000012B8   7630A0E3           MOV      R3,#+118
   \   000012BC   7C20A0E3           MOV      R2,#+124
   \   000012C0   0B10A0E3           MOV      R1,#+11
   \   000012C4   02002DE9           PUSH     {R1}
   \   000012C8   7D1087E2           ADD      R1,R7,#+125
   \   000012CC   02002DE9           PUSH     {R1}
   \   000012D0   731060E2           RSB      R1,R0,#+115
   \   000012D4   0400A0E1           MOV      R0,R4
   \   000012D8   4C0100EF           SWI      +332
   \   000012DC   2CD08DE2           ADD      SP,SP,#+44
    600                }
    601                FreeWS(ws);
   \                     ??OnRedraw_53:
   \   000012E0   0400A0E1           MOV      R0,R4
   \                     ??OnRedraw_26:
   \   000012E4   290100EF           SWI      +297
    602              }
    603            if(task_list!=3) GBS_StartTimerProc(&start_tmr, refresh, redrit); 
   \                     ??OnRedraw_49:
   \   000012E8   ........           LDR      R0,??DataTable97  ;; task_list
   \   000012EC   000090E5           LDR      R0,[R0, #+0]
   \   000012F0   030050E3           CMP      R0,#+3
   \   000012F4   0400000A           BEQ      ??OnRedraw_54
   \   000012F8   34009FE5           LDR      R0,??OnRedraw_23+0x20  ;; refresh
   \   000012FC   ........           LDR      R2,??DataTable75  ;; redrit
   \   00001300   001090E5           LDR      R1,[R0, #+0]
   \   00001304   ........           LDR      R0,??DataTable76  ;; start_tmr
   \   00001308   4D0000EF           SWI      +77
    604          }
   \                     ??OnRedraw_54:
   \   0000130C   30D08DE2           ADD      SP,SP,#+48       ;; stack cleaning
   \   00001310   F08FBDE8           POP      {R4-R11,PC}      ;; return
   \                     ??OnRedraw_23:
   \   00001314   ........           DC32     time_not
   \   00001318   ........           DC32     tasks
   \   0000131C   ........           DC32     style
   \   00001320   ........           DC32     `?<Constant "Tasks:%d">`
   \   00001324   ........           DC32     `?<Constant "T:%d">`
   \   00001328   ........           DC32     `?<Constant "Ram:%dKb">`
   \   0000132C   25642500           DC8      "%d%"
   \   00001330   ........           DC32     `?<Constant "%02d:%02d:%02d">`
   \   00001334   ........           DC32     refresh
    605          

   \                                 In segment CODE, align 4, keep-with-next
    606          void onCreate(MAIN_GUI *data, void *(*malloc_adr)(int)) //Create
    607          {
    608            data->gui.state=1;
   \                     onCreate:
   \   00000000   0110A0E3           MOV      R1,#+1
   \   00000004   0C10C0E5           STRB     R1,[R0, #+12]
    609          }
   \   00000008   1EFF2FE1           BX       LR               ;; return
    610          

   \                                 In segment CODE, align 4, keep-with-next
    611          void onClose(MAIN_GUI *data, void (*mfree_adr)(void *)) //Close
    612          {
   \                     onClose:
   \   00000000   10402DE9           PUSH     {R4,LR}
   \   00000004   0040A0E1           MOV      R4,R0
    613          #ifdef NEWSGOLD
    614            mfree(screen2.bitmap);
   \   00000008   1C009FE5           LDR      R0,??onClose_0   ;; screen2 + 8
   \   0000000C   000090E5           LDR      R0,[R0, #+0]
   \   00000010   150000EF           SWI      +21
    615          #endif
    616            ClearNL();
   \   00000014   ........           _BLF     ClearNL,??ClearNL??rA
    617            MAINCSM_ID = 0;
   \   00000018   ........           LDR      R1,??DataTable99  ;; MAINCSM_ID
   \   0000001C   0000A0E3           MOV      R0,#+0
   \   00000020   000081E5           STR      R0,[R1, #+0]
    618            data->gui.state=0;
   \   00000024   0C00C4E5           STRB     R0,[R4, #+12]
    619          }
   \   00000028   1080BDE8           POP      {R4,PC}          ;; return
   \                     ??onClose_0:
   \   0000002C   ........           DC32     screen2 + 8
    620          

   \                                 In segment CODE, align 4, keep-with-next
    621          void onFocus(MAIN_GUI *data, void *(*malloc_adr)(int), void (*mfree_adr)(void *))//Focus
    622          {
    623            data->gui.state=2;
   \                     onFocus:
   \   00000000   0210A0E3           MOV      R1,#+2
   \   00000004   0C10C0E5           STRB     R1,[R0, #+12]
    624           //  DisableIDLETMR();
    625          }
   \   00000008   1EFF2FE1           BX       LR               ;; return
    626          

   \                                 In segment CODE, align 4, keep-with-next
    627          void onUnfocus(MAIN_GUI *data, void (*mfree_adr)(void *)) //Unfocus
    628          {
    629            if (data->gui.state!=2) return;
   \                     onUnfocus:
   \   00000000   0C10D0E5           LDRB     R1,[R0, #+12]
   \   00000004   020051E3           CMP      R1,#+2
    630            data->gui.state=1;
   \   00000008   0110A003           MOVEQ    R1,#+1
   \   0000000C   0C10C005           STRBEQ   R1,[R0, #+12]
    631          }
   \   00000010   1EFF2FE1           BX       LR               ;; return
    632          

   \                                 In segment DATA_Z, align 4, align-sorted
    633          int closing;
   \                     closing:
   \   00000000                      DS8 4

   \                                 In segment DATA_Z, align 4, align-sorted
    634          int show_daemons;
   \                     show_daemons:
   \   00000000                      DS8 4
    635          
    636          

   \                                 In segment CODE, align 4, keep-with-next
    637          void redrit()
    638          {
   \                     redrit:
   \   00000000   00402DE9           PUSH     {LR}
    639            DirectRedrawGUI();
   \   00000004   3F0100EF           SWI      +319
    640          }
   \   00000008   0080BDE8           POP      {PC}             ;; return
    641          

   \                                 In segment CODE, align 4, keep-with-next
    642          int OnKey(MAIN_GUI *data, GUI_MSG *msg) //OnKey
    643          {
   \                     OnKey:
   \   00000000   F04F2DE9           PUSH     {R4-R11,LR}
    644            if (msg->gbsmsg->msg==KEY_DOWN)
   \   00000004   04C091E5           LDR      R12,[R1, #+4]
   \   00000008   9310A0E3           MOV      R1,#+147
   \   0000000C   04009CE5           LDR      R0,[R12, #+4]
   \   00000010   401F81E3           ORR      R1,R1,#0x100
   \   00000014   010050E1           CMP      R0,R1
   \   00000018   8801001A           BNE      ??OnKey_2
    645            {
    646              if(task_list==1)
   \   0000001C   ........           LDR      R5,??DataTable101  ;; total_pos
   \   00000020   ........           LDR      R10,??DataTable97  ;; task_list
   \   00000024   000095E5           LDR      R0,[R5, #+0]
   \   00000028   ........           LDR      R1,??DataTable61  ;; book_show
   \   0000002C   00B09AE5           LDR      R11,[R10, #+0]
   \   00000030   00E091E5           LDR      LR,[R1, #+0]
   \   00000034   ........           LDR      R1,??DataTable91  ;; time_not
   \   00000038   ........           LDR      R6,??DataTable92  ;; sm
   \   0000003C   ........           LDR      R7,??DataTable88  ;; move_skip
   \   00000040   ........           LDR      R8,??DataTable87  ;; pos
   \   00000044   012080E2           ADD      R2,R0,#+1
   \   00000048   013040E2           SUB      R3,R0,#+1
   \   0000004C   0090A0E3           MOV      R9,#+0
   \   00000050   0140A0E3           MOV      R4,#+1
   \   00000054   01005BE3           CMP      R11,#+1
   \   00000058   EB00001A           BNE      ??OnKey_3
    647              {
    648              switch(msg->gbsmsg->submess)
   \   0000005C   08009CE5           LDR      R0,[R12, #+8]
   \   00000060   010040E2           SUB      R0,R0,#+1
   \   00000064   3D0050E3           CMP      R0,#+61
   \   00000068   7401008A           BHI      ??OnKey_2
   \   0000006C   02BF8FE2           ADR      R11,??OnKey_0
   \   00000070   8000A0E1           MOV      R0,R0, LSL #+1
   \   00000074   B0B09BE1           LDRH     R11,[R11, R0]
   \   00000078   0BF18FE0           ADD      PC,PC,R11, LSL #+2
   \                     ??OnKey_0:
   \   0000007C   3C0170017001       DC16     +316,+368,+368,+221
   \              DD00        
   \   00000084   700170017001       DC16     +368,+368,+368,+368
   \              7001        
   \   0000008C   70017001DF00       DC16     +368,+368,+223,+368
   \              7001        
   \   00000094   700170017001       DC16     +368,+368,+368,+368
   \              7001        
   \   0000009C   700170017001       DC16     +368,+368,+368,+368
   \              7001        
   \   000000A4   700170017001       DC16     +368,+368,+368,+368
   \              7001        
   \   000000AC   700194007001       DC16     +368,+148,+368,+368
   \              7001        
   \   000000B4   700170017001       DC16     +368,+368,+368,+368
   \              7001        
   \   000000BC   700170019200       DC16     +368,+368,+146,+368
   \              7001        
   \   000000C4   700170017001       DC16     +368,+368,+368,+368
   \              7001        
   \   000000CC   700153007001       DC16     +368,+83,+368,+368
   \              7001        
   \   000000D4   700170017001       DC16     +368,+368,+368,+99
   \              6300        
   \   000000DC   68006C007200       DC16     +104,+108,+114,+118
   \              7600        
   \   000000E4   7A007E008200       DC16     +122,+126,+130,+134
   \              8600        
   \   000000EC   8A0070013D00       DC16     +138,+368,+61,+35
   \              2300        
   \   000000F4   8E001E00           DC16     +142,+30
    649              {
    650              case RIGHT_BUTTON:
    651                pos=1;
   \                     ??OnKey_4:
   \   000000F8   004088E5           STR      R4,[R8, #+0]
    652                total_pos=1;
   \   000000FC   004085E5           STR      R4,[R5, #+0]
    653                move_skip=0;
   \   00000100   009087E5           STR      R9,[R7, #+0]
    654                task_list=0;
   \   00000104   00908AE5           STR      R9,[R10, #+0]
    655                DirectRedrawGUI();
   \                     ??OnKey_5:
   \   00000108   3C0000EA           B        ??OnKey_6
    656                break;
    657              case DOWN_BUTTON:
    658                total_pos++;
    659                if(total_pos<=total_d)
   \                     ??OnKey_7:
   \   0000010C   ........           LDR      R0,??DataTable100  ;; total_d
   \   00000110   002085E5           STR      R2,[R5, #+0]
   \   00000114   000090E5           LDR      R0,[R0, #+0]
   \   00000118   020050E1           CMP      R0,R2
   \   0000011C   0E0000BA           BLT      ??OnKey_8
    660                {
    661                if((total_pos<=3)||(total_pos>total_d-2)) pos++;
   \   00000120   020040E2           SUB      R0,R0,#+2
   \   00000124   040052E3           CMP      R2,#+4
   \   00000128   020050A1           CMPGE    R0,R2
   \   0000012C   040000AA           BGE      ??OnKey_9
   \   00000130   001098E5           LDR      R1,[R8, #+0]
    662                if((total_pos>3)&&(total_pos<=total_d-2)) move_skip++;
   \   00000134   040052E3           CMP      R2,#+4
   \   00000138   011081E2           ADD      R1,R1,#+1
   \   0000013C   001088E5           STR      R1,[R8, #+0]
   \   00000140   070000BA           BLT      ??OnKey_10
   \                     ??OnKey_9:
   \   00000144   020050E1           CMP      R0,R2
   \   00000148   050000BA           BLT      ??OnKey_10
   \   0000014C   000097E5           LDR      R0,[R7, #+0]
   \   00000150   010080E2           ADD      R0,R0,#+1
   \                     ??OnKey_11:
   \   00000154   000087E5           STR      R0,[R7, #+0]
   \   00000158   010000EA           B        ??OnKey_10
    663                }
    664                else
    665                  total_pos--;
   \                     ??OnKey_8:
   \   0000015C   010042E2           SUB      R0,R2,#+1
   \   00000160   000085E5           STR      R0,[R5, #+0]
    666                sm=0;
    667                forward=1;
   \                     ??OnKey_10:
   \   00000164   ........           LDR      R0,??DataTable93  ;; forward
   \   00000168   009086E5           STR      R9,[R6, #+0]
   \                     ??OnKey_12:
   \   0000016C   004080E5           STR      R4,[R0, #+0]
    668                DirectRedrawGUI();
   \   00000170   220000EA           B        ??OnKey_6
    669                break;
    670              case UP_BUTTON:
    671                total_pos--;
   \                     ??OnKey_13:
   \   00000174   003085E5           STR      R3,[R5, #+0]
    672                if(total_pos)
   \   00000178   000053E3           CMP      R3,#+0
   \   0000017C   1000000A           BEQ      ??OnKey_14
    673                {
    674                if((total_pos<3)||(total_pos>=total_d-2)) pos--;
   \   00000180   ........           LDR      R0,??DataTable100  ;; total_d
   \   00000184   030053E3           CMP      R3,#+3
   \   00000188   000090E5           LDR      R0,[R0, #+0]
   \   0000018C   020040E2           SUB      R0,R0,#+2
   \   00000190   010000BA           BLT      ??OnKey_15
   \   00000194   000053E1           CMP      R3,R0
   \   00000198   040000BA           BLT      ??OnKey_16
   \                     ??OnKey_15:
   \   0000019C   001098E5           LDR      R1,[R8, #+0]
    675                if((total_pos>=3)&&(total_pos<total_d-2)) move_skip--;
   \   000001A0   030053E3           CMP      R3,#+3
   \   000001A4   011041E2           SUB      R1,R1,#+1
   \   000001A8   001088E5           STR      R1,[R8, #+0]
   \   000001AC   ECFFFFBA           BLT      ??OnKey_10
   \                     ??OnKey_16:
   \   000001B0   000053E1           CMP      R3,R0
   \   000001B4   EAFFFFAA           BGE      ??OnKey_10
   \   000001B8   000097E5           LDR      R0,[R7, #+0]
   \   000001BC   010040E2           SUB      R0,R0,#+1
   \   000001C0   E3FFFFEA           B        ??OnKey_11
    676                }
    677                else
    678                  total_pos++;
   \                     ??OnKey_14:
   \   000001C4   004085E5           STR      R4,[R5, #+0]
   \   000001C8   E5FFFFEA           B        ??OnKey_10
    679                sm=0;
    680                forward=1;
    681                DirectRedrawGUI();
    682                break;
    683              case '*':
    684                show_daemons=!show_daemons;
   \                     ??OnKey_17:
   \   000001CC   ........           LDR      R0,??DataTable83  ;; show_daemons
   \   000001D0   ........           LDR      R1,??DataTable83  ;; show_daemons
   \   000001D4   000090E5           LDR      R0,[R0, #+0]
    685                pos=1;
   \   000001D8   004088E5           STR      R4,[R8, #+0]
   \   000001DC   000050E3           CMP      R0,#+0
   \   000001E0   0100A003           MOVEQ    R0,#+1
   \   000001E4   0000A013           MOVNE    R0,#+0
   \   000001E8   000081E5           STR      R0,[R1, #+0]
    686                total_pos=1;
    687                move_skip=0;
    688                sm=0;
    689                forward=1;
   \   000001EC   ........           LDR      R0,??DataTable93  ;; forward
   \   000001F0   004085E5           STR      R4,[R5, #+0]
   \   000001F4   009087E5           STR      R9,[R7, #+0]
   \   000001F8   009086E5           STR      R9,[R6, #+0]
   \   000001FC   004080E5           STR      R4,[R0, #+0]
    690                DirectRedrawGUI();
   \                     ??OnKey_6:
   \   00000200   3F0100EF           SWI      +319
   \                     ??OnKey_18:
   \   00000204   0000A0E3           MOV      R0,#+0
   \   00000208   F08FBDE8           POP      {R4-R11,PC}
    691                break;
    692              case 0x30:
    693                time_not=!time_not;
   \                     ??OnKey_19:
   \   0000020C   000091E5           LDR      R0,[R1, #+0]
   \   00000210   000050E3           CMP      R0,#+0
   \   00000214   0040A013           MOVNE    R4,#+0
   \   00000218   004081E5           STR      R4,[R1, #+0]
    694                DirectRedrawGUI();
   \   0000021C   F7FFFFEA           B        ??OnKey_6
    695                break;
    696                      case 0x31:
    697                  if(book_show>=1) 
   \                     ??OnKey_20:
   \   00000220   01005EE3           CMP      LR,#+1
   \   00000224   050100BA           BLT      ??OnKey_2
    698                  {
    699                    Start_bookmark(1);
   \   00000228   0100A0E3           MOV      R0,#+1
   \   0000022C   020000EA           B        ??OnKey_21
    700                    return(1);
    701                  }
    702                  break;
    703                        case 0x32:
    704                  if(book_show>=2) 
   \                     ??OnKey_22:
   \   00000230   02005EE3           CMP      LR,#+2
   \   00000234   010100BA           BLT      ??OnKey_2
    705                  {
    706                    Start_bookmark(2);
   \   00000238   0200A0E3           MOV      R0,#+2
   \                     ??OnKey_21:
   \   0000023C   ........           BL       Start_bookmark
    707                    return(1);
   \                     ??OnKey_23:
   \   00000240   0100A0E3           MOV      R0,#+1
   \   00000244   F08FBDE8           POP      {R4-R11,PC}
    708                  }
    709                  break;
    710                        case 0x33:
    711                  if(book_show>=3) 
   \                     ??OnKey_24:
   \   00000248   03005EE3           CMP      LR,#+3
   \   0000024C   FB0000BA           BLT      ??OnKey_2
    712                  {
    713                    Start_bookmark(3);
   \   00000250   0300A0E3           MOV      R0,#+3
   \   00000254   F8FFFFEA           B        ??OnKey_21
    714                    return(1);
    715                  }
    716                  break;
    717                        case 0x34:
    718                  if(book_show>=4) 
   \                     ??OnKey_25:
   \   00000258   04005EE3           CMP      LR,#+4
   \   0000025C   F70000BA           BLT      ??OnKey_2
    719                  {
    720                    Start_bookmark(4);
   \   00000260   0400A0E3           MOV      R0,#+4
   \   00000264   F4FFFFEA           B        ??OnKey_21
    721                    return(1);
    722                  }
    723                  break;
    724                        case 0x35:
    725                  if(book_show>=5) 
   \                     ??OnKey_26:
   \   00000268   05005EE3           CMP      LR,#+5
   \   0000026C   F30000BA           BLT      ??OnKey_2
    726                  {
    727                    Start_bookmark(5);
   \   00000270   0500A0E3           MOV      R0,#+5
   \   00000274   F0FFFFEA           B        ??OnKey_21
    728                    return(1);
    729                  }
    730                  break;
    731                        case 0x36:
    732                  if(book_show>=6) 
   \                     ??OnKey_27:
   \   00000278   06005EE3           CMP      LR,#+6
   \   0000027C   EF0000BA           BLT      ??OnKey_2
    733                  {
    734                    Start_bookmark(6);
   \   00000280   0600A0E3           MOV      R0,#+6
   \   00000284   ECFFFFEA           B        ??OnKey_21
    735                    return(1);
    736                  }
    737                  break;
    738                        case 0x37:
    739                  if(book_show>=7) 
   \                     ??OnKey_28:
   \   00000288   07005EE3           CMP      LR,#+7
   \   0000028C   EB0000BA           BLT      ??OnKey_2
    740                  {
    741                    Start_bookmark(7);
   \   00000290   0700A0E3           MOV      R0,#+7
   \   00000294   E8FFFFEA           B        ??OnKey_21
    742                    return(1);
    743                  }
    744                  break;
    745                        case 0x38:
    746                  if(book_show>=8) 
   \                     ??OnKey_29:
   \   00000298   08005EE3           CMP      LR,#+8
   \   0000029C   E70000BA           BLT      ??OnKey_2
    747                  {
    748                    Start_bookmark(8);
   \   000002A0   0800A0E3           MOV      R0,#+8
   \   000002A4   E4FFFFEA           B        ??OnKey_21
    749                    return(1);
    750                  }
    751                  break;
    752                        case 0x39:
    753                  if(book_show>=9) 
   \                     ??OnKey_30:
   \   000002A8   09005EE3           CMP      LR,#+9
   \   000002AC   E30000BA           BLT      ??OnKey_2
    754                  {
    755                    Start_bookmark(9);
   \   000002B0   0900A0E3           MOV      R0,#+9
   \   000002B4   E0FFFFEA           B        ??OnKey_21
    756                    return(1);
    757                  }
    758                  break;
    759                  case LEFT_BUTTON:
    760                if(!cleseri) break;
   \                     ??OnKey_31:
   \   000002B8   88039FE5           LDR      R0,??OnKey_32    ;; cleseri
   \   000002BC   000090E5           LDR      R0,[R0, #+0]
   \   000002C0   000050E3           CMP      R0,#+0
   \   000002C4   F08FBD08           POPEQ    {R4-R11,PC}
    761              case '#':
    762                 closing=1;
   \                     ??OnKey_33:
   \   000002C8   7C039FE5           LDR      R0,??OnKey_32+0x4  ;; closing
   \   000002CC   004080E5           STR      R4,[R0, #+0]
    763              case ENTER_BUTTON:
    764                {
    765                minine:
    766                  {
    767                NAMELIST *nl=nltop;
   \                     ??OnKey_34:
   \   000002D0   ........           LDR      R0,??DataTable72  ;; nltop
   \   000002D4   000090E5           LDR      R0,[R0, #+0]
    768                int skip_run=total_pos;
   \   000002D8   001095E5           LDR      R1,[R5, #+0]
   \   000002DC   010000EA           B        ??OnKey_35
    769                while(nl)
    770                {
    771                   NAMELIST *p=nl;
    772                   if(skip_run)
    773                   {
    774                     skip_run--;
    775                     nl=p->next;
   \                     ??OnKey_36:
   \   000002E0   000090E5           LDR      R0,[R0, #+0]
   \   000002E4   011041E2           SUB      R1,R1,#+1
    776                   }
   \                     ??OnKey_35:
   \   000002E8   000050E3           CMP      R0,#+0
   \   000002EC   00005113           CMPNE    R1,#+0
   \   000002F0   FAFFFF1A           BNE      ??OnKey_36
    777                   else
    778                     goto don;
    779                }
    780                don:
    781                if ((!nl->is_daemon)||((closing)&&(nl->is_daemon)))
   \   000002F4   50139FE5           LDR      R1,??OnKey_32+0x4  ;; closing
   \   000002F8   102090E5           LDR      R2,[R0, #+16]
   \   000002FC   001091E5           LDR      R1,[R1, #+0]
   \   00000300   000052E3           CMP      R2,#+0
   \   00000304   0100000A           BEQ      ??OnKey_37
   \   00000308   000051E3           CMP      R1,#+0
   \   0000030C   CB00000A           BEQ      ??OnKey_2
    782                {
    783                  if(closing)
   \                     ??OnKey_37:
   \   00000310   0C0090E5           LDR      R0,[R0, #+12]
   \   00000314   000051E3           CMP      R1,#+0
   \   00000318   3100000A           BEQ      ??OnKey_38
    784                  {
    785                    int i;
    786                    closing=0;
   \   0000031C   28139FE5           LDR      R1,??OnKey_32+0x4  ;; closing
   \   00000320   009081E5           STR      R9,[R1, #+0]
    787                    i=((CSM_RAM *)(nl->p))->id;
   \   00000324   0CA090E5           LDR      R10,[R0, #+12]
    788                    if (i!=CSM_root()->idle_id) 
   \   00000328   068100EF           SWI      +33030
   \   0000032C   040090E5           LDR      R0,[R0, #+4]
   \   00000330   00005AE1           CMP      R10,R0
   \   00000334   C100000A           BEQ      ??OnKey_2
    789                    {
    790                      CloseCSM(i);
   \   00000338   0A00A0E1           MOV      R0,R10
   \   0000033C   FC0100EF           SWI      +508
    791                      int rem_pso=total_pos-1;
   \   00000340   000095E5           LDR      R0,[R5, #+0]
    792                      pos=1;
   \   00000344   004088E5           STR      R4,[R8, #+0]
   \   00000348   010050E2           SUBS     R0,R0,#+1
    793                      total_pos=1;
   \   0000034C   004085E5           STR      R4,[R5, #+0]
    794                      move_skip=0;
   \   00000350   009087E5           STR      R9,[R7, #+0]
   \   00000354   1A00000A           BEQ      ??OnKey_39
    795                      while(rem_pso!=0)
    796                      {
    797                      total_pos++;
    798                      if(total_pos<=total_d-1)
   \                     ??OnKey_40:
   \   00000358   ........           LDR      R2,??DataTable100  ;; total_d
   \   0000035C   001095E5           LDR      R1,[R5, #+0]
   \   00000360   002092E5           LDR      R2,[R2, #+0]
   \   00000364   011081E2           ADD      R1,R1,#+1
   \   00000368   001085E5           STR      R1,[R5, #+0]
   \   0000036C   013042E2           SUB      R3,R2,#+1
   \   00000370   010053E1           CMP      R3,R1
   \   00000374   0E0000BA           BLT      ??OnKey_41
    799                      {
    800                        if((total_pos<=3)||(total_pos>total_d-3)) pos++;
   \   00000378   032042E2           SUB      R2,R2,#+3
   \   0000037C   040051E3           CMP      R1,#+4
   \   00000380   010052A1           CMPGE    R2,R1
   \   00000384   040000AA           BGE      ??OnKey_42
   \   00000388   003098E5           LDR      R3,[R8, #+0]
    801                        if((total_pos>3)&&(total_pos<=total_d-3)) move_skip++;
   \   0000038C   040051E3           CMP      R1,#+4
   \   00000390   013083E2           ADD      R3,R3,#+1
   \   00000394   003088E5           STR      R3,[R8, #+0]
   \   00000398   070000BA           BLT      ??OnKey_43
   \                     ??OnKey_42:
   \   0000039C   010052E1           CMP      R2,R1
   \   000003A0   050000BA           BLT      ??OnKey_43
   \   000003A4   001097E5           LDR      R1,[R7, #+0]
   \   000003A8   011081E2           ADD      R1,R1,#+1
   \   000003AC   001087E5           STR      R1,[R7, #+0]
   \   000003B0   010000EA           B        ??OnKey_43
    802                      }
    803                      else
    804                      {
    805                      total_pos--;
   \                     ??OnKey_41:
   \   000003B4   011041E2           SUB      R1,R1,#+1
   \   000003B8   001085E5           STR      R1,[R5, #+0]
    806                      }
    807                      rem_pso--;
   \                     ??OnKey_43:
   \   000003BC   010050E2           SUBS     R0,R0,#+1
    808                      }
   \   000003C0   E4FFFF1A           BNE      ??OnKey_40
    809                      sm=0;
    810                      forward=1;
   \                     ??OnKey_39:
   \   000003C4   ........           LDR      R0,??DataTable93  ;; forward
    811                      GBS_StartTimerProc(&start_tmr, 30, redrit); 
   \   000003C8   ........           LDR      R2,??DataTable75  ;; redrit
   \   000003CC   009086E5           STR      R9,[R6, #+0]
   \   000003D0   004080E5           STR      R4,[R0, #+0]
   \   000003D4   ........           LDR      R0,??DataTable76  ;; start_tmr
   \   000003D8   1E10A0E3           MOV      R1,#+30
   \   000003DC   4D0000EF           SWI      +77
   \   000003E0   87FFFFEA           B        ??OnKey_18
    812                    }
    813                  }
    814                  else
    815                  {
    816          	CSMtoTop(((CSM_RAM *)(nl->p))->id,-1);
   \                     ??OnKey_38:
   \   000003E4   0C0090E5           LDR      R0,[R0, #+12]
   \   000003E8   001064E2           RSB      R1,R4,#+0
   \   000003EC   ........           _BLF     CSMtoTop,??CSMtoTop??rA
   \   000003F0   92FFFFEA           B        ??OnKey_23
    817                  return(1);
    818                  }
    819                }
    820                else
    821                  closing=0;
    822                }
    823                }
    824                break;
    825              case LEFT_SOFT:
    826                CSMtoTop(CSM_root()->idle_id,-1);
    827                return(1);
    828              case RIGHT_SOFT:
    829                total_pos=1;
   \                     ??OnKey_44:
   \   000003F4   004085E5           STR      R4,[R5, #+0]
    830                goto minine;
   \   000003F8   B4FFFFEA           B        ??OnKey_34
    831                case GREEN_BUTTON:
    832                    task_list=2;
   \                     ??OnKey_45:
   \   000003FC   0200A0E3           MOV      R0,#+2
   \   00000400   00008AE5           STR      R0,[R10, #+0]
    833                    shutd=1;
   \   00000404   ........           LDR      R0,??DataTable81  ;; shutd
   \   00000408   57FFFFEA           B        ??OnKey_12
    834                    DirectRedrawGUI();
    835                  break;
    836           //     return(1);
    837              }
    838              }
    839              else//=======================================do the links
    840                if(task_list==0)
   \                     ??OnKey_3:
   \   0000040C   00005BE3           CMP      R11,#+0
   \   00000410   5C00001A           BNE      ??OnKey_46
    841              {
    842                switch(msg->gbsmsg->submess)
   \   00000414   08B09CE5           LDR      R11,[R12, #+8]
   \   00000418   01B04BE2           SUB      R11,R11,#+1
   \   0000041C   3C005BE3           CMP      R11,#+60
   \   00000420   8600008A           BHI      ??OnKey_2
   \   00000424   02CF8FE2           ADR      R12,??OnKey_1
   \   00000428   8BB0A0E1           MOV      R11,R11, LSL #+1
   \   0000042C   FBC09CE1           LDRSH    R12,[R12, R11]
   \   00000430   0CF18FE0           ADD      PC,PC,R12, LSL #+2
   \                     ??OnKey_1:
   \   00000434   4E0082008200       DC16     +78,+130,+130,+65519
   \              EFFF        
   \   0000043C   820082008200       DC16     +130,+130,+130,+130
   \              8200        
   \   00000444   82008200F1FF       DC16     +130,+130,+65521,+130
   \              8200        
   \   0000044C   820082008200       DC16     +130,+130,+130,+130
   \              8200        
   \   00000454   820082008200       DC16     +130,+130,+130,+130
   \              8200        
   \   0000045C   820082008200       DC16     +130,+130,+130,+130
   \              8200        
   \   00000464   820081FF8200       DC16     +130,+65409,+130,+130
   \              8200        
   \   0000046C   820082008200       DC16     +130,+130,+130,+130
   \              8200        
   \   00000474   820082008200       DC16     +130,+130,+130,+130
   \              8200        
   \   0000047C   820082008200       DC16     +130,+130,+130,+130
   \              8200        
   \   00000484   820082008200       DC16     +130,+130,+130,+130
   \              8200        
   \   0000048C   820082008200       DC16     +130,+130,+130,+65397
   \              75FF        
   \   00000494   820082008200       DC16     +130,+130,+130,+130
   \              8200        
   \   0000049C   820082008200       DC16     +130,+130,+130,+130
   \              8200        
   \   000004A4   820082003A00       DC16     +130,+130,+58,+38
   \              2600        
   \   000004AC   1E000000           DC16     +30,+0
    843                {
    844                case LEFT_BUTTON:
    845                  pos=1;
    846                  total_pos=1;
    847                  move_skip=0;
    848                  task_list=1;
    849                  sm=0;
    850                  forward=1;
   \                     ??OnKey_47:
   \   000004B0   ........           LDR      R0,??DataTable93  ;; forward
   \   000004B4   004088E5           STR      R4,[R8, #+0]
   \   000004B8   004085E5           STR      R4,[R5, #+0]
   \   000004BC   009087E5           STR      R9,[R7, #+0]
   \   000004C0   00408AE5           STR      R4,[R10, #+0]
   \   000004C4   009086E5           STR      R9,[R6, #+0]
   \   000004C8   004080E5           STR      R4,[R0, #+0]
    851                  DirectRedrawGUI();
   \   000004CC   4BFFFFEA           B        ??OnKey_6
    852                  break;
    853                case DOWN_BUTTON:
    854                total_pos++;
   \                     ??OnKey_48:
   \   000004D0   002085E5           STR      R2,[R5, #+0]
    855                if(total_pos<=book_show)
   \   000004D4   02005EE1           CMP      LR,R2
   \   000004D8   0E0000BA           BLT      ??OnKey_49
    856                {
    857                if((total_pos<=3)||(total_pos>book_show-2)) pos++;
   \   000004DC   02004EE2           SUB      R0,LR,#+2
   \   000004E0   040052E3           CMP      R2,#+4
   \   000004E4   020050A1           CMPGE    R0,R2
   \   000004E8   040000AA           BGE      ??OnKey_50
   \   000004EC   001098E5           LDR      R1,[R8, #+0]
    858                if((total_pos>3)&&(total_pos<=book_show-2)) move_skip++;
   \   000004F0   040052E3           CMP      R2,#+4
   \   000004F4   011081E2           ADD      R1,R1,#+1
   \   000004F8   001088E5           STR      R1,[R8, #+0]
   \   000004FC   3FFFFFBA           BLT      ??OnKey_6
   \                     ??OnKey_50:
   \   00000500   020050E1           CMP      R0,R2
   \   00000504   3DFFFFBA           BLT      ??OnKey_6
   \   00000508   000097E5           LDR      R0,[R7, #+0]
   \   0000050C   010080E2           ADD      R0,R0,#+1
   \                     ??OnKey_51:
   \   00000510   000087E5           STR      R0,[R7, #+0]
   \   00000514   39FFFFEA           B        ??OnKey_6
    859                }
    860                else
    861                  total_pos--;
   \                     ??OnKey_49:
   \   00000518   000085E5           STR      R0,[R5, #+0]
    862                DirectRedrawGUI();
   \   0000051C   37FFFFEA           B        ??OnKey_6
    863                break;
    864              case UP_BUTTON:
    865                total_pos--;
   \                     ??OnKey_52:
   \   00000520   003085E5           STR      R3,[R5, #+0]
    866                if(total_pos)
   \   00000524   000053E3           CMP      R3,#+0
   \   00000528   0E00000A           BEQ      ??OnKey_53
    867                {
    868                if((total_pos<3)||(total_pos>=book_show-2)) pos--;
   \   0000052C   02004EE2           SUB      R0,LR,#+2
   \   00000530   030053E3           CMP      R3,#+3
   \   00000534   010000BA           BLT      ??OnKey_54
   \   00000538   000053E1           CMP      R3,R0
   \   0000053C   040000BA           BLT      ??OnKey_55
   \                     ??OnKey_54:
   \   00000540   001098E5           LDR      R1,[R8, #+0]
    869                if((total_pos>=3)&&(total_pos<book_show-2)) move_skip--;
   \   00000544   030053E3           CMP      R3,#+3
   \   00000548   011041E2           SUB      R1,R1,#+1
   \   0000054C   001088E5           STR      R1,[R8, #+0]
   \   00000550   2AFFFFBA           BLT      ??OnKey_6
   \                     ??OnKey_55:
   \   00000554   000053E1           CMP      R3,R0
   \   00000558   28FFFFAA           BGE      ??OnKey_6
   \   0000055C   000097E5           LDR      R0,[R7, #+0]
   \   00000560   010040E2           SUB      R0,R0,#+1
   \   00000564   E9FFFFEA           B        ??OnKey_51
    870                }
    871                else
    872                  total_pos++;
   \                     ??OnKey_53:
   \   00000568   004085E5           STR      R4,[R5, #+0]
   \   0000056C   23FFFFEA           B        ??OnKey_6
    873                DirectRedrawGUI();
    874                break;
    875              case 0x30:
    876                time_not=!time_not;
    877                DirectRedrawGUI();
    878                break;
    879              case LEFT_SOFT:
    880                CSMtoTop(CSM_root()->idle_id,-1);
   \                     ??OnKey_56:
   \   00000570   068100EF           SWI      +33030
   \   00000574   040090E5           LDR      R0,[R0, #+4]
   \   00000578   001064E2           RSB      R1,R4,#+0
   \   0000057C   ........           _BLF     CSMtoTop,??CSMtoTop??rA
    881                return(1);
   \   00000580   0100A0E3           MOV      R0,#+1
   \   00000584   F08FBDE8           POP      {R4-R11,PC}
    882              case RIGHT_SOFT:
    883                total_pos=1;
    884                goto minine;
    885                case ENTER_BUTTON:
    886                  Start_bookmark(total_pos);
    887                  return(1);
    888                  case GREEN_BUTTON:
    889                    task_list=2;
    890                    shutd=1;
    891                    DirectRedrawGUI();
    892                  break;
    893                }
    894              }//==========================================end links
    895              else
    896                if(task_list==2)
   \                     ??OnKey_46:
   \   00000588   02005BE3           CMP      R11,#+2
   \   0000058C   2B00001A           BNE      ??OnKey_2
    897                {
    898                  switch(msg->gbsmsg->submess)
   \   00000590   08009CE5           LDR      R0,[R12, #+8]
   \   00000594   0B0050E2           SUBS     R0,R0,#+11
   \   00000598   0700000A           BEQ      ??OnKey_57
   \   0000059C   0F0050E2           SUBS     R0,R0,#+15
   \   000005A0   1900000A           BEQ      ??OnKey_58
   \   000005A4   160050E2           SUBS     R0,R0,#+22
   \   000005A8   0B00000A           BEQ      ??OnKey_59
   \   000005AC   0B0040E2           SUB      R0,R0,#+11
   \   000005B0   010050E3           CMP      R0,#+1
   \   000005B4   0D00009A           BLS      ??OnKey_60
   \   000005B8   11FFFFEA           B        ??OnKey_18
    899                {
    900                case GREEN_BUTTON:
    901                  pos=1;
    902                  total_pos=1;
    903                  move_skip=0;
    904                  task_list=1;
    905                  sm=0;
    906                  forward=1;
   \                     ??OnKey_57:
   \   000005BC   ........           LDR      R0,??DataTable93  ;; forward
   \   000005C0   004088E5           STR      R4,[R8, #+0]
   \   000005C4   004085E5           STR      R4,[R5, #+0]
   \   000005C8   009087E5           STR      R9,[R7, #+0]
   \   000005CC   009086E5           STR      R9,[R6, #+0]
   \   000005D0   004080E5           STR      R4,[R0, #+0]
    907                  task_list=1;
   \   000005D4   00408AE5           STR      R4,[R10, #+0]
    908                  DirectRedrawGUI();
   \   000005D8   08FFFFEA           B        ??OnKey_6
    909                  break;
    910                case 0x30:
    911                time_not=!time_not;
   \                     ??OnKey_59:
   \   000005DC   000091E5           LDR      R0,[R1, #+0]
   \   000005E0   000050E3           CMP      R0,#+0
   \   000005E4   0040A013           MOVNE    R4,#+0
   \   000005E8   004081E5           STR      R4,[R1, #+0]
    912                DirectRedrawGUI();
   \   000005EC   03FFFFEA           B        ??OnKey_6
    913                break;
    914                case DOWN_BUTTON:
    915                case UP_BUTTON:
    916                  shutd=!shutd;
   \                     ??OnKey_60:
   \   000005F0   ........           LDR      R0,??DataTable81  ;; shutd
   \   000005F4   000090E5           LDR      R0,[R0, #+0]
   \   000005F8   000050E3           CMP      R0,#+0
   \   000005FC   ........           LDR      R0,??DataTable81  ;; shutd
   \   00000600   0040A013           MOVNE    R4,#+0
   \   00000604   004080E5           STR      R4,[R0, #+0]
   \   00000608   FDFEFFEA           B        ??OnKey_18
    917                  break;
    918                case ENTER_BUTTON:
    919                  task_list=3;
   \                     ??OnKey_58:
   \   0000060C   0300A0E3           MOV      R0,#+3
   \   00000610   00008AE5           STR      R0,[R10, #+0]
    920                  data4=AllocWS(128);
   \   00000614   8000A0E3           MOV      R0,#+128
   \   00000618   250100EF           SWI      +293
   \   0000061C   ........           LDR      R1,??DataTable82  ;; data4
   \   00000620   000081E5           STR      R0,[R1, #+0]
    921                  data5=AllocWS(128);
   \   00000624   8000A0E3           MOV      R0,#+128
   \   00000628   250100EF           SWI      +293
   \   0000062C   1C109FE5           LDR      R1,??OnKey_32+0x8  ;; data5
   \   00000630   000081E5           STR      R0,[R1, #+0]
    922                  show_daemons=1;
   \   00000634   ........           LDR      R0,??DataTable83  ;; show_daemons
   \   00000638   004080E5           STR      R4,[R0, #+0]
    923                  task_list3();
   \   0000063C   ........           BL       task_list3
    924                  break;
    925                }
    926                }
    927            }
    928            return(0);
   \                     ??OnKey_2:
   \   00000640   0000A0E3           MOV      R0,#+0
   \   00000644   F08FBDE8           POP      {R4-R11,PC}      ;; return
   \                     ??OnKey_32:
   \   00000648   ........           DC32     cleseri
   \   0000064C   ........           DC32     closing
   \   00000650   ........           DC32     data5
    929          }
    930          
    931          extern void kill_data(void *p, void (*func_p)(void *));

   \                                 In segment CODE, align 4, keep-with-next
    932          void ElfKiller(void)
    933          {
   \                     ElfKiller:
   \   00000000   00402DE9           PUSH     {LR}
    934            extern void *ELF_BEGIN;
    935            kill_data(&ELF_BEGIN,(void (*)(void *))mfree_adr());
   \   00000004   158000EF           SWI      +32789
   \   00000008   0010A0E1           MOV      R1,R0
   \   0000000C   ........           LDR      R0,??DataTable107  ;; ELF_BEGIN
   \   00000010   0040BDE8           POP      {LR}             ;; Pop
   \   00000014   ........           _BF      kill_data,??kill_data??rA  ;; tailcall
    936          }
    937          

   \                                 In segment CODE, align 4, keep-with-next
    938          int method8(void){return(0);}
   \                     method8:
   \   00000000   0000A0E3           MOV      R0,#+0
   \   00000004   1EFF2FE1           BX       LR               ;; return
    939          

   \                                 In segment CODE, align 4, keep-with-next
    940          int method9(void){return(0);}
   \                     method9:
   \   00000000   0000A0E3           MOV      R0,#+0
   \   00000004   1EFF2FE1           BX       LR               ;; return
    941          

   \                                 In segment DATA_C, align 4, align-sorted
    942          const void * const gui_methods[11]={
   \                     gui_methods:
   \   00000000   ............       DC32 OnRedraw, onCreate, onClose, onFocus, onUnfocus, OnKey, 0H
   \              ............
   \              ............
   \              ............
   \              00000000    
   \   0000001C   ............       DC32 kill_data, method8, method9, 0H
   \              ............
   \              00000000    
    943            (void *)OnRedraw,	//Redraw
    944            (void *)onCreate,	//Create
    945            (void *)onClose,	//Close
    946            (void *)onFocus,	//Focus
    947            (void *)onUnfocus,	//Unfocus
    948            (void *)OnKey,	//OnKey
    949            0,
    950            (void *)kill_data,	//Destroy
    951            (void *)method8,
    952            (void *)method9,
    953            0
    954          };
    955          

   \                                 In segment DATA_C, align 4, align-sorted
    956          const RECT Canvas={0,0,132,176};
   \                     Canvas:
   \   00000000   000000008400       DC16 0, 0, 132, 176
   \              B000        
    957          
    958          #pragma inline
    959          void patch_rect(const RECT*rcc,int x,int y, int x2, int y2)
    960          {
    961            RECT *rc=(RECT *)rcc;
    962            rc->x=x;
    963            rc->y=y;
    964            rc->x2=x2;
    965            rc->y2=y2;
    966          }
    967          

   \                                 In segment CODE, align 4, keep-with-next
    968          void maincsm_oncreate(CSM_RAM *data)
    969          {
   \                     maincsm_oncreate:
   \   00000000   F0402DE9           PUSH     {R4-R7,LR}
    970          #ifdef NEWSGOLD
    971            DoScreen2();
    972          #endif
    973            MAIN_GUI *main_gui=malloc(sizeof(MAIN_GUI));
    974            MAIN_CSM*csm=(MAIN_CSM*)data;
    975            zeromem(main_gui,sizeof(MAIN_GUI));
    976            main_gui->gui.canvas=(void *)(&Canvas);
   \   00000004   70609FE5           LDR      R6,??maincsm_oncreate_0  ;; Canvas
   \   00000008   0040A0E1           MOV      R4,R0
   \   0000000C   ........           BL       DoScreen2
   \   00000010   4000A0E3           MOV      R0,#+64
   \   00000014   140000EF           SWI      +20
   \   00000018   0050A0E1           MOV      R5,R0
   \   0000001C   4010A0E3           MOV      R1,#+64
   \   00000020   1D0100EF           SWI      +285
    977            main_gui->gui.methods=(void *)gui_methods;
   \   00000024   54009FE5           LDR      R0,??maincsm_oncreate_0+0x4  ;; gui_methods
   \   00000028   006085E5           STR      R6,[R5, #+0]
   \   0000002C   040085E5           STR      R0,[R5, #+4]
    978            main_gui->gui.item_ll.data_mfree=(void (*)(void *))mfree_adr();
   \   00000030   158000EF           SWI      +32789
   \   00000034   200085E5           STR      R0,[R5, #+32]
    979            patch_rect((RECT*)&Canvas,0,YDISP,ScreenW()-1,ScreenH()-1);
   \   00000038   898100EF           SWI      +33161
   \   0000003C   0070A0E1           MOV      R7,R0
   \   00000040   888100EF           SWI      +33160
   \   00000044   011047E2           SUB      R1,R7,#+1
   \   00000048   010040E2           SUB      R0,R0,#+1
   \   0000004C   0020A0E3           MOV      R2,#+0
   \   00000050   B020C6E1           STRH     R2,[R6, #+0]
   \   00000054   1830A0E3           MOV      R3,#+24
   \   00000058   B230C6E1           STRH     R3,[R6, #+2]
   \   0000005C   B400C6E1           STRH     R0,[R6, #+4]
   \   00000060   B610C6E1           STRH     R1,[R6, #+6]
    980            csm->csm.state=0;
   \   00000064   102084E5           STR      R2,[R4, #+16]
    981            csm->csm.unk1=0;
   \   00000068   142084E5           STR      R2,[R4, #+20]
    982            csm->gui_id=CreateGUI(main_gui);
   \   0000006C   0500A0E1           MOV      R0,R5
   \   00000070   370100EF           SWI      +311
   \   00000074   280084E5           STR      R0,[R4, #+40]
    983          }
   \   00000078   F080BDE8           POP      {R4-R7,PC}       ;; return
   \                     ??maincsm_oncreate_0:
   \   0000007C   ........           DC32     Canvas
   \   00000080   ........           DC32     gui_methods
    984          
    985          

   \                                 In segment CODE, align 4, keep-with-next
    986          void maincsm_onclose(CSM_RAM *csm)
    987          {
    988            //SUBPROC((void *)ElfKiller);
    989          }
   \                     maincsm_onclose:
   \   00000000   1EFF2FE1           BX       LR               ;; return
    990          

   \                                 In segment CODE, align 4, keep-with-next
    991          int maincsm_onmessage(CSM_RAM *data, GBS_MSG *msg)
    992          {
    993            MAIN_CSM *csm=(MAIN_CSM*)data;
    994             if ((msg->msg==MSG_GUI_DESTROYED)&&((int)msg->data0==csm->gui_id))
   \                     maincsm_onmessage:
   \   00000000   043091E5           LDR      R3,[R1, #+4]
   \   00000004   0220E0E3           MVN      R2,#+2
   \   00000008   0EC0A0E3           MOV      R12,#+14
   \   0000000C   64CC8CE3           ORR      R12,R12,#0x6400
   \   00000010   0C0053E1           CMP      R3,R12
   \   00000014   0400001A           BNE      ??maincsm_onmessage_0
   \   00000018   0C3091E5           LDR      R3,[R1, #+12]
   \   0000001C   28C090E5           LDR      R12,[R0, #+40]
   \   00000020   0C0053E1           CMP      R3,R12
   \   00000024   0300001A           BNE      ??maincsm_onmessage_1
    995            {
    996              csm->csm.state=-3;
   \   00000028   102080E5           STR      R2,[R0, #+16]
    997            } 
    998            if (msg->msg==MSG_INCOMMING_CALL)
   \                     ??maincsm_onmessage_0:
   \   0000002C   041091E5           LDR      R1,[R1, #+4]
   \   00000030   600C51E3           CMP      R1,#+24576
    999            {
   1000              csm->csm.state=-3;
   \   00000034   10208005           STREQ    R2,[R0, #+16]
   1001            }
   1002            return(1); 
   \                     ??maincsm_onmessage_1:
   \   00000038   0100A0E3           MOV      R0,#+1
   \   0000003C   1EFF2FE1           BX       LR               ;; return
   1003          }
   1004          
   1005          const struct
   1006          {
   1007            CSM_DESC maincsm;
   1008            WSHDR maincsm_name;

   \                                 In segment DATA_C, align 4, align-sorted
   1009          }MAINCSM =
   \                     MAINCSM:
   \   00000000   ............       DC32 maincsm_onmessage, maincsm_oncreate, 0, 0, 0, 0, maincsm_onclose
   \              ....00000000
   \              000000000000
   \              000000000000
   \              ........    
   \   0000001C   2C0000000100       DC32 44, 1, minus11, maincsm_name_body, 55AACCCCH, 3333AA55H, 0
   \              0000........
   \              ........CCCC
   \              AA5555AA3333
   \              00000000    
   \   00000038   8B00               DC16 139
   \   0000003A   0000               DC8 0, 0
   1010          {
   1011            {
   1012            maincsm_onmessage,
   1013            maincsm_oncreate,
   1014          #ifdef NEWSGOLD
   1015            0,
   1016            0,
   1017            0,
   1018            0,
   1019          #endif
   1020            maincsm_onclose,
   1021            sizeof(MAIN_CSM),
   1022            1,
   1023            &minus11
   1024            },
   1025            {
   1026              maincsm_name_body,
   1027              NAMECSM_MAGIC1,
   1028              NAMECSM_MAGIC2,
   1029              0x0,
   1030              139
   1031            }
   1032          };
   1033          

   \                                 In segment CODE, align 4, keep-with-next
   1034          void UpdateCSMname(void)
   1035          {
   \                     UpdateCSMname:
   \   00000000   10402DE9           PUSH     {R4,LR}
   1036            WSHDR *ws=AllocWS(256);
   \   00000004   400FA0E3           MOV      R0,#+256
   \   00000008   250100EF           SWI      +293
   1037            wsprintf((WSHDR *)(&MAINCSM.maincsm_name),"xtask 3 mod");
   \   0000000C   14109FE5           LDR      R1,??UpdateCSMname_0  ;; `?<Constant "xtask 3 mod">`
   \   00000010   0040A0E1           MOV      R4,R0
   \   00000014   10009FE5           LDR      R0,??UpdateCSMname_0+0x4  ;; MAINCSM + 40
   \   00000018   240100EF           SWI      +292
   1038            FreeWS(ws);
   \   0000001C   0400A0E1           MOV      R0,R4
   \   00000020   290100EF           SWI      +297
   1039          }
   \   00000024   1080BDE8           POP      {R4,PC}          ;; return
   \                     ??UpdateCSMname_0:
   \   00000028   ........           DC32     `?<Constant "xtask 3 mod">`
   \   0000002C   ........           DC32     MAINCSM + 40
   1040          /*
   1041          CSM_RAM *GetUnderIdleCSM(void)
   1042          {
   1043            CSM_RAM *u;
   1044            CSM_DESC *UnderIdleDesc;
   1045            UnderIdleDesc=(CSM_DESC *)strtoul((char *)"A042B384",0,0x10);
   1046            LockSched();
   1047            u=CSM_root()->csm_q->csm.first;
   1048            while(u && u->constr!=UnderIdleDesc) u=u->next;
   1049            UnlockSched();
   1050            return u;
   1051          }*/
   1052          
   1053          extern const char UNDER_IDLE_CONSTR[];
   1054          extern const char *successed_config_filename;
   1055          

   \                                 In segment CODE, align 4, keep-with-next
   1056          CSM_RAM *GetUnderIdleCSM(void)
   1057          {
   \                     GetUnderIdleCSM:
   \   00000000   30402DE9           PUSH     {R4,R5,LR}
   1058            CSM_RAM *u;
   1059            CSM_DESC *UnderIdleDesc;
   1060            if (strlen((char *)UNDER_IDLE_CONSTR)==8)
   \   00000004   88409FE5           LDR      R4,??GetUnderIdleCSM_0  ;; UNDER_IDLE_CONSTR
   \   00000008   0400A0E1           MOV      R0,R4
   \   0000000C   1B0000EF           SWI      +27
   \   00000010   080050E3           CMP      R0,#+8
   \   00000014   0500001A           BNE      ??GetUnderIdleCSM_1
   1061            {
   1062              UnderIdleDesc=(CSM_DESC *)strtoul((char *)UNDER_IDLE_CONSTR,0,0x10);
   \   00000018   1020A0E3           MOV      R2,#+16
   \   0000001C   0010A0E3           MOV      R1,#+0
   \   00000020   0400A0E1           MOV      R0,R4
   \   00000024   ........           _BLF     strtoul,??strtoul??rA
   \   00000028   0050A0E1           MOV      R5,R0
   \   0000002C   0B0000EA           B        ??GetUnderIdleCSM_2
   1063            }
   1064            else
   1065            {
   1066              UnderIdleDesc=((CSM_RAM *)(FindCSMbyID(CSM_root()->idle_id))->prev)->constr;
   \                     ??GetUnderIdleCSM_1:
   \   00000030   068100EF           SWI      +33030
   \   00000034   040090E5           LDR      R0,[R0, #+4]
   \   00000038   080100EF           SWI      +264
   \   0000003C   040090E5           LDR      R0,[R0, #+4]
   1067              sprintf((char *)UNDER_IDLE_CONSTR,"%08X",UnderIdleDesc);
   \   00000040   50109FE5           LDR      R1,??GetUnderIdleCSM_0+0x4  ;; `?<Constant "%08X">`
   \   00000044   085090E5           LDR      R5,[R0, #+8]
   \   00000048   0400A0E1           MOV      R0,R4
   \   0000004C   0520A0E1           MOV      R2,R5
   \   00000050   160000EF           SWI      +22
   1068              SaveConfigData(successed_config_filename);
   \   00000054   ........           LDR      R0,??DataTable103  ;; successed_config_filename
   \   00000058   000090E5           LDR      R0,[R0, #+0]
   \   0000005C   ........           _BLF     SaveConfigData,??SaveConfigData??rA
   1069            }
   1070            LockSched();
   \                     ??GetUnderIdleCSM_2:
   \   00000060   460100EF           SWI      +326
   1071            u=CSM_root()->csm_q->csm.first;
   \   00000064   068100EF           SWI      +33030
   \   00000068   080090E5           LDR      R0,[R0, #+8]
   \   0000006C   084090E5           LDR      R4,[R0, #+8]
   \   00000070   000000EA           B        ??GetUnderIdleCSM_3
   1072            while(u && u->constr!=UnderIdleDesc) u=u->next;
   \                     ??GetUnderIdleCSM_4:
   \   00000074   004094E5           LDR      R4,[R4, #+0]
   \                     ??GetUnderIdleCSM_3:
   \   00000078   000054E3           CMP      R4,#+0
   \   0000007C   08009415           LDRNE    R0,[R4, #+8]
   \   00000080   05005011           CMPNE    R0,R5
   \   00000084   FAFFFF1A           BNE      ??GetUnderIdleCSM_4
   1073            UnlockSched();
   \   00000088   470100EF           SWI      +327
   1074            return u;
   \   0000008C   0400A0E1           MOV      R0,R4
   \   00000090   3080BDE8           POP      {R4,R5,PC}       ;; return
   \                     ??GetUnderIdleCSM_0:
   \   00000094   ........           DC32     UNDER_IDLE_CONSTR
   \   00000098   ........           DC32     `?<Constant "%08X">`
   1075          }
   1076          
   1077          //------------add on---------------------------//
   1078          #ifdef NEWSGOLD
   1079           #define USE_ONE_KEY
   1080          #endif
   1081          
   1082          #define TMR_SECOND(A) (1300L*A/6)
   1083          

   \                                 In segment DATA_Z, align 4, align-sorted
   1084          volatile int SHOW_LOCK;
   \                     SHOW_LOCK:
   \   00000000                      DS8 4
   1085          

   \                                 In segment DATA_Z, align 4, align-sorted
   1086          CSM_DESC icsmd;
   \                     icsmd:
   \   00000000                      DS8 40

   \                                 In segment DATA_Z, align 4, align-sorted
   1087          int (*old_icsm_onMessage)(CSM_RAM*,GBS_MSG*);
   \                     old_icsm_onMessage:
   \   00000000                      DS8 4

   \                                 In segment DATA_Z, align 4, align-sorted
   1088          void (*old_icsm_onClose)(CSM_RAM*);
   \                     old_icsm_onClose:
   \   00000000                      DS8 4
   1089          
   1090          

   \                                 In segment DATA_Z, align 4, align-sorted
   1091          CSM_RAM *under_idle;
   \                     under_idle:
   \   00000000                      DS8 4
   1092          
   1093          extern const int ACTIVE_KEY;
   1094          extern const int ACTIVE_KEY_STYLE;
   1095          extern const int RED_BUT_MODE;
   1096          extern const int ENA_LONG_PRESS;
   1097          extern const int ENA_LOCK;
   1098          
   1099          extern const char *successed_config_filename;
   1100          
   1101          

   \                                 In segment DATA_Z, align 4, align-sorted
   1102          int mode;
   \                     mode:
   \   00000000                      DS8 4
   1103          

   \                                 In segment DATA_Z, align 4, align-sorted
   1104          int mode_red;
   \                     mode_red:
   \   00000000                      DS8 4
   1105          

   \                                 In segment DATA_Z, align 4, align-sorted
   1106          int mode_enter;
   \                     mode_enter:
   \   00000000                      DS8 4
   1107          
   1108          

   \                                 In segment CODE, align 4, keep-with-next
   1109          void ShowMenu()
   1110          {
   \                     ShowMenu:
   \   00000000   10402DE9           PUSH     {R4,LR}
   1111            if(!IsGuiOnTop(MAINCSM_ID))
   \   00000004   ........           LDR      R4,??DataTable99  ;; MAINCSM_ID
   \   00000008   2CD04DE2           SUB      SP,SP,#+44
   \   0000000C   000094E5           LDR      R0,[R4, #+0]
   \   00000010   350100EF           SWI      +309
   \   00000014   000050E3           CMP      R0,#+0
   \   00000018   1A00001A           BNE      ??ShowMenu_0
   1112            {
   1113              pos=1;
   \   0000001C   ........           LDR      R1,??DataTable87  ;; pos
   1114              total_pos=1;
   1115              move_skip=0;
   \   00000020   ........           LDR      R2,??DataTable88  ;; move_skip
   \   00000024   0100A0E3           MOV      R0,#+1
   \   00000028   000081E5           STR      R0,[R1, #+0]
   \   0000002C   ........           LDR      R1,??DataTable101  ;; total_pos
   \   00000030   000081E5           STR      R0,[R1, #+0]
   \   00000034   0010A0E3           MOV      R1,#+0
   \   00000038   001082E5           STR      R1,[R2, #+0]
   1116              task_list=1;
   \   0000003C   ........           LDR      R2,??DataTable97  ;; task_list
   \   00000040   000082E5           STR      R0,[R2, #+0]
   1117              time_not=1;
   \   00000044   ........           LDR      R2,??DataTable91  ;; time_not
   \   00000048   000082E5           STR      R0,[R2, #+0]
   1118              sm=0;
   \   0000004C   ........           LDR      R2,??DataTable92  ;; sm
   \   00000050   001082E5           STR      R1,[R2, #+0]
   1119              forward=1;
   \   00000054   ........           LDR      R2,??DataTable93  ;; forward
   \   00000058   000082E5           STR      R0,[R2, #+0]
   1120              logout=0;
   \   0000005C   2C009FE5           LDR      R0,??ShowMenu_1  ;; logout
   \   00000060   001080E5           STR      R1,[R0, #+0]
   1121              total_d=GetNumberOfDialogs()-1;
   \   00000064   ........           _BLF     GetNumberOfDialogs,??GetNumberOfDialogs??rA
   \   00000068   ........           LDR      R1,??DataTable100  ;; total_d
   \   0000006C   010040E2           SUB      R0,R0,#+1
   \   00000070   000081E5           STR      R0,[R1, #+0]
   1122              char dummy[sizeof(MAIN_CSM)];
   1123              MAINCSM_ID = CreateCSM(&MAINCSM.maincsm,dummy,2);
   \   00000074   18009FE5           LDR      R0,??ShowMenu_1+0x4  ;; MAINCSM
   \   00000078   0220A0E3           MOV      R2,#+2
   \   0000007C   0D10A0E1           MOV      R1,SP
   \   00000080   070100EF           SWI      +263
   \   00000084   000084E5           STR      R0,[R4, #+0]
   1124            }
   1125          }
   \                     ??ShowMenu_0:
   \   00000088   2CD08DE2           ADD      SP,SP,#+44       ;; stack cleaning
   \   0000008C   1080BDE8           POP      {R4,PC}          ;; return
   \                     ??ShowMenu_1:
   \   00000090   ........           DC32     logout
   \   00000094   ........           DC32     MAINCSM
   1126          
   1127          

   \                                 In segment CODE, align 4, keep-with-next
   1128          int my_keyhook(int submsg, int msg)
   1129          {
   \                     my_keyhook:
   \   00000000   F04F2DE9           PUSH     {R4-R11,LR}
   \   00000004   04D04DE2           SUB      SP,SP,#+4
   \   00000008   0040A0E1           MOV      R4,R0
   \   0000000C   0150A0E1           MOV      R5,R1
   1130          #ifdef NEWSGOLD
   1131            void *icsm=FindCSMbyID(CSM_root()->idle_id);
   \   00000010   068100EF           SWI      +33030
   \   00000014   040090E5           LDR      R0,[R0, #+4]
   \   00000018   0960A0E3           MOV      R6,#+9
   \   0000001C   080100EF           SWI      +264
   \   00000020   00B0A0E1           MOV      R11,R0
   \   00000024   426C86E3           ORR      R6,R6,#0x4200
   \   00000028   0170A0E3           MOV      R7,#+1
   \   0000002C   9380A0E3           MOV      R8,#+147
   \   00000030   408F88E3           ORR      R8,R8,#0x100
   \   00000034   0090A0E3           MOV      R9,#+0
   \   00000038   0C0054E3           CMP      R4,#+12
   \   0000003C   1600001A           BNE      ??my_keyhook_0
   \   00000040   A4139FE5           LDR      R1,??my_keyhook_1  ;; RED_BUT_MODE
   \   00000044   001091E5           LDR      R1,[R1, #+0]
   \   00000048   00108DE5           STR      R1,[SP, #+0]
   \   0000004C   000051E3           CMP      R1,#+0
   \   00000050   1100000A           BEQ      ??my_keyhook_0
   1132            if ((submsg==RED_BUTTON)&&(RED_BUT_MODE))
   1133            {
   1134              if ((CSM_root()->csm_q->csm.last==icsm)||(IsCalling())) //(IsGuiOnTop(((int *)icsm)[DISPLACE_OF_IDLEGUI_ID/4]))
   \   00000054   94A39FE5           LDR      R10,??my_keyhook_1+0x4  ;; mode_red
   \   00000058   068100EF           SWI      +33030
   \   0000005C   080090E5           LDR      R0,[R0, #+8]
   \   00000060   0C0090E5           LDR      R0,[R0, #+12]
   \   00000064   0B0050E1           CMP      R0,R11
   \   00000068   0200000A           BEQ      ??my_keyhook_2
   \   0000006C   6E0000EF           SWI      +110
   \   00000070   000050E3           CMP      R0,#+0
   \   00000074   1400000A           BEQ      ??my_keyhook_3
   1135              {
   1136                if (msg==KEY_UP)
   \                     ??my_keyhook_2:
   \   00000078   650F55E3           CMP      R5,#+404
   \   0000007C   0400001A           BNE      ??my_keyhook_4
   1137                {
   1138          	if (mode_red!=2)
   \   00000080   00009AE5           LDR      R0,[R10, #+0]
   \   00000084   020050E3           CMP      R0,#+2
   \   00000088   0200000A           BEQ      ??my_keyhook_5
   1139          	{
   1140          	  mode_red=0;
   \   0000008C   00908AE5           STR      R9,[R10, #+0]
   1141          	  return KEYHOOK_BREAK;
   \   00000090   2B0000EA           B        ??my_keyhook_6
   1142          	}
   1143                }
   1144                mode_red=2; //????? ?? ??????????
   \                     ??my_keyhook_4:
   \   00000094   0200A0E3           MOV      R0,#+2
   \                     ??my_keyhook_5:
   \   00000098   00008AE5           STR      R0,[R10, #+0]
   1145              }
   1146              else
   1147              {
   1148                if (msg==KEY_DOWN)
   1149                {
   1150          	if (mode_red==1)
   1151          	{
   1152          	  mode_red=0;
   1153          	  return KEYHOOK_NEXT; //Long press, continue with REDB PRESS
   1154          	}
   1155                }
   1156                if (msg==KEY_UP)
   1157                {
   1158          	if (mode_red)
   1159          	{
   1160          	  mode_red=0; //Release after longpress
   1161          	  return KEYHOOK_NEXT;
   1162          	}
   1163          	else
   1164          	  //Release after short press
   1165          	{
   1166                    if (RED_BUT_MODE==1)
   1167                    {
   1168                      if((task_list!=3)&&(task_list!=2)) GBS_SendMessage(MMI_CEPID,KEY_DOWN,RIGHT_SOFT);
   1169                    }
   1170                    else
   1171                    {
   1172          	    if (!MAINCSM_ID)
   1173          	    {
   1174          	      CSMtoTop(CSM_root()->idle_id,-1);
   1175          	    }
   1176                    }
   1177          	}
   1178                }
   1179                if (msg==LONG_PRESS)
   1180                {
   1181          	mode_red=1;
   1182          	if((task_list!=3)&&(task_list!=2)) GBS_SendMessage(MMI_CEPID,KEY_DOWN,RED_BUTTON);
   1183                }
   1184                return KEYHOOK_BREAK;
   1185              }
   1186            }
   1187          #endif
   1188          //#ifndef NEWSGOLD
   1189            if (ACTIVE_KEY_STYLE==3)
   \                     ??my_keyhook_0:
   \   0000009C   50139FE5           LDR      R1,??my_keyhook_1+0x8  ;; ENA_LOCK
   \   000000A0   ........           LDR      R0,??DataTable97  ;; task_list
   \   000000A4   00A091E5           LDR      R10,[R1, #+0]
   \   000000A8   48139FE5           LDR      R1,??my_keyhook_1+0xC  ;; ACTIVE_KEY_STYLE
   \   000000AC   000090E5           LDR      R0,[R0, #+0]
   \   000000B0   001091E5           LDR      R1,[R1, #+0]
   \   000000B4   ........           LDR      R11,??DataTable141  ;; mode
   \   000000B8   030051E3           CMP      R1,#+3
   \   000000BC   5B00001A           BNE      ??my_keyhook_7
   1190            {
   1191              if (submsg!=ENTER_BUTTON) return KEYHOOK_NEXT;
   \   000000C0   1A0054E3           CMP      R4,#+26
   \   000000C4   2C00000A           BEQ      ??my_keyhook_8
   \   000000C8   3B0000EA           B        ??my_keyhook_9
   \                     ??my_keyhook_3:
   \   000000CC   00009AE5           LDR      R0,[R10, #+0]
   \   000000D0   080055E1           CMP      R5,R8
   \   000000D4   0400001A           BNE      ??my_keyhook_10
   \   000000D8   010050E3           CMP      R0,#+1
   \   000000DC   8800001A           BNE      ??my_keyhook_11
   \                     ??my_keyhook_12:
   \   000000E0   00908AE5           STR      R9,[R10, #+0]
   \                     ??my_keyhook_13:
   \   000000E4   0000A0E3           MOV      R0,#+0
   \   000000E8   F28FBDE8           POP      {R1,R4-R11,PC}
   \                     ??my_keyhook_10:
   \   000000EC   ........           LDR      R1,??DataTable97  ;; task_list
   \   000000F0   650F55E3           CMP      R5,#+404
   \   000000F4   001091E5           LDR      R1,[R1, #+0]
   \   000000F8   1300001A           BNE      ??my_keyhook_14
   \   000000FC   000050E3           CMP      R0,#+0
   \   00000100   F6FFFF1A           BNE      ??my_keyhook_12
   \   00000104   00009DE5           LDR      R0,[SP, #+0]
   \   00000108   010050E3           CMP      R0,#+1
   \   0000010C   0400001A           BNE      ??my_keyhook_15
   \   00000110   030051E3           CMP      R1,#+3
   \   00000114   02005113           CMPNE    R1,#+2
   \   00000118   7900000A           BEQ      ??my_keyhook_11
   \   0000011C   0420A0E3           MOV      R2,#+4
   \   00000120   110000EA           B        ??my_keyhook_16
   \                     ??my_keyhook_15:
   \   00000124   ........           LDR      R0,??DataTable99  ;; MAINCSM_ID
   \   00000128   000090E5           LDR      R0,[R0, #+0]
   \   0000012C   000050E3           CMP      R0,#+0
   \   00000130   7300001A           BNE      ??my_keyhook_11
   \   00000134   068100EF           SWI      +33030
   \   00000138   040090E5           LDR      R0,[R0, #+4]
   \   0000013C   001067E2           RSB      R1,R7,#+0
   \   00000140   ........           _BLF     CSMtoTop,??CSMtoTop??rA
   \                     ??my_keyhook_6:
   \   00000144   0200A0E3           MOV      R0,#+2
   \   00000148   F28FBDE8           POP      {R1,R4-R11,PC}
   \                     ??my_keyhook_14:
   \   0000014C   650F87E3           ORR      R0,R7,#0x194
   \   00000150   000055E1           CMP      R5,R0
   \   00000154   6A00001A           BNE      ??my_keyhook_11
   \   00000158   00708AE5           STR      R7,[R10, #+0]
   \   0000015C   030051E3           CMP      R1,#+3
   \   00000160   02005113           CMPNE    R1,#+2
   \   00000164   6600000A           BEQ      ??my_keyhook_11
   \   00000168   0C20A0E3           MOV      R2,#+12
   \                     ??my_keyhook_16:
   \   0000016C   0810A0E1           MOV      R1,R8
   \   00000170   0600A0E1           MOV      R0,R6
   \   00000174   000100EF           SWI      +256
   \   00000178   F1FFFFEA           B        ??my_keyhook_6
   1192          /*    if (my_csm_id)
   1193              {
   1194                if (((CSM_RAM *)(CSM_root()->csm_q->csm.last))->id!=my_csm_id)
   1195                {
   1196                  CloseCSM(my_csm_id);
   1197                }
   1198                return KEYHOOK_NEXT;
   1199              }*/
   1200              switch(msg)
   \                     ??my_keyhook_8:
   \   0000017C   78229FE5           LDR      R2,??my_keyhook_1+0x10  ;; mode_enter
   \   00000180   080055E1           CMP      R5,R8
   \   00000184   003092E5           LDR      R3,[R2, #+0]
   \   00000188   0500000A           BEQ      ??my_keyhook_17
   \   0000018C   650F55E3           CMP      R5,#+404
   \   00000190   0D00000A           BEQ      ??my_keyhook_18
   \   00000194   65EF87E3           ORR      LR,R7,#0x194
   \   00000198   0E0055E1           CMP      R5,LR
   \   0000019C   1B00000A           BEQ      ??my_keyhook_19
   \   000001A0   220000EA           B        ??my_keyhook_7
   1201              {
   1202              case KEY_DOWN:
   1203                if (mode_enter==2)
   \                     ??my_keyhook_17:
   \   000001A4   020053E3           CMP      R3,#+2
   \   000001A8   0500001A           BNE      ??my_keyhook_20
   1204                {
   1205          	GBS_SendMessage(MMI_CEPID,KEY_UP,ENTER_BUTTON);
   \   000001AC   1A20A0E3           MOV      R2,#+26
   \   000001B0   651FA0E3           MOV      R1,#+404
   \   000001B4   0600A0E1           MOV      R0,R6
   \   000001B8   000100EF           SWI      +256
   1206          	return KEYHOOK_NEXT;
   \                     ??my_keyhook_9:
   \   000001BC   0000A0E3           MOV      R0,#+0
   \   000001C0   F28FBDE8           POP      {R1,R4-R11,PC}
   1207                }
   1208                mode_enter=0;
   \                     ??my_keyhook_20:
   \   000001C4   009082E5           STR      R9,[R2, #+0]
   1209                return KEYHOOK_BREAK;
   \   000001C8   DDFFFFEA           B        ??my_keyhook_6
   1210              case KEY_UP:
   1211                if (mode_enter==0)
   \                     ??my_keyhook_18:
   \   000001CC   000053E3           CMP      R3,#+0
   \   000001D0   0A00001A           BNE      ??my_keyhook_21
   1212                {
   1213                  mode_enter=2;
   \   000001D4   0210A0E3           MOV      R1,#+2
   \   000001D8   001082E5           STR      R1,[R2, #+0]
   1214                  if((task_list!=3)&&(task_list!=2)) GBS_SendMessage(MMI_CEPID,KEY_DOWN,ENTER_BUTTON);
   \   000001DC   030050E3           CMP      R0,#+3
   \   000001E0   4700000A           BEQ      ??my_keyhook_11
   \   000001E4   020050E3           CMP      R0,#+2
   \   000001E8   F28FBD08           POPEQ    {R1,R4-R11,PC}
   \   000001EC   1A20A0E3           MOV      R2,#+26
   \   000001F0   0810A0E1           MOV      R1,R8
   \   000001F4   0600A0E1           MOV      R0,R6
   \   000001F8   000100EF           SWI      +256
   1215                  return KEYHOOK_BREAK;
   \                     ??my_keyhook_22:
   \   000001FC   400000EA           B        ??my_keyhook_11
   1216                }
   1217                if (mode_enter==2)
   \                     ??my_keyhook_21:
   \   00000200   020053E3           CMP      R3,#+2
   \   00000204   EEFFFF1A           BNE      ??my_keyhook_20
   1218                {
   1219                  mode_enter=0;
   \   00000208   009082E5           STR      R9,[R2, #+0]
   1220                  return KEYHOOK_NEXT;
   \   0000020C   EAFFFFEA           B        ??my_keyhook_9
   1221                }
   1222                mode_enter=0;
   1223                return KEYHOOK_BREAK;      
   1224              case LONG_PRESS:
   1225                mode_enter=1;
   \                     ??my_keyhook_19:
   \   00000210   007082E5           STR      R7,[R2, #+0]
   1226                if (IsUnlocked()||ENA_LOCK)
   \   00000214   430000EF           SWI      +67
   \   00000218   000050E3           CMP      R0,#+0
   \   0000021C   00005A03           CMPEQ    R10,#+0
   \   00000220   0000000A           BEQ      ??my_keyhook_23
   1227                {
   1228                  ShowMenu();
   \   00000224   ........           BL       ShowMenu
   1229                }
   1230                mode=0;
   \                     ??my_keyhook_23:
   \   00000228   00908BE5           STR      R9,[R11, #+0]
   1231                return KEYHOOK_BREAK;
   \   0000022C   C4FFFFEA           B        ??my_keyhook_6
   1232              }
   1233            }
   1234            // * + # implementation
   1235            if ((ACTIVE_KEY_STYLE==2) && !(MAINCSM_ID))
   \                     ??my_keyhook_7:
   \   00000230   ........           LDR      R2,??DataTable99  ;; MAINCSM_ID
   \   00000234   00309BE5           LDR      R3,[R11, #+0]
   \   00000238   002092E5           LDR      R2,[R2, #+0]
   \   0000023C   020051E3           CMP      R1,#+2
   \   00000240   1600001A           BNE      ??my_keyhook_24
   \   00000244   000052E3           CMP      R2,#+0
   \   00000248   A5FFFF1A           BNE      ??my_keyhook_13
   1236            {
   1237              if (msg==KEY_UP)
   \   0000024C   650F55E3           CMP      R5,#+404
   1238              {
   1239                mode=0;
   \   00000250   00908B05           STREQ    R9,[R11, #+0]
   1240                return KEYHOOK_NEXT;
   \   00000254   A2FFFF0A           BEQ      ??my_keyhook_13
   1241              }
   1242              if (msg==KEY_DOWN)
   \   00000258   080055E1           CMP      R5,R8
   \   0000025C   A0FFFF1A           BNE      ??my_keyhook_13
   1243              {
   1244                switch (submsg)
   \   00000260   23C054E2           SUBS     R12,R4,#+35
   \   00000264   0300000A           BEQ      ??my_keyhook_25
   \   00000268   07C05CE2           SUBS     R12,R12,#+7
   \   0000026C   0B00001A           BNE      ??my_keyhook_24
   1245                {
   1246                case '*':
   1247                  mode=1;
   \   00000270   00708BE5           STR      R7,[R11, #+0]
   1248                  return (0);
   \   00000274   D0FFFFEA           B        ??my_keyhook_9
   1249                case '#':
   1250                  if (mode==1)
   \                     ??my_keyhook_25:
   \   00000278   010053E3           CMP      R3,#+1
   \   0000027C   98FFFF1A           BNE      ??my_keyhook_13
   1251                  {
   1252                    if (IsUnlocked()||ENA_LOCK)
   \   00000280   430000EF           SWI      +67
   \   00000284   000050E3           CMP      R0,#+0
   \   00000288   00005A03           CMPEQ    R10,#+0
   \   0000028C   0100000A           BEQ      ??my_keyhook_26
   1253                      ShowMenu();
   \   00000290   ........           BL       ShowMenu
   1254                    else mode=0;
   1255                  }
   1256                  else return KEYHOOK_NEXT;
   1257                }
   1258              }
   1259            }
   1260          //#endif
   1261            if (ACTIVE_KEY_STYLE<2)
   1262            {
   1263              if (submsg!=ACTIVE_KEY) return KEYHOOK_NEXT;
   1264              if (MAINCSM_ID)
   1265              {
   1266          /*      if (((CSM_RAM *)(CSM_root()->csm_q->csm.last))->id!=my_csm_id)
   1267                {
   1268          	CloseCSM(my_csm_id);
   1269                }*/
   1270                if (msg==KEY_UP)
   1271                {
   1272                  total_pos=2;
   1273                  if(total_pos>total_d) total_pos--;
   1274          	if((task_list!=3)&&(task_list!=2)) GBS_SendMessage(MMI_CEPID,KEY_DOWN,ENTER_BUTTON);
   1275                }
   1276                return KEYHOOK_BREAK;
   1277              }
   1278              switch(msg)
   1279              {
   1280              case KEY_DOWN:
   1281                mode=0;
   1282                if (ACTIVE_KEY_STYLE==0)
   1283          	return KEYHOOK_BREAK;
   1284                else 
   1285          	return KEYHOOK_NEXT;
   1286              case KEY_UP:
   1287                if (mode==1)
   1288                {
   1289          	//Release after longpress
   1290          	mode=0;
   1291          	if ((ACTIVE_KEY_STYLE==1) || (ENA_LONG_PRESS==3))
   1292          	{
   1293          	  //Launch on LongPress or Extra on LP - Launch
   1294          	  if (IsUnlocked()||ENA_LOCK)
   1295          	  {
   1296          	    ShowMenu();
   1297          	  }
   1298          	  return KEYHOOK_BREAK;
   1299          	}
   1300                  if (ENA_LONG_PRESS==1) return KEYHOOK_BREAK;
   1301          	if (ENA_LONG_PRESS==2)
   1302          	{
   1303          	  if ((task_list!=2)&&(task_list!=3)) CSMtoTop(CSM_root()->idle_id,-1);
   1304          	  return KEYHOOK_BREAK;
   1305          	}
   1306                  if (ENA_LONG_PRESS==4)
   1307                  {
   1308                    if ((task_list!=2)&&(task_list!=3)){
   1309                    CSMtoTop(CSM_root()->idle_id,-1);
   1310                    KbdLock();}
   1311                    return KEYHOOK_BREAK;
   1312                  }
   1313          	break;
   1314                }
   1315                if (ACTIVE_KEY_STYLE==0)
   1316                {
   1317          	if (IsUnlocked()||ENA_LOCK)
   1318          	{
   1319          	  ShowMenu();
   1320          	}
   1321          	return KEYHOOK_BREAK;
   1322                }
   1323                break;
   1324              case LONG_PRESS:
   1325                mode=1;
   1326          #ifndef NEWSGOLD
   1327                if (ACTIVE_KEY_STYLE==1)
   1328                {
   1329          	if (ENA_LONG_PRESS)
   1330          	  return KEYHOOK_NEXT;
   1331          	else 
   1332          	  return KEYHOOK_BREAK;
   1333                }
   1334          #else
   1335                return KEYHOOK_BREAK;
   1336          #endif
   1337              }
   1338            }
   1339            return KEYHOOK_NEXT;
   \   00000294   C8FFFFEA           B        ??my_keyhook_9
   \                     ??my_keyhook_26:
   \   00000298   00908BE5           STR      R9,[R11, #+0]
   \   0000029C   C6FFFFEA           B        ??my_keyhook_9
   \                     ??my_keyhook_24:
   \   000002A0   020051E3           CMP      R1,#+2
   \   000002A4   8EFFFFAA           BGE      ??my_keyhook_13
   \   000002A8   50C19FE5           LDR      R12,??my_keyhook_1+0x14  ;; ACTIVE_KEY
   \   000002AC   00C09CE5           LDR      R12,[R12, #+0]
   \   000002B0   0C0054E1           CMP      R4,R12
   \   000002B4   8AFFFF1A           BNE      ??my_keyhook_13
   \   000002B8   000052E3           CMP      R2,#+0
   \   000002BC   1200000A           BEQ      ??my_keyhook_27
   \   000002C0   650F55E3           CMP      R5,#+404
   \   000002C4   0E00001A           BNE      ??my_keyhook_11
   \   000002C8   ........           LDR      R2,??DataTable100  ;; total_d
   \   000002CC   0210A0E3           MOV      R1,#+2
   \   000002D0   002092E5           LDR      R2,[R2, #+0]
   \   000002D4   020052E3           CMP      R2,#+2
   \   000002D8   ........           LDR      R2,??DataTable101  ;; total_pos
   \   000002DC   0110A0B3           MOVLT    R1,#+1
   \   000002E0   001082E5           STR      R1,[R2, #+0]
   \   000002E4   030050E3           CMP      R0,#+3
   \   000002E8   0500000A           BEQ      ??my_keyhook_11
   \   000002EC   020050E3           CMP      R0,#+2
   \   000002F0   F28FBD08           POPEQ    {R1,R4-R11,PC}
   \   000002F4   1A20A0E3           MOV      R2,#+26
   \   000002F8   0810A0E1           MOV      R1,R8
   \   000002FC   0600A0E1           MOV      R0,R6
   \   00000300   000100EF           SWI      +256
   \                     ??my_keyhook_11:
   \   00000304   0200A0E3           MOV      R0,#+2
   \   00000308   F28FBDE8           POP      {R1,R4-R11,PC}
   \                     ??my_keyhook_27:
   \   0000030C   080055E1           CMP      R5,R8
   \   00000310   0500000A           BEQ      ??my_keyhook_28
   \   00000314   650F55E3           CMP      R5,#+404
   \   00000318   0700000A           BEQ      ??my_keyhook_29
   \   0000031C   022088E2           ADD      R2,R8,#+2
   \   00000320   020055E1           CMP      R5,R2
   \   00000324   2E00000A           BEQ      ??my_keyhook_30
   \   00000328   A3FFFFEA           B        ??my_keyhook_9
   \                     ??my_keyhook_28:
   \   0000032C   00908BE5           STR      R9,[R11, #+0]
   \   00000330   000051E3           CMP      R1,#+0
   \   00000334   6AFFFF1A           BNE      ??my_keyhook_13
   \   00000338   81FFFFEA           B        ??my_keyhook_6
   \                     ??my_keyhook_29:
   \   0000033C   010053E3           CMP      R3,#+1
   \   00000340   1F00001A           BNE      ??my_keyhook_31
   \   00000344   00908BE5           STR      R9,[R11, #+0]
   \   00000348   010051E3           CMP      R1,#+1
   \   0000034C   1E00000A           BEQ      ??my_keyhook_32
   \   00000350   AC109FE5           LDR      R1,??my_keyhook_1+0x18  ;; ENA_LONG_PRESS
   \   00000354   001091E5           LDR      R1,[R1, #+0]
   \   00000358   030051E3           CMP      R1,#+3
   \   0000035C   1A00000A           BEQ      ??my_keyhook_32
   \   00000360   010051E3           CMP      R1,#+1
   \   00000364   E6FFFF0A           BEQ      ??my_keyhook_11
   \   00000368   020051E3           CMP      R1,#+2
   \   0000036C   0800001A           BNE      ??my_keyhook_33
   \   00000370   020050E3           CMP      R0,#+2
   \   00000374   F28FBD08           POPEQ    {R1,R4-R11,PC}
   \   00000378   030050E3           CMP      R0,#+3
   \   0000037C   E0FFFF0A           BEQ      ??my_keyhook_11
   \   00000380   068100EF           SWI      +33030
   \   00000384   040090E5           LDR      R0,[R0, #+4]
   \   00000388   001067E2           RSB      R1,R7,#+0
   \   0000038C   ........           _BLF     CSMtoTop,??CSMtoTop??rA
   \                     ??my_keyhook_34:
   \   00000390   DBFFFFEA           B        ??my_keyhook_11
   \                     ??my_keyhook_33:
   \   00000394   040051E3           CMP      R1,#+4
   \   00000398   51FFFF1A           BNE      ??my_keyhook_13
   \   0000039C   020050E3           CMP      R0,#+2
   \   000003A0   F28FBD08           POPEQ    {R1,R4-R11,PC}
   \   000003A4   030050E3           CMP      R0,#+3
   \   000003A8   D5FFFF0A           BEQ      ??my_keyhook_11
   \   000003AC   068100EF           SWI      +33030
   \   000003B0   040090E5           LDR      R0,[R0, #+4]
   \   000003B4   001067E2           RSB      R1,R7,#+0
   \   000003B8   ........           _BLF     CSMtoTop,??CSMtoTop??rA
   \   000003BC   A90000EF           SWI      +169
   \                     ??my_keyhook_35:
   \   000003C0   CFFFFFEA           B        ??my_keyhook_11
   \                     ??my_keyhook_31:
   \   000003C4   000051E3           CMP      R1,#+0
   \   000003C8   45FFFF1A           BNE      ??my_keyhook_13
   \                     ??my_keyhook_32:
   \   000003CC   430000EF           SWI      +67
   \   000003D0   000050E3           CMP      R0,#+0
   \   000003D4   00005A03           CMPEQ    R10,#+0
   \   000003D8   C9FFFF0A           BEQ      ??my_keyhook_11
   \   000003DC   ........           BL       ShowMenu
   \                     ??my_keyhook_36:
   \   000003E0   C7FFFFEA           B        ??my_keyhook_11
   \                     ??my_keyhook_30:
   \   000003E4   00708BE5           STR      R7,[R11, #+0]
   \   000003E8   55FFFFEA           B        ??my_keyhook_6
   \                     ??my_keyhook_1:
   \   000003EC   ........           DC32     RED_BUT_MODE
   \   000003F0   ........           DC32     mode_red
   \   000003F4   ........           DC32     ENA_LOCK
   \   000003F8   ........           DC32     ACTIVE_KEY_STYLE
   \   000003FC   ........           DC32     mode_enter
   \   00000400   ........           DC32     ACTIVE_KEY
   \   00000404   ........           DC32     ENA_LONG_PRESS
   1340          }
   1341          

   \                                 In segment DATA_Z, align 4, align-sorted
   1342          volatile int callhide_mode=0;
   \                     callhide_mode:
   \   00000000                      DS8 4
   1343          
   1344          #pragma inline=forced
   1345          int toupper(int c)
   1346          {
   1347            if ((c>='a')&&(c<='z')) c+='A'-'a';
   1348            return(c);
   1349          }
   1350          

   \                                 In segment CODE, align 4, keep-with-next
   1351          int strcmp_nocase(const char *s1,const char *s2)
   1352          {
   1353            int i;
   1354            int c;
   1355            while(!(i=(c=toupper(*s1++))-toupper(*s2++))) if (!c) break;
   \                     strcmp_nocase:
   \                     ??strcmp_nocase_0:
   \   00000000   0020D0E5           LDRB     R2,[R0, #+0]
   \   00000004   610052E3           CMP      R2,#+97
   \   00000008   010000BA           BLT      ??strcmp_nocase_1
   \   0000000C   7B0052E3           CMP      R2,#+123
   \   00000010   202042B2           SUBLT    R2,R2,#+32
   \                     ??strcmp_nocase_1:
   \   00000014   00C0D1E5           LDRB     R12,[R1, #+0]
   \   00000018   010080E2           ADD      R0,R0,#+1
   \   0000001C   0230A0E1           MOV      R3,R2
   \   00000020   61005CE3           CMP      R12,#+97
   \   00000024   010000BA           BLT      ??strcmp_nocase_2
   \   00000028   7B005CE3           CMP      R12,#+123
   \   0000002C   20C04CB2           SUBLT    R12,R12,#+32
   \                     ??strcmp_nocase_2:
   \   00000030   011081E2           ADD      R1,R1,#+1
   \   00000034   0C2052E0           SUBS     R2,R2,R12
   \   00000038   0100001A           BNE      ??strcmp_nocase_3
   \   0000003C   000053E3           CMP      R3,#+0
   \   00000040   EEFFFF1A           BNE      ??strcmp_nocase_0
   1356            return(i);
   \                     ??strcmp_nocase_3:
   \   00000044   0200A0E1           MOV      R0,R2
   \   00000048   1EFF2FE1           BX       LR               ;; return
   1357          }
   1358          

   \                                 In segment DATA_C, align 4, align-sorted
   1359          const char my_ipc_name[]=IPC_XTASK_NAME;
   \                     my_ipc_name:
   \   00000000   585461736B00       DC8 "XTask"
   \   00000006   0000               DC8 0, 0
   1360          

   \                                 In segment CODE, align 4, keep-with-next
   1361          int MyIDLECSM_onMessage(CSM_RAM* data,GBS_MSG* msg)
   1362          {
   1363            int csm_result;
   1364            int icgui_id;
   1365            //  int ocgui_id;
   1366            int idlegui_id;
   1367            
   1368          #ifndef NEWSGOLD 
   1369          #define EXT_BUTTON 0x63  
   1370            if ((ACTIVE_KEY_STYLE!=2)&&(ACTIVE_KEY_STYLE!=3)) //?? "* + #" ? ?? "Enter Button"
   1371            {//???? ????? ???? ??????? ??????? ??? ???? ???????
   1372              if (ACTIVE_KEY==EXT_BUTTON) //?????? ?????? ????????
   1373              {
   1374                if (msg->msg==439) //?????? ???????
   1375                {
   1376                  switch (msg->submess) 
   1377                  {
   1378          	case 1:
   1379          	  if((task_list!=3)&&(task_list!=2)) GBS_SendMessage(MMI_CEPID,LONG_PRESS,EXT_BUTTON);
   1380                    break;
   1381          	case 2:
   1382          	  if((task_list!=3)&&(task_list!=2)) GBS_SendMessage(MMI_CEPID,KEY_UP,EXT_BUTTON);
   1383                    break; // ???????? default!!!
   1384                  }
   1385                }
   1386                else //??????? ?? ?????????
   1387          	goto L1;
   1388              }
   1389              else //?????? ?????? ?? ???????? ?????? ??????? ?????? ????????
   1390                goto L1;
   1391            }
   1392            else
   1393          L1:
   1394            csm_result=old_icsm_onMessage(data,msg);
   1395          #else    
   1396            csm_result = old_icsm_onMessage(data, msg); //???????? ?????? ?????????? ???????    
   \                     MyIDLECSM_onMessage:
   \   00000000   ........           LDR      R2,??DataTable140  ;; old_icsm_onMessage
   \   00000004   F04F2DE9           PUSH     {R4-R11,LR}
   1397          #endif
   1398            
   1399            icgui_id=((int *)data)[DISPLACE_OF_INCOMMINGGUI/4];
   1400            idlegui_id=((int *)data)[DISPLACE_OF_IDLEGUI_ID/4];
   1401            //  ocgui_id=((int *)data)[DISPLACE_OF_OUTGOINGGUI/4];
   1402            if (!icgui_id) callhide_mode=0;
   \   00000008   C0519FE5           LDR      R5,??MyIDLECSM_onMessage_0  ;; callhide_mode
   \   0000000C   04D04DE2           SUB      SP,SP,#+4
   \   00000010   002092E5           LDR      R2,[R2, #+0]
   \   00000014   0070A0E1           MOV      R7,R0
   \   00000018   0180A0E1           MOV      R8,R1
   \   0000001C   32FF2FE1           BLX      R2
   \   00000020   349097E5           LDR      R9,[R7, #+52]
   \   00000024   2C1097E5           LDR      R1,[R7, #+44]
   \   00000028   0040A0E1           MOV      R4,R0
   \   0000002C   00108DE5           STR      R1,[SP, #+0]
   \   00000030   0060A0E3           MOV      R6,#+0
   \   00000034   000059E3           CMP      R9,#+0
   \   00000038   00608505           STREQ    R6,[R5, #+0]
   1403            //  if (!ocgui_id) callhide_mode=0;
   1404            
   1405            if(msg->msg == MSG_RECONFIGURE_REQ) 
   \   0000003C   040098E5           LDR      R0,[R8, #+4]
   \   00000040   AF10A0E3           MOV      R1,#+175
   \   00000044   DE1C81E3           ORR      R1,R1,#0xDE00
   \   00000048   010050E1           CMP      R0,R1
   \   0000004C   0A00001A           BNE      ??MyIDLECSM_onMessage_1
   1406            {
   1407              if (strcmp_nocase(successed_config_filename,(char *)msg->data0)==0)
   \   00000050   ........           LDR      R0,??DataTable103  ;; successed_config_filename
   \   00000054   0C1098E5           LDR      R1,[R8, #+12]
   \   00000058   000090E5           LDR      R0,[R0, #+0]
   \   0000005C   ........           BL       strcmp_nocase
   \   00000060   000050E3           CMP      R0,#+0
   \   00000064   4700001A           BNE      ??MyIDLECSM_onMessage_2
   1408              {
   1409                ShowMSG(1,(int)"XTask config updated!");
   \   00000068   64119FE5           LDR      R1,??MyIDLECSM_onMessage_0+0x4  ;; `?<Constant "XTask config updated!">`
   \   0000006C   0100A0E3           MOV      R0,#+1
   \   00000070   480100EF           SWI      +328
   1410                InitConfig();
   \   00000074   ........           _BLF     InitConfig,??InitConfig??rA
   1411                init_turnoff();
   \   00000078   ........           BL       init_turnoff
   1412              }
   1413            }
   1414            //IPC
   1415            if (msg->msg==MSG_IPC)
   \                     ??MyIDLECSM_onMessage_1:
   \   0000007C   040098E5           LDR      R0,[R8, #+4]
   \   00000080   B010A0E3           MOV      R1,#+176
   \   00000084   DE1C81E3           ORR      R1,R1,#0xDE00
   \   00000088   010050E1           CMP      R0,R1
   \   0000008C   3900001A           BNE      ??MyIDLECSM_onMessage_3
   1416            {
   1417              IPC_REQ *ipc;
   1418              if ((ipc=(IPC_REQ*)msg->data0))
   \   00000090   0CA098E5           LDR      R10,[R8, #+12]
   \   00000094   00005AE3           CMP      R10,#+0
   \   00000098   3A00000A           BEQ      ??MyIDLECSM_onMessage_2
   1419              {
   1420                if (strcmp(ipc->name_to,my_ipc_name)==0)
   \   0000009C   00009AE5           LDR      R0,[R10, #+0]
   \   000000A0   30119FE5           LDR      R1,??MyIDLECSM_onMessage_0+0x8  ;; my_ipc_name
   \   000000A4   190000EF           SWI      +25
   \   000000A8   000050E3           CMP      R0,#+0
   \   000000AC   3100001A           BNE      ??MyIDLECSM_onMessage_3
   1421                {
   1422          	switch (msg->submess)
   \   000000B0   ........           LDR      R0,??DataTable104  ;; MAINCSM_ID
   \   000000B4   081098E5           LDR      R1,[R8, #+8]
   \   000000B8   000090E5           LDR      R0,[R0, #+0]
   \   000000BC   18B19FE5           LDR      R11,??MyIDLECSM_onMessage_0+0xC  ;; SHOW_LOCK
   \   000000C0   011051E2           SUBS     R1,R1,#+1
   \   000000C4   1A00000A           BEQ      ??MyIDLECSM_onMessage_4
   \   000000C8   011051E2           SUBS     R1,R1,#+1
   \   000000CC   0400000A           BEQ      ??MyIDLECSM_onMessage_5
   \   000000D0   011051E2           SUBS     R1,R1,#+1
   \   000000D4   1E00000A           BEQ      ??MyIDLECSM_onMessage_6
   \   000000D8   011051E2           SUBS     R1,R1,#+1
   \   000000DC   1F00000A           BEQ      ??MyIDLECSM_onMessage_7
   \   000000E0   240000EA           B        ??MyIDLECSM_onMessage_3
   1423          	{
   1424          	case IPC_XTASK_SHOW_CSM:
   1425          	  if (MAINCSM_ID) break;
   \                     ??MyIDLECSM_onMessage_5:
   \   000000E4   000050E3           CMP      R0,#+0
   \   000000E8   2200001A           BNE      ??MyIDLECSM_onMessage_3
   1426          	  if ((!IsCalling())&&(!SHOW_LOCK))
   \   000000EC   6E0000EF           SWI      +110
   \   000000F0   000050E3           CMP      R0,#+0
   \   000000F4   00009B05           LDREQ    R0,[R11, #+0]
   \   000000F8   00005003           CMPEQ    R0,#+0
   \   000000FC   1D00001A           BNE      ??MyIDLECSM_onMessage_3
   1427          	  {
   1428          	    if ((CSM_root()->csm_q->csm.last!=data)||IsGuiOnTop(idlegui_id))
   \   00000100   068100EF           SWI      +33030
   \   00000104   080090E5           LDR      R0,[R0, #+8]
   \   00000108   0C0090E5           LDR      R0,[R0, #+12]
   \   0000010C   070050E1           CMP      R0,R7
   \   00000110   0300001A           BNE      ??MyIDLECSM_onMessage_8
   \   00000114   00009DE5           LDR      R0,[SP, #+0]
   \   00000118   350100EF           SWI      +309
   \   0000011C   000050E3           CMP      R0,#+0
   \   00000120   1400000A           BEQ      ??MyIDLECSM_onMessage_3
   1429          	    {
   1430          	      CSMtoTop((int)(ipc->data),-1);
   \                     ??MyIDLECSM_onMessage_8:
   \   00000124   08009AE5           LDR      R0,[R10, #+8]
   \                     ??MyIDLECSM_onMessage_9:
   \   00000128   0610E0E1           MVN      R1,R6
   \   0000012C   ........           _BLF     CSMtoTop,??CSMtoTop??rA
   \   00000130   100000EA           B        ??MyIDLECSM_onMessage_3
   1431          	    }
   1432          	  }
   1433          	  break;
   1434          	case IPC_XTASK_IDLE:
   1435          	  if (MAINCSM_ID) break;
   \                     ??MyIDLECSM_onMessage_4:
   \   00000134   000050E3           CMP      R0,#+0
   \   00000138   0E00001A           BNE      ??MyIDLECSM_onMessage_3
   1436          	  if ((!IsCalling())/*&&(!SHOW_LOCK)*/)
   \   0000013C   6E0000EF           SWI      +110
   \   00000140   000050E3           CMP      R0,#+0
   \   00000144   0B00001A           BNE      ??MyIDLECSM_onMessage_3
   1437          	    CSMtoTop(CSM_root()->idle_id,-1);
   \   00000148   068100EF           SWI      +33030
   \   0000014C   040090E5           LDR      R0,[R0, #+4]
   \   00000150   F4FFFFEA           B        ??MyIDLECSM_onMessage_9
   1438          	  break;
   1439          	case IPC_XTASK_LOCK_SHOW:
   1440          	  SHOW_LOCK++;
   \                     ??MyIDLECSM_onMessage_6:
   \   00000154   00009BE5           LDR      R0,[R11, #+0]
   \   00000158   010080E2           ADD      R0,R0,#+1
   \   0000015C   040000EA           B        ??MyIDLECSM_onMessage_10
   1441          	  break;
   1442          	case IPC_XTASK_UNLOCK_SHOW:
   1443          	  if (SHOW_LOCK) SHOW_LOCK--;
   \                     ??MyIDLECSM_onMessage_7:
   \   00000160   00009BE5           LDR      R0,[R11, #+0]
   \   00000164   000050E3           CMP      R0,#+0
   \   00000168   0200000A           BEQ      ??MyIDLECSM_onMessage_3
   \   0000016C   00009BE5           LDR      R0,[R11, #+0]
   \   00000170   010040E2           SUB      R0,R0,#+1
   \                     ??MyIDLECSM_onMessage_10:
   \   00000174   00008BE5           STR      R0,[R11, #+0]
   1444          	  break;
   1445          	}
   1446                }
   1447              }
   1448            }
   1449            if (msg->msg==MSG_INCOMMING_CALL)
   \                     ??MyIDLECSM_onMessage_3:
   \   00000178   040098E5           LDR      R0,[R8, #+4]
   \   0000017C   600C50E3           CMP      R0,#+24576
   1450            {
   1451              callhide_mode=1;
   \   00000180   0100A003           MOVEQ    R0,#+1
   \   00000184   00008505           STREQ    R0,[R5, #+0]
   1452            }
   1453            //  #ifdef NEWSGOLD
   1454            //  if ((msg->msg==MSG_STATE_OF_CALL)&&(msg->submess==0)&&((int)msg->data0==3)) callhide_mode=1;
   1455            //  #else
   1456            //if ((msg->msg==MSG_STATE_OF_CALL)&&(msg->submess==0)&&((int)msg->data0==0)) callhide_mode=1;
   1457            //    ?????!!!! ??????!!!
   1458            //  #endif   
   1459            if (callhide_mode)
   \                     ??MyIDLECSM_onMessage_2:
   \   00000188   000095E5           LDR      R0,[R5, #+0]
   \   0000018C   000050E3           CMP      R0,#+0
   \   00000190   0C00000A           BEQ      ??MyIDLECSM_onMessage_11
   1460            {
   1461              if ((IsGuiOnTop(icgui_id))/*||(IsGuiOnTop(ocgui_id))*/)
   \   00000194   0900A0E1           MOV      R0,R9
   \   00000198   350100EF           SWI      +309
   \   0000019C   000050E3           CMP      R0,#+0
   \   000001A0   0800000A           BEQ      ??MyIDLECSM_onMessage_11
   1462              {
   1463                CSMtoTop(CSM_root()->idle_id,((CSM_RAM *)(CSM_root()->csm_q->csm.last))->id);
   \   000001A4   068100EF           SWI      +33030
   \   000001A8   0070A0E1           MOV      R7,R0
   \   000001AC   068100EF           SWI      +33030
   \   000001B0   081097E5           LDR      R1,[R7, #+8]
   \   000001B4   040090E5           LDR      R0,[R0, #+4]
   \   000001B8   0C1091E5           LDR      R1,[R1, #+12]
   \   000001BC   0C1091E5           LDR      R1,[R1, #+12]
   \   000001C0   ........           _BLF     CSMtoTop,??CSMtoTop??rA
   1464                callhide_mode=0;
   \   000001C4   006085E5           STR      R6,[R5, #+0]
   1465              }
   1466            }
   1467            return csm_result;  
   \                     ??MyIDLECSM_onMessage_11:
   \   000001C8   0400A0E1           MOV      R0,R4
   \   000001CC   F28FBDE8           POP      {R1,R4-R11,PC}   ;; return
   \                     ??MyIDLECSM_onMessage_0:
   \   000001D0   ........           DC32     callhide_mode
   \   000001D4   ........           DC32     `?<Constant "XTask config updated!">`
   \   000001D8   ........           DC32     my_ipc_name
   \   000001DC   ........           DC32     SHOW_LOCK
   1468          }
   1469          

   \                                 In segment CODE, align 4, keep-with-next
   1470          void MyIDLECSM_onClose(CSM_RAM *data)
   1471          {
   \                     MyIDLECSM_onClose:
   \   00000000   10402DE9           PUSH     {R4,LR}
   \   00000004   0040A0E1           MOV      R4,R0
   1472            extern void seqkill(void *data, void(*next_in_seq)(CSM_RAM *), void *data_to_kill, void *seqkiller);
   1473            extern void *ELF_BEGIN;
   1474            GBS_DelTimer(&start_tmr);
   \   00000008   ........           LDR      R0,??DataTable142  ;; start_tmr
   \   0000000C   8C0100EF           SWI      +396
   1475            RemoveKeybMsgHook((void *)my_keyhook);
   \   00000010   ........           LDR      R0,??DataTable138  ;; my_keyhook
   \   00000014   2D0100EF           SWI      +301
   1476            seqkill(data,old_icsm_onClose,&ELF_BEGIN,SEQKILLER_ADR());
   \   00000018   9C8100EF           SWI      +33180
   \   0000001C   ........           LDR      R2,??DataTable107  ;; ELF_BEGIN
   \   00000020   0030A0E1           MOV      R3,R0
   \   00000024   ........           LDR      R0,??DataTable139  ;; old_icsm_onClose
   \   00000028   001090E5           LDR      R1,[R0, #+0]
   \   0000002C   0400A0E1           MOV      R0,R4
   \   00000030   1040BDE8           POP      {R4,LR}          ;; Pop
   \   00000034   ........           _BF      seqkill,??seqkill??rA  ;; tailcall
   1477          }
   1478          

   \                                 In segment CODE, align 4, keep-with-next
   1479          void load_icon_list()
   1480          {
   1481              int fi;
   1482              int fsizei;
   1483              FSTATS stati;
   1484              unsigned int uli;
   1485              sprintf(icon_list_path,"$s%s",path,"icon_list.txt");
   \                     load_icon_list:
   \   00000000   A4309FE5           LDR      R3,??load_icon_list_0  ;; `?<Constant "icon_list.txt">`
   \   00000004   ........           LDR      R2,??DataTable114  ;; path
   \   00000008   ........           LDR      R1,??DataTable115  ;; `?<Constant "$s%s">`
   \   0000000C   70402DE9           PUSH     {R4-R6,LR}
   \   00000010   98409FE5           LDR      R4,??load_icon_list_0+0x4  ;; icon_list_path
   \   00000014   2CD04DE2           SUB      SP,SP,#+44
   \   00000018   0400A0E1           MOV      R0,R4
   \   0000001C   160000EF           SWI      +22
   1486              GetFileStats(icon_list_path,&stati,&uli);
   \   00000020   0D20A0E1           MOV      R2,SP
   \   00000024   04108DE2           ADD      R1,SP,#+4
   \   00000028   0400A0E1           MOV      R0,R4
   \   0000002C   840000EF           SWI      +132
   1487              if(stati.size>0)
   \   00000030   08009DE5           LDR      R0,[SP, #+8]
   \   00000034   000050E3           CMP      R0,#+0
   \   00000038   1900000A           BEQ      ??load_icon_list_1
   1488              {
   1489                fi=fopen(icon_list_path,A_ReadOnly+A_BIN,P_READ,&uli);
   \   0000003C   0D30A0E1           MOV      R3,SP
   \   00000040   8020A0E3           MOV      R2,#+128
   \   00000044   801CA0E3           MOV      R1,#+32768
   \   00000048   0400A0E1           MOV      R0,R4
   \   0000004C   0A0000EF           SWI      +10
   1490                fsizei=stati.size;
   \   00000050   08509DE5           LDR      R5,[SP, #+8]
   \   00000054   0040A0E1           MOV      R4,R0
   1491                char *pi=malloc(fsizei);
   \   00000058   0500A0E1           MOV      R0,R5
   \   0000005C   140000EF           SWI      +20
   \   00000060   0060A0E1           MOV      R6,R0
   1492                pi[fread(fi,pi,fsizei,&uli)];
   \   00000064   0D30A0E1           MOV      R3,SP
   \   00000068   0520A0E1           MOV      R2,R5
   \   0000006C   0610A0E1           MOV      R1,R6
   \   00000070   0400A0E1           MOV      R0,R4
   \   00000074   0B0000EF           SWI      +11
   1493                fclose(fi,&uli);
   \   00000078   0400A0E1           MOV      R0,R4
   1494                strcpy(icon_text, pi);
   \   0000007C   ........           LDR      R4,??DataTable111  ;; icon_text
   \   00000080   0D10A0E1           MOV      R1,SP
   \   00000084   0D0000EF           SWI      +13
   \   00000088   0610A0E1           MOV      R1,R6
   \   0000008C   0400A0E1           MOV      R0,R4
   \   00000090   1A0000EF           SWI      +26
   1495                icon_text[fsizei]='\0';
   \   00000094   0000A0E3           MOV      R0,#+0
   \   00000098   0400C5E7           STRB     R0,[R5, +R4]
   1496                mfree(pi);
   \   0000009C   0600A0E1           MOV      R0,R6
   \   000000A0   150000EF           SWI      +21
   1497              }
   1498          }
   \                     ??load_icon_list_1:
   \   000000A4   2CD08DE2           ADD      SP,SP,#+44       ;; stack cleaning
   \   000000A8   7080BDE8           POP      {R4-R6,PC}       ;; return
   \                     ??load_icon_list_0:
   \   000000AC   ........           DC32     `?<Constant "icon_list.txt">`
   \   000000B0   ........           DC32     icon_list_path

   \                                 In segment DATA_Z, align 4, align-sorted
   1499          int serti;
   \                     serti:
   \   00000000                      DS8 4
   1500          

   \                                 In segment CODE, align 4, keep-with-next
   1501          void get_bookmark(char *name, char *path, int w, char *search)
   1502          {
   \                     get_bookmark:
   \   00000000   10002DE9           PUSH     {R4}
   1503            int q=0;
   \   00000004   0340D2E7           LDRB     R4,[R2, +R3]
   \   00000008   00C0A0E3           MOV      R12,#+0
   \   0000000C   7C0054E3           CMP      R4,#+124
   \   00000010   0600000A           BEQ      ??get_bookmark_0
   1504            while(search[w]!='|')
   1505            {
   1506              name[q]=search[w];
   \                     ??get_bookmark_1:
   \   00000014   0340D2E7           LDRB     R4,[R2, +R3]
   1507              q++;
   1508              w++;
   \   00000018   012082E2           ADD      R2,R2,#+1
   \   0000001C   0040CCE7           STRB     R4,[R12, +R0]
   1509            }
   \   00000020   0340D2E7           LDRB     R4,[R2, +R3]
   \   00000024   01C08CE2           ADD      R12,R12,#+1
   \   00000028   7C0054E3           CMP      R4,#+124
   \   0000002C   F8FFFF1A           BNE      ??get_bookmark_1
   1510            name[q]='\0';
   \                     ??get_bookmark_0:
   \   00000030   0040A0E3           MOV      R4,#+0
   \   00000034   0040CCE7           STRB     R4,[R12, +R0]
   1511            w++;
   \   00000038   010082E2           ADD      R0,R2,#+1
   1512            q=0;
   \   0000003C   03C0D0E7           LDRB     R12,[R0, +R3]
   \   00000040   0020A0E3           MOV      R2,#+0
   \   00000044   7C005CE3           CMP      R12,#+124
   \   00000048   0600000A           BEQ      ??get_bookmark_2
   1513            while(search[w]!='|')
   1514            {
   1515              path[q]=search[w];
   \                     ??get_bookmark_3:
   \   0000004C   03C0D0E7           LDRB     R12,[R0, +R3]
   1516              q++;
   1517              w++;
   \   00000050   010080E2           ADD      R0,R0,#+1
   \   00000054   01C0C2E7           STRB     R12,[R2, +R1]
   1518            }
   \   00000058   03C0D0E7           LDRB     R12,[R0, +R3]
   \   0000005C   012082E2           ADD      R2,R2,#+1
   \   00000060   7C005CE3           CMP      R12,#+124
   \   00000064   F8FFFF1A           BNE      ??get_bookmark_3
   1519            path[q]='\0';
   \                     ??get_bookmark_2:
   \   00000068   0140C2E7           STRB     R4,[R2, +R1]
   1520            serti=w+3;
   \   0000006C   ........           LDR      R1,??DataTable116  ;; serti
   \   00000070   030080E2           ADD      R0,R0,#+3
   \   00000074   000081E5           STR      R0,[R1, #+0]
   1521            book_show++;
   \   00000078   ........           LDR      R0,??DataTable113  ;; book_show
   \   0000007C   001090E5           LDR      R1,[R0, #+0]
   \   00000080   011081E2           ADD      R1,R1,#+1
   \   00000084   001080E5           STR      R1,[R0, #+0]
   1522          }
   \   00000088   1000BDE8           POP      {R4}
   \   0000008C   1EFF2FE1           BX       LR               ;; return
   1523          

   \                                 In segment CODE, align 4, keep-with-next
   1524          void load_bookmark_list()
   1525          {
   1526              int f;
   1527              int fsize;
   1528              FSTATS stat;
   1529              unsigned int ul;
   1530              sprintf(bokmark_list_path,"$s%s",path,"bookmark_list.txt");
   \                     load_bookmark_list:
   \   00000000   B4319FE5           LDR      R3,??load_bookmark_list_0  ;; `?<Constant "bookmark_list.txt">`
   \   00000004   ........           LDR      R2,??DataTable114  ;; path
   \   00000008   ........           LDR      R1,??DataTable115  ;; `?<Constant "$s%s">`
   \   0000000C   70402DE9           PUSH     {R4-R6,LR}
   \   00000010   A8419FE5           LDR      R4,??load_bookmark_list_0+0x4  ;; bokmark_list_path
   \   00000014   2CD04DE2           SUB      SP,SP,#+44
   \   00000018   0400A0E1           MOV      R0,R4
   \   0000001C   160000EF           SWI      +22
   1531              GetFileStats(bokmark_list_path,&stat,&ul);
   \   00000020   0D20A0E1           MOV      R2,SP
   \   00000024   04108DE2           ADD      R1,SP,#+4
   \   00000028   0400A0E1           MOV      R0,R4
   \   0000002C   840000EF           SWI      +132
   1532              if(stat.size>0)
   \   00000030   08009DE5           LDR      R0,[SP, #+8]
   \   00000034   000050E3           CMP      R0,#+0
   \   00000038   5D00000A           BEQ      ??load_bookmark_list_1
   1533              {
   1534                f=fopen(bokmark_list_path,A_ReadOnly+A_BIN,P_READ,&ul);
   \   0000003C   0D30A0E1           MOV      R3,SP
   \   00000040   8020A0E3           MOV      R2,#+128
   \   00000044   801CA0E3           MOV      R1,#+32768
   \   00000048   0400A0E1           MOV      R0,R4
   \   0000004C   0A0000EF           SWI      +10
   1535                fsize=stat.size;
   \   00000050   08609DE5           LDR      R6,[SP, #+8]
   \   00000054   0050A0E1           MOV      R5,R0
   1536                char *p=malloc(fsize);
   \   00000058   0600A0E1           MOV      R0,R6
   \   0000005C   140000EF           SWI      +20
   \   00000060   0040A0E1           MOV      R4,R0
   1537                p[fread(f,p,fsize,&ul)];
   \   00000064   0D30A0E1           MOV      R3,SP
   \   00000068   0620A0E1           MOV      R2,R6
   \   0000006C   0410A0E1           MOV      R1,R4
   \   00000070   0500A0E1           MOV      R0,R5
   \   00000074   0B0000EF           SWI      +11
   1538                fclose(f,&ul);
   \   00000078   0500A0E1           MOV      R0,R5
   1539                serti=0;
   \   0000007C   ........           LDR      R5,??DataTable116  ;; serti
   \   00000080   0D10A0E1           MOV      R1,SP
   \   00000084   0D0000EF           SWI      +13
   \   00000088   0000A0E3           MOV      R0,#+0
   \   0000008C   000085E5           STR      R0,[R5, #+0]
   1540                if(serti<fsize-2) get_bookmark(BM1NAME, BM1FILE, serti, p);
   \   00000090   026046E2           SUB      R6,R6,#+2
   \   00000094   010056E3           CMP      R6,#+1
   \   00000098   040000BA           BLT      ??load_bookmark_list_2
   \   0000009C   ........           LDR      R1,??DataTable117  ;; BM1FILE
   \   000000A0   ........           LDR      R0,??DataTable118  ;; BM1NAME
   \   000000A4   0430A0E1           MOV      R3,R4
   \   000000A8   0020A0E3           MOV      R2,#+0
   \   000000AC   ........           BL       get_bookmark
   1541                if(serti<fsize-2) get_bookmark(BM2NAME, BM2FILE, serti, p);
   \                     ??load_bookmark_list_2:
   \   000000B0   002095E5           LDR      R2,[R5, #+0]
   \   000000B4   060052E1           CMP      R2,R6
   \   000000B8   030000AA           BGE      ??load_bookmark_list_3
   \   000000BC   ........           LDR      R1,??DataTable119  ;; BM2FILE
   \   000000C0   ........           LDR      R0,??DataTable120  ;; BM2NAME
   \   000000C4   0430A0E1           MOV      R3,R4
   \   000000C8   ........           BL       get_bookmark
   1542                if(serti<fsize-2) get_bookmark(BM3NAME, BM3FILE, serti, p);
   \                     ??load_bookmark_list_3:
   \   000000CC   002095E5           LDR      R2,[R5, #+0]
   \   000000D0   060052E1           CMP      R2,R6
   \   000000D4   030000AA           BGE      ??load_bookmark_list_4
   \   000000D8   ........           LDR      R1,??DataTable121  ;; BM3FILE
   \   000000DC   ........           LDR      R0,??DataTable122  ;; BM3NAME
   \   000000E0   0430A0E1           MOV      R3,R4
   \   000000E4   ........           BL       get_bookmark
   1543                if(serti<fsize-2) get_bookmark(BM4NAME, BM4FILE, serti, p);
   \                     ??load_bookmark_list_4:
   \   000000E8   002095E5           LDR      R2,[R5, #+0]
   \   000000EC   060052E1           CMP      R2,R6
   \   000000F0   030000AA           BGE      ??load_bookmark_list_5
   \   000000F4   ........           LDR      R1,??DataTable123  ;; BM4FILE
   \   000000F8   ........           LDR      R0,??DataTable124  ;; BM4NAME
   \   000000FC   0430A0E1           MOV      R3,R4
   \   00000100   ........           BL       get_bookmark
   1544                if(serti<fsize-2) get_bookmark(BM5NAME, BM5FILE, serti, p);
   \                     ??load_bookmark_list_5:
   \   00000104   002095E5           LDR      R2,[R5, #+0]
   \   00000108   060052E1           CMP      R2,R6
   \   0000010C   030000AA           BGE      ??load_bookmark_list_6
   \   00000110   ........           LDR      R1,??DataTable125  ;; BM5FILE
   \   00000114   ........           LDR      R0,??DataTable126  ;; BM5NAME
   \   00000118   0430A0E1           MOV      R3,R4
   \   0000011C   ........           BL       get_bookmark
   1545                if(serti<fsize-2) get_bookmark(BM6NAME, BM6FILE, serti, p);
   \                     ??load_bookmark_list_6:
   \   00000120   002095E5           LDR      R2,[R5, #+0]
   \   00000124   060052E1           CMP      R2,R6
   \   00000128   030000AA           BGE      ??load_bookmark_list_7
   \   0000012C   ........           LDR      R1,??DataTable127  ;; BM6FILE
   \   00000130   ........           LDR      R0,??DataTable128  ;; BM6NAME
   \   00000134   0430A0E1           MOV      R3,R4
   \   00000138   ........           BL       get_bookmark
   1546                if(serti<fsize-2) get_bookmark(BM7NAME, BM7FILE, serti, p);
   \                     ??load_bookmark_list_7:
   \   0000013C   002095E5           LDR      R2,[R5, #+0]
   \   00000140   060052E1           CMP      R2,R6
   \   00000144   030000AA           BGE      ??load_bookmark_list_8
   \   00000148   ........           LDR      R1,??DataTable129  ;; BM7FILE
   \   0000014C   ........           LDR      R0,??DataTable130  ;; BM7NAME
   \   00000150   0430A0E1           MOV      R3,R4
   \   00000154   ........           BL       get_bookmark
   1547                if(serti<fsize-2) get_bookmark(BM8NAME, BM8FILE, serti, p);
   \                     ??load_bookmark_list_8:
   \   00000158   002095E5           LDR      R2,[R5, #+0]
   \   0000015C   060052E1           CMP      R2,R6
   \   00000160   030000AA           BGE      ??load_bookmark_list_9
   \   00000164   ........           LDR      R1,??DataTable131  ;; BM8FILE
   \   00000168   ........           LDR      R0,??DataTable132  ;; BM8NAME
   \   0000016C   0430A0E1           MOV      R3,R4
   \   00000170   ........           BL       get_bookmark
   1548                if(serti<fsize-2) get_bookmark(BM9NAME, BM9FILE, serti, p);
   \                     ??load_bookmark_list_9:
   \   00000174   002095E5           LDR      R2,[R5, #+0]
   \   00000178   060052E1           CMP      R2,R6
   \   0000017C   030000AA           BGE      ??load_bookmark_list_10
   \   00000180   ........           LDR      R1,??DataTable133  ;; BM9FILE
   \   00000184   ........           LDR      R0,??DataTable134  ;; BM9NAME
   \   00000188   0430A0E1           MOV      R3,R4
   \   0000018C   ........           BL       get_bookmark
   1549                if(serti<fsize-2) get_bookmark(BM0NAME, BM0FILE, serti, p);
   \                     ??load_bookmark_list_10:
   \   00000190   002095E5           LDR      R2,[R5, #+0]
   \   00000194   060052E1           CMP      R2,R6
   \   00000198   030000AA           BGE      ??load_bookmark_list_11
   \   0000019C   ........           LDR      R1,??DataTable135  ;; BM0FILE
   \   000001A0   ........           LDR      R0,??DataTable136  ;; BM0NAME
   \   000001A4   0430A0E1           MOV      R3,R4
   \   000001A8   ........           BL       get_bookmark
   1550                mfree(p);
   \                     ??load_bookmark_list_11:
   \   000001AC   0400A0E1           MOV      R0,R4
   \   000001B0   150000EF           SWI      +21
   1551              }
   1552          }
   \                     ??load_bookmark_list_1:
   \   000001B4   2CD08DE2           ADD      SP,SP,#+44       ;; stack cleaning
   \   000001B8   7080BDE8           POP      {R4-R6,PC}       ;; return
   \                     ??load_bookmark_list_0:
   \   000001BC   ........           DC32     `?<Constant "bookmark_list.txt">`
   \   000001C0   ........           DC32     bokmark_list_path
   1553          

   \                                 In segment CODE, align 4, keep-with-next
   1554          void DoSplices(void)
   1555          {
   1556            extern const int SHOW_DAEMONS;
   1557            extern int show_daemons;
   1558            show_daemons=SHOW_DAEMONS;
   \                     DoSplices:
   \   00000000   ........           LDR      R0,??DataTable137  ;; show_daemons
   \   00000004   04119FE5           LDR      R1,??DoSplices_0  ;; SHOW_DAEMONS
   \   00000008   70402DE9           PUSH     {R4-R6,LR}
   \   0000000C   04D04DE2           SUB      SP,SP,#+4
   \   00000010   001091E5           LDR      R1,[R1, #+0]
   \   00000014   001080E5           STR      R1,[R0, #+0]
   1559            LockSched();
   \   00000018   460100EF           SWI      +326
   1560            if (!AddKeybMsgHook_end((void *)my_keyhook))
   \   0000001C   ........           LDR      R0,??DataTable138  ;; my_keyhook
   \   00000020   2C0100EF           SWI      +300
   \   00000024   000050E3           CMP      R0,#+0
   \   00000028   0600001A           BNE      ??DoSplices_1
   1561            {
   1562              ShowMSG(1,(int)"Cant Start Elf!");
   \   0000002C   E0109FE5           LDR      R1,??DoSplices_0+0x4  ;; `?<Constant "Cant Start Elf!">`
   \   00000030   0100A0E3           MOV      R0,#+1
   \   00000034   480100EF           SWI      +328
   1563              SUBPROC((void *)ElfKiller);
   \   00000038   D8009FE5           LDR      R0,??DoSplices_0+0x8  ;; ElfKiller
   \   0000003C   710100EF           SWI      +369
   \   00000040   470100EF           SWI      +327
   \   00000044   7180BDE8           POP      {R0,R4-R6,PC}
   1564            }
   1565            else
   1566            {
   1567              {
   1568                CSM_RAM *icsm=FindCSMbyID(CSM_root()->idle_id);
   1569                memcpy(&icsmd,icsm->constr,sizeof(icsmd));
   \                     ??DoSplices_1:
   \   00000048   CC509FE5           LDR      R5,??DoSplices_0+0xC  ;; icsmd
   1570                old_icsm_onClose=icsmd.onClose;
   1571                old_icsm_onMessage=icsmd.onMessage;
   1572                icsmd.onClose=MyIDLECSM_onClose;
   1573                icsmd.onMessage=MyIDLECSM_onMessage;
   1574                icsm->constr=&icsmd;
   1575              }
   1576              load_icon_list();
   1577              load_bookmark_list();
   1578              under_idle=GetUnderIdleCSM(); //???? idle_dialog
   1579              int f;
   1580            int sz=0;
   1581            unsigned int ul;
   1582            extern const char csmlist_fname[128];
   1583            extern char csm_text[32768];
   1584            if ((f=fopen(csmlist_fname,A_ReadOnly+A_BIN,P_READ,&ul))!=-1)
   \   0000004C   CC609FE5           LDR      R6,??DoSplices_0+0x10  ;; csm_text
   \   00000050   068100EF           SWI      +33030
   \   00000054   040090E5           LDR      R0,[R0, #+4]
   \   00000058   080100EF           SWI      +264
   \   0000005C   0040A0E1           MOV      R4,R0
   \   00000060   081094E5           LDR      R1,[R4, #+8]
   \   00000064   2820A0E3           MOV      R2,#+40
   \   00000068   0500A0E1           MOV      R0,R5
   \   0000006C   1E0100EF           SWI      +286
   \   00000070   ........           LDR      R0,??DataTable139  ;; old_icsm_onClose
   \   00000074   181095E5           LDR      R1,[R5, #+24]
   \   00000078   001080E5           STR      R1,[R0, #+0]
   \   0000007C   ........           LDR      R0,??DataTable140  ;; old_icsm_onMessage
   \   00000080   001095E5           LDR      R1,[R5, #+0]
   \   00000084   001080E5           STR      R1,[R0, #+0]
   \   00000088   94009FE5           LDR      R0,??DoSplices_0+0x14  ;; MyIDLECSM_onClose
   \   0000008C   180085E5           STR      R0,[R5, #+24]
   \   00000090   90009FE5           LDR      R0,??DoSplices_0+0x18  ;; MyIDLECSM_onMessage
   \   00000094   000085E5           STR      R0,[R5, #+0]
   \   00000098   085084E5           STR      R5,[R4, #+8]
   \   0000009C   ........           BL       load_icon_list
   \   000000A0   ........           BL       load_bookmark_list
   \   000000A4   ........           BL       GetUnderIdleCSM
   \   000000A8   7C109FE5           LDR      R1,??DoSplices_0+0x1C  ;; under_idle
   \   000000AC   0040A0E3           MOV      R4,#+0
   \   000000B0   000081E5           STR      R0,[R1, #+0]
   \   000000B4   74009FE5           LDR      R0,??DoSplices_0+0x20  ;; csmlist_fname
   \   000000B8   0D30A0E1           MOV      R3,SP
   \   000000BC   8020A0E3           MOV      R2,#+128
   \   000000C0   801CA0E3           MOV      R1,#+32768
   \   000000C4   0A0000EF           SWI      +10
   \   000000C8   0050A0E1           MOV      R5,R0
   \   000000CC   010075E3           CMN      R5,#+1
   \   000000D0   0A00000A           BEQ      ??DoSplices_2
   1585            {
   1586              sz=fread(f,csm_text,32767,&ul);
   \   000000D4   0D30A0E1           MOV      R3,SP
   \   000000D8   FF20A0E3           MOV      R2,#+255
   \   000000DC   7F2C82E3           ORR      R2,R2,#0x7F00
   \   000000E0   0610A0E1           MOV      R1,R6
   \   000000E4   0B0000EF           SWI      +11
   \   000000E8   0040A0E1           MOV      R4,R0
   1587              fclose(f,&ul);
   \   000000EC   0D10A0E1           MOV      R1,SP
   \   000000F0   0500A0E1           MOV      R0,R5
   \   000000F4   0D0000EF           SWI      +13
   1588            }
   1589            if (sz>=0) csm_text[sz]=0;
   \   000000F8   000054E3           CMP      R4,#+0
   \   000000FC   0100004A           BMI      ??DoSplices_3
   \                     ??DoSplices_2:
   \   00000100   0000A0E3           MOV      R0,#+0
   \   00000104   0600C4E7           STRB     R0,[R4, +R6]
   1590            
   1591            }
   1592            
   1593            UnlockSched();
   \                     ??DoSplices_3:
   \   00000108   470100EF           SWI      +327
   1594          }
   \   0000010C   7180BDE8           POP      {R0,R4-R6,PC}    ;; return
   \                     ??DoSplices_0:
   \   00000110   ........           DC32     SHOW_DAEMONS
   \   00000114   ........           DC32     `?<Constant "Cant Start Elf!">`
   \   00000118   ........           DC32     ElfKiller
   \   0000011C   ........           DC32     icsmd
   \   00000120   ........           DC32     csm_text
   \   00000124   ........           DC32     MyIDLECSM_onClose
   \   00000128   ........           DC32     MyIDLECSM_onMessage
   \   0000012C   ........           DC32     under_idle
   \   00000130   ........           DC32     csmlist_fname
   1595            

   \                                 In segment CODE, align 4, keep-with-next
   1596          void main(void)
   1597          {
   1598            
   1599            mode=0;
   \                     main:
   \   00000000   ........           LDR      R0,??DataTable141  ;; mode
   \   00000004   00402DE9           PUSH     {LR}
   \   00000008   0010A0E3           MOV      R1,#+0
   \   0000000C   001080E5           STR      R1,[R0, #+0]
   1600            if (InitConfig()!=2) GBS_StartTimerProc(&start_tmr,TMR_SECOND(60),DoSplices);
   \   00000010   ........           _BLF     InitConfig,??InitConfig??rA
   \   00000014   020050E3           CMP      R0,#+2
   \   00000018   0600000A           BEQ      ??main_0
   \   0000001C   20209FE5           LDR      R2,??main_1      ;; DoSplices
   \   00000020   ........           LDR      R0,??DataTable142  ;; start_tmr
   \   00000024   C810A0E3           MOV      R1,#+200
   \   00000028   C81D81E3           ORR      R1,R1,#0x3200
   \   0000002C   4D0000EF           SWI      +77
   \   00000030   0040BDE8           POP      {LR}             ;; Pop
   \   00000034   ........           B        init_turnoff     ;; tailcall
   1601            else DoSplices();
   \                     ??main_0:
   \   00000038   ........           BL       DoSplices
   1602            init_turnoff();
   \   0000003C   0040BDE8           POP      {LR}             ;; Pop
   \   00000040   ........           B        init_turnoff     ;; tailcall
   \                     ??main_1:
   \   00000044   ........           DC32     DoSplices
   1603            
   1604          }

   \                                 In segment CODE, align 4, keep-with-next
   \                     ??DataTable0:
   \   00000000   ........           DC32     shutdown1

   \                                 In segment CODE, align 4, keep-with-next
   \                     ??DataTable2:
   \   00000000   ........           DC32     shutdown2

   \                                 In segment CODE, align 4, keep-with-next
   \                     ??DataTable3:
   \   00000000   ........           DC32     reboot1

   \                                 In segment CODE, align 4, keep-with-next
   \                     ??DataTable4:
   \   00000000   ........           DC32     reboot2

   \                                 In segment CODE, align 4, keep-with-next
   \                     ??DataTable5:
   \   00000000   ........           DC32     BM1FILE

   \                                 In segment CODE, align 4, keep-with-next
   \                     ??DataTable6:
   \   00000000   ........           DC32     BM2FILE

   \                                 In segment CODE, align 4, keep-with-next
   \                     ??DataTable7:
   \   00000000   ........           DC32     BM3FILE

   \                                 In segment CODE, align 4, keep-with-next
   \                     ??DataTable8:
   \   00000000   ........           DC32     BM4FILE

   \                                 In segment CODE, align 4, keep-with-next
   \                     ??DataTable9:
   \   00000000   ........           DC32     BM5FILE

   \                                 In segment CODE, align 4, keep-with-next
   \                     ??DataTable10:
   \   00000000   ........           DC32     BM6FILE

   \                                 In segment CODE, align 4, keep-with-next
   \                     ??DataTable11:
   \   00000000   ........           DC32     BM7FILE

   \                                 In segment CODE, align 4, keep-with-next
   \                     ??DataTable12:
   \   00000000   ........           DC32     BM8FILE

   \                                 In segment CODE, align 4, keep-with-next
   \                     ??DataTable13:
   \   00000000   ........           DC32     BM9FILE

   \                                 In segment CODE, align 4, keep-with-next
   \                     ??DataTable14:
   \   00000000   ........           DC32     BM0FILE

   \                                 In segment CODE, align 4, keep-with-next
   \                     ??DataTable16:
   \   00000000   ........           DC32     data4

   \                                 In segment CODE, align 4, keep-with-next
   \                     ??DataTable17:
   \   00000000   ........           DC32     ctasks

   \                                 In segment CODE, align 4, keep-with-next
   \                     ??DataTable20:
   \   00000000   ........           DC32     background_img

   \                                 In segment CODE, align 4, keep-with-next
   \                     ??DataTable21:
   \   00000000   ........           DC32     `?<Constant "%s%s">`

   \                                 In segment CODE, align 4, keep-with-next
   \                     ??DataTable22:
   \   00000000   ........           DC32     path

   \                                 In segment CODE, align 4, keep-with-next
   \                     ??DataTable23:
   \   00000000   ........           DC32     tasks_img

   \                                 In segment CODE, align 4, keep-with-next
   \                     ??DataTable24:
   \   00000000   ........           DC32     bookmarks_img

   \                                 In segment CODE, align 4, keep-with-next
   \                     ??DataTable25:
   \   00000000   ........           DC32     screen2

   \                                 In segment CODE, align 4, keep-with-next
   \                     ??DataTable26:
   \   00000000   ........           DC32     `?<Constant "background.png">`

   \                                 In segment CODE, align 4, keep-with-next
   \                     ??DataTable27:
   \   00000000   ........           DC32     `?<Constant "cursor.png">`

   \                                 In segment CODE, align 4, keep-with-next
   \                     ??DataTable28:
   \   00000000   ........           DC32     cursor_img

   \                                 In segment CODE, align 4, keep-with-next
   \                     ??DataTable29:
   \   00000000   ........           DC32     `?<Constant "selection.png">`

   \                                 In segment CODE, align 4, keep-with-next
   \                     ??DataTable30:
   \   00000000   ........           DC32     selection_img

   \                                 In segment CODE, align 4, keep-with-next
   \                     ??DataTable31:
   \   00000000   ........           DC32     `?<Constant "tasks.png">`

   \                                 In segment CODE, align 4, keep-with-next
   \                     ??DataTable32:
   \   00000000   ........           DC32     `?<Constant "bookmarks.png">`

   \                                 In segment CODE, align 4, keep-with-next
   \                     ??DataTable33:
   \   00000000   ........           DC32     total_d

   \                                 In segment CODE, align 4, keep-with-next
   \                     ??DataTable34:
   \   00000000   ........           DC32     draw_rec

   \                                 In segment CODE, align 4, keep-with-next
   \                     ??DataTable35:
   \   00000000   ........           DC32     nltop

   \                                 In segment CODE, align 4, keep-with-next
   \                     ??DataTable36:
   \   00000000   ........           DC32     start_tmr

   \                                 In segment CODE, align 4, keep-with-next
   \                     ??DataTable37:
   \   00000000   ........           DC32     shutd

   \                                 In segment CODE, align 4, keep-with-next
   \                     ??DataTable38:
   \   00000000   ........           DC32     icon_text

   \                                 In segment CODE, align 4, keep-with-next
   \                     ??DataTable39:
   \   00000000   ........           DC32     book_show

   \                                 In segment CODE, align 4, keep-with-next
   \                     ??DataTable40:
   \   00000000   ........           DC32     BM1NAME

   \                                 In segment CODE, align 4, keep-with-next
   \                     ??DataTable41:
   \   00000000   ........           DC32     BM2NAME

   \                                 In segment CODE, align 4, keep-with-next
   \                     ??DataTable42:
   \   00000000   ........           DC32     BM3NAME

   \                                 In segment CODE, align 4, keep-with-next
   \                     ??DataTable43:
   \   00000000   ........           DC32     BM4NAME

   \                                 In segment CODE, align 4, keep-with-next
   \                     ??DataTable44:
   \   00000000   ........           DC32     BM5NAME

   \                                 In segment CODE, align 4, keep-with-next
   \                     ??DataTable45:
   \   00000000   ........           DC32     BM6NAME

   \                                 In segment CODE, align 4, keep-with-next
   \                     ??DataTable46:
   \   00000000   ........           DC32     BM7NAME

   \                                 In segment CODE, align 4, keep-with-next
   \                     ??DataTable47:
   \   00000000   ........           DC32     BM8NAME

   \                                 In segment CODE, align 4, keep-with-next
   \                     ??DataTable48:
   \   00000000   ........           DC32     BM9NAME

   \                                 In segment CODE, align 4, keep-with-next
   \                     ??DataTable49:
   \   00000000   ........           DC32     BM0NAME

   \                                 In segment CODE, align 4, keep-with-next
   \                     ??DataTable51:
   \   00000000   ........           DC32     shutdown1

   \                                 In segment CODE, align 4, keep-with-next
   \                     ??DataTable52:
   \   00000000   ........           DC32     reboot2

   \                                 In segment CODE, align 4, keep-with-next
   \                     ??DataTable53:
   \   00000000   ........           DC32     shutdown2

   \                                 In segment CODE, align 4, keep-with-next
   \                     ??DataTable54:
   \   00000000   ........           DC32     reboot1

   \                                 In segment CODE, align 4, keep-with-next
   \                     ??DataTable61:
   \   00000000   ........           DC32     book_show

   \                                 In segment CODE, align 4, keep-with-next
   \                     ??DataTable72:
   \   00000000   ........           DC32     nltop

   \                                 In segment CODE, align 4, keep-with-next
   \                     ??DataTable75:
   \   00000000   ........           DC32     redrit

   \                                 In segment CODE, align 4, keep-with-next
   \                     ??DataTable76:
   \   00000000   ........           DC32     start_tmr

   \                                 In segment CODE, align 4, keep-with-next
   \                     ??DataTable81:
   \   00000000   ........           DC32     shutd

   \                                 In segment CODE, align 4, keep-with-next
   \                     ??DataTable82:
   \   00000000   ........           DC32     data4

   \                                 In segment CODE, align 4, keep-with-next
   \                     ??DataTable83:
   \   00000000   ........           DC32     show_daemons

   \                                 In segment CODE, align 4, keep-with-next
   \                     ??DataTable87:
   \   00000000   ........           DC32     pos

   \                                 In segment CODE, align 4, keep-with-next
   \                     ??DataTable88:
   \   00000000   ........           DC32     move_skip

   \                                 In segment CODE, align 4, keep-with-next
   \                     ??DataTable91:
   \   00000000   ........           DC32     time_not

   \                                 In segment CODE, align 4, keep-with-next
   \                     ??DataTable92:
   \   00000000   ........           DC32     sm

   \                                 In segment CODE, align 4, keep-with-next
   \                     ??DataTable93:
   \   00000000   ........           DC32     forward

   \                                 In segment CODE, align 4, keep-with-next
   \                     ??DataTable97:
   \   00000000   ........           DC32     task_list

   \                                 In segment CODE, align 4, keep-with-next
   \                     ??DataTable99:
   \   00000000   ........           DC32     MAINCSM_ID

   \                                 In segment CODE, align 4, keep-with-next
   \                     ??DataTable100:
   \   00000000   ........           DC32     total_d

   \                                 In segment CODE, align 4, keep-with-next
   \                     ??DataTable101:
   \   00000000   ........           DC32     total_pos

   \                                 In segment CODE, align 4, keep-with-next
   \                     ??DataTable103:
   \   00000000   ........           DC32     successed_config_filename

   \                                 In segment CODE, align 4, keep-with-next
   \                     ??DataTable104:
   \   00000000   ........           DC32     MAINCSM_ID

   \                                 In segment CODE, align 4, keep-with-next
   \                     ??DataTable107:
   \   00000000   ........           DC32     ELF_BEGIN

   \                                 In segment CODE, align 4, keep-with-next
   \                     ??DataTable111:
   \   00000000   ........           DC32     icon_text

   \                                 In segment CODE, align 4, keep-with-next
   \                     ??DataTable113:
   \   00000000   ........           DC32     book_show

   \                                 In segment CODE, align 4, keep-with-next
   \                     ??DataTable114:
   \   00000000   ........           DC32     path

   \                                 In segment CODE, align 4, keep-with-next
   \                     ??DataTable115:
   \   00000000   ........           DC32     `?<Constant "$s%s">`

   \                                 In segment CODE, align 4, keep-with-next
   \                     ??DataTable116:
   \   00000000   ........           DC32     serti

   \                                 In segment CODE, align 4, keep-with-next
   \                     ??DataTable117:
   \   00000000   ........           DC32     BM1FILE

   \                                 In segment CODE, align 4, keep-with-next
   \                     ??DataTable118:
   \   00000000   ........           DC32     BM1NAME

   \                                 In segment CODE, align 4, keep-with-next
   \                     ??DataTable119:
   \   00000000   ........           DC32     BM2FILE

   \                                 In segment CODE, align 4, keep-with-next
   \                     ??DataTable120:
   \   00000000   ........           DC32     BM2NAME

   \                                 In segment CODE, align 4, keep-with-next
   \                     ??DataTable121:
   \   00000000   ........           DC32     BM3FILE

   \                                 In segment CODE, align 4, keep-with-next
   \                     ??DataTable122:
   \   00000000   ........           DC32     BM3NAME

   \                                 In segment CODE, align 4, keep-with-next
   \                     ??DataTable123:
   \   00000000   ........           DC32     BM4FILE

   \                                 In segment CODE, align 4, keep-with-next
   \                     ??DataTable124:
   \   00000000   ........           DC32     BM4NAME

   \                                 In segment CODE, align 4, keep-with-next
   \                     ??DataTable125:
   \   00000000   ........           DC32     BM5FILE

   \                                 In segment CODE, align 4, keep-with-next
   \                     ??DataTable126:
   \   00000000   ........           DC32     BM5NAME

   \                                 In segment CODE, align 4, keep-with-next
   \                     ??DataTable127:
   \   00000000   ........           DC32     BM6FILE

   \                                 In segment CODE, align 4, keep-with-next
   \                     ??DataTable128:
   \   00000000   ........           DC32     BM6NAME

   \                                 In segment CODE, align 4, keep-with-next
   \                     ??DataTable129:
   \   00000000   ........           DC32     BM7FILE

   \                                 In segment CODE, align 4, keep-with-next
   \                     ??DataTable130:
   \   00000000   ........           DC32     BM7NAME

   \                                 In segment CODE, align 4, keep-with-next
   \                     ??DataTable131:
   \   00000000   ........           DC32     BM8FILE

   \                                 In segment CODE, align 4, keep-with-next
   \                     ??DataTable132:
   \   00000000   ........           DC32     BM8NAME

   \                                 In segment CODE, align 4, keep-with-next
   \                     ??DataTable133:
   \   00000000   ........           DC32     BM9FILE

   \                                 In segment CODE, align 4, keep-with-next
   \                     ??DataTable134:
   \   00000000   ........           DC32     BM9NAME

   \                                 In segment CODE, align 4, keep-with-next
   \                     ??DataTable135:
   \   00000000   ........           DC32     BM0FILE

   \                                 In segment CODE, align 4, keep-with-next
   \                     ??DataTable136:
   \   00000000   ........           DC32     BM0NAME

   \                                 In segment CODE, align 4, keep-with-next
   \                     ??DataTable137:
   \   00000000   ........           DC32     show_daemons

   \                                 In segment CODE, align 4, keep-with-next
   \                     ??DataTable138:
   \   00000000   ........           DC32     my_keyhook

   \                                 In segment CODE, align 4, keep-with-next
   \                     ??DataTable139:
   \   00000000   ........           DC32     old_icsm_onClose

   \                                 In segment CODE, align 4, keep-with-next
   \                     ??DataTable140:
   \   00000000   ........           DC32     old_icsm_onMessage

   \                                 In segment CODE, align 4, keep-with-next
   \                     ??DataTable141:
   \   00000000   ........           DC32     mode

   \                                 In segment CODE, align 4, keep-with-next
   \                     ??DataTable142:
   \   00000000   ........           DC32     start_tmr

   \                                 In segment DATA_ID, align 4, align-sorted
   \                     `?<Initializer for time_not>`:
   \   00000000   01000000           DC32 1

   \                                 In segment DATA_ID, align 4, align-sorted
   \                     `?<Initializer for screen2>`:
   \   00000000   00000000           DC16 0, 0
   \   00000004   08000000....       DC32 8, `?<Constant "">`
   \              ....        

   \                                 In segment DATA_ID, align 4, align-sorted
   \                     `?<Initializer for task_list>`:
   \   00000000   01000000           DC32 1

   \                                 In segment DATA_ID, align 4, align-sorted
   \                     `?<Initializer for pos>`:
   \   00000000   01000000           DC32 1

   \                                 In segment DATA_ID, align 4, align-sorted
   \                     `?<Initializer for total_pos>`:
   \   00000000   01000000           DC32 1

   \                                 In segment DATA_ID, align 4, align-sorted
   \                     `?<Initializer for init_rec>`:
   \   00000000   01000000           DC32 1

   \                                 In segment DATA_C, align 1, align-sorted
   \                     `?<Constant "||">`:
   \   00000000   7C7C00             DC8 "||"

   \                                 In segment DATA_C, align 4, align-sorted
   \   00000000   4D433A00           DC8 "MC:"

   \                                 In segment DATA_C, align 1, align-sorted
   \   00000000   4D4300             DC8 "MC"

   \                                 In segment DATA_C, align 4, align-sorted
   \                     `?<Constant "SieJC">`:
   \   00000000   5369654A4300       DC8 "SieJC"
   \   00000006   0000               DC8 0, 0

   \                                 In segment DATA_C, align 4, align-sorted
   \                     `?<Constant "NATICQ">`:
   \   00000000   4E4154494351       DC8 "NATICQ"
   \              00          
   \   00000007   00                 DC8 0

   \                                 In segment DATA_C, align 4, align-sorted
   \                     `?<Constant "icon_list.txt">`:
   \   00000000   69636F6E5F6C       DC8 "icon_list.txt"
   \              6973742E7478
   \              7400        
   \   0000000E   0000               DC8 0, 0

   \                                 In segment DATA_C, align 4, align-sorted
   \                     `?<Constant "bookmarks.png">`:
   \   00000000   626F6F6B6D61       DC8 "bookmarks.png"
   \              726B732E706E
   \              6700        
   \   0000000E   0000               DC8 0, 0

   \                                 In segment DATA_C, align 4, align-sorted
   \                     `?<Constant "tasks.png">`:
   \   00000000   7461736B732E       DC8 "tasks.png"
   \              706E6700    
   \   0000000A   0000               DC8 0, 0

   \                                 In segment DATA_C, align 4, align-sorted
   \                     `?<Constant "cursor.png">`:
   \   00000000   637572736F72       DC8 "cursor.png"
   \              2E706E6700  
   \   0000000B   00                 DC8 0

   \                                 In segment DATA_C, align 4, align-sorted
   \                     `?<Constant "background.png">`:
   \   00000000   6261636B6772       DC8 "background.png"
   \              6F756E642E70
   \              6E6700      
   \   0000000F   00                 DC8 0

   \                                 In segment DATA_C, align 4, align-sorted
   \                     `?<Constant "Restarting......">`:
   \   00000000   526573746172       DC8 "Restarting......"
   \              74696E672E2E
   \              2E2E2E2E00  
   \   00000011   000000             DC8 0, 0, 0

   \                                 In segment DATA_C, align 4, align-sorted
   \                     `?<Constant "Shut down......">`:
   \   00000000   536875742064       DC8 "Shut down......"
   \              6F776E2E2E2E
   \              2E2E2E00    

   \                                 In segment DATA_C, align 4, align-sorted
   \                     `?<Constant "...............[OK]">`:
   \   00000000   2E2E2E2E2E2E       DC8 "...............[OK]"
   \              2E2E2E2E2E2E
   \              2E2E2E5B4F4B
   \              5D00        

   \                                 In segment DATA_C, align 4, align-sorted
   \   00000000   424D3A00           DC8 "BM:"

   \                                 In segment DATA_C, align 4, align-sorted
   \                     `?<Constant "Closing...">`:
   \   00000000   436C6F73696E       DC8 "Closing..."
   \              672E2E2E00  
   \   0000000B   00                 DC8 0

   \                                 In segment DATA_C, align 4, align-sorted
   \                     `?<Constant "reboot2.png">`:
   \   00000000   7265626F6F74       DC8 "reboot2.png"
   \              322E706E6700

   \                                 In segment DATA_C, align 4, align-sorted
   \                     `?<Constant "reboot1.png">`:
   \   00000000   7265626F6F74       DC8 "reboot1.png"
   \              312E706E6700

   \                                 In segment DATA_C, align 4, align-sorted
   \                     `?<Constant "shutdown2.png">`:
   \   00000000   73687574646F       DC8 "shutdown2.png"
   \              776E322E706E
   \              6700        
   \   0000000E   0000               DC8 0, 0

   \                                 In segment DATA_C, align 4, align-sorted
   \                     `?<Constant "shutdown1.png">`:
   \   00000000   73687574646F       DC8 "shutdown1.png"
   \              776E312E706E
   \              6700        
   \   0000000E   0000               DC8 0, 0

   \                                 In segment DATA_C, align 4, align-sorted
   \                     `?<Constant "%s%s">`:
   \   00000000   2573257300         DC8 "%s%s"
   \   00000005   000000             DC8 0, 0, 0

   \                                 In segment DATA_C, align 1, align-sorted
   \                     `?<Constant "">`:
   \   00000000   00                 DC8 ""

   \                                 In segment DATA_C, align 4, align-sorted
   \                     `?<Constant "Cant Start Elf!">`:
   \   00000000   43616E742053       DC8 "Cant Start Elf!"
   \              746172742045
   \              6C662100    

   \                                 In segment DATA_C, align 4, align-sorted
   \                     `?<Constant "bookmark_list.txt">`:
   \   00000000   626F6F6B6D61       DC8 "bookmark_list.txt"
   \              726B5F6C6973
   \              742E74787400
   \   00000012   0000               DC8 0, 0

   \                                 In segment DATA_C, align 4, align-sorted
   \                     `?<Constant "selection.png">`:
   \   00000000   73656C656374       DC8 "selection.png"
   \              696F6E2E706E
   \              6700        
   \   0000000E   0000               DC8 0, 0

   \                                 In segment DATA_C, align 4, align-sorted
   \                     `?<Constant "$s%s">`:
   \   00000000   2473257300         DC8 "$s%s"
   \   00000005   000000             DC8 0, 0, 0

   \                                 In segment DATA_C, align 4, align-sorted
   \                     `?<Constant "XTask config updated!">`:
   \   00000000   585461736B20       DC8 "XTask config updated!"
   \              636F6E666967
   \              207570646174
   \              65642100    
   \   00000016   0000               DC8 0, 0

   \                                 In segment DATA_C, align 4, align-sorted
   \                     `?<Constant "%08X">`:
   \   00000000   2530385800         DC8 "%08X"
   \   00000005   000000             DC8 0, 0, 0

   \                                 In segment DATA_C, align 4, align-sorted
   \                     `?<Constant "xtask 3 mod">`:
   \   00000000   787461736B20       DC8 "xtask 3 mod"
   \              33206D6F6400

   \                                 In segment DATA_C, align 4, align-sorted
   \                     `?<Constant "%02d:%02d:%02d">`:
   \   00000000   253032643A25       DC8 "%02d:%02d:%02d"
   \              3032643A2530
   \              326400      
   \   0000000F   00                 DC8 0

   \                                 In segment DATA_C, align 4, align-sorted
   \   00000000   25642500           DC8 "%d%"

   \                                 In segment DATA_C, align 4, align-sorted
   \                     `?<Constant "Ram:%dKb">`:
   \   00000000   52616D3A2564       DC8 "Ram:%dKb"
   \              4B6200      
   \   00000009   000000             DC8 0, 0, 0

   \                                 In segment DATA_C, align 4, align-sorted
   \                     `?<Constant "T:%d">`:
   \   00000000   543A256400         DC8 "T:%d"
   \   00000005   000000             DC8 0, 0, 0

   \                                 In segment DATA_C, align 4, align-sorted
   \                     `?<Constant "Tasks:%d">`:
   \   00000000   5461736B733A       DC8 "Tasks:%d"
   \              256400      
   \   00000009   000000             DC8 0, 0, 0

   Maximum stack usage in bytes:

     Function            CSTACK
     --------            ------
     DoScreen2              20
     DoSplices              20
     DrawProgress           72
     DrwImg3                64
     ElfKiller               4
     GetUnderIdleCSM        12
     MyIDLECSM_onClose       8
     MyIDLECSM_onMessage    40
     OnKey                  36
     OnRedraw              128
     SearchIcon            288
     ShowMenu               52
     Start_bookmark          8
     UpdateCSMname           8
     get_bookmark            4
     init_turnoff           12
     load_bookmark_list     60
     load_icon_list         60
     main                    4
     maincsm_onclose         0
     maincsm_oncreate       20
     maincsm_onmessage       0
     method8                 0
     method9                 0
     my_keyhook             40
     onClose                 8
     onCreate                0
     onFocus                 0
     onUnfocus               0
     redrit                  4
     strcmp_nocase           0
     task_list3             28


   Segment part sizes:

     Function/Label                 Bytes
     --------------                 -----
     background_img                    64
     cursor_img                        64
     icon_list_path                    64
     bokmark_list_path                 64
     selection_img                     64
     tasks_img                         64
     bookmarks_img                     64
     shutdown1                        128
     shutdown2                        128
     reboot1                          128
     reboot2                          128
     book_show                          4
     time_not                           4
     start_tmr                         16
     init_turnoff                     116
     BM1NAME                           32
     BM1FILE                          128
     BM2NAME                           32
     BM2FILE                          128
     BM3NAME                           32
     BM3FILE                          128
     BM4NAME                           32
     BM4FILE                          128
     BM5NAME                           32
     BM5FILE                          128
     BM6NAME                           32
     BM6FILE                          128
     BM7NAME                           32
     BM7FILE                          128
     BM8NAME                           32
     BM8FILE                          128
     BM9NAME                           32
     BM9FILE                          128
     BM0NAME                           32
     BM0FILE                          128
     Start_bookmark                   264
     screen2                           12
     tasks                              4
     icon_text                      32768
     task_list                          4
     DrwImg3                           92
     DoScreen2                         76
     minus11                            4
     maincsm_name_body                280
     MAINCSM_ID                         4
     pos                                4
     total_pos                          4
     total_d                            4
     move_skip                          4
     sm                                 4
     forward                            4
     halt                               4
     shutd                              4
     logout                             4
     data4                              4
     data5                              4
     draw_rec                           4
     this_rec                           4
     DrawProgress                     656
     zin                                4
     init_rec                           4
     task_list3                       428
     SearchIcon                       368
     refresh                            4
     OnRedraw                        4920
     onCreate                          12
     onClose                           48
     onFocus                           12
     onUnfocus                         20
     closing                            4
     show_daemons                       4
     redrit                            12
     OnKey                           1620
     ElfKiller                         24
     method8                            8
     method9                            8
     gui_methods                       44
     Canvas                             8
     maincsm_oncreate                 132
     maincsm_onclose                    4
     maincsm_onmessage                 64
     MAINCSM                           60
     UpdateCSMname                     48
     GetUnderIdleCSM                  156
     SHOW_LOCK                          4
     icsmd                             40
     old_icsm_onMessage                 4
     old_icsm_onClose                   4
     under_idle                         4
     mode                               4
     mode_red                           4
     mode_enter                         4
     ShowMenu                         152
     my_keyhook                      1032
     callhide_mode                      4
     ??strcmp_nocase_0                 76
     my_ipc_name                        8
     MyIDLECSM_onMessage              480
     MyIDLECSM_onClose                 56
     load_icon_list                   180
     serti                              4
     get_bookmark                     144
     load_bookmark_list               452
     DoSplices                        308
     main                              72
     ??DataTable0                       4
     ??DataTable2                       4
     ??DataTable3                       4
     ??DataTable4                       4
     ??DataTable5                       4
     ??DataTable6                       4
     ??DataTable7                       4
     ??DataTable8                       4
     ??DataTable9                       4
     ??DataTable10                      4
     ??DataTable11                      4
     ??DataTable12                      4
     ??DataTable13                      4
     ??DataTable14                      4
     ??DataTable16                      4
     ??DataTable17                      4
     ??DataTable20                      4
     ??DataTable21                      4
     ??DataTable22                      4
     ??DataTable23                      4
     ??DataTable24                      4
     ??DataTable25                      4
     ??DataTable26                      4
     ??DataTable27                      4
     ??DataTable28                      4
     ??DataTable29                      4
     ??DataTable30                      4
     ??DataTable31                      4
     ??DataTable32                      4
     ??DataTable33                      4
     ??DataTable34                      4
     ??DataTable35                      4
     ??DataTable36                      4
     ??DataTable37                      4
     ??DataTable38                      4
     ??DataTable39                      4
     ??DataTable40                      4
     ??DataTable41                      4
     ??DataTable42                      4
     ??DataTable43                      4
     ??DataTable44                      4
     ??DataTable45                      4
     ??DataTable46                      4
     ??DataTable47                      4
     ??DataTable48                      4
     ??DataTable49                      4
     ??DataTable51                      4
     ??DataTable52                      4
     ??DataTable53                      4
     ??DataTable54                      4
     ??DataTable61                      4
     ??DataTable72                      4
     ??DataTable75                      4
     ??DataTable76                      4
     ??DataTable81                      4
     ??DataTable82                      4
     ??DataTable83                      4
     ??DataTable87                      4
     ??DataTable88                      4
     ??DataTable91                      4
     ??DataTable92                      4
     ??DataTable93                      4
     ??DataTable97                      4
     ??DataTable99                      4
     ??DataTable100                     4
     ??DataTable101                     4
     ??DataTable103                     4
     ??DataTable104                     4
     ??DataTable107                     4
     ??DataTable111                     4
     ??DataTable113                     4
     ??DataTable114                     4
     ??DataTable115                     4
     ??DataTable116                     4
     ??DataTable117                     4
     ??DataTable118                     4
     ??DataTable119                     4
     ??DataTable120                     4
     ??DataTable121                     4
     ??DataTable122                     4
     ??DataTable123                     4
     ??DataTable124                     4
     ??DataTable125                     4
     ??DataTable126                     4
     ??DataTable127                     4
     ??DataTable128                     4
     ??DataTable129                     4
     ??DataTable130                     4
     ??DataTable131                     4
     ??DataTable132                     4
     ??DataTable133                     4
     ??DataTable134                     4
     ??DataTable135                     4
     ??DataTable136                     4
     ??DataTable137                     4
     ??DataTable138                     4
     ??DataTable139                     4
     ??DataTable140                     4
     ??DataTable141                     4
     ??DataTable142                     4
     ?<Initializer for time_not>        4
     ?<Initializer for screen2>        12
     ?<Initializer for task_list>       4
     ?<Initializer for pos>             4
     ?<Initializer for total_pos>       4
     ?<Initializer for init_rec>        4
     ?<Constant "||">                   3
     ?<Constant "MC:">                  4
     ?<Constant "MC">                   3
     ?<Constant "SieJC">                8
     ?<Constant "NATICQ">               8
     ?<Constant "icon_list.txt">       16
     ?<Constant "bookmarks.png">       16
     ?<Constant "tasks.png">           12
     ?<Constant "cursor.png">          12
     ?<Constant "background.png">      16
     ?<Constant "Restarting......">    20
     ?<Constant "Shut down......">     16
     ?<Constant "...............[OK]">
                                       20
     ?<Constant "BM:">                  4
     ?<Constant "Closing...">          12
     ?<Constant "reboot2.png">         12
     ?<Constant "reboot1.png">         12
     ?<Constant "shutdown2.png">       16
     ?<Constant "shutdown1.png">       16
     ?<Constant "%s%s">                 8
     ?<Constant "">                     1
     ?<Constant "Cant Start Elf!">     16
     ?<Constant "bookmark_list.txt">
                                       20
     ?<Constant "selection.png">       16
     ?<Constant "$s%s">                 8
     ?<Constant "XTask config updated!">
                                       24
     ?<Constant "%08X">                 8
     ?<Constant "xtask 3 mod">         12
     ?<Constant "%02d:%02d:%02d">      16
     ?<Constant "%d%">                  4
     ?<Constant "Ram:%dKb">            12
     ?<Constant "T:%d">                 8
     ?<Constant "Tasks:%d">            12
      Others                          272

 
 12 688 bytes in segment CODE
    515 bytes in segment DATA_C
     32 bytes in segment DATA_I
     32 bytes in segment DATA_ID
 35 772 bytes in segment DATA_Z
     24 bytes in segment INITTAB
 
 12 440 bytes of CODE  memory (+ 272 bytes shared)
    547 bytes of CONST memory
 35 804 bytes of DATA  memory

Errors: none
Warnings: none
