##############################################################################
#                                                                            #
# IAR ARM ANSI C/C++ Compiler V4.42A/W32 EVALUATION    21/Dec/2010  19:11:44 #
# Copyright 1999-2005 IAR Systems. All rights reserved.                      #
#                                                                            #
#    Cpu mode        =  interwork                                            #
#    Endian          =  little                                               #
#    Stack alignment =  4                                                    #
#    Source file     =  C:\arm\elfpack_mod_last\main\dhs.c                   #
#    Command line    =  C:\arm\elfpack_mod_last\main\dhs.c -D NEWSGOLD -D    #
#                       ELKA -lCN C:\arm\elfpack_mod_last\Other\EL71sw45\Lis #
#                       t\ -lb C:\arm\elfpack_mod_last\Other\EL71sw45\List\  #
#                       -o C:\arm\elfpack_mod_last\Other\EL71sw45\Obj\ -s9   #
#                       --no_unroll --cpu_mode thumb --endian little --cpu   #
#                       ARM926EJ-S --stack_align 4 --interwork -e --fpu      #
#                       None -I "C:\arm2\Embedded Workbench 4.0              #
#                       Evaluation\ARM\INC\" --inline_threshold=2            #
#    List file       =  C:\arm\elfpack_mod_last\Other\EL71sw45\List\dhs.lst  #
#    Object file     =  C:\arm\elfpack_mod_last\Other\EL71sw45\Obj\dhs.r79   #
#                                                                            #
#                                                                            #
##############################################################################

C:\arm\elfpack_mod_last\main\dhs.c
      1          //Draw Handler System
      2          
      3          #include "..\..\inc\swilib.h"
      4          
      5          #include "dhs.h"
      6          

   \                                 In segment DATA_Z, align 4, align-sorted
      7          DHS_TOP *dhs = 0;
   \                     dhs:
   \   00000000                      DS8 4
      8          int priodraw = 0;
   \                     priodraw:
   \   00000004                      DS8 4
      9          

   \                                 In segment CODE, align 4, keep-with-next
     10          __arm void DHS_init()
     11          {
   \                     DHS_init:
   \   00000000   10402DE9           PUSH     {R4,LR}
     12           LockSched();
     13           dhs = malloc(sizeof(DHS_TOP));
   \   00000004   ........           LDR      R4,??DataTable13  ;; dhs
   \   00000008   460100EF           SWI      +326
   \   0000000C   1000A0E3           MOV      R0,#+16
   \   00000010   140000EF           SWI      +20
   \   00000014   000084E5           STR      R0,[R4, #+0]
     14           if (dhs)
   \   00000018   000050E3           CMP      R0,#+0
   \   0000001C   0A00000A           BEQ      ??DHS_init_0
     15            {
     16             dhs->first   = DHS_FIRST_ITEM;
     17             dhs->count   = DHS_ZERO;
     18             dhs->unlock  = DHS_UNLOCKDVALUE;
   \   00000020   ........           LDR      R2,??DataTable9  ;; 0xffffffffdb6db6db
   \   00000024   D010A0E3           MOV      R1,#+208
   \   00000028   BA1C81E3           ORR      R1,R1,#0xBA00
   \   0000002C   001080E5           STR      R1,[R0, #+0]
   \   00000030   0010A0E3           MOV      R1,#+0
   \   00000034   041080E5           STR      R1,[R0, #+4]
   \   00000038   082080E5           STR      R2,[R0, #+8]
     19             dhs->last    = DHS_LAST_ITEM;
   \   0000003C   D120A0E3           MOV      R2,#+209
   \   00000040   BA2C82E3           ORR      R2,R2,#0xBA00
   \   00000044   0C2080E5           STR      R2,[R0, #+12]
     20             priodraw     = DHS_ZERO;
   \   00000048   041084E5           STR      R1,[R4, #+4]
     21            }
     22            UnlockSched();
   \                     ??DHS_init_0:
   \   0000004C   470100EF           SWI      +327
     23          }
   \   00000050   1080BDE8           POP      {R4,PC}          ;; return
     24          

   \                                 In segment CODE, align 4, keep-with-next
     25          __arm void DHS_kill()
     26          {
   \                     DHS_kill:
   \   00000000   70402DE9           PUSH     {R4-R6,LR}
     27           if (dhs)
   \   00000004   ........           LDR      R4,??DataTable13  ;; dhs
   \   00000008   000094E5           LDR      R0,[R4, #+0]
   \   0000000C   000050E3           CMP      R0,#+0
   \   00000010   7080BD08           POPEQ    {R4-R6,PC}
     28            {
     29             if (dhs->first != DHS_FIRST_ITEM)
   \   00000014   000090E5           LDR      R0,[R0, #+0]
   \   00000018   D010A0E3           MOV      R1,#+208
   \   0000001C   BA1C81E3           ORR      R1,R1,#0xBA00
   \   00000020   010050E1           CMP      R0,R1
   \   00000024   0D00000A           BEQ      ??DHS_kill_0
     30              {
     31               DHS_lockDraw_ep(1);
   \   00000028   0100A0E3           MOV      R0,#+1
   \   0000002C   ........           BLX      DHS_lockDraw_ep
     32               DHS_ITEM *dhsi = dhs->first;
   \   00000030   000094E5           LDR      R0,[R4, #+0]
   \   00000034   D160A0E3           MOV      R6,#+209
   \   00000038   005090E5           LDR      R5,[R0, #+0]
   \   0000003C   BA6C86E3           ORR      R6,R6,#0xBA00
     33               do
     34               {
     35                if (dhsi != DHS_FIRST_ITEM || dhsi != DHS_LAST_ITEM)
     36                 {
     37                   DHS_ITEM *dhs_r = dhsi;
     38                   zeromem((void *)dhs_r, sizeof(DHS_ITEM));
   \                     ??DHS_kill_1:
   \   00000040   0C10A0E3           MOV      R1,#+12
   \   00000044   0500A0E1           MOV      R0,R5
   \   00000048   1D0100EF           SWI      +285
     39                   mfree(dhs_r);
   \   0000004C   0500A0E1           MOV      R0,R5
   \   00000050   150000EF           SWI      +21
     40                   dhsi = dhsi->next;
   \   00000054   085095E5           LDR      R5,[R5, #+8]
     41                 }
     42               }
     43               while (dhsi == DHS_LAST_ITEM);
   \   00000058   060055E1           CMP      R5,R6
   \   0000005C   F7FFFF0A           BEQ      ??DHS_kill_1
     44               zeromem((void *)dhs, sizeof(DHS_TOP));
   \                     ??DHS_kill_0:
   \   00000060   000094E5           LDR      R0,[R4, #+0]
   \   00000064   1010A0E3           MOV      R1,#+16
   \   00000068   1D0100EF           SWI      +285
     45               mfree(dhs);
   \   0000006C   000094E5           LDR      R0,[R4, #+0]
   \   00000070   150000EF           SWI      +21
     46               dhs = DHS_ZERO;
   \   00000074   0000A0E3           MOV      R0,#+0
   \   00000078   000084E5           STR      R0,[R4, #+0]
     47               priodraw = DHS_ZERO;
   \   0000007C   040084E5           STR      R0,[R4, #+4]
     48              }
     49              else
     50                {
     51                 zeromem((void *)dhs, sizeof(DHS_TOP));
     52                 mfree(dhs);
     53                 dhs = DHS_ZERO;
     54                 priodraw = DHS_ZERO;
     55                }
     56            }
     57          }
   \   00000080   7080BDE8           POP      {R4-R6,PC}       ;; return
     58          

   \                                 In segment CODE, align 4, keep-with-next
     59          __thumb void DHS_drawItems(LCDLAYER *layer)
     60          {
   \                     DHS_drawItems:
   \   00000000   F0B5               PUSH     {R4-R7,LR}
     61            if (dhs)
   \   00000002   ....               LDR      R5,??DataTable13  ;; dhs
   \   00000004   0400               MOVS     R4,R0
   \   00000006   2868               LDR      R0,[R5, #+0]
   \   00000008   0028               CMP      R0,#+0
   \   0000000A   15D0               BEQ      ??DHS_drawItems_0
     62              {
     63               if (dhs->unlock == DHS_UNLOCKDVALUE) 
   \   0000000C   8168               LDR      R1,[R0, #+8]
   \   0000000E   ....               LDR      R2,??DataTable9  ;; 0xffffffffdb6db6db
   \   00000010   9142               CMP      R1,R2
   \   00000012   0CD1               BNE      ??DHS_drawItems_1
     64                {
     65                 if (dhs->first != DHS_FIRST_ITEM)
   \   00000014   0668               LDR      R6,[R0, #+0]
   \   00000016   ....               LDR      R0,??DataTable12  ;; 0xbad0
   \   00000018   8642               CMP      R6,R0
   \   0000001A   08D0               BEQ      ??DHS_drawItems_1
     66                  {
     67                   DHS_ITEM *dhsi = dhs->first;
   \   0000001C   471C               ADDS     R7,R0,#+1
     68                   do
     69                   {
     70                    if (dhsi != DHS_LAST_ITEM)
   \                     ??DHS_drawItems_2:
   \   0000001E   BE42               CMP      R6,R7
   \   00000020   03D0               BEQ      ??DHS_drawItems_3
     71                     {
     72                      dhsi->dh_proc(layer);
   \   00000022   3168               LDR      R1,[R6, #+0]
   \   00000024   2000               MOVS     R0,R4
   \   00000026   8847               BLX      R1
     73                      dhsi = (DHS_ITEM *)dhsi->next;
   \   00000028   B668               LDR      R6,[R6, #+8]
     74                     }
     75                    }
     76                   while (dhsi != DHS_LAST_ITEM);
   \                     ??DHS_drawItems_3:
   \   0000002A   BE42               CMP      R6,R7
   \   0000002C   F7D1               BNE      ??DHS_drawItems_2
     77                 }
     78              }
     79              if (priodraw)
   \                     ??DHS_drawItems_1:
   \   0000002E   6968               LDR      R1,[R5, #+4]
   \   00000030   0029               CMP      R1,#+0
   \   00000032   01D0               BEQ      ??DHS_drawItems_0
     80               {
     81                 ((void (*)(LCDLAYER *))(priodraw))(layer);
   \   00000034   2000               MOVS     R0,R4
   \   00000036   8847               BLX      R1
     82               }
     83            }
     84          }
   \                     ??DHS_drawItems_0:
   \   00000038   F0BD               POP      {R4-R7,PC}       ;; return
     85          

   \                                 In segment CODE, align 4, keep-with-next
     86          __arm int DHS_addProc_ep(void (*dh_proc)(LCDLAYER *))
     87          {
   \                     DHS_addProc_ep:
   \   00000000   F0412DE9           PUSH     {R4-R8,LR}
     88            if (dhs)
   \   00000004   ........           LDR      R5,??DataTable13  ;; dhs
   \   00000008   0040A0E1           MOV      R4,R0
   \   0000000C   000095E5           LDR      R0,[R5, #+0]
   \   00000010   000050E3           CMP      R0,#+0
   \   00000014   F081BD08           POPEQ    {R4-R8,PC}
     89             {
     90               DHS_ITEM *dhsi = dhs->first;
   \   00000018   006090E5           LDR      R6,[R0, #+0]
     91               if (dhs->first == DHS_FIRST_ITEM)
   \   0000001C   D170A0E3           MOV      R7,#+209
   \   00000020   BA7C87E3           ORR      R7,R7,#0xBA00
   \   00000024   0180C7E3           BIC      R8,R7,#0x1
   \   00000028   080056E1           CMP      R6,R8
   \   0000002C   0B00001A           BNE      ??DHS_addProc_ep_0
     92                {
     93                  LockSched();
   \   00000030   460100EF           SWI      +326
     94                  DHS_ITEM *dhsi_r = malloc(sizeof(DHS_ITEM));
   \   00000034   0C00A0E3           MOV      R0,#+12
   \   00000038   140000EF           SWI      +20
     95                  if (!dhsi_r) return DHS_NULL;
   \   0000003C   000050E3           CMP      R0,#+0
   \   00000040   0F00000A           BEQ      ??DHS_addProc_ep_1
     96                  dhsi_r->next = DHS_LAST_ITEM;
   \   00000044   087080E5           STR      R7,[R0, #+8]
     97                  dhsi_r->prev = DHS_FIRST_ITEM;
   \   00000048   048080E5           STR      R8,[R0, #+4]
     98                  dhsi_r->dh_proc = dh_proc;
   \   0000004C   004080E5           STR      R4,[R0, #+0]
     99                  dhs->first = dhsi_r;
   \   00000050   001095E5           LDR      R1,[R5, #+0]
   \   00000054   000081E5           STR      R0,[R1, #+0]
    100                  dhs->last = dhsi_r;
   \   00000058   100000EA           B        ??DHS_addProc_ep_2
    101                  dhs->count++;
    102                  UnlockSched();
    103                  return 1;
    104                }
    105                 else
    106                  {
    107                    while (dhsi->next != DHS_LAST_ITEM) dhsi = dhsi->next;
   \                     ??DHS_addProc_ep_3:
   \   0000005C   0060A0E1           MOV      R6,R0
   \                     ??DHS_addProc_ep_0:
   \   00000060   080096E5           LDR      R0,[R6, #+8]
   \   00000064   070050E1           CMP      R0,R7
   \   00000068   FBFFFF1A           BNE      ??DHS_addProc_ep_3
    108                    if (dhsi->next == DHS_LAST_ITEM)
   \   0000006C   1200001A           BNE      ??DHS_addProc_ep_4
    109                     {
    110                      LockSched(); 
   \   00000070   460100EF           SWI      +326
    111                      DHS_ITEM *dhsi_r = malloc(sizeof(DHS_ITEM));
   \   00000074   0C00A0E3           MOV      R0,#+12
   \   00000078   140000EF           SWI      +20
    112                      if (!dhsi_r) return DHS_NULL;
   \   0000007C   000050E3           CMP      R0,#+0
   \   00000080   0100001A           BNE      ??DHS_addProc_ep_5
   \                     ??DHS_addProc_ep_1:
   \   00000084   0000E0E3           MVN      R0,#+0
   \   00000088   F081BDE8           POP      {R4-R8,PC}
    113                      dhsi_r->next = DHS_LAST_ITEM;
   \                     ??DHS_addProc_ep_5:
   \   0000008C   087080E5           STR      R7,[R0, #+8]
    114                      dhsi_r->prev = dhsi;
   \   00000090   046080E5           STR      R6,[R0, #+4]
    115                      dhsi_r->dh_proc = dh_proc;
   \   00000094   004080E5           STR      R4,[R0, #+0]
    116                      dhsi->next = dhsi_r;
   \   00000098   080086E5           STR      R0,[R6, #+8]
    117                      dhs->last = dhsi_r;
   \   0000009C   001095E5           LDR      R1,[R5, #+0]
   \                     ??DHS_addProc_ep_2:
   \   000000A0   0C0081E5           STR      R0,[R1, #+12]
    118                      dhs->count++;
   \   000000A4   040091E5           LDR      R0,[R1, #+4]
   \   000000A8   010080E2           ADD      R0,R0,#+1
   \   000000AC   040081E5           STR      R0,[R1, #+4]
    119                      UnlockSched();
   \   000000B0   470100EF           SWI      +327
    120                      return 1;
   \   000000B4   0100A0E3           MOV      R0,#+1
   \   000000B8   F081BDE8           POP      {R4-R8,PC}
    121                     }
    122                  }
    123              }
    124            return DHS_ZERO;
   \                     ??DHS_addProc_ep_4:
   \   000000BC   0000A0E3           MOV      R0,#+0
   \   000000C0   F081BDE8           POP      {R4-R8,PC}       ;; return
    125          }
    126          

   \                                 In segment CODE, align 4, keep-with-next
    127          __arm int DHS_removeProc_ep(void (*dh_proc)(LCDLAYER *))
    128          {
   \                     DHS_removeProc_ep:
   \   00000000   F0402DE9           PUSH     {R4-R7,LR}
    129           if (dhs)
   \   00000004   ........           LDR      R4,??DataTable13  ;; dhs
   \   00000008   001094E5           LDR      R1,[R4, #+0]
   \   0000000C   000051E3           CMP      R1,#+0
   \   00000010   3900000A           BEQ      ??DHS_removeProc_ep_0
    130            {
    131             if (dhs->first != DHS_FIRST_ITEM)
   \   00000014   005091E5           LDR      R5,[R1, #+0]
   \   00000018   D060A0E3           MOV      R6,#+208
   \   0000001C   BA6C86E3           ORR      R6,R6,#0xBA00
   \   00000020   060055E1           CMP      R5,R6
   \   00000024   017086E3           ORR      R7,R6,#0x1
   \   00000028   3300000A           BEQ      ??DHS_removeProc_ep_0
    132              {
    133               DHS_ITEM *dhsi = dhs->first;
    134               do
    135                {
    136                 if (dhsi->dh_proc == dh_proc)
   \                     ??DHS_removeProc_ep_1:
   \   0000002C   001095E5           LDR      R1,[R5, #+0]
   \   00000030   000051E1           CMP      R1,R0
   \   00000034   2B00001A           BNE      ??DHS_removeProc_ep_2
    137                  {
    138                   //Удаление единственного процесса 
    139                   if (dhsi->prev == DHS_FIRST_ITEM && dhsi->next == DHS_LAST_ITEM)
   \   00000038   041095E5           LDR      R1,[R5, #+4]
   \   0000003C   080095E5           LDR      R0,[R5, #+8]
   \   00000040   060051E1           CMP      R1,R6
   \   00000044   1900001A           BNE      ??DHS_removeProc_ep_3
   \   00000048   070050E1           CMP      R0,R7
   \   0000004C   0400001A           BNE      ??DHS_removeProc_ep_4
    140                    {
    141                     LockSched();
   \   00000050   460100EF           SWI      +326
    142                     dhs->first = DHS_FIRST_ITEM;
   \   00000054   000094E5           LDR      R0,[R4, #+0]
   \   00000058   006080E5           STR      R6,[R0, #+0]
    143                     dhs->last  = DHS_LAST_ITEM;
   \   0000005C   0C7080E5           STR      R7,[R0, #+12]
    144                     zeromem((void *)dhsi, sizeof(DHS_ITEM));
   \   00000060   040000EA           B        ??DHS_removeProc_ep_5
    145                     if (dhsi) mfree(dhsi);
    146                     dhs->count--;
    147                     UnlockSched();
    148                     return 1;
    149                    }
    150                   
    151                   //Удаление первого процесса из списка 
    152                   if (dhsi->prev == DHS_FIRST_ITEM && dhsi->next != DHS_LAST_ITEM)
    153                    {
    154                     LockSched();
   \                     ??DHS_removeProc_ep_4:
   \   00000064   460100EF           SWI      +326
    155                     DHS_ITEM *dhsn = (DHS_ITEM *)dhsi->next;
   \   00000068   080095E5           LDR      R0,[R5, #+8]
    156                     dhs->first = dhsn;
   \   0000006C   001094E5           LDR      R1,[R4, #+0]
   \   00000070   000081E5           STR      R0,[R1, #+0]
    157                     dhsn->prev = DHS_FIRST_ITEM;
   \   00000074   046080E5           STR      R6,[R0, #+4]
    158                     zeromem((void *)dhsi, sizeof(DHS_ITEM));
   \                     ??DHS_removeProc_ep_5:
   \   00000078   0C10A0E3           MOV      R1,#+12
   \   0000007C   0500A0E1           MOV      R0,R5
   \   00000080   1D0100EF           SWI      +285
    159                     if (dhsi) mfree(dhsi);
   \   00000084   000055E3           CMP      R5,#+0
   \   00000088   0100000A           BEQ      ??DHS_removeProc_ep_6
   \   0000008C   0500A0E1           MOV      R0,R5
   \   00000090   150000EF           SWI      +21
    160                     dhs->count--;
   \                     ??DHS_removeProc_ep_6:
   \   00000094   000094E5           LDR      R0,[R4, #+0]
   \   00000098   041090E5           LDR      R1,[R0, #+4]
   \   0000009C   011041E2           SUB      R1,R1,#+1
   \   000000A0   041080E5           STR      R1,[R0, #+4]
    161                     UnlockSched();
   \   000000A4   470100EF           SWI      +327
    162                     return 1;
   \   000000A8   0100A0E3           MOV      R0,#+1
   \   000000AC   F080BDE8           POP      {R4-R7,PC}
    163                    }
   \                     ??DHS_removeProc_ep_3:
   \   000000B0   070050E1           CMP      R0,R7
   \   000000B4   0500001A           BNE      ??DHS_removeProc_ep_7
    164                   
    165                   //Удаление последнего процесса из списка 
    166                   if (dhsi->prev != DHS_FIRST_ITEM && dhsi->next == DHS_LAST_ITEM)
    167                    {
    168                     LockSched();
   \   000000B8   460100EF           SWI      +326
    169                     DHS_ITEM *dhsp = (DHS_ITEM *)dhsi->prev;
   \   000000BC   040095E5           LDR      R0,[R5, #+4]
    170                     dhs->last  = dhsp;
   \   000000C0   001094E5           LDR      R1,[R4, #+0]
   \   000000C4   0C0081E5           STR      R0,[R1, #+12]
    171                     dhsp->next = DHS_LAST_ITEM;
   \   000000C8   087080E5           STR      R7,[R0, #+8]
    172                     zeromem((void *)dhsi, sizeof(DHS_ITEM));
   \   000000CC   E9FFFFEA           B        ??DHS_removeProc_ep_5
    173                     if (dhsi) mfree(dhsi);
    174                     dhs->count--;
    175                     UnlockSched();
    176                     return 1;
    177                    }  else
    178                        {
    179                         //Удаление процесса из списка 
    180                         LockSched();
   \                     ??DHS_removeProc_ep_7:
   \   000000D0   460100EF           SWI      +326
    181                         DHS_ITEM *dhsp = (DHS_ITEM *)dhsi->prev;
   \   000000D4   040095E5           LDR      R0,[R5, #+4]
    182                         DHS_ITEM *dhsn = (DHS_ITEM *)dhsi->next;
   \   000000D8   081095E5           LDR      R1,[R5, #+8]
    183                         dhsp->next = dhsn;
   \   000000DC   081080E5           STR      R1,[R0, #+8]
    184                         dhsn->prev = dhsp;
   \   000000E0   040081E5           STR      R0,[R1, #+4]
    185                         zeromem((void *)dhsi, sizeof(DHS_ITEM));
   \   000000E4   E3FFFFEA           B        ??DHS_removeProc_ep_5
    186                         if (dhsi) mfree(dhsi);
    187                         dhs->count--;
    188                         UnlockSched();
    189                         return 1;
    190                       }
    191                 }
    192                dhsi = (DHS_ITEM *)dhsi->next;
   \                     ??DHS_removeProc_ep_2:
   \   000000E8   085095E5           LDR      R5,[R5, #+8]
    193               } while (dhsi != DHS_LAST_ITEM);
   \   000000EC   070055E1           CMP      R5,R7
   \   000000F0   CDFFFF1A           BNE      ??DHS_removeProc_ep_1
    194              return DHS_NULL;
   \   000000F4   0000E0E3           MVN      R0,#+0
   \   000000F8   F080BDE8           POP      {R4-R7,PC}
    195             }
    196            }
    197           return DHS_ZERO;
   \                     ??DHS_removeProc_ep_0:
   \   000000FC   0000A0E3           MOV      R0,#+0
   \   00000100   F080BDE8           POP      {R4-R7,PC}       ;; return
    198          }
    199          
    200          

   \                                 In segment CODE, align 4, keep-with-next
    201          __thumb void DHS_lockDraw_ep(int lock)
    202          {
    203           if (dhs)
   \                     DHS_lockDraw_ep:
   \   00000000   ....               LDR      R1,??DataTable13  ;; dhs
   \   00000002   0968               LDR      R1,[R1, #+0]
   \   00000004   0029               CMP      R1,#+0
   \   00000006   06D0               BEQ      ??DHS_lockDraw_ep_0
    204            {
    205             if (!lock)
   \   00000008   0028               CMP      R0,#+0
   \   0000000A   02D1               BNE      ??DHS_lockDraw_ep_1
    206               dhs->unlock  = DHS_UNLOCKDVALUE;
   \   0000000C   ....               LDR      R0,??DataTable9  ;; 0xffffffffdb6db6db
   \   0000000E   8860               STR      R0,[R1, #+8]
   \   00000010   7047               BX       LR
    207              else
    208               dhs->unlock  = DHS_ZERO;
   \                     ??DHS_lockDraw_ep_1:
   \   00000012   0020               MOVS     R0,#+0
   \   00000014   8860               STR      R0,[R1, #+8]
    209            }
    210          }
   \                     ??DHS_lockDraw_ep_0:
   \   00000016   7047               BX       LR
    211          

   \                                 In segment CODE, align 4, keep-with-next
    212          __thumb DHS_TOP *DHS_getBaseAddr_ep()
    213          {
    214           return dhs;
   \                     DHS_getBaseAddr_ep:
   \   00000000   ....               LDR      R0,??DataTable13  ;; dhs
   \   00000002   0068               LDR      R0,[R0, #+0]
   \   00000004   7047               BX       LR               ;; return
    215          }
    216          

   \                                 In segment CODE, align 4, keep-with-next
    217          __thumb int DHS_getStatusItem_ep(void (*dh_proc)(LCDLAYER *))
    218          {
    219           if (dhs)
   \                     DHS_getStatusItem_ep:
   \   00000000   ....               LDR      R1,??DataTable13  ;; dhs
   \   00000002   0A68               LDR      R2,[R1, #+0]
   \   00000004   002A               CMP      R2,#+0
   \   00000006   1ED0               BEQ      ??DHS_getStatusItem_ep_0
    220            {
    221             if (priodraw == (int)dh_proc)  return 2;
   \   00000008   4968               LDR      R1,[R1, #+4]
   \   0000000A   8142               CMP      R1,R0
   \   0000000C   01D1               BNE      ??DHS_getStatusItem_ep_1
   \   0000000E   0220               MOVS     R0,#+2
   \   00000010   7047               BX       LR
    222             if (dhs->first != DHS_FIRST_ITEM) 
   \                     ??DHS_getStatusItem_ep_1:
   \   00000012   1168               LDR      R1,[R2, #+0]
   \   00000014   ....               LDR      R3,??DataTable12  ;; 0xbad0
   \   00000016   9942               CMP      R1,R3
   \   00000018   12D0               BEQ      ??DHS_getStatusItem_ep_2
    223              {
    224               if (dhs->first == dhs->last)  return -2;
   \   0000001A   D268               LDR      R2,[R2, #+12]
   \   0000001C   9142               CMP      R1,R2
   \   0000001E   02D1               BNE      ??DHS_getStatusItem_ep_3
   \   00000020   0120               MOVS     R0,#+1
   \   00000022   C043               MVNS     R0,R0
   \   00000024   7047               BX       LR
    225               if (dh_proc == dhs->last->dh_proc)  return  1;
   \                     ??DHS_getStatusItem_ep_3:
   \   00000026   1268               LDR      R2,[R2, #+0]
   \   00000028   9042               CMP      R0,R2
   \   0000002A   01D1               BNE      ??DHS_getStatusItem_ep_4
   \   0000002C   0120               MOVS     R0,#+1
   \   0000002E   7047               BX       LR
    226               if (dh_proc == dhs->first->dh_proc) return DHS_NULL;
   \                     ??DHS_getStatusItem_ep_4:
   \   00000030   0968               LDR      R1,[R1, #+0]
   \   00000032   8842               CMP      R0,R1
   \   00000034   02D1               BNE      ??DHS_getStatusItem_ep_5
   \   00000036   0020               MOVS     R0,#+0
   \   00000038   C043               MVNS     R0,R0
   \   0000003A   7047               BX       LR
    227               return DHS_ZERO;
   \                     ??DHS_getStatusItem_ep_5:
   \   0000003C   0020               MOVS     R0,#+0
   \   0000003E   7047               BX       LR
    228              }
    229              return  -3;
   \                     ??DHS_getStatusItem_ep_2:
   \   00000040   0220               MOVS     R0,#+2
   \   00000042   C043               MVNS     R0,R0
   \   00000044   7047               BX       LR
    230            }
    231           return  -4;
   \                     ??DHS_getStatusItem_ep_0:
   \   00000046   0320               MOVS     R0,#+3
   \   00000048   C043               MVNS     R0,R0
   \   0000004A   7047               BX       LR
    232          }
    233          
    234          

   \                                 In segment CODE, align 4, keep-with-next
    235          __arm int DHS_workProcPrio_ep(void (*dh_proc)(LCDLAYER *), int work)
    236          {
   \                     DHS_workProcPrio_ep:
   \   00000000   30402DE9           PUSH     {R4,R5,LR}
    237           if (dhs)
   \   00000004   ........           LDR      R5,??DataTable13  ;; dhs
   \   00000008   0040A0E1           MOV      R4,R0
   \   0000000C   000095E5           LDR      R0,[R5, #+0]
   \   00000010   000050E3           CMP      R0,#+0
   \   00000014   1600000A           BEQ      ??DHS_workProcPrio_ep_0
    238            {
    239              if (work == DHS_PRIOPROC_GETSTAT)
   \   00000018   040095E5           LDR      R0,[R5, #+4]
   \   0000001C   010071E3           CMN      R1,#+1
   \   00000020   0200001A           BNE      ??DHS_workProcPrio_ep_1
    240               {
    241                if (priodraw) return 1;
   \   00000024   000050E3           CMP      R0,#+0
   \   00000028   0100A013           MOVNE    R0,#+1
    242                         else return DHS_ZERO;
   \   0000002C   3080BDE8           POP      {R4,R5,PC}
    243               }
    244              
    245              if (work)
   \                     ??DHS_workProcPrio_ep_1:
   \   00000030   000051E3           CMP      R1,#+0
   \   00000034   0600000A           BEQ      ??DHS_workProcPrio_ep_2
    246              {
    247               if (!priodraw)
   \   00000038   000050E3           CMP      R0,#+0
   \   0000003C   0200001A           BNE      ??DHS_workProcPrio_ep_3
    248                {
    249                  LockSched();
   \   00000040   460100EF           SWI      +326
    250                  priodraw = (int)dh_proc;
   \   00000044   044085E5           STR      R4,[R5, #+4]
    251                  UnlockSched();
   \   00000048   060000EA           B        ??DHS_workProcPrio_ep_4
    252                  return 1;
    253                } else return DHS_ZERO;
   \                     ??DHS_workProcPrio_ep_3:
   \   0000004C   0000A0E3           MOV      R0,#+0
   \   00000050   3080BDE8           POP      {R4,R5,PC}
    254              } else 
    255                {
    256                 if (priodraw)
   \                     ??DHS_workProcPrio_ep_2:
   \   00000054   000050E3           CMP      R0,#+0
   \   00000058   3080BD08           POPEQ    {R4,R5,PC}
    257                  {
    258                    LockSched();
   \   0000005C   460100EF           SWI      +326
    259                    priodraw = DHS_ZERO;
   \   00000060   0000A0E3           MOV      R0,#+0
   \   00000064   040085E5           STR      R0,[R5, #+4]
    260                    UnlockSched();
   \                     ??DHS_workProcPrio_ep_4:
   \   00000068   470100EF           SWI      +327
    261                    return 1;
   \   0000006C   0100A0E3           MOV      R0,#+1
    262                  } else return DHS_ZERO;
   \   00000070   3080BDE8           POP      {R4,R5,PC}
    263                }
    264            }
    265           return DHS_NULL;
   \                     ??DHS_workProcPrio_ep_0:
   \   00000074   0000E0E3           MVN      R0,#+0
   \   00000078   3080BDE8           POP      {R4,R5,PC}       ;; return
    266          }
    267          
    268          
    269          #pragma diag_suppress=Pe177

   \                                 In segment SWILIB_FUNC319_31E, align 4, align-sorted, root
   \   00000000   ........           DC32 DHS_addProc_ep
    270          __root static const int SWILIB_FUNC319 @ "SWILIB_FUNC319_31E" = (int)DHS_addProc_ep;

   \                                 In segment SWILIB_FUNC319_31E, align 4, align-sorted, root
   \   00000000   ........           DC32 DHS_removeProc_ep
    271          __root static const int SWILIB_FUNC31A @ "SWILIB_FUNC319_31E" = (int)DHS_removeProc_ep;
    272          

   \                                 In segment SWILIB_FUNC319_31E, align 4, align-sorted, root
   \   00000000   ........           DC32 DHS_lockDraw_ep
    273          __root static const int SWILIB_FUNC31B @ "SWILIB_FUNC319_31E" = (int)DHS_lockDraw_ep;

   \                                 In segment SWILIB_FUNC319_31E, align 4, align-sorted, root
   \   00000000   ........           DC32 DHS_getBaseAddr_ep
    274          __root static const int SWILIB_FUNC31C @ "SWILIB_FUNC319_31E" = (int)DHS_getBaseAddr_ep;
    275          
    276          

   \                                 In segment SWILIB_FUNC319_31E, align 4, align-sorted, root
   \   00000000   ........           DC32 DHS_getStatusItem_ep
    277          __root static const int SWILIB_FUNC31D @ "SWILIB_FUNC319_31E" = (int)DHS_getStatusItem_ep;

   \                                 In segment SWILIB_FUNC319_31E, align 4, align-sorted, root
   \   00000000   ........           DC32 DHS_workProcPrio_ep

   \                                 In segment CODE, align 4, keep-with-next
   \                     ??DataTable9:
   \   00000000   DBB66DDB           DC32     0xffffffffdb6db6db

   \                                 In segment CODE, align 4, keep-with-next
   \                     ??DataTable12:
   \   00000000   D0BA0000           DC32     0xbad0

   \                                 In segment CODE, align 4, keep-with-next
   \                     ??DataTable13:
   \   00000000   ........           DC32     dhs
    278          __root static const int SWILIB_FUNC31E @ "SWILIB_FUNC319_31E" = (int)DHS_workProcPrio_ep;
    279          #pragma diag_default=Pe177
    280          

   Maximum stack usage in bytes:

     Function             CSTACK
     --------             ------
     DHS_addProc_ep          24
     DHS_drawItems           20
     DHS_getBaseAddr_ep       0
     DHS_getStatusItem_ep     4
     DHS_init                 8
     DHS_kill                16
     DHS_lockDraw_ep          4
     DHS_removeProc_ep       20
     DHS_workProcPrio_ep     12


   Segment part sizes:

     Function/Label       Bytes
     --------------       -----
     dhs                     8
     DHS_init               84
     DHS_kill              132
     DHS_drawItems          58
     DHS_addProc_ep        196
     DHS_removeProc_ep     260
     DHS_lockDraw_ep        24
     DHS_getBaseAddr_ep      6
     DHS_getStatusItem_ep   76
     DHS_workProcPrio_ep   124
     SWILIB_FUNC319          4
     SWILIB_FUNC31A          4
     SWILIB_FUNC31B          4
     SWILIB_FUNC31C          4
     SWILIB_FUNC31D          4
     SWILIB_FUNC31E          4
     ??DataTable9            4
     ??DataTable12           4
     ??DataTable13           4
      Others                64

 
 1 024 bytes in segment CODE
     8 bytes in segment DATA_Z
    12 bytes in segment INITTAB
    24 bytes in segment SWILIB_FUNC319_31E
 
 972 bytes of CODE  memory (+ 64 bytes shared)
  24 bytes of CONST memory
   8 bytes of DATA  memory

Errors: none
Warnings: none
