##############################################################################
#                                                                            #
# IAR ARM ANSI C/C++ Compiler V4.42A/W32 EVALUATION    14/Jan/2009  12:36:38 #
# Copyright 1999-2005 IAR Systems. All rights reserved.                      #
#                                                                            #
#    Cpu mode        =  interwork                                            #
#    Endian          =  little                                               #
#    Stack alignment =  4                                                    #
#    Source file     =  K:\Pasha\elf\SieELF\MySMSYS\edGui.c                  #
#    Command line    =  K:\Pasha\elf\SieELF\MySMSYS\edGui.c -D NEWSGOLD -D   #
#                       ELKA -D LANG_EN -D NO_CS -lC                         #
#                       K:\Pasha\elf\SieELF\MySMSYS\Release_ELKA_EN\List\    #
#                       -o K:\Pasha\elf\SieELF\MySMSYS\Release_ELKA_EN\Obj\  #
#                       -s9 --no_unroll --cpu_mode arm --endian little       #
#                       --cpu ARM926EJ-S --stack_align 4 --interwork -e      #
#                       --fpu None --dlib_config "K:\Pasha\Embedded          #
#                       Workbench 4.0 Evaluation2\ARM\LIB\dl5tpainl8n.h" -I  #
#                       "K:\Pasha\Embedded Workbench 4.0                     #
#                       Evaluation2\ARM\INC\" --inline_threshold=2           #
#    List file       =  K:\Pasha\elf\SieELF\MySMSYS\Release_ELKA_EN\List\edG #
#                       ui.lst                                               #
#    Object file     =  K:\Pasha\elf\SieELF\MySMSYS\Release_ELKA_EN\Obj\edGu #
#                       i.r79                                                #
#                                                                            #
#                                                                            #
##############################################################################

K:\Pasha\elf\SieELF\MySMSYS\edGui.c
      1          #include "..\inc\swilib.h"
      2          #include "sms_dat.h"
      3          #include "rect_patcher.h"

   \                                 In segment CODE, align 4, keep-with-next
   \   __??Code32?? __code __interwork __atpcs void patch_input(INPUTDIA_DESC const *)
   \                     patch_input:
   \   00000000   30402DE9           PUSH     {R4,R5,LR}
   \   00000004   0040A0E1           MOV      R4,R0
   \   00000008   0000A0E3           MOV      R0,#+0
   \   0000000C   B801C4E1           STRH     R0,[R4, #+24]
   \   00000010   8A8100EF           SWI      +33162
   \   00000014   190080E2           ADD      R0,R0,#+25
   \   00000018   BA01C4E1           STRH     R0,[R4, #+26]
   \   0000001C   888100EF           SWI      +33160
   \   00000020   010040E2           SUB      R0,R0,#+1
   \   00000024   BC01C4E1           STRH     R0,[R4, #+28]
   \   00000028   898100EF           SWI      +33161
   \   0000002C   0050A0E1           MOV      R5,R0
   \   00000030   8B8100EF           SWI      +33163
   \   00000034   000045E0           SUB      R0,R5,R0
   \   00000038   010040E2           SUB      R0,R0,#+1
   \   0000003C   BE01C4E1           STRH     R0,[R4, #+30]
   \   00000040   3080BDE8           POP      {R4,R5,PC}       ;; return
      4          #include "language.h"
      5          #include "adrList.h"
      6          #include "guiIdMan.h"
      7          #include "main.h"
      8          #include "edGui.h"
      9          #include "createMenu.h"
     10          #include "numList.h"
     11          #include "MySMSYS_ipc.h"
     12          #include "lgp_pic.h"
     13          #include "CodeShow.h"
     14          #include "popGui.h"
     15          #include "config_data.h"
     16          #include "string_works.h"
     17          #include "NewDatReader.h"
     18          #include "template.h"
     19          #include "NativeAddressbook.h"
     20          #include "CSMswaper.h"
     21          #ifdef	LANG_CN
     22          #define TEXT_INPUT_OPTION	ECT_CURSOR_STAY
     23          #else
     24          #define	TEXT_INPUT_OPTION	ECT_NORMAL_TEXT
     25          #endif
     26          
     27          HEADER_DESC ED_HDR={0,0,0,0,NULL,LGP_NULL,LGP_NULL};

   \                                 In segment DATA_C, align 4, align-sorted
     28          const int ed_menusoftkeys[]={0,1,2};
   \                     ed_menusoftkeys:
   \   00000000   000000000100       DC32 0, 1, 2
   \              000002000000
     29          SOFTKEY_DESC ed_menu_sk[]=
     30          {
     31          	{0x0018,0x0000,(int)LGP_NULL},
     32          	{0x0001,0x0000,(int)LGP_NULL},
     33          	{0x003D,0x0000,(int)LGP_DOIT_PIC}
     34          };

   \                                 In segment DATA_C, align 4, align-sorted
     35          const SOFTKEYSTAB ed_menu_skt=
   \                     ed_menu_skt:
   \   00000000   ........0000       DC32 ed_menu_sk, 0
   \              0000        
     36          {
     37          	ed_menu_sk,0
     38          };
     39          
     40          HEADER_DESC ed_menuhdr={0,0,0,0,NULL,LGP_NULL/*(int)ELFNAME*/,LGP_NULL};
     41          

   \                                 In segment CODE, align 4, keep-with-next
     42          void ed_menu_reply(GUI *gui)
     43          {
   \                     ed_menu_reply:
   \   00000000   70402DE9           PUSH     {R4-R6,LR}
     44          	int update=0;
   \   00000004   0040A0E3           MOV      R4,#+0
     45          	void *ed_gui=MenuGetUserPointer(gui);
   \   00000008   E00100EF           SWI      +480
     46          	USER_OP *uo=EDIT_GetUserPointer(ed_gui);
   \   0000000C   DF0100EF           SWI      +479
   \   00000010   0050A0E1           MOV      R5,R0
     47          	DLG_CSM *dlg_csm=(DLG_CSM *)uo->dlg_csm;
   \   00000014   046095E5           LDR      R6,[R5, #+4]
     48          	SGUI_ID *gstop=(SGUI_ID *)dlg_csm->gstop;
   \   00000018   2C1096E5           LDR      R1,[R6, #+44]
     49          	if(gstop->id==dlg_csm->gui_id)
   \   0000001C   282096E5           LDR      R2,[R6, #+40]
   \   00000020   040091E5           LDR      R0,[R1, #+4]
   \   00000024   020050E1           CMP      R0,R2
     50          		update=1;
   \   00000028   0140A003           MOVEQ    R4,#+1
     51          	if(gstop)
   \   0000002C   000051E3           CMP      R1,#+0
   \   00000030   0300000A           BEQ      ??ed_menu_reply_0
     52          	{
     53          		GeneralFunc_flag1(gstop->id, 1);
   \   00000034   0110A0E3           MOV      R1,#+1
   \   00000038   3D0100EF           SWI      +317
     54          		popGS(dlg_csm);
   \   0000003C   0600A0E1           MOV      R0,R6
   \   00000040   ........           _BLF     popGS,??popGS??rA
     55          	}
     56          	if(uo->sd)
   \                     ??ed_menu_reply_0:
   \   00000044   001095E5           LDR      R1,[R5, #+0]
   \   00000048   000051E3           CMP      R1,#+0
   \   0000004C   1400000A           BEQ      ??ed_menu_reply_1
     57          	{
     58          		if(uo->gui_type==ED_FVIEW)
   \   00000050   0C0095E5           LDR      R0,[R5, #+12]
   \   00000054   050050E3           CMP      R0,#+5
   \   00000058   0600001A           BNE      ??ed_menu_reply_2
     59          		{
     60          			SMS_DATA *sd=SdCopyOne(uo->sd);
   \   0000005C   0100A0E1           MOV      R0,R1
   \   00000060   ........           _BLF     SdCopyOne,??SdCopyOne??rA
   \   00000064   0010A0E1           MOV      R1,R0
     61          			if(update)
   \   00000068   000054E3           CMP      R4,#+0
   \   0000006C   0030A0E3           MOV      R3,#+0
   \   00000070   0720A0E3           MOV      R2,#+7
   \   00000074   020000EA           B        ??ed_menu_reply_3
     62          				dlg_csm->gui_id=createEditGUI(dlg_csm, sd, ED_FREPLY, 0);
     63          			else
     64          				createEditGUI(dlg_csm, sd, ED_FREPLY, 0);
     65          		}
     66          		else
     67          		{
     68          			if(update)
   \                     ??ed_menu_reply_2:
   \   00000078   000054E3           CMP      R4,#+0
   \   0000007C   0030A0E3           MOV      R3,#+0
   \   00000080   0220A0E3           MOV      R2,#+2
   \                     ??ed_menu_reply_3:
   \   00000084   0600A0E1           MOV      R0,R6
   \   00000088   0400000A           BEQ      ??ed_menu_reply_4
     69          				dlg_csm->gui_id=createEditGUI(dlg_csm, uo->sd, ED_REPLY, 0);
   \   0000008C   ........           BL       createEditGUI
   \   00000090   280086E5           STR      R0,[R6, #+40]
   \   00000094   0100A0E3           MOV      R0,#+1
   \   00000098   3B0100EF           SWI      +315
   \   0000009C   7080BDE8           POP      {R4-R6,PC}
     70          			else
     71          				createEditGUI(dlg_csm, uo->sd, ED_REPLY, 0);
   \                     ??ed_menu_reply_4:
   \   000000A0   ........           BL       createEditGUI
     72          		}
     73          	}
     74          	GeneralFuncF1(1);
   \                     ??ed_menu_reply_1:
   \   000000A4   0100A0E3           MOV      R0,#+1
   \   000000A8   3B0100EF           SWI      +315
     75          }
   \   000000AC   7080BDE8           POP      {R4-R6,PC}       ;; return
     76          

   \                                 In segment CODE, align 4, keep-with-next
     77          void ed_menu_edit(GUI *gui)
     78          {
   \                     ed_menu_edit:
   \   00000000   70402DE9           PUSH     {R4-R6,LR}
     79          	int update=0;
   \   00000004   0040A0E3           MOV      R4,#+0
     80          	void *ed_gui=MenuGetUserPointer(gui);
   \   00000008   E00100EF           SWI      +480
     81          	USER_OP *uo=EDIT_GetUserPointer(ed_gui);
   \   0000000C   DF0100EF           SWI      +479
   \   00000010   0050A0E1           MOV      R5,R0
     82          	DLG_CSM *dlg_csm=(DLG_CSM *)uo->dlg_csm;
   \   00000014   046095E5           LDR      R6,[R5, #+4]
     83          	SGUI_ID *gstop=(SGUI_ID *)dlg_csm->gstop;
   \   00000018   2C1096E5           LDR      R1,[R6, #+44]
     84          	if(gstop->id==dlg_csm->gui_id)
   \   0000001C   282096E5           LDR      R2,[R6, #+40]
   \   00000020   040091E5           LDR      R0,[R1, #+4]
   \   00000024   020050E1           CMP      R0,R2
     85          		update=1;
   \   00000028   0140A003           MOVEQ    R4,#+1
     86          	if(gstop)
   \   0000002C   000051E3           CMP      R1,#+0
   \   00000030   0300000A           BEQ      ??ed_menu_edit_0
     87          	{
     88          		GeneralFunc_flag1(gstop->id, 1);
   \   00000034   0110A0E3           MOV      R1,#+1
   \   00000038   3D0100EF           SWI      +317
     89          		popGS(dlg_csm);
   \   0000003C   0600A0E1           MOV      R0,R6
   \   00000040   ........           _BLF     popGS,??popGS??rA
     90          	}
     91          	if(uo->sd)
   \                     ??ed_menu_edit_0:
   \   00000044   001095E5           LDR      R1,[R5, #+0]
   \   00000048   000051E3           CMP      R1,#+0
   \   0000004C   1400000A           BEQ      ??ed_menu_edit_1
     92          	{
     93          		if(uo->gui_type==ED_FVIEW)
   \   00000050   0C0095E5           LDR      R0,[R5, #+12]
   \   00000054   050050E3           CMP      R0,#+5
   \   00000058   0600001A           BNE      ??ed_menu_edit_2
     94          		{
     95          			SMS_DATA *sd=SdCopyOne(uo->sd);
   \   0000005C   0100A0E1           MOV      R0,R1
   \   00000060   ........           _BLF     SdCopyOne,??SdCopyOne??rA
   \   00000064   0010A0E1           MOV      R1,R0
     96          			if(update)
   \   00000068   000054E3           CMP      R4,#+0
   \   0000006C   0030A0E3           MOV      R3,#+0
   \   00000070   0620A0E3           MOV      R2,#+6
   \   00000074   020000EA           B        ??ed_menu_edit_3
     97          				dlg_csm->gui_id=createEditGUI(dlg_csm, sd, ED_FEDIT, 0);
     98          			else
     99          				createEditGUI(dlg_csm, sd, ED_FEDIT, 0);
    100          		}
    101          		else
    102          		{
    103          			if(update)
   \                     ??ed_menu_edit_2:
   \   00000078   000054E3           CMP      R4,#+0
   \   0000007C   0030A0E3           MOV      R3,#+0
   \   00000080   0120A0E3           MOV      R2,#+1
   \                     ??ed_menu_edit_3:
   \   00000084   0600A0E1           MOV      R0,R6
   \   00000088   0400000A           BEQ      ??ed_menu_edit_4
    104          				dlg_csm->gui_id=createEditGUI(dlg_csm, uo->sd, ED_EDIT, 0);
   \   0000008C   ........           BL       createEditGUI
   \   00000090   280086E5           STR      R0,[R6, #+40]
   \   00000094   0100A0E3           MOV      R0,#+1
   \   00000098   3B0100EF           SWI      +315
   \   0000009C   7080BDE8           POP      {R4-R6,PC}
    105          			else
    106          				createEditGUI(dlg_csm, uo->sd, ED_EDIT, 0);
   \                     ??ed_menu_edit_4:
   \   000000A0   ........           BL       createEditGUI
    107          		}
    108          	}
    109          	GeneralFuncF1(1);
   \                     ??ed_menu_edit_1:
   \   000000A4   0100A0E3           MOV      R0,#+1
   \   000000A8   3B0100EF           SWI      +315
    110          }
   \   000000AC   7080BDE8           POP      {R4-R6,PC}       ;; return
    111          

   \                                 In segment CODE, align 4, keep-with-next
    112          void ed_menu_exit(GUI *gui)
    113          {
   \                     ed_menu_exit:
   \   00000000   10402DE9           PUSH     {R4,LR}
    114          	void *ed_gui=MenuGetUserPointer(gui);
   \   00000004   E00100EF           SWI      +480
    115          	USER_OP *uo=EDIT_GetUserPointer(ed_gui);
   \   00000008   DF0100EF           SWI      +479
    116          	DLG_CSM *dlg_csm=(DLG_CSM *)(uo->dlg_csm);
   \   0000000C   044090E5           LDR      R4,[R0, #+4]
    117          	SGUI_ID *gstop=(SGUI_ID *)(dlg_csm->gstop);
   \   00000010   2C0094E5           LDR      R0,[R4, #+44]
    118          	if(gstop)
   \   00000014   000050E3           CMP      R0,#+0
   \   00000018   0400000A           BEQ      ??ed_menu_exit_0
    119          	{
    120          		GeneralFunc_flag1(gstop->id, 1);
   \   0000001C   040090E5           LDR      R0,[R0, #+4]
   \   00000020   0110A0E3           MOV      R1,#+1
   \   00000024   3D0100EF           SWI      +317
    121          		popGS(dlg_csm);
   \   00000028   0400A0E1           MOV      R0,R4
   \   0000002C   ........           _BLF     popGS,??popGS??rA
    122          	}
    123          	GeneralFuncF1(1);
   \                     ??ed_menu_exit_0:
   \   00000030   0100A0E3           MOV      R0,#+1
   \   00000034   3B0100EF           SWI      +315
    124          }
   \   00000038   1080BDE8           POP      {R4,PC}          ;; return
    125          

   \                                 In segment CODE, align 4, keep-with-next
    126          void ed_menu_del(GUI *gui)
    127          {
   \                     ed_menu_del:
   \   00000000   30402DE9           PUSH     {R4,R5,LR}
    128          	void *ed_gui=MenuGetUserPointer(gui);
   \   00000004   E00100EF           SWI      +480
    129          	USER_OP *uo=EDIT_GetUserPointer(ed_gui);
   \   00000008   DF0100EF           SWI      +479
   \   0000000C   0040A0E1           MOV      R4,R0
    130          	DLG_CSM *dlg_csm=(DLG_CSM *)(uo->dlg_csm);
   \   00000010   045094E5           LDR      R5,[R4, #+4]
    131          	SGUI_ID *gstop=(SGUI_ID *)(dlg_csm->gstop);	
   \   00000014   2C0095E5           LDR      R0,[R5, #+44]
    132          	if(gstop)
   \   00000018   000050E3           CMP      R0,#+0
   \   0000001C   0400000A           BEQ      ??ed_menu_del_0
    133          	{
    134          		GeneralFunc_flag1(gstop->id, 1);
   \   00000020   040090E5           LDR      R0,[R0, #+4]
   \   00000024   0110A0E3           MOV      R1,#+1
   \   00000028   3D0100EF           SWI      +317
    135          		popGS(dlg_csm);
   \   0000002C   0500A0E1           MOV      R0,R5
   \   00000030   ........           _BLF     popGS,??popGS??rA
    136          	}
    137          	if(uo->sd)
   \                     ??ed_menu_del_0:
   \   00000034   000094E5           LDR      R0,[R4, #+0]
   \   00000038   000050E3           CMP      R0,#+0
   \   0000003C   0B00000A           BEQ      ??ed_menu_del_1
    138          	{
    139          		if(uo->sd->isfile)
   \   00000040   141090E5           LDR      R1,[R0, #+20]
   \   00000044   000051E3           CMP      R1,#+0
   \   00000048   0010A0E3           MOV      R1,#+0
   \   0000004C   0100000A           BEQ      ??ed_menu_del_2
    140          			deleteFile(uo->sd, 0);
   \   00000050   ........           _BLF     deleteFile,??deleteFile??rA
   \   00000054   000000EA           B        ??ed_menu_del_3
    141          		else
    142          			deleteDat(uo->sd, 0);
   \                     ??ed_menu_del_2:
   \   00000058   ........           _BLF     deleteDat,??deleteDat??rA
    143          		if(uo->gui_type!=ED_FVIEW) delSDList(uo->sd);
   \                     ??ed_menu_del_3:
   \   0000005C   0C0094E5           LDR      R0,[R4, #+12]
   \   00000060   050050E3           CMP      R0,#+5
   \   00000064   0100000A           BEQ      ??ed_menu_del_1
   \   00000068   000094E5           LDR      R0,[R4, #+0]
   \   0000006C   ........           _BLF     delSDList,??delSDList??rA
    144          	}
    145          	GeneralFuncF1(1);
   \                     ??ed_menu_del_1:
   \   00000070   0100A0E3           MOV      R0,#+1
   \   00000074   3B0100EF           SWI      +315
    146          }
   \   00000078   3080BDE8           POP      {R4,R5,PC}       ;; return
    147          
    148          int IsFileInArchive(const char *fpath);

   \                                 In segment CODE, align 4, keep-with-next
    149          void ed_menu_save_as_file(GUI *gui)
    150          {
   \                     ed_menu_save_as_file:
   \   00000000   F0402DE9           PUSH     {R4-R7,LR}
   \   00000004   40D04DE2           SUB      SP,SP,#+64
    151            void *ed_gui=MenuGetUserPointer(gui);
   \   00000008   E00100EF           SWI      +480
    152            USER_OP *uo=EDIT_GetUserPointer(ed_gui);
   \   0000000C   DF0100EF           SWI      +479
   \   00000010   0040A0E1           MOV      R4,R0
    153            DLG_CSM *dlg_csm=(DLG_CSM *)(uo->dlg_csm);
   \   00000014   045094E5           LDR      R5,[R4, #+4]
    154            SGUI_ID *gstop=(SGUI_ID *)(dlg_csm->gstop);	
    155            if((uo->sd!=0)&&(uo->sd->isfile==0)&&(uo->sd->SMS_TEXT))
   \   00000018   000094E5           LDR      R0,[R4, #+0]
   \   0000001C   2C6095E5           LDR      R6,[R5, #+44]
   \   00000020   000050E3           CMP      R0,#+0
   \   00000024   4800000A           BEQ      ??ed_menu_save_as_file_0
   \   00000028   141090E5           LDR      R1,[R0, #+20]
   \   0000002C   000051E3           CMP      R1,#+0
   \   00000030   4500001A           BNE      ??ed_menu_save_as_file_0
   \   00000034   640090E5           LDR      R0,[R0, #+100]
   \   00000038   000050E3           CMP      R0,#+0
   \   0000003C   4200000A           BEQ      ??ed_menu_save_as_file_0
    156            {
    157              char time[32];
    158              char sdnum[32];
    159              SMS_DATA *sdx;
    160              WSHDR *ws=AllocWS(MAX_TEXT);
   \   00000040   800EA0E3           MOV      R0,#+2048
   \   00000044   250100EF           SWI      +293
   \   00000048   0070A0E1           MOV      R7,R0
    161              wstrcpy(ws, uo->sd->SMS_TEXT);
   \   0000004C   000094E5           LDR      R0,[R4, #+0]
   \   00000050   641090E5           LDR      R1,[R0, #+100]
   \   00000054   0700A0E1           MOV      R0,R7
   \   00000058   1F0100EF           SWI      +287
    162              strcpy(time, uo->sd->Time);
   \   0000005C   000094E5           LDR      R0,[R4, #+0]
   \   00000060   441080E2           ADD      R1,R0,#+68
   \   00000064   0D00A0E1           MOV      R0,SP
   \   00000068   1A0000EF           SWI      +26
    163              strcpy(sdnum, uo->sd->Number);
   \   0000006C   000094E5           LDR      R0,[R4, #+0]
   \   00000070   241080E2           ADD      R1,R0,#+36
   \   00000074   20008DE2           ADD      R0,SP,#+32
   \   00000078   1A0000EF           SWI      +26
    164              if(saveFile(uo->sd->SMS_TEXT, uo->sd->Number, uo->sd, uo->sd->type, 2))
   \   0000007C   000094E5           LDR      R0,[R4, #+0]
   \   00000080   0210A0E3           MOV      R1,#+2
   \   00000084   02002DE9           PUSH     {R1}
   \   00000088   083090E5           LDR      R3,[R0, #+8]
   \   0000008C   0020A0E1           MOV      R2,R0
   \   00000090   241080E2           ADD      R1,R0,#+36
   \   00000094   640090E5           LDR      R0,[R0, #+100]
   \   00000098   ........           _BLF     saveFile,??saveFile??rA
   \   0000009C   000050E3           CMP      R0,#+0
   \   000000A0   04D08DE2           ADD      SP,SP,#+4
   \   000000A4   2600000A           BEQ      ??ed_menu_save_as_file_1
    165              {
    166                deleteDat(uo->sd, 0);
   \   000000A8   000094E5           LDR      R0,[R4, #+0]
   \   000000AC   0010A0E3           MOV      R1,#+0
   \   000000B0   ........           _BLF     deleteDat,??deleteDat??rA
    167                delSDList(uo->sd);
   \   000000B4   000094E5           LDR      R0,[R4, #+0]
   \   000000B8   ........           _BLF     delSDList,??delSDList??rA
    168                if(!(sdx=FindSdByTxtTimeNum(ws, time, sdnum))) //重新查找sd失败,直接返回列表
   \   000000BC   20208DE2           ADD      R2,SP,#+32
   \   000000C0   0D10A0E1           MOV      R1,SP
   \   000000C4   0700A0E1           MOV      R0,R7
   \   000000C8   ........           _BLF     FindSdByTxtTimeNum,??FindSdByTxtTimeNum??rA
   \   000000CC   000050E3           CMP      R0,#+0
   \   000000D0   0A00001A           BNE      ??ed_menu_save_as_file_2
    169                {
    170          	if(gstop!=0)
   \   000000D4   000056E3           CMP      R6,#+0
   \   000000D8   0110A0E3           MOV      R1,#+1
   \   000000DC   0400000A           BEQ      ??ed_menu_save_as_file_3
    171          	{
    172          	  GeneralFunc_flag1(gstop->id, 1);
   \   000000E0   040096E5           LDR      R0,[R6, #+4]
   \   000000E4   3D0100EF           SWI      +317
    173          	  popGS(dlg_csm);
   \   000000E8   0500A0E1           MOV      R0,R5
   \   000000EC   ........           _BLF     popGS,??popGS??rA
   \   000000F0   130000EA           B        ??ed_menu_save_as_file_1
    174          	}
    175          	else
    176          	{
    177          	  //如果完全出错,直接退出
    178          	  GeneralFunc_flag1(dlg_csm->gui_id, 1);
   \                     ??ed_menu_save_as_file_3:
   \   000000F4   280095E5           LDR      R0,[R5, #+40]
   \   000000F8   3D0100EF           SWI      +317
   \   000000FC   100000EA           B        ??ed_menu_save_as_file_1
    179          	}
    180                }
    181                else
    182                {
    183          	uo->sd=sdx;
   \                     ??ed_menu_save_as_file_2:
   \   00000100   000084E5           STR      R0,[R4, #+0]
    184          	if(uo->sd->isfile)
   \   00000104   141090E5           LDR      R1,[R0, #+20]
   \   00000108   000051E3           CMP      R1,#+0
   \   0000010C   0A00000A           BEQ      ??ed_menu_save_as_file_4
    185          	{
    186          	  if(uo->sd->fname && IsFileInArchive(uo->sd->fname))
   \   00000110   201090E5           LDR      R1,[R0, #+32]
   \   00000114   000051E3           CMP      R1,#+0
   \   00000118   0500000A           BEQ      ??ed_menu_save_as_file_5
   \   0000011C   0100A0E1           MOV      R0,R1
   \   00000120   ........           BL       IsFileInArchive
   \   00000124   000050E3           CMP      R0,#+0
   \   00000128   0400000A           BEQ      ??ed_menu_save_as_file_6
    187          	    uo->dat_type=ARCHIVE_FILE;
   \   0000012C   0200A0E3           MOV      R0,#+2
   \   00000130   020000EA           B        ??ed_menu_save_as_file_6
    188          	  else
    189          	    uo->dat_type=NML_FILE;
   \                     ??ed_menu_save_as_file_5:
   \   00000134   0000A0E3           MOV      R0,#+0
   \   00000138   000000EA           B        ??ed_menu_save_as_file_6
    190          	}
    191          	else uo->dat_type=NML_DAT;
   \                     ??ed_menu_save_as_file_4:
   \   0000013C   0100A0E3           MOV      R0,#+1
   \                     ??ed_menu_save_as_file_6:
   \   00000140   1C0084E5           STR      R0,[R4, #+28]
    192                }
    193              }
    194              FreeWS(ws);
   \                     ??ed_menu_save_as_file_1:
   \   00000144   0700A0E1           MOV      R0,R7
   \   00000148   290100EF           SWI      +297
    195            }
    196            GeneralFuncF1(1);
   \                     ??ed_menu_save_as_file_0:
   \   0000014C   0100A0E3           MOV      R0,#+1
   \   00000150   3B0100EF           SWI      +315
    197          } 
   \   00000154   40D08DE2           ADD      SP,SP,#+64
   \   00000158   F080BDE8           POP      {R4-R7,PC}       ;; return
    198          

   \                                 In segment CODE, align 4, keep-with-next
    199          void ed_menu_move_to_archive(GUI *gui)
    200          {
   \                     ed_menu_move_to_archive:
   \   00000000   30402DE9           PUSH     {R4,R5,LR}
    201          	void *ed_gui=MenuGetUserPointer(gui);
   \   00000004   E00100EF           SWI      +480
    202          	USER_OP *uo=EDIT_GetUserPointer(ed_gui);
   \   00000008   DF0100EF           SWI      +479
   \   0000000C   0040A0E1           MOV      R4,R0
    203          	DLG_CSM *dlg_csm=(DLG_CSM *)(uo->dlg_csm);
   \   00000010   045094E5           LDR      R5,[R4, #+4]
    204          	SGUI_ID *gstop=(SGUI_ID *)(dlg_csm->gstop);	
   \   00000014   2C0095E5           LDR      R0,[R5, #+44]
    205          	if(gstop)
   \   00000018   000050E3           CMP      R0,#+0
   \   0000001C   0400000A           BEQ      ??ed_menu_move_to_archive_0
    206          	{
    207          		GeneralFunc_flag1(gstop->id, 1);
   \   00000020   040090E5           LDR      R0,[R0, #+4]
   \   00000024   0110A0E3           MOV      R1,#+1
   \   00000028   3D0100EF           SWI      +317
    208          		popGS(dlg_csm);
   \   0000002C   0500A0E1           MOV      R0,R5
   \   00000030   ........           _BLF     popGS,??popGS??rA
    209          	}
    210          	if(uo->sd)
   \                     ??ed_menu_move_to_archive_0:
   \   00000034   000094E5           LDR      R0,[R4, #+0]
   \   00000038   000050E3           CMP      R0,#+0
   \   0000003C   1000000A           BEQ      ??ed_menu_move_to_archive_1
    211          	{
    212          		int k=MoveToArchive(uo->sd);
   \   00000040   ........           _BLF     MoveToArchive,??MoveToArchive??rA
    213          		if(k==1)
   \   00000044   010050E3           CMP      R0,#+1
   \   00000048   0C00001A           BNE      ??ed_menu_move_to_archive_2
    214          		{
    215          			if(!uo->sd->isfile) deleteDat(uo->sd, 0);
   \   0000004C   000094E5           LDR      R0,[R4, #+0]
   \   00000050   141090E5           LDR      R1,[R0, #+20]
   \   00000054   000051E3           CMP      R1,#+0
   \   00000058   0000001A           BNE      ??ed_menu_move_to_archive_3
   \   0000005C   ........           _BLF     deleteDat,??deleteDat??rA
    216          			if(uo->gui_type!=ED_FVIEW) delSDList(uo->sd);
   \                     ??ed_menu_move_to_archive_3:
   \   00000060   0C0094E5           LDR      R0,[R4, #+12]
   \   00000064   050050E3           CMP      R0,#+5
   \   00000068   0500000A           BEQ      ??ed_menu_move_to_archive_1
   \   0000006C   000094E5           LDR      R0,[R4, #+0]
   \   00000070   ........           _BLF     delSDList,??delSDList??rA
   \   00000074   0100A0E3           MOV      R0,#+1
   \   00000078   3B0100EF           SWI      +315
   \   0000007C   3080BDE8           POP      {R4,R5,PC}
    217          		}
    218          		else
    219          			ShowFileErrCode(k);
   \                     ??ed_menu_move_to_archive_2:
   \   00000080   ........           _BLF     ShowFileErrCode,??ShowFileErrCode??rA
    220          	}
    221          	GeneralFuncF1(1);
   \                     ??ed_menu_move_to_archive_1:
   \   00000084   0100A0E3           MOV      R0,#+1
   \   00000088   3B0100EF           SWI      +315
    222          }
   \   0000008C   3080BDE8           POP      {R4,R5,PC}       ;; return
    223          

   \                                 In segment CODE, align 4, keep-with-next
    224          void ed_menu_export_txt(GUI *gui)
    225          {
   \                     ed_menu_export_txt:
   \   00000000   00402DE9           PUSH     {LR}
    226          	void *ed_gui=MenuGetUserPointer(gui);
   \   00000004   E00100EF           SWI      +480
    227          	USER_OP *uo=EDIT_GetUserPointer(ed_gui);
   \   00000008   DF0100EF           SWI      +479
    228          	if(uo->sd)
   \   0000000C   000090E5           LDR      R0,[R0, #+0]
   \   00000010   000050E3           CMP      R0,#+0
   \   00000014   0100000A           BEQ      ??ed_menu_export_txt_0
    229          	{
    230          		ShowFileErrCode(ExportOneToTxt(uo->sd));
   \   00000018   ........           _BLF     ExportOneToTxt,??ExportOneToTxt??rA
   \   0000001C   ........           _BLF     ShowFileErrCode,??ShowFileErrCode??rA
    231          	}
    232          	GeneralFuncF1(1);
   \                     ??ed_menu_export_txt_0:
   \   00000020   0100A0E3           MOV      R0,#+1
   \   00000024   3B0100EF           SWI      +315
    233          }
   \   00000028   0080BDE8           POP      {PC}             ;; return
    234          
    235          #define LGP_SAVE_TO_AB 0xD50
    236          

   \                                 In segment CODE, align 4, keep-with-next
    237          void ed_menu_save_ab(GUI *gui)
    238          {
   \                     ed_menu_save_ab:
   \   00000000   10402DE9           PUSH     {R4,LR}
    239          	void *ed_gui=MenuGetUserPointer(gui);
   \   00000004   E00100EF           SWI      +480
   \   00000008   0040A0E1           MOV      R4,R0
    240          	USER_OP *uo=EDIT_GetUserPointer(ed_gui);
   \   0000000C   DF0100EF           SWI      +479
    241          	CreateNAbCSM(uo->dlg_csm, ed_gui, TYPE_SAVE);
   \   00000010   040090E5           LDR      R0,[R0, #+4]
   \   00000014   0120A0E3           MOV      R2,#+1
   \   00000018   0410A0E1           MOV      R1,R4
   \   0000001C   ........           _BLF     CreateNAbCSM,??CreateNAbCSM??rA
    242          	GeneralFuncF1(1);
   \   00000020   0100A0E3           MOV      R0,#+1
   \   00000024   3B0100EF           SWI      +315
    243          }
   \   00000028   1080BDE8           POP      {R4,PC}          ;; return
    244          
    245          int Ed_SendSMS(void *gui);

   \                                 In segment CODE, align 4, keep-with-next
    246          void ed_menu_send(GUI *gui)
    247          {
   \                     ed_menu_send:
   \   00000000   30402DE9           PUSH     {R4,R5,LR}
    248          	void *ed_gui=MenuGetUserPointer(gui);
   \   00000004   E00100EF           SWI      +480
   \   00000008   0040A0E1           MOV      R4,R0
    249          	USER_OP *uo=EDIT_GetUserPointer(ed_gui);
   \   0000000C   DF0100EF           SWI      +479
    250          	DLG_CSM *dlg_csm=(DLG_CSM *)(uo->dlg_csm);
   \   00000010   045090E5           LDR      R5,[R0, #+4]
    251          	SGUI_ID *gstop=(SGUI_ID *)(dlg_csm->gstop);
   \   00000014   2C0095E5           LDR      R0,[R5, #+44]
    252          	if(gstop)
   \   00000018   000050E3           CMP      R0,#+0
   \   0000001C   0400000A           BEQ      ??ed_menu_send_0
    253          	{
    254          		GeneralFunc_flag1(gstop->id, 1);
   \   00000020   040090E5           LDR      R0,[R0, #+4]
   \   00000024   0110A0E3           MOV      R1,#+1
   \   00000028   3D0100EF           SWI      +317
    255          		popGS(dlg_csm);
   \   0000002C   0500A0E1           MOV      R0,R5
   \   00000030   ........           _BLF     popGS,??popGS??rA
    256          	}
    257          	if(Ed_SendSMS(ed_gui)) DoSendBackGround(dlg_csm);
   \                     ??ed_menu_send_0:
   \   00000034   0400A0E1           MOV      R0,R4
   \   00000038   ........           BL       Ed_SendSMS
   \   0000003C   000050E3           CMP      R0,#+0
   \   00000040   0100000A           BEQ      ??ed_menu_send_1
   \   00000044   0500A0E1           MOV      R0,R5
   \   00000048   ........           _BLF     DoSendBackGround,??DoSendBackGround??rA
    258          	GeneralFuncF1(1);
   \                     ??ed_menu_send_1:
   \   0000004C   0100A0E3           MOV      R0,#+1
   \   00000050   3B0100EF           SWI      +315
    259          }
   \   00000054   3080BDE8           POP      {R4,R5,PC}       ;; return
    260          
    261          #define MENU_N_NML_FILE 7
    262          #define MENU_N_NML_DAT 8
    263          #define MENU_N_ARCHIVE_FILE 6
    264          

   \                                 In segment DATA_C, align 4, align-sorted
    265          const MENUPROCS_DESC procs_nml_file[MENU_N_NML_FILE]=
   \                     procs_nml_file:
   \   00000000   ............       DC32 ed_menu_reply, ed_menu_edit, ed_menu_del, ed_menu_save_ab
   \              ............
   \              ........    
   \   00000010   ............       DC32 ed_menu_export_txt, ed_menu_move_to_archive, ed_menu_exit
   \              ............
    266          {
    267          	ed_menu_reply,
    268          	ed_menu_edit,
    269          	ed_menu_del,
    270          	ed_menu_save_ab,
    271          	ed_menu_export_txt,
    272          	ed_menu_move_to_archive,
    273          	ed_menu_exit,
    274          };
    275          
    276          int items_lgp_nml_file[MENU_N_NML_FILE]=
    277          {
    278          	(int)LGP_NULL,
    279          	(int)LGP_NULL,
    280          	(int)LGP_NULL,
    281          	(int)LGP_SAVE_TO_AB,
    282          	(int)LGP_NULL,
    283          	(int)LGP_NULL,
    284          	(int)LGP_NULL,
    285          };
    286          
    287          
    288          const MENUPROCS_DESC procs_nml_dat[MENU_N_NML_DAT]=
   \                     procs_nml_dat:
   \   0000001C   ............       DC32 ed_menu_reply, ed_menu_edit, ed_menu_del, ed_menu_save_ab
   \              ............
   \              ........    
   \   0000002C   ............       DC32 ed_menu_save_as_file, ed_menu_export_txt, ed_menu_move_to_archive
   \              ............
   \   00000038   ........           DC32 ed_menu_exit
    289          {
    290          	ed_menu_reply,
    291          	ed_menu_edit,
    292          	ed_menu_del,
    293          	ed_menu_save_ab,
    294          	ed_menu_save_as_file,
    295          	ed_menu_export_txt,
    296          	ed_menu_move_to_archive,
    297          	ed_menu_exit,
    298          };
    299          
    300          int items_lgp_nml_dat[MENU_N_NML_DAT]=
    301          {
    302          	(int)LGP_NULL,
    303          	(int)LGP_NULL,
    304          	(int)LGP_NULL,
    305          	(int)LGP_SAVE_TO_AB,
    306          	(int)LGP_NULL,
    307          	(int)LGP_NULL,
    308          	(int)LGP_NULL,
    309          	(int)LGP_NULL,
    310          };
    311          
    312          const MENUPROCS_DESC procs_archive_file[MENU_N_ARCHIVE_FILE]=
   \                     procs_archive_file:
   \   0000003C   ............       DC32 ed_menu_reply, ed_menu_edit, ed_menu_del, ed_menu_save_ab
   \              ............
   \              ........    
   \   0000004C   ............       DC32 ed_menu_export_txt, ed_menu_exit
   \              ....        
    313          {
    314          	ed_menu_reply,
    315          	ed_menu_edit,
    316          	ed_menu_del,
    317          	ed_menu_save_ab,
    318          	ed_menu_export_txt,
    319          	ed_menu_exit,
    320          };
    321          
    322          int items_lgp_archive_file[MENU_N_ARCHIVE_FILE]=
    323          {
    324          	(int)LGP_NULL,
    325          	(int)LGP_NULL,
    326          	(int)LGP_NULL,
    327          	(int)LGP_SAVE_TO_AB,
    328          	(int)LGP_NULL,
    329          	(int)LGP_NULL,
    330          };
    331          

   \                                 In segment CODE, align 4, keep-with-next
    332          int IsFileInArchive(const char *fpath)
    333          {
    334            int len,c;
    335            char folder[128];
    336            strcpy(folder, CFG_MAIN_FOLDER);
   \                     IsFileInArchive:
   \   00000000   ........           LDR      R1,??DataTable0  ;; CFG_MAIN_FOLDER
   \   00000004   10402DE9           PUSH     {R4,LR}
   \   00000008   80D04DE2           SUB      SP,SP,#+128
   \   0000000C   0040A0E1           MOV      R4,R0
   \   00000010   0D00A0E1           MOV      R0,SP
   \   00000014   1A0000EF           SWI      +26
    337            len=strlen(folder);
   \   00000018   0D00A0E1           MOV      R0,SP
   \   0000001C   1B0000EF           SWI      +27
    338            c=folder[len-1];
   \   00000020   0D10A0E1           MOV      R1,SP
   \   00000024   010080E0           ADD      R0,R0,R1
   \   00000028   011050E5           LDRB     R1,[R0, #-1]
    339            if(c!='\\' && c!='/')
   \   0000002C   5C0051E3           CMP      R1,#+92
   \   00000030   2F005113           CMPNE    R1,#+47
   \   00000034   0300000A           BEQ      ??IsFileInArchive_0
    340            {
    341              folder[len]='\\';
   \   00000038   5C10A0E3           MOV      R1,#+92
   \   0000003C   0010C0E5           STRB     R1,[R0, #+0]
    342              folder[len+1]=0;
   \   00000040   0010A0E3           MOV      R1,#+0
   \   00000044   0110C0E5           STRB     R1,[R0, #+1]
    343            }
    344            strcat(folder, FLDR_ARCHIVE);
   \                     ??IsFileInArchive_0:
   \   00000048   30109FE5           LDR      R1,??IsFileInArchive_1  ;; FLDR_ARCHIVE
   \   0000004C   0D00A0E1           MOV      R0,SP
   \   00000050   170000EF           SWI      +23
    345            if(!strncmp(fpath, folder, strlen(folder)))
   \   00000054   0D00A0E1           MOV      R0,SP
   \   00000058   1B0000EF           SWI      +27
   \   0000005C   0020A0E1           MOV      R2,R0
   \   00000060   0D10A0E1           MOV      R1,SP
   \   00000064   0400A0E1           MOV      R0,R4
   \   00000068   150100EF           SWI      +277
   \   0000006C   000050E3           CMP      R0,#+0
    346              return 1;
   \   00000070   0100A003           MOVEQ    R0,#+1
    347            return 0;
   \   00000074   0000A013           MOVNE    R0,#+0
   \   00000078   80D08DE2           ADD      SP,SP,#+128
   \   0000007C   1080BDE8           POP      {R4,PC}          ;; return
   \                     ??IsFileInArchive_1:
   \   00000080   ........           DC32     FLDR_ARCHIVE
    348          }
    349          
    350          #ifndef WITHOUT_OP_ICON
    351          
    352          #ifdef NEWSGOLD
    353          #ifdef ELKA
    354          int ed_menu_item_icons[]={0x538,0};
    355          #else
    356          #ifdef S68
    357          int ed_menu_item_icons[]={0x576,0};
    358          #else
    359          int ed_menu_item_icons[]={0x564,0};
    360          #endif
    361          #endif
    362          #endif
    363          
    364          #endif
    365          

   \                                 In segment CODE, align 4, keep-with-next
    366          void ed_menu_itemhndl(void *data, int curitem, void *user_pointer)
    367          {
   \                     ed_menu_itemhndl:
   \   00000000   F0432DE9           PUSH     {R4-R9,LR}
   \   00000004   0040A0E1           MOV      R4,R0
    368            void *ed_gui=MenuGetUserPointer(data);
    369            USER_OP *uo=EDIT_GetUserPointer(ed_gui);
    370            void *item=AllocMenuItem(data);
    371            WSHDR *ws=AllocMenuWS(data, 150);
    372            if(curitem==0 && uo->sd && uo->sd->type==TYPE_DRAFT)
   \   00000008   E8809FE5           LDR      R8,??ed_menu_itemhndl_0  ;; items_lgp_nml_file
   \   0000000C   0150A0E1           MOV      R5,R1
   \   00000010   E00100EF           SWI      +480
   \   00000014   DF0100EF           SWI      +479
   \   00000018   0090A0E1           MOV      R9,R0
   \   0000001C   0400A0E1           MOV      R0,R4
   \   00000020   970100EF           SWI      +407
   \   00000024   0060A0E1           MOV      R6,R0
   \   00000028   9610A0E3           MOV      R1,#+150
   \   0000002C   0400A0E1           MOV      R0,R4
   \   00000030   980100EF           SWI      +408
   \   00000034   ........           LDR      R1,??DataTable5  ;; PERCENT_T
   \   00000038   0070A0E1           MOV      R7,R0
   \   0000003C   ........           LDR      R0,??DataTable7  ;; lgp
   \   00000040   000055E3           CMP      R5,#+0
   \   00000044   0600001A           BNE      ??ed_menu_itemhndl_1
   \   00000048   002099E5           LDR      R2,[R9, #+0]
   \   0000004C   000052E3           CMP      R2,#+0
   \   00000050   0300000A           BEQ      ??ed_menu_itemhndl_1
   \   00000054   082092E5           LDR      R2,[R2, #+8]
   \   00000058   040052E3           CMP      R2,#+4
    373            {
    374              wsprintf(ws, PERCENT_T, lgp.LGP_SEND);
   \   0000005C   44209005           LDREQ    R2,[R0, #+68]
   \   00000060   1400000A           BEQ      ??ed_menu_itemhndl_2
    375              goto GOGO;
    376            }
    377            switch(uo->dat_type)
   \                     ??ed_menu_itemhndl_1:
   \   00000064   1C3099E5           LDR      R3,[R9, #+28]
   \   00000068   052188E0           ADD      R2,R8,R5, LSL #+2
   \   0000006C   000053E3           CMP      R3,#+0
   \   00000070   0400000A           BEQ      ??ed_menu_itemhndl_3
   \   00000074   013053E2           SUBS     R3,R3,#+1
   \   00000078   0A00000A           BEQ      ??ed_menu_itemhndl_4
   \   0000007C   013053E2           SUBS     R3,R3,#+1
   \   00000080   0400000A           BEQ      ??ed_menu_itemhndl_5
   \   00000084   0A0000EA           B        ??ed_menu_itemhndl_6
    378            {
    379            case NML_FILE:
    380              if(curitem>=MENU_N_NML_FILE)
   \                     ??ed_menu_itemhndl_3:
   \   00000088   070055E3           CMP      R5,#+7
   \   0000008C   080000AA           BGE      ??ed_menu_itemhndl_6
    381                goto ITEM_ERR;
    382              wsprintf(ws, PERCENT_T, items_lgp_nml_file[curitem]);
   \   00000090   052198E7           LDR      R2,[R8, +R5, LSL #+2]
   \   00000094   070000EA           B        ??ed_menu_itemhndl_2
    383              break;
    384            case ARCHIVE_FILE:
    385              if(curitem>=MENU_N_ARCHIVE_FILE)
   \                     ??ed_menu_itemhndl_5:
   \   00000098   060055E3           CMP      R5,#+6
   \   0000009C   040000AA           BGE      ??ed_menu_itemhndl_6
    386                goto ITEM_ERR;
    387              wsprintf(ws, PERCENT_T, items_lgp_archive_file[curitem]);
   \   000000A0   3C2092E5           LDR      R2,[R2, #+60]
   \   000000A4   030000EA           B        ??ed_menu_itemhndl_2
    388              break;
    389            case NML_DAT:
    390              if(curitem>=MENU_N_NML_DAT)
   \                     ??ed_menu_itemhndl_4:
   \   000000A8   080055E3           CMP      R5,#+8
    391                goto ITEM_ERR;
    392              wsprintf(ws, PERCENT_T, items_lgp_nml_dat[curitem]);
   \   000000AC   1C2092B5           LDRLT    R2,[R2, #+28]
   \   000000B0   000000BA           BLT      ??ed_menu_itemhndl_2
    393              break;
    394            default:
    395          ITEM_ERR:
    396            wsprintf(ws, PERCENT_T, lgp.LGP_ERR);
   \                     ??ed_menu_itemhndl_6:
   \   000000B4   0C2090E5           LDR      R2,[R0, #+12]
   \                     ??ed_menu_itemhndl_2:
   \   000000B8   0700A0E1           MOV      R0,R7
   \   000000BC   240100EF           SWI      +292
    397            }
    398          GOGO:
    399          #ifndef WITHOUT_OP_ICON
    400            SetMenuItemIconArray(data, item, ed_menu_item_icons);
   \   000000C0   542088E2           ADD      R2,R8,#+84
   \   000000C4   0610A0E1           MOV      R1,R6
   \   000000C8   0400A0E1           MOV      R0,R4
   \   000000CC   990100EF           SWI      +409
    401            SetMenuItemIcon(data, curitem, 0);
   \   000000D0   0020A0E3           MOV      R2,#+0
   \   000000D4   0510A0E1           MOV      R1,R5
   \   000000D8   0400A0E1           MOV      R0,R4
   \   000000DC   950100EF           SWI      +405
    402          #endif
    403            SetMenuItemText(data, item, ws, curitem);
   \   000000E0   0530A0E1           MOV      R3,R5
   \   000000E4   0720A0E1           MOV      R2,R7
   \   000000E8   0610A0E1           MOV      R1,R6
   \   000000EC   0400A0E1           MOV      R0,R4
   \   000000F0   9A0100EF           SWI      +410
    404          }
   \   000000F4   F083BDE8           POP      {R4-R9,PC}       ;; return
   \                     ??ed_menu_itemhndl_0:
   \   000000F8   ........           DC32     items_lgp_nml_file
    405          
    406          #pragma swi_number=0x44
    407          __swi __arm void TempLightOn(int x, int y);

   \                                 In segment CODE, align 4, keep-with-next
    408          int ed_menu_onkey(void *data, GUI_MSG *msg)
    409          {
   \                     ed_menu_onkey:
   \   00000000   30402DE9           PUSH     {R4,R5,LR}
   \   00000004   0040A0E1           MOV      R4,R0
   \   00000008   0150A0E1           MOV      R5,R1
    410            int n;
    411            void *ed_gui;
    412            USER_OP *uo;
    413            if(!IsUnlocked()) TempLightOn(3, 0x7FFF);
   \   0000000C   430000EF           SWI      +67
   \   00000010   000050E3           CMP      R0,#+0
   \   00000014   0300001A           BNE      ??ed_menu_onkey_0
   \   00000018   FF10A0E3           MOV      R1,#+255
   \   0000001C   7F1C81E3           ORR      R1,R1,#0x7F00
   \   00000020   0300A0E3           MOV      R0,#+3
   \   00000024   440000EF           SWI      +68
    414            if(msg->keys==0x1)
   \                     ??ed_menu_onkey_0:
   \   00000028   F200D5E1           LDRSH    R0,[R5, #+2]
   \   0000002C   010050E3           CMP      R0,#+1
    415            {
    416              return 1;
   \   00000030   3080BD08           POPEQ    {R4,R5,PC}
    417            }
    418            if((msg->keys==0x18)||(msg->keys==0x3D))
   \   00000034   180050E3           CMP      R0,#+24
   \   00000038   3D005013           CMPNE    R0,#+61
   \   0000003C   2F00001A           BNE      ??ed_menu_onkey_1
    419            {
    420              n=GetCurMenuItem(data);
   \   00000040   0400A0E1           MOV      R0,R4
   \   00000044   8F0100EF           SWI      +399
   \   00000048   0050A0E1           MOV      R5,R0
    421            DO_PROC:
    422              ed_gui=MenuGetUserPointer(data);
   \                     ??ed_menu_onkey_2:
   \   0000004C   0400A0E1           MOV      R0,R4
   \   00000050   E00100EF           SWI      +480
    423              uo=EDIT_GetUserPointer(ed_gui);
   \   00000054   DF0100EF           SWI      +479
    424              if(n==0 && uo->sd && uo->sd->type==TYPE_DRAFT)
   \   00000058   000055E3           CMP      R5,#+0
   \   0000005C   0800001A           BNE      ??ed_menu_onkey_3
   \   00000060   001090E5           LDR      R1,[R0, #+0]
   \   00000064   000051E3           CMP      R1,#+0
   \   00000068   0500000A           BEQ      ??ed_menu_onkey_3
   \   0000006C   081091E5           LDR      R1,[R1, #+8]
   \   00000070   040051E3           CMP      R1,#+4
   \   00000074   0200001A           BNE      ??ed_menu_onkey_3
    425              {
    426                ed_menu_send(data);
   \   00000078   0400A0E1           MOV      R0,R4
   \   0000007C   ........           BL       ed_menu_send
    427                return 1;
   \   00000080   1C0000EA           B        ??ed_menu_onkey_4
    428              }
    429              switch(uo->dat_type)
   \                     ??ed_menu_onkey_3:
   \   00000084   A8109FE5           LDR      R1,??ed_menu_onkey_5  ;; procs_nml_file
   \   00000088   1C0090E5           LDR      R0,[R0, #+28]
   \   0000008C   052181E0           ADD      R2,R1,R5, LSL #+2
   \   00000090   000050E3           CMP      R0,#+0
   \   00000094   0500000A           BEQ      ??ed_menu_onkey_6
   \   00000098   010050E2           SUBS     R0,R0,#+1
   \   0000009C   0E00000A           BEQ      ??ed_menu_onkey_7
   \   000000A0   010050E2           SUBS     R0,R0,#+1
   \   000000A4   0500000A           BEQ      ??ed_menu_onkey_8
   \   000000A8   0000A0E3           MOV      R0,#+0
   \   000000AC   3080BDE8           POP      {R4,R5,PC}
    430              {
    431              case NML_FILE:
    432                if(n>=MENU_N_NML_FILE)
   \                     ??ed_menu_onkey_6:
   \   000000B0   070055E3           CMP      R5,#+7
    433          	return 0;
   \   000000B4   3080BDA8           POPGE    {R4,R5,PC}
    434                procs_nml_file[n](data);
   \   000000B8   051191E7           LDR      R1,[R1, +R5, LSL #+2]
   \   000000BC   0B0000EA           B        ??ed_menu_onkey_9
    435                return 1;
    436              case ARCHIVE_FILE:
    437                if(n>=MENU_N_ARCHIVE_FILE)
   \                     ??ed_menu_onkey_8:
   \   000000C0   060055E3           CMP      R5,#+6
   \   000000C4   060000AA           BGE      ??ed_menu_onkey_10
    438          	return 0;
    439                procs_archive_file[n](data);
   \   000000C8   3C1092E5           LDR      R1,[R2, #+60]
   \   000000CC   0400A0E1           MOV      R0,R4
   \   000000D0   31FF2FE1           BLX      R1
    440                return 1;
   \   000000D4   0100A0E3           MOV      R0,#+1
   \   000000D8   3080BDE8           POP      {R4,R5,PC}
    441              case NML_DAT:
    442                if(n>=MENU_N_NML_DAT)
   \                     ??ed_menu_onkey_7:
   \   000000DC   080055E3           CMP      R5,#+8
   \   000000E0   010000BA           BLT      ??ed_menu_onkey_11
    443          	return 0;
   \                     ??ed_menu_onkey_10:
   \   000000E4   0000A0E3           MOV      R0,#+0
   \   000000E8   3080BDE8           POP      {R4,R5,PC}
    444                procs_nml_dat[n](data);
   \                     ??ed_menu_onkey_11:
   \   000000EC   1C1092E5           LDR      R1,[R2, #+28]
   \                     ??ed_menu_onkey_9:
   \   000000F0   0400A0E1           MOV      R0,R4
   \   000000F4   31FF2FE1           BLX      R1
   \                     ??ed_menu_onkey_4:
   \   000000F8   0100A0E3           MOV      R0,#+1
   \   000000FC   3080BDE8           POP      {R4,R5,PC}
    445                return 1;
    446              default :
    447                return 0;
    448              }
    449            }
    450            if(msg->gbsmsg->msg==KEY_DOWN)
   \                     ??ed_menu_onkey_1:
   \   00000100   040095E5           LDR      R0,[R5, #+4]
   \   00000104   9320A0E3           MOV      R2,#+147
   \   00000108   041090E5           LDR      R1,[R0, #+4]
   \   0000010C   402F82E3           ORR      R2,R2,#0x100
   \   00000110   020051E1           CMP      R1,R2
   \   00000114   F2FFFF1A           BNE      ??ed_menu_onkey_10
    451            {
    452              n=msg->gbsmsg->submess;
   \   00000118   085090E5           LDR      R5,[R0, #+8]
    453              if(n>='1' && n<='9')
   \   0000011C   310055E3           CMP      R5,#+49
   \   00000120   EFFFFFBA           BLT      ??ed_menu_onkey_10
   \   00000124   3A0055E3           CMP      R5,#+58
   \   00000128   EDFFFFAA           BGE      ??ed_menu_onkey_10
    454              {
    455                n-='1';
   \   0000012C   315045E2           SUB      R5,R5,#+49
    456                goto DO_PROC;
   \   00000130   C5FFFFEA           B        ??ed_menu_onkey_2
   \                     ??ed_menu_onkey_5:
   \   00000134   ........           DC32     procs_nml_file
    457              }
    458            }
    459            return 0;
    460          }
    461          

   \                                 In segment CODE, align 4, keep-with-next
    462          void ed_menu_ghook(void *data, int cmd)
    463          {
   \                     ed_menu_ghook:
   \   00000000   F0402DE9           PUSH     {R4-R7,LR}
   \   00000004   0040A0E1           MOV      R4,R0
    464            if(cmd==2) //create
   \   00000008   020051E3           CMP      R1,#+2
   \   0000000C   F080BD18           POPNE    {R4-R7,PC}
    465            {
    466              WSHDR *hdr_t=AllocWS(32);
   \   00000010   2000A0E3           MOV      R0,#+32
   \   00000014   250100EF           SWI      +293
    467              wsprintf(hdr_t, PERCENT_T, lgp.LGP_OPTIONS);
   \   00000018   ........           LDR      R1,??DataTable5  ;; PERCENT_T
   \   0000001C   0050A0E1           MOV      R5,R0
   \   00000020   34009FE5           LDR      R0,??ed_menu_ghook_0  ;; lgp + 52
   \   00000024   002090E5           LDR      R2,[R0, #+0]
   \   00000028   0500A0E1           MOV      R0,R5
   \   0000002C   240100EF           SWI      +292
    468              SetHeaderText(GetHeaderPointer(data), hdr_t, malloc_adr(), mfree_adr());
   \   00000030   158000EF           SWI      +32789
   \   00000034   0060A0E1           MOV      R6,R0
   \   00000038   148000EF           SWI      +32788
   \   0000003C   0070A0E1           MOV      R7,R0
   \   00000040   0400A0E1           MOV      R0,R4
   \   00000044   AE0200EF           SWI      +686
   \   00000048   0630A0E1           MOV      R3,R6
   \   0000004C   0720A0E1           MOV      R2,R7
   \   00000050   0510A0E1           MOV      R1,R5
   \   00000054   AF0200EF           SWI      +687
    469            }
    470          }
   \   00000058   F080BDE8           POP      {R4-R7,PC}       ;; return
   \                     ??ed_menu_ghook_0:
   \   0000005C   ........           DC32     lgp + 52

   \                                 In segment DATA_C, align 4, align-sorted
    471          const MENU_DESC ed_menu=
   \                     ed_menu:
   \   00000000   08000000....       DC32 8, ed_menu_onkey, ed_menu_ghook, 0H, ed_menusoftkeys, ed_menu_skt
   \              ............
   \              00000000....
   \              ............
   \   00000018   11000000....       DC32 17, ed_menu_itemhndl, 0H, 0H, 0
   \              ....00000000
   \              000000000000
   \              0000        
    472          {
    473            8,ed_menu_onkey,ed_menu_ghook,NULL,
    474            ed_menusoftkeys,
    475            &ed_menu_skt,
    476          #ifdef WITHOUT_OP_ICON
    477            0x10,
    478          #else
    479            0x11,//Right align
    480          #endif
    481            ed_menu_itemhndl,
    482            0,//menuitems,
    483            0,//menuprocs,
    484            0
    485          };
    486          

   \                                 In segment CODE, align 4, keep-with-next
    487          int createEditOpMenu(void *ed_gui)
    488          {
   \                     createEditOpMenu:
   \   00000000   F0402DE9           PUSH     {R4-R7,LR}
    489          	int item_n;
    490          	USER_OP *uo=EDIT_GetUserPointer(ed_gui);
    491          	patch_option_header(&ed_menuhdr);
   \   00000004   94609FE5           LDR      R6,??createEditOpMenu_0  ;; ed_menuhdr
   \   00000008   0040A0E1           MOV      R4,R0
   \   0000000C   DF0100EF           SWI      +479
   \   00000010   0050A0E1           MOV      R5,R0
   \   00000014   0000A0E3           MOV      R0,#+0
   \   00000018   B000C6E1           STRH     R0,[R6, #+0]
   \   0000001C   8A8100EF           SWI      +33162
   \   00000020   180080E2           ADD      R0,R0,#+24
   \   00000024   B200C6E1           STRH     R0,[R6, #+2]
   \   00000028   888100EF           SWI      +33160
   \   0000002C   010040E2           SUB      R0,R0,#+1
   \   00000030   B400C6E1           STRH     R0,[R6, #+4]
   \   00000034   8A8100EF           SWI      +33162
   \   00000038   0070A0E1           MOV      R7,R0
   \   0000003C   8A8100EF           SWI      +33162
   \   00000040   070080E0           ADD      R0,R0,R7
   \   00000044   160080E2           ADD      R0,R0,#+22
   \   00000048   B600C6E1           STRH     R0,[R6, #+6]
    492          	switch(uo->dat_type)
   \   0000004C   1C0095E5           LDR      R0,[R5, #+28]
   \   00000050   000050E3           CMP      R0,#+0
   \   00000054   0400000A           BEQ      ??createEditOpMenu_1
   \   00000058   010050E2           SUBS     R0,R0,#+1
   \   0000005C   0600000A           BEQ      ??createEditOpMenu_2
   \   00000060   010050E2           SUBS     R0,R0,#+1
   \   00000064   0200000A           BEQ      ??createEditOpMenu_3
   \   00000068   050000EA           B        ??createEditOpMenu_4
    493          	{
    494          	case NML_FILE:
    495          		item_n=MENU_N_NML_FILE;
   \                     ??createEditOpMenu_1:
   \   0000006C   0730A0E3           MOV      R3,#+7
   \   00000070   040000EA           B        ??createEditOpMenu_5
    496          		break;
    497          	case ARCHIVE_FILE:
    498          		item_n=MENU_N_ARCHIVE_FILE;
   \                     ??createEditOpMenu_3:
   \   00000074   0630A0E3           MOV      R3,#+6
   \   00000078   020000EA           B        ??createEditOpMenu_5
    499          		break;
    500          	case NML_DAT:
    501          		item_n=MENU_N_NML_DAT;
   \                     ??createEditOpMenu_2:
   \   0000007C   0830A0E3           MOV      R3,#+8
   \   00000080   000000EA           B        ??createEditOpMenu_5
    502          		break;
    503          	default:
    504          		item_n=0;
   \                     ??createEditOpMenu_4:
   \   00000084   0030A0E3           MOV      R3,#+0
    505          	}
    506          	return (CreateSLMenu_30or2(&ed_menu, &ed_menuhdr, 0, item_n, ed_gui));
   \                     ??createEditOpMenu_5:
   \   00000088   14009FE5           LDR      R0,??createEditOpMenu_0+0x4  ;; ed_menu
   \   0000008C   10002DE9           PUSH     {R4}
   \   00000090   0020A0E3           MOV      R2,#+0
   \   00000094   0610A0E1           MOV      R1,R6
   \   00000098   ........           _BLF     CreateSLMenu_30or2,??CreateSLMenu_30or2??rA
   \   0000009C   F280BDE8           POP      {R1,R4-R7,PC}    ;; return
   \                     ??createEditOpMenu_0:
   \   000000A0   ........           DC32     ed_menuhdr
   \   000000A4   ........           DC32     ed_menu
    507          }
    508          
    509          #ifndef LANG_CN
    510          
    511          //translit from smsman (c)titron
    512          typedef struct
    513          {
    514            char *r;
    515            char *e;
    516          }trstruct;
    517          

   \                                 In segment DATA_C, align 4, align-sorted
    518          const trstruct tr_r[]=
   \                     tr_r:
   \   00000000   ............       DC32 `?<Constant "\\300">`, `?<Constant "A">`, `?<Constant "\\340">`
   \              ............
   \   0000000C   ............       DC32 `?<Constant "a">`, `?<Constant "\\301">`, `?<Constant "B">`
   \              ............
   \   00000018   ............       DC32 `?<Constant "\\341">`, `?<Constant "b">`, `?<Constant "\\302">`
   \              ............
   \   00000024   ............       DC32 `?<Constant "V">`, `?<Constant "\\342">`, `?<Constant "v">`
   \              ............
   \   00000030   ............       DC32 `?<Constant "\\303">`, `?<Constant "G">`, `?<Constant "\\343">`
   \              ............
   \   0000003C   ............       DC32 `?<Constant "g">`, `?<Constant "\\304">`, `?<Constant "D">`
   \              ............
   \   00000048   ............       DC32 `?<Constant "\\344">`, `?<Constant "d">`, `?<Constant "\\305">`
   \              ............
   \   00000054   ............       DC32 `?<Constant "E">`, `?<Constant "\\345">`, `?<Constant "e">`
   \              ............
   \   00000060   ............       DC32 `?<Constant "\\250">`, `?<Constant "Yo">`, `?<Constant "\\270">`
   \              ............
   \   0000006C   ............       DC32 `?<Constant "yo">`, `?<Constant "\\306">`, `?<Constant "J">`
   \              ............
   \   00000078   ............       DC32 `?<Constant "\\346">`, `?<Constant "j">`, `?<Constant "\\307">`
   \              ............
   \   00000084   ............       DC32 `?<Constant "Z">`, `?<Constant "\\347">`, `?<Constant "z">`
   \              ............
   \   00000090   ............       DC32 `?<Constant "\\310">`, `?<Constant "I">`, `?<Constant "\\350">`
   \              ............
   \   0000009C   ............       DC32 `?<Constant "i">`, `?<Constant "\\311">`, `?<Constant "Y">`
   \              ............
   \   000000A8   ............       DC32 `?<Constant "\\351">`, `?<Constant "y">`, `?<Constant "\\312">`
   \              ............
   \   000000B4   ............       DC32 `?<Constant "K">`, `?<Constant "\\352">`, `?<Constant "k">`
   \              ............
   \   000000C0   ............       DC32 `?<Constant "\\313">`, `?<Constant "L">`, `?<Constant "\\353">`
   \              ............
   \   000000CC   ............       DC32 `?<Constant "l">`, `?<Constant "\\314">`, `?<Constant "M">`
   \              ............
   \   000000D8   ............       DC32 `?<Constant "\\354">`, `?<Constant "m">`, `?<Constant "\\315">`
   \              ............
   \   000000E4   ............       DC32 `?<Constant "N">`, `?<Constant "\\355">`, `?<Constant "n">`
   \              ............
   \   000000F0   ............       DC32 `?<Constant "\\316">`, `?<Constant "O">`, `?<Constant "\\356">`
   \              ............
   \   000000FC   ............       DC32 `?<Constant "o">`, `?<Constant "\\317">`, `?<Constant "P">`
   \              ............
   \   00000108   ............       DC32 `?<Constant "\\357">`, `?<Constant "p">`, `?<Constant "\\320">`
   \              ............
   \   00000114   ............       DC32 `?<Constant "R">`, `?<Constant "\\360">`, `?<Constant "r">`
   \              ............
   \   00000120   ............       DC32 `?<Constant "\\321">`, `?<Constant "S">`, `?<Constant "\\361">`
   \              ............
   \   0000012C   ............       DC32 `?<Constant "s">`, `?<Constant "\\322">`, `?<Constant "T">`
   \              ............
   \   00000138   ............       DC32 `?<Constant "\\362">`, `?<Constant "t">`, `?<Constant "\\323">`
   \              ............
   \   00000144   ............       DC32 `?<Constant "U">`, `?<Constant "\\363">`, `?<Constant "u">`
   \              ............
   \   00000150   ............       DC32 `?<Constant "\\324">`, `?<Constant "F">`, `?<Constant "\\364">`
   \              ............
   \   0000015C   ............       DC32 `?<Constant "f">`, `?<Constant "\\325">`, `?<Constant "H">`
   \              ............
   \   00000168   ............       DC32 `?<Constant "\\365">`, `?<Constant "h">`, `?<Constant "\\326">`
   \              ............
   \   00000174   ............       DC32 `?<Constant "C">`, `?<Constant "\\366">`, `?<Constant "c">`
   \              ............
   \   00000180   ............       DC32 `?<Constant "\\327">`, `?<Constant "Ch">`, `?<Constant "\\367">`
   \              ............
   \   0000018C   ............       DC32 `?<Constant "ch">`, `?<Constant "\\330">`, `?<Constant "Sh">`
   \              ............
   \   00000198   ............       DC32 `?<Constant "\\370">`, `?<Constant "sh">`, `?<Constant "\\331">`
   \              ............
   \   000001A4   ............       DC32 `?<Constant "Sch">`, `?<Constant "\\371">`, `?<Constant "sch">`
   \              ............
   \   000001B0   ............       DC32 `?<Constant "\\332">`, `?<Constant "\\"">`, `?<Constant "\\372">`
   \              ............
   \   000001BC   ............       DC32 `?<Constant "\\"">`, `?<Constant "\\333">`, `?<Constant "Y">`
   \              ............
   \   000001C8   ............       DC32 `?<Constant "\\373">`, `?<Constant "Y">`, `?<Constant "\\334">`
   \              ............
   \   000001D4   ............       DC32 `?<Constant "\\'">`, `?<Constant "\\374">`, `?<Constant "\\'">`
   \              ............
   \   000001E0   ............       DC32 `?<Constant "\\335">`, `?<Constant "E">`, `?<Constant "\\375">`
   \              ............
   \   000001EC   ............       DC32 `?<Constant "e">`, `?<Constant "\\336">`, `?<Constant "Yu">`
   \              ............
   \   000001F8   ............       DC32 `?<Constant "\\376">`, `?<Constant "yu">`, `?<Constant "\\337">`
   \              ............
   \   00000204   ............       DC32 `?<Constant "Ya">`, `?<Constant "\\377">`, `?<Constant "ya">`
   \              ............
   \   00000210   ............       DC32 `?<Constant "">`, `?<Constant "">`
   \              ....        
    519          {
    520           {"\xC0","A"}, {"\xE0","a"},
    521           {"\xC1","B"}, {"\xE1","b"},
    522           {"\xC2","V"}, {"\xE2","v"},
    523           {"\xC3","G"}, {"\xE3","g"},
    524           {"\xC4","D"}, {"\xE4","d"},
    525           {"\xC5","E"}, {"\xE5","e"},
    526           {"\xA8","Yo"}, {"\xB8","yo"},
    527           {"\xC6","J"}, {"\xE6","j"},
    528           {"\xC7","Z"}, {"\xE7","z"},
    529           {"\xC8","I"}, {"\xE8","i"},
    530           {"\xC9","Y"}, {"\xE9","y"},
    531           {"\xCA","K"}, {"\xEA","k"},
    532           {"\xCB","L"}, {"\xEB","l"},
    533           {"\xCC","M"}, {"\xEC","m"},
    534           {"\xCD","N"}, {"\xED","n"},
    535           {"\xCE","O"}, {"\xEE","o"},
    536           {"\xCF","P"}, {"\xEF","p"},
    537           {"\xD0","R"}, {"\xF0","r"},
    538           {"\xD1","S"}, {"\xF1","s"},
    539           {"\xD2","T"}, {"\xF2","t"},
    540           {"\xD3","U"}, {"\xF3","u"},
    541           {"\xD4","F"}, {"\xF4","f"},
    542           {"\xD5","H"}, {"\xF5","h"},
    543           {"\xD6","C"}, {"\xF6","c"},
    544           {"\xD7","Ch"}, {"\xF7","ch"},
    545           {"\xD8","Sh"}, {"\xF8","sh"},
    546           {"\xD9","Sch"}, {"\xF9","sch"},
    547           {"\xDA","\""}, {"\xFA","\""},
    548           {"\xDB","Y"}, {"\xFB","Y"},
    549           {"\xDC","'"}, {"\xFC","'"},
    550           {"\xDD","E"}, {"\xFD","e"},
    551           {"\xDE","Yu"}, {"\xFE","yu"},
    552           {"\xDF","Ya"}, {"\xFF","ya"},
    553           "",""
    554          };
    555          /*
    556          WSHDR *translit(WSHDR *ws0)
    557          {
    558            int wlen, i, c, c1;
    559            const trstruct *p;
    560            char *txt;
    561            WSHDR *tws;
    562            extern int char16to8(int c);
    563            if(!ws0 || !(wlen=ws0->wsbody[0])) return 0;
    564            txt=malloc(wlen*2);
    565            zeromem(txt, wlen*2);
    566            for(i=0; i<wlen; i++)
    567            {
    568              c=ws0->wsbody[i+1];
    569              if(c<0x80)
    570              {
    571                txt[strlen(txt)]=c;
    572                continue;
    573              }
    574              c=char16to8(c)&0xff;
    575              p=tr_r;
    576              while((p->r) && (p->e))
    577              {
    578                c1=*(p->r);
    579                if(c1==c) strcat(txt, p->e);
    580                p++;
    581              }
    582              if(p->r) continue;
    583              else txt[strlen(txt)]=c;
    584            }
    585            tws=AllocWS(strlen(txt));
    586            wsprintf(tws,txt);
    587            mfree(txt);
    588            return (tws);
    589          }
    590          
    591          0x105, 'a'
    592          0x107, 'c'
    593          0x119, 'e'
    594          0xF3, 'o'
    595          0x142, 'l'
    596          0x144, 'n'
    597          0x15B, 's'
    598          0x17C, 'z'
    599          0x17A, 'z'*/
    600          extern int char16to8(int c); //string_works.c

   \                                 In segment CODE, align 4, keep-with-next
    601          WSHDR *translit(WSHDR *ws0)
    602          {
   \                     translit:
   \   00000000   F0412DE9           PUSH     {R4-R8,LR}
   \   00000004   0050A0E1           MOV      R5,R0
    603            int c;
    604            int wlen;
    605            if(!(wlen=ws0->wsbody[0])) return ws0;
   \   00000008   000095E5           LDR      R0,[R5, #+0]
   \   0000000C   B060D0E1           LDRH     R6,[R0, #+0]
   \   00000010   000056E3           CMP      R6,#+0
   \   00000014   1100000A           BEQ      ??translit_1
    606            char *txt=malloc(wlen*2);
   \   00000018   8670A0E1           LSL      R7,R6,#+1
   \   0000001C   0700A0E1           MOV      R0,R7
   \   00000020   140000EF           SWI      +20
   \   00000024   0040A0E1           MOV      R4,R0
    607            zeromem(txt, wlen*2);
   \   00000028   0710A0E1           MOV      R1,R7
   \   0000002C   1D0100EF           SWI      +285
    608            for(int i=0; i<wlen; i++)
   \   00000030   0070A0E3           MOV      R7,#+0
   \   00000034   010056E3           CMP      R6,#+1
   \   00000038   240000AA           BGE      ??translit_2
    609            {
    610              c=ws0->wsbody[i+1];
    611              if(c<0x80) goto ADD;
    612              switch(c) //PL
    613              {
    614              case 0x105:c='a';goto ADD;
    615              case 0x107:c='c';goto ADD;
    616              case 0x119:c='e';goto ADD;
    617              case 0x0F3:c='o';goto ADD;
    618              case 0x142:c='l';goto ADD;
    619              case 0x144:c='n';goto ADD;
    620              case 0x15B:c='s';goto ADD;
    621              case 0x17C:
    622              case 0x17A:c='z';goto ADD;
    623              }
    624              if(c<0x400) goto ADD;
    625              c=char16to8(c);
    626              for(int j=0; j<66; j++)
    627              {
    628                if(c==*tr_r[j].r)
    629                {
    630          	c=0;
    631          	strcat(txt, tr_r[j].e);
    632          	j=66;
    633                }
    634              }
    635            ADD:
    636              if(c) txt[strlen(txt)]=c;
    637            }
    638            WSHDR *tws=AllocWS(strlen(txt));
   \                     ??translit_3:
   \   0000003C   0400A0E1           MOV      R0,R4
   \   00000040   1B0000EF           SWI      +27
   \   00000044   250100EF           SWI      +293
    639            wsprintf(tws,PERCENT_T,txt);
   \   00000048   ........           LDR      R1,??DataTable5  ;; PERCENT_T
   \   0000004C   0050A0E1           MOV      R5,R0
   \   00000050   0420A0E1           MOV      R2,R4
   \   00000054   240100EF           SWI      +292
    640            mfree(txt);
   \   00000058   0400A0E1           MOV      R0,R4
   \   0000005C   150000EF           SWI      +21
    641            return tws;
   \                     ??translit_1:
   \   00000060   0500A0E1           MOV      R0,R5
   \   00000064   F081BDE8           POP      {R4-R8,PC}       ;; return
   \                     ??translit_4:
   \   00000068   400E58E3           CMP      R8,#+1024
   \   0000006C   130000BA           BLT      ??translit_5
   \   00000070   0800A0E1           MOV      R0,R8
   \   00000074   ........           _BLF     char16to8,??char16to8??rA
   \   00000078   0080A0E1           MOV      R8,R0
   \   0000007C   0000A0E3           MOV      R0,#+0
   \                     ??translit_6:
   \   00000080   48119FE5           LDR      R1,??translit_7  ;; tr_r
   \   00000084   802191E7           LDR      R2,[R1, +R0, LSL #+3]
   \   00000088   0020D2E5           LDRB     R2,[R2, #+0]
   \   0000008C   020058E1           CMP      R8,R2
   \   00000090   0500001A           BNE      ??translit_8
   \   00000094   0080A0E3           MOV      R8,#+0
   \   00000098   800181E0           ADD      R0,R1,R0, LSL #+3
   \   0000009C   041090E5           LDR      R1,[R0, #+4]
   \   000000A0   0400A0E1           MOV      R0,R4
   \   000000A4   170000EF           SWI      +23
   \   000000A8   4200A0E3           MOV      R0,#+66
   \                     ??translit_8:
   \   000000AC   010080E2           ADD      R0,R0,#+1
   \   000000B0   420050E3           CMP      R0,#+66
   \   000000B4   F1FFFFBA           BLT      ??translit_6
   \                     ??translit_9:
   \   000000B8   000058E3           CMP      R8,#+0
   \   000000BC   0200000A           BEQ      ??translit_10
   \                     ??translit_5:
   \   000000C0   0400A0E1           MOV      R0,R4
   \   000000C4   1B0000EF           SWI      +27
   \   000000C8   0480C0E7           STRB     R8,[R0, +R4]
   \                     ??translit_10:
   \   000000CC   017087E2           ADD      R7,R7,#+1
   \                     ??translit_2:
   \   000000D0   060057E1           CMP      R7,R6
   \   000000D4   D8FFFFAA           BGE      ??translit_3
   \   000000D8   000095E5           LDR      R0,[R5, #+0]
   \   000000DC   870080E0           ADD      R0,R0,R7, LSL #+1
   \   000000E0   B280D0E1           LDRH     R8,[R0, #+2]
   \   000000E4   800058E3           CMP      R8,#+128
   \   000000E8   F2FFFFBA           BLT      ??translit_9
   \   000000EC   F30048E2           SUB      R0,R8,#+243
   \   000000F0   890050E3           CMP      R0,#+137
   \   000000F4   DBFFFF8A           BHI      ??translit_4
   \   000000F8   011F8FE2           ADR      R1,??translit_0
   \   000000FC   D01091E1           LDRSB    R1,[R1, R0]
   \   00000100   01F18FE0           ADD      PC,PC,R1, LSL #+2
   \                     ??translit_0:
   \   00000104   28D8D8D8           DC8      +40,+216,+216,+216
   \   00000108   D8D8D8D8           DC8      +216,+216,+216,+216
   \   0000010C   D8D8D8D8           DC8      +216,+216,+216,+216
   \   00000110   D8D8D8D8           DC8      +216,+216,+216,+216
   \   00000114   D8D822D8           DC8      +216,+216,+34,+216
   \   00000118   24D8D8D8           DC8      +36,+216,+216,+216
   \   0000011C   D8D8D8D8           DC8      +216,+216,+216,+216
   \   00000120   D8D8D8D8           DC8      +216,+216,+216,+216
   \   00000124   D8D8D8D8           DC8      +216,+216,+216,+216
   \   00000128   D8D826D8           DC8      +216,+216,+38,+216
   \   0000012C   D8D8D8D8           DC8      +216,+216,+216,+216
   \   00000130   D8D8D8D8           DC8      +216,+216,+216,+216
   \   00000134   D8D8D8D8           DC8      +216,+216,+216,+216
   \   00000138   D8D8D8D8           DC8      +216,+216,+216,+216
   \   0000013C   D8D8D8D8           DC8      +216,+216,+216,+216
   \   00000140   D8D8D8D8           DC8      +216,+216,+216,+216
   \   00000144   D8D8D8D8           DC8      +216,+216,+216,+216
   \   00000148   D8D8D8D8           DC8      +216,+216,+216,+216
   \   0000014C   D8D8D8D8           DC8      +216,+216,+216,+216
   \   00000150   D8D8D82A           DC8      +216,+216,+216,+42
   \   00000154   D82CD8D8           DC8      +216,+44,+216,+216
   \   00000158   D8D8D8D8           DC8      +216,+216,+216,+216
   \   0000015C   D8D8D8D8           DC8      +216,+216,+216,+216
   \   00000160   D8D8D8D8           DC8      +216,+216,+216,+216
   \   00000164   D8D8D8D8           DC8      +216,+216,+216,+216
   \   00000168   D8D8D8D8           DC8      +216,+216,+216,+216
   \   0000016C   2ED8D8D8           DC8      +46,+216,+216,+216
   \   00000170   D8D8D8D8           DC8      +216,+216,+216,+216
   \   00000174   D8D8D8D8           DC8      +216,+216,+216,+216
   \   00000178   D8D8D8D8           DC8      +216,+216,+216,+216
   \   0000017C   D8D8D8D8           DC8      +216,+216,+216,+216
   \   00000180   D8D8D8D8           DC8      +216,+216,+216,+216
   \   00000184   D8D8D8D8           DC8      +216,+216,+216,+216
   \   00000188   D8D8D830           DC8      +216,+216,+216,+48
   \   0000018C   D8300000           DC8      +216,+48,+0,+0
   \                     ??translit_11:
   \   00000190   6180A0E3           MOV      R8,#+97
   \   00000194   C9FFFFEA           B        ??translit_5
   \                     ??translit_12:
   \   00000198   6380A0E3           MOV      R8,#+99
   \   0000019C   C7FFFFEA           B        ??translit_5
   \                     ??translit_13:
   \   000001A0   6580A0E3           MOV      R8,#+101
   \   000001A4   C5FFFFEA           B        ??translit_5
   \                     ??translit_14:
   \   000001A8   6F80A0E3           MOV      R8,#+111
   \   000001AC   C3FFFFEA           B        ??translit_5
   \                     ??translit_15:
   \   000001B0   6C80A0E3           MOV      R8,#+108
   \   000001B4   C1FFFFEA           B        ??translit_5
   \                     ??translit_16:
   \   000001B8   6E80A0E3           MOV      R8,#+110
   \   000001BC   BFFFFFEA           B        ??translit_5
   \                     ??translit_17:
   \   000001C0   7380A0E3           MOV      R8,#+115
   \   000001C4   BDFFFFEA           B        ??translit_5
   \                     ??translit_18:
   \   000001C8   7A80A0E3           MOV      R8,#+122
   \   000001CC   BBFFFFEA           B        ??translit_5
   \                     ??translit_7:
   \   000001D0   ........           DC32     tr_r
    642          }
    643          

   \                                 In segment CODE, align 4, keep-with-next
    644          int add_translit(void *edsms_gui)
    645          {
   \                     add_translit:
   \   00000000   30402DE9           PUSH     {R4,R5,LR}
   \   00000004   2CD04DE2           SUB      SP,SP,#+44
   \   00000008   0040A0E1           MOV      R4,R0
    646            EDITCONTROL ec;
    647            EDIT_ExtractFocusedControl(edsms_gui,&ec);
   \   0000000C   0D10A0E1           MOV      R1,SP
   \   00000010   C60100EF           SWI      +454
    648            WSHDR *ws0=translit(ec.pWS);
   \   00000014   28009DE5           LDR      R0,[SP, #+40]
   \   00000018   ........           BL       translit
   \   0000001C   0050A0E1           MOV      R5,R0
    649            if(ws0!=ec.pWS)
   \   00000020   28009DE5           LDR      R0,[SP, #+40]
   \   00000024   000055E1           CMP      R5,R0
   \   00000028   0400000A           BEQ      ??add_translit_0
    650            {
    651              EDIT_SetTextToFocused(edsms_gui,ws0);
   \   0000002C   0510A0E1           MOV      R1,R5
   \   00000030   0400A0E1           MOV      R0,R4
   \   00000034   810100EF           SWI      +385
    652              FreeWS(ws0);
   \   00000038   0500A0E1           MOV      R0,R5
   \   0000003C   290100EF           SWI      +297
    653            }
    654            return 1;
   \                     ??add_translit_0:
   \   00000040   0100A0E3           MOV      R0,#+1
   \   00000044   2CD08DE2           ADD      SP,SP,#+44
   \   00000048   3080BDE8           POP      {R4,R5,PC}       ;; return
    655          }
    656          
    657          #endif

   \                                 In segment CODE, align 4, keep-with-next
    658          int Ed_SendSMS(void *gui)
    659          {
   \                     Ed_SendSMS:
   \   00000000   70402DE9           PUSH     {R4-R6,LR}
   \   00000004   2CD04DE2           SUB      SP,SP,#+44
   \   00000008   0060A0E1           MOV      R6,R0
    660            EDITCONTROL ec;
    661            USER_OP *uo=EDIT_GetUserPointer(gui);
   \   0000000C   DF0100EF           SWI      +479
   \   00000010   0040A0E1           MOV      R4,R0
    662            NUM_LIST *nl=(NUM_LIST *)(uo->nltop);
   \   00000014   085094E5           LDR      R5,[R4, #+8]
    663            if(!(IsHaveNumInList(uo)))
   \   00000018   ........           _BLF     IsHaveNumInList,??IsHaveNumInList??rA
   \   0000001C   000050E3           CMP      R0,#+0
   \   00000020   0600001A           BNE      ??Ed_SendSMS_0
    664            {
    665              MsgBoxError(1, (int)lgp.LGP_ERR_0NUM);
   \   00000024   28019FE5           LDR      R0,??Ed_SendSMS_1  ;; lgp + 56
   \   00000028   001090E5           LDR      R1,[R0, #+0]
   \                     ??Ed_SendSMS_2:
   \   0000002C   0100A0E3           MOV      R0,#+1
   \   00000030   4E0000EF           SWI      +78
    666              return 0;
   \   00000034   0000A0E3           MOV      R0,#+0
   \   00000038   2CD08DE2           ADD      SP,SP,#+44
   \   0000003C   7080BDE8           POP      {R4-R6,PC}
    667            }
    668            ExtractEditControl(gui,uo->focus_n,&ec);
   \                     ??Ed_SendSMS_0:
   \   00000040   181094E5           LDR      R1,[R4, #+24]
   \   00000044   0D20A0E1           MOV      R2,SP
   \   00000048   0600A0E1           MOV      R0,R6
   \   0000004C   690100EF           SWI      +361
    669            if(!(ec.pWS->wsbody[0]))
   \   00000050   28009DE5           LDR      R0,[SP, #+40]
   \   00000054   000090E5           LDR      R0,[R0, #+0]
   \   00000058   B000D0E1           LDRH     R0,[R0, #+0]
   \   0000005C   000050E3           CMP      R0,#+0
   \   00000060   2500001A           BNE      ??Ed_SendSMS_3
    670            {
    671              MsgBoxError(1, (int)"Nothing For Sent!");
   \   00000064   EC109FE5           LDR      R1,??Ed_SendSMS_1+0x4  ;; `?<Constant "Nothing For Sent!">`
   \   00000068   EFFFFFEA           B        ??Ed_SendSMS_2
    672              return 0;
    673            }
    674            while(nl)
    675            {
    676              if(strlen(nl->num))
   \                     ??Ed_SendSMS_4:
   \   0000006C   080085E2           ADD      R0,R5,#+8
   \   00000070   1B0000EF           SWI      +27
   \   00000074   000050E3           CMP      R0,#+0
   \   00000078   1E00000A           BEQ      ??Ed_SendSMS_5
    677              {
    678                WSHDR *ws=AllocWS(ec.pWS->wsbody[0]);
   \   0000007C   28009DE5           LDR      R0,[SP, #+40]
   \   00000080   000090E5           LDR      R0,[R0, #+0]
   \   00000084   B000D0E1           LDRH     R0,[R0, #+0]
   \   00000088   250100EF           SWI      +293
    679                wstrcpy(ws,ec.pWS);
   \   0000008C   28109DE5           LDR      R1,[SP, #+40]
   \   00000090   0060A0E1           MOV      R6,R0
   \   00000094   1F0100EF           SWI      +287
    680                SNEDSMS_CSM_ID=SendSMS(ws,nl->num,MMI_CEPID,MSG_SMS_RX-1,6);
   \   00000098   0600A0E3           MOV      R0,#+6
   \   0000009C   01002DE9           PUSH     {R0}
   \   000000A0   0230A0E3           MOV      R3,#+2
   \   000000A4   583C83E3           ORR      R3,R3,#0x5800
   \   000000A8   0920A0E3           MOV      R2,#+9
   \   000000AC   422C82E3           ORR      R2,R2,#0x4200
   \   000000B0   081085E2           ADD      R1,R5,#+8
   \   000000B4   0600A0E1           MOV      R0,R6
   \   000000B8   DA0100EF           SWI      +474
   \   000000BC   98109FE5           LDR      R1,??Ed_SendSMS_1+0x8  ;; SNEDSMS_CSM_ID
   \   000000C0   000081E5           STR      R0,[R1, #+0]
    681                if(CFG_ENA_SAVE_SENT) saveFile(ec.pWS, nl->num, uo->sd, TYPE_OUT, 2);
   \   000000C4   94009FE5           LDR      R0,??Ed_SendSMS_1+0xC  ;; CFG_ENA_SAVE_SENT
   \   000000C8   000090E5           LDR      R0,[R0, #+0]
   \   000000CC   04D08DE2           ADD      SP,SP,#+4
   \   000000D0   000050E3           CMP      R0,#+0
   \   000000D4   0700000A           BEQ      ??Ed_SendSMS_5
   \   000000D8   0200A0E3           MOV      R0,#+2
   \   000000DC   01002DE9           PUSH     {R0}
   \   000000E0   002094E5           LDR      R2,[R4, #+0]
   \   000000E4   0130A0E3           MOV      R3,#+1
   \   000000E8   2C009DE5           LDR      R0,[SP, #+44]
   \   000000EC   081085E2           ADD      R1,R5,#+8
   \   000000F0   ........           _BLF     saveFile,??saveFile??rA
   \   000000F4   04D08DE2           ADD      SP,SP,#+4
    682              }
    683              nl=nl->next;
   \                     ??Ed_SendSMS_5:
   \   000000F8   045095E5           LDR      R5,[R5, #+4]
    684            }
   \                     ??Ed_SendSMS_3:
   \   000000FC   000055E3           CMP      R5,#+0
   \   00000100   D9FFFF1A           BNE      ??Ed_SendSMS_4
    685            //草稿发送完成删除
    686            if(uo->sd && uo->sd->type==TYPE_DRAFT)
   \   00000104   000094E5           LDR      R0,[R4, #+0]
   \   00000108   000050E3           CMP      R0,#+0
   \   0000010C   0C00000A           BEQ      ??Ed_SendSMS_6
   \   00000110   081090E5           LDR      R1,[R0, #+8]
   \   00000114   040051E3           CMP      R1,#+4
   \   00000118   0900001A           BNE      ??Ed_SendSMS_6
    687            {
    688              if(!uo->sd->isfile) deleteDat(uo->sd, 0);
   \   0000011C   141090E5           LDR      R1,[R0, #+20]
   \   00000120   000051E3           CMP      R1,#+0
   \   00000124   0010A0E3           MOV      R1,#+0
   \   00000128   0100001A           BNE      ??Ed_SendSMS_7
   \   0000012C   ........           _BLF     deleteDat,??deleteDat??rA
   \   00000130   000000EA           B        ??Ed_SendSMS_8
    689              else deleteFile(uo->sd, 0);
   \                     ??Ed_SendSMS_7:
   \   00000134   ........           _BLF     deleteFile,??deleteFile??rA
    690              delSDList(uo->sd);
   \                     ??Ed_SendSMS_8:
   \   00000138   000094E5           LDR      R0,[R4, #+0]
   \   0000013C   ........           _BLF     delSDList,??delSDList??rA
    691              uo->sd=0;
   \   00000140   005084E5           STR      R5,[R4, #+0]
    692            }
    693            uo->nd_sfd=0;
   \                     ??Ed_SendSMS_6:
   \   00000144   245084E5           STR      R5,[R4, #+36]
    694            return 1;
   \   00000148   0100A0E3           MOV      R0,#+1
   \   0000014C   2CD08DE2           ADD      SP,SP,#+44
   \   00000150   7080BDE8           POP      {R4-R6,PC}       ;; return
   \                     ??Ed_SendSMS_1:
   \   00000154   ........           DC32     lgp + 56
   \   00000158   ........           DC32     `?<Constant "Nothing For Sent!">`
   \   0000015C   ........           DC32     SNEDSMS_CSM_ID
   \   00000160   ........           DC32     CFG_ENA_SAVE_SENT
    695          }
    696          

   \                                 In segment CODE, align 4, keep-with-next
    697          void Ed_SaveFile(WSHDR *txt, USER_OP *uo, int type)
    698          {
   \                     Ed_SaveFile:
   \   00000000   F0432DE9           PUSH     {R4-R9,LR}
   \   00000004   0140A0E1           MOV      R4,R1
    699            NUM_LIST *nl=(NUM_LIST *)(uo->nltop);
   \   00000008   089094E5           LDR      R9,[R4, #+8]
   \   0000000C   0070A0E1           MOV      R7,R0
   \   00000010   0280A0E1           MOV      R8,R2
    700            SMS_DATA *sdx=0;
   \   00000014   0050A0E3           MOV      R5,#+0
   \   00000018   0060A0E3           MOV      R6,#+0
   \   0000001C   000059E3           CMP      R9,#+0
   \   00000020   0B00000A           BEQ      ??Ed_SaveFile_0
    701            while(nl)
    702            {
    703              sdx=(SMS_DATA *)saveFile(txt, nl->num, uo->sd, type, 2);
   \                     ??Ed_SaveFile_1:
   \   00000024   0200A0E3           MOV      R0,#+2
   \   00000028   01002DE9           PUSH     {R0}
   \   0000002C   002094E5           LDR      R2,[R4, #+0]
   \   00000030   0830A0E1           MOV      R3,R8
   \   00000034   081089E2           ADD      R1,R9,#+8
   \   00000038   0700A0E1           MOV      R0,R7
   \   0000003C   ........           _BLF     saveFile,??saveFile??rA
    704              nl=nl->next;
   \   00000040   049099E5           LDR      R9,[R9, #+4]
   \   00000044   0060A0E1           MOV      R6,R0
    705            }
   \   00000048   000059E3           CMP      R9,#+0
   \   0000004C   04D08DE2           ADD      SP,SP,#+4
   \   00000050   F3FFFF1A           BNE      ??Ed_SaveFile_1
    706            if(type==TYPE_DRAFT && uo->sd && uo->sd->type==TYPE_DRAFT && (int)sdx!=1 && sdx!=0)
   \                     ??Ed_SaveFile_0:
   \   00000054   040058E3           CMP      R8,#+4
   \   00000058   1300001A           BNE      ??Ed_SaveFile_2
   \   0000005C   000094E5           LDR      R0,[R4, #+0]
   \   00000060   000050E3           CMP      R0,#+0
   \   00000064   1000000A           BEQ      ??Ed_SaveFile_2
   \   00000068   081090E5           LDR      R1,[R0, #+8]
   \   0000006C   040051E3           CMP      R1,#+4
   \   00000070   0D00001A           BNE      ??Ed_SaveFile_2
   \   00000074   010056E3           CMP      R6,#+1
   \   00000078   00005613           CMPNE    R6,#+0
   \   0000007C   0A00000A           BEQ      ??Ed_SaveFile_2
    707            {
    708              if(!uo->sd->isfile && uo->sd->id)
   \   00000080   141090E5           LDR      R1,[R0, #+20]
   \   00000084   000051E3           CMP      R1,#+0
   \   00000088   0400001A           BNE      ??Ed_SaveFile_3
   \   0000008C   0C1090E5           LDR      R1,[R0, #+12]
   \   00000090   000051E3           CMP      R1,#+0
   \   00000094   0100000A           BEQ      ??Ed_SaveFile_3
    709                deleteDat(uo->sd, 0);
   \   00000098   0010A0E3           MOV      R1,#+0
   \   0000009C   ........           _BLF     deleteDat,??deleteDat??rA
    710              delSDList(uo->sd);
   \                     ??Ed_SaveFile_3:
   \   000000A0   000094E5           LDR      R0,[R4, #+0]
   \   000000A4   ........           _BLF     delSDList,??delSDList??rA
    711              uo->sd=sdx;
   \   000000A8   006084E5           STR      R6,[R4, #+0]
    712            }
    713            uo->nd_sfd=0;
   \                     ??Ed_SaveFile_2:
   \   000000AC   245084E5           STR      R5,[R4, #+36]
    714            //readAllSMS();
    715          }
   \   000000B0   F083BDE8           POP      {R4-R9,PC}       ;; return
    716          
    717          #ifdef LANG_CN
    718          #define OPTION_N 5
    719          #define OPTION_N_N (OPTION_N-1)
    720          #else
    721          #define OPTION_N 6
    722          #define OPTION_N_N (OPTION_N-2)
    723          #endif

   \                                 In segment CODE, align 4, keep-with-next
    724          void on_adr_ec(USR_MENU_ITEM *item) //MENU WOULD BE CLOSED FIRST
    725          {
   \                     on_adr_ec:
   \   00000000   F0402DE9           PUSH     {R4-R7,LR}
   \   00000004   2CD04DE2           SUB      SP,SP,#+44
   \   00000008   0040A0E1           MOV      R4,R0
    726            if(item->type==0)
   \   0000000C   0010D4E5           LDRB     R1,[R4, #+0]
   \   00000010   040094E5           LDR      R0,[R4, #+4]
   \   00000014   000051E3           CMP      R1,#+0
   \   00000018   2100001A           BNE      ??on_adr_ec_2
    727            {
    728              USER_OP *uo=EDIT_GetUserPointer(item->user_pointer);
   \   0000001C   DF0100EF           SWI      +479
    729              switch(item->cur_item)
   \   00000020   B830D4E1           LDRH     R3,[R4, #+8]
   \   00000024   ........           LDR      R1,??DataTable5  ;; PERCENT_T
   \   00000028   ........           LDR      R2,??DataTable7  ;; lgp
   \   0000002C   050053E3           CMP      R3,#+5
   \   00000030   5C00008A           BHI      ??on_adr_ec_3
   \   00000034   015F8FE2           ADR      R5,??on_adr_ec_0
   \   00000038   0350D5E7           LDRB     R5,[R5, R3]
   \   0000003C   05F18FE0           ADD      PC,PC,R5, LSL #+2
   \                     ??on_adr_ec_0:
   \   00000040   0103050A           DC8      +1,+3,+5,+10
   \   00000044   14160000           DC8      +20,+22,+0,+0
    730              {
    731              case 0:
    732                wsprintf(item->ws, PERCENT_T, lgp.LGP_SEND);
   \                     ??on_adr_ec_4:
   \   00000048   442092E5           LDR      R2,[R2, #+68]
   \                     ??on_adr_ec_5:
   \   0000004C   020000EA           B        ??on_adr_ec_6
    733                break;
    734              case 1:
    735                wsprintf(item->ws, PERCENT_T, lgp.LGP_ADRBK);
   \                     ??on_adr_ec_7:
   \   00000050   082092E5           LDR      R2,[R2, #+8]
   \   00000054   000000EA           B        ??on_adr_ec_6
    736                break;
    737              case 2:
    738                wsprintf(item->ws, PERCENT_T, lgp.LGP_CANCEL);
   \                     ??on_adr_ec_8:
   \   00000058   402092E5           LDR      R2,[R2, #+64]
   \                     ??on_adr_ec_6:
   \   0000005C   0C0094E5           LDR      R0,[R4, #+12]
   \   00000060   240100EF           SWI      +292
   \                     ??on_adr_ec_9:
   \   00000064   2CD08DE2           ADD      SP,SP,#+44
   \   00000068   F080BDE8           POP      {R4-R7,PC}
    739                break;
    740              case 3:
    741                wsprintf(item->ws, PERCENT_T, (uo->sd->type==TYPE_DRAFT && uo->sd->isfile)?lgp.LGP_SAVE:lgp.LGP_SAVE_AS_DRAFT);
   \                     ??on_adr_ec_10:
   \   0000006C   000090E5           LDR      R0,[R0, #+0]
   \   00000070   083090E5           LDR      R3,[R0, #+8]
   \   00000074   040053E3           CMP      R3,#+4
   \   00000078   0300001A           BNE      ??on_adr_ec_11
   \   0000007C   140090E5           LDR      R0,[R0, #+20]
   \   00000080   000050E3           CMP      R0,#+0
   \   00000084   D8209215           LDRNE    R2,[R2, #+216]
   \   00000088   F3FFFF1A           BNE      ??on_adr_ec_6
   \                     ??on_adr_ec_11:
   \   0000008C   502092E5           LDR      R2,[R2, #+80]
   \   00000090   F1FFFFEA           B        ??on_adr_ec_6
    742                break;
    743              case 4:
    744                wsprintf(item->ws, PERCENT_T, lgp.LGP_TEMPLATE);
   \                     ??on_adr_ec_12:
   \   00000094   E82092E5           LDR      R2,[R2, #+232]
   \   00000098   EFFFFFEA           B        ??on_adr_ec_6
    745                break;
    746          #ifndef LANG_CN
    747              case 5:
    748                wsprintf(item->ws, PERCENT_T, lgp.LGP_TRANSLIT);
   \                     ??on_adr_ec_13:
   \   0000009C   082192E5           LDR      R2,[R2, #+264]
   \   000000A0   EDFFFFEA           B        ??on_adr_ec_6
    749                break;
    750          #endif
    751              }
    752            }
    753            else if(item->type==1)
   \                     ??on_adr_ec_2:
   \   000000A4   010051E3           CMP      R1,#+1
   \   000000A8   3E00001A           BNE      ??on_adr_ec_3
    754            {
    755              USER_OP *uo=EDIT_GetUserPointer(item->user_pointer);
   \   000000AC   DF0100EF           SWI      +479
   \   000000B0   0070A0E1           MOV      R7,R0
    756              DLG_CSM *dlg_csm=(DLG_CSM *)uo->dlg_csm;
    757              SGUI_ID *gstop=(SGUI_ID *)(dlg_csm->gstop);
    758              switch(item->cur_item)
   \   000000B4   B800D4E1           LDRH     R0,[R4, #+8]
   \   000000B8   045097E5           LDR      R5,[R7, #+4]
   \   000000BC   2C6095E5           LDR      R6,[R5, #+44]
   \   000000C0   050050E3           CMP      R0,#+5
   \   000000C4   3700008A           BHI      ??on_adr_ec_3
   \   000000C8   011F8FE2           ADR      R1,??on_adr_ec_1
   \   000000CC   0010D1E7           LDRB     R1,[R1, R0]
   \   000000D0   01F18FE0           ADD      PC,PC,R1, LSL #+2
   \                     ??on_adr_ec_1:
   \   000000D4   010E2213           DC8      +1,+14,+34,+19
   \   000000D8   2A2D0000           DC8      +42,+45,+0,+0
    759              {
    760              case 0:
    761                if((Ed_SendSMS(item->user_pointer))&&(gstop))
   \                     ??on_adr_ec_14:
   \   000000DC   040094E5           LDR      R0,[R4, #+4]
   \   000000E0   ........           BL       Ed_SendSMS
   \   000000E4   000050E3           CMP      R0,#+0
   \   000000E8   00005613           CMPNE    R6,#+0
   \   000000EC   2D00000A           BEQ      ??on_adr_ec_3
    762                {
    763          	GeneralFunc_flag1(gstop->id, 1);
   \   000000F0   040096E5           LDR      R0,[R6, #+4]
   \   000000F4   0110A0E3           MOV      R1,#+1
   \   000000F8   3D0100EF           SWI      +317
    764          	popGS(dlg_csm);
   \   000000FC   0500A0E1           MOV      R0,R5
   \   00000100   ........           _BLF     popGS,??popGS??rA
    765          	DoSendBackGround(dlg_csm);
   \   00000104   0500A0E1           MOV      R0,R5
   \   00000108   ........           _BLF     DoSendBackGround,??DoSendBackGround??rA
   \   0000010C   D4FFFFEA           B        ??on_adr_ec_9
    766                }
    767                break;
    768              case 1:
    769                CreateNAbCSM(dlg_csm, item->user_pointer, TYPE_SELECT);
   \                     ??on_adr_ec_15:
   \   00000110   041094E5           LDR      R1,[R4, #+4]
   \   00000114   0020A0E3           MOV      R2,#+0
   \   00000118   0500A0E1           MOV      R0,R5
   \   0000011C   ........           _BLF     CreateNAbCSM,??CreateNAbCSM??rA
   \   00000120   CFFFFFEA           B        ??on_adr_ec_9
    770                break;
    771              case 2:
    772                if(gstop)
    773                {
    774          	GeneralFunc_flag1(gstop->id, 1);
    775          	popGS(dlg_csm);
    776                }
    777                break;
    778              case 3:
    779                {
    780          	EDITCONTROL ec;
    781          	ExtractEditControl(item->user_pointer,uo->focus_n,&ec);
   \                     ??on_adr_ec_16:
   \   00000124   181097E5           LDR      R1,[R7, #+24]
   \   00000128   040094E5           LDR      R0,[R4, #+4]
   \   0000012C   0D20A0E1           MOV      R2,SP
   \   00000130   690100EF           SWI      +361
    782          	Ed_SaveFile(ec.pWS, uo, TYPE_DRAFT);
   \   00000134   28009DE5           LDR      R0,[SP, #+40]
   \   00000138   0420A0E3           MOV      R2,#+4
   \   0000013C   0710A0E1           MOV      R1,R7
   \   00000140   ........           BL       Ed_SaveFile
    783                }
    784                if(!uo->sd || (CFG_ENA_EXIT_SAVE_DRAFT && gstop))
   \   00000144   000097E5           LDR      R0,[R7, #+0]
   \   00000148   000050E3           CMP      R0,#+0
   \   0000014C   0500000A           BEQ      ??on_adr_ec_17
   \   00000150   58009FE5           LDR      R0,??on_adr_ec_18  ;; CFG_ENA_EXIT_SAVE_DRAFT
   \   00000154   000090E5           LDR      R0,[R0, #+0]
   \   00000158   000050E3           CMP      R0,#+0
   \   0000015C   1100000A           BEQ      ??on_adr_ec_3
   \                     ??on_adr_ec_19:
   \   00000160   000056E3           CMP      R6,#+0
   \   00000164   0F00000A           BEQ      ??on_adr_ec_3
   \                     ??on_adr_ec_17:
   \   00000168   040096E5           LDR      R0,[R6, #+4]
   \   0000016C   0110A0E3           MOV      R1,#+1
   \   00000170   3D0100EF           SWI      +317
   \   00000174   0500A0E1           MOV      R0,R5
   \   00000178   ........           _BLF     popGS,??popGS??rA
   \   0000017C   B8FFFFEA           B        ??on_adr_ec_9
    785                {
    786          	GeneralFunc_flag1(gstop->id, 1);
    787          	popGS(dlg_csm);
    788                }
    789                break;
    790              case 4:
    791                CreateTplMenu(item->user_pointer);
   \                     ??on_adr_ec_20:
   \   00000180   040094E5           LDR      R0,[R4, #+4]
   \   00000184   ........           _BLF     CreateTplMenu,??CreateTplMenu??rA
   \   00000188   B5FFFFEA           B        ??on_adr_ec_9
    792                break;
    793          #ifndef LANG_CN
    794              case 5:
    795                if(EDIT_GetFocus(item->user_pointer)==uo->focus_n)
   \                     ??on_adr_ec_21:
   \   0000018C   040094E5           LDR      R0,[R4, #+4]
   \   00000190   820100EF           SWI      +386
   \   00000194   181097E5           LDR      R1,[R7, #+24]
   \   00000198   010050E1           CMP      R0,R1
   \   0000019C   0100001A           BNE      ??on_adr_ec_3
    796          	add_translit(item->user_pointer);
   \   000001A0   040094E5           LDR      R0,[R4, #+4]
   \   000001A4   ........           BL       add_translit
    797                break;
    798          #endif
    799              }
    800            }
    801          }
   \                     ??on_adr_ec_3:
   \   000001A8   2CD08DE2           ADD      SP,SP,#+44       ;; stack cleaning
   \   000001AC   F080BDE8           POP      {R4-R7,PC}       ;; return
   \                     ??on_adr_ec_18:
   \   000001B0   ........           DC32     CFG_ENA_EXIT_SAVE_DRAFT
    802          

   \                                 In segment CODE, align 4, keep-with-next
    803          int edOnKey(GUI *data, GUI_MSG *msg)
    804          {
   \                     edOnKey:
   \   00000000   F0472DE9           PUSH     {R4-R10,LR}
   \   00000004   2CD04DE2           SUB      SP,SP,#+44
   \   00000008   0070A0E1           MOV      R7,R0
   \   0000000C   0180A0E1           MOV      R8,R1
    805          //0x29 keys, ENTER,no op
    806          //0x05 keys, Green
    807          //0x03 keys, ENTER,op
    808          //0x3D keys, ENTER,select char
    809          //0x1A keys, LSK
    810          //0x01 keys, RSK
    811          	USER_OP *uo=EDIT_GetUserPointer(data);
   \   00000010   DF0100EF           SWI      +479
   \   00000014   0040A0E1           MOV      R4,R0
    812          	int n=EDIT_GetFocus(data);
   \   00000018   0700A0E1           MOV      R0,R7
   \   0000001C   820100EF           SWI      +386
    813          	DLG_CSM *dlg_csm=(DLG_CSM *)(uo->dlg_csm);
   \   00000020   045094E5           LDR      R5,[R4, #+4]
   \   00000024   0090A0E1           MOV      R9,R0
    814          	SGUI_ID *gstop=(SGUI_ID *)(dlg_csm->gstop);
   \   00000028   2C6095E5           LDR      R6,[R5, #+44]
    815          	SMS_DATA *sdl=0;
    816          	
    817          	if(!IsUnlocked())
   \   0000002C   430000EF           SWI      +67
   \   00000030   000050E3           CMP      R0,#+0
   \   00000034   0300001A           BNE      ??edOnKey_0
    818          		TempLightOn(3, 0x7FFF);
   \   00000038   FF10A0E3           MOV      R1,#+255
   \   0000003C   7F1C81E3           ORR      R1,R1,#0x7F00
   \   00000040   0300A0E3           MOV      R0,#+3
   \   00000044   440000EF           SWI      +68
    819          		
    820          	if(msg->keys==0x05)
   \                     ??edOnKey_0:
   \   00000048   F220D8E1           LDRSH    R2,[R8, #+2]
   \   0000004C   0C1094E5           LDR      R1,[R4, #+12]
   \   00000050   040094E5           LDR      R0,[R4, #+4]
   \   00000054   050052E3           CMP      R2,#+5
   \   00000058   4600001A           BNE      ??edOnKey_1
    821          	{
    822          		if(uo->gui_type==ED_VIEW)
   \   0000005C   000051E3           CMP      R1,#+0
   \   00000060   1600001A           BNE      ??edOnKey_2
    823          		{
    824          			int update=0;
    825          			if(gstop->id==dlg_csm->gui_id)
   \   00000064   041096E5           LDR      R1,[R6, #+4]
   \   00000068   282095E5           LDR      R2,[R5, #+40]
   \   0000006C   0070A0E3           MOV      R7,#+0
   \   00000070   020051E1           CMP      R1,R2
    826          				update=1;
   \   00000074   0170A003           MOVEQ    R7,#+1
    827          			popGS(uo->dlg_csm);
   \   00000078   ........           _BLF     popGS,??popGS??rA
    828          			if(update)
   \   0000007C   001094E5           LDR      R1,[R4, #+0]
   \   00000080   000057E3           CMP      R7,#+0
   \   00000084   080091E5           LDR      R0,[R1, #+8]
   \   00000088   0500000A           BEQ      ??edOnKey_3
    829          				dlg_csm->gui_id=createEditGUI(uo->dlg_csm, uo->sd, (uo->sd->type==TYPE_DRAFT)?ED_EDIT:ED_REPLY, 0);
   \   0000008C   040050E3           CMP      R0,#+4
   \   00000090   040094E5           LDR      R0,[R4, #+4]
   \   00000094   0120A003           MOVEQ    R2,#+1
   \   00000098   0220A013           MOVNE    R2,#+2
   \   0000009C   0030A0E3           MOV      R3,#+0
   \   000000A0   1E0000EA           B        ??edOnKey_4
    830          			else
    831          				createEditGUI(uo->dlg_csm, uo->sd, (uo->sd->type==TYPE_DRAFT)?ED_EDIT:ED_REPLY, 0);
   \                     ??edOnKey_3:
   \   000000A4   040050E3           CMP      R0,#+4
   \   000000A8   040094E5           LDR      R0,[R4, #+4]
   \   000000AC   0120A003           MOVEQ    R2,#+1
   \   000000B0   0220A013           MOVNE    R2,#+2
   \   000000B4   0030A0E3           MOV      R3,#+0
   \   000000B8   ........           BL       createEditGUI
    832          			return 1;
   \   000000BC   190000EA           B        ??edOnKey_5
    833          		}
    834          		else if((uo->gui_type==ED_FVIEW)&&(uo->sd))
   \                     ??edOnKey_2:
   \   000000C0   050051E3           CMP      R1,#+5
   \   000000C4   2200001A           BNE      ??edOnKey_6
   \   000000C8   000094E5           LDR      R0,[R4, #+0]
   \   000000CC   000050E3           CMP      R0,#+0
   \   000000D0   1F00000A           BEQ      ??edOnKey_6
    835          		{
    836          			SMS_DATA *sd=SdCopyOne(uo->sd);
   \   000000D4   ........           _BLF     SdCopyOne,??SdCopyOne??rA
    837          			int update=0;
    838          			if(gstop->id==dlg_csm->gui_id)
   \   000000D8   281095E5           LDR      R1,[R5, #+40]
   \   000000DC   0070A0E1           MOV      R7,R0
   \   000000E0   040096E5           LDR      R0,[R6, #+4]
   \   000000E4   0080A0E3           MOV      R8,#+0
   \   000000E8   010050E1           CMP      R0,R1
    839          				update=1;
    840          			popGS(uo->dlg_csm);
   \   000000EC   040094E5           LDR      R0,[R4, #+4]
   \   000000F0   0180A003           MOVEQ    R8,#+1
   \   000000F4   ........           _BLF     popGS,??popGS??rA
    841          			if(update)
   \   000000F8   000094E5           LDR      R0,[R4, #+0]
   \   000000FC   000058E3           CMP      R8,#+0
   \   00000100   080090E5           LDR      R0,[R0, #+8]
   \   00000104   0A00000A           BEQ      ??edOnKey_7
    842          				dlg_csm->gui_id=createEditGUI(uo->dlg_csm, sd, (uo->sd->type==TYPE_DRAFT)?ED_FEDIT:ED_FREPLY, 0);
   \   00000108   040050E3           CMP      R0,#+4
   \   0000010C   040094E5           LDR      R0,[R4, #+4]
   \   00000110   0620A003           MOVEQ    R2,#+6
   \   00000114   0720A013           MOVNE    R2,#+7
   \   00000118   0030A0E3           MOV      R3,#+0
   \   0000011C   0710A0E1           MOV      R1,R7
   \                     ??edOnKey_4:
   \   00000120   ........           BL       createEditGUI
   \   00000124   280085E5           STR      R0,[R5, #+40]
   \                     ??edOnKey_5:
   \   00000128   0100A0E3           MOV      R0,#+1
   \                     ??edOnKey_8:
   \   0000012C   2CD08DE2           ADD      SP,SP,#+44
   \   00000130   F087BDE8           POP      {R4-R10,PC}
    843          			else
    844          				createEditGUI(uo->dlg_csm, sd, (uo->sd->type==TYPE_DRAFT)?ED_FEDIT:ED_FREPLY, 0);
   \                     ??edOnKey_7:
   \   00000134   040050E3           CMP      R0,#+4
   \   00000138   040094E5           LDR      R0,[R4, #+4]
   \   0000013C   0620A003           MOVEQ    R2,#+6
   \   00000140   0720A013           MOVNE    R2,#+7
   \   00000144   0030A0E3           MOV      R3,#+0
   \   00000148   0710A0E1           MOV      R1,R7
   \   0000014C   ........           BL       createEditGUI
    845          			return 1;
   \   00000150   F4FFFFEA           B        ??edOnKey_5
    846          		}
    847          		else
    848          		{
    849          			if(!Ed_SendSMS(data))
   \                     ??edOnKey_6:
   \   00000154   0700A0E1           MOV      R0,R7
   \   00000158   ........           BL       Ed_SendSMS
   \   0000015C   000050E3           CMP      R0,#+0
   \   00000160   E900000A           BEQ      ??edOnKey_9
    850          				return 0;
    851          			else
    852          			{
    853          			  popGS(uo->dlg_csm);
   \   00000164   040094E5           LDR      R0,[R4, #+4]
   \   00000168   ........           _BLF     popGS,??popGS??rA
    854          			  DoSendBackGround(uo->dlg_csm);
   \   0000016C   040094E5           LDR      R0,[R4, #+4]
   \   00000170   ........           _BLF     DoSendBackGround,??DoSendBackGround??rA
    855          			  return 1;
   \   00000174   EBFFFFEA           B        ??edOnKey_5
    856          			}
    857          		}
    858          		//popGS(uo->dlg_csm);
    859          		//return 1;
    860          	}
    861          	else if((msg->keys==0x29)&&((uo->gui_type==ED_VIEW)||(uo->gui_type==ED_FVIEW)))
   \                     ??edOnKey_1:
   \   00000178   00A0A0E3           MOV      R10,#+0
   \   0000017C   290052E3           CMP      R2,#+41
   \   00000180   0500001A           BNE      ??edOnKey_10
   \   00000184   000051E3           CMP      R1,#+0
   \   00000188   05005113           CMPNE    R1,#+5
   \   0000018C   2400001A           BNE      ??edOnKey_11
    862          	{
    863          		createEditOpMenu(data);
   \                     ??edOnKey_12:
   \   00000190   0700A0E1           MOV      R0,R7
   \   00000194   ........           BL       createEditOpMenu
   \   00000198   210000EA           B        ??edOnKey_11
    864          	}
    865          	else if(msg->keys==0x18)
   \                     ??edOnKey_10:
   \   0000019C   180052E3           CMP      R2,#+24
   \   000001A0   1400001A           BNE      ??edOnKey_13
    866          	{
    867          		if((uo->gui_type==ED_VIEW)||(uo->gui_type==ED_FVIEW))
   \   000001A4   000051E3           CMP      R1,#+0
   \   000001A8   05005113           CMPNE    R1,#+5
   \   000001AC   F7FFFF0A           BEQ      ??edOnKey_12
    868          		{
    869          			createEditOpMenu(data);
    870          		}
    871          		else
    872          		{
    873          			if(n==uo->focus_n)
   \                     ??edOnKey_14:
   \   000001B0   180094E5           LDR      R0,[R4, #+24]
   \   000001B4   58139FE5           LDR      R1,??edOnKey_15  ;; on_adr_ec
   \   000001B8   000059E1           CMP      R9,R0
   \   000001BC   0300001A           BNE      ??edOnKey_16
    874          			{
    875          				uo->adr_type=TYPE_TXT;
   \   000001C0   0200A0E3           MOV      R0,#+2
   \   000001C4   100084E5           STR      R0,[R4, #+16]
    876          				EDIT_OpenOptionMenuWithUserItems(data,on_adr_ec,data,OPTION_N);
   \   000001C8   0630A0E3           MOV      R3,#+6
   \   000001CC   040000EA           B        ??edOnKey_17
    877          			}
    878          			else if(n<=(uo->focus_n-2)) //号码位置
   \                     ??edOnKey_16:
   \   000001D0   020040E2           SUB      R0,R0,#+2
   \   000001D4   090050E1           CMP      R0,R9
   \   000001D8   040000BA           BLT      ??edOnKey_18
    879          			{
    880          				uo->adr_type=TYPE_SET;
   \   000001DC   10A084E5           STR      R10,[R4, #+16]
    881          				EDIT_OpenOptionMenuWithUserItems(data,on_adr_ec,data,OPTION_N_N);
   \   000001E0   0430A0E3           MOV      R3,#+4
   \                     ??edOnKey_17:
   \   000001E4   0720A0E1           MOV      R2,R7
   \   000001E8   0700A0E1           MOV      R0,R7
   \   000001EC   E50100EF           SWI      +485
    882          			}
    883          			return (-1);
   \                     ??edOnKey_18:
   \   000001F0   0A00E0E1           MVN      R0,R10
   \   000001F4   CCFFFFEA           B        ??edOnKey_8
    884          		}
    885          	}
    886          
    887          	else if(msg->keys==0x1)
   \                     ??edOnKey_13:
   \   000001F8   010052E3           CMP      R2,#+1
   \   000001FC   0100001A           BNE      ??edOnKey_19
    888          	{
    889          		popGS(uo->dlg_csm);
   \   00000200   ........           _BLF     popGS,??popGS??rA
    890          		return 1;
   \   00000204   C7FFFFEA           B        ??edOnKey_5
    891          	}
    892          	else if(msg->keys==0x0F00)
   \                     ??edOnKey_19:
   \   00000208   F00E52E3           CMP      R2,#+3840
   \   0000020C   0400001A           BNE      ??edOnKey_11
    893          	{
    894          		uo->adr_type=TYPE_SET;
   \   00000210   10A084E5           STR      R10,[R4, #+16]
    895          		CreateNAbCSM(dlg_csm, data, TYPE_SELECT);
   \   00000214   0020A0E3           MOV      R2,#+0
   \   00000218   0710A0E1           MOV      R1,R7
   \   0000021C   0500A0E1           MOV      R0,R5
   \   00000220   ........           _BLF     CreateNAbCSM,??CreateNAbCSM??rA
    896          	}
    897          	if(((msg->gbsmsg->msg==KEY_DOWN)||(msg->gbsmsg->msg==LONG_PRESS))&&(!EDIT_IsBusy(data)))
   \                     ??edOnKey_11:
   \   00000224   040098E5           LDR      R0,[R8, #+4]
   \   00000228   9320A0E3           MOV      R2,#+147
   \   0000022C   041090E5           LDR      R1,[R0, #+4]
   \   00000230   402F82E3           ORR      R2,R2,#0x100
   \   00000234   020051E1           CMP      R1,R2
   \   00000238   0300000A           BEQ      ??edOnKey_20
   \   0000023C   0100A0E1           MOV      R0,R1
   \   00000240   021082E2           ADD      R1,R2,#+2
   \   00000244   010050E1           CMP      R0,R1
   \   00000248   AE00001A           BNE      ??edOnKey_21
   \                     ??edOnKey_20:
   \   0000024C   0700A0E1           MOV      R0,R7
   \   00000250   1C0200EF           SWI      +540
   \   00000254   000050E3           CMP      R0,#+0
   \   00000258   AA00001A           BNE      ??edOnKey_21
    898          	{
    899          		int i=msg->gbsmsg->submess;
   \   0000025C   040098E5           LDR      R0,[R8, #+4]
    900          		EDITCONTROL ec;
    901          		ExtractEditControl(data,n,&ec);
   \   00000260   0D20A0E1           MOV      R2,SP
   \   00000264   088090E5           LDR      R8,[R0, #+8]
   \   00000268   0910A0E1           MOV      R1,R9
   \   0000026C   0700A0E1           MOV      R0,R7
   \   00000270   690100EF           SWI      +361
    902          		//中键
    903          		if((i==ENTER_BUTTON)&&(uo->gui_type!=ED_VIEW)&&(uo->gui_type!=ED_FVIEW))
   \   00000274   1A0058E3           CMP      R8,#+26
   \   00000278   0500001A           BNE      ??edOnKey_22
   \   0000027C   0C0094E5           LDR      R0,[R4, #+12]
   \   00000280   000050E3           CMP      R0,#+0
   \   00000284   A000000A           BEQ      ??edOnKey_9
   \   00000288   050050E3           CMP      R0,#+5
   \   0000028C   C7FFFF1A           BNE      ??edOnKey_14
   \   00000290   9C0000EA           B        ??edOnKey_21
    904          		{
    905          			if(n==uo->focus_n)
    906          			{
    907          				uo->adr_type=TYPE_TXT;
    908          				EDIT_OpenOptionMenuWithUserItems(data,on_adr_ec,data,OPTION_N);
    909          				//EDIT_OpenOptionMenuWithUserItems(data,on_ed_ec,data,3);
    910          			}
    911          			else if(n<=(uo->focus_n-2)) //号码位置
    912          			{
    913          				uo->adr_type=TYPE_SET;
    914          				EDIT_OpenOptionMenuWithUserItems(data,on_adr_ec,data,OPTION_N_N);
    915          			}
    916          			return (-1);
    917          		}
    918          		//上方向, 侧上键
    919          		if(((i==UP_BUTTON)||(i==VOL_UP_BUTTON)) //循环
    920          				&&(n==1)
    921          				&&(!(EDIT_IsMarkModeActive(data)))
    922          				&&(EDIT_GetCursorPos(data)<=1)) //第一行第一个字符
   \                     ??edOnKey_22:
   \   00000294   3B0058E3           CMP      R8,#+59
   \   00000298   0D005813           CMPNE    R8,#+13
   \   0000029C   01005903           CMPEQ    R9,#+1
   \   000002A0   0C00001A           BNE      ??edOnKey_23
   \   000002A4   0700A0E1           MOV      R0,R7
   \   000002A8   D80100EF           SWI      +472
   \   000002AC   000050E3           CMP      R0,#+0
   \   000002B0   0800001A           BNE      ??edOnKey_23
   \   000002B4   0700A0E1           MOV      R0,R7
   \   000002B8   D30100EF           SWI      +467
   \   000002BC   020050E3           CMP      R0,#+2
   \   000002C0   040000AA           BGE      ??edOnKey_23
    923          		{
    924          			EDIT_SetFocus(data, uo->focus_n);
   \   000002C4   181094E5           LDR      R1,[R4, #+24]
   \   000002C8   0700A0E1           MOV      R0,R7
   \   000002CC   9B0100EF           SWI      +411
    925          			return (-1);
   \   000002D0   0A00E0E1           MVN      R0,R10
   \   000002D4   94FFFFEA           B        ??edOnKey_8
    926          		}
    927          		//下方向, 侧下键
    928          		if(((i==DOWN_BUTTON)||(i==VOL_DOWN_BUTTON))
    929          				&&(n==uo->focus_n)
    930          				&&(!(EDIT_IsMarkModeActive(data)))
    931          				&&(EDIT_GetCursorPos(data)>=(ec.pWS->wsbody[0]+1))) //最后一个字
   \                     ??edOnKey_23:
   \   000002D8   3C0058E3           CMP      R8,#+60
   \   000002DC   0E005813           CMPNE    R8,#+14
   \   000002E0   18009405           LDREQ    R0,[R4, #+24]
   \   000002E4   00005901           CMPEQ    R9,R0
   \   000002E8   1000001A           BNE      ??edOnKey_24
   \   000002EC   0700A0E1           MOV      R0,R7
   \   000002F0   D80100EF           SWI      +472
   \   000002F4   000050E3           CMP      R0,#+0
   \   000002F8   0C00001A           BNE      ??edOnKey_24
   \   000002FC   0700A0E1           MOV      R0,R7
   \   00000300   D30100EF           SWI      +467
   \   00000304   28109DE5           LDR      R1,[SP, #+40]
   \   00000308   001091E5           LDR      R1,[R1, #+0]
   \   0000030C   B010D1E1           LDRH     R1,[R1, #+0]
   \   00000310   011081E2           ADD      R1,R1,#+1
   \   00000314   010050E1           CMP      R0,R1
   \   00000318   040000BA           BLT      ??edOnKey_24
    932          		{
    933          			EDIT_SetFocus(data, 1);
   \   0000031C   0110A0E3           MOV      R1,#+1
   \   00000320   0700A0E1           MOV      R0,R7
   \   00000324   9B0100EF           SWI      +411
    934          			return (-1);
   \   00000328   0A00E0E1           MVN      R0,R10
   \   0000032C   7EFFFFEA           B        ??edOnKey_8
    935          		}
    936          		//右方向键,下一条
    937          		if((i==RIGHT_BUTTON)&&(uo->gui_type==ED_VIEW)&&(sdl=FindNextByType(uo->sd, uo->list_type)))
   \                     ??edOnKey_24:
   \   00000330   141094E5           LDR      R1,[R4, #+20]
   \   00000334   0C2094E5           LDR      R2,[R4, #+12]
   \   00000338   000094E5           LDR      R0,[R4, #+0]
   \   0000033C   3E0058E3           CMP      R8,#+62
   \   00000340   1300001A           BNE      ??edOnKey_25
   \   00000344   000052E3           CMP      R2,#+0
   \   00000348   2600001A           BNE      ??edOnKey_26
   \   0000034C   ........           _BLF     FindNextByType,??FindNextByType??rA
   \   00000350   0070B0E1           MOVS     R7,R0
   \   00000354   2300000A           BEQ      ??edOnKey_26
    938          		{
    939          			int update=0;
    940          			if(gstop->id==dlg_csm->gui_id)
   \   00000358   040096E5           LDR      R0,[R6, #+4]
   \   0000035C   281095E5           LDR      R1,[R5, #+40]
   \   00000360   0080A0E3           MOV      R8,#+0
   \   00000364   010050E1           CMP      R0,R1
    941          				update=1;
    942          			popGS(uo->dlg_csm);
   \   00000368   040094E5           LDR      R0,[R4, #+4]
   \   0000036C   0180A003           MOVEQ    R8,#+1
   \   00000370   ........           _BLF     popGS,??popGS??rA
    943          			if(update)
   \   00000374   143094E5           LDR      R3,[R4, #+20]
   \   00000378   040094E5           LDR      R0,[R4, #+4]
   \   0000037C   000058E3           CMP      R8,#+0
   \   00000380   0020A0E3           MOV      R2,#+0
   \   00000384   0710A0E1           MOV      R1,R7
   \   00000388   64FFFF1A           BNE      ??edOnKey_4
    944          				dlg_csm->gui_id=createEditGUI(uo->dlg_csm, sdl, ED_VIEW, uo->list_type);
    945          			else
    946          				createEditGUI(uo->dlg_csm, sdl, ED_VIEW, uo->list_type);
   \                     ??edOnKey_27:
   \   0000038C   ........           BL       createEditGUI
    947          			return 1;
   \   00000390   64FFFFEA           B        ??edOnKey_5
    948          		}
    949          		if((i==RIGHT_BUTTON)&&(uo->gui_type==ED_FVIEW)&&(sdl=FindNextMss(uo->sd)))
    950          		{
    951          			int update=0;
    952          			if(gstop->id==dlg_csm->gui_id)
    953          				update=1;
    954          			popGS(uo->dlg_csm);
    955          			if(update)
    956          				dlg_csm->gui_id=createEditGUI(uo->dlg_csm, sdl, ED_FVIEW, 0);
    957          			else
    958          				createEditGUI(uo->dlg_csm, sdl, ED_FVIEW, 0);
    959          			return 1;
    960          		}
    961          		//左方向键,上一条
    962          		if((i==LEFT_BUTTON)&&(uo->gui_type==ED_VIEW)&&(sdl=FindPrevByType(uo->sd, uo->list_type)))
   \                     ??edOnKey_25:
   \   00000394   3D0058E3           CMP      R8,#+61
   \   00000398   2A00001A           BNE      ??edOnKey_28
   \   0000039C   000052E3           CMP      R2,#+0
   \   000003A0   3B00001A           BNE      ??edOnKey_29
   \   000003A4   ........           _BLF     FindPrevByType,??FindPrevByType??rA
   \   000003A8   0070B0E1           MOVS     R7,R0
   \   000003AC   3800000A           BEQ      ??edOnKey_29
    963          		{
    964          			int update=0;
    965          			if(gstop->id==dlg_csm->gui_id)
   \   000003B0   040096E5           LDR      R0,[R6, #+4]
   \   000003B4   281095E5           LDR      R1,[R5, #+40]
   \   000003B8   0080A0E3           MOV      R8,#+0
   \   000003BC   010050E1           CMP      R0,R1
    966          				update=1;
    967          			popGS(uo->dlg_csm);
   \   000003C0   040094E5           LDR      R0,[R4, #+4]
   \   000003C4   0180A003           MOVEQ    R8,#+1
   \   000003C8   ........           _BLF     popGS,??popGS??rA
    968          			if(update)
   \   000003CC   143094E5           LDR      R3,[R4, #+20]
   \   000003D0   040094E5           LDR      R0,[R4, #+4]
   \   000003D4   000058E3           CMP      R8,#+0
   \   000003D8   0020A0E3           MOV      R2,#+0
   \   000003DC   0710A0E1           MOV      R1,R7
   \   000003E0   1600000A           BEQ      ??edOnKey_30
    969          				dlg_csm->gui_id=createEditGUI(uo->dlg_csm, sdl, ED_VIEW, uo->list_type);
   \   000003E4   4DFFFFEA           B        ??edOnKey_4
   \                     ??edOnKey_26:
   \   000003E8   0C0094E5           LDR      R0,[R4, #+12]
   \   000003EC   050050E3           CMP      R0,#+5
   \   000003F0   4400001A           BNE      ??edOnKey_21
   \   000003F4   000094E5           LDR      R0,[R4, #+0]
   \   000003F8   ........           _BLF     FindNextMss,??FindNextMss??rA
   \   000003FC   0070B0E1           MOVS     R7,R0
   \   00000400   4000000A           BEQ      ??edOnKey_21
   \   00000404   040096E5           LDR      R0,[R6, #+4]
   \   00000408   281095E5           LDR      R1,[R5, #+40]
   \   0000040C   0080A0E3           MOV      R8,#+0
   \   00000410   010050E1           CMP      R0,R1
   \   00000414   040094E5           LDR      R0,[R4, #+4]
   \   00000418   0180A003           MOVEQ    R8,#+1
   \   0000041C   ........           _BLF     popGS,??popGS??rA
   \   00000420   040094E5           LDR      R0,[R4, #+4]
   \   00000424   000058E3           CMP      R8,#+0
   \   00000428   0030A0E3           MOV      R3,#+0
   \   0000042C   0520A0E3           MOV      R2,#+5
   \   00000430   0710A0E1           MOV      R1,R7
   \   00000434   39FFFF1A           BNE      ??edOnKey_4
   \                     ??edOnKey_31:
   \   00000438   ........           BL       createEditGUI
   \   0000043C   39FFFFEA           B        ??edOnKey_5
    970          			else
    971          				createEditGUI(uo->dlg_csm, sdl, ED_VIEW, uo->list_type);
   \                     ??edOnKey_30:
   \   00000440   ........           BL       createEditGUI
    972          			return 1;
   \   00000444   37FFFFEA           B        ??edOnKey_5
    973          		}
    974          		if((i==LEFT_BUTTON)&&(uo->gui_type==ED_FVIEW)&&(sdl=FindPrevMss(uo->sd)))
    975          		{
    976          			int update=0;
    977          			if(gstop->id==dlg_csm->gui_id)
    978          				update=1;
    979          			popGS(uo->dlg_csm);
    980          			if(update)
    981          				dlg_csm->gui_id=createEditGUI(uo->dlg_csm, sdl, ED_FVIEW, 0);
    982          			else
    983          				createEditGUI(uo->dlg_csm, sdl, ED_FVIEW, 0);
    984          			return 1;
    985          		}
    986          		//*键,查看号码信息
    987          		if((i=='*')&&((uo->gui_type==ED_VIEW)||(uo->gui_type==ED_FVIEW))&&(uo->sd))
   \                     ??edOnKey_28:
   \   00000448   2A0058E3           CMP      R8,#+42
   \   0000044C   2D00001A           BNE      ??edOnKey_21
   \   00000450   000052E3           CMP      R2,#+0
   \   00000454   05005213           CMPNE    R2,#+5
   \   00000458   2A00001A           BNE      ??edOnKey_21
   \   0000045C   000050E3           CMP      R0,#+0
   \   00000460   2900000A           BEQ      ??edOnKey_9
    988          		{
    989          			NUM_LIST *nl=(NUM_LIST *)(uo->nltop);
   \   00000464   085094E5           LDR      R5,[R4, #+8]
    990          			WSHDR *msg=AllocWS(128);
   \   00000468   8000A0E3           MOV      R0,#+128
   \   0000046C   250100EF           SWI      +293
    991          		#ifdef NO_CS
    992          			wsprintf(msg, "%t:\n%s", (uo->sd->type==TYPE_OUT||uo->sd->type==TYPE_DRAFT)?lgp.LGP_TO:lgp.LGP_FROM, nl->num);
   \   00000470   ........           LDR      R1,??DataTable7  ;; lgp
   \   00000474   0060A0E1           MOV      R6,R0
   \   00000478   000094E5           LDR      R0,[R4, #+0]
   \   0000047C   082090E5           LDR      R2,[R0, #+8]
   \   00000480   010052E3           CMP      R2,#+1
   \   00000484   04005213           CMPNE    R2,#+4
   \   00000488   70209115           LDRNE    R2,[R1, #+112]
   \   0000048C   1C219105           LDREQ    R2,[R1, #+284]
   \   00000490   150000EA           B        ??edOnKey_32
   \                     ??edOnKey_29:
   \   00000494   0C0094E5           LDR      R0,[R4, #+12]
   \   00000498   050050E3           CMP      R0,#+5
   \   0000049C   1900001A           BNE      ??edOnKey_21
   \   000004A0   000094E5           LDR      R0,[R4, #+0]
   \   000004A4   ........           _BLF     FindPrevMss,??FindPrevMss??rA
   \   000004A8   0070B0E1           MOVS     R7,R0
   \   000004AC   1500000A           BEQ      ??edOnKey_21
   \   000004B0   040096E5           LDR      R0,[R6, #+4]
   \   000004B4   281095E5           LDR      R1,[R5, #+40]
   \   000004B8   0080A0E3           MOV      R8,#+0
   \   000004BC   010050E1           CMP      R0,R1
   \   000004C0   040094E5           LDR      R0,[R4, #+4]
   \   000004C4   0180A003           MOVEQ    R8,#+1
   \   000004C8   ........           _BLF     popGS,??popGS??rA
   \   000004CC   040094E5           LDR      R0,[R4, #+4]
   \   000004D0   000058E3           CMP      R8,#+0
   \   000004D4   0030A0E3           MOV      R3,#+0
   \   000004D8   0520A0E3           MOV      R2,#+5
   \   000004DC   0710A0E1           MOV      R1,R7
   \   000004E0   0EFFFF1A           BNE      ??edOnKey_4
   \                     ??edOnKey_33:
   \   000004E4   ........           BL       createEditGUI
   \   000004E8   0EFFFFEA           B        ??edOnKey_5
   \                     ??edOnKey_32:
   \   000004EC   24109FE5           LDR      R1,??edOnKey_15+0x4  ;; `?<Constant "%t:\\n%s">`
   \   000004F0   083085E2           ADD      R3,R5,#+8
   \   000004F4   0600A0E1           MOV      R0,R6
   \   000004F8   240100EF           SWI      +292
    993          		#else
    994          			{
    995          				char num[32];
    996          				WSHDR csloc, *cs;
    997          				unsigned short csb[30];
    998          				cs=CreateLocalWS(&csloc,csb,30);
    999          				strcpy(num, nl->num);
   1000          				GetProvAndCity(cs->wsbody, num);
   1001          				wsprintf(msg, "%t:\n%s\n%t:\n%w", (uo->sd->type==TYPE_OUT||uo->sd->type==TYPE_DRAFT)?lgp.LGP_TO:lgp.LGP_FROM, nl->num, lgp.LGP_CODESHOW, cs);
   1002          			}
   1003          		#endif
   1004          			ShowMSG_ws(1, msg);
   \   000004FC   0610A0E1           MOV      R1,R6
   \   00000500   0100A0E3           MOV      R0,#+1
   \   00000504   ........           _BLF     ShowMSG_ws,??ShowMSG_ws??rA
   1005          		}
   1006          	}
   1007          	return 0;
   \                     ??edOnKey_21:
   \   00000508   0000A0E3           MOV      R0,#+0
   \                     ??edOnKey_9:
   \   0000050C   2CD08DE2           ADD      SP,SP,#+44       ;; stack cleaning
   \   00000510   F087BDE8           POP      {R4-R10,PC}      ;; return
   \                     ??edOnKey_15:
   \   00000514   ........           DC32     on_adr_ec
   \   00000518   ........           DC32     `?<Constant "%t:\\n%s">`
   1008          }
   1009          
   1010          
   1011          SOFTKEY_DESC SK_OPTIONS={0x0018,0x0000,(int)LGP_NULL};
   1012          SOFTKEY_DESC SK_ADRBK={0x0F00,0x0000,(int)LGP_NULL};
   1013          SOFTKEY_DESC SK_CANCEL={0x0001,0x0000,(int)LGP_NULL};
   1014          SOFTKEY_DESC SK_OP_PIC={0x0029,0x0000,(int)LGP_OPTION_PIC};
   1015          
   1016          #define TI_CMD_GOTOTOP 0x5
   1017          
   1018          //const int ed_hdr_icon[]={0x4BD,0};
   1019          #ifdef NEWSGOLD
   1020          #ifdef ELKA
   1021          int EDHDRIC_VIEW[]={0x2A5,0};
   1022          int EDHDRIC_EDIT[]={0x4DB,0};
   1023          int EDHDRIC_ADRBK[]={0x28C,0};
   1024          #else
   1025          int EDHDRIC_VIEW[]={0x29A,0};
   1026          int EDHDRIC_EDIT[]={0x505,0};
   1027          int EDHDRIC_ADRBK[]={0x1A1,0};
   1028          #endif
   1029          #endif
   1030          //extern void SetHeaderIcon(void *hdr_pointer, const int *icon, void *malloc_adr, void *mfree_adr);

   \                                 In segment CODE, align 4, keep-with-next
   1031          void edGHook(GUI *data, int cmd)
   1032          {
   \                     edGHook:
   \   00000000   F04F2DE9           PUSH     {R4-R11,LR}
   \   00000004   B8D04DE2           SUB      SP,SP,#+184
   \   00000008   40DD4DE2           SUB      SP,SP,#+4096
   \   0000000C   0040A0E1           MOV      R4,R0
   \   00000010   0160A0E1           MOV      R6,R1
   1033            USER_OP *uo=EDIT_GetUserPointer(data);
   \   00000014   DF0100EF           SWI      +479
   \   00000018   0050A0E1           MOV      R5,R0
   1034            if(cmd==TI_CMD_CREATE)
   \   0000001C   0C1095E5           LDR      R1,[R5, #+12]
   \   00000020   020056E3           CMP      R6,#+2
   \   00000024   0600001A           BNE      ??edGHook_1
   1035            {
   1036              if((uo->gui_type==ED_VIEW)||(uo->gui_type==ED_FVIEW))
   \   00000028   000051E3           CMP      R1,#+0
   \   0000002C   05005113           CMPNE    R1,#+5
   \   00000030   18109515           LDRNE    R1,[R5, #+24]
   1037                EDIT_SetFocus(data, 1); //从号码开始看
   \   00000034   0400A0E1           MOV      R0,R4
   \   00000038   0110A003           MOVEQ    R1,#+1
   \   0000003C   9B0100EF           SWI      +411
   \   00000040   400000EA           B        ??edGHook_2
   1038              else
   1039                EDIT_SetFocus(data, uo->focus_n);//光标跳到文本位置
   1040            }
   1041            else if(cmd==TI_CMD_DESTROY)
   \                     ??edGHook_1:
   \   00000044   030056E3           CMP      R6,#+3
   \   00000048   4100001A           BNE      ??edGHook_3
   1042            {
   1043          	  //auto save at exit
   1044          //	  if((uo->gui_type==ED_VIEW)
   1045          //	     &&(CFG_ENA_AUTO_SAF)
   1046          //	       &&(!uo->sd->isfile)
   1047          //		 &&(uo->sd->id)
   1048          //		   &&(uo->sd->msg_type!=ISREPORT || !CFG_ENA_AUTO_DEL_RP))
   1049          //	  {
   1050          //	    if(saveFile(uo->sd->SMS_TEXT, uo->sd->Number, uo->sd, uo->sd->type, 0))
   1051          //	      deleteDat(uo->sd, 1);
   1052          //	  }
   1053              if(uo->nd_sfd && uo->gui_type!=ED_VIEW && uo->gui_type!=ED_FVIEW && (CFG_ENA_AUTO_SAVE_DRAFT))
   \   0000004C   240095E5           LDR      R0,[R5, #+36]
   \   00000050   000050E3           CMP      R0,#+0
   \   00000054   00005113           CMPNE    R1,#+0
   \   00000058   05005113           CMPNE    R1,#+5
   \   0000005C   0F00000A           BEQ      ??edGHook_4
   \   00000060   20089FE5           LDR      R0,??edGHook_5   ;; CFG_ENA_AUTO_SAVE_DRAFT
   \   00000064   000090E5           LDR      R0,[R0, #+0]
   \   00000068   000050E3           CMP      R0,#+0
   \   0000006C   0B00000A           BEQ      ??edGHook_4
   1054              {
   1055                EDITCONTROL ec;
   1056                ExtractEditControl(data, uo->focus_n, &ec);
   \   00000070   181095E5           LDR      R1,[R5, #+24]
   \   00000074   04208DE2           ADD      R2,SP,#+4
   \   00000078   0400A0E1           MOV      R0,R4
   \   0000007C   690100EF           SWI      +361
   1057                if(ec.pWS->wsbody[0])
   \   00000080   2C009DE5           LDR      R0,[SP, #+44]
   \   00000084   001090E5           LDR      R1,[R0, #+0]
   \   00000088   B010D1E1           LDRH     R1,[R1, #+0]
   \   0000008C   000051E3           CMP      R1,#+0
   \   00000090   0200000A           BEQ      ??edGHook_4
   1058                {
   1059          	Ed_SaveFile(ec.pWS, uo, TYPE_DRAFT);
   \   00000094   0420A0E3           MOV      R2,#+4
   \   00000098   0510A0E1           MOV      R1,R5
   \   0000009C   ........           BL       Ed_SaveFile
   1060                }
   1061              }
   1062              if((CFG_ENA_AUTO_DEL_RP)&&(uo->gui_type==ED_VIEW)&&(uo->sd)&&(uo->sd->msg_type&ISREPORT)&&(uo->sd->id > 0)&&(!uo->sd->isfile))
   \                     ??edGHook_4:
   \   000000A0   E4079FE5           LDR      R0,??edGHook_5+0x4  ;; CFG_ENA_AUTO_DEL_RP
   \   000000A4   000090E5           LDR      R0,[R0, #+0]
   \   000000A8   000050E3           CMP      R0,#+0
   \   000000AC   1700000A           BEQ      ??edGHook_6
   \   000000B0   0C0095E5           LDR      R0,[R5, #+12]
   \   000000B4   000050E3           CMP      R0,#+0
   \   000000B8   1400001A           BNE      ??edGHook_6
   \   000000BC   000095E5           LDR      R0,[R5, #+0]
   \   000000C0   000050E3           CMP      R0,#+0
   \   000000C4   18109015           LDRNE    R1,[R0, #+24]
   \   000000C8   02001113           TSTNE    R1,#0x2
   \   000000CC   1900000A           BEQ      ??edGHook_7
   \   000000D0   0C1090E5           LDR      R1,[R0, #+12]
   \   000000D4   010051E3           CMP      R1,#+1
   \   000000D8   160000BA           BLT      ??edGHook_7
   \   000000DC   141090E5           LDR      R1,[R0, #+20]
   \   000000E0   000051E3           CMP      R1,#+0
   \   000000E4   1300001A           BNE      ??edGHook_7
   1063              {
   1064                if(IsSdInList(uo->sd) && deleteDat(uo->sd, 0))
   \   000000E8   ........           _BLF     IsSdInList,??IsSdInList??rA
   \   000000EC   000050E3           CMP      R0,#+0
   \   000000F0   0600000A           BEQ      ??edGHook_6
   \   000000F4   000095E5           LDR      R0,[R5, #+0]
   \   000000F8   0010A0E3           MOV      R1,#+0
   \   000000FC   ........           _BLF     deleteDat,??deleteDat??rA
   \   00000100   000050E3           CMP      R0,#+0
   \   00000104   0100000A           BEQ      ??edGHook_6
   1065          	delSDList(uo->sd);
   \   00000108   000095E5           LDR      R0,[R5, #+0]
   \   0000010C   ........           _BLF     delSDList,??delSDList??rA
   1066              }
   1067              if(((uo->gui_type==ED_FREE)
   1068          	||(uo->gui_type==ED_FVIEW)
   1069          	  ||(uo->gui_type==ED_FEDIT)
   1070          	    ||(uo->gui_type==ED_FREPLY)
   1071          	      )&&(uo->sd))
   \                     ??edGHook_6:
   \   00000110   0C0095E5           LDR      R0,[R5, #+12]
   \   00000114   040050E3           CMP      R0,#+4
   \   00000118   05005013           CMPNE    R0,#+5
   \   0000011C   06005013           CMPNE    R0,#+6
   \   00000120   07005013           CMPNE    R0,#+7
   \   00000124   0300001A           BNE      ??edGHook_7
   \   00000128   000095E5           LDR      R0,[R5, #+0]
   \   0000012C   000050E3           CMP      R0,#+0
   \   00000130   0000000A           BEQ      ??edGHook_7
   1072              {
   1073                FreeSdOne(uo->sd);
   \   00000134   ........           _BLF     FreeSdOne,??FreeSdOne??rA
   1074              }
   1075              FreeNumList(uo);
   \                     ??edGHook_7:
   \   00000138   0500A0E1           MOV      R0,R5
   \   0000013C   ........           _BLF     FreeNumList,??FreeNumList??rA
   1076              mfree(uo);
   \   00000140   0500A0E1           MOV      R0,R5
   \   00000144   150000EF           SWI      +21
   \                     ??edGHook_2:
   \   00000148   B8D08DE2           ADD      SP,SP,#+184
   \   0000014C   40DD8DE2           ADD      SP,SP,#+4096
   \   00000150   F08FBDE8           POP      {R4-R11,PC}
   1077            }
   1078            else if(cmd==TI_CMD_FOCUS)
   \                     ??edGHook_3:
   \   00000154   0A0056E3           CMP      R6,#+10
   \   00000158   0100001A           BNE      ??edGHook_8
   1079            {
   1080              DisableIDLETMR();
   \   0000015C   7F0100EF           SWI      +383
   \   00000160   F8FFFFEA           B        ??edGHook_2
   1081            }
   1082            else if(cmd==TI_CMD_GOTOTOP)
   \                     ??edGHook_8:
   \   00000164   040095E5           LDR      R0,[R5, #+4]
   \   00000168   050056E3           CMP      R6,#+5
   \   0000016C   1500001A           BNE      ??edGHook_9
   1083            {
   1084              const char *lgpN;
   1085              switch(uo->gui_type)
   \   00000170   070051E3           CMP      R1,#+7
   \   00000174   C001008A           BHI      ??edGHook_10
   \   00000178   022F8FE2           ADR      R2,??edGHook_0
   \   0000017C   8110A0E1           MOV      R1,R1, LSL #+1
   \   00000180   B12092E1           LDRH     R2,[R2, R1]
   \   00000184   02F18FE0           ADD      PC,PC,R2, LSL #+2
   \                     ??edGHook_0:
   \   00000188   030005000900       DC16     +3,+5,+9,+7
   \              0700        
   \   00000190   070003000500       DC16     +7,+3,+5,+9
   \              0900        
   1086              {
   1087              case ED_VIEW:
   1088              case ED_FVIEW:
   1089                lgpN=lgp.LGP_VIEW;
   \                     ??edGHook_11:
   \   00000198   F0169FE5           LDR      R1,??edGHook_5+0x8  ;; lgp + 96
   \   0000019C   040000EA           B        ??edGHook_12
   1090                break;
   1091              case ED_EDIT:
   1092              case ED_FEDIT:
   1093                lgpN=lgp.LGP_EDIT;
   \                     ??edGHook_13:
   \   000001A0   EC169FE5           LDR      R1,??edGHook_5+0xC  ;; lgp + 100
   \   000001A4   020000EA           B        ??edGHook_12
   1094                break;
   1095              case ED_NEW:
   1096              case ED_FREE:
   1097                lgpN=lgp.LGP_NEW;
   \                     ??edGHook_14:
   \   000001A8   E8169FE5           LDR      R1,??edGHook_5+0x10  ;; lgp + 24
   \   000001AC   000000EA           B        ??edGHook_12
   1098                break;
   1099              case ED_REPLY:
   1100              case ED_FREPLY:
   1101                lgpN=lgp.LGP_REPLY;
   \                     ??edGHook_15:
   \   000001B0   E4169FE5           LDR      R1,??edGHook_5+0x14  ;; lgp + 104
   \                     ??edGHook_12:
   \   000001B4   001091E5           LDR      R1,[R1, #+0]
   1102                break;
   1103              default:
   1104                lgpN=0;
   1105                break;
   1106              }
   1107              if(lgpN) UpdateDlgCsmName(uo->dlg_csm, lgpN);
   \   000001B8   000051E3           CMP      R1,#+0
   \   000001BC   AE01000A           BEQ      ??edGHook_10
   \   000001C0   ........           _BLF     UpdateDlgCsmName,??UpdateDlgCsmName??rA
   \   000001C4   DFFFFFEA           B        ??edGHook_2
   1108            }
   1109            else if(cmd==TI_CMD_REDRAW)
   \                     ??edGHook_9:
   \   000001C8   070056E3           CMP      R6,#+7
   \   000001CC   AA01001A           BNE      ??edGHook_10
   1110            {
   1111              NUM_LIST *nl;
   1112              EDITCONTROL ec;
   1113              char time[32];
   1114              char num[32];
   1115              WSHDR txtl, *text;
   1116              unsigned short txtb[MAX_TEXT];
   1117              SMS_DATA *sdx;
   1118              DLG_CSM *dlg_csm=(DLG_CSM *)(uo->dlg_csm);
   \   000001D0   0080A0E1           MOV      R8,R0
   1119              SGUI_ID *gstop=(SGUI_ID *)(dlg_csm->gstop);	
   \   000001D4   2C1098E5           LDR      R1,[R8, #+44]
   1120              int n=EDIT_GetFocus(data);
   \   000001D8   0400A0E1           MOV      R0,R4
   \   000001DC   00108DE5           STR      R1,[SP, #+0]
   \   000001E0   820100EF           SWI      +386
   \   000001E4   0060A0E1           MOV      R6,R0
   1121              text=CreateLocalWS(&txtl, txtb, MAX_TEXT);
   \   000001E8   802EA0E3           MOV      R2,#+2048
   \   000001EC   70108DE2           ADD      R1,SP,#+112
   \   000001F0   A4008DE2           ADD      R0,SP,#+164
   \   000001F4   400D80E2           ADD      R0,R0,#+4096
   \   000001F8   270100EF           SWI      +295
   \   000001FC   0090A0E1           MOV      R9,R0
   1122              
   1123              //---
   1124              if(!uo->sd)
   \   00000200   000095E5           LDR      R0,[R5, #+0]
   \   00000204   000050E3           CMP      R0,#+0
   \   00000208   0200001A           BNE      ??edGHook_16
   1125              {
   1126                GeneralFuncF1(1);
   \   0000020C   0100A0E3           MOV      R0,#+1
   \   00000210   3B0100EF           SWI      +315
   1127                return;
   \   00000214   CBFFFFEA           B        ??edGHook_2
   1128              }
   \                     ??edGHook_16:
   \   00000218   0C1095E5           LDR      R1,[R5, #+12]
   \   0000021C   000051E3           CMP      R1,#+0
   \   00000220   3300001A           BNE      ??edGHook_17
   1129          //check sd in list
   1130              if((uo->gui_type==ED_VIEW)&&(!IsSdInList(uo->sd)))
   \   00000224   ........           _BLF     IsSdInList,??IsSdInList??rA
   \   00000228   000050E3           CMP      R0,#+0
   \   0000022C   3000001A           BNE      ??edGHook_17
   1131              {
   1132                ExtractEditControl(data, uo->focus_n, &ec);
   \   00000230   181095E5           LDR      R1,[R5, #+24]
   \   00000234   04208DE2           ADD      R2,SP,#+4
   \   00000238   0400A0E1           MOV      R0,R4
   \   0000023C   690100EF           SWI      +361
   1133                wstrcpy(text, ec.pWS);
   \   00000240   2C109DE5           LDR      R1,[SP, #+44]
   \   00000244   0900A0E1           MOV      R0,R9
   \   00000248   1F0100EF           SWI      +287
   1134                if(uo->focus_n>2) //简单判断时间是否存在
   \   0000024C   180095E5           LDR      R0,[R5, #+24]
   \   00000250   030050E3           CMP      R0,#+3
   \   00000254   080000BA           BLT      ??edGHook_18
   1135                {
   1136          	ExtractEditControl(data, uo->focus_n-2, &ec);
   \   00000258   04208DE2           ADD      R2,SP,#+4
   \   0000025C   021040E2           SUB      R1,R0,#+2
   \   00000260   0400A0E1           MOV      R0,R4
   \   00000264   690100EF           SWI      +361
   1137          	ws_2str(ec.pWS, time, 31);
   \   00000268   2C009DE5           LDR      R0,[SP, #+44]
   \   0000026C   1F20A0E3           MOV      R2,#+31
   \   00000270   30108DE2           ADD      R1,SP,#+48
   \   00000274   A30000EF           SWI      +163
   \   00000278   010000EA           B        ??edGHook_19
   1138                }
   1139                else
   1140          	time[0]=0;
   \                     ??edGHook_18:
   \   0000027C   0010A0E3           MOV      R1,#+0
   \   00000280   3010CDE5           STRB     R1,[SP, #+48]
   1141                nl=uo->nltop;
   \                     ??edGHook_19:
   \   00000284   08B095E5           LDR      R11,[R5, #+8]
   1142                if(nl) strcpy(num, nl->num);
   \   00000288   00005BE3           CMP      R11,#+0
   \   0000028C   0300000A           BEQ      ??edGHook_20
   \   00000290   08108BE2           ADD      R1,R11,#+8
   \   00000294   50008DE2           ADD      R0,SP,#+80
   \   00000298   1A0000EF           SWI      +26
   \   0000029C   010000EA           B        ??edGHook_21
   1143                else num[0]=0;
   \                     ??edGHook_20:
   \   000002A0   0010A0E3           MOV      R1,#+0
   \   000002A4   5010CDE5           STRB     R1,[SP, #+80]
   1144                if(!(sdx=FindSdByTxtTimeNum(text, time, num)))
   \                     ??edGHook_21:
   \   000002A8   50208DE2           ADD      R2,SP,#+80
   \   000002AC   30108DE2           ADD      R1,SP,#+48
   \   000002B0   0900A0E1           MOV      R0,R9
   \   000002B4   ........           _BLF     FindSdByTxtTimeNum,??FindSdByTxtTimeNum??rA
   \   000002B8   000050E3           CMP      R0,#+0
   \   000002BC   0B00001A           BNE      ??edGHook_22
   1145                {
   1146          	if(gstop)
   \   000002C0   00009DE5           LDR      R0,[SP, #+0]
   \   000002C4   0110A0E3           MOV      R1,#+1
   \   000002C8   000050E3           CMP      R0,#+0
   \   000002CC   0400000A           BEQ      ??edGHook_23
   1147          	{
   1148          	  GeneralFunc_flag1(gstop->id, 1);
   \   000002D0   040090E5           LDR      R0,[R0, #+4]
   \   000002D4   3D0100EF           SWI      +317
   1149          	  popGS(dlg_csm);
   \   000002D8   0800A0E1           MOV      R0,R8
   \   000002DC   ........           _BLF     popGS,??popGS??rA
   \   000002E0   030000EA           B        ??edGHook_17
   1150          	}
   1151          	else
   1152          	{
   1153          	  //如果完全出错,直接退出
   1154          	  GeneralFunc_flag1(dlg_csm->gui_id, 1);
   \                     ??edGHook_23:
   \   000002E4   280098E5           LDR      R0,[R8, #+40]
   \   000002E8   3D0100EF           SWI      +317
   \   000002EC   000000EA           B        ??edGHook_17
   1155          	}
   1156                }
   1157                else
   1158          	uo->sd=sdx;
   \                     ??edGHook_22:
   \   000002F0   000085E5           STR      R0,[R5, #+0]
   1159              }
   1160              
   1161              
   1162              //set mid softkey
   1163              if((uo->gui_type==ED_VIEW)||(uo->gui_type==ED_FVIEW))
   \                     ??edGHook_17:
   \   000002F4   0C0095E5           LDR      R0,[R5, #+12]
   \   000002F8   A0759FE5           LDR      R7,??edGHook_5+0x18  ;; SK_OPTIONS
   \   000002FC   000050E3           CMP      R0,#+0
   \   00000300   05005013           CMPNE    R0,#+5
   \   00000304   0600001A           BNE      ??edGHook_24
   1164                SetSoftKey(data,&SK_OP_PIC,SET_SOFT_KEY_M);
   \   00000308   0220A0E3           MOV      R2,#+2
   \   0000030C   181087E2           ADD      R1,R7,#+24
   \   00000310   0400A0E1           MOV      R0,R4
   \   00000314   680100EF           SWI      +360
   1165              
   1166              //num to name at unfocus
   1167              if((uo->gui_type!=ED_VIEW)&&(uo->gui_type!=ED_FVIEW))
   \   00000318   0C0095E5           LDR      R0,[R5, #+12]
   \   0000031C   000050E3           CMP      R0,#+0
   \   00000320   1E00000A           BEQ      ??edGHook_25
   \                     ??edGHook_24:
   \   00000324   0C0095E5           LDR      R0,[R5, #+12]
   \   00000328   050050E3           CMP      R0,#+5
   \   0000032C   7000000A           BEQ      ??edGHook_26
   1168              {
   1169                int u=EDIT_GetUnFocus(data);
   \   00000330   0400A0E1           MOV      R0,R4
   \   00000334   830100EF           SWI      +387
   \   00000338   00A0A0E1           MOV      R10,R0
   1170                if(u<=(uo->focus_n-2) && (nl=GetNumListCur(uo, u)))
   \   0000033C   180095E5           LDR      R0,[R5, #+24]
   \   00000340   020040E2           SUB      R0,R0,#+2
   \   00000344   0A0050E1           CMP      R0,R10
   \   00000348   140000BA           BLT      ??edGHook_25
   \   0000034C   0A10A0E1           MOV      R1,R10
   \   00000350   0500A0E1           MOV      R0,R5
   \   00000354   ........           _BLF     GetNumListCur,??GetNumListCur??rA
   \   00000358   00B0B0E1           MOVS     R11,R0
   \   0000035C   0F00000A           BEQ      ??edGHook_25
   1171                {
   1172          	if(isNum(nl->name))
   \   00000360   3C009BE5           LDR      R0,[R11, #+60]
   \   00000364   ........           _BLF     isNum,??isNum??rA
   \   00000368   000050E3           CMP      R0,#+0
   \   0000036C   0B00000A           BEQ      ??edGHook_25
   1173          	{
   1174          	  if(findNameByNum(text, nl->num))
   \   00000370   08108BE2           ADD      R1,R11,#+8
   \   00000374   0900A0E1           MOV      R0,R9
   \   00000378   ........           _BLF     findNameByNum,??findNameByNum??rA
   \   0000037C   000050E3           CMP      R0,#+0
   \   00000380   0600000A           BEQ      ??edGHook_25
   1175          	  {
   1176          	    wstrcpy(nl->name, text);
   \   00000384   3C009BE5           LDR      R0,[R11, #+60]
   \   00000388   0910A0E1           MOV      R1,R9
   \   0000038C   1F0100EF           SWI      +287
   1177          	    EDIT_SetTextToEditControl(data, u, text);
   \   00000390   0920A0E1           MOV      R2,R9
   \   00000394   0A10A0E1           MOV      R1,R10
   \   00000398   0400A0E1           MOV      R0,R4
   \   0000039C   DE0100EF           SWI      +478
   1178          	  }
   1179          	}
   1180                }
   1181              }
   1182              
   1183          //auto save as file
   1184              if((uo->gui_type==ED_VIEW)
   1185                 &&(CFG_ENA_AUTO_SAF)
   1186          	 &&(!uo->sd->isfile)
   1187          	   //&&(uo->sd->type!=TYPE_IN_N) //set status first
   1188          	   &&(uo->sd->id)
   1189          	     &&(!(uo->sd->msg_type&ISDES))
   1190          	       &&(!(uo->sd->msg_type&ISUNKE))
   1191          	       &&(!(uo->sd->msg_type&ISUNKT))
   1192          	       &&(!(uo->sd->msg_type&ISREPORT) || !CFG_ENA_AUTO_DEL_RP))      
   \                     ??edGHook_25:
   \   000003A0   0C0095E5           LDR      R0,[R5, #+12]
   \   000003A4   000050E3           CMP      R0,#+0
   \   000003A8   5100001A           BNE      ??edGHook_26
   \   000003AC   F0049FE5           LDR      R0,??edGHook_5+0x1C  ;; CFG_ENA_AUTO_SAF
   \   000003B0   000090E5           LDR      R0,[R0, #+0]
   \   000003B4   000050E3           CMP      R0,#+0
   \   000003B8   5000000A           BEQ      ??edGHook_27
   \   000003BC   000095E5           LDR      R0,[R5, #+0]
   \   000003C0   141090E5           LDR      R1,[R0, #+20]
   \   000003C4   000051E3           CMP      R1,#+0
   \   000003C8   4C00001A           BNE      ??edGHook_27
   \   000003CC   0C1090E5           LDR      R1,[R0, #+12]
   \   000003D0   000051E3           CMP      R1,#+0
   \   000003D4   4900000A           BEQ      ??edGHook_27
   \   000003D8   181090E5           LDR      R1,[R0, #+24]
   \   000003DC   340011E3           TST      R1,#0x34
   \   000003E0   4600001A           BNE      ??edGHook_27
   \   000003E4   020011E3           TST      R1,#0x2
   \   000003E8   0300000A           BEQ      ??edGHook_28
   \   000003EC   98149FE5           LDR      R1,??edGHook_5+0x4  ;; CFG_ENA_AUTO_DEL_RP
   \   000003F0   001091E5           LDR      R1,[R1, #+0]
   \   000003F4   000051E3           CMP      R1,#+0
   \   000003F8   4000001A           BNE      ??edGHook_27
   1193              {
   1194                wstrcpy(text, uo->sd->SMS_TEXT);
   \                     ??edGHook_28:
   \   000003FC   641090E5           LDR      R1,[R0, #+100]
   \   00000400   0900A0E1           MOV      R0,R9
   \   00000404   1F0100EF           SWI      +287
   1195                strcpy(time, uo->sd->Time);
   \   00000408   000095E5           LDR      R0,[R5, #+0]
   \   0000040C   441080E2           ADD      R1,R0,#+68
   \   00000410   30008DE2           ADD      R0,SP,#+48
   \   00000414   1A0000EF           SWI      +26
   1196                strcpy(num, uo->sd->Number);
   \   00000418   000095E5           LDR      R0,[R5, #+0]
   \   0000041C   241080E2           ADD      R1,R0,#+36
   \   00000420   50008DE2           ADD      R0,SP,#+80
   \   00000424   1A0000EF           SWI      +26
   1197                if(saveFile(uo->sd->SMS_TEXT, uo->sd->Number, uo->sd, uo->sd->type, 2))
   \   00000428   000095E5           LDR      R0,[R5, #+0]
   \   0000042C   0210A0E3           MOV      R1,#+2
   \   00000430   02002DE9           PUSH     {R1}
   \   00000434   083090E5           LDR      R3,[R0, #+8]
   \   00000438   0020A0E1           MOV      R2,R0
   \   0000043C   241080E2           ADD      R1,R0,#+36
   \   00000440   640090E5           LDR      R0,[R0, #+100]
   \   00000444   ........           _BLF     saveFile,??saveFile??rA
   \   00000448   000050E3           CMP      R0,#+0
   \   0000044C   04D08DE2           ADD      SP,SP,#+4
   \   00000450   2700000A           BEQ      ??edGHook_26
   1198                {
   1199          	deleteDat(uo->sd, 0);
   \   00000454   000095E5           LDR      R0,[R5, #+0]
   \   00000458   0010A0E3           MOV      R1,#+0
   \   0000045C   ........           _BLF     deleteDat,??deleteDat??rA
   1200          	delSDList(uo->sd);
   \   00000460   000095E5           LDR      R0,[R5, #+0]
   \   00000464   ........           _BLF     delSDList,??delSDList??rA
   1201          	if(!(sdx=FindSdByTxtTimeNum(text, time, num))) //重新查找sd失败,直接返回列表
   \   00000468   50208DE2           ADD      R2,SP,#+80
   \   0000046C   30108DE2           ADD      R1,SP,#+48
   \   00000470   0900A0E1           MOV      R0,R9
   \   00000474   ........           _BLF     FindSdByTxtTimeNum,??FindSdByTxtTimeNum??rA
   \   00000478   000050E3           CMP      R0,#+0
   \   0000047C   0B00001A           BNE      ??edGHook_29
   1202          	{
   1203          	  if(gstop!=0)
   \   00000480   00009DE5           LDR      R0,[SP, #+0]
   \   00000484   0110A0E3           MOV      R1,#+1
   \   00000488   000050E3           CMP      R0,#+0
   \   0000048C   0400000A           BEQ      ??edGHook_30
   1204          	  {
   1205          	    GeneralFunc_flag1(gstop->id, 1);
   \   00000490   040090E5           LDR      R0,[R0, #+4]
   \   00000494   3D0100EF           SWI      +317
   1206          	    popGS(dlg_csm);
   \   00000498   0800A0E1           MOV      R0,R8
   \   0000049C   ........           _BLF     popGS,??popGS??rA
   \   000004A0   130000EA           B        ??edGHook_26
   1207          	  }
   1208          	  else
   1209          	  {
   1210          	    //如果完全出错,直接退出
   1211          	    GeneralFunc_flag1(dlg_csm->gui_id, 1);
   \                     ??edGHook_30:
   \   000004A4   280098E5           LDR      R0,[R8, #+40]
   \   000004A8   3D0100EF           SWI      +317
   \   000004AC   100000EA           B        ??edGHook_26
   1212          	  }
   1213          	}
   1214          	else
   1215          	{
   1216          	  uo->sd=sdx;
   \                     ??edGHook_29:
   \   000004B0   000085E5           STR      R0,[R5, #+0]
   1217          	  //update dat type
   1218          	  if(uo->sd->isfile)
   \   000004B4   141090E5           LDR      R1,[R0, #+20]
   \   000004B8   000051E3           CMP      R1,#+0
   \   000004BC   0A00000A           BEQ      ??edGHook_31
   1219          	  {
   1220          	    if(uo->sd->fname && IsFileInArchive(uo->sd->fname))
   \   000004C0   201090E5           LDR      R1,[R0, #+32]
   \   000004C4   000051E3           CMP      R1,#+0
   \   000004C8   0500000A           BEQ      ??edGHook_32
   \   000004CC   0100A0E1           MOV      R0,R1
   \   000004D0   ........           BL       IsFileInArchive
   \   000004D4   000050E3           CMP      R0,#+0
   \   000004D8   0400000A           BEQ      ??edGHook_33
   1221          	      uo->dat_type=ARCHIVE_FILE;
   \   000004DC   0200A0E3           MOV      R0,#+2
   \   000004E0   020000EA           B        ??edGHook_33
   1222          	    else
   1223          	      uo->dat_type=NML_FILE;
   \                     ??edGHook_32:
   \   000004E4   0000A0E3           MOV      R0,#+0
   \   000004E8   000000EA           B        ??edGHook_33
   1224          	  }
   1225          	  else uo->dat_type=NML_DAT;
   \                     ??edGHook_31:
   \   000004EC   0100A0E3           MOV      R0,#+1
   \                     ??edGHook_33:
   \   000004F0   1C0085E5           STR      R0,[R5, #+28]
   1226          	}
   1227                }
   1228              }
   1229              
   1230              //set status
   1231              if((uo->gui_type==ED_VIEW)
   1232                 &&(uo->sd->type==TYPE_IN_N)
   1233          	 &&(!(uo->sd->msg_type&ISDES)))
   \                     ??edGHook_26:
   \   000004F4   0C0095E5           LDR      R0,[R5, #+12]
   \   000004F8   000050E3           CMP      R0,#+0
   \   000004FC   0600001A           BNE      ??edGHook_34
   \                     ??edGHook_27:
   \   00000500   000095E5           LDR      R0,[R5, #+0]
   \   00000504   081090E5           LDR      R1,[R0, #+8]
   \   00000508   030051E3           CMP      R1,#+3
   \   0000050C   18109005           LDREQ    R1,[R0, #+24]
   \   00000510   04001103           TSTEQ    R1,#0x4
   \   00000514   0000001A           BNE      ??edGHook_34
   1234                newToRead(uo->sd);
   \   00000518   ........           _BLF     newToRead,??newToRead??rA
   1235          //-------------------
   1236              {
   1237                ExtractEditControl(data, uo->focus_n, &ec);
   \                     ??edGHook_34:
   \   0000051C   181095E5           LDR      R1,[R5, #+24]
   \   00000520   04208DE2           ADD      R2,SP,#+4
   \   00000524   0400A0E1           MOV      R0,R4
   \   00000528   690100EF           SWI      +361
   1238                WSHDR *hdr_t=AllocWS(64);
   \   0000052C   4000A0E3           MOV      R0,#+64
   \   00000530   250100EF           SWI      +293
   \   00000534   0080A0E1           MOV      R8,R0
   1239                void *hdr_p=GetHeaderPointer(data);
   \   00000538   0400A0E1           MOV      R0,R4
   \   0000053C   AE0200EF           SWI      +686
   \   00000540   0090A0E1           MOV      R9,R0
   1240                void *ma=malloc_adr();
   \   00000544   148000EF           SWI      +32788
   \   00000548   00A0A0E1           MOV      R10,R0
   1241                void *mf=mfree_adr();
   \   0000054C   158000EF           SWI      +32789
   1242                int z=0;
   1243                extern int IsWsSmall(WSHDR *ws);
   1244                if(uo->gui_type==ED_VIEW || uo->gui_type==ED_FVIEW)
   \   00000550   0C1095E5           LDR      R1,[R5, #+12]
   \   00000554   00B0A0E1           MOV      R11,R0
   \   00000558   0000A0E3           MOV      R0,#+0
   \   0000055C   000051E3           CMP      R1,#+0
   \   00000560   05005113           CMPNE    R1,#+5
   \   00000564   2100001A           BNE      ??edGHook_35
   1245                {
   1246          	if(uo->sd)
   \   00000568   001095E5           LDR      R1,[R5, #+0]
   \   0000056C   000051E3           CMP      R1,#+0
   \   00000570   3900000A           BEQ      ??edGHook_36
   1247          	{
   1248          	  if(!(z=uo->sd->cnt_r))
   \   00000574   1C0091E5           LDR      R0,[R1, #+28]
   \   00000578   000050E3           CMP      R0,#+0
   \   0000057C   3600001A           BNE      ??edGHook_36
   1249          	  {
   1250          	    if(!ec.pWS->wsbody[0])
   \   00000580   2C009DE5           LDR      R0,[SP, #+44]
   \   00000584   002090E5           LDR      R2,[R0, #+0]
   \   00000588   B020D2E1           LDRH     R2,[R2, #+0]
   \   0000058C   000052E3           CMP      R2,#+0
   \   00000590   0100001A           BNE      ??edGHook_37
   1251          	      z=1;
   \                     ??edGHook_38:
   \   00000594   0100A0E3           MOV      R0,#+1
   \   00000598   2F0000EA           B        ??edGHook_36
   1252          	    else if((uo->sd->msg_type&IS7BIT)||(IsWsSmall(ec.pWS)))
   \                     ??edGHook_37:
   \   0000059C   181091E5           LDR      R1,[R1, #+24]
   \   000005A0   080011E3           TST      R1,#0x8
   \   000005A4   0200001A           BNE      ??edGHook_39
   \   000005A8   ........           _BLF     IsWsSmall,??IsWsSmall??rA
   \   000005AC   000050E3           CMP      R0,#+0
   \   000005B0   0600000A           BEQ      ??edGHook_40
   1253          	      z=(ec.pWS->wsbody[0]-1)/SEG7_MAX+1;
   \                     ??edGHook_39:
   \   000005B4   2C009DE5           LDR      R0,[SP, #+44]
   \   000005B8   E8129FE5           LDR      R1,??edGHook_5+0x20  ;; 0x66666667
   \   000005BC   000090E5           LDR      R0,[R0, #+0]
   \   000005C0   B000D0E1           LDRH     R0,[R0, #+0]
   \   000005C4   010040E2           SUB      R0,R0,#+1
   \   000005C8   9120C3E0           SMULL    R2,R3,R1,R0
   \   000005CC   1F0000EA           B        ??edGHook_41
   1254          	    else
   1255          	      z=(ec.pWS->wsbody[0]-1)/SEGN_MAX+1;
   \                     ??edGHook_40:
   \   000005D0   2C009DE5           LDR      R0,[SP, #+44]
   \   000005D4   D0129FE5           LDR      R1,??edGHook_5+0x24  ;; 0xffffffffea0ea0eb
   \   000005D8   000090E5           LDR      R0,[R0, #+0]
   \   000005DC   B000D0E1           LDRH     R0,[R0, #+0]
   \   000005E0   010040E2           SUB      R0,R0,#+1
   \   000005E4   9120C3E0           SMULL    R2,R3,R1,R0
   \   000005E8   003083E0           ADD      R3,R3,R0
   \   000005EC   170000EA           B        ??edGHook_41
   1256          	  }
   1257          	}
   1258                }
   1259                else
   1260                {
   1261          	if(uo->chr_cnt!=ec.pWS->wsbody[0])
   \                     ??edGHook_35:
   \   000005F0   2C009DE5           LDR      R0,[SP, #+44]
   \   000005F4   202095E5           LDR      R2,[R5, #+32]
   \   000005F8   001090E5           LDR      R1,[R0, #+0]
   \   000005FC   B030D1E1           LDRH     R3,[R1, #+0]
   \   00000600   030052E1           CMP      R2,R3
   \   00000604   0300000A           BEQ      ??edGHook_42
   1262          	{
   1263          	  uo->chr_cnt=ec.pWS->wsbody[0];
   \   00000608   0320A0E1           MOV      R2,R3
   \   0000060C   202085E5           STR      R2,[R5, #+32]
   1264          	  uo->nd_sfd=1;
   \   00000610   0120A0E3           MOV      R2,#+1
   \   00000614   242085E5           STR      R2,[R5, #+36]
   1265          	}
   1266          	if(!ec.pWS->wsbody[0]) z=1;
   \                     ??edGHook_42:
   \   00000618   B010D1E1           LDRH     R1,[R1, #+0]
   \   0000061C   000051E3           CMP      R1,#+0
   \   00000620   DBFFFF0A           BEQ      ??edGHook_38
   1267          	else if(IsWsSmall(ec.pWS)) z=(ec.pWS->wsbody[0]-1)/SEG7_MAX+1;
   \   00000624   ........           _BLF     IsWsSmall,??IsWsSmall??rA
   \   00000628   000050E3           CMP      R0,#+0
   \   0000062C   2C009DE5           LDR      R0,[SP, #+44]
   \   00000630   70129F15           LDRNE    R1,??edGHook_5+0x20  ;; 0x66666667
   \   00000634   000090E5           LDR      R0,[R0, #+0]
   1268          	else z=(ec.pWS->wsbody[0]-1)/SEGN_MAX+1;
   \   00000638   6C129F05           LDREQ    R1,??edGHook_5+0x24  ;; 0xffffffffea0ea0eb
   \   0000063C   B000D0E1           LDRH     R0,[R0, #+0]
   \   00000640   010040E2           SUB      R0,R0,#+1
   \   00000644   9120C310           SMULLNE  R2,R3,R1,R0
   \   00000648   9120C300           SMULLEQ  R2,R3,R1,R0
   \   0000064C   00308300           ADDEQ    R3,R3,R0
   \                     ??edGHook_41:
   \   00000650   4333A0E1           ASR      R3,R3,#+6
   \   00000654   A00F83E0           ADD      R0,R3,R0, LSR #+31
   \   00000658   010080E2           ADD      R0,R0,#+1
   1269                }
   1270          #ifdef DEBUG
   1271                wsprintf(hdr_t, "%t:%d,p:%d", lgp.LGP_CHAR_COUNT, ec.pWS->wsbody[0], EDIT_GetCursorPos(data));
   1272          #else
   1273                wsprintf(hdr_t, "%t: %d %d", lgp.LGP_CHAR_COUNT, ec.pWS->wsbody[0], z);
   \                     ??edGHook_36:
   \   0000065C   4C129FE5           LDR      R1,??edGHook_5+0x28  ;; `?<Constant "%t: %d %d">`
   \   00000660   01002DE9           PUSH     {R0}
   \   00000664   30009DE5           LDR      R0,[SP, #+48]
   \   00000668   000090E5           LDR      R0,[R0, #+0]
   \   0000066C   B030D0E1           LDRH     R3,[R0, #+0]
   \   00000670   3C029FE5           LDR      R0,??edGHook_5+0x2C  ;; lgp + 92
   \   00000674   002090E5           LDR      R2,[R0, #+0]
   \   00000678   0800A0E1           MOV      R0,R8
   \   0000067C   240100EF           SWI      +292
   1274          #endif
   1275                SetHeaderText(hdr_p, hdr_t, ma, mf);
   \   00000680   0B30A0E1           MOV      R3,R11
   \   00000684   0A20A0E1           MOV      R2,R10
   \   00000688   0810A0E1           MOV      R1,R8
   \   0000068C   0900A0E1           MOV      R0,R9
   \   00000690   AF0200EF           SWI      +687
   1276                if((uo->gui_type==ED_VIEW)||(uo->gui_type==ED_FVIEW))
   \   00000694   0C0095E5           LDR      R0,[R5, #+12]
   \   00000698   04D08DE2           ADD      SP,SP,#+4
   \   0000069C   000050E3           CMP      R0,#+0
   \   000006A0   05005013           CMPNE    R0,#+5
   \   000006A4   0300001A           BNE      ??edGHook_43
   1277          	SetHeaderIcon(hdr_p, EDHDRIC_VIEW, ma, mf);
   \   000006A8   0B30A0E1           MOV      R3,R11
   \   000006AC   0A20A0E1           MOV      R2,R10
   \   000006B0   201087E2           ADD      R1,R7,#+32
   \   000006B4   060000EA           B        ??edGHook_44
   1278                else
   1279                {
   1280          	if(n<=(uo->focus_n-2))
   \                     ??edGHook_43:
   \   000006B8   180095E5           LDR      R0,[R5, #+24]
   \   000006BC   0B30A0E1           MOV      R3,R11
   \   000006C0   020040E2           SUB      R0,R0,#+2
   \   000006C4   060050E1           CMP      R0,R6
   \   000006C8   0A20A0E1           MOV      R2,R10
   1281          	  SetHeaderIcon(hdr_p, EDHDRIC_ADRBK, ma, mf);
   \   000006CC   301087A2           ADDGE    R1,R7,#+48
   1282          	else
   1283          	  SetHeaderIcon(hdr_p, EDHDRIC_EDIT, ma, mf);
   \   000006D0   281087B2           ADDLT    R1,R7,#+40
   \                     ??edGHook_44:
   \   000006D4   0900A0E1           MOV      R0,R9
   \   000006D8   BA0200EF           SWI      +698
   1284                }
   1285              }
   1286              
   1287              //check number
   1288              if((uo->gui_type!=ED_VIEW)&&(uo->gui_type!=ED_FVIEW)&&(n<=(uo->focus_n-2))&&(nl=GetNumListCur(uo, n)))
   \   000006DC   0C0095E5           LDR      R0,[R5, #+12]
   \   000006E0   000050E3           CMP      R0,#+0
   \   000006E4   05005013           CMPNE    R0,#+5
   \   000006E8   4900000A           BEQ      ??edGHook_45
   \   000006EC   180095E5           LDR      R0,[R5, #+24]
   \   000006F0   020040E2           SUB      R0,R0,#+2
   \   000006F4   060050E1           CMP      R0,R6
   \   000006F8   450000BA           BLT      ??edGHook_45
   \   000006FC   0610A0E1           MOV      R1,R6
   \   00000700   0500A0E1           MOV      R0,R5
   \   00000704   ........           _BLF     GetNumListCur,??GetNumListCur??rA
   \   00000708   00B0B0E1           MOVS     R11,R0
   \   0000070C   4000000A           BEQ      ??edGHook_45
   1289              {
   1290                ExtractEditControl(data,n,&ec);
   \   00000710   04208DE2           ADD      R2,SP,#+4
   \   00000714   0610A0E1           MOV      R1,R6
   \   00000718   0400A0E1           MOV      R0,R4
   \   0000071C   690100EF           SWI      +361
   1291                if(isNum(ec.pWS))
   \   00000720   2C009DE5           LDR      R0,[SP, #+44]
   \   00000724   ........           _BLF     isNum,??isNum??rA
   \   00000728   000050E3           CMP      R0,#+0
   \   0000072C   1400000A           BEQ      ??edGHook_46
   1292                {
   1293          	char num[50];
   1294          	ws_2str(ec.pWS, num, 49);
   \   00000730   2C009DE5           LDR      R0,[SP, #+44]
   \   00000734   3120A0E3           MOV      R2,#+49
   \   00000738   70108DE2           ADD      R1,SP,#+112
   \   0000073C   401D81E2           ADD      R1,R1,#+4096
   \   00000740   A30000EF           SWI      +163
   1295          	if(strcmp(num, nl->num))
   \   00000744   08108BE2           ADD      R1,R11,#+8
   \   00000748   70008DE2           ADD      R0,SP,#+112
   \   0000074C   400D80E2           ADD      R0,R0,#+4096
   \   00000750   190000EF           SWI      +25
   \   00000754   000050E3           CMP      R0,#+0
   \   00000758   2D00000A           BEQ      ??edGHook_45
   1296          	{
   1297          	  strcpy(nl->num, num);
   \   0000075C   70108DE2           ADD      R1,SP,#+112
   \   00000760   401D81E2           ADD      R1,R1,#+4096
   \   00000764   08008BE2           ADD      R0,R11,#+8
   \   00000768   1A0000EF           SWI      +26
   1298          	  str_2ws(nl->name, num, 50);
   \   0000076C   3C009BE5           LDR      R0,[R11, #+60]
   \   00000770   3220A0E3           MOV      R2,#+50
   \   00000774   70108DE2           ADD      R1,SP,#+112
   \   00000778   401D81E2           ADD      R1,R1,#+4096
   \   0000077C   6C0100EF           SWI      +364
   \   00000780   230000EA           B        ??edGHook_45
   1299          	}
   1300                }
   1301                else
   1302                {
   1303          	if(wstrcmp_nocase(ec.pWS, nl->name))
   \                     ??edGHook_46:
   \   00000784   2C009DE5           LDR      R0,[SP, #+44]
   \   00000788   3C109BE5           LDR      R1,[R11, #+60]
   \   0000078C   ........           _BLF     wstrcmp_nocase,??wstrcmp_nocase??rA
   \   00000790   000050E3           CMP      R0,#+0
   \   00000794   1E00000A           BEQ      ??edGHook_45
   1304          	{
   1305          	  DelNumList(uo, nl);
   \   00000798   0B10A0E1           MOV      R1,R11
   \   0000079C   0500A0E1           MOV      R0,R5
   \   000007A0   ........           _BLF     DelNumList,??DelNumList??rA
   1306          	  if((uo->focus_n-2)>1) //多于一个号码就直接删除这个
   \   000007A4   180095E5           LDR      R0,[R5, #+24]
   \   000007A8   020040E2           SUB      R0,R0,#+2
   \   000007AC   020050E3           CMP      R0,#+2
   \   000007B0   0E0000BA           BLT      ??edGHook_47
   1307          	  {
   1308          	    EDIT_RemoveEditControl(data, n);
   \   000007B4   0610A0E1           MOV      R1,R6
   \   000007B8   0400A0E1           MOV      R0,R4
   \   000007BC   D10100EF           SWI      +465
   1309          	    (uo->focus_n)--;
   \   000007C0   180095E5           LDR      R0,[R5, #+24]
   \   000007C4   010040E2           SUB      R0,R0,#+1
   \   000007C8   180085E5           STR      R0,[R5, #+24]
   1310          	    if(n>(uo->focus_n-2))
   \   000007CC   020040E2           SUB      R0,R0,#+2
   \   000007D0   060050E1           CMP      R0,R6
   1311          	      n=(uo->focus_n-2);
   \   000007D4   0060A0B1           MOVLT    R6,R0
   1312          	    if(n>0)
   \   000007D8   010056E3           CMP      R6,#+1
   \   000007DC   0C0000BA           BLT      ??edGHook_45
   1313          	      EDIT_SetFocus(data, n);
   \   000007E0   0610A0E1           MOV      R1,R6
   \   000007E4   0400A0E1           MOV      R0,R4
   \   000007E8   9B0100EF           SWI      +411
   \   000007EC   080000EA           B        ??edGHook_45
   1314          	  }
   1315          	  else
   1316          	  {
   1317          	    EDIT_SetTextToEditControl(data, n, ((NUM_LIST *)(uo->nltop))->name);
   \                     ??edGHook_47:
   \   000007F0   080095E5           LDR      R0,[R5, #+8]
   \   000007F4   0610A0E1           MOV      R1,R6
   \   000007F8   3C2090E5           LDR      R2,[R0, #+60]
   \   000007FC   0400A0E1           MOV      R0,R4
   \   00000800   DE0100EF           SWI      +478
   1318          	    SetSoftKey(data,&SK_CANCEL,!SET_SOFT_KEY_N);
   \   00000804   0120A0E3           MOV      R2,#+1
   \   00000808   101087E2           ADD      R1,R7,#+16
   \   0000080C   0400A0E1           MOV      R0,R4
   \   00000810   680100EF           SWI      +360
   1319          	  }
   1320          	}
   1321                }
   1322              }
   1323              if(!EDIT_IsBusy(data))
   \                     ??edGHook_45:
   \   00000814   0400A0E1           MOV      R0,R4
   \   00000818   1C0200EF           SWI      +540
   \   0000081C   000050E3           CMP      R0,#+0
   \   00000820   1500001A           BNE      ??edGHook_10
   1324              {
   1325                ExtractEditControl(data,n,&ec);
   \   00000824   04208DE2           ADD      R2,SP,#+4
   \   00000828   0610A0E1           MOV      R1,R6
   \   0000082C   0400A0E1           MOV      R0,R4
   \   00000830   690100EF           SWI      +361
   1326                if((n<=(uo->focus_n-2))&&(ec.pWS->wsbody[0]==0)&&(uo->gui_type!=ED_VIEW))
   \   00000834   180095E5           LDR      R0,[R5, #+24]
   \   00000838   020040E2           SUB      R0,R0,#+2
   \   0000083C   060050E1           CMP      R0,R6
   \   00000840   090000BA           BLT      ??edGHook_48
   \   00000844   2C009DE5           LDR      R0,[SP, #+44]
   \   00000848   000090E5           LDR      R0,[R0, #+0]
   \   0000084C   B000D0E1           LDRH     R0,[R0, #+0]
   \   00000850   000050E3           CMP      R0,#+0
   \   00000854   0400001A           BNE      ??edGHook_48
   \   00000858   0C0095E5           LDR      R0,[R5, #+12]
   \   0000085C   000050E3           CMP      R0,#+0
   1327          	SetSoftKey(data,&SK_ADRBK,SET_SOFT_KEY_N);
   \   00000860   0020A013           MOVNE    R2,#+0
   \   00000864   08108712           ADDNE    R1,R7,#+8
   \   00000868   0100001A           BNE      ??edGHook_49
   1328                else
   1329          	SetSoftKey(data,&SK_OPTIONS,SET_SOFT_KEY_N);
   \                     ??edGHook_48:
   \   0000086C   0020A0E3           MOV      R2,#+0
   \   00000870   0710A0E1           MOV      R1,R7
   \                     ??edGHook_49:
   \   00000874   0400A0E1           MOV      R0,R4
   \   00000878   680100EF           SWI      +360
   \                     ??edGHook_10:
   \   0000087C   B8D08DE2           ADD      SP,SP,#+184
   \   00000880   40DD8DE2           ADD      SP,SP,#+4096
   \   00000884   F08FBDE8           POP      {R4-R11,PC}      ;; return
   \                     ??edGHook_5:
   \   00000888   ........           DC32     CFG_ENA_AUTO_SAVE_DRAFT
   \   0000088C   ........           DC32     CFG_ENA_AUTO_DEL_RP
   \   00000890   ........           DC32     lgp + 96
   \   00000894   ........           DC32     lgp + 100
   \   00000898   ........           DC32     lgp + 24
   \   0000089C   ........           DC32     lgp + 104
   \   000008A0   ........           DC32     SK_OPTIONS
   \   000008A4   ........           DC32     CFG_ENA_AUTO_SAF
   \   000008A8   67666666           DC32     0x66666667
   \   000008AC   EBA00EEA           DC32     0xffffffffea0ea0eb
   \   000008B0   ........           DC32     `?<Constant "%t: %d %d">`
   \   000008B4   ........           DC32     lgp + 92
   1330              }
   1331            }
   1332          }
   1333          

   \                                 In segment CODE, align 4, keep-with-next
   1334          void ed_locret(void)
   1335          {
   1336            ;
   1337          }
   \                     ed_locret:
   \   00000000   1EFF2FE1           BX       LR               ;; return
   1338          

   \                                 In segment DATA_C, align 4, align-sorted
   1339          const INPUTDIA_DESC ED_DESC=
   \                     ED_DESC:
   \   00000000   01000000....       DC32 1, edOnKey, edGHook, ed_locret, 0, ed_menu_skt
   \              ............
   \              ........0000
   \              0000........
   \   00000018   000000000000       DC16 0, 0, 0, 0
   \              0000        
   \   00000020   080000006400       DC32 8, 100, 101, 0, 0, 1073741824
   \              000065000000
   \              000000000000
   \              000000000040
   1340          {
   1341          	1,
   1342          	edOnKey,
   1343          	edGHook,
   1344          	(void *)ed_locret,
   1345          	0,
   1346          	&ed_menu_skt,
   1347          	{0,0,0,0},
   1348          	FONT_SMALL,
   1349          	100,
   1350          	101,
   1351          	0,
   1352          	0,
   1353          	0x40000000
   1354          };
   1355          
   1356          const INPUTDIA_DESC ED_DESC_RO=
   \                     ED_DESC_RO:
   \   00000038   01000000....       DC32 1, edOnKey, edGHook, ed_locret, 0, ed_menu_skt
   \              ............
   \              ........0000
   \              0000........
   \   00000050   000000000000       DC16 0, 0, 0, 0
   \              0000        
   \   00000058   080000006400       DC32 8, 100, 101, 0, 0, 1073741826
   \              000065000000
   \              000000000000
   \              000002000040
   1357          {
   1358          	1,
   1359          	edOnKey,
   1360          	edGHook,
   1361          	(void *)ed_locret,
   1362          	0,
   1363          	&ed_menu_skt,
   1364          	{0,0,0,0},
   1365          	FONT_SMALL,
   1366          	100,
   1367          	101,
   1368          	0,
   1369          	0,
   1370          	0x40000002
   1371          };
   1372          
   1373          #define EDIT_FONT_DEFAULT 0
   1374          #define EDIT_FONT_SMALL 1
   1375          #define EDIT_FONT_SMALL_BOLD 2
   1376          #define EDIT_FONT_MEDIUM 3
   1377          #define EDIT_FONT_MEDIUM_BOLD 4
   1378          #define EDIT_FONT_LARGE 5
   1379          #define EDIT_FONT_LARGE_BOLD 6
   1380          

   \                                 In segment CODE, align 4, keep-with-next
   1381          int createEditGUI(void *dlg_csm, SMS_DATA *sd, int type, int list_type) //edit, view
   1382          {
   \                     createEditGUI:
   \   00000000   F14F2DE9           PUSH     {R0,R4-R11,LR}
   \   00000004   54D04DE2           SUB      SP,SP,#+84
   \   00000008   40DD4DE2           SUB      SP,SP,#+4096
   \   0000000C   0190A0E1           MOV      R9,R1
   \   00000010   0240A0E1           MOV      R4,R2
   \   00000014   0380A0E1           MOV      R8,R3
   1383            int gui_id;
   1384            void *ma=malloc_adr();
   \   00000018   148000EF           SWI      +32788
   \   0000001C   0050A0E1           MOV      R5,R0
   1385            void *eq;
   1386            WSHDR *ews, ewsn;
   1387            unsigned short ewsb[MAX_TEXT];
   1388            const INPUTDIA_DESC *edd;
   1389            EDITCONTROL ec;
   1390            EDITC_OPTIONS ec_options;
   1391            ews=CreateLocalWS(&ewsn, ewsb, MAX_TEXT);
   \   00000020   802EA0E3           MOV      R2,#+2048
   \   00000024   40108DE2           ADD      R1,SP,#+64
   \   00000028   410D8DE2           ADD      R0,SP,#+4160
   \   0000002C   270100EF           SWI      +295
   \   00000030   0060A0E1           MOV      R6,R0
   1392          //----------- uo
   1393            USER_OP *uo=malloc(sizeof(USER_OP));
   \   00000034   2800A0E3           MOV      R0,#+40
   \   00000038   140000EF           SWI      +20
   \   0000003C   0070A0E1           MOV      R7,R0
   1394            zeromem(uo, sizeof(USER_OP));
   \   00000040   2810A0E3           MOV      R1,#+40
   \   00000044   1D0100EF           SWI      +285
   1395          
   1396            AddToNumList(uo);
   \   00000048   0700A0E1           MOV      R0,R7
   \   0000004C   ........           _BLF     AddToNumList,??AddToNumList??rA
   1397            uo->sd=sd; //?
   \   00000050   009087E5           STR      R9,[R7, #+0]
   1398            uo->dlg_csm=dlg_csm;
   \   00000054   410D8DE2           ADD      R0,SP,#+4160
   \   00000058   140090E5           LDR      R0,[R0, #+20]
   1399            strcpy(((NUM_LIST *)(uo->nltop))->num, sd->Number);
   \   0000005C   241089E2           ADD      R1,R9,#+36
   \   00000060   040087E5           STR      R0,[R7, #+4]
   \   00000064   080097E5           LDR      R0,[R7, #+8]
   \   00000068   080080E2           ADD      R0,R0,#+8
   \   0000006C   1A0000EF           SWI      +26
   1400            uo->gui_type=type;
   \   00000070   0C4087E5           STR      R4,[R7, #+12]
   1401            uo->list_type=list_type;
   \   00000074   148087E5           STR      R8,[R7, #+20]
   \   00000078   0000A0E3           MOV      R0,#+0
   \   0000007C   180087E5           STR      R0,[R7, #+24]
   1402            uo->focus_n=0;
   1403            if(uo->sd->isfile)
   \   00000080   000097E5           LDR      R0,[R7, #+0]
   \   00000084   141090E5           LDR      R1,[R0, #+20]
   \   00000088   000051E3           CMP      R1,#+0
   \   0000008C   0A00000A           BEQ      ??createEditGUI_1
   1404            {
   1405              if(uo->sd->fname && IsFileInArchive(uo->sd->fname))
   \   00000090   201090E5           LDR      R1,[R0, #+32]
   \   00000094   000051E3           CMP      R1,#+0
   \   00000098   0500000A           BEQ      ??createEditGUI_2
   \   0000009C   0100A0E1           MOV      R0,R1
   \   000000A0   ........           BL       IsFileInArchive
   \   000000A4   000050E3           CMP      R0,#+0
   \   000000A8   0400000A           BEQ      ??createEditGUI_3
   1406                uo->dat_type=ARCHIVE_FILE;
   \   000000AC   0200A0E3           MOV      R0,#+2
   \   000000B0   020000EA           B        ??createEditGUI_3
   1407              else
   1408                uo->dat_type=NML_FILE;
   \                     ??createEditGUI_2:
   \   000000B4   0000A0E3           MOV      R0,#+0
   \   000000B8   000000EA           B        ??createEditGUI_3
   1409            }
   1410            else
   1411              uo->dat_type=NML_DAT;
   \                     ??createEditGUI_1:
   \   000000BC   0100A0E3           MOV      R0,#+1
   \                     ??createEditGUI_3:
   \   000000C0   1C0087E5           STR      R0,[R7, #+28]
   1412          //----------
   1413            eq=AllocEQueue(ma,mfree_adr());
   \   000000C4   158000EF           SWI      +32789
   \   000000C8   0010A0E1           MOV      R1,R0
   \   000000CC   0500A0E1           MOV      R0,R5
   \   000000D0   630100EF           SWI      +355
   \   000000D4   0080A0E1           MOV      R8,R0
   1414            PrepareEditControl(&ec);
   \   000000D8   14008DE2           ADD      R0,SP,#+20
   \   000000DC   640100EF           SWI      +356
   1415            PrepareEditCOptions(&ec_options);
   \   000000E0   04008DE2           ADD      R0,SP,#+4
   \   000000E4   C80100EF           SWI      +456
   1416          //-----------
   1417          
   1418          //----------- header
   1419          
   1420          //------------
   1421          
   1422          //------------ num
   1423            {
   1424              char *pnn;
   1425              WSHDR *wsname, wsnamen;
                            ^
Warning[Pe177]: variable "wsname" was declared but never referenced

      WSHDR *wsname, wsnamen;
                     ^
"K:\Pasha\elf\SieELF\MySMSYS\edGui.c",1425  Warning[Pe177]: variable "wsnamen"
          was declared but never referenced
   1426              unsigned short wsnameb[50];
                                    ^
Warning[Pe177]: variable "wsnameb" was declared but never referenced
   1427              int is_fetion=0;
                         ^
Warning[Pe177]: variable "is_fetion" was declared but never referenced
   1428              if(strlen(sd->Number))
   \   000000E8   240089E2           ADD      R0,R9,#+36
   \   000000EC   1B0000EF           SWI      +27
   \   000000F0   000050E3           CMP      R0,#+0
   \   000000F4   0B00000A           BEQ      ??createEditGUI_4
   1429              {
   1430                pnn=sd->Number;
   \   000000F8   241089E2           ADD      R1,R9,#+36
   \   000000FC   00108DE5           STR      R1,[SP, #+0]
   1431              DO_NUM:
   1432          #ifdef LANG_CN
   1433                wsname=CreateLocalWS(&wsnamen, wsnameb, 50);
   1434                if(!strncmp(num_fetion, pnn, 5)) is_fetion=1;
   1435                if(!findNameByNum(wsname, is_fetion?(pnn+5):pnn))
   1436          	str_2ws(ews, pnn, 50);
   1437                else
   1438                {
   1439          	if(is_fetion) wsprintf(ews, "%w(%t)", wsname, lgp.LGP_FETION);
   1440          	else wstrcpy(ews, wsname);
   1441                }
   1442          #else
   1443                if(!findNameByNum(ews, pnn))
   \                     ??createEditGUI_5:
   \   00000100   00109DE5           LDR      R1,[SP, #+0]
   \   00000104   0600A0E1           MOV      R0,R6
   \   00000108   ........           _BLF     findNameByNum,??findNameByNum??rA
   \   0000010C   000050E3           CMP      R0,#+0
   \   00000110   2900001A           BNE      ??createEditGUI_6
   1444          	str_2ws(ews, pnn, 50);
   \   00000114   00109DE5           LDR      R1,[SP, #+0]
   \   00000118   3220A0E3           MOV      R2,#+50
   \   0000011C   0600A0E1           MOV      R0,R6
   \   00000120   6C0100EF           SWI      +364
   \   00000124   240000EA           B        ??createEditGUI_6
   1445          #endif
   1446              }
   1447              else
   1448              {
   1449                if((type==ED_VIEW || type==ED_FVIEW))
   \                     ??createEditGUI_4:
   \   00000128   000054E3           CMP      R4,#+0
   \   0000012C   05005413           CMPNE    R4,#+5
   \   00000130   0400001A           BNE      ??createEditGUI_7
   1450          	wsprintf(ews, "%c", ' ');
   \   00000134   2020A0E3           MOV      R2,#+32
   \   00000138   C81F8FE2           ADR      R1,??createEditGUI_8  ;; "%c"
   \   0000013C   0600A0E1           MOV      R0,R6
   \   00000140   240100EF           SWI      +292
   \   00000144   1C0000EA           B        ??createEditGUI_6
   1451                else
   1452                {
   1453          	if((type==ED_FREE || type==ED_NEW) && strlen((pnn=(char *)CFG_DEFAULT_SENT_NUM)))
   \                     ??createEditGUI_7:
   \   00000148   040054E3           CMP      R4,#+4
   \   0000014C   03005413           CMPNE    R4,#+3
   \   00000150   1600001A           BNE      ??createEditGUI_9
   \   00000154   08A39FE5           LDR      R10,??createEditGUI_8+0x4  ;; CFG_DEFAULT_SENT_NUM
   \   00000158   00A08DE5           STR      R10,[SP, #+0]
   \   0000015C   0A00A0E1           MOV      R0,R10
   \   00000160   1B0000EF           SWI      +27
   \   00000164   000050E3           CMP      R0,#+0
   \   00000168   1000000A           BEQ      ??createEditGUI_9
   1454          	{
   1455          	  //is number
   1456          	  for(int xl=0; xl<strlen(pnn); xl++)
   \   0000016C   00B0A0E3           MOV      R11,#+0
   \   00000170   050000EA           B        ??createEditGUI_10
   1457          	  {
   1458          	    if(pnn[xl]<'0' || pnn[xl]>'9')
   \                     ??createEditGUI_11:
   \   00000174   0A00DBE7           LDRB     R0,[R11, +R10]
   \   00000178   300050E3           CMP      R0,#+48
   \   0000017C   0B00003A           BCC      ??createEditGUI_9
   \   00000180   3A0050E3           CMP      R0,#+58
   \   00000184   0900002A           BCS      ??createEditGUI_9
   1459          	      goto N_BLANK;
   1460          	  }
   \   00000188   01B08BE2           ADD      R11,R11,#+1
   \                     ??createEditGUI_10:
   \   0000018C   0A00A0E1           MOV      R0,R10
   \   00000190   1B0000EF           SWI      +27
   \   00000194   00005BE1           CMP      R11,R0
   \   00000198   F5FFFF3A           BCC      ??createEditGUI_11
   1461          	  strcpy(((NUM_LIST *)(uo->nltop))->num, pnn);
   \   0000019C   080097E5           LDR      R0,[R7, #+8]
   \   000001A0   0A10A0E1           MOV      R1,R10
   \   000001A4   080080E2           ADD      R0,R0,#+8
   \   000001A8   1A0000EF           SWI      +26
   1462          	  goto DO_NUM;
   \   000001AC   D3FFFFEA           B        ??createEditGUI_5
   1463          	}
   1464          	else
   1465                N_BLANK:
   1466          	  CutWSTR(ews, 0);
   \                     ??createEditGUI_9:
   \   000001B0   0010A0E3           MOV      R1,#+0
   \   000001B4   0600A0E1           MOV      R0,R6
   \   000001B8   260100EF           SWI      +294
   1467                }
   1468              }
   1469          #ifdef DEBUG
   1470              {
   1471                if(strlen(sd->Number))
   1472                {
   1473          	WSHDR *ws=AllocWS(50);
   1474          	str_2ws(ws, sd->Number, 50);
   1475          	wsAppendChar(ews, '|');
   1476          	wstrcat(ews, ws);
   1477          	FreeWS(ws);
   1478                }
   1479              }
   1480          #endif
   1481              wstrcpy(((NUM_LIST *)(uo->nltop))->name, ews);
   \                     ??createEditGUI_6:
   \   000001BC   080097E5           LDR      R0,[R7, #+8]
   \   000001C0   0610A0E1           MOV      R1,R6
   \   000001C4   3C0090E5           LDR      R0,[R0, #+60]
   \   000001C8   1F0100EF           SWI      +287
   1482              ConstructEditControl(&ec,(type==ED_VIEW||type==ED_FVIEW)?ECT_READ_ONLY:ECT_NORMAL_TEXT,ECF_DEFAULT_DIGIT+ECF_APPEND_EOL,ews,256);
   \   000001CC   400FA0E3           MOV      R0,#+256
   \   000001D0   01002DE9           PUSH     {R0}
   \   000001D4   000054E3           CMP      R4,#+0
   \   000001D8   05005413           CMPNE    R4,#+5
   \   000001DC   0010A003           MOVEQ    R1,#+0
   \   000001E0   0310A013           MOVNE    R1,#+3
   \   000001E4   0630A0E1           MOV      R3,R6
   \   000001E8   4020A0E3           MOV      R2,#+64
   \   000001EC   802C82E3           ORR      R2,R2,#0x8000
   \   000001F0   18008DE2           ADD      R0,SP,#+24
   \   000001F4   650100EF           SWI      +357
   1483              SetFontToEditCOptions(&ec_options,EDIT_FONT_SMALL);
   \   000001F8   0110A0E3           MOV      R1,#+1
   \   000001FC   08008DE2           ADD      R0,SP,#+8
   \   00000200   CA0100EF           SWI      +458
   1484              CopyOptionsToEditControl(&ec,&ec_options);
   \   00000204   08108DE2           ADD      R1,SP,#+8
   \   00000208   18008DE2           ADD      R0,SP,#+24
   \   0000020C   CE0100EF           SWI      +462
   1485              AddEditControlToEditQend(eq,&ec,ma);
   \   00000210   0520A0E1           MOV      R2,R5
   \   00000214   18108DE2           ADD      R1,SP,#+24
   \   00000218   0800A0E1           MOV      R0,R8
   \   0000021C   660100EF           SWI      +358
   1486              uo->focus_n++;
   \   00000220   180097E5           LDR      R0,[R7, #+24]
   1487            }
   1488          //------------
   1489          //------------ time
   1490            if((type==ED_FVIEW)||(type==ED_VIEW)&&strlen(sd->Time)) //time
   \   00000224   050054E3           CMP      R4,#+5
   \   00000228   010080E2           ADD      R0,R0,#+1
   \   0000022C   180087E5           STR      R0,[R7, #+24]
   \   00000230   04D08DE2           ADD      SP,SP,#+4
   \   00000234   0500000A           BEQ      ??createEditGUI_12
   \   00000238   000054E3           CMP      R4,#+0
   \   0000023C   1600001A           BNE      ??createEditGUI_13
   \   00000240   440089E2           ADD      R0,R9,#+68
   \   00000244   1B0000EF           SWI      +27
   \   00000248   000050E3           CMP      R0,#+0
   \   0000024C   1200000A           BEQ      ??createEditGUI_13
   1491            {
   1492              str_2ws(ews, sd->Time, 256);
   \                     ??createEditGUI_12:
   \   00000250   402FA0E3           MOV      R2,#+256
   \   00000254   441089E2           ADD      R1,R9,#+68
   \   00000258   0600A0E1           MOV      R0,R6
   \   0000025C   6C0100EF           SWI      +364
   1493              ConstructEditControl(&ec,ECT_HEADER,ECF_APPEND_EOL,ews,256);
   \   00000260   400FA0E3           MOV      R0,#+256
   \   00000264   01002DE9           PUSH     {R0}
   \   00000268   0630A0E1           MOV      R3,R6
   \   0000026C   4020A0E3           MOV      R2,#+64
   \   00000270   0110A0E3           MOV      R1,#+1
   \   00000274   18008DE2           ADD      R0,SP,#+24
   \   00000278   650100EF           SWI      +357
   1494              AddEditControlToEditQend(eq,&ec,ma);
   \   0000027C   0520A0E1           MOV      R2,R5
   \   00000280   18108DE2           ADD      R1,SP,#+24
   \   00000284   0800A0E1           MOV      R0,R8
   \   00000288   660100EF           SWI      +358
   1495              uo->focus_n++;
   \   0000028C   180097E5           LDR      R0,[R7, #+24]
   \   00000290   010080E2           ADD      R0,R0,#+1
   \   00000294   180087E5           STR      R0,[R7, #+24]
   \   00000298   04D08DE2           ADD      SP,SP,#+4
   1496            }
   1497          //------------
   1498          //------------ line
   1499            str_2ws(ews, STR_LINES,256);
   \                     ??createEditGUI_13:
   \   0000029C   C4119FE5           LDR      R1,??createEditGUI_8+0x8  ;; STR_LINES
   \   000002A0   402FA0E3           MOV      R2,#+256
   \   000002A4   0600A0E1           MOV      R0,R6
   \   000002A8   6C0100EF           SWI      +364
   1500            ConstructEditControl(&ec,ECT_HEADER,ECF_APPEND_EOL,ews,256);
   \   000002AC   400FA0E3           MOV      R0,#+256
   \   000002B0   01002DE9           PUSH     {R0}
   \   000002B4   0630A0E1           MOV      R3,R6
   \   000002B8   4020A0E3           MOV      R2,#+64
   \   000002BC   0110A0E3           MOV      R1,#+1
   \   000002C0   18008DE2           ADD      R0,SP,#+24
   \   000002C4   650100EF           SWI      +357
   1501            AddEditControlToEditQend(eq,&ec,ma);
   \   000002C8   0520A0E1           MOV      R2,R5
   \   000002CC   18108DE2           ADD      R1,SP,#+24
   \   000002D0   0800A0E1           MOV      R0,R8
   \   000002D4   660100EF           SWI      +358
   1502            uo->focus_n++;
   \   000002D8   180097E5           LDR      R0,[R7, #+24]
   \   000002DC   010080E2           ADD      R0,R0,#+1
   \   000002E0   180087E5           STR      R0,[R7, #+24]
   1503          //------------
   1504          //------------ TXT
   1505            if(sd->SMS_TEXT)
   \   000002E4   641099E5           LDR      R1,[R9, #+100]
   \   000002E8   04D08DE2           ADD      SP,SP,#+4
   \   000002EC   000051E3           CMP      R1,#+0
   \   000002F0   0500000A           BEQ      ??createEditGUI_14
   1506            {
   1507              wstrcpy(ews, sd->SMS_TEXT);
   \   000002F4   0600A0E1           MOV      R0,R6
   \   000002F8   1F0100EF           SWI      +287
   1508              uo->chr_cnt=ews->wsbody[0];
   \   000002FC   000096E5           LDR      R0,[R6, #+0]
   \   00000300   B000D0E1           LDRH     R0,[R0, #+0]
   \   00000304   200087E5           STR      R0,[R7, #+32]
   \   00000308   020000EA           B        ??createEditGUI_15
   1509            }
   1510            else
   1511              CutWSTR(ews, 0);
   \                     ??createEditGUI_14:
   \   0000030C   0010A0E3           MOV      R1,#+0
   \   00000310   0600A0E1           MOV      R0,R6
   \   00000314   260100EF           SWI      +294
   1512            switch(type)
   \                     ??createEditGUI_15:
   \   00000318   0400A0E1           MOV      R0,R4
   \   0000031C   070050E3           CMP      R0,#+7
   \   00000320   1800008A           BHI      ??createEditGUI_16
   \   00000324   011F8FE2           ADR      R1,??createEditGUI_0
   \   00000328   0010D1E7           LDRB     R1,[R1, R0]
   \   0000032C   01F18FE0           ADD      PC,PC,R1, LSL #+2
   \                     ??createEditGUI_0:
   \   00000330   01070C0C           DC8      +1,+7,+12,+12
   \   00000334   0701070C           DC8      +7,+1,+7,+12
   1513            {
   1514            case ED_VIEW:
   1515            case ED_FVIEW:
   1516              ConstructEditControl(&ec,ECT_NORMAL_TEXT,ECF_APPEND_EOL,ews,MAX_TEXT);
   \                     ??createEditGUI_17:
   \   00000338   800EA0E3           MOV      R0,#+2048
   \   0000033C   01002DE9           PUSH     {R0}
   \   00000340   0630A0E1           MOV      R3,R6
   \   00000344   4020A0E3           MOV      R2,#+64
   \                     ??createEditGUI_18:
   \   00000348   0310A0E3           MOV      R1,#+3
   \   0000034C   120000EA           B        ??createEditGUI_19
   1517              break;
   1518            case ED_FREE:
   1519            case ED_EDIT:
   1520            case ED_FEDIT:
   1521              ConstructEditControl(&ec,TEXT_INPUT_OPTION,ECF_APPEND_EOL|ECF_DEFAULT_BIG_LETTER,ews,MAX_TEXT);
   \                     ??createEditGUI_20:
   \   00000350   800EA0E3           MOV      R0,#+2048
   \   00000354   01002DE9           PUSH     {R0}
   \   00000358   0630A0E1           MOV      R3,R6
   \   0000035C   412DA0E3           MOV      R2,#+4160
   \   00000360   F8FFFFEA           B        ??createEditGUI_18
   1522              break;
   1523            case ED_NEW:
   1524            case ED_REPLY:
   1525            case ED_FREPLY:
   1526              CutWSTR(ews, 0);
   \                     ??createEditGUI_21:
   \   00000364   0010A0E3           MOV      R1,#+0
   \   00000368   0600A0E1           MOV      R0,R6
   \   0000036C   260100EF           SWI      +294
   1527              ConstructEditControl(&ec,TEXT_INPUT_OPTION,ECF_APPEND_EOL|ECF_DEFAULT_BIG_LETTER,ews,MAX_TEXT);
   \   00000370   800EA0E3           MOV      R0,#+2048
   \   00000374   01002DE9           PUSH     {R0}
   \   00000378   0630A0E1           MOV      R3,R6
   \   0000037C   412DA0E3           MOV      R2,#+4160
   \   00000380   0310A0E3           MOV      R1,#+3
   \   00000384   040000EA           B        ??createEditGUI_19
   1528              break;
   1529            default:
   1530              ConstructEditControl(&ec,ECT_READ_ONLY,ECF_APPEND_EOL,ews,MAX_TEXT);
   \                     ??createEditGUI_16:
   \   00000388   800EA0E3           MOV      R0,#+2048
   \   0000038C   01002DE9           PUSH     {R0}
   \   00000390   0630A0E1           MOV      R3,R6
   \   00000394   4020A0E3           MOV      R2,#+64
   \   00000398   0010A0E3           MOV      R1,#+0
   \                     ??createEditGUI_19:
   \   0000039C   18008DE2           ADD      R0,SP,#+24
   \   000003A0   650100EF           SWI      +357
   1531              break;
   1532            }
   1533            //
   1534            SetFontToEditCOptions(&ec_options,CFG_TEXT_FONT);
   \   000003A4   C0009FE5           LDR      R0,??createEditGUI_8+0xC  ;; CFG_TEXT_FONT
   \   000003A8   04D08DE2           ADD      SP,SP,#+4
   \   000003AC   001090E5           LDR      R1,[R0, #+0]
   \   000003B0   04008DE2           ADD      R0,SP,#+4
   \   000003B4   CA0100EF           SWI      +458
   1535            CopyOptionsToEditControl(&ec,&ec_options);
   \   000003B8   04108DE2           ADD      R1,SP,#+4
   \   000003BC   14008DE2           ADD      R0,SP,#+20
   \   000003C0   CE0100EF           SWI      +462
   1536            AddEditControlToEditQend(eq,&ec,ma);
   \   000003C4   0520A0E1           MOV      R2,R5
   1537            uo->focus_n++;
   1538          //----------	
   1539          	
   1540            if (type==ED_VIEW || type==ED_FVIEW)
   \   000003C8   A0509FE5           LDR      R5,??createEditGUI_8+0x10  ;; ED_DESC
   \   000003CC   14108DE2           ADD      R1,SP,#+20
   \   000003D0   0800A0E1           MOV      R0,R8
   \   000003D4   660100EF           SWI      +358
   \   000003D8   180097E5           LDR      R0,[R7, #+24]
   \   000003DC   000054E3           CMP      R4,#+0
   \   000003E0   05005413           CMPNE    R4,#+5
   1541              edd=&ED_DESC_RO;
   1542            else
   1543              edd=&ED_DESC;
   1544            patch_header(&ED_HDR);
   \   000003E4   ........           LDR      R4,??DataTable12  ;; ED_HDR
   \   000003E8   010080E2           ADD      R0,R0,#+1
   \   000003EC   180087E5           STR      R0,[R7, #+24]
   \   000003F0   38508502           ADDEQ    R5,R5,#+56
   \   000003F4   0000A0E3           MOV      R0,#+0
   \   000003F8   B000C4E1           STRH     R0,[R4, #+0]
   \   000003FC   1800A0E3           MOV      R0,#+24
   \   00000400   B200C4E1           STRH     R0,[R4, #+2]
   \   00000404   888100EF           SWI      +33160
   \   00000408   010040E2           SUB      R0,R0,#+1
   \   0000040C   B400C4E1           STRH     R0,[R4, #+4]
   \   00000410   8A8100EF           SWI      +33162
   \   00000414   170080E2           ADD      R0,R0,#+23
   \   00000418   B600C4E1           STRH     R0,[R4, #+6]
   1545            patch_input(edd);
   \   0000041C   0500A0E1           MOV      R0,R5
   \   00000420   ........           _BLF     patch_input,??patch_input??rA
   1546            gui_id=CreateInputTextDialog(edd, &ED_HDR, eq, 1, uo);
   \   00000424   80002DE9           PUSH     {R7}
   \   00000428   0130A0E3           MOV      R3,#+1
   \   0000042C   0820A0E1           MOV      R2,R8
   \   00000430   0410A0E1           MOV      R1,R4
   \   00000434   0500A0E1           MOV      R0,R5
   \   00000438   670100EF           SWI      +359
   \   0000043C   0040A0E1           MOV      R4,R0
   1547            pushGS(dlg_csm, gui_id);
   \   00000440   0410A0E1           MOV      R1,R4
   \   00000444   410D8DE2           ADD      R0,SP,#+4160
   \   00000448   180090E5           LDR      R0,[R0, #+24]
   \   0000044C   ........           _BLF     pushGS,??pushGS??rA
   1548            return gui_id;
   \   00000450   0400A0E1           MOV      R0,R4
   \   00000454   5CD08DE2           ADD      SP,SP,#+92
   \   00000458   40DD8DE2           ADD      SP,SP,#+4096
   \   0000045C   F08FBDE8           POP      {R4-R11,PC}      ;; return
   \                     ??createEditGUI_8:
   \   00000460   25630000           DC8      "%c",+0
   \   00000464   ........           DC32     CFG_DEFAULT_SENT_NUM
   \   00000468   ........           DC32     STR_LINES
   \   0000046C   ........           DC32     CFG_TEXT_FONT
   \   00000470   ........           DC32     ED_DESC
   1549          }
   1550          

   \                                 In segment CODE, align 4, keep-with-next
   1551          int newSMS(void *dlg_csm)
   1552          {
   \                     newSMS:
   \   00000000   10402DE9           PUSH     {R4,LR}
   \   00000004   0040A0E1           MOV      R4,R0
   1553          	SMS_DATA *sd=AllocSD();
   \   00000008   ........           _BLF     AllocSD,??AllocSD??rA
   1554          	return (createEditGUI(dlg_csm, sd, ED_FREE, 0));
   \   0000000C   0030A0E3           MOV      R3,#+0
   \   00000010   0420A0E3           MOV      R2,#+4
   \   00000014   0010A0E1           MOV      R1,R0
   \   00000018   0400A0E1           MOV      R0,R4
   \   0000001C   1040BDE8           POP      {R4,LR}          ;; Pop
   \   00000020   ........           B        createEditGUI    ;; tailcall
   1555          }

   \                                 In segment CODE, align 4, keep-with-next
   1556          int viewTheLastNew(void *dlg_csm)
   1557          {
   \                     viewTheLastNew:
   \   00000000   10402DE9           PUSH     {R4,LR}
   \   00000004   0040A0E1           MOV      R4,R0
   1558          	SMS_DATA *sd=GetTheLastNew(0);
   \   00000008   0000A0E3           MOV      R0,#+0
   \   0000000C   ........           _BLF     GetTheLastNew,??GetTheLastNew??rA
   1559          	if(!sd)
   \   00000010   000050E3           CMP      R0,#+0
   1560          		return 0;
   \   00000014   1080BD08           POPEQ    {R4,PC}
   1561          	return(createEditGUI(dlg_csm, sd, ED_VIEW, TYPE_IN_N));
   \   00000018   0330A0E3           MOV      R3,#+3
   \   0000001C   0020A0E3           MOV      R2,#+0
   \   00000020   0010A0E1           MOV      R1,R0
   \   00000024   0400A0E1           MOV      R0,R4
   \   00000028   1040BDE8           POP      {R4,LR}          ;; Pop
   \   0000002C   ........           B        createEditGUI    ;; tailcall
   1562          }
   1563          

   \                                 In segment CODE, align 4, keep-with-next
   1564          int newSMSWithNum(void *dlg_csm, char *num)
   1565          {
   \                     newSMSWithNum:
   \   00000000   70402DE9           PUSH     {R4-R6,LR}
   \   00000004   0040A0E1           MOV      R4,R0
   \   00000008   0150B0E1           MOVS     R5,R1
   1566          	SMS_DATA *sd;
   1567          	if(!num)
   1568          		return 0;
   \   0000000C   0000A003           MOVEQ    R0,#+0
   \   00000010   7080BD08           POPEQ    {R4-R6,PC}
   1569          	sd=AllocSD();
   \   00000014   ........           _BLF     AllocSD,??AllocSD??rA
   \   00000018   0060A0E1           MOV      R6,R0
   1570          	strcpy(sd->Number, num);
   \   0000001C   0510A0E1           MOV      R1,R5
   \   00000020   240086E2           ADD      R0,R6,#+36
   \   00000024   1A0000EF           SWI      +26
   1571          	mfree(num);
   \   00000028   0500A0E1           MOV      R0,R5
   \   0000002C   150000EF           SWI      +21
   1572          	return (createEditGUI(dlg_csm, sd, ED_FREE, 0));
   \   00000030   0030A0E3           MOV      R3,#+0
   \   00000034   0420A0E3           MOV      R2,#+4
   \   00000038   0610A0E1           MOV      R1,R6
   \   0000003C   0400A0E1           MOV      R0,R4
   \   00000040   7040BDE8           POP      {R4-R6,LR}       ;; Pop
   \   00000044   ........           B        createEditGUI    ;; tailcall
   1573          }
   1574          

   \                                 In segment CODE, align 4, keep-with-next
   1575          int newSMSWithUtf8Text(void *dlg_csm, char *text_utf8)
   1576          {
   \                     newSMSWithUtf8Text:
   \   00000000   70402DE9           PUSH     {R4-R6,LR}
   \   00000004   0040A0E1           MOV      R4,R0
   \   00000008   0150B0E1           MOVS     R5,R1
   1577          	SMS_DATA *sd;
   1578          	WSHDR *ws;
   1579          	if(!text_utf8)
   1580          		return 0;
   \   0000000C   0000A003           MOVEQ    R0,#+0
   \   00000010   7080BD08           POPEQ    {R4-R6,PC}
   1581          	sd=malloc(sizeof(SMS_DATA));
   \   00000014   6800A0E3           MOV      R0,#+104
   \   00000018   140000EF           SWI      +20
   \   0000001C   0060A0E1           MOV      R6,R0
   1582          	zeromem(sd, sizeof(SMS_DATA));
   \   00000020   6810A0E3           MOV      R1,#+104
   \   00000024   1D0100EF           SWI      +285
   1583          	ws=AllocWS(MAX_TEXT);
   \   00000028   800EA0E3           MOV      R0,#+2048
   \   0000002C   250100EF           SWI      +293
   1584          	sd->SMS_TEXT=ws;
   \   00000030   640086E5           STR      R0,[R6, #+100]
   1585          	utf8_2ws(ws, text_utf8, MAX_TEXT);
   \   00000034   802EA0E3           MOV      R2,#+2048
   \   00000038   0510A0E1           MOV      R1,R5
   \   0000003C   E30100EF           SWI      +483
   1586          	mfree(text_utf8);
   \   00000040   0500A0E1           MOV      R0,R5
   \   00000044   150000EF           SWI      +21
   1587          	return (createEditGUI(dlg_csm, sd, ED_FREE, 0));
   \   00000048   0030A0E3           MOV      R3,#+0
   \   0000004C   0420A0E3           MOV      R2,#+4
   \   00000050   0610A0E1           MOV      R1,R6
   \   00000054   0400A0E1           MOV      R0,R4
   \   00000058   7040BDE8           POP      {R4-R6,LR}       ;; Pop
   \   0000005C   ........           B        createEditGUI    ;; tailcall
   1588          }
   1589          

   \                                 In segment CODE, align 4, keep-with-next
   1590          int DoByOpmsgId(void *dlg_csm, int msg, int opmsg_id)
   1591          {
   \                     DoByOpmsgId:
   \   00000000   F0402DE9           PUSH     {R4-R7,LR}
   \   00000004   0040A0E1           MOV      R4,R0
   \   00000008   0150A0E1           MOV      R5,R1
   \   0000000C   0200B0E1           MOVS     R0,R2
   1592          	SMS_DATA *sd;
   1593          	if((!opmsg_id)||(!(sd=FindSDByOpmsgId(opmsg_id))))
   \   00000010   F080BD08           POPEQ    {R4-R7,PC}
   \   00000014   ........           _BLF     FindSDByOpmsgId,??FindSDByOpmsgId??rA
   \   00000018   0060B0E1           MOVS     R6,R0
   \   0000001C   0100001A           BNE      ??DoByOpmsgId_0
   1594          		return 0;
   \   00000020   0000A0E3           MOV      R0,#+0
   \   00000024   F080BDE8           POP      {R4-R7,PC}
   1595          	switch(msg)
   \                     ??DoByOpmsgId_0:
   \   00000028   845055E2           SUBS     R5,R5,#+132
   \   0000002C   0700000A           BEQ      ??DoByOpmsgId_1
   \   00000030   015055E2           SUBS     R5,R5,#+1
   \   00000034   0800000A           BEQ      ??DoByOpmsgId_2
   \   00000038   015055E2           SUBS     R5,R5,#+1
   \   0000003C   0C00000A           BEQ      ??DoByOpmsgId_3
   \   00000040   015055E2           SUBS     R5,R5,#+1
   \   00000044   0D00000A           BEQ      ??DoByOpmsgId_4
   \   00000048   0000A0E3           MOV      R0,#+0
   \   0000004C   F080BDE8           POP      {R4-R7,PC}
   1596          	{
   1597          	case SMSYS_IPC_VIEW_OPMSG:
   1598          		return (createEditGUI(dlg_csm, sd, ED_VIEW, TYPE_IN_ALL));
   \                     ??DoByOpmsgId_1:
   \   00000050   0530A0E3           MOV      R3,#+5
   \   00000054   0020A0E3           MOV      R2,#+0
   \   00000058   010000EA           B        ??DoByOpmsgId_5
   1599          	case SMSYS_IPC_REPLY_OPMSG:
   1600          		return (createEditGUI(dlg_csm, sd, ED_REPLY, 0));
   \                     ??DoByOpmsgId_2:
   \   0000005C   0030A0E3           MOV      R3,#+0
   \   00000060   0220A0E3           MOV      R2,#+2
   \                     ??DoByOpmsgId_5:
   \   00000064   0610A0E1           MOV      R1,R6
   \   00000068   0400A0E1           MOV      R0,R4
   \   0000006C   ........           BL       createEditGUI
   \   00000070   F080BDE8           POP      {R4-R7,PC}
   1601          	case SMSYS_IPC_QR_OPMSG:
   1602          		return (createEditGUI(dlg_csm, sd, ED_EDIT, 0));
   \                     ??DoByOpmsgId_3:
   \   00000074   0030A0E3           MOV      R3,#+0
   \   00000078   0120A0E3           MOV      R2,#+1
   \   0000007C   F8FFFFEA           B        ??DoByOpmsgId_5
   1603          	case SMSYS_IPC_QN_OPMSG:
   1604          		{
   1605          			SMS_DATA *sdx=malloc(sizeof(SMS_DATA));
   \                     ??DoByOpmsgId_4:
   \   00000080   6800A0E3           MOV      R0,#+104
   \   00000084   140000EF           SWI      +20
   \   00000088   0050A0E1           MOV      R5,R0
   1606          			WSHDR *ws=AllocWS(MAX_TEXT);
   \   0000008C   800EA0E3           MOV      R0,#+2048
   \   00000090   250100EF           SWI      +293
   \   00000094   0070A0E1           MOV      R7,R0
   1607          			zeromem(sdx, sizeof(SMS_DATA));
   \   00000098   6810A0E3           MOV      R1,#+104
   \   0000009C   0500A0E1           MOV      R0,R5
   \   000000A0   1D0100EF           SWI      +285
   1608          			sdx->SMS_TEXT=ws;
   \   000000A4   647085E5           STR      R7,[R5, #+100]
   1609          			wstrcpy(ws, sd->SMS_TEXT);
   \   000000A8   641096E5           LDR      R1,[R6, #+100]
   \   000000AC   0700A0E1           MOV      R0,R7
   \   000000B0   1F0100EF           SWI      +287
   1610          			return (createEditGUI(dlg_csm, sdx, ED_FREE, 0));
   \   000000B4   0030A0E3           MOV      R3,#+0
   \   000000B8   0420A0E3           MOV      R2,#+4
   \   000000BC   0510A0E1           MOV      R1,R5
   \   000000C0   0400A0E1           MOV      R0,R4
   \   000000C4   ........           BL       createEditGUI
   \   000000C8   F080BDE8           POP      {R4-R7,PC}
   1611          		}
   1612          	}
   1613          	return 0;
   1614          }
   1615          

   \                                 In segment CODE, align 4, keep-with-next
   1616          int CreateSmsWS(void *dlg_csm, WSHDR *text)
   1617          {
   \                     CreateSmsWS:
   \   00000000   F0402DE9           PUSH     {R4-R7,LR}
   \   00000004   0040A0E1           MOV      R4,R0
   \   00000008   0150B0E1           MOVS     R5,R1
   1618            SMS_DATA *sd;
   1619            WSHDR *ws;
   1620            if(!text) return 0;
   \   0000000C   0000A003           MOVEQ    R0,#+0
   \   00000010   F080BD08           POPEQ    {R4-R7,PC}
   1621            sd=AllocSD();
   \   00000014   ........           _BLF     AllocSD,??AllocSD??rA
   \   00000018   0060A0E1           MOV      R6,R0
   1622            ws=AllocWS(text->wsbody[0]);
   \   0000001C   000095E5           LDR      R0,[R5, #+0]
   \   00000020   B000D0E1           LDRH     R0,[R0, #+0]
   \   00000024   250100EF           SWI      +293
   \   00000028   0070A0E1           MOV      R7,R0
   1623            wstrcpy(ws, text);
   \   0000002C   0510A0E1           MOV      R1,R5
   \   00000030   1F0100EF           SWI      +287
   1624            FreeWS(text);
   \   00000034   0500A0E1           MOV      R0,R5
   \   00000038   290100EF           SWI      +297
   1625            sd->SMS_TEXT=ws;
   \   0000003C   647086E5           STR      R7,[R6, #+100]
   1626            return (createEditGUI(dlg_csm, sd, ED_FREE, 0));
   \   00000040   0030A0E3           MOV      R3,#+0
   \   00000044   0420A0E3           MOV      R2,#+4
   \   00000048   0610A0E1           MOV      R1,R6
   \   0000004C   0400A0E1           MOV      R0,R4
   \   00000050   F040BDE8           POP      {R4-R7,LR}       ;; Pop
   \   00000054   ........           B        createEditGUI    ;; tailcall
   1627          }
   1628          

   \                                 In segment CODE, align 4, keep-with-next
   1629          unsigned int ViewFile(void *dlg_csm, char *fname)
   1630          {
   \                     ViewFile:
   \   00000000   70402DE9           PUSH     {R4-R6,LR}
   \   00000004   0040A0E1           MOV      R4,R0
   \   00000008   0150A0E1           MOV      R5,R1
   1631          	SMS_DATA *sd;
   1632          	if(!strlen(fname))
   \   0000000C   0500A0E1           MOV      R0,R5
   \   00000010   1B0000EF           SWI      +27
   \   00000014   000050E3           CMP      R0,#+0
   1633          		return 0;
   \   00000018   7080BD08           POPEQ    {R4-R6,PC}
   1634          	sd=malloc(sizeof(SMS_DATA));
   \   0000001C   6800A0E3           MOV      R0,#+104
   \   00000020   140000EF           SWI      +20
   \   00000024   0060A0E1           MOV      R6,R0
   1635          	zeromem(sd, sizeof(SMS_DATA));
   \   00000028   6810A0E3           MOV      R1,#+104
   \   0000002C   1D0100EF           SWI      +285
   1636          	if(!ReadMSS(fname, sd))
   \   00000030   0610A0E1           MOV      R1,R6
   \   00000034   0500A0E1           MOV      R0,R5
   \   00000038   ........           _BLF     ReadMSS,??ReadMSS??rA
   \   0000003C   000050E3           CMP      R0,#+0
   \   00000040   0300001A           BNE      ??ViewFile_0
   1637          	{
   1638          		FreeSdOne(sd);
   \   00000044   0600A0E1           MOV      R0,R6
   \   00000048   ........           _BLF     FreeSdOne,??FreeSdOne??rA
   1639          		return 0;
   \   0000004C   0000A0E3           MOV      R0,#+0
   \   00000050   7080BDE8           POP      {R4-R6,PC}
   1640          	}
   1641          	return (createEditGUI(dlg_csm, sd, ED_FVIEW, 0));
   \                     ??ViewFile_0:
   \   00000054   0030A0E3           MOV      R3,#+0
   \   00000058   0520A0E3           MOV      R2,#+5
   \   0000005C   0610A0E1           MOV      R1,R6
   \   00000060   0400A0E1           MOV      R0,R4
   \   00000064   ........           BL       createEditGUI
   \   00000068   7080BDE8           POP      {R4-R6,PC}       ;; return
   1642          }
   1643          #define IDYES	0
   1644          #define IDNO	1
   1645          typedef struct
   1646          {
   1647            int type;
   1648            char *path;
   1649          }PI_UP;

   \                                 In segment CODE, align 4, keep-with-next
   1650          void DeleteAllMss_proc(int id)
   1651          {
   \                     DeleteAllMss_proc:
   \   00000000   00402DE9           PUSH     {LR}
   1652          	if(id==IDYES)
   \   00000004   000050E3           CMP      R0,#+0
   \   00000008   0080BD18           POPNE    {PC}
   1653          		DeleteAllMss();
   \   0000000C   ........           _BLF     DeleteAllMss,??DeleteAllMss??rA
   1654          }
   \   00000010   0080BDE8           POP      {PC}             ;; return

   \                                 In segment CODE, align 4, keep-with-next
   1655          void delallproc(void)
   1656          {
   1657          	MsgBoxYesNo(1, (int)lgp.LGP_DEL_ALL_MSS, DeleteAllMss_proc);
   \                     delallproc:
   \   00000000   14209FE5           LDR      R2,??delallproc_0  ;; DeleteAllMss_proc
   \   00000004   14009FE5           LDR      R0,??delallproc_0+0x4  ;; lgp + 180
   \   00000008   00402DE9           PUSH     {LR}
   \   0000000C   001090E5           LDR      R1,[R0, #+0]
   \   00000010   0100A0E3           MOV      R0,#+1
   \   00000014   4F0000EF           SWI      +79
   1658          }
   \   00000018   0080BDE8           POP      {PC}             ;; return
   \                     ??delallproc_0:
   \   0000001C   ........           DC32     DeleteAllMss_proc
   \   00000020   ........           DC32     lgp + 180

   \                                 In segment CODE, align 4, keep-with-next
   1659          int PathInputOnKey(GUI *data, GUI_MSG *msg)
   1660          {
   \                     PathInputOnKey:
   \   00000000   70402DE9           PUSH     {R4-R6,LR}
   \   00000004   ECD04DE2           SUB      SP,SP,#+236
   \   00000008   0040A0E1           MOV      R4,R0
   \   0000000C   0150A0E1           MOV      R5,R1
   1661            EDITCONTROL ec;
   1662            char path[128];
   1663            PI_UP *iu=EDIT_GetUserPointer(data);
   \   00000010   DF0100EF           SWI      +479
   \   00000014   0060A0E1           MOV      R6,R0
   1664            if(msg->keys==0x1A)
   \   00000018   F200D5E1           LDRSH    R0,[R5, #+2]
   \   0000001C   1A0050E3           CMP      R0,#+26
   \   00000020   3300001A           BNE      ??PathInputOnKey_0
   1665            {
   1666              int k;
   1667              ExtractEditControl(data,2,&ec);
   \   00000024   C0208DE2           ADD      R2,SP,#+192
   \   00000028   0210A0E3           MOV      R1,#+2
   \   0000002C   0400A0E1           MOV      R0,R4
   1668              ws_2str(ec.pWS, path, 128);
   1669              if(iu->type==INPUT_EXP_TXT)
   \   00000030   C8409FE5           LDR      R4,??PathInputOnKey_1  ;; lgp
   \   00000034   690100EF           SWI      +361
   \   00000038   E8009DE5           LDR      R0,[SP, #+232]
   \   0000003C   8020A0E3           MOV      R2,#+128
   \   00000040   0D10A0E1           MOV      R1,SP
   \   00000044   A30000EF           SWI      +163
   \   00000048   000096E5           LDR      R0,[R6, #+0]
   \   0000004C   000050E3           CMP      R0,#+0
   \   00000050   0C00001A           BNE      ??PathInputOnKey_2
   1670              {
   1671                k=ExportAllToOneTxt(path);
   \   00000054   0D00A0E1           MOV      R0,SP
   \   00000058   ........           _BLF     ExportAllToOneTxt,??ExportAllToOneTxt??rA
   1672                if(k>0)
   \   0000005C   010050E3           CMP      R0,#+1
   \   00000060   210000BA           BLT      ??PathInputOnKey_3
   1673                {
   1674          	char msg[64];
   1675              	sprintf(msg, lgp.LGP_EXPORT_N, k);
   \   00000064   AC1094E5           LDR      R1,[R4, #+172]
   \   00000068   0020A0E1           MOV      R2,R0
   \   0000006C   80008DE2           ADD      R0,SP,#+128
   \   00000070   160000EF           SWI      +22
   1676          	ShowMSG_offproc(1, msg, delallproc);
   \   00000074   88209FE5           LDR      R2,??PathInputOnKey_1+0x4  ;; delallproc
   \   00000078   80108DE2           ADD      R1,SP,#+128
   \   0000007C   0100A0E3           MOV      R0,#+1
   \   00000080   ........           _BLF     ShowMSG_offproc,??ShowMSG_offproc??rA
   \   00000084   040000EA           B        ??PathInputOnKey_4
   1677                }
   1678                else
   1679          	ShowFileErrCode(k);
   1680              }
   1681              else if(iu->type==INPUT_COV_DAT)
   \                     ??PathInputOnKey_2:
   \   00000088   020050E3           CMP      R0,#+2
   \   0000008C   0500001A           BNE      ??PathInputOnKey_5
   1682              {
   1683                PathInputDlg(INPUT_COV_TXT, path);
   \   00000090   0D10A0E1           MOV      R1,SP
   \   00000094   0100A0E3           MOV      R0,#+1
   \   00000098   ........           BL       PathInputDlg
   \                     ??PathInputOnKey_4:
   \   0000009C   0100A0E3           MOV      R0,#+1
   \   000000A0   ECD08DE2           ADD      SP,SP,#+236
   \   000000A4   7080BDE8           POP      {R4-R6,PC}
   1684              }
   1685              else if(iu->type==INPUT_COV_TXT && iu->path)
   \                     ??PathInputOnKey_5:
   \   000000A8   010050E3           CMP      R0,#+1
   \   000000AC   FAFFFF1A           BNE      ??PathInputOnKey_4
   \   000000B0   040096E5           LDR      R0,[R6, #+4]
   \   000000B4   000050E3           CMP      R0,#+0
   \   000000B8   F7FFFF0A           BEQ      ??PathInputOnKey_4
   1686              {
   1687                k=CovDatToTxt(iu->path, path);
   \   000000BC   0D10A0E1           MOV      R1,SP
   \   000000C0   ........           _BLF     CovDatToTxt,??CovDatToTxt??rA
   1688                if(k>0)
   \   000000C4   010050E3           CMP      R0,#+1
   \   000000C8   070000BA           BLT      ??PathInputOnKey_3
   1689                {
   1690          	char msg[64];
   1691              	sprintf(msg, lgp.LGP_EXPORT_N, k);
   \   000000CC   AC1094E5           LDR      R1,[R4, #+172]
   \   000000D0   0020A0E1           MOV      R2,R0
   \   000000D4   80008DE2           ADD      R0,SP,#+128
   \   000000D8   160000EF           SWI      +22
   1692          	ShowMSG(1, (int)msg);
   \   000000DC   80108DE2           ADD      R1,SP,#+128
   \   000000E0   0100A0E3           MOV      R0,#+1
   \   000000E4   480100EF           SWI      +328
   \   000000E8   EBFFFFEA           B        ??PathInputOnKey_4
   1693                }
   1694                else
   1695          	ShowFileErrCode(k);
   \                     ??PathInputOnKey_3:
   \   000000EC   ........           _BLF     ShowFileErrCode,??ShowFileErrCode??rA
   1696              }
   1697              return 1;
   \                     ??PathInputOnKey_6:
   \   000000F0   E9FFFFEA           B        ??PathInputOnKey_4
   1698            }
   1699            return 0;
   \                     ??PathInputOnKey_0:
   \   000000F4   0000A0E3           MOV      R0,#+0
   \   000000F8   ECD08DE2           ADD      SP,SP,#+236
   \   000000FC   7080BDE8           POP      {R4-R6,PC}       ;; return
   \                     ??PathInputOnKey_1:
   \   00000100   ........           DC32     lgp
   \   00000104   ........           DC32     delallproc
   1700          }
   1701          

   \                                 In segment CODE, align 4, keep-with-next
   1702          void PathInputGHook(GUI *data, int cmd)
   1703          {
   \                     PathInputGHook:
   \   00000000   10402DE9           PUSH     {R4,LR}
   1704            if(cmd==0x0A)
   \   00000004   0A0051E3           CMP      R1,#+10
   \   00000008   0100001A           BNE      ??PathInputGHook_0
   1705              DisableIDLETMR();
   \   0000000C   7F0100EF           SWI      +383
   \   00000010   1080BDE8           POP      {R4,PC}
   1706            else if(cmd==TI_CMD_DESTROY)
   \                     ??PathInputGHook_0:
   \   00000014   030051E3           CMP      R1,#+3
   \   00000018   1080BD18           POPNE    {R4,PC}
   1707            {
   1708              PI_UP *iu=EDIT_GetUserPointer(data);
   \   0000001C   DF0100EF           SWI      +479
   \   00000020   0040A0E1           MOV      R4,R0
   1709              if(iu->path)
   \   00000024   040094E5           LDR      R0,[R4, #+4]
   \   00000028   000050E3           CMP      R0,#+0
   \   0000002C   0000000A           BEQ      ??PathInputGHook_1
   1710                mfree(iu->path);
   \   00000030   150000EF           SWI      +21
   1711              mfree(iu);
   \                     ??PathInputGHook_1:
   \   00000034   0400A0E1           MOV      R0,R4
   \   00000038   150000EF           SWI      +21
   1712            }
   1713          }
   \   0000003C   1080BDE8           POP      {R4,PC}          ;; return

   \                                 In segment DATA_I, align 4, align-sorted
   \                     ED_HDR:
   \   00000000                      DS8 20
   \   00000014                      REQUIRE `?<Initializer for ED_HDR>`
   1714          
   1715          INPUTDIA_DESC PATH_INPUT_DESC=
   \                     PATH_INPUT_DESC:
   \   00000014                      DS8 56
   \   0000004C                      REQUIRE `?<Initializer for PATH_INPUT_DESC>`

   \                                 In segment DATA_I, align 4, align-sorted
   \                     ed_menu_sk:
   \   00000000                      DS8 24
   \   00000018                      REQUIRE `?<Initializer for ed_menu_sk>`

   \                                 In segment DATA_I, align 4, align-sorted
   \                     ed_menuhdr:
   \   00000000                      DS8 20
   \   00000014                      REQUIRE `?<Initializer for ed_menuhdr>`

   \                                 In segment DATA_I, align 4, align-sorted
   \                     items_lgp_nml_file:
   \   00000000                      DS8 28
   \   0000001C                      REQUIRE `?<Initializer for items_lgp_nml_file>`
   \                     items_lgp_nml_dat:
   \   0000001C                      DS8 32
   \   0000003C                      REQUIRE `?<Initializer for items_lgp_nml_dat>`
   \                     items_lgp_archive_file:
   \   0000003C                      DS8 24
   \   00000054                      REQUIRE `?<Initializer for items_lgp_archive_file>`
   \                     ed_menu_item_icons:
   \   00000054                      DS8 8
   \   0000005C                      REQUIRE `?<Initializer for ed_menu_item_icons>`

   \                                 In segment DATA_I, align 4, align-sorted
   \                     SK_OPTIONS:
   \   00000000                      DS8 8
   \   00000008                      REQUIRE `?<Initializer for SK_OPTIONS>`
   \                     SK_ADRBK:
   \   00000008                      DS8 8
   \   00000010                      REQUIRE `?<Initializer for SK_ADRBK>`
   \                     SK_CANCEL:
   \   00000010                      DS8 8
   \   00000018                      REQUIRE `?<Initializer for SK_CANCEL>`
   \                     SK_OP_PIC:
   \   00000018                      DS8 8
   \   00000020                      REQUIRE `?<Initializer for SK_OP_PIC>`
   \                     EDHDRIC_VIEW:
   \   00000020                      DS8 8
   \   00000028                      REQUIRE `?<Initializer for EDHDRIC_VIEW>`
   \                     EDHDRIC_EDIT:
   \   00000028                      DS8 8
   \   00000030                      REQUIRE `?<Initializer for EDHDRIC_EDIT>`
   \                     EDHDRIC_ADRBK:
   \   00000030                      DS8 8
   \   00000038                      REQUIRE `?<Initializer for EDHDRIC_ADRBK>`
   1716          {
   1717            1,
   1718            PathInputOnKey,
   1719            PathInputGHook,
   1720            (void *)ed_locret,
   1721            0,
   1722            &ed_menu_skt,
   1723            {0,0,0,0},
   1724            FONT_SMALL,
   1725            100,
   1726            101,
   1727            0,
   1728            0,
   1729            0x40000000
   1730          };
   1731          

   \                                 In segment CODE, align 4, keep-with-next
   1732          void PathInputDlg(int type, char *path)
   1733          {
   \                     PathInputDlg:
   \   00000000   F0432DE9           PUSH     {R4-R9,LR}
   \   00000004   3CD04DE2           SUB      SP,SP,#+60
   \   00000008   0060A0E1           MOV      R6,R0
   \   0000000C   0180A0E1           MOV      R8,R1
   1734            void *ma=malloc_adr();
   \   00000010   148000EF           SWI      +32788
   \   00000014   0070A0E1           MOV      R7,R0
   1735            void *eq;
   1736            EDITCONTROL ec;
   1737            WSHDR *ews;
   1738            TDate date;
   1739            TTime time;
   1740            PI_UP *iu=malloc(sizeof(PI_UP));
   \   00000018   0800A0E3           MOV      R0,#+8
   \   0000001C   140000EF           SWI      +20
   \   00000020   0040A0E1           MOV      R4,R0
   1741            iu->type=type;
   \   00000024   006084E5           STR      R6,[R4, #+0]
   1742            if(path)
   \   00000028   0050A0E3           MOV      R5,#+0
   \   0000002C   000058E3           CMP      R8,#+0
   \   00000030   0500000A           BEQ      ??PathInputDlg_0
   1743            {
   1744              iu->path=malloc(128);
   \   00000034   8000A0E3           MOV      R0,#+128
   \   00000038   140000EF           SWI      +20
   \   0000003C   040084E5           STR      R0,[R4, #+4]
   1745              strcpy(iu->path, path);
   \   00000040   0810A0E1           MOV      R1,R8
   \   00000044   1A0000EF           SWI      +26
   \   00000048   000000EA           B        ??PathInputDlg_1
   1746            }
   1747            else
   1748              iu->path=0;
   \                     ??PathInputDlg_0:
   \   0000004C   045084E5           STR      R5,[R4, #+4]
   1749            GetDateTime(&date, &time);
   \                     ??PathInputDlg_1:
   \   00000050   08108DE2           ADD      R1,SP,#+8
   \   00000054   0D00A0E1           MOV      R0,SP
   \   00000058   B40000EF           SWI      +180
   1750            PrepareEditControl(&ec);
   \   0000005C   10008DE2           ADD      R0,SP,#+16
   \   00000060   640100EF           SWI      +356
   1751            eq=AllocEQueue(ma,mfree_adr());
   \   00000064   158000EF           SWI      +32789
   \   00000068   0010A0E1           MOV      R1,R0
   \   0000006C   0700A0E1           MOV      R0,R7
   \   00000070   630100EF           SWI      +355
   \   00000074   0080A0E1           MOV      R8,R0
   1752            ews=AllocWS(128);
   \   00000078   8000A0E3           MOV      R0,#+128
   \   0000007C   250100EF           SWI      +293
   1753            wsprintf(ews, PERCENT_T, lgp.LGP_PLS_INPUT_PATH);
   \   00000080   ........           LDR      R1,??DataTable14  ;; PERCENT_T
   \   00000084   0090A0E1           MOV      R9,R0
   \   00000088   04019FE5           LDR      R0,??PathInputDlg_2  ;; lgp + 140
   \   0000008C   002090E5           LDR      R2,[R0, #+0]
   \   00000090   0900A0E1           MOV      R0,R9
   \   00000094   240100EF           SWI      +292
   1754            ConstructEditControl(&ec,ECT_HEADER,ECF_APPEND_EOL,ews,ews->wsbody[0]);
   \   00000098   000099E5           LDR      R0,[R9, #+0]
   \   0000009C   0930A0E1           MOV      R3,R9
   \   000000A0   B000D0E1           LDRH     R0,[R0, #+0]
   \   000000A4   4020A0E3           MOV      R2,#+64
   \   000000A8   0110A0E3           MOV      R1,#+1
   \   000000AC   01002DE9           PUSH     {R0}
   \   000000B0   14008DE2           ADD      R0,SP,#+20
   \   000000B4   650100EF           SWI      +357
   1755            AddEditControlToEditQend(eq,&ec,ma);
   \   000000B8   0720A0E1           MOV      R2,R7
   \   000000BC   14108DE2           ADD      R1,SP,#+20
   \   000000C0   0800A0E1           MOV      R0,R8
   \   000000C4   660100EF           SWI      +358
   1756            if(type==INPUT_COV_DAT)
   \   000000C8   C8109FE5           LDR      R1,??PathInputDlg_2+0x4  ;; `?<Constant "%sSMS\\\\SMS.dat">`
   \   000000CC   020056E3           CMP      R6,#+2
   \   000000D0   04D08DE2           ADD      SP,SP,#+4
   \   000000D4   0300001A           BNE      ??PathInputDlg_3
   1757              wsprintf(ews, "%sSMS\\SMS.dat", CFG_SYSTEM_FOLDER);
   \   000000D8   BC209FE5           LDR      R2,??PathInputDlg_2+0x8  ;; CFG_SYSTEM_FOLDER
   \   000000DC   0900A0E1           MOV      R0,R9
   \   000000E0   240100EF           SWI      +292
   \   000000E4   090000EA           B        ??PathInputDlg_4
   1758            else
   1759              wsprintf(ews, "%sText\\%d%02d%02d.txt", CFG_MAIN_FOLDER, date.year, date.month, date.day);
   \                     ??PathInputDlg_3:
   \   000000E8   0500DDE5           LDRB     R0,[SP, #+5]
   \   000000EC   ........           LDR      R2,??DataTable15  ;; CFG_MAIN_FOLDER
   \   000000F0   101081E2           ADD      R1,R1,#+16
   \   000000F4   01002DE9           PUSH     {R0}
   \   000000F8   0800DDE5           LDRB     R0,[SP, #+8]
   \   000000FC   01002DE9           PUSH     {R0}
   \   00000100   08309DE5           LDR      R3,[SP, #+8]
   \   00000104   0900A0E1           MOV      R0,R9
   \   00000108   240100EF           SWI      +292
   \   0000010C   08D08DE2           ADD      SP,SP,#+8
   1760            ConstructEditControl(&ec,ECT_CURSOR_STAY,ECF_APPEND_EOL,ews,128);
   1761            AddEditControlToEditQend(eq,&ec,ma);
   1762            patch_header(&ED_HDR);
   \                     ??PathInputDlg_4:
   \   00000110   ........           LDR      R6,??DataTable12  ;; ED_HDR
   \   00000114   8000A0E3           MOV      R0,#+128
   \   00000118   01002DE9           PUSH     {R0}
   \   0000011C   0930A0E1           MOV      R3,R9
   \   00000120   4020A0E3           MOV      R2,#+64
   \   00000124   0410A0E3           MOV      R1,#+4
   \   00000128   14008DE2           ADD      R0,SP,#+20
   \   0000012C   650100EF           SWI      +357
   \   00000130   0720A0E1           MOV      R2,R7
   \   00000134   14108DE2           ADD      R1,SP,#+20
   \   00000138   0800A0E1           MOV      R0,R8
   \   0000013C   660100EF           SWI      +358
   \   00000140   B050C6E1           STRH     R5,[R6, #+0]
   \   00000144   1800A0E3           MOV      R0,#+24
   \   00000148   B200C6E1           STRH     R0,[R6, #+2]
   \   0000014C   888100EF           SWI      +33160
   \   00000150   010040E2           SUB      R0,R0,#+1
   \   00000154   B400C6E1           STRH     R0,[R6, #+4]
   \   00000158   8A8100EF           SWI      +33162
   \   0000015C   170080E2           ADD      R0,R0,#+23
   \   00000160   B600C6E1           STRH     R0,[R6, #+6]
   1763            patch_input(&PATH_INPUT_DESC);
   \   00000164   140086E2           ADD      R0,R6,#+20
   \   00000168   ........           _BLF     patch_input,??patch_input??rA
   1764            CreateInputTextDialog(&PATH_INPUT_DESC,&ED_HDR,eq,1,iu);
   \   0000016C   10002DE9           PUSH     {R4}
   \   00000170   0130A0E3           MOV      R3,#+1
   \   00000174   0820A0E1           MOV      R2,R8
   \   00000178   0610A0E1           MOV      R1,R6
   \   0000017C   140086E2           ADD      R0,R6,#+20
   \   00000180   670100EF           SWI      +359
   1765            FreeWS(ews);
   \   00000184   0900A0E1           MOV      R0,R9
   \   00000188   290100EF           SWI      +297
   1766          }
   \   0000018C   44D08DE2           ADD      SP,SP,#+68
   \   00000190   F083BDE8           POP      {R4-R9,PC}       ;; return
   \                     ??PathInputDlg_2:
   \   00000194   ........           DC32     lgp + 140
   \   00000198   ........           DC32     `?<Constant "%sSMS\\\\SMS.dat">`
   \   0000019C   ........           DC32     CFG_SYSTEM_FOLDER
   1767          

   \                                 In segment CODE, align 4, keep-with-next
   1768          int ED_ShowMsg_OnKey(GUI *gui, GUI_MSG *msg)
   1769          {
   1770            int c=msg->keys;
   \                     ED_ShowMsg_OnKey:
   \   00000000   F200D1E1           LDRSH    R0,[R1, #+2]
   1771            if(c==0x29 || c==0x1A || c==0x1)
   \   00000004   290050E3           CMP      R0,#+41
   \   00000008   1A005013           CMPNE    R0,#+26
   \   0000000C   01005013           CMPNE    R0,#+1
   1772              return 1;
   \   00000010   0100A003           MOVEQ    R0,#+1
   \   00000014   1EFF2F01           BXEQ     LR
   1773            return 0;
   \   00000018   0000A0E3           MOV      R0,#+0
   \   0000001C   1EFF2FE1           BX       LR               ;; return
   1774          }

   \                                 In segment CODE, align 4, keep-with-next
   1775          void ED_ShowMsg_GHook(GUI *gui, int cmd)
   1776          {
   \                     ED_ShowMsg_GHook:
   \   00000000   F0402DE9           PUSH     {R4-R7,LR}
   \   00000004   0040A0E1           MOV      R4,R0
   1777            if(cmd==TI_CMD_CREATE)
   \   00000008   020051E3           CMP      R1,#+2
   \   0000000C   F080BD18           POPNE    {R4-R7,PC}
   1778            {
   1779              WSHDR *hdr_t=EDIT_GetUserPointer(gui);
   \   00000010   DF0100EF           SWI      +479
   \   00000014   0050B0E1           MOVS     R5,R0
   1780              if(hdr_t) SetHeaderText(GetHeaderPointer(gui), hdr_t, malloc_adr(), mfree_adr());
   \   00000018   F080BD08           POPEQ    {R4-R7,PC}
   \   0000001C   158000EF           SWI      +32789
   \   00000020   0060A0E1           MOV      R6,R0
   \   00000024   148000EF           SWI      +32788
   \   00000028   0070A0E1           MOV      R7,R0
   \   0000002C   0400A0E1           MOV      R0,R4
   \   00000030   AE0200EF           SWI      +686
   \   00000034   0630A0E1           MOV      R3,R6
   \   00000038   0720A0E1           MOV      R2,R7
   \   0000003C   0510A0E1           MOV      R1,R5
   \   00000040   AF0200EF           SWI      +687
   1781            }
   1782            /*
   1783            if(cmd==TI_CMD_REDRAW)
   1784            {
   1785              WSHDR *hdr_t=EDIT_GetUserPointer(gui);
   1786              if(hdr_t)
   1787              {
   1788                WSHDR *hdr2=AllocWS(hdr_t->wsbody[0]);
   1789                wstrcpy(hdr2, hdr_t);
   1790                SetHeaderText(GetHeaderPointer(gui), hdr2, malloc_adr(), mfree_adr());
   1791              }
   1792            }
   1793            else if(cmd==TI_CMD_DESTROY)
   1794            {
   1795              WSHDR *hdr_t=EDIT_GetUserPointer(gui);
   1796              if(hdr_t) FreeWS(hdr_t);
   1797            }*/
   1798          }
   \   00000044   F080BDE8           POP      {R4-R7,PC}       ;; return

   \                                 In segment DATA_C, align 4, align-sorted
   1799          const INPUTDIA_DESC ED_ShowMsg=
   \                     ED_ShowMsg:
   \   00000000   01000000....       DC32 1, ED_ShowMsg_OnKey, ED_ShowMsg_GHook, ed_locret, 0, ed_menu_skt
   \              ............
   \              ........0000
   \              0000........
   \   00000018   000000000000       DC16 0, 0, 0, 0
   \              0000        
   \   00000020   080000006400       DC32 8, 100, 101, 0, 0, 1073741826
   \              000065000000
   \              000000000000
   \              000002000040
   1800          {
   1801            1,
   1802            ED_ShowMsg_OnKey,
   1803            ED_ShowMsg_GHook,
   1804            (void *)ed_locret,
   1805            0,
   1806            &ed_menu_skt,
   1807            {0,0,0,0},
   1808            FONT_SMALL,
   1809            100,
   1810            101,
   1811            0,
   1812            0,
   1813            0x40000002
   1814          };
   1815          

   \                                 In segment CODE, align 4, keep-with-next
   1816          int CreateSimpleShowMsgGui(WSHDR *header, WSHDR *msgtxt)
   1817          {
   \                     CreateSimpleShowMsgGui:
   \   00000000   F0432DE9           PUSH     {R4-R9,LR}
   \   00000004   3CD04DE2           SUB      SP,SP,#+60
   \   00000008   0160A0E1           MOV      R6,R1
   \   0000000C   0090A0E1           MOV      R9,R0
   1818            void *ma=malloc_adr();
   \   00000010   148000EF           SWI      +32788
   \   00000014   0070A0E1           MOV      R7,R0
   1819            void *eq;
   1820            WSHDR *hdr_t;
   1821          //  WSHDR *ews, ewsn, *hdr_t;
   1822            int cc;
   1823          //  unsigned short ewsb[MAX_TEXT];
   1824            EDITCONTROL ec;
   1825            EDITC_OPTIONS ec_options;
   1826            if(!msgtxt)
   \   00000018   000056E3           CMP      R6,#+0
   1827              return 0;
   \   0000001C   0000A003           MOVEQ    R0,#+0
   \   00000020   3B00000A           BEQ      ??CreateSimpleShowMsgGui_0
   1828            PrepareEditControl(&ec);
   \   00000024   10008DE2           ADD      R0,SP,#+16
   \   00000028   640100EF           SWI      +356
   1829            PrepareEditCOptions(&ec_options);
   \   0000002C   0D00A0E1           MOV      R0,SP
   \   00000030   C80100EF           SWI      +456
   1830            eq=AllocEQueue(ma,mfree_adr());
   \   00000034   158000EF           SWI      +32789
   \   00000038   0010A0E1           MOV      R1,R0
   \   0000003C   0700A0E1           MOV      R0,R7
   \   00000040   630100EF           SWI      +355
   \   00000044   0040A0E1           MOV      R4,R0
   1831          //  ews=CreateLocalWS(&ewsn, ewsb, MAX_TEXT);
   1832            if(header && (cc=header->wsbody[0]))
   \   00000048   0050A0E3           MOV      R5,#+0
   \   0000004C   000059E3           CMP      R9,#+0
   \   00000050   0800000A           BEQ      ??CreateSimpleShowMsgGui_1
   \   00000054   000099E5           LDR      R0,[R9, #+0]
   \   00000058   B000D0E1           LDRH     R0,[R0, #+0]
   \   0000005C   000050E3           CMP      R0,#+0
   \   00000060   0400000A           BEQ      ??CreateSimpleShowMsgGui_1
   1833            {
   1834              hdr_t=AllocWS(cc);
   \   00000064   250100EF           SWI      +293
   \   00000068   0080A0E1           MOV      R8,R0
   1835              wstrcpy(hdr_t, header);
   \   0000006C   0910A0E1           MOV      R1,R9
   \   00000070   1F0100EF           SWI      +287
   \   00000074   000000EA           B        ??CreateSimpleShowMsgGui_2
   1836            }
   1837            else
   1838              hdr_t=0;
   \                     ??CreateSimpleShowMsgGui_1:
   \   00000078   0080A0E3           MOV      R8,#+0
   1839            ConstructEditControl(&ec,ECT_READ_ONLY,ECF_APPEND_EOL,msgtxt,msgtxt->wsbody[0]);
   \                     ??CreateSimpleShowMsgGui_2:
   \   0000007C   000096E5           LDR      R0,[R6, #+0]
   \   00000080   0630A0E1           MOV      R3,R6
   \   00000084   B000D0E1           LDRH     R0,[R0, #+0]
   1840            SetFontToEditCOptions(&ec_options,EDIT_FONT_SMALL);
   1841            CopyOptionsToEditControl(&ec,&ec_options);
   1842            AddEditControlToEditQend(eq,&ec,ma);
   1843            patch_header(&ED_HDR);
   \   00000088   ........           LDR      R6,??DataTable12  ;; ED_HDR
   \   0000008C   4020A0E3           MOV      R2,#+64
   \   00000090   01002DE9           PUSH     {R0}
   \   00000094   0010A0E3           MOV      R1,#+0
   \   00000098   14008DE2           ADD      R0,SP,#+20
   \   0000009C   650100EF           SWI      +357
   \   000000A0   0110A0E3           MOV      R1,#+1
   \   000000A4   04008DE2           ADD      R0,SP,#+4
   \   000000A8   CA0100EF           SWI      +458
   \   000000AC   04108DE2           ADD      R1,SP,#+4
   \   000000B0   14008DE2           ADD      R0,SP,#+20
   \   000000B4   CE0100EF           SWI      +462
   \   000000B8   0720A0E1           MOV      R2,R7
   \   000000BC   14108DE2           ADD      R1,SP,#+20
   \   000000C0   0400A0E1           MOV      R0,R4
   \   000000C4   660100EF           SWI      +358
   \   000000C8   B050C6E1           STRH     R5,[R6, #+0]
   1844            patch_input(&ED_ShowMsg);
   \   000000CC   48509FE5           LDR      R5,??CreateSimpleShowMsgGui_3  ;; ED_ShowMsg
   \   000000D0   1800A0E3           MOV      R0,#+24
   \   000000D4   B200C6E1           STRH     R0,[R6, #+2]
   \   000000D8   888100EF           SWI      +33160
   \   000000DC   010040E2           SUB      R0,R0,#+1
   \   000000E0   B400C6E1           STRH     R0,[R6, #+4]
   \   000000E4   8A8100EF           SWI      +33162
   \   000000E8   170080E2           ADD      R0,R0,#+23
   \   000000EC   B600C6E1           STRH     R0,[R6, #+6]
   \   000000F0   0500A0E1           MOV      R0,R5
   \   000000F4   ........           _BLF     patch_input,??patch_input??rA
   1845            return (CreateInputTextDialog(&ED_ShowMsg,&ED_HDR,eq,1,hdr_t));
   \   000000F8   00012DE9           PUSH     {R8}
   \   000000FC   0130A0E3           MOV      R3,#+1
   \   00000100   0420A0E1           MOV      R2,R4
   \   00000104   0610A0E1           MOV      R1,R6
   \   00000108   0500A0E1           MOV      R0,R5
   \   0000010C   670100EF           SWI      +359
   \   00000110   08D08DE2           ADD      SP,SP,#+8
   \                     ??CreateSimpleShowMsgGui_0:
   \   00000114   3CD08DE2           ADD      SP,SP,#+60       ;; stack cleaning
   \   00000118   F083BDE8           POP      {R4-R9,PC}       ;; return
   \                     ??CreateSimpleShowMsgGui_3:
   \   0000011C   ........           DC32     ED_ShowMsg
   1846          }
   1847          

   \                                 In segment CODE, align 4, keep-with-next
   1848          int ShowCount(void)
   1849          {
   \                     ShowCount:
   \   00000000   F04F2DE9           PUSH     {R4-R11,LR}
   1850            WSHDR *hdr, hdrn, *msg, msgn;
   1851            unsigned short hdrb[128], msgb[512];
   1852            unsigned int err;
   1853            SMS_DATA_ROOT *sdr=SmsDataRoot();
   1854            hdr=CreateLocalWS(&hdrn, hdrb, 128);
   1855            msg=CreateLocalWS(&msgn, msgb, 512);
   1856            wsprintf(hdr, PERCENT_T, lgp.LGP_STATISTICS);
   \   00000004   ........           LDR      R7,??DataTable13  ;; lgp
   \   00000008   51DF4DE2           SUB      SP,SP,#+324
   \   0000000C   40DE4DE2           SUB      SP,SP,#+1024
   \   00000010   B18200EF           SWI      +33457
   \   00000014   0040A0E1           MOV      R4,R0
   \   00000018   8020A0E3           MOV      R2,#+128
   \   0000001C   1C108DE2           ADD      R1,SP,#+28
   \   00000020   401E81E2           ADD      R1,R1,#+1024
   \   00000024   470F8DE2           ADD      R0,SP,#+284
   \   00000028   400E80E2           ADD      R0,R0,#+1024
   \   0000002C   270100EF           SWI      +295
   \   00000030   0050A0E1           MOV      R5,R0
   \   00000034   802FA0E3           MOV      R2,#+512
   \   00000038   1C108DE2           ADD      R1,SP,#+28
   \   0000003C   530E8DE2           ADD      R0,SP,#+1328
   \   00000040   270100EF           SWI      +295
   \   00000044   F02097E5           LDR      R2,[R7, #+240]
   \   00000048   ........           LDR      R1,??DataTable14  ;; PERCENT_T
   \   0000004C   0060A0E1           MOV      R6,R0
   \   00000050   0500A0E1           MOV      R0,R5
   \   00000054   240100EF           SWI      +292
   1857            wsprintf(msg, "%t: %c%d\n----------------\n%d%c %t\n%t: %c%d%c\n%t: %c%d%c\n%t: %c%d%c\n%t: %c%d\n----------------\n%d%c %t\n%t: %c%d%c\n%t: %c%d%c\n%t: %c%d\n----------------\n%dKb%c\n%t%c%c%c",
   1858          	   lgp.LGP_ALL,
   1859          	   0xE013,
   1860          	   getCountByType(0),
   1861          	   GetCountByIsFileType(0, 0),
   1862          	   0xE012,
   1863          	   lgp.LGP_IN_SMSDAT,
   1864          	   lgp.LGP_IN_A,
   1865          	   0xE013,
   1866          	   GetCountByIsFileType(0, TYPE_IN_ALL),
   1867          	   0xE012,
   1868          	   lgp.LGP_OUT,
   1869          	   0xE013,
   1870          	   GetCountByIsFileType(0, TYPE_OUT),
   1871          	   0xE012,
   1872          	   lgp.LGP_DRAFT,
   1873          	   0xE013,
   1874          	   GetCountByIsFileType(0, TYPE_DRAFT),
   1875          	   0xE012,
   1876          	   lgp.LGP_DAT_FREE,
   1877          	   0xE013,
   1878          	   100 - sdr->cnt_in_data - sdr->cnt_new_in_data - sdr->cnt_sent_data - sdr->cnt_draft_data -sdr->unk_0_3,
   1879          	   GetCountByIsFileType(1, 0),
   1880          	   0xE012,
   1881          	   lgp.LGP_IS_MSSFILE,
   1882          	   lgp.LGP_IN_A,
   1883          	   0xE013,
   1884          	   GetCountByIsFileType(1, TYPE_IN_ALL),
   1885          	   0xE012,
   1886          	   lgp.LGP_OUT,
   1887          	   0xE013,
   1888          	   GetCountByIsFileType(1, TYPE_OUT),
   1889          	   0xE012,
   1890          	   lgp.LGP_DRAFT,
   1891          	   0xE013,
   1892          	   GetCountByIsFileType(1, TYPE_DRAFT),
   1893          	   GetFreeFlexSpace(CFG_MAIN_FOLDER[0]-'0', &err)/1024,
   1894          	   0xE012,
   1895          	   lgp.LGP_DISK_FREE,
   1896          	   0xE013,
   1897          	   CFG_MAIN_FOLDER[0],
   1898          	   0xE012
   1899          	   );
   \   00000058   ........           LDR      R1,??DataTable15  ;; CFG_MAIN_FOLDER
   \   0000005C   0010D1E5           LDRB     R1,[R1, #+0]
   \   00000060   00108DE5           STR      R1,[SP, #+0]
   \   00000064   00009DE5           LDR      R0,[SP, #+0]
   \   00000068   08108DE2           ADD      R1,SP,#+8
   \   0000006C   300040E2           SUB      R0,R0,#+48
   \   00000070   8A0000EF           SWI      +138
   \   00000074   04008DE5           STR      R0,[SP, #+4]
   \   00000078   0410A0E3           MOV      R1,#+4
   \   0000007C   0100A0E3           MOV      R0,#+1
   \   00000080   ........           _BLF     GetCountByIsFileType,??GetCountByIsFileType??rA
   \   00000084   0C008DE5           STR      R0,[SP, #+12]
   \   00000088   0110A0E3           MOV      R1,#+1
   \   0000008C   0100A0E3           MOV      R0,#+1
   \   00000090   ........           _BLF     GetCountByIsFileType,??GetCountByIsFileType??rA
   \   00000094   10008DE5           STR      R0,[SP, #+16]
   \   00000098   0510A0E3           MOV      R1,#+5
   \   0000009C   0100A0E3           MOV      R0,#+1
   \   000000A0   ........           _BLF     GetCountByIsFileType,??GetCountByIsFileType??rA
   \   000000A4   14008DE5           STR      R0,[SP, #+20]
   \   000000A8   0010A0E3           MOV      R1,#+0
   \   000000AC   0100A0E3           MOV      R0,#+1
   \   000000B0   ........           _BLF     GetCountByIsFileType,??GetCountByIsFileType??rA
   \   000000B4   18008DE5           STR      R0,[SP, #+24]
   \   000000B8   0410A0E3           MOV      R1,#+4
   \   000000BC   0000A0E3           MOV      R0,#+0
   \   000000C0   ........           _BLF     GetCountByIsFileType,??GetCountByIsFileType??rA
   \   000000C4   0080A0E1           MOV      R8,R0
   \   000000C8   0110A0E3           MOV      R1,#+1
   \   000000CC   0000A0E3           MOV      R0,#+0
   \   000000D0   ........           _BLF     GetCountByIsFileType,??GetCountByIsFileType??rA
   \   000000D4   0090A0E1           MOV      R9,R0
   \   000000D8   0510A0E3           MOV      R1,#+5
   \   000000DC   0000A0E3           MOV      R0,#+0
   \   000000E0   ........           _BLF     GetCountByIsFileType,??GetCountByIsFileType??rA
   \   000000E4   00A0A0E1           MOV      R10,R0
   \   000000E8   0010A0E3           MOV      R1,#+0
   \   000000EC   0100A0E1           MOV      R0,R1
   \   000000F0   ........           _BLF     GetCountByIsFileType,??GetCountByIsFileType??rA
   \   000000F4   00B0A0E1           MOV      R11,R0
   \   000000F8   0000A0E3           MOV      R0,#+0
   \   000000FC   ........           _BLF     getCountByType,??getCountByType??rA
   \   00000100   2C1097E5           LDR      R1,[R7, #+44]
   \   00000104   1330A0E3           MOV      R3,#+19
   \   00000108   E03C83E3           ORR      R3,R3,#0xE000
   \   0000010C   0120C3E3           BIC      R2,R3,#0x1
   \   00000110   02C0A0E1           MOV      R12,R2
   \   00000114   00102DE9           PUSH     {R12}
   \   00000118   04C09DE5           LDR      R12,[SP, #+4]
   \   0000011C   00102DE9           PUSH     {R12}
   \   00000120   03C0A0E1           MOV      R12,R3
   \   00000124   00102DE9           PUSH     {R12}
   \   00000128   00C197E5           LDR      R12,[R7, #+256]
   \   0000012C   00102DE9           PUSH     {R12}
   \   00000130   02C0A0E1           MOV      R12,R2
   \   00000134   00102DE9           PUSH     {R12}
   \   00000138   18E09DE5           LDR      LR,[SP, #+24]
   \   0000013C   18C09DE5           LDR      R12,[SP, #+24]
   \   00000140   CCC4A0E1           ASR      R12,R12,#+9
   \   00000144   2CCB8EE0           ADD      R12,LR,R12, LSR #+22
   \   00000148   4CC5A0E1           ASR      R12,R12,#+10
   \   0000014C   00102DE9           PUSH     {R12}
   \   00000150   24C09DE5           LDR      R12,[SP, #+36]
   \   00000154   00102DE9           PUSH     {R12}
   \   00000158   03C0A0E1           MOV      R12,R3
   \   0000015C   00102DE9           PUSH     {R12}
   \   00000160   01C0A0E1           MOV      R12,R1
   \   00000164   00102DE9           PUSH     {R12}
   \   00000168   02C0A0E1           MOV      R12,R2
   \   0000016C   00102DE9           PUSH     {R12}
   \   00000170   38C09DE5           LDR      R12,[SP, #+56]
   \   00000174   00102DE9           PUSH     {R12}
   \   00000178   03C0A0E1           MOV      R12,R3
   \   0000017C   00102DE9           PUSH     {R12}
   \   00000180   28C097E5           LDR      R12,[R7, #+40]
   \   00000184   00102DE9           PUSH     {R12}
   \   00000188   02C0A0E1           MOV      R12,R2
   \   0000018C   00102DE9           PUSH     {R12}
   \   00000190   4CC09DE5           LDR      R12,[SP, #+76]
   \   00000194   00102DE9           PUSH     {R12}
   \   00000198   03C0A0E1           MOV      R12,R3
   \   0000019C   00102DE9           PUSH     {R12}
   \   000001A0   24C097E5           LDR      R12,[R7, #+36]
   \   000001A4   00102DE9           PUSH     {R12}
   \   000001A8   F8C097E5           LDR      R12,[R7, #+248]
   \   000001AC   00102DE9           PUSH     {R12}
   \   000001B0   02C0A0E1           MOV      R12,R2
   \   000001B4   00102DE9           PUSH     {R12}
   \   000001B8   64C09DE5           LDR      R12,[SP, #+100]
   \   000001BC   00102DE9           PUSH     {R12}
   \   000001C0   FCE2D4E1           LDRSH    LR,[R4, #+44]
   \   000001C4   FAC2D4E1           LDRSH    R12,[R4, #+42]
   \   000001C8   64C06CE2           RSB      R12,R12,#+100
   \   000001CC   0EC04CE0           SUB      R12,R12,LR
   \   000001D0   FEE2D4E1           LDRSH    LR,[R4, #+46]
   \   000001D4   0EC04CE0           SUB      R12,R12,LR
   \   000001D8   F0E3D4E1           LDRSH    LR,[R4, #+48]
   \   000001DC   F243D4E1           LDRSH    R4,[R4, #+50]
   \   000001E0   0EC04CE0           SUB      R12,R12,LR
   \   000001E4   04404CE0           SUB      R4,R12,R4
   \   000001E8   10002DE9           PUSH     {R4}
   \   000001EC   0340A0E1           MOV      R4,R3
   \   000001F0   10002DE9           PUSH     {R4}
   \   000001F4   FC4097E5           LDR      R4,[R7, #+252]
   \   000001F8   10002DE9           PUSH     {R4}
   \   000001FC   0240A0E1           MOV      R4,R2
   \   00000200   10002DE9           PUSH     {R4}
   \   00000204   00012DE9           PUSH     {R8}
   \   00000208   0340A0E1           MOV      R4,R3
   \   0000020C   10002DE9           PUSH     {R4}
   \   00000210   02002DE9           PUSH     {R1}
   \   00000214   0210A0E1           MOV      R1,R2
   \   00000218   02002DE9           PUSH     {R1}
   \   0000021C   00022DE9           PUSH     {R9}
   \   00000220   0310A0E1           MOV      R1,R3
   \   00000224   02002DE9           PUSH     {R1}
   \   00000228   281097E5           LDR      R1,[R7, #+40]
   \   0000022C   02002DE9           PUSH     {R1}
   \   00000230   0210A0E1           MOV      R1,R2
   \   00000234   02002DE9           PUSH     {R1}
   \   00000238   00042DE9           PUSH     {R10}
   \   0000023C   0310A0E1           MOV      R1,R3
   \   00000240   02002DE9           PUSH     {R1}
   \   00000244   241097E5           LDR      R1,[R7, #+36]
   \   00000248   02002DE9           PUSH     {R1}
   \   0000024C   F41097E5           LDR      R1,[R7, #+244]
   \   00000250   02002DE9           PUSH     {R1}
   \   00000254   30109FE5           LDR      R1,??ShowCount_0  ;; `?<Constant "%t: %c%d\\n------------...">`
   \   00000258   04002DE9           PUSH     {R2}
   \   0000025C   00082DE9           PUSH     {R11}
   \   00000260   01002DE9           PUSH     {R0}
   \   00000264   302097E5           LDR      R2,[R7, #+48]
   \   00000268   0600A0E1           MOV      R0,R6
   \   0000026C   240100EF           SWI      +292
   \   00000270   9CD08DE2           ADD      SP,SP,#+156
   1900            return (CreateSimpleShowMsgGui(hdr, msg));
   \   00000274   0610A0E1           MOV      R1,R6
   \   00000278   0500A0E1           MOV      R0,R5
   \   0000027C   ........           BL       CreateSimpleShowMsgGui
   \   00000280   51DF8DE2           ADD      SP,SP,#+324
   \   00000284   40DE8DE2           ADD      SP,SP,#+1024
   \   00000288   F08FBDE8           POP      {R4-R11,PC}      ;; return
   \                     ??ShowCount_0:
   \   0000028C   ........           DC32     `?<Constant "%t: %c%d\\n------------...">`
   1901          }

   \                                 In segment CODE, align 4, keep-with-next
   \                     ??DataTable0:
   \   00000000   ........           DC32     CFG_MAIN_FOLDER

   \                                 In segment CODE, align 4, keep-with-next
   \                     ??DataTable5:
   \   00000000   ........           DC32     PERCENT_T

   \                                 In segment CODE, align 4, keep-with-next
   \                     ??DataTable7:
   \   00000000   ........           DC32     lgp

   \                                 In segment CODE, align 4, keep-with-next
   \                     ??DataTable12:
   \   00000000   ........           DC32     ED_HDR

   \                                 In segment CODE, align 4, keep-with-next
   \                     ??DataTable13:
   \   00000000   ........           DC32     lgp

   \                                 In segment CODE, align 4, keep-with-next
   \                     ??DataTable14:
   \   00000000   ........           DC32     PERCENT_T

   \                                 In segment CODE, align 4, keep-with-next
   \                     ??DataTable15:
   \   00000000   ........           DC32     CFG_MAIN_FOLDER

   \                                 In segment DATA_ID, align 4, align-sorted
   \                     `?<Initializer for ED_HDR>`:
   \   00000000   000000000000       DC16 0, 0, 0, 0
   \              0000        
   \   00000008   00000000FFFF       DC32 0H, 2147483647, 2147483647
   \              FF7FFFFFFF7F
   \                     `?<Initializer for PATH_INPUT_DESC>`:
   \   00000014   01000000....       DC32 1, PathInputOnKey, PathInputGHook, ed_locret, 0, ed_menu_skt
   \              ............
   \              ........0000
   \              0000........
   \   0000002C   000000000000       DC16 0, 0, 0, 0
   \              0000        
   \   00000034   080000006400       DC32 8, 100, 101, 0, 0, 1073741824
   \              000065000000
   \              000000000000
   \              000000000040

   \                                 In segment DATA_ID, align 4, align-sorted
   \                     `?<Initializer for ed_menu_sk>`:
   \   00000000   18000000           DC16 24, 0
   \   00000004   FFFFFF7F           DC32 2147483647
   \   00000008   01000000           DC16 1, 0
   \   0000000C   FFFFFF7F           DC32 2147483647
   \   00000010   3D000000           DC16 61, 0
   \   00000014   FBC0FF7F           DC32 2147467515

   \                                 In segment DATA_ID, align 4, align-sorted
   \                     `?<Initializer for ed_menuhdr>`:
   \   00000000   000000000000       DC16 0, 0, 0, 0
   \              0000        
   \   00000008   00000000FFFF       DC32 0H, 2147483647, 2147483647
   \              FF7FFFFFFF7F

   \                                 In segment DATA_ID, align 4, align-sorted
   \                     `?<Initializer for items_lgp_nml_file>`:
   \   00000000   FFFFFF7FFFFF       DC32 2147483647, 2147483647, 2147483647, 3408, 2147483647, 2147483647
   \              FF7FFFFFFF7F
   \              500D0000FFFF
   \              FF7FFFFFFF7F
   \   00000018   FFFFFF7F           DC32 2147483647
   \                     `?<Initializer for items_lgp_nml_dat>`:
   \   0000001C   FFFFFF7FFFFF       DC32 2147483647, 2147483647, 2147483647, 3408, 2147483647, 2147483647
   \              FF7FFFFFFF7F
   \              500D0000FFFF
   \              FF7FFFFFFF7F
   \   00000034   FFFFFF7FFFFF       DC32 2147483647, 2147483647
   \              FF7F        
   \                     `?<Initializer for items_lgp_archive_file>`:
   \   0000003C   FFFFFF7FFFFF       DC32 2147483647, 2147483647, 2147483647, 3408, 2147483647, 2147483647
   \              FF7FFFFFFF7F
   \              500D0000FFFF
   \              FF7FFFFFFF7F
   \                     `?<Initializer for ed_menu_item_icons>`:
   \   00000054   380500000000       DC32 1336, 0
   \              0000        

   \                                 In segment DATA_ID, align 4, align-sorted
   \                     `?<Initializer for SK_OPTIONS>`:
   \   00000000   18000000           DC16 24, 0
   \   00000004   FFFFFF7F           DC32 2147483647
   \                     `?<Initializer for SK_ADRBK>`:
   \   00000008   000F0000           DC16 3840, 0
   \   0000000C   FFFFFF7F           DC32 2147483647
   \                     `?<Initializer for SK_CANCEL>`:
   \   00000010   01000000           DC16 1, 0
   \   00000014   FFFFFF7F           DC32 2147483647
   \                     `?<Initializer for SK_OP_PIC>`:
   \   00000018   29000000           DC16 41, 0
   \   0000001C   0EC1FF7F           DC32 2147467534
   \                     `?<Initializer for EDHDRIC_VIEW>`:
   \   00000020   A50200000000       DC32 677, 0
   \              0000        
   \                     `?<Initializer for EDHDRIC_EDIT>`:
   \   00000028   DB0400000000       DC32 1243, 0
   \              0000        
   \                     `?<Initializer for EDHDRIC_ADRBK>`:
   \   00000030   8C0200000000       DC32 652, 0
   \              0000        

   \                                 In segment DATA_C, align 1, align-sorted
   \                     `?<Constant "G">`:
   \   00000000   4700               DC8 "G"

   \                                 In segment DATA_C, align 1, align-sorted
   \                     `?<Constant "\\"">`:
   \   00000000   2200               DC8 "\""

   \                                 In segment DATA_C, align 1, align-sorted
   \                     `?<Constant "\\372">`:
   \   00000000   FA00               DC8 "\372"

   \                                 In segment DATA_C, align 1, align-sorted
   \                     `?<Constant "\\333">`:
   \   00000000   DB00               DC8 "\333"

   \                                 In segment DATA_C, align 1, align-sorted
   \                     `?<Constant "\\373">`:
   \   00000000   FB00               DC8 "\373"

   \                                 In segment DATA_C, align 1, align-sorted
   \                     `?<Constant "\\334">`:
   \   00000000   DC00               DC8 "\334"

   \                                 In segment DATA_C, align 1, align-sorted
   \                     `?<Constant "\\374">`:
   \   00000000   FC00               DC8 "\374"

   \                                 In segment DATA_C, align 1, align-sorted
   \                     `?<Constant "\\335">`:
   \   00000000   DD00               DC8 "\335"

   \                                 In segment DATA_C, align 1, align-sorted
   \                     `?<Constant "\\375">`:
   \   00000000   FD00               DC8 "\375"

   \                                 In segment DATA_C, align 1, align-sorted
   \                     `?<Constant "\\336">`:
   \   00000000   DE00               DC8 "\336"

   \                                 In segment DATA_C, align 1, align-sorted
   \                     `?<Constant "Yu">`:
   \   00000000   597500             DC8 "Yu"

   \                                 In segment DATA_C, align 1, align-sorted
   \                     `?<Constant "\\376">`:
   \   00000000   FE00               DC8 "\376"

   \                                 In segment DATA_C, align 1, align-sorted
   \                     `?<Constant "yu">`:
   \   00000000   797500             DC8 "yu"

   \                                 In segment DATA_C, align 1, align-sorted
   \                     `?<Constant "\\337">`:
   \   00000000   DF00               DC8 "\337"

   \                                 In segment DATA_C, align 1, align-sorted
   \                     `?<Constant "Ya">`:
   \   00000000   596100             DC8 "Ya"

   \                                 In segment DATA_C, align 1, align-sorted
   \                     `?<Constant "\\377">`:
   \   00000000   FF00               DC8 "\377"

   \                                 In segment DATA_C, align 1, align-sorted
   \                     `?<Constant "ya">`:
   \   00000000   796100             DC8 "ya"

   \                                 In segment DATA_C, align 1, align-sorted
   \                     `?<Constant "">`:
   \   00000000   00                 DC8 ""

   \                                 In segment DATA_C, align 4, align-sorted
   \                     `?<Constant "Nothing For Sent!">`:
   \   00000000   4E6F7468696E       DC8 "Nothing For Sent!"
   \              6720466F7220
   \              53656E742100
   \   00000012   0000               DC8 0, 0

   \                                 In segment DATA_C, align 1, align-sorted
   \                     `?<Constant "\\354">`:
   \   00000000   EC00               DC8 "\354"

   \                                 In segment DATA_C, align 4, align-sorted
   \                     `?<Constant "%t:\\n%s">`:
   \   00000000   25743A0A2573       DC8 "%t:\012%s"
   \              00          
   \   00000007   00                 DC8 0

   \                                 In segment DATA_C, align 4, align-sorted
   \                     `?<Constant "%t: %d %d">`:
   \   00000000   25743A202564       DC8 "%t: %d %d"
   \              20256400    
   \   0000000A   0000               DC8 0, 0

   \                                 In segment DATA_C, align 1, align-sorted
   \   00000000   256300             DC8 "%c"

   \                                 In segment DATA_C, align 4, align-sorted
   \                     `?<Constant "%sSMS\\\\SMS.dat">`:
   \   00000000   2573534D535C       DC8 "%sSMS\\SMS.dat"
   \              534D532E6461
   \              7400        
   \   0000000E   0000               DC8 0, 0
   \   00000010   257354657874       DC8 "%sText\\%d%02d%02d.txt"
   \              5C2564253032
   \              64253032642E
   \              74787400    
   \   00000026   0000               DC8 0, 0

   \                                 In segment DATA_C, align 1, align-sorted
   \                     `?<Constant "\\300">`:
   \   00000000   C000               DC8 "\300"

   \                                 In segment DATA_C, align 1, align-sorted
   \                     `?<Constant "A">`:
   \   00000000   4100               DC8 "A"

   \                                 In segment DATA_C, align 1, align-sorted
   \                     `?<Constant "\\340">`:
   \   00000000   E000               DC8 "\340"

   \                                 In segment DATA_C, align 1, align-sorted
   \                     `?<Constant "a">`:
   \   00000000   6100               DC8 "a"

   \                                 In segment DATA_C, align 1, align-sorted
   \                     `?<Constant "\\301">`:
   \   00000000   C100               DC8 "\301"

   \                                 In segment DATA_C, align 1, align-sorted
   \                     `?<Constant "B">`:
   \   00000000   4200               DC8 "B"

   \                                 In segment DATA_C, align 1, align-sorted
   \                     `?<Constant "\\341">`:
   \   00000000   E100               DC8 "\341"

   \                                 In segment DATA_C, align 1, align-sorted
   \                     `?<Constant "b">`:
   \   00000000   6200               DC8 "b"

   \                                 In segment DATA_C, align 1, align-sorted
   \                     `?<Constant "\\302">`:
   \   00000000   C200               DC8 "\302"

   \                                 In segment DATA_C, align 1, align-sorted
   \                     `?<Constant "V">`:
   \   00000000   5600               DC8 "V"

   \                                 In segment DATA_C, align 1, align-sorted
   \                     `?<Constant "\\342">`:
   \   00000000   E200               DC8 "\342"

   \                                 In segment DATA_C, align 1, align-sorted
   \                     `?<Constant "v">`:
   \   00000000   7600               DC8 "v"

   \                                 In segment DATA_C, align 1, align-sorted
   \                     `?<Constant "\\303">`:
   \   00000000   C300               DC8 "\303"

   \                                 In segment DATA_C, align 4, align-sorted
   \                     `?<Constant "%t: %c%d\\n------------...">`:
   \   00000000   25743A202563       DC8 25H, 74H, 3AH, 20H, 25H, 63H, 25H, 64H
   \              2564        
   \   00000008   0A2D2D2D2D2D       DC8 0AH, 2DH, 2DH, 2DH, 2DH, 2DH, 2DH, 2DH
   \              2D2D        
   \   00000010   2D2D2D2D2D2D       DC8 2DH, 2DH, 2DH, 2DH, 2DH, 2DH, 2DH, 2DH
   \              2D2D        
   \   00000018   2D0A25642563       DC8 2DH, 0AH, 25H, 64H, 25H, 63H, 20H, 25H
   \              2025        
   \   00000020   740A25743A20       DC8 74H, 0AH, 25H, 74H, 3AH, 20H, 25H, 63H
   \              2563        
   \   00000028   256425630A25       DC8 25H, 64H, 25H, 63H, 0AH, 25H, 74H, 3AH
   \              743A        
   \   00000030   202563256425       DC8 20H, 25H, 63H, 25H, 64H, 25H, 63H, 0AH
   \              630A        
   \   00000038   25743A202563       DC8 25H, 74H, 3AH, 20H, 25H, 63H, 25H, 64H
   \              2564        
   \   00000040   25630A25743A       DC8 25H, 63H, 0AH, 25H, 74H, 3AH, 20H, 25H
   \              2025        
   \   00000048   6325640A2D2D       DC8 63H, 25H, 64H, 0AH, 2DH, 2DH, 2DH, 2DH
   \              2D2D        
   \   00000050   2D2D2D2D2D2D       DC8 2DH, 2DH, 2DH, 2DH, 2DH, 2DH, 2DH, 2DH
   \              2D2D        
   \   00000058   2D2D2D2D0A25       DC8 2DH, 2DH, 2DH, 2DH, 0AH, 25H, 64H, 25H
   \              6425        
   \   00000060   632025740A25       DC8 63H, 20H, 25H, 74H, 0AH, 25H, 74H, 3AH
   \              743A        
   \   00000068   202563256425       DC8 20H, 25H, 63H, 25H, 64H, 25H, 63H, 0AH
   \              630A        
   \   00000070   25743A202563       DC8 25H, 74H, 3AH, 20H, 25H, 63H, 25H, 64H
   \              2564        
   \   00000078   25630A25743A       DC8 25H, 63H, 0AH, 25H, 74H, 3AH, 20H, 25H
   \              2025        
   \   00000080   6325640A2D2D       DC8 63H, 25H, 64H, 0AH, 2DH, 2DH, 2DH, 2DH
   \              2D2D        
   \   00000088   2D2D2D2D2D2D       DC8 2DH, 2DH, 2DH, 2DH, 2DH, 2DH, 2DH, 2DH
   \              2D2D        
   \   00000090   2D2D2D2D0A25       DC8 2DH, 2DH, 2DH, 2DH, 0AH, 25H, 64H, 4BH
   \              644B        
   \   00000098   6225630A2574       DC8 62H, 25H, 63H, 0AH, 25H, 74H, 25H, 63H
   \              2563        
   \   000000A0   2563256300         DC8 25H, 63H, 25H, 63H, 0
   \   000000A5   000000             DC8 0, 0, 0

   \                                 In segment DATA_C, align 1, align-sorted
   \                     `?<Constant "\\343">`:
   \   00000000   E300               DC8 "\343"

   \                                 In segment DATA_C, align 1, align-sorted
   \                     `?<Constant "g">`:
   \   00000000   6700               DC8 "g"

   \                                 In segment DATA_C, align 1, align-sorted
   \                     `?<Constant "\\304">`:
   \   00000000   C400               DC8 "\304"

   \                                 In segment DATA_C, align 1, align-sorted
   \                     `?<Constant "D">`:
   \   00000000   4400               DC8 "D"

   \                                 In segment DATA_C, align 1, align-sorted
   \                     `?<Constant "\\344">`:
   \   00000000   E400               DC8 "\344"

   \                                 In segment DATA_C, align 1, align-sorted
   \                     `?<Constant "d">`:
   \   00000000   6400               DC8 "d"

   \                                 In segment DATA_C, align 1, align-sorted
   \                     `?<Constant "\\305">`:
   \   00000000   C500               DC8 "\305"

   \                                 In segment DATA_C, align 1, align-sorted
   \                     `?<Constant "E">`:
   \   00000000   4500               DC8 "E"

   \                                 In segment DATA_C, align 1, align-sorted
   \                     `?<Constant "\\345">`:
   \   00000000   E500               DC8 "\345"

   \                                 In segment DATA_C, align 1, align-sorted
   \                     `?<Constant "e">`:
   \   00000000   6500               DC8 "e"

   \                                 In segment DATA_C, align 1, align-sorted
   \                     `?<Constant "\\250">`:
   \   00000000   A800               DC8 "\250"

   \                                 In segment DATA_C, align 1, align-sorted
   \                     `?<Constant "Yo">`:
   \   00000000   596F00             DC8 "Yo"

   \                                 In segment DATA_C, align 1, align-sorted
   \                     `?<Constant "\\270">`:
   \   00000000   B800               DC8 "\270"

   \                                 In segment DATA_C, align 1, align-sorted
   \                     `?<Constant "yo">`:
   \   00000000   796F00             DC8 "yo"

   \                                 In segment DATA_C, align 1, align-sorted
   \                     `?<Constant "\\306">`:
   \   00000000   C600               DC8 "\306"

   \                                 In segment DATA_C, align 1, align-sorted
   \                     `?<Constant "J">`:
   \   00000000   4A00               DC8 "J"

   \                                 In segment DATA_C, align 1, align-sorted
   \                     `?<Constant "\\346">`:
   \   00000000   E600               DC8 "\346"

   \                                 In segment DATA_C, align 1, align-sorted
   \                     `?<Constant "j">`:
   \   00000000   6A00               DC8 "j"

   \                                 In segment DATA_C, align 1, align-sorted
   \                     `?<Constant "\\307">`:
   \   00000000   C700               DC8 "\307"

   \                                 In segment DATA_C, align 1, align-sorted
   \                     `?<Constant "Z">`:
   \   00000000   5A00               DC8 "Z"

   \                                 In segment DATA_C, align 1, align-sorted
   \                     `?<Constant "\\347">`:
   \   00000000   E700               DC8 "\347"

   \                                 In segment DATA_C, align 1, align-sorted
   \                     `?<Constant "z">`:
   \   00000000   7A00               DC8 "z"

   \                                 In segment DATA_C, align 1, align-sorted
   \                     `?<Constant "\\310">`:
   \   00000000   C800               DC8 "\310"

   \                                 In segment DATA_C, align 1, align-sorted
   \                     `?<Constant "I">`:
   \   00000000   4900               DC8 "I"

   \                                 In segment DATA_C, align 1, align-sorted
   \                     `?<Constant "\\350">`:
   \   00000000   E800               DC8 "\350"

   \                                 In segment DATA_C, align 1, align-sorted
   \                     `?<Constant "i">`:
   \   00000000   6900               DC8 "i"

   \                                 In segment DATA_C, align 1, align-sorted
   \                     `?<Constant "\\311">`:
   \   00000000   C900               DC8 "\311"

   \                                 In segment DATA_C, align 1, align-sorted
   \                     `?<Constant "Y">`:
   \   00000000   5900               DC8 "Y"

   \                                 In segment DATA_C, align 1, align-sorted
   \                     `?<Constant "\\351">`:
   \   00000000   E900               DC8 "\351"

   \                                 In segment DATA_C, align 1, align-sorted
   \                     `?<Constant "y">`:
   \   00000000   7900               DC8 "y"

   \                                 In segment DATA_C, align 1, align-sorted
   \                     `?<Constant "\\312">`:
   \   00000000   CA00               DC8 "\312"

   \                                 In segment DATA_C, align 1, align-sorted
   \                     `?<Constant "K">`:
   \   00000000   4B00               DC8 "K"

   \                                 In segment DATA_C, align 1, align-sorted
   \                     `?<Constant "\\352">`:
   \   00000000   EA00               DC8 "\352"

   \                                 In segment DATA_C, align 1, align-sorted
   \                     `?<Constant "k">`:
   \   00000000   6B00               DC8 "k"

   \                                 In segment DATA_C, align 1, align-sorted
   \                     `?<Constant "\\313">`:
   \   00000000   CB00               DC8 "\313"

   \                                 In segment DATA_C, align 1, align-sorted
   \                     `?<Constant "L">`:
   \   00000000   4C00               DC8 "L"

   \                                 In segment DATA_C, align 1, align-sorted
   \                     `?<Constant "\\353">`:
   \   00000000   EB00               DC8 "\353"

   \                                 In segment DATA_C, align 1, align-sorted
   \                     `?<Constant "l">`:
   \   00000000   6C00               DC8 "l"

   \                                 In segment DATA_C, align 1, align-sorted
   \                     `?<Constant "\\314">`:
   \   00000000   CC00               DC8 "\314"

   \                                 In segment DATA_C, align 1, align-sorted
   \                     `?<Constant "M">`:
   \   00000000   4D00               DC8 "M"

   \                                 In segment DATA_C, align 1, align-sorted
   \                     `?<Constant "\\'">`:
   \   00000000   2700               DC8 "'"

   \                                 In segment DATA_C, align 1, align-sorted
   \                     `?<Constant "m">`:
   \   00000000   6D00               DC8 "m"

   \                                 In segment DATA_C, align 1, align-sorted
   \                     `?<Constant "\\315">`:
   \   00000000   CD00               DC8 "\315"

   \                                 In segment DATA_C, align 1, align-sorted
   \                     `?<Constant "N">`:
   \   00000000   4E00               DC8 "N"

   \                                 In segment DATA_C, align 1, align-sorted
   \                     `?<Constant "\\355">`:
   \   00000000   ED00               DC8 "\355"

   \                                 In segment DATA_C, align 1, align-sorted
   \                     `?<Constant "n">`:
   \   00000000   6E00               DC8 "n"

   \                                 In segment DATA_C, align 1, align-sorted
   \                     `?<Constant "\\316">`:
   \   00000000   CE00               DC8 "\316"

   \                                 In segment DATA_C, align 1, align-sorted
   \                     `?<Constant "O">`:
   \   00000000   4F00               DC8 "O"

   \                                 In segment DATA_C, align 1, align-sorted
   \                     `?<Constant "\\356">`:
   \   00000000   EE00               DC8 "\356"

   \                                 In segment DATA_C, align 1, align-sorted
   \                     `?<Constant "o">`:
   \   00000000   6F00               DC8 "o"

   \                                 In segment DATA_C, align 1, align-sorted
   \                     `?<Constant "\\317">`:
   \   00000000   CF00               DC8 "\317"

   \                                 In segment DATA_C, align 1, align-sorted
   \                     `?<Constant "P">`:
   \   00000000   5000               DC8 "P"

   \                                 In segment DATA_C, align 1, align-sorted
   \                     `?<Constant "\\357">`:
   \   00000000   EF00               DC8 "\357"

   \                                 In segment DATA_C, align 1, align-sorted
   \                     `?<Constant "p">`:
   \   00000000   7000               DC8 "p"

   \                                 In segment DATA_C, align 1, align-sorted
   \                     `?<Constant "\\320">`:
   \   00000000   D000               DC8 "\320"

   \                                 In segment DATA_C, align 1, align-sorted
   \                     `?<Constant "R">`:
   \   00000000   5200               DC8 "R"

   \                                 In segment DATA_C, align 1, align-sorted
   \                     `?<Constant "\\360">`:
   \   00000000   F000               DC8 "\360"

   \                                 In segment DATA_C, align 1, align-sorted
   \                     `?<Constant "r">`:
   \   00000000   7200               DC8 "r"

   \                                 In segment DATA_C, align 1, align-sorted
   \                     `?<Constant "\\321">`:
   \   00000000   D100               DC8 "\321"

   \                                 In segment DATA_C, align 1, align-sorted
   \                     `?<Constant "S">`:
   \   00000000   5300               DC8 "S"

   \                                 In segment DATA_C, align 1, align-sorted
   \                     `?<Constant "\\361">`:
   \   00000000   F100               DC8 "\361"

   \                                 In segment DATA_C, align 1, align-sorted
   \                     `?<Constant "s">`:
   \   00000000   7300               DC8 "s"

   \                                 In segment DATA_C, align 1, align-sorted
   \                     `?<Constant "\\322">`:
   \   00000000   D200               DC8 "\322"

   \                                 In segment DATA_C, align 1, align-sorted
   \                     `?<Constant "T">`:
   \   00000000   5400               DC8 "T"

   \                                 In segment DATA_C, align 1, align-sorted
   \                     `?<Constant "\\362">`:
   \   00000000   F200               DC8 "\362"

   \                                 In segment DATA_C, align 1, align-sorted
   \                     `?<Constant "t">`:
   \   00000000   7400               DC8 "t"

   \                                 In segment DATA_C, align 1, align-sorted
   \                     `?<Constant "\\323">`:
   \   00000000   D300               DC8 "\323"

   \                                 In segment DATA_C, align 1, align-sorted
   \                     `?<Constant "U">`:
   \   00000000   5500               DC8 "U"

   \                                 In segment DATA_C, align 1, align-sorted
   \                     `?<Constant "\\363">`:
   \   00000000   F300               DC8 "\363"

   \                                 In segment DATA_C, align 1, align-sorted
   \                     `?<Constant "u">`:
   \   00000000   7500               DC8 "u"

   \                                 In segment DATA_C, align 1, align-sorted
   \                     `?<Constant "\\324">`:
   \   00000000   D400               DC8 "\324"

   \                                 In segment DATA_C, align 1, align-sorted
   \                     `?<Constant "F">`:
   \   00000000   4600               DC8 "F"

   \                                 In segment DATA_C, align 1, align-sorted
   \                     `?<Constant "\\364">`:
   \   00000000   F400               DC8 "\364"

   \                                 In segment DATA_C, align 1, align-sorted
   \                     `?<Constant "f">`:
   \   00000000   6600               DC8 "f"

   \                                 In segment DATA_C, align 1, align-sorted
   \                     `?<Constant "\\325">`:
   \   00000000   D500               DC8 "\325"

   \                                 In segment DATA_C, align 1, align-sorted
   \                     `?<Constant "H">`:
   \   00000000   4800               DC8 "H"

   \                                 In segment DATA_C, align 1, align-sorted
   \                     `?<Constant "\\365">`:
   \   00000000   F500               DC8 "\365"

   \                                 In segment DATA_C, align 1, align-sorted
   \                     `?<Constant "h">`:
   \   00000000   6800               DC8 "h"

   \                                 In segment DATA_C, align 1, align-sorted
   \                     `?<Constant "\\326">`:
   \   00000000   D600               DC8 "\326"

   \                                 In segment DATA_C, align 1, align-sorted
   \                     `?<Constant "C">`:
   \   00000000   4300               DC8 "C"

   \                                 In segment DATA_C, align 1, align-sorted
   \                     `?<Constant "\\366">`:
   \   00000000   F600               DC8 "\366"

   \                                 In segment DATA_C, align 1, align-sorted
   \                     `?<Constant "c">`:
   \   00000000   6300               DC8 "c"

   \                                 In segment DATA_C, align 1, align-sorted
   \                     `?<Constant "\\327">`:
   \   00000000   D700               DC8 "\327"

   \                                 In segment DATA_C, align 1, align-sorted
   \                     `?<Constant "Ch">`:
   \   00000000   436800             DC8 "Ch"

   \                                 In segment DATA_C, align 1, align-sorted
   \                     `?<Constant "\\367">`:
   \   00000000   F700               DC8 "\367"

   \                                 In segment DATA_C, align 1, align-sorted
   \                     `?<Constant "ch">`:
   \   00000000   636800             DC8 "ch"

   \                                 In segment DATA_C, align 1, align-sorted
   \                     `?<Constant "\\330">`:
   \   00000000   D800               DC8 "\330"

   \                                 In segment DATA_C, align 1, align-sorted
   \                     `?<Constant "Sh">`:
   \   00000000   536800             DC8 "Sh"

   \                                 In segment DATA_C, align 1, align-sorted
   \                     `?<Constant "\\370">`:
   \   00000000   F800               DC8 "\370"

   \                                 In segment DATA_C, align 1, align-sorted
   \                     `?<Constant "sh">`:
   \   00000000   736800             DC8 "sh"

   \                                 In segment DATA_C, align 1, align-sorted
   \                     `?<Constant "\\331">`:
   \   00000000   D900               DC8 "\331"

   \                                 In segment DATA_C, align 4, align-sorted
   \                     `?<Constant "Sch">`:
   \   00000000   53636800           DC8 "Sch"

   \                                 In segment DATA_C, align 1, align-sorted
   \                     `?<Constant "\\371">`:
   \   00000000   F900               DC8 "\371"

   \                                 In segment DATA_C, align 4, align-sorted
   \                     `?<Constant "sch">`:
   \   00000000   73636800           DC8 "sch"

   \                                 In segment DATA_C, align 1, align-sorted
   \                     `?<Constant "\\332">`:
   \   00000000   DA00               DC8 "\332"

   Maximum stack usage in bytes:

     Function                CSTACK
     --------                ------
     CreateSimpleShowMsgGui     96
     CreateSmsWS                20
     DeleteAllMss_proc           4
     DoByOpmsgId                20
     ED_ShowMsg_GHook           20
     ED_ShowMsg_OnKey            0
     Ed_SaveFile                32
     Ed_SendSMS                 64
     IsFileInArchive           136
     PathInputDlg               96
     PathInputGHook              8
     PathInputOnKey            252
     ShowCount                1540
     ViewFile                   16
     add_translit               56
     createEditGUI            4224
     createEditOpMenu           24
     delallproc                  4
     edGHook                  4320
     edOnKey                    76
     ed_locret                   0
     ed_menu_del                12
     ed_menu_edit               16
     ed_menu_exit                8
     ed_menu_export_txt          4
     ed_menu_ghook              20
     ed_menu_itemhndl           28
     ed_menu_move_to_archive    12
     ed_menu_onkey              12
     ed_menu_reply              16
     ed_menu_save_ab             8
     ed_menu_save_as_file       88
     ed_menu_send               12
     newSMS                      8
     newSMSWithNum              16
     newSMSWithUtf8Text         16
     on_adr_ec                  64
     patch_input                12
     translit                   24
     viewTheLastNew              8


   Segment part sizes:

     Function/Label                 Bytes
     --------------                 -----
     patch_input                      68
     ed_menusoftkeys                  12
     ed_menu_skt                       8
     ed_menu_reply                   176
     ed_menu_edit                    176
     ed_menu_exit                     60
     ed_menu_del                     124
     ed_menu_save_as_file            348
     ed_menu_move_to_archive         144
     ed_menu_export_txt               44
     ed_menu_save_ab                  44
     ed_menu_send                     88
     procs_nml_file                   84
     IsFileInArchive                 132
     ed_menu_itemhndl                252
     ed_menu_onkey                   312
     ed_menu_ghook                    96
     ed_menu                          44
     createEditOpMenu                168
     tr_r                            536
     translit                        468
     add_translit                     76
     Ed_SendSMS                      356
     Ed_SaveFile                     180
     on_adr_ec                       436
     edOnKey                        1308
     edGHook                        2232
     ed_locret                         4
     ED_DESC                         112
     createEditGUI                  1140
     newSMS                           36
     viewTheLastNew                   48
     newSMSWithNum                    72
     newSMSWithUtf8Text               96
     DoByOpmsgId                     204
     CreateSmsWS                      88
     ViewFile                        108
     DeleteAllMss_proc                20
     delallproc                       36
     PathInputOnKey                  264
     PathInputGHook                   64
     ED_HDR                           76
     ed_menu_sk                       24
     ed_menuhdr                       20
     items_lgp_nml_file               92
     SK_OPTIONS                       56
     PathInputDlg                    416
     ED_ShowMsg_OnKey                 32
     ED_ShowMsg_GHook                 72
     ED_ShowMsg                       56
     CreateSimpleShowMsgGui          288
     ShowCount                       656
     ??DataTable0                      4
     ??DataTable5                      4
     ??DataTable7                      4
     ??DataTable12                     4
     ??DataTable13                     4
     ??DataTable14                     4
     ??DataTable15                     4
     ?<Initializer for ED_HDR>        76
     ?<Initializer for ed_menu_sk>    24
     ?<Initializer for ed_menuhdr>    20
     ?<Initializer for items_lgp_nml_file>
                                      92
     ?<Initializer for SK_OPTIONS>    56
     ?<Constant "G">                   2
     ?<Constant "\"">                  2
     ?<Constant "\372">                2
     ?<Constant "\333">                2
     ?<Constant "\373">                2
     ?<Constant "\334">                2
     ?<Constant "\374">                2
     ?<Constant "\335">                2
     ?<Constant "\375">                2
     ?<Constant "\336">                2
     ?<Constant "Yu">                  3
     ?<Constant "\376">                2
     ?<Constant "yu">                  3
     ?<Constant "\337">                2
     ?<Constant "Ya">                  3
     ?<Constant "\377">                2
     ?<Constant "ya">                  3
     ?<Constant "">                    1
     ?<Constant "Nothing For Sent!">
                                      20
     ?<Constant "\354">                2
     ?<Constant "%t:\n%s">             8
     ?<Constant "%t: %d %d">          12
     ?<Constant "%c">                  3
     ?<Constant "%sSMS\\SMS.dat">     40
     ?<Constant "\300">                2
     ?<Constant "A">                   2
     ?<Constant "\340">                2
     ?<Constant "a">                   2
     ?<Constant "\301">                2
     ?<Constant "B">                   2
     ?<Constant "\341">                2
     ?<Constant "b">                   2
     ?<Constant "\302">                2
     ?<Constant "V">                   2
     ?<Constant "\342">                2
     ?<Constant "v">                   2
     ?<Constant "\303">                2
     ?<Constant "%t: %c%d\n------------...">
                                     168
     ?<Constant "\343">                2
     ?<Constant "g">                   2
     ?<Constant "\304">                2
     ?<Constant "D">                   2
     ?<Constant "\344">                2
     ?<Constant "d">                   2
     ?<Constant "\305">                2
     ?<Constant "E">                   2
     ?<Constant "\345">                2
     ?<Constant "e">                   2
     ?<Constant "\250">                2
     ?<Constant "Yo">                  3
     ?<Constant "\270">                2
     ?<Constant "yo">                  3
     ?<Constant "\306">                2
     ?<Constant "J">                   2
     ?<Constant "\346">                2
     ?<Constant "j">                   2
     ?<Constant "\307">                2
     ?<Constant "Z">                   2
     ?<Constant "\347">                2
     ?<Constant "z">                   2
     ?<Constant "\310">                2
     ?<Constant "I">                   2
     ?<Constant "\350">                2
     ?<Constant "i">                   2
     ?<Constant "\311">                2
     ?<Constant "Y">                   2
     ?<Constant "\351">                2
     ?<Constant "y">                   2
     ?<Constant "\312">                2
     ?<Constant "K">                   2
     ?<Constant "\352">                2
     ?<Constant "k">                   2
     ?<Constant "\313">                2
     ?<Constant "L">                   2
     ?<Constant "\353">                2
     ?<Constant "l">                   2
     ?<Constant "\314">                2
     ?<Constant "M">                   2
     ?<Constant "\'">                  2
     ?<Constant "m">                   2
     ?<Constant "\315">                2
     ?<Constant "N">                   2
     ?<Constant "\355">                2
     ?<Constant "n">                   2
     ?<Constant "\316">                2
     ?<Constant "O">                   2
     ?<Constant "\356">                2
     ?<Constant "o">                   2
     ?<Constant "\317">                2
     ?<Constant "P">                   2
     ?<Constant "\357">                2
     ?<Constant "p">                   2
     ?<Constant "\320">                2
     ?<Constant "R">                   2
     ?<Constant "\360">                2
     ?<Constant "r">                   2
     ?<Constant "\321">                2
     ?<Constant "S">                   2
     ?<Constant "\361">                2
     ?<Constant "s">                   2
     ?<Constant "\322">                2
     ?<Constant "T">                   2
     ?<Constant "\362">                2
     ?<Constant "t">                   2
     ?<Constant "\323">                2
     ?<Constant "U">                   2
     ?<Constant "\363">                2
     ?<Constant "u">                   2
     ?<Constant "\324">                2
     ?<Constant "F">                   2
     ?<Constant "\364">                2
     ?<Constant "f">                   2
     ?<Constant "\325">                2
     ?<Constant "H">                   2
     ?<Constant "\365">                2
     ?<Constant "h">                   2
     ?<Constant "\326">                2
     ?<Constant "C">                   2
     ?<Constant "\366">                2
     ?<Constant "c">                   2
     ?<Constant "\327">                2
     ?<Constant "Ch">                  3
     ?<Constant "\367">                2
     ?<Constant "ch">                  3
     ?<Constant "\330">                2
     ?<Constant "Sh">                  3
     ?<Constant "\370">                2
     ?<Constant "sh">                  3
     ?<Constant "\331">                2
     ?<Constant "Sch">                 4
     ?<Constant "\371">                2
     ?<Constant "sch">                 4
     ?<Constant "\332">                2
      Others                         708

 
 11 656 bytes in segment CODE
  1 370 bytes in segment DATA_C
    268 bytes in segment DATA_I
    268 bytes in segment DATA_ID
     12 bytes in segment INITTAB
 
 10 892 bytes of CODE  memory (+ 776 bytes shared)
  1 638 bytes of CONST memory
    268 bytes of DATA  memory

Errors: none
Warnings: 4
