##############################################################################
#                                                                            #
# IAR ARM ANSI C/C++ Compiler V4.42A/W32 EVALUATION    14/Jan/2009  12:36:43 #
# Copyright 1999-2005 IAR Systems. All rights reserved.                      #
#                                                                            #
#    Cpu mode        =  interwork                                            #
#    Endian          =  little                                               #
#    Stack alignment =  4                                                    #
#    Source file     =  K:\Pasha\elf\SieELF\MySMSYS\language.c               #
#    Command line    =  K:\Pasha\elf\SieELF\MySMSYS\language.c -D NEWSGOLD   #
#                       -D ELKA -D LANG_EN -D NO_CS -lC                      #
#                       K:\Pasha\elf\SieELF\MySMSYS\Release_ELKA_EN\List\    #
#                       -o K:\Pasha\elf\SieELF\MySMSYS\Release_ELKA_EN\Obj\  #
#                       -s9 --no_unroll --cpu_mode arm --endian little       #
#                       --cpu ARM926EJ-S --stack_align 4 --interwork -e      #
#                       --fpu None --dlib_config "K:\Pasha\Embedded          #
#                       Workbench 4.0 Evaluation2\ARM\LIB\dl5tpainl8n.h" -I  #
#                       "K:\Pasha\Embedded Workbench 4.0                     #
#                       Evaluation2\ARM\INC\" --inline_threshold=2           #
#    List file       =  K:\Pasha\elf\SieELF\MySMSYS\Release_ELKA_EN\List\lan #
#                       guage.lst                                            #
#    Object file     =  K:\Pasha\elf\SieELF\MySMSYS\Release_ELKA_EN\Obj\lang #
#                       uage.r79                                             #
#                                                                            #
#                                                                            #
##############################################################################

K:\Pasha\elf\SieELF\MySMSYS\language.c
      1          #include "..\inc\swilib.h"
      2          #include "config_data.h"
      3          #include "language.h"
      4          #include "MySMSYS_ipc.h"
      5          

   \                                 In segment DATA_C, align 4, align-sorted
      6          const char my_ipc_name[]=MY_SMSYS_IPC_NAME;
   \                     my_ipc_name:
   \   00000000   4D79534D5359       DC8 "MySMSYS"
   \              5300        
      7          

   \                                 In segment DATA_C, align 4, align-sorted
      8          const char ELFNAME[]="MySMSYS";
   \                     ELFNAME:
   \   00000000   4D79534D5359       DC8 "MySMSYS"
   \              5300        
      9          #ifdef MEGADIAL
     10          const char ELFNAME_D[]="MssMD";
     11          #else

   \                                 In segment DATA_C, align 4, align-sorted
     12          const char ELFNAME_D[]="MssD";
   \                     ELFNAME_D:
   \   00000000   4D73734400         DC8 "MssD"
   \   00000005   000000             DC8 0, 0, 0
     13          #endif

   \                                 In segment DATA_C, align 4, align-sorted
     14          const char COPY_RIGHT[]="My SMS System v2.4.1\n(c)BingK (binghelingxi)\n(r)titron,Rst7";
   \                     COPY_RIGHT:
   \   00000000   4D7920534D53       DC8 4DH, 79H, 20H, 53H, 4DH, 53H, 20H, 53H
   \              2053        
   \   00000008   797374656D20       DC8 79H, 73H, 74H, 65H, 6DH, 20H, 76H, 32H
   \              7632        
   \   00000010   2E342E310A28       DC8 2EH, 34H, 2EH, 31H, 0AH, 28H, 63H, 29H
   \              6329        
   \   00000018   42696E674B20       DC8 42H, 69H, 6EH, 67H, 4BH, 20H, 28H, 62H
   \              2862        
   \   00000020   696E6768656C       DC8 69H, 6EH, 67H, 68H, 65H, 6CH, 69H, 6EH
   \              696E        
   \   00000028   677869290A28       DC8 67H, 78H, 69H, 29H, 0AH, 28H, 72H, 29H
   \              7229        
   \   00000030   746974726F6E       DC8 74H, 69H, 74H, 72H, 6FH, 6EH, 2CH, 52H
   \              2C52        
   \   00000038   73743700           DC8 73H, 74H, 37H, 0
     15          

   \                                 In segment DATA_C, align 1, align-sorted
     16          const char PERCENT_T[]="%t";
   \                     PERCENT_T:
   \   00000000   257400             DC8 "%t"

   \                                 In segment DATA_C, align 1, align-sorted
     17          const char PERCENT_S[]="%s";
   \                     PERCENT_S:
   \   00000000   257300             DC8 "%s"

   \                                 In segment DATA_C, align 4, align-sorted
     18          const char num_fetion[]="12520";
   \                     num_fetion:
   \   00000000   313235323000       DC8 "12520"
   \   00000006   0000               DC8 0, 0
     19          

   \                                 In segment DATA_C, align 4, align-sorted
     20          const char STR_UNK_ED[]="Unknow EdGUI Type (%d)!";
   \                     STR_UNK_ED:
   \   00000000   556E6B6E6F77       DC8 "Unknow EdGUI Type (%d)!"
   \              204564475549
   \              205479706520
   \              282564292100

   \                                 In segment DATA_C, align 4, align-sorted
     21          const char STR_LINES[]="----------------";
   \                     STR_LINES:
   \   00000000   2D2D2D2D2D2D       DC8 "----------------"
   \              2D2D2D2D2D2D
   \              2D2D2D2D00  
   \   00000011   000000             DC8 0, 0, 0

   \                                 In segment DATA_C, align 4, align-sorted
     22          const char STR_UNK_TXTT[]="Unkown Text Encode Type (%d)!";
   \                     STR_UNK_TXTT:
   \   00000000   556E6B6F776E       DC8 "Unkown Text Encode Type (%d)!"
   \              205465787420
   \              456E636F6465
   \              205479706520
   \              282564292100
   \   0000001E   0000               DC8 0, 0

   \                                 In segment DATA_C, align 4, align-sorted
     23          const char STR_UNK_TYPE[]="Unknow Type (%d)!";
   \                     STR_UNK_TYPE:
   \   00000000   556E6B6E6F77       DC8 "Unknow Type (%d)!"
   \              205479706520
   \              282564292100
   \   00000012   0000               DC8 0, 0
     24          

   \                                 In segment DATA_C, align 4, align-sorted
     25          const char FLDR_IN[]="In\\";
   \                     FLDR_IN:
   \   00000000   496E5C00           DC8 "In\\"

   \                                 In segment DATA_C, align 4, align-sorted
     26          const char FLDR_OUT[]="Out\\";
   \                     FLDR_OUT:
   \   00000000   4F75745C00         DC8 "Out\\"
   \   00000005   000000             DC8 0, 0, 0

   \                                 In segment DATA_C, align 4, align-sorted
     27          const char FLDR_DRAFT[]="Draft\\";
   \                     FLDR_DRAFT:
   \   00000000   44726166745C       DC8 "Draft\\"
   \              00          
   \   00000007   00                 DC8 0

   \                                 In segment DATA_C, align 4, align-sorted
     28          const char FLDR_UNK[]="Unknow\\";
   \                     FLDR_UNK:
   \   00000000   556E6B6E6F77       DC8 "Unknow\\"
   \              5C00        

   \                                 In segment DATA_C, align 4, align-sorted
     29          const char FLDR_ARCHIVE[]="Archive\\";
   \                     FLDR_ARCHIVE:
   \   00000000   417263686976       DC8 "Archive\\"
   \              655C00      
   \   00000009   000000             DC8 0, 0, 0
     30          
     31          #ifdef LANG_EN
     32          /*
     33          const char STR_FROM[]="From";
     34          const char STR_UNK_NUM[]="Unknow Number";
     35          const char STR_NUMBER[]="Number";
     36          const char STR_TEXT[]="Text";
     37          const char STR_TO[]="To";
     38          const char STR_TIME[]="Time";
     39          const char STR_UNK[]="Unknow";
     40          */

   \                                 In segment DATA_C, align 4, align-sorted
     41          const char STR_UNK_NUM_UTF8[]="Unknow Number";
   \                     STR_UNK_NUM_UTF8:
   \   00000000   556E6B6E6F77       DC8 "Unknow Number"
   \              204E756D6265
   \              7200        
   \   0000000E   0000               DC8 0, 0

   \                                 In segment DATA_C, align 4, align-sorted
     42          const char STR_NUMBER_UTF8[]="Number";
   \                     STR_NUMBER_UTF8:
   \   00000000   4E756D626572       DC8 "Number"
   \              00          
   \   00000007   00                 DC8 0

   \                                 In segment DATA_C, align 4, align-sorted
     43          const char STR_TEXT_UTF8[]="Text";
   \                     STR_TEXT_UTF8:
   \   00000000   5465787400         DC8 "Text"
   \   00000005   000000             DC8 0, 0, 0

   \                                 In segment DATA_C, align 1, align-sorted
     44          const char STR_TO_UTF8[]="To";
   \                     STR_TO_UTF8:
   \   00000000   546F00             DC8 "To"

   \                                 In segment DATA_C, align 4, align-sorted
     45          const char STR_FROM_UTF8[]="From";
   \                     STR_FROM_UTF8:
   \   00000000   46726F6D00         DC8 "From"
   \   00000005   000000             DC8 0, 0, 0

   \                                 In segment DATA_C, align 4, align-sorted
     46          const char STR_TIME_UTF8[]="Time";
   \                     STR_TIME_UTF8:
   \   00000000   54696D6500         DC8 "Time"
   \   00000005   000000             DC8 0, 0, 0

   \                                 In segment DATA_C, align 4, align-sorted
     47          const char STR_UNK_UTF8[]="Unknow";
   \                     STR_UNK_UTF8:
   \   00000000   556E6B6E6F77       DC8 "Unknow"
   \              00          
   \   00000007   00                 DC8 0
     48          #endif
     49          
     50          
     51          #ifdef LANG_CN
     52          /*
     53          const char STR_FROM[]="来自";
     54          const char STR_UNK_NUM[]="未知号码";
     55          const char STR_NUMBER[]="号码";
     56          const char STR_TEXT[]="正文";
     57          const char STR_TO[]="发送到";
     58          const char STR_TIME[]="时间";
     59          const char STR_UNK[]="未知";
     60          */
     61          const char STR_UNK_NUM_UTF8[]="\xE6\x9C\xAA\xE7\x9F\xA5\xE5\x8F\xB7\xE7\xA0\x81";
     62          const char STR_NUMBER_UTF8[]="\xE5\x8F\xB7\xE7\xA0\x81";
     63          const char STR_TEXT_UTF8[]="\xE6\xAD\xA3\xE6\x96\x87";
     64          const char STR_TO_UTF8[]="\xE5\x8F\x91\xE9\x80\x81\xE5\x88\xB0";
     65          const char STR_FROM_UTF8[]="\xE6\x9D\xA5\xE8\x87\xAA";
     66          const char STR_TIME_UTF8[]="\xE6\x97\xB6\xE9\x97\xB4";
     67          const char STR_UNK_UTF8[]="\xE6\x9C\xAA\xE7\x9F\xA5";
     68          #endif
     69          
     70          

   \                                 In segment DATA_C, align 4, align-sorted
     71          const char df_LGP_OK[]="OK";
   \                     df_LGP_OK:
   \   00000000   4F4B00             DC8 "OK"
     72          const char df_LGP_BACK[]="Back";
     73          const char df_LGP_ADRBK[]="AddressBook";
     74          const char df_LGP_ERR[]="Error!";
     75          const char df_LGP_SELECT[]="Select";
     76          const char df_LGP_QUIT[]="Quit";
     77          const char df_LGP_NEW[]="NewSMS";
     78          const char df_LGP_IN_R[]="InReaded";
     79          const char df_LGP_IN_N[]="InNew";
     80          const char df_LGP_IN_A[]="InBox";
     81          const char df_LGP_OUT[]="Sent";
     82          const char df_LGP_DRAFT[]="Draft";
     83          const char df_LGP_ALL[]="AllSMS";
     84          const char df_LGP_OPTIONS[]="Options";
     85          const char df_LGP_ERR_0NUM[]="No Number !";
     86          const char df_LGP_EXIT[]="Exit";
     87          const char df_LGP_CANCEL[]="Cancel";
     88          const char df_LGP_SEND[]="Send";
     89          const char df_LGP_DEL[]="Delete";
     90          const char df_LGP_SAVE_AS_FILE[]="Save As File";
     91          const char df_LGP_SAVE_AS_DRAFT[]="Save As Draft";
     92          const char df_LGP_INSERT_ADRNUM[]="Insert Number Form AddressBook";
     93          const char df_LGP_INSERT_BLANKNUM[]="Insert Blank Number";
     94          const char df_LGP_CHAR_COUNT[]="Count";
     95          const char df_LGP_VIEW[]="View";
     96          const char df_LGP_EDIT[]="Edit";
     97          const char df_LGP_REPLY[]="Reply";
     98          const char df_LGP_NEW_MSG[]="New Message!";
     99          const char df_LGP_FROM[]="From";
    100          const char df_LGP_CODESHOW[]="CodeShow";
    101          const char df_LGP_FETION[]="Fetion";
    102          const char df_LGP_SAVEALL[]="Save All As File";
    103          const char df_LGP_CONFIG_UPDATE[]="MySMSYS Config Updated!";
    104          const char df_LGP_CONFIG[]="Settings";
    105          const char df_LGP_SAVE_ALL_ONE[]="Export All To One TXT";
    106          const char df_LGP_PLS_INPUT_PATH[]="Please Input The File Path:";
    107          const char df_LGP_OTHERS[]="Others";
    108          const char df_LGP_FILE_FAILED[]="File Operate Failed!";
    109          const char df_LGP_FILE_EXIST[]="File Existed!";
    110          const char df_LGP_EXPORT_TXT[]="Export As Txt";
    111          const char df_LGP_MOVE_ARCHIVE[]="Move To Archive";
    112          const char df_LGP_MOVE_ALL_MSS[]="Move All MSS To Archive";
    113          const char df_LGP_OPEN_ARCHIVE[]="Open Archive";
    114          const char df_LGP_EXPORT_N[]="Export %d SMS Successfully!";
    115          const char df_LGP_MOVE_MSSARCHIVER_N[]="Move %d Mss File to Archive Successfully!";
    116          const char df_LGP_DEL_ALL_MSS[]="Delete All Mss Files?";
    117          const char df_LGP_ABOUT[]="About...";
    118          const char df_LGP_COV_DAT_TXT[]="Cov SMS.dat To Txt";
    119          const char df_LGP_SAVE_ALL_AS_FILE[]="Save All As Files";
    120          const char df_LGP_SAF_N[]="Save %d SMS Successfully!";
    121          const char df_LGP_DEL_ALL[]="Delete All?";
    122          const char df_LGP_DEL_ALL_MSG[]="Delete All Message";
    123          const char df_LGP_MOVE_ALL[]="Move All To Archive";
    124          const char df_LGP_DEL_ALL_MSG_MSS[]="Delete All Mss";
    125          const char df_LGP_SAVE[]="Save";
    126          const char df_LGP_MSG_REPORT[]="Message Report";
    127          const char df_LGP_MSG_REVEICED[]="Message received at"; //后加时间
    128          const char df_LGP_UNK_RP_STATUS[]="SMS Report: Unknow Status";
    129          const char df_LGP_TEMPLATE[]="Template";
    130          const char df_LGP_CALL_ADDRESSBOOK[]="Call Addressbook";
    131          const char df_LGP_STATISTICS[]="Statistics";
    132          const char df_LGP_IN_SMSDAT[]="in SMS.dat";
    133          const char df_LGP_IS_MSSFILE[]="is Mss File";
    134          const char df_LGP_DAT_FREE[]="Free";
    135          const char df_LGP_DISK_FREE[]="Free in Disk";
    136          const char df_LGP_MSS_MAINMENU[]="Mss MainMenu";
    137          const char df_LGP_TRANSLIT[]="Translit";
    138          const char df_LGP_TIME[]="Time";
    139          const char df_LGP_UNK_NUM[]="Unknow Number";
    140          const char df_LGP_NUMBER[]="Number";
    141          const char df_LGP_TEXT[]="Text";
    142          const char df_LGP_TO[]="To";
   \                     df_LGP_TO:
   \   00000003   546F00             DC8 "To"
   \   00000006   0000               DC8 0, 0
   \                     df_LGP_BACK:
   \   00000008   4261636B00         DC8 "Back"
   \   0000000D   000000             DC8 0, 0, 0
   \                     df_LGP_ADRBK:
   \   00000010   416464726573       DC8 "AddressBook"
   \              73426F6F6B00
   \                     df_LGP_ERR:
   \   0000001C   4572726F7221       DC8 "Error!"
   \              00          
   \   00000023   00                 DC8 0
   \                     df_LGP_SELECT:
   \   00000024   53656C656374       DC8 "Select"
   \              00          
   \   0000002B   00                 DC8 0
   \                     df_LGP_QUIT:
   \   0000002C   5175697400         DC8 "Quit"
   \   00000031   000000             DC8 0, 0, 0
   \                     df_LGP_NEW:
   \   00000034   4E6577534D53       DC8 "NewSMS"
   \              00          
   \   0000003B   00                 DC8 0
   \                     df_LGP_IN_R:
   \   0000003C   496E52656164       DC8 "InReaded"
   \              656400      
   \   00000045   000000             DC8 0, 0, 0
   \                     df_LGP_IN_N:
   \   00000048   496E4E657700       DC8 "InNew"
   \   0000004E   0000               DC8 0, 0
   \                     df_LGP_IN_A:
   \   00000050   496E426F7800       DC8 "InBox"
   \   00000056   0000               DC8 0, 0
   \                     df_LGP_OUT:
   \   00000058   53656E7400         DC8 "Sent"
   \   0000005D   000000             DC8 0, 0, 0
   \                     df_LGP_DRAFT:
   \   00000060   447261667400       DC8 "Draft"
   \   00000066   0000               DC8 0, 0
   \                     df_LGP_ALL:
   \   00000068   416C6C534D53       DC8 "AllSMS"
   \              00          
   \   0000006F   00                 DC8 0
   \                     df_LGP_OPTIONS:
   \   00000070   4F7074696F6E       DC8 "Options"
   \              7300        
   \                     df_LGP_ERR_0NUM:
   \   00000078   4E6F204E756D       DC8 "No Number !"
   \              626572202100
   \                     df_LGP_EXIT:
   \   00000084   4578697400         DC8 "Exit"
   \   00000089   000000             DC8 0, 0, 0
   \                     df_LGP_CANCEL:
   \   0000008C   43616E63656C       DC8 "Cancel"
   \              00          
   \   00000093   00                 DC8 0
   \                     df_LGP_SEND:
   \   00000094   53656E6400         DC8 "Send"
   \   00000099   000000             DC8 0, 0, 0
   \                     df_LGP_DEL:
   \   0000009C   44656C657465       DC8 "Delete"
   \              00          
   \   000000A3   00                 DC8 0
   \                     df_LGP_SAVE_AS_FILE:
   \   000000A4   536176652041       DC8 "Save As File"
   \              732046696C65
   \              00          
   \   000000B1   000000             DC8 0, 0, 0
   \                     df_LGP_SAVE_AS_DRAFT:
   \   000000B4   536176652041       DC8 "Save As Draft"
   \              732044726166
   \              7400        
   \   000000C2   0000               DC8 0, 0
   \                     df_LGP_INSERT_ADRNUM:
   \   000000C4   496E73657274       DC8 "Insert Number Form AddressBook"
   \              204E756D6265
   \              7220466F726D
   \              204164647265
   \              7373426F6F6B
   \              00          
   \   000000E3   00                 DC8 0
   \                     df_LGP_INSERT_BLANKNUM:
   \   000000E4   496E73657274       DC8 "Insert Blank Number"
   \              20426C616E6B
   \              204E756D6265
   \              7200        
   \                     df_LGP_CHAR_COUNT:
   \   000000F8   436F756E7400       DC8 "Count"
   \   000000FE   0000               DC8 0, 0
   \                     df_LGP_VIEW:
   \   00000100   5669657700         DC8 "View"
   \   00000105   000000             DC8 0, 0, 0
   \                     df_LGP_EDIT:
   \   00000108   4564697400         DC8 "Edit"
   \   0000010D   000000             DC8 0, 0, 0
   \                     df_LGP_REPLY:
   \   00000110   5265706C7900       DC8 "Reply"
   \   00000116   0000               DC8 0, 0
   \                     df_LGP_NEW_MSG:
   \   00000118   4E6577204D65       DC8 "New Message!"
   \              737361676521
   \              00          
   \   00000125   000000             DC8 0, 0, 0
   \                     df_LGP_FROM:
   \   00000128   46726F6D00         DC8 "From"
   \   0000012D   000000             DC8 0, 0, 0
   \                     df_LGP_CODESHOW:
   \   00000130   436F64655368       DC8 "CodeShow"
   \              6F7700      
   \   00000139   000000             DC8 0, 0, 0
   \                     df_LGP_FETION:
   \   0000013C   466574696F6E       DC8 "Fetion"
   \              00          
   \   00000143   00                 DC8 0
   \                     df_LGP_SAVEALL:
   \   00000144   536176652041       DC8 "Save All As File"
   \              6C6C20417320
   \              46696C6500  
   \   00000155   000000             DC8 0, 0, 0
   \                     df_LGP_CONFIG_UPDATE:
   \   00000158   4D79534D5359       DC8 "MySMSYS Config Updated!"
   \              5320436F6E66
   \              696720557064
   \              617465642100
   \                     df_LGP_CONFIG:
   \   00000170   53657474696E       DC8 "Settings"
   \              677300      
   \   00000179   000000             DC8 0, 0, 0
   \                     df_LGP_SAVE_ALL_ONE:
   \   0000017C   4578706F7274       DC8 "Export All To One TXT"
   \              20416C6C2054
   \              6F204F6E6520
   \              54585400    
   \   00000192   0000               DC8 0, 0
   \                     df_LGP_PLS_INPUT_PATH:
   \   00000194   506C65617365       DC8 "Please Input The File Path:"
   \              20496E707574
   \              205468652046
   \              696C65205061
   \              74683A00    
   \                     df_LGP_OTHERS:
   \   000001B0   4F7468657273       DC8 "Others"
   \              00          
   \   000001B7   00                 DC8 0
   \                     df_LGP_FILE_FAILED:
   \   000001B8   46696C65204F       DC8 "File Operate Failed!"
   \              706572617465
   \              204661696C65
   \              642100      
   \   000001CD   000000             DC8 0, 0, 0
   \                     df_LGP_FILE_EXIST:
   \   000001D0   46696C652045       DC8 "File Existed!"
   \              786973746564
   \              2100        
   \   000001DE   0000               DC8 0, 0
   \                     df_LGP_EXPORT_TXT:
   \   000001E0   4578706F7274       DC8 "Export As Txt"
   \              204173205478
   \              7400        
   \   000001EE   0000               DC8 0, 0
   \                     df_LGP_MOVE_ARCHIVE:
   \   000001F0   4D6F76652054       DC8 "Move To Archive"
   \              6F2041726368
   \              69766500    
   \                     df_LGP_MOVE_ALL_MSS:
   \   00000200   4D6F76652041       DC8 "Move All MSS To Archive"
   \              6C6C204D5353
   \              20546F204172
   \              636869766500
   \                     df_LGP_OPEN_ARCHIVE:
   \   00000218   4F70656E2041       DC8 "Open Archive"
   \              726368697665
   \              00          
   \   00000225   000000             DC8 0, 0, 0
   \                     df_LGP_EXPORT_N:
   \   00000228   4578706F7274       DC8 "Export %d SMS Successfully!"
   \              20256420534D
   \              532053756363
   \              65737366756C
   \              6C792100    
   \                     df_LGP_MOVE_MSSARCHIVER_N:
   \   00000244   4D6F76652025       DC8 "Move %d Mss File to Archive Successfully!"
   \              64204D737320
   \              46696C652074
   \              6F2041726368
   \              697665205375
   \              636365737366
   \              756C6C792100
   \   0000026E   0000               DC8 0, 0
   \                     df_LGP_DEL_ALL_MSS:
   \   00000270   44656C657465       DC8 "Delete All Mss Files?"
   \              20416C6C204D
   \              73732046696C
   \              65733F00    
   \   00000286   0000               DC8 0, 0
   \                     df_LGP_ABOUT:
   \   00000288   41626F75742E       DC8 "About..."
   \              2E2E00      
   \   00000291   000000             DC8 0, 0, 0
   \                     df_LGP_COV_DAT_TXT:
   \   00000294   436F7620534D       DC8 "Cov SMS.dat To Txt"
   \              532E64617420
   \              546F20547874
   \              00          
   \   000002A7   00                 DC8 0
   \                     df_LGP_SAVE_ALL_AS_FILE:
   \   000002A8   536176652041       DC8 "Save All As Files"
   \              6C6C20417320
   \              46696C657300
   \   000002BA   0000               DC8 0, 0
   \                     df_LGP_SAF_N:
   \   000002BC   536176652025       DC8 "Save %d SMS Successfully!"
   \              6420534D5320
   \              537563636573
   \              7366756C6C79
   \              2100        
   \   000002D6   0000               DC8 0, 0
   \                     df_LGP_DEL_ALL:
   \   000002D8   44656C657465       DC8 "Delete All?"
   \              20416C6C3F00
   \                     df_LGP_DEL_ALL_MSG:
   \   000002E4   44656C657465       DC8 "Delete All Message"
   \              20416C6C204D
   \              657373616765
   \              00          
   \   000002F7   00                 DC8 0
   \                     df_LGP_MOVE_ALL:
   \   000002F8   4D6F76652041       DC8 "Move All To Archive"
   \              6C6C20546F20
   \              417263686976
   \              6500        
   \                     df_LGP_DEL_ALL_MSG_MSS:
   \   0000030C   44656C657465       DC8 "Delete All Mss"
   \              20416C6C204D
   \              737300      
   \   0000031B   00                 DC8 0
   \                     df_LGP_SAVE:
   \   0000031C   5361766500         DC8 "Save"
   \   00000321   000000             DC8 0, 0, 0
   \                     df_LGP_MSG_REPORT:
   \   00000324   4D6573736167       DC8 "Message Report"
   \              65205265706F
   \              727400      
   \   00000333   00                 DC8 0
   \                     df_LGP_MSG_REVEICED:
   \   00000334   4D6573736167       DC8 "Message received at"
   \              652072656365
   \              697665642061
   \              7400        
   \                     df_LGP_UNK_RP_STATUS:
   \   00000348   534D53205265       DC8 "SMS Report: Unknow Status"
   \              706F72743A20
   \              556E6B6E6F77
   \              205374617475
   \              7300        
   \   00000362   0000               DC8 0, 0
   \                     df_LGP_TEMPLATE:
   \   00000364   54656D706C61       DC8 "Template"
   \              746500      
   \   0000036D   000000             DC8 0, 0, 0
   \                     df_LGP_CALL_ADDRESSBOOK:
   \   00000370   43616C6C2041       DC8 "Call Addressbook"
   \              646472657373
   \              626F6F6B00  
   \   00000381   000000             DC8 0, 0, 0
   \                     df_LGP_STATISTICS:
   \   00000384   537461746973       DC8 "Statistics"
   \              7469637300  
   \   0000038F   00                 DC8 0
   \                     df_LGP_IN_SMSDAT:
   \   00000390   696E20534D53       DC8 "in SMS.dat"
   \              2E64617400  
   \   0000039B   00                 DC8 0
   \                     df_LGP_IS_MSSFILE:
   \   0000039C   6973204D7373       DC8 "is Mss File"
   \              2046696C6500
   \                     df_LGP_DAT_FREE:
   \   000003A8   4672656500         DC8 "Free"
   \   000003AD   000000             DC8 0, 0, 0
   \                     df_LGP_DISK_FREE:
   \   000003B0   467265652069       DC8 "Free in Disk"
   \              6E204469736B
   \              00          
   \   000003BD   000000             DC8 0, 0, 0
   \                     df_LGP_MSS_MAINMENU:
   \   000003C0   4D7373204D61       DC8 "Mss MainMenu"
   \              696E4D656E75
   \              00          
   \   000003CD   000000             DC8 0, 0, 0
   \                     df_LGP_TRANSLIT:
   \   000003D0   5472616E736C       DC8 "Translit"
   \              697400      
   \   000003D9   000000             DC8 0, 0, 0
   \                     df_LGP_TIME:
   \   000003DC   54696D6500         DC8 "Time"
   \   000003E1   000000             DC8 0, 0, 0
   \                     df_LGP_UNK_NUM:
   \   000003E4   556E6B6E6F77       DC8 "Unknow Number"
   \              204E756D6265
   \              7200        
   \   000003F2   0000               DC8 0, 0
   \                     df_LGP_NUMBER:
   \   000003F4   4E756D626572       DC8 "Number"
   \              00          
   \   000003FB   00                 DC8 0
   \                     df_LGP_TEXT:
   \   000003FC   5465787400         DC8 "Text"
   \   00000401   000000             DC8 0, 0, 0
    143          const char df_LGP_UNK[]="Unknow";
   \                     df_LGP_UNK:
   \   00000404   556E6B6E6F77       DC8 "Unknow"
   \              00          
   \   0000040B   00                 DC8 0
    144          const char df_LGP_FILTER[]="Fliter";
   \                     df_LGP_FILTER:
   \   0000040C   466C69746572       DC8 "Fliter"
   \              00          
   \   00000413   00                 DC8 0
    145          

   \                                 In segment DATA_Z, align 4, align-sorted
    146          LGPACK lgp;
   \                     lgp:
   \   00000000                      DS8 296
    147          char *lang_buf=0;
   \                     lang_buf:
   \   00000128                      DS8 4

   \                                 In segment CODE, align 4, keep-with-next
    148          void LoadLgpDefault(void)
    149          {
    150            lgp.LGP_OK                =df_LGP_OK;                       
   \                     LoadLgpDefault:
   \   00000000   ........           LDR      R0,??DataTable2  ;; lgp
   \   00000004   5C129FE5           LDR      R1,??LoadLgpDefault_0  ;; df_LGP_OK
   \   00000008   001080E5           STR      R1,[R0, #+0]
    151            lgp.LGP_BACK              =df_LGP_BACK;                     
   \   0000000C   082081E2           ADD      R2,R1,#+8
   \   00000010   042080E5           STR      R2,[R0, #+4]
    152            lgp.LGP_ADRBK             =df_LGP_ADRBK;                    
   \   00000014   102081E2           ADD      R2,R1,#+16
   \   00000018   082080E5           STR      R2,[R0, #+8]
    153            lgp.LGP_ERR               =df_LGP_ERR;                      
   \   0000001C   1C2081E2           ADD      R2,R1,#+28
   \   00000020   0C2080E5           STR      R2,[R0, #+12]
    154            lgp.LGP_SELECT            =df_LGP_SELECT;                   
   \   00000024   242081E2           ADD      R2,R1,#+36
   \   00000028   102080E5           STR      R2,[R0, #+16]
    155            lgp.LGP_QUIT              =df_LGP_QUIT;                     
   \   0000002C   2C2081E2           ADD      R2,R1,#+44
   \   00000030   142080E5           STR      R2,[R0, #+20]
    156            lgp.LGP_NEW               =df_LGP_NEW;                      
   \   00000034   342081E2           ADD      R2,R1,#+52
   \   00000038   182080E5           STR      R2,[R0, #+24]
    157            lgp.LGP_IN_R              =df_LGP_IN_R;                     
   \   0000003C   3C2081E2           ADD      R2,R1,#+60
   \   00000040   1C2080E5           STR      R2,[R0, #+28]
    158            lgp.LGP_IN_N              =df_LGP_IN_N;                     
   \   00000044   482081E2           ADD      R2,R1,#+72
   \   00000048   202080E5           STR      R2,[R0, #+32]
    159            lgp.LGP_IN_A              =df_LGP_IN_A;                     
   \   0000004C   502081E2           ADD      R2,R1,#+80
   \   00000050   242080E5           STR      R2,[R0, #+36]
    160            lgp.LGP_OUT               =df_LGP_OUT;                       
   \   00000054   582081E2           ADD      R2,R1,#+88
   \   00000058   282080E5           STR      R2,[R0, #+40]
    161            lgp.LGP_DRAFT             =df_LGP_DRAFT;                     
   \   0000005C   602081E2           ADD      R2,R1,#+96
   \   00000060   2C2080E5           STR      R2,[R0, #+44]
    162            lgp.LGP_ALL               =df_LGP_ALL;                       
   \   00000064   682081E2           ADD      R2,R1,#+104
   \   00000068   302080E5           STR      R2,[R0, #+48]
    163            lgp.LGP_OPTIONS           =df_LGP_OPTIONS;                   
   \   0000006C   702081E2           ADD      R2,R1,#+112
   \   00000070   342080E5           STR      R2,[R0, #+52]
    164            lgp.LGP_ERR_0NUM          =df_LGP_ERR_0NUM;                  
   \   00000074   782081E2           ADD      R2,R1,#+120
   \   00000078   382080E5           STR      R2,[R0, #+56]
    165            lgp.LGP_EXIT              =df_LGP_EXIT;                      
   \   0000007C   842081E2           ADD      R2,R1,#+132
   \   00000080   3C2080E5           STR      R2,[R0, #+60]
    166            lgp.LGP_CANCEL            =df_LGP_CANCEL;                    
   \   00000084   8C2081E2           ADD      R2,R1,#+140
   \   00000088   402080E5           STR      R2,[R0, #+64]
    167            lgp.LGP_SEND              =df_LGP_SEND;                      
   \   0000008C   942081E2           ADD      R2,R1,#+148
   \   00000090   442080E5           STR      R2,[R0, #+68]
    168            lgp.LGP_DEL               =df_LGP_DEL;                       
   \   00000094   9C2081E2           ADD      R2,R1,#+156
   \   00000098   482080E5           STR      R2,[R0, #+72]
    169            lgp.LGP_SAVE_AS_FILE      =df_LGP_SAVE_AS_FILE;              
   \   0000009C   A42081E2           ADD      R2,R1,#+164
   \   000000A0   4C2080E5           STR      R2,[R0, #+76]
    170            lgp.LGP_SAVE_AS_DRAFT     =df_LGP_SAVE_AS_DRAFT;             
   \   000000A4   B42081E2           ADD      R2,R1,#+180
   \   000000A8   502080E5           STR      R2,[R0, #+80]
    171            lgp.LGP_INSERT_ADRNUM     =df_LGP_INSERT_ADRNUM;             
   \   000000AC   C42081E2           ADD      R2,R1,#+196
   \   000000B0   542080E5           STR      R2,[R0, #+84]
    172            lgp.LGP_INSERT_BLANKNUM   =df_LGP_INSERT_BLANKNUM;           
   \   000000B4   E42081E2           ADD      R2,R1,#+228
   \   000000B8   582080E5           STR      R2,[R0, #+88]
    173            lgp.LGP_CHAR_COUNT        =df_LGP_CHAR_COUNT;                
   \   000000BC   F82081E2           ADD      R2,R1,#+248
   \   000000C0   5C2080E5           STR      R2,[R0, #+92]
    174            lgp.LGP_VIEW              =df_LGP_VIEW;                      
   \   000000C4   402F81E2           ADD      R2,R1,#+256
   \   000000C8   602080E5           STR      R2,[R0, #+96]
    175            lgp.LGP_EDIT              =df_LGP_EDIT;                      
   \   000000CC   422F81E2           ADD      R2,R1,#+264
   \   000000D0   642080E5           STR      R2,[R0, #+100]
    176            lgp.LGP_REPLY             =df_LGP_REPLY;                     
   \   000000D4   442F81E2           ADD      R2,R1,#+272
   \   000000D8   682080E5           STR      R2,[R0, #+104]
    177            lgp.LGP_NEW_MSG           =df_LGP_NEW_MSG;                   
   \   000000DC   462F81E2           ADD      R2,R1,#+280
   \   000000E0   6C2080E5           STR      R2,[R0, #+108]
    178            lgp.LGP_FROM              =df_LGP_FROM;                      
   \   000000E4   4A2F81E2           ADD      R2,R1,#+296
   \   000000E8   702080E5           STR      R2,[R0, #+112]
    179            lgp.LGP_CODESHOW          =df_LGP_CODESHOW;                  
   \   000000EC   4C2F81E2           ADD      R2,R1,#+304
   \   000000F0   742080E5           STR      R2,[R0, #+116]
    180            lgp.LGP_FETION            =df_LGP_FETION;                    
   \   000000F4   4F2F81E2           ADD      R2,R1,#+316
   \   000000F8   782080E5           STR      R2,[R0, #+120]
    181            lgp.LGP_SAVEALL           =df_LGP_SAVEALL;                   
   \   000000FC   512F81E2           ADD      R2,R1,#+324
   \   00000100   7C2080E5           STR      R2,[R0, #+124]
    182            lgp.LGP_CONFIG_UPDATE     =df_LGP_CONFIG_UPDATE;             
   \   00000104   562F81E2           ADD      R2,R1,#+344
   \   00000108   802080E5           STR      R2,[R0, #+128]
    183            lgp.LGP_CONFIG            =df_LGP_CONFIG;                    
   \   0000010C   5C2F81E2           ADD      R2,R1,#+368
   \   00000110   842080E5           STR      R2,[R0, #+132]
    184            lgp.LGP_SAVE_ALL_ONE      =df_LGP_SAVE_ALL_ONE;              
   \   00000114   5F2F81E2           ADD      R2,R1,#+380
   \   00000118   882080E5           STR      R2,[R0, #+136]
    185            lgp.LGP_PLS_INPUT_PATH    =df_LGP_PLS_INPUT_PATH;            
   \   0000011C   652F81E2           ADD      R2,R1,#+404
   \   00000120   8C2080E5           STR      R2,[R0, #+140]
    186            lgp.LGP_OTHERS            =df_LGP_OTHERS;                    
   \   00000124   6C2F81E2           ADD      R2,R1,#+432
   \   00000128   902080E5           STR      R2,[R0, #+144]
    187            lgp.LGP_FILE_FAILED       =df_LGP_FILE_FAILED;               
   \   0000012C   6E2F81E2           ADD      R2,R1,#+440
   \   00000130   942080E5           STR      R2,[R0, #+148]
    188            lgp.LGP_FILE_EXIST        =df_LGP_FILE_EXIST;                
   \   00000134   742F81E2           ADD      R2,R1,#+464
   \   00000138   982080E5           STR      R2,[R0, #+152]
    189            lgp.LGP_EXPORT_TXT        =df_LGP_EXPORT_TXT;                
   \   0000013C   782F81E2           ADD      R2,R1,#+480
   \   00000140   9C2080E5           STR      R2,[R0, #+156]
    190            lgp.LGP_MOVE_ARCHIVE      =df_LGP_MOVE_ARCHIVE;              
   \   00000144   7C2F81E2           ADD      R2,R1,#+496
   \   00000148   A02080E5           STR      R2,[R0, #+160]
    191            lgp.LGP_MOVE_ALL_MSS      =df_LGP_MOVE_ALL_MSS;              
   \   0000014C   802F81E2           ADD      R2,R1,#+512
   \   00000150   A42080E5           STR      R2,[R0, #+164]
    192            lgp.LGP_OPEN_ARCHIVE      =df_LGP_OPEN_ARCHIVE;              
   \   00000154   862F81E2           ADD      R2,R1,#+536
   \   00000158   A82080E5           STR      R2,[R0, #+168]
    193            lgp.LGP_EXPORT_N          =df_LGP_EXPORT_N;                  
   \   0000015C   8A2F81E2           ADD      R2,R1,#+552
   \   00000160   AC2080E5           STR      R2,[R0, #+172]
    194            lgp.LGP_MOVE_MSSARCHIVER_N=df_LGP_MOVE_MSSARCHIVER_N;        
   \   00000164   912F81E2           ADD      R2,R1,#+580
   \   00000168   B02080E5           STR      R2,[R0, #+176]
    195            lgp.LGP_DEL_ALL_MSS       =df_LGP_DEL_ALL_MSS;               
   \   0000016C   9C2F81E2           ADD      R2,R1,#+624
   \   00000170   B42080E5           STR      R2,[R0, #+180]
    196            lgp.LGP_ABOUT             =df_LGP_ABOUT;                     
   \   00000174   A22F81E2           ADD      R2,R1,#+648
   \   00000178   B82080E5           STR      R2,[R0, #+184]
    197            lgp.LGP_COV_DAT_TXT       =df_LGP_COV_DAT_TXT;               
   \   0000017C   A52F81E2           ADD      R2,R1,#+660
   \   00000180   BC2080E5           STR      R2,[R0, #+188]
    198            lgp.LGP_SAVE_ALL_AS_FILE  =df_LGP_SAVE_ALL_AS_FILE;          
   \   00000184   AA2F81E2           ADD      R2,R1,#+680
   \   00000188   C02080E5           STR      R2,[R0, #+192]
    199            lgp.LGP_SAF_N             =df_LGP_SAF_N;                     
   \   0000018C   AF2F81E2           ADD      R2,R1,#+700
   \   00000190   C42080E5           STR      R2,[R0, #+196]
    200            lgp.LGP_DEL_ALL           =df_LGP_DEL_ALL;                   
   \   00000194   B62F81E2           ADD      R2,R1,#+728
   \   00000198   C82080E5           STR      R2,[R0, #+200]
    201            lgp.LGP_DEL_ALL_MSG       =df_LGP_DEL_ALL_MSG;               
   \   0000019C   B92F81E2           ADD      R2,R1,#+740
   \   000001A0   CC2080E5           STR      R2,[R0, #+204]
    202            lgp.LGP_MOVE_ALL          =df_LGP_MOVE_ALL;                  
   \   000001A4   BE2F81E2           ADD      R2,R1,#+760
   \   000001A8   D02080E5           STR      R2,[R0, #+208]
    203            lgp.LGP_DEL_ALL_MSG_MSS   =df_LGP_DEL_ALL_MSG_MSS;           
   \   000001AC   C32F81E2           ADD      R2,R1,#+780
   \   000001B0   D42080E5           STR      R2,[R0, #+212]
    204            lgp.LGP_SAVE              =df_LGP_SAVE;                      
   \   000001B4   C72F81E2           ADD      R2,R1,#+796
   \   000001B8   D82080E5           STR      R2,[R0, #+216]
    205            lgp.LGP_MSG_REPORT        =df_LGP_MSG_REPORT;                
   \   000001BC   C92F81E2           ADD      R2,R1,#+804
   \   000001C0   DC2080E5           STR      R2,[R0, #+220]
    206            lgp.LGP_MSG_REVEICED      =df_LGP_MSG_REVEICED; //后加时间   
   \   000001C4   CD2F81E2           ADD      R2,R1,#+820
   \   000001C8   E02080E5           STR      R2,[R0, #+224]
    207            lgp.LGP_UNK_RP_STATUS     =df_LGP_UNK_RP_STATUS;             
   \   000001CC   D22F81E2           ADD      R2,R1,#+840
   \   000001D0   E42080E5           STR      R2,[R0, #+228]
    208            lgp.LGP_TEMPLATE          =df_LGP_TEMPLATE;                  
   \   000001D4   D92F81E2           ADD      R2,R1,#+868
   \   000001D8   E82080E5           STR      R2,[R0, #+232]
    209            lgp.LGP_CALL_ADDRESSBOOK  =df_LGP_CALL_ADDRESSBOOK;          
   \   000001DC   DC2F81E2           ADD      R2,R1,#+880
   \   000001E0   EC2080E5           STR      R2,[R0, #+236]
    210            lgp.LGP_STATISTICS        =df_LGP_STATISTICS;                
   \   000001E4   E12F81E2           ADD      R2,R1,#+900
   \   000001E8   F02080E5           STR      R2,[R0, #+240]
    211            lgp.LGP_IN_SMSDAT         =df_LGP_IN_SMSDAT;                 
   \   000001EC   E42F81E2           ADD      R2,R1,#+912
   \   000001F0   F42080E5           STR      R2,[R0, #+244]
    212            lgp.LGP_IS_MSSFILE        =df_LGP_IS_MSSFILE;                
   \   000001F4   E72F81E2           ADD      R2,R1,#+924
   \   000001F8   F82080E5           STR      R2,[R0, #+248]
    213            lgp.LGP_DAT_FREE          =df_LGP_DAT_FREE;                  
   \   000001FC   EA2F81E2           ADD      R2,R1,#+936
   \   00000200   FC2080E5           STR      R2,[R0, #+252]
    214            lgp.LGP_DISK_FREE         =df_LGP_DISK_FREE;                 
   \   00000204   EC2F81E2           ADD      R2,R1,#+944
   \   00000208   002180E5           STR      R2,[R0, #+256]
    215            lgp.LGP_MSS_MAINMENU      =df_LGP_MSS_MAINMENU;
   \   0000020C   F02F81E2           ADD      R2,R1,#+960
   \   00000210   042180E5           STR      R2,[R0, #+260]
    216            lgp.LGP_TRANSLIT          =df_LGP_TRANSLIT;
   \   00000214   F42F81E2           ADD      R2,R1,#+976
   \   00000218   082180E5           STR      R2,[R0, #+264]
    217            lgp.LGP_TIME              =df_LGP_TIME;
   \   0000021C   F72F81E2           ADD      R2,R1,#+988
   \   00000220   0C2180E5           STR      R2,[R0, #+268]
    218            lgp.LGP_UNK_NUM           =df_LGP_UNK_NUM;
   \   00000224   F92F81E2           ADD      R2,R1,#+996
   \   00000228   102180E5           STR      R2,[R0, #+272]
    219            lgp.LGP_NUMBER            =df_LGP_NUMBER;
   \   0000022C   FD2F81E2           ADD      R2,R1,#+1012
   \   00000230   142180E5           STR      R2,[R0, #+276]
    220            lgp.LGP_TEXT              =df_LGP_TEXT;
   \   00000234   FF2F81E2           ADD      R2,R1,#+1020
   \   00000238   182180E5           STR      R2,[R0, #+280]
    221            lgp.LGP_TO                =df_LGP_TO;
   \   0000023C   032081E2           ADD      R2,R1,#+3
   \   00000240   1C2180E5           STR      R2,[R0, #+284]
    222            lgp.LGP_UNK               =df_LGP_UNK;
   \   00000244   0420A0E3           MOV      R2,#+4
   \   00000248   402E82E3           ORR      R2,R2,#0x400
   \   0000024C   012082E0           ADD      R2,R2,R1
   \   00000250   202180E5           STR      R2,[R0, #+288]
    223            lgp.LGP_FILTER            =df_LGP_FILTER;
   \   00000254   0C20A0E3           MOV      R2,#+12
   \   00000258   402E82E3           ORR      R2,R2,#0x400
   \   0000025C   011082E0           ADD      R1,R2,R1
   \   00000260   241180E5           STR      R1,[R0, #+292]
    224          }
   \   00000264   1EFF2FE1           BX       LR               ;; return
   \                     ??LoadLgpDefault_0:
   \   00000268   ........           DC32     df_LGP_OK
    225          
    226          

   \                                 In segment CODE, align 4, keep-with-next
    227          void InitLgp(void)
    228          {
    229            //popupGui.c
    230          extern SOFTKEY_DESC popup_sk[];
    231          extern SOFTKEY_DESC msg_popup_sk[];
    232            popup_sk[0].lgp_id=(int)lgp.LGP_VIEW;
   \                     InitLgp:
   \   00000000   ........           LDR      R0,??DataTable2  ;; lgp
   \   00000004   C8219FE5           LDR      R2,??InitLgp_0   ;; popup_sk
    233            popup_sk[1].lgp_id=(int)lgp.LGP_BACK;
    234            msg_popup_sk[0].lgp_id=(int)lgp.LGP_OK;
   \   00000008   C8319FE5           LDR      R3,??InitLgp_0+0x4  ;; msg_popup_sk + 4
   \   0000000C   F04F2DE9           PUSH     {R4-R11,LR}
   \   00000010   601090E5           LDR      R1,[R0, #+96]
    235            //edGui.c
    236          extern SOFTKEY_DESC ed_menu_sk[];
    237          extern int items_lgp_nml_file[];
    238          extern int items_lgp_nml_dat[];
    239          extern int items_lgp_archive_file[];
    240          extern SOFTKEY_DESC SK_OPTIONS;
    241          extern SOFTKEY_DESC SK_ADRBK;
    242          extern SOFTKEY_DESC SK_CANCEL;
    243            ed_menu_sk[0].lgp_id=(int)lgp.LGP_SELECT;
   \   00000014   10A090E5           LDR      R10,[R0, #+16]
    244            ed_menu_sk[1].lgp_id=(int)lgp.LGP_BACK;
    245            
    246            items_lgp_nml_file[0]=(int)lgp.LGP_REPLY;
   \   00000018   BC819FE5           LDR      R8,??InitLgp_0+0x8  ;; items_lgp_nml_file
    247            items_lgp_nml_file[1]=(int)lgp.LGP_EDIT;
   \   0000001C   64C090E5           LDR      R12,[R0, #+100]
    248            items_lgp_nml_file[2]=(int)lgp.LGP_DEL;
   \   00000020   484090E5           LDR      R4,[R0, #+72]
    249            items_lgp_nml_file[4]=(int)lgp.LGP_EXPORT_TXT;
   \   00000024   9C5090E5           LDR      R5,[R0, #+156]
    250            items_lgp_nml_file[5]=(int)lgp.LGP_MOVE_ARCHIVE;
   \   00000028   A06090E5           LDR      R6,[R0, #+160]
    251            items_lgp_nml_file[6]=(int)lgp.LGP_EXIT;
   \   0000002C   3C7090E5           LDR      R7,[R0, #+60]
    252            
    253            items_lgp_nml_dat[0]=(int)lgp.LGP_REPLY;
   \   00000030   A8919FE5           LDR      R9,??InitLgp_0+0xC  ;; items_lgp_nml_dat
    254            items_lgp_nml_dat[1]=(int)lgp.LGP_EDIT;
    255            items_lgp_nml_dat[2]=(int)lgp.LGP_DEL;
    256            items_lgp_nml_dat[4]=(int)lgp.LGP_SAVE_AS_FILE;
    257            items_lgp_nml_dat[5]=(int)lgp.LGP_EXPORT_TXT;
    258            items_lgp_nml_dat[6]=(int)lgp.LGP_MOVE_ARCHIVE;
    259            items_lgp_nml_dat[7]=(int)lgp.LGP_EXIT;
    260            
    261            items_lgp_archive_file[0]=(int)lgp.LGP_REPLY;
    262            items_lgp_archive_file[1]=(int)lgp.LGP_EDIT;
    263            items_lgp_archive_file[2]=(int)lgp.LGP_DEL;
    264            items_lgp_archive_file[4]=(int)lgp.LGP_EXPORT_TXT;
    265            items_lgp_archive_file[5]=(int)lgp.LGP_EXIT;
    266            
    267            SK_OPTIONS.lgp_id=(int)lgp.LGP_OPTIONS;
   \   00000034   A8B19FE5           LDR      R11,??InitLgp_0+0x10  ;; SK_OPTIONS + 4
    268            SK_ADRBK.lgp_id=(int)lgp.LGP_ADRBK;
   \   00000038   08E090E5           LDR      LR,[R0, #+8]
   \   0000003C   041082E5           STR      R1,[R2, #+4]
   \   00000040   041090E5           LDR      R1,[R0, #+4]
   \   00000044   04C088E5           STR      R12,[R8, #+4]
   \   00000048   0C1082E5           STR      R1,[R2, #+12]
   \   0000004C   002090E5           LDR      R2,[R0, #+0]
   \   00000050   084088E5           STR      R4,[R8, #+8]
   \   00000054   002083E5           STR      R2,[R3, #+0]
   \   00000058   88319FE5           LDR      R3,??InitLgp_0+0x14  ;; ed_menu_sk
   \   0000005C   04A083E5           STR      R10,[R3, #+4]
   \   00000060   0C1083E5           STR      R1,[R3, #+12]
   \   00000064   683090E5           LDR      R3,[R0, #+104]
   \   00000068   105088E5           STR      R5,[R8, #+16]
   \   0000006C   003088E5           STR      R3,[R8, #+0]
   \   00000070   146088E5           STR      R6,[R8, #+20]
   \   00000074   187088E5           STR      R7,[R8, #+24]
   \   00000078   4C8090E5           LDR      R8,[R0, #+76]
   \   0000007C   003089E5           STR      R3,[R9, #+0]
   \   00000080   04C089E5           STR      R12,[R9, #+4]
   \   00000084   084089E5           STR      R4,[R9, #+8]
   \   00000088   108089E5           STR      R8,[R9, #+16]
   \   0000008C   145089E5           STR      R5,[R9, #+20]
   \   00000090   186089E5           STR      R6,[R9, #+24]
   \   00000094   1C7089E5           STR      R7,[R9, #+28]
   \   00000098   4C919FE5           LDR      R9,??InitLgp_0+0x18  ;; items_lgp_archive_file
   \   0000009C   003089E5           STR      R3,[R9, #+0]
   \   000000A0   04C089E5           STR      R12,[R9, #+4]
   \   000000A4   084089E5           STR      R4,[R9, #+8]
   \   000000A8   105089E5           STR      R5,[R9, #+16]
   \   000000AC   147089E5           STR      R7,[R9, #+20]
   \   000000B0   349090E5           LDR      R9,[R0, #+52]
   \   000000B4   00908BE5           STR      R9,[R11, #+0]
   \   000000B8   30B19FE5           LDR      R11,??InitLgp_0+0x1C  ;; SK_ADRBK + 4
   \   000000BC   00E08BE5           STR      LR,[R11, #+0]
    269            SK_CANCEL.lgp_id=(int)lgp.LGP_CANCEL;
   \   000000C0   2CB19FE5           LDR      R11,??InitLgp_0+0x20  ;; SK_CANCEL + 4
   \   000000C4   40E090E5           LDR      LR,[R0, #+64]
   \   000000C8   00E08BE5           STR      LR,[R11, #+0]
    270            
    271            //main.c
    272          extern SOFTKEY_DESC main_menu_sk[];
    273          extern HEADER_DESC main_menuhdr;
    274          extern int MENU_TEXT[];
    275          extern MENUITEM_DESC oth_menuitems[];
    276          extern HEADER_DESC oth_menuhdr;
    277            main_menu_sk[0].lgp_id=(int)lgp.LGP_SELECT;
   \   000000CC   24B19FE5           LDR      R11,??InitLgp_0+0x24  ;; main_menu_sk
    278            main_menu_sk[1].lgp_id=(int)lgp.LGP_QUIT;
    279            
    280            main_menuhdr.lgp_id=(int)lgp.LGP_MSS_MAINMENU;
    281            
    282            MENU_TEXT[0]=(int)lgp.LGP_NEW;
    283            MENU_TEXT[1]=(int)lgp.LGP_IN_N;
    284            MENU_TEXT[2]=(int)lgp.LGP_IN_A;
    285            MENU_TEXT[3]=(int)lgp.LGP_OUT;
    286            MENU_TEXT[4]=(int)lgp.LGP_DRAFT;
    287            //MENU_TEXT[5]=(int)lgp.LGP_ALL;
    288            //MENU_TEXT[6]=(int)lgp.LGP_OTHERS;
    289            MENU_TEXT[5]=(int)lgp.LGP_OTHERS;
    290            
    291            oth_menuitems[0].lgp_id_small=(int)lgp.LGP_CONFIG;
   \   000000D0   84E090E5           LDR      LR,[R0, #+132]
   \   000000D4   04A08BE5           STR      R10,[R11, #+4]
   \   000000D8   14A090E5           LDR      R10,[R0, #+20]
   \   000000DC   0CA08BE5           STR      R10,[R11, #+12]
   \   000000E0   14A19FE5           LDR      R10,??InitLgp_0+0x28  ;; main_menuhdr + 12
   \   000000E4   04B190E5           LDR      R11,[R0, #+260]
   \   000000E8   00B08AE5           STR      R11,[R10, #+0]
   \   000000EC   0CA19FE5           LDR      R10,??InitLgp_0+0x2C  ;; MENU_TEXT
   \   000000F0   18B090E5           LDR      R11,[R0, #+24]
   \   000000F4   00B08AE5           STR      R11,[R10, #+0]
   \   000000F8   20B090E5           LDR      R11,[R0, #+32]
   \   000000FC   04B08AE5           STR      R11,[R10, #+4]
   \   00000100   24B090E5           LDR      R11,[R0, #+36]
   \   00000104   08B08AE5           STR      R11,[R10, #+8]
   \   00000108   28B090E5           LDR      R11,[R0, #+40]
   \   0000010C   0CB08AE5           STR      R11,[R10, #+12]
   \   00000110   2CB090E5           LDR      R11,[R0, #+44]
   \   00000114   10B08AE5           STR      R11,[R10, #+16]
   \   00000118   90B090E5           LDR      R11,[R0, #+144]
   \   0000011C   14B08AE5           STR      R11,[R10, #+20]
   \   00000120   DCA09FE5           LDR      R10,??InitLgp_0+0x30  ;; oth_menuitems
   \   00000124   04E08AE5           STR      LR,[R10, #+4]
    292            oth_menuitems[1].lgp_id_small=(int)lgp.LGP_OPEN_ARCHIVE;
   \   00000128   A8E090E5           LDR      LR,[R0, #+168]
   \   0000012C   20E08AE5           STR      LR,[R10, #+32]
    293            oth_menuitems[2].lgp_id_small=(int)lgp.LGP_SAVE_ALL_ONE;
   \   00000130   88E090E5           LDR      LR,[R0, #+136]
   \   00000134   3CE08AE5           STR      LR,[R10, #+60]
    294            oth_menuitems[3].lgp_id_small=(int)lgp.LGP_MOVE_ALL_MSS;
   \   00000138   A4E090E5           LDR      LR,[R0, #+164]
   \   0000013C   58E08AE5           STR      LR,[R10, #+88]
    295            oth_menuitems[4].lgp_id_small=(int)lgp.LGP_COV_DAT_TXT;
   \   00000140   BCE090E5           LDR      LR,[R0, #+188]
   \   00000144   74E08AE5           STR      LR,[R10, #+116]
    296            oth_menuitems[5].lgp_id_small=(int)lgp.LGP_DEL_ALL_MSG_MSS;
   \   00000148   D4E090E5           LDR      LR,[R0, #+212]
   \   0000014C   90E08AE5           STR      LR,[R10, #+144]
    297            oth_menuitems[6].lgp_id_small=(int)lgp.LGP_STATISTICS;
   \   00000150   F0E090E5           LDR      LR,[R0, #+240]
   \   00000154   ACE08AE5           STR      LR,[R10, #+172]
    298            oth_menuitems[7].lgp_id_small=(int)lgp.LGP_ABOUT;
   \   00000158   B8E090E5           LDR      LR,[R0, #+184]
    299            oth_menuhdr.lgp_id=(int)lgp.LGP_OTHERS;
    300            //smsList.c
    301          extern int slop_lgp_dat[];
    302          extern int slop_lgp_file[];
    303          extern SOFTKEY_DESC sms_menu_sk[];
    304          extern SOFTKEY_DESC SK_OK2;
    305            slop_lgp_dat[0]=(int)lgp.LGP_REPLY;
    306            slop_lgp_dat[1]=(int)lgp.LGP_EDIT;
    307            slop_lgp_dat[2]=(int)lgp.LGP_DEL;
    308            slop_lgp_dat[3]=(int)lgp.LGP_SAVE_AS_FILE;
    309            slop_lgp_dat[4]=(int)lgp.LGP_EXPORT_TXT;
    310            slop_lgp_dat[5]=(int)lgp.LGP_MOVE_ARCHIVE;
    311            slop_lgp_dat[6]=(int)lgp.LGP_EXIT;
    312            
    313            slop_lgp_file[0]=(int)lgp.LGP_REPLY;
    314            slop_lgp_file[1]=(int)lgp.LGP_EDIT;
    315            slop_lgp_file[2]=(int)lgp.LGP_DEL;
    316            slop_lgp_file[3]=(int)lgp.LGP_EXPORT_TXT;
    317            slop_lgp_file[4]=(int)lgp.LGP_MOVE_ARCHIVE;
    318            slop_lgp_file[5]=(int)lgp.LGP_EXIT;
    319            
    320            sms_menu_sk[0].lgp_id=(int)lgp.LGP_OPTIONS;
    321            sms_menu_sk[1].lgp_id=(int)lgp.LGP_EXIT;
    322            SK_OK2.lgp_id=(int)lgp.LGP_OK;
    323            
    324            //template.c
    325          extern SOFTKEY_DESC tplmenu_sk[];
    326          extern HEADER_DESC tplmenuhdr;
    327            tplmenu_sk[0].lgp_id=(int)lgp.LGP_OK;
    328            tplmenu_sk[1].lgp_id=(int)lgp.LGP_BACK;
    329            tplmenuhdr.lgp_id=(int)lgp.LGP_TEMPLATE;
   \   0000015C   E80090E5           LDR      R0,[R0, #+232]
   \   00000160   C8E08AE5           STR      LR,[R10, #+200]
   \   00000164   9CA09FE5           LDR      R10,??InitLgp_0+0x34  ;; oth_menuhdr + 12
   \   00000168   00B08AE5           STR      R11,[R10, #+0]
   \   0000016C   98A09FE5           LDR      R10,??InitLgp_0+0x38  ;; slop_lgp_dat
   \   00000170   00308AE5           STR      R3,[R10, #+0]
   \   00000174   0C808AE5           STR      R8,[R10, #+12]
   \   00000178   90809FE5           LDR      R8,??InitLgp_0+0x3C  ;; slop_lgp_file
   \   0000017C   04C08AE5           STR      R12,[R10, #+4]
   \   00000180   003088E5           STR      R3,[R8, #+0]
   \   00000184   88309FE5           LDR      R3,??InitLgp_0+0x40  ;; sms_menu_sk
   \   00000188   049083E5           STR      R9,[R3, #+4]
   \   0000018C   0C7083E5           STR      R7,[R3, #+12]
   \   00000190   80309FE5           LDR      R3,??InitLgp_0+0x44  ;; SK_OK2 + 4
   \   00000194   08408AE5           STR      R4,[R10, #+8]
   \   00000198   002083E5           STR      R2,[R3, #+0]
   \   0000019C   78309FE5           LDR      R3,??InitLgp_0+0x48  ;; tplmenu_sk
   \   000001A0   10508AE5           STR      R5,[R10, #+16]
   \   000001A4   0C1083E5           STR      R1,[R3, #+12]
   \   000001A8   70109FE5           LDR      R1,??InitLgp_0+0x4C  ;; tplmenuhdr + 12
   \   000001AC   14608AE5           STR      R6,[R10, #+20]
   \   000001B0   18708AE5           STR      R7,[R10, #+24]
   \   000001B4   04C088E5           STR      R12,[R8, #+4]
   \   000001B8   084088E5           STR      R4,[R8, #+8]
   \   000001BC   0C5088E5           STR      R5,[R8, #+12]
   \   000001C0   106088E5           STR      R6,[R8, #+16]
   \   000001C4   147088E5           STR      R7,[R8, #+20]
   \   000001C8   042083E5           STR      R2,[R3, #+4]
   \   000001CC   000081E5           STR      R0,[R1, #+0]
    330          #ifdef MEGADIAL
    331            extern SOFTKEY_DESC menu_sk[];
    332            menu_sk[0].lgp_id=(int)lgp.LGP_SELECT;
    333            menu_sk[1].lgp_id=(int)lgp.LGP_BACK;
    334          #endif
    335          }
   \   000001D0   F08FBDE8           POP      {R4-R11,PC}      ;; return
   \                     ??InitLgp_0:
   \   000001D4   ........           DC32     popup_sk
   \   000001D8   ........           DC32     msg_popup_sk + 4
   \   000001DC   ........           DC32     items_lgp_nml_file
   \   000001E0   ........           DC32     items_lgp_nml_dat
   \   000001E4   ........           DC32     SK_OPTIONS + 4
   \   000001E8   ........           DC32     ed_menu_sk
   \   000001EC   ........           DC32     items_lgp_archive_file
   \   000001F0   ........           DC32     SK_ADRBK + 4
   \   000001F4   ........           DC32     SK_CANCEL + 4
   \   000001F8   ........           DC32     main_menu_sk
   \   000001FC   ........           DC32     main_menuhdr + 12
   \   00000200   ........           DC32     MENU_TEXT
   \   00000204   ........           DC32     oth_menuitems
   \   00000208   ........           DC32     oth_menuhdr + 12
   \   0000020C   ........           DC32     slop_lgp_dat
   \   00000210   ........           DC32     slop_lgp_file
   \   00000214   ........           DC32     sms_menu_sk
   \   00000218   ........           DC32     SK_OK2 + 4
   \   0000021C   ........           DC32     tplmenu_sk
   \   00000220   ........           DC32     tplmenuhdr + 12

   \                                 In segment CODE, align 4, keep-with-next
    336          char *GotoLineStart(char *buf)    
    337          {                                 
    338            int c;                          
    339            char *p=buf;                    
   \                     GotoLineStart:
   \   00000000   000000EA           B        ??GotoLineStart_0
    340            while((c=*p))                   
    341            {                               
    342              if(c>=0x1F)                   
    343                return p;                   
    344              p++;
   \                     ??GotoLineStart_1:
   \   00000004   010080E2           ADD      R0,R0,#+1
   \                     ??GotoLineStart_0:
   \   00000008   0010D0E5           LDRB     R1,[R0, #+0]
   \   0000000C   000051E3           CMP      R1,#+0
   \   00000010   0200000A           BEQ      ??GotoLineStart_2
   \   00000014   1F0051E3           CMP      R1,#+31
   \   00000018   F9FFFFBA           BLT      ??GotoLineStart_1
   \   0000001C   1EFF2FE1           BX       LR
    345            }
    346            return 0;
   \                     ??GotoLineStart_2:
   \   00000020   0000A0E3           MOV      R0,#+0
   \   00000024   1EFF2FE1           BX       LR               ;; return
    347          }
    348          

   \                                 In segment CODE, align 4, keep-with-next
    349          char *GotoLineEnd(char *buf)
    350          {
    351            int c;
    352            char *p=buf;
   \                     GotoLineEnd:
   \   00000000   000000EA           B        ??GotoLineEnd_0
    353            while((c=*p))
    354            {
    355              if(c=='\r' || c=='\n')
    356                return p;
    357              p++;
   \                     ??GotoLineEnd_1:
   \   00000004   010080E2           ADD      R0,R0,#+1
   \                     ??GotoLineEnd_0:
   \   00000008   0010D0E5           LDRB     R1,[R0, #+0]
   \   0000000C   000051E3           CMP      R1,#+0
   \   00000010   0400000A           BEQ      ??GotoLineEnd_2
   \   00000014   0D0051E3           CMP      R1,#+13
   \   00000018   1EFF2F01           BXEQ     LR
   \   0000001C   0A0051E3           CMP      R1,#+10
   \   00000020   F7FFFF1A           BNE      ??GotoLineEnd_1
   \   00000024   1EFF2FE1           BX       LR
    358            }
    359            return 0;
   \                     ??GotoLineEnd_2:
   \   00000028   0000A0E3           MOV      R0,#+0
   \   0000002C   1EFF2FE1           BX       LR               ;; return
    360          }

   \                                 In segment CODE, align 4, keep-with-next
    361          void FreeLangPack(void)
    362          {
   \                     FreeLangPack:
   \   00000000   10402DE9           PUSH     {R4,LR}
    363            LoadLgpDefault();
    364            if(lang_buf)
   \   00000004   1C409FE5           LDR      R4,??FreeLangPack_0  ;; lgp
   \   00000008   ........           BL       LoadLgpDefault
   \   0000000C   280194E5           LDR      R0,[R4, #+296]
   \   00000010   000050E3           CMP      R0,#+0
   \   00000014   1080BD08           POPEQ    {R4,PC}
    365            {
    366              mfree(lang_buf);
   \   00000018   150000EF           SWI      +21
    367              lang_buf=0;
   \   0000001C   0000A0E3           MOV      R0,#+0
   \   00000020   280184E5           STR      R0,[R4, #+296]
    368            }
    369          }
   \   00000024   1080BDE8           POP      {R4,PC}          ;; return
   \                     ??FreeLangPack_0:
   \   00000028   ........           DC32     lgp
    370          

   \                                 In segment CODE, align 4, keep-with-next
    371          void LoadLangFile(void)
    372          {
    373            char fpath[128], *p, **lp, *pp;
    374            int len, c, fin, size, mn, i;
    375            unsigned int err;
    376            strcpy(fpath, CFG_MAIN_FOLDER);
   \                     LoadLangFile:
   \   00000000   58119FE5           LDR      R1,??LoadLangFile_0  ;; CFG_MAIN_FOLDER
   \   00000004   F0402DE9           PUSH     {R4-R7,LR}
   \   00000008   84D04DE2           SUB      SP,SP,#+132
   \   0000000C   04008DE2           ADD      R0,SP,#+4
    377            len=strlen(fpath);
    378            c=fpath[len-1];
    379            if(c!='\\' && c!='/')
   \   00000010   0040A0E3           MOV      R4,#+0
   \   00000014   1A0000EF           SWI      +26
   \   00000018   04008DE2           ADD      R0,SP,#+4
   \   0000001C   1B0000EF           SWI      +27
   \   00000020   04108DE2           ADD      R1,SP,#+4
   \   00000024   010080E0           ADD      R0,R0,R1
   \   00000028   011050E5           LDRB     R1,[R0, #-1]
   \   0000002C   5C0051E3           CMP      R1,#+92
   \   00000030   2F005113           CMPNE    R1,#+47
    380            {
    381              fpath[len]='\\';
   \   00000034   5C10A013           MOVNE    R1,#+92
   \   00000038   0010C015           STRBNE   R1,[R0, #+0]
    382              fpath[len+1]=0;
   \   0000003C   0140C015           STRBNE   R4,[R0, #+1]
    383            }
    384            if(!isdir(fpath, &err))
   \   00000040   0D10A0E1           MOV      R1,SP
   \   00000044   04008DE2           ADD      R0,SP,#+4
   \   00000048   910000EF           SWI      +145
   \   0000004C   000050E3           CMP      R0,#+0
   \   00000050   4000000A           BEQ      ??LoadLangFile_1
    385              return;
    386            strcat(fpath, "lang.txt");
   \   00000054   08119FE5           LDR      R1,??LoadLangFile_0+0x4  ;; `?<Constant "lang.txt">`
   \   00000058   04008DE2           ADD      R0,SP,#+4
   \   0000005C   170000EF           SWI      +23
    387            if((fin=fopen(fpath, A_BIN+A_ReadOnly, P_READ, &err))==-1)
   \   00000060   0D30A0E1           MOV      R3,SP
   \   00000064   8020A0E3           MOV      R2,#+128
   \   00000068   801CA0E3           MOV      R1,#+32768
   \   0000006C   04008DE2           ADD      R0,SP,#+4
   \   00000070   0A0000EF           SWI      +10
   \   00000074   0060A0E1           MOV      R6,R0
   \   00000078   010076E3           CMN      R6,#+1
   \   0000007C   3500000A           BEQ      ??LoadLangFile_1
    388              return;
    389            FreeLangPack();
   \   00000080   ........           BL       FreeLangPack
    390            size=lseek(fin, 0, S_END, &err, &err);
   \   00000084   0D00A0E1           MOV      R0,SP
   \   00000088   01002DE9           PUSH     {R0}
   \   0000008C   04308DE2           ADD      R3,SP,#+4
   \   00000090   0220A0E3           MOV      R2,#+2
   \   00000094   0010A0E3           MOV      R1,#+0
   \   00000098   0600A0E1           MOV      R0,R6
   \   0000009C   0F0000EF           SWI      +15
   \   000000A0   0070B0E1           MOVS     R7,R0
    391            if(!size)
   \   000000A4   04D08DE2           ADD      SP,SP,#+4
   \   000000A8   0400001A           BNE      ??LoadLangFile_2
    392            {
    393              fclose(fin, &err);
   \                     ??LoadLangFile_3:
   \   000000AC   0D10A0E1           MOV      R1,SP
   \   000000B0   0600A0E1           MOV      R0,R6
   \   000000B4   0D0000EF           SWI      +13
    394              return;
   \   000000B8   84D08DE2           ADD      SP,SP,#+132
   \   000000BC   F080BDE8           POP      {R4-R7,PC}
    395            }
    396            lang_buf=malloc((size+3)&(~3));
   \                     ??LoadLangFile_2:
   \   000000C0   ........           LDR      R5,??DataTable2  ;; lgp
   \   000000C4   030087E2           ADD      R0,R7,#+3
   \   000000C8   0300C0E3           BIC      R0,R0,#0x3
   \   000000CC   140000EF           SWI      +20
   \   000000D0   280185E5           STR      R0,[R5, #+296]
    397            lseek(fin, 0, S_SET, &err, &err);
   \   000000D4   0D00A0E1           MOV      R0,SP
   \   000000D8   01002DE9           PUSH     {R0}
   \   000000DC   04308DE2           ADD      R3,SP,#+4
   \   000000E0   0020A0E3           MOV      R2,#+0
   \   000000E4   0210A0E1           MOV      R1,R2
   \   000000E8   0600A0E1           MOV      R0,R6
   \   000000EC   0F0000EF           SWI      +15
    398            if(fread(fin, lang_buf, size, &err)!=size)
   \   000000F0   281195E5           LDR      R1,[R5, #+296]
   \   000000F4   04308DE2           ADD      R3,SP,#+4
   \   000000F8   0720A0E1           MOV      R2,R7
   \   000000FC   0600A0E1           MOV      R0,R6
   \   00000100   0B0000EF           SWI      +11
   \   00000104   070050E1           CMP      R0,R7
   \   00000108   04D08DE2           ADD      SP,SP,#+4
   \   0000010C   E6FFFF1A           BNE      ??LoadLangFile_3
    399            {
    400              fclose(fin, &err);
    401              return;
    402            }
    403            fclose(fin, &err);
   \   00000110   0D10A0E1           MOV      R1,SP
   \   00000114   0600A0E1           MOV      R0,R6
   \   00000118   0D0000EF           SWI      +13
    404            lang_buf[size]=0;
   \   0000011C   280195E5           LDR      R0,[R5, #+296]
    405            p=lang_buf;
    406            lp=(char **)(&lgp);
    407            mn=sizeof(LGPACK)/sizeof(char *);
    408            for(i=0;i<mn;i++)
   \   00000120   0060A0E3           MOV      R6,#+0
   \   00000124   0040C7E7           STRB     R4,[R7, +R0]
   \   00000128   280195E5           LDR      R0,[R5, #+296]
    409            {
    410              if(!(pp=GotoLineStart(p)))
   \                     ??LoadLangFile_4:
   \   0000012C   ........           BL       GotoLineStart
   \   00000130   000050E3           CMP      R0,#+0
   \   00000134   0700000A           BEQ      ??LoadLangFile_1
    411                break;
    412              lp[i]=pp;
   \   00000138   060185E7           STR      R0,[R5, +R6, LSL #+2]
    413              if(!(pp=GotoLineEnd(pp)))
   \   0000013C   ........           BL       GotoLineEnd
   \   00000140   000050E3           CMP      R0,#+0
   \   00000144   0300000A           BEQ      ??LoadLangFile_1
    414                break;
    415              *pp=0;
   \   00000148   ........           STRB     R4,[R0], #+1
    416              p=pp+1;
    417            }
   \   0000014C   016086E2           ADD      R6,R6,#+1
   \   00000150   4A0056E3           CMP      R6,#+74
   \   00000154   F4FFFFBA           BLT      ??LoadLangFile_4
   \                     ??LoadLangFile_1:
   \   00000158   84D08DE2           ADD      SP,SP,#+132      ;; stack cleaning
   \   0000015C   F080BDE8           POP      {R4-R7,PC}       ;; return
   \                     ??LoadLangFile_0:
   \   00000160   ........           DC32     CFG_MAIN_FOLDER
   \   00000164   ........           DC32     `?<Constant "lang.txt">`
    418          }
    419          

   \                                 In segment CODE, align 4, keep-with-next
    420          void LoadLangPack(void)
    421          {
   \                     LoadLangPack:
   \   00000000   00402DE9           PUSH     {LR}
    422            LoadLgpDefault();
   \   00000004   ........           BL       LoadLgpDefault
    423            LoadLangFile();
   \   00000008   ........           BL       LoadLangFile
    424            InitLgp();
   \   0000000C   0040BDE8           POP      {LR}             ;; Pop
   \   00000010   ........           B        InitLgp          ;; tailcall
    425          }

   \                                 In segment CODE, align 4, keep-with-next
   \                     ??DataTable2:
   \   00000000   ........           DC32     lgp

   \                                 In segment DATA_C, align 4, align-sorted
   \                     `?<Constant "lang.txt">`:
   \   00000000   6C616E672E74       DC8 "lang.txt"
   \              787400      
   \   00000009   000000             DC8 0, 0, 0
    426          

   Maximum stack usage in bytes:

     Function       CSTACK
     --------       ------
     FreeLangPack       8
     GotoLineEnd        0
     GotoLineStart      0
     InitLgp           84
     LoadLangFile     156
     LoadLangPack       4
     LoadLgpDefault     0


   Segment part sizes:

     Function/Label         Bytes
     --------------         -----
     my_ipc_name               8
     ELFNAME                   8
     ELFNAME_D                 8
     COPY_RIGHT               60
     PERCENT_T                 3
     PERCENT_S                 3
     num_fetion                8
     STR_UNK_ED               24
     STR_LINES                20
     STR_UNK_TXTT             32
     STR_UNK_TYPE             20
     FLDR_IN                   4
     FLDR_OUT                  8
     FLDR_DRAFT                8
     FLDR_UNK                  8
     FLDR_ARCHIVE             12
     STR_UNK_NUM_UTF8         16
     STR_NUMBER_UTF8           8
     STR_TEXT_UTF8             8
     STR_TO_UTF8               3
     STR_FROM_UTF8             8
     STR_TIME_UTF8             8
     STR_UNK_UTF8              8
     df_LGP_OK              1044
     lgp                     300
     LoadLgpDefault          620
     InitLgp                 548
     GotoLineStart            40
     GotoLineEnd              48
     FreeLangPack             44
     LoadLangFile            360
     LoadLangPack             20
     ??DataTable2              4
     ?<Constant "lang.txt">   12
      Others                  40

 
 1 712 bytes in segment CODE
 1 349 bytes in segment DATA_C
   300 bytes in segment DATA_Z
    12 bytes in segment INITTAB
 
 1 684 bytes of CODE  memory (+ 40 bytes shared)
 1 349 bytes of CONST memory
   300 bytes of DATA  memory

Errors: none
Warnings: none
