//////////////////////////////////////////////////////////////////////////////
//                                                                           /
// IAR ARM ANSI C/C++ Compiler V4.42A/W32 EVALUATION   09/Dec/2010  18:20:54 /
// Copyright 1999-2005 IAR Systems. All rights reserved.                     /
//                                                                           /
//    Cpu mode        =  interwork                                           /
//    Endian          =  little                                              /
//    Stack alignment =  4                                                   /
//    Source file     =  C:\arm\vNes_sound\Nes.c                             /
//    Command line    =  C:\arm\vNes_sound\Nes.c -D NDEBUG -D NEWSGOLD -D    /
//                       ELKA -lCN C:\arm\vNes_sound\release_ELKA\List\ -lA  /
//                       C:\arm\vNes_sound\release_ELKA\List\ -o             /
//                       C:\arm\vNes_sound\release_ELKA\Obj\ -s9 --cpu_mode  /
//                       arm --endian little --cpu ARM926EJ-S --stack_align  /
//                       4 --interwork -e --fpu None --dlib_config           /
//                       "C:\arm2\Embedded Workbench 4.0                     /
//                       Evaluation\ARM\LIB\dl5tpainl8f.h" -I                /
//                       "C:\arm2\Embedded Workbench 4.0                     /
//                       Evaluation\ARM\INC\" --inline_threshold=2           /
//    List file       =  C:\arm\vNes_sound\release_ELKA\List\Nes.s79         /
//                                                                           /
//                                                                           /
//////////////////////////////////////////////////////////////////////////////

        NAME Nes

        RTMODEL "StackAlign4", "USED"
        RTMODEL "__cpu_mode", "__pcs__interwork"
        RTMODEL "__data_model", "absolute"
        RTMODEL "__endian", "little"
        RTMODEL "__rt_version", "6"

        RSEG CSTACK:DATA:NOROOT(2)

        EXTERN ??div32_a

        PUBWEAK `?*?DATA_ID`
        MULTWEAK ??APUWrite??rA
        MULTWEAK ??AudioTerminate??rA
??DataTable1 EQU 0
??DataTable10 EQU 0
??DataTable11 EQU 0
??DataTable12 EQU 0
??DataTable13 EQU 0
??DataTable14 EQU 0
??DataTable15 EQU 0
??DataTable16 EQU 0
??DataTable17 EQU 0
??DataTable19 EQU 0
??DataTable2 EQU 0
??DataTable20 EQU 0
??DataTable22 EQU 0
??DataTable23 EQU 0
??DataTable25 EQU 0
??DataTable26 EQU 0
??DataTable27 EQU 0
??DataTable28 EQU 0
??DataTable29 EQU 0
??DataTable3 EQU 0
??DataTable30 EQU 0
??DataTable31 EQU 0
??DataTable32 EQU 0
??DataTable34 EQU 0
??DataTable35 EQU 0
??DataTable36 EQU 0
??DataTable37 EQU 0
??DataTable38 EQU 0
??DataTable39 EQU 0
??DataTable40 EQU 0
??DataTable41 EQU 0
??DataTable43 EQU 0
??DataTable44 EQU 0
??DataTable45 EQU 0
??DataTable47 EQU 0
??DataTable5 EQU 0
??DataTable52 EQU 0
??DataTable53 EQU 0
??DataTable54 EQU 0
??DataTable55 EQU 0
??DataTable56 EQU 0
??DataTable57 EQU 0
??DataTable58 EQU 0
??DataTable6 EQU 0
??DataTable61 EQU 0
??DataTable62 EQU 0
??DataTable63 EQU 0
??DataTable65 EQU 0
??DataTable67 EQU 0
??DataTable8 EQU 0
??DataTable9 EQU 0
        MULTWEAK ??SysTimer??rT
        MULTWEAK ??Systemarraycopy??rT
        MULTWEAK ??SystemcurrentTimeMillis??rT
        MULTWEAK ??Systemgc??rT
        MULTWEAK ??aint1int??rT
        MULTWEAK ??avoid1int??rT
        MULTWEAK ??bytearrayinputstreamread??rT
        MULTWEAK ??bytearrayoutputstreamwrite??rT
        MULTWEAK ??c0??rT
        MULTWEAK ??closestream??rT
        MULTWEAK ??flush??rT
        MULTWEAK ??freeall??rT
        MULTWEAK ??h??rT
        MULTWEAK ??i??rT
        MULTWEAK ??initnul??rT
        MULTWEAK ??keyPressed??rT
        MULTWEAK ??keyReleased??rT
        MULTWEAK ??loadROM??rT
        MULTWEAK ??loadfile??rA
        MULTWEAK ??loadrom??rT
        MULTWEAK ??openstream??rT
        MULTWEAK ??rA??div32_a
        MULTWEAK ??repaint??rA
        MULTWEAK ??run??rT
        MULTWEAK ??serviceRepaints??rT
        PUBWEAK ?init?tab?DATA_I
        PUBWEAK ?init?tab?DATA_Z
        PUBLIC A
        PUBLIC `B`
        PUBLIC PSG
        PUBLIC SysTimer
        FUNCTION SysTimer,0201H
        PUBLIC Systemarraycopy
        FUNCTION Systemarraycopy,0203H
        LOCFRAME CSTACK, 4, STACK
        PUBLIC SystemcurrentTimeMillis
        FUNCTION SystemcurrentTimeMillis,0201H
        PUBLIC Systemgc
        FUNCTION Systemgc,0201H
a_boolean_static_fld EQU 0
a_java_lang_String_static_fld EQU 0
        PUBLIC aint1int
        FUNCTION aint1int,0203H
        LOCFRAME CSTACK, 4, STACK
        PUBLIC avoid1int
        FUNCTION avoid1int,0203H
        LOCFRAME CSTACK, 60, STACK
        FUNCTION avoid2int,0203H
        LOCFRAME CSTACK, 28, STACK
        FUNCTION avoid4int,0203H
        FUNCTION avoid8int,0203H
        LOCFRAME CSTACK, 32, STACK
        FUNCTION `b`,0201H
        LOCFRAME CSTACK, 32, STACK
        FUNCTION b_in,0201H
        LOCFRAME CSTACK, 24, STACK
b_java_lang_String_static_fld EQU 0
b_long_static_fld EQU 0
        FUNCTION b_out,0201H
        LOCFRAME CSTACK, 12, STACK
        FUNCTION bvoid2int,0203H
        PUBLIC bytearrayinputstreamread
        FUNCTION bytearrayinputstreamread,0201H
        LOCFRAME CSTACK, 12, STACK
        PUBLIC bytearrayoutputstreamwrite
        FUNCTION bytearrayoutputstreamwrite,0203H
        LOCFRAME CSTACK, 12, STACK
        FUNCTION c,0203H
        LOCFRAME CSTACK, 4, STACK
        PUBLIC `c0`
        FUNCTION `c0`,0201H
        LOCFRAME CSTACK, 96, STACK
        FUNCTION c_in,0201H
        LOCFRAME CSTACK, 20, STACK
        FUNCTION c_out,0201H
        LOCFRAME CSTACK, 16, STACK
        PUBLIC closestream
        FUNCTION closestream,0201H
        LOCFRAME CSTACK, 12, STACK
        PUBLIC d_boolean_static_fld
        FUNCTION e,0203H
        LOCFRAME CSTACK, 4, STACK
        PUBLIC ebuf
        FUNCTION f,0201H
        LOCFRAME CSTACK, 4, STACK
        PUBLIC flush
        FUNCTION flush,0201H
        LOCFRAME CSTACK, 12, STACK
        PUBLIC fmessage
        PUBLIC freeall
        FUNCTION freeall,0201H
        LOCFRAME CSTACK, 8, STACK
        FUNCTION g,0201H
        LOCFRAME CSTACK, 16, STACK
        PUBLIC getHeight
        PUBLIC getWidth
        PUBLIC h
        FUNCTION h,0201H
        LOCFRAME CSTACK, 16, STACK
        PUBLIC i
        FUNCTION i,0201H
        LOCFRAME CSTACK, 16, STACK
        PUBLIC initnul
        FUNCTION initnul,0201H
        LOCFRAME CSTACK, 12, STACK
        FUNCTION j,0201H
        LOCFRAME CSTACK, 156, STACK
        PUBLIC j_boolean_static_fld
        FUNCTION k,0201H
        LOCFRAME CSTACK, 4, STACK
        PUBLIC k_int_static_fld
        PUBLIC keyPressed
        FUNCTION keyPressed,0203H
        LOCFRAME CSTACK, 36, STACK
        PUBLIC keyReleased
        FUNCTION keyReleased,0203H
        PUBLIC keyindex
        FUNCTION l,0201H
        LOCFRAME CSTACK, 52, STACK
        PUBLIC l_boolean_static_fld
        PUBLIC loadROM
        FUNCTION loadROM,0203H
        LOCFRAME CSTACK, 20, STACK
        PUBLIC loadrom
        FUNCTION loadrom,0203H
        LOCFRAME CSTACK, 4, STACK
m_boolean_static_fld EQU 0
        PUBLIC main_a_int_array1d_fld
        PUBLIC main_a_int_fld
        PUBLIC main_b_boolean_fld
        PUBLIC main_c_int_fld
        PUBLIC nn
        PUBLIC nshow
        PUBLIC o_boolean_static_fld
        PUBLIC openstream
        FUNCTION openstream,0203H
        LOCFRAME CSTACK, 16, STACK
        PUBLIC run
        FUNCTION run,0201H
        LOCFRAME CSTACK, 908, STACK
s_boolean_static_fld EQU 0
        PUBLIC sbuf
        PUBLIC screen_length
        PUBLIC screens
        PUBLIC serviceRepaints
        FUNCTION serviceRepaints,0201H
        PUBLIC stream
        PUBLIC streammode
        PUBLIC t_boolean_static_fld
u_boolean_static_fld EQU 0
u_int_static_fld EQU 0
        PUBLIC v_boolean_static_fld
        FUNCTION xd,0203H
        LOCFRAME CSTACK, 4, STACK
        FUNCTION xxf,0203H
        LOCFRAME CSTACK, 44, STACK
        FUNCTION xxxxb,0203H
        LOCFRAME CSTACK, 16, STACK
        
        CFI Names cfiNames0
        CFI StackFrame CFA R13 HUGEDATA
        CFI Resource R0:32, R1:32, R2:32, R3:32, R4:32, R5:32, R6:32, R7:32
        CFI Resource R8:32, R9:32, R10:32, R11:32, R12:32, CPSR:32, R13:32
        CFI Resource R14:32, SPSR:32
        CFI VirtualResource ?RET:32
        CFI EndNames cfiNames0
        
        CFI Common cfiCommon0 Using cfiNames0
        CFI CodeAlign 2
        CFI DataAlign 4
        CFI ReturnAddress ?RET CODE
        CFI CFA R13+0
        CFI R0 Undefined
        CFI R1 Undefined
        CFI R2 Undefined
        CFI R3 Undefined
        CFI R4 SameValue
        CFI R5 SameValue
        CFI R6 SameValue
        CFI R7 SameValue
        CFI R8 SameValue
        CFI R9 SameValue
        CFI R10 SameValue
        CFI R11 SameValue
        CFI R12 Undefined
        CFI CPSR SameValue
        CFI R14 Undefined
        CFI SPSR SameValue
        CFI ?RET R14
        CFI EndCommon cfiCommon0
        
        
        CFI Common cfiCommon1 Using cfiNames0
        CFI CodeAlign 4
        CFI DataAlign 4
        CFI ReturnAddress ?RET CODE
        CFI CFA R13+0
        CFI R0 Undefined
        CFI R1 Undefined
        CFI R2 Undefined
        CFI R3 Undefined
        CFI R4 SameValue
        CFI R5 SameValue
        CFI R6 SameValue
        CFI R7 SameValue
        CFI R8 SameValue
        CFI R9 SameValue
        CFI R10 SameValue
        CFI R11 SameValue
        CFI R12 Undefined
        CFI CPSR SameValue
        CFI R14 Undefined
        CFI SPSR SameValue
        CFI ?RET R14
        CFI EndCommon cfiCommon1
        
APUWrite            SYMBOL "APUWrite"
AudioTerminate      SYMBOL "AudioTerminate"
loadfile            SYMBOL "loadfile"
repaint             SYMBOL "repaint"
??APUWrite??rA      SYMBOL "??rA", APUWrite
??AudioTerminate??rA SYMBOL "??rA", AudioTerminate
SysTimer            SYMBOL "SysTimer"
??SysTimer??rT      SYMBOL "??rT", SysTimer
Systemarraycopy     SYMBOL "Systemarraycopy"
??Systemarraycopy??rT SYMBOL "??rT", Systemarraycopy
SystemcurrentTimeMillis SYMBOL "SystemcurrentTimeMillis"
??SystemcurrentTimeMillis??rT SYMBOL "??rT", SystemcurrentTimeMillis
Systemgc            SYMBOL "Systemgc"
??Systemgc??rT      SYMBOL "??rT", Systemgc
aint1int            SYMBOL "aint1int"
??aint1int??rT      SYMBOL "??rT", aint1int
avoid1int           SYMBOL "avoid1int"
??avoid1int??rT     SYMBOL "??rT", avoid1int
bytearrayinputstreamread SYMBOL "bytearrayinputstreamread"
??bytearrayinputstreamread??rT SYMBOL "??rT", bytearrayinputstreamread
bytearrayoutputstreamwrite SYMBOL "bytearrayoutputstreamwrite"
??bytearrayoutputstreamwrite??rT SYMBOL "??rT", bytearrayoutputstreamwrite
`c0`                SYMBOL "c0"
??c0??rT            SYMBOL "??rT", `c0`
closestream         SYMBOL "closestream"
??closestream??rT   SYMBOL "??rT", closestream
flush               SYMBOL "flush"
??flush??rT         SYMBOL "??rT", flush
freeall             SYMBOL "freeall"
??freeall??rT       SYMBOL "??rT", freeall
h                   SYMBOL "h"
??h??rT             SYMBOL "??rT", h
i                   SYMBOL "i"
??i??rT             SYMBOL "??rT", i
initnul             SYMBOL "initnul"
??initnul??rT       SYMBOL "??rT", initnul
keyPressed          SYMBOL "keyPressed"
??keyPressed??rT    SYMBOL "??rT", keyPressed
keyReleased         SYMBOL "keyReleased"
??keyReleased??rT   SYMBOL "??rT", keyReleased
loadROM             SYMBOL "loadROM"
??loadROM??rT       SYMBOL "??rT", loadROM
??loadfile??rA      SYMBOL "??rA", loadfile
loadrom             SYMBOL "loadrom"
??loadrom??rT       SYMBOL "??rT", loadrom
openstream          SYMBOL "openstream"
??openstream??rT    SYMBOL "??rT", openstream
??repaint??rA       SYMBOL "??rA", repaint
run                 SYMBOL "run"
??run??rT           SYMBOL "??rT", run
serviceRepaints     SYMBOL "serviceRepaints"
??serviceRepaints??rT SYMBOL "??rT", serviceRepaints

        EXTERN APUWrite
        FUNCTION APUWrite,0202H
        EXTERN AudioTerminate
        FUNCTION AudioTerminate,0200H
        EXTERN LastTmrVal
        EXTERN loadfile
        FUNCTION loadfile,0202H
        EXTERN loadfilesize
        EXTERN repaint
        FUNCTION repaint,0200H
        EXTERN romname
        EXTERN running


        RSEG CODE:CODE:NOROOT(2)
        CFI Block cfiBlock0 Using cfiCommon0
        CFI NoFunction
        THUMB
??serviceRepaints??rT:
        BX       PC
        Nop      
        CFI EndBlock cfiBlock0
        REQUIRE serviceRepaints
// C:\arm\vNes_sound\Nes.c
//    1 
//    2 //NES emulator
//    3 
//    4 #include "nes.h"

        RSEG CODE:CODE:NOROOT(2)
        CFI Block cfiBlock1 Using cfiCommon1
        CFI Function serviceRepaints
        ARM
// __??Code32?? __code __interwork __atpcs void serviceRepaints()
serviceRepaints:
        BX       LR               ;; return
        CFI EndBlock cfiBlock1

        RSEG CODE:CODE:NOROOT(2)
        CFI Block cfiBlock2 Using cfiCommon0
        CFI NoFunction
        THUMB
??Systemgc??rT:
        BX       PC
        Nop      
        CFI EndBlock cfiBlock2
        REQUIRE Systemgc

        RSEG DATA_Z:DATA:SORT:NOROOT(2)
// int *__data main_a_int_array1d_fld
main_a_int_array1d_fld:
        DS8 4

        RSEG CODE:CODE:NOROOT(2)
        CFI Block cfiBlock3 Using cfiCommon1
        CFI Function Systemgc
        ARM
// __??Code32?? __code __interwork __atpcs void Systemgc()
Systemgc:
        BX       LR               ;; return
        CFI EndBlock cfiBlock3

        RSEG CODE:CODE:NOROOT(2)
        CFI Block cfiBlock4 Using cfiCommon0
        CFI NoFunction
        THUMB
??SystemcurrentTimeMillis??rT:
        BX       PC
        Nop      
        CFI EndBlock cfiBlock4
        REQUIRE SystemcurrentTimeMillis

        RSEG CODE:CODE:NOROOT(2)
        CFI Block cfiBlock5 Using cfiCommon1
        CFI Function SystemcurrentTimeMillis
        ARM
// __??Code32?? __code __interwork __atpcs long SystemcurrentTimeMillis()
SystemcurrentTimeMillis:
        MOV      R0,#+0
        BX       LR               ;; return
        CFI EndBlock cfiBlock5

        RSEG CODE:CODE:NOROOT(2)
        CFI Block cfiBlock6 Using cfiCommon0
        CFI NoFunction
        THUMB
??SysTimer??rT:
        BX       PC
        Nop      
        CFI EndBlock cfiBlock6
        REQUIRE SysTimer

        RSEG CODE:CODE:NOROOT(2)
        CFI Block cfiBlock7 Using cfiCommon1
        CFI Function SysTimer
        ARM
// __??Code32?? __code __interwork __atpcs long SysTimer()
SysTimer:
        LDR      R0,??DataTable0  ;; 0xfffffffff4b00018
        LDR      R0,[R0, #+0]
        BX       LR               ;; return
        CFI EndBlock cfiBlock7

        RSEG CODE:CODE:NOROOT(2)
        DATA
??DataTable0:
        DC32     0xfffffffff4b00018

        RSEG CODE:CODE:NOROOT(2)
        CFI Block cfiBlock8 Using cfiCommon0
        CFI NoFunction
        THUMB
??Systemarraycopy??rT:
        BX       PC
        Nop      
        CFI EndBlock cfiBlock8
        REQUIRE Systemarraycopy

        RSEG CODE:CODE:NOROOT(2)
        CFI Block cfiBlock9 Using cfiCommon1
        CFI Function Systemarraycopy
        ARM
// __??Code32?? __code __interwork __atpcs void Systemarraycopy(void *, int, void *, int, int)
Systemarraycopy:
        PUSH     {LR}
        CFI ?RET Frame(CFA, -4)
        CFI CFA R13+4
        MOV      R12,R2
        LDR      R2,[SP, #+4]
        ADD      R1,R1,R0
        ADD      R0,R3,R12
        SWI      +306
        POP      {PC}             ;; return
        CFI EndBlock cfiBlock9

        RSEG CODE:CODE:NOROOT(2)
        CFI Block cfiBlock10 Using cfiCommon0
        CFI NoFunction
        THUMB
??flush??rT:
        BX       PC
        Nop      
        CFI EndBlock cfiBlock10
        REQUIRE flush

        RSEG CODE:CODE:NOROOT(2)
        CFI Block cfiBlock11 Using cfiCommon1
        CFI Function flush
        ARM
// __??Code32?? __code __interwork __atpcs void flush()
flush:
        PUSH     {R4,LR}
        CFI ?RET Frame(CFA, -4)
        CFI R4 Frame(CFA, -8)
        CFI CFA R13+8
        LDR      R4,??DataTable4  ;; ebuf
        SUB      SP,SP,#+4
        CFI CFA R13+12
        LDR      R0,[R4, #+0]
        ADD      R1,R4,#+12
        SUB      R2,R0,R1
        LDR      R0,[R4, #+4]
        MOV      R3,SP
        SWI      +12
        ADD      R0,R4,#+12
        STR      R0,[R4, #+0]
        POP      {R0,R4,PC}       ;; return
        CFI EndBlock cfiBlock11

        RSEG CODE:CODE:NOROOT(2)
        CFI Block cfiBlock12 Using cfiCommon0
        CFI NoFunction
        THUMB
??bytearrayoutputstreamwrite??rT:
        BX       PC
        Nop      
        CFI EndBlock cfiBlock12
        REQUIRE bytearrayoutputstreamwrite

        RSEG CODE:CODE:NOROOT(2)
        CFI Block cfiBlock13 Using cfiCommon1
        CFI Function bytearrayoutputstreamwrite
        ARM
// __??Code32?? __code __interwork __atpcs void bytearrayoutputstreamwrite(int)
bytearrayoutputstreamwrite:
        PUSH     {R4,R5,LR}
        CFI ?RET Frame(CFA, -4)
        CFI R5 Frame(CFA, -8)
        CFI R4 Frame(CFA, -12)
        CFI CFA R13+12
        LDR      R5,??DataTable4  ;; ebuf
        MOV      R4,R0
        LDR      R0,[R5, #+0]
        MOV      R1,#+12
        ORR      R1,R1,#0x2000
        ADD      R1,R1,R5
        CMP      R0,R1
        BCC      ??bytearrayoutputstreamwrite_0
        BL       flush
??bytearrayoutputstreamwrite_0:
        LDR      R0,[R5, #+0]
        STRB     R4,[R0, #+0]
        LDR      R0,[R5, #+0]
        ADD      R0,R0,#+1
        STR      R0,[R5, #+0]
        POP      {R4,R5,PC}       ;; return
        CFI EndBlock cfiBlock13

        RSEG CODE:CODE:NOROOT(2)
        CFI Block cfiBlock14 Using cfiCommon0
        CFI NoFunction
        THUMB
??bytearrayinputstreamread??rT:
        BX       PC
        Nop      
        CFI EndBlock cfiBlock14
        REQUIRE bytearrayinputstreamread

        RSEG CODE:CODE:NOROOT(2)
        CFI Block cfiBlock15 Using cfiCommon1
        CFI Function bytearrayinputstreamread
        ARM
// __??Code32?? __code __interwork __atpcs int bytearrayinputstreamread()
bytearrayinputstreamread:
        PUSH     {R4,LR}
        CFI ?RET Frame(CFA, -4)
        CFI R4 Frame(CFA, -8)
        CFI CFA R13+8
        LDR      R4,??DataTable4  ;; ebuf
        SUB      SP,SP,#+4
        CFI CFA R13+12
        LDR      R0,[R4, #+0]
        MOV      R1,#+12
        ORR      R1,R1,#0x2000
        ADD      R1,R1,R4
        CMP      R0,R1
        BCC      ??bytearrayinputstreamread_0
        LDR      R0,[R4, #+4]
        MOV      R3,SP
        MOV      R2,#+8192
        ADD      R1,R4,#+12
        SWI      +11
        ADD      R0,R4,#+12
        STR      R0,[R4, #+0]
??bytearrayinputstreamread_0:
        LDR      R0,[R4, #+0]
        ADD      R1,R0,#+1
        STR      R1,[R4, #+0]
        LDRB     R0,[R0, #+0]
        POP      {R1,R4,PC}       ;; return
        CFI EndBlock cfiBlock15

        RSEG CODE:CODE:NOROOT(2)
        CFI Block cfiBlock16 Using cfiCommon0
        CFI NoFunction
        THUMB
??openstream??rT:
        BX       PC
        Nop      
        CFI EndBlock cfiBlock16
        REQUIRE openstream

        RSEG CODE:CODE:NOROOT(2)
        CFI Block cfiBlock17 Using cfiCommon1
        CFI Function openstream
        ARM
// __??Code32?? __code __interwork __atpcs int openstream(int)
openstream:
        PUSH     {R4,R5,LR}
        CFI ?RET Frame(CFA, -4)
        CFI R5 Frame(CFA, -8)
        CFI R4 Frame(CFA, -12)
        CFI CFA R13+12
        LDR      R4,??DataTable4  ;; ebuf
        SUB      SP,SP,#+4
        CFI CFA R13+16
        STR      R0,[R4, #+8]
        LDR      R1,[R4, #+8]
        LDR      R0,??openstream_0  ;; romname
        MVN      R5,#+0
        CMP      R1,#+0
        BEQ      ??openstream_1
        MOV      R3,SP
        MOV      R2,#+256
        MOV      R1,#+1
        ORR      R1,R1,#0x8300
        SWI      +10
        STR      R0,[R4, #+4]
        CMP      R0,R5
        BNE      ??openstream_2
??openstream_3:
        MOV      R0,R5
        POP      {R1,R4,R5,PC}
??openstream_2:
        ADD      R0,R4,#+12
        STR      R0,[R4, #+0]
        LDR      R0,[R4, #+4]
        POP      {R1,R4,R5,PC}
??openstream_1:
        MOV      R1,#+12
        ORR      R1,R1,#0x2000
        ADD      R1,R1,R4
        STR      R1,[R4, #+0]
        MOV      R3,SP
        MOV      R2,#+128
        MOV      R1,#+32768
        SWI      +10
        STR      R0,[R4, #+4]
        CMP      R0,R5
        BEQ      ??openstream_3
        LDR      R0,[R4, #+4]
        POP      {R1,R4,R5,PC}    ;; return
        DATA
??openstream_0:
        DC32     romname
        CFI EndBlock cfiBlock17

        RSEG CODE:CODE:NOROOT(2)
        DATA
??DataTable4:
        DC32     ebuf

        RSEG CODE:CODE:NOROOT(2)
        CFI Block cfiBlock18 Using cfiCommon0
        CFI NoFunction
        THUMB
??closestream??rT:
        BX       PC
        Nop      
        CFI EndBlock cfiBlock18
        REQUIRE closestream

        RSEG CODE:CODE:NOROOT(2)
        CFI Block cfiBlock19 Using cfiCommon1
        CFI Function closestream
        ARM
// __??Code32?? __code __interwork __atpcs void closestream()
closestream:
        PUSH     {R4,LR}
        CFI ?RET Frame(CFA, -4)
        CFI R4 Frame(CFA, -8)
        CFI CFA R13+8
        LDR      R4,??closestream_0  ;; ebuf
        SUB      SP,SP,#+4
        CFI CFA R13+12
        LDR      R0,[R4, #+8]
        CMP      R0,#+0
        BEQ      ??closestream_1
        BL       flush
??closestream_1:
        LDR      R0,[R4, #+4]
        MOV      R1,SP
        SWI      +13
        POP      {R0,R4,PC}       ;; return
        DATA
??closestream_0:
        DC32     ebuf
        CFI EndBlock cfiBlock19

        RSEG CODE:CODE:NOROOT(2)
        CFI Block cfiBlock20 Using cfiCommon0
        CFI NoFunction
        THUMB
??k??rT:
        BX       PC
        Nop      
        CFI EndBlock cfiBlock20
        REQUIRE k

        RSEG DATA_Z:DATA:SORT:NOROOT(2)
//    5 unsigned char PSG[25];
PSG:
        DS8 28

        RSEG DATA_C:CONST:SORT:NOROOT(2)
`?<Constant {128, 192, 256, 256}>`:
        DATA
        DC32 128, 192, 256, 256

        RSEG DATA_C:CONST:SORT:NOROOT(2)
`?<Constant {0, 61, 120, 197}>`:
        DATA
        DC32 0, 61, 120, 197

        RSEG DATA_C:CONST:SORT:NOROOT(2)
`?<Constant {74, 115, 187, 230}>`:
        DATA
        DC32 74, 115, 187, 230

        RSEG DATA_C:CONST:SORT:NOROOT(2)
`?<Constant {0, 240, 210, 180, 150, 120, 90, 60`:
        DATA
        DC32 0, 240, 210, 180, 150, 120, 90, 60, 30, 0, 330, 300, 270, 0, 0, 0
//    6 
//    7 extern long LastTmrVal;
//    8  void APUWrite( unsigned short address, unsigned char data );
//    9 extern int loadfilesize;
//   10 extern char *loadfile(char *filename);
//   11 int nn; //temp
//   12   
//   13 
//   14 
//   15     static int b_int_static_fld = 128;
//   16     static int Z = 0;
//   17     static int f_int_static_fld = 0;
//   18     static int n_int_static_fld = 0;
//   19     static int Q = 0;
//   20     static int w = 0;
//   21     static int P;
//   22     static int ad;
//   23     static int ab = 0;
//   24     static int S = 0;
//   25     static int R = 0;
//   26     static int o_int_static_fld = 0;
//   27     static int L = 128;
//   28     static int b_int_array1d_static_fld[8];
//   29     static int e_int_static_fld = 0;
//   30     static int H = 0;
//   31 //    static const char *a_java_lang_String_array1d_static_fld[] = {
//   32 //        "Up", "Down", "Left", "Right", "A", "B", "Start", "Select", "AA", "BB", 
//   33 //        "Trigger", "Quick Save", "Quick Load", "FullScreen"
//   34 //    };
//   35     static int key[] = {
//   36         50, 56, 52, 54, 49, 51, 
//   37         53, 48, 55, 57, 
//   38         35, 0, 0, 42
//   39     };
//   40    // '2'=10 8=20 4=40 6=80 1=1 3=2 0=8 7=4
//   41     static int O = 0;
//   42     static int g_int_static_fld = 0;
//   43     static int ac = 0;
//   44     static int N = 0;
//   45     static int s_int_static_fld = 0;
//   46     static int v_int_static_fld = 0;
//   47     int B = 100;
//   48     static int z = 0;
//   49     static boolean q_boolean_static_fld = true;
//   50     static boolean a_boolean_static_fld = false;
//   51     static boolean r_boolean_static_fld = false;
//   52     static boolean i_boolean_static_fld = false;
//   53     static int aa = -1;
//   54     static int I = 0;
//   55     static boolean e_boolean_static_fld = false;
//   56     static int F = 0;
//   57     int k_int_static_fld = 0;
//   58     static int a_int_static_fld = 0;
//   59     static int X = 0;
//   60     boolean o_boolean_static_fld = false;
//   61     static char *a_java_lang_String_static_fld = null;
//   62     static int y = 0;
//   63     static int D = 0;
//   64     static int c_int_static_fld = 0;
//   65     static byte *vram=0;//free?
//   66     static boolean f_boolean_static_fld = false;
//   67     static boolean g_boolean_static_fld = false;
//   68     static int T = 0;
//   69     static int W = 0;
//   70     static int U = 0;
//   71     static int d_int_static_fld = 0;
//   72     static int m_int_static_fld = 0;
//   73     static long c_long_static_fld;
//   74     static long b_long_static_fld;
//   75     static int i_int_static_fld = 0;
//   76     static int u_int_static_fld = 0;
//   77     static int K = -1;
//   78     static int t_int_static_fld = -1;
//   79     boolean t_boolean_static_fld = true;
//   80     static ushort j_int_array1d_static_fld[32];
//   81     static ushort g_int_array1d_static_fld[64];
//   82     static int e_int_array1d_static_fld[32];
//   83     static boolean p_boolean_static_fld = false;
//   84 //    static NESx65 main;
//   85     static int x = 1;
//   86     static boolean b_boolean_static_fld = false;
//   87     static int i_int_array1d_static_fld[12];
//   88     static int l_int_array1d_static_fld[8];
//   89     static ushort *a_char_array1d_static_fld=0; //free!
//   90     static int j_int_static_fld = 0;
//   91     //static byte a_byte_array1d_static_fld[];
//   92     static int q_int_static_fld = 0;
//   93     static int E = 0;
//   94     static int G = 0;
//   95     static int J = 1;
//   96     static int Y = 0;
//   97     static boolean u_boolean_static_fld = false;
//   98     int A = 5;
//   99     static int d_int_array1d_static_fld[8];//=0; //free?????
//  100     boolean v_boolean_static_fld = false;
//  101     static boolean h_boolean_static_fld = false;
//  102     static char *b_java_lang_String_static_fld;
//  103     static boolean m_boolean_static_fld = false;
//  104     static boolean s_boolean_static_fld = false;
//  105     boolean d_boolean_static_fld = false;
//  106     static boolean k_boolean_static_fld = false;
//  107     static int V = 4;
//  108     static int p_int_static_fld = 0;
//  109     static byte d_byte_array1d_static_fld[256];
//  110     static int C = 0;
//  111     static boolean n_boolean_static_fld = false;
//  112     static long a_long_static_fld = 0L;
//  113     static byte *b_byte_array1d_static_fld=0; //free

        RSEG DATA_C:CONST:SORT:NOROOT(2)
//  114     static const ushort a_short_array1d_static_fld[] = {
a_short_array1d_static_fld:
        DATA
        DC16 0, 17, 35, 52, 70, 87, 105, 122, 139, 156, 174, 191, 208, 225, 242
        DC16 259, 276, 292, 309, 326, 342, 358, 375, 391, 407, 423, 438, 454
        DC16 469, 485, 500, 515, 530, 545, 559, 574, 588, 602, 616, 629, 643
        DC16 656, 669, 682, 695, 707, 719, 731, 743, 755, 766, 777, 788, 799
        DC16 809, 819, 829, 839, 848, 857, 866, 875, 883, 891, 899, 906, 914
        DC16 921, 927, 934, 940, 946, 951, 956, 961, 966, 970, 974, 978, 982
        DC16 985, 988, 990, 993, 995, 996, 998, 999, 999, 1000, 1000
        DC8 0, 0
//  115         0, 17, 35, 52, 70, 87, 105, 122, 139, 156, 
//  116         174, 191, 208, 225, 242, 259, 276, 292, 309, 326, 
//  117         342, 358, 375, 391, 407, 423, 438, 454, 469, 485, 
//  118         500, 515, 530, 545, 559, 574, 588, 602, 616, 629, 
//  119         643, 656, 669, 682, 695, 707, 719, 731, 743, 755, 
//  120         766, 777, 788, 799, 809, 819, 829, 839, 848, 857, 
//  121         866, 875, 883, 891, 899, 906, 914, 921, 927, 934, 
//  122         940, 946, 951, 956, 961, 966, 970, 974, 978, 982, 
//  123         985, 988, 990, 993, 995, 996, 998, 999, 999, 1000, 
//  124         1000
//  125     };
//  126     static boolean c_boolean_static_fld = false;
//  127     boolean l_boolean_static_fld = false;
//  128     boolean j_boolean_static_fld = false;
//  129     ushort *screens=0; //free screen!!!
//  130     static int h_int_static_fld;
//  131     static int r_int_static_fld;
//  132     static int c_int_array1d_static_fld[260];
//  133     static int h_int_array1d_static_fld[276];

        RSEG DATA_Z:DATA:SORT:NOROOT(2)
//  134     static int f_int_array1d_static_fld[276];
f_int_array1d_static_fld:
        DS8 1104

        RSEG DATA_I:DATA:SORT:NOROOT(2)
j_int_array1d_static_fld:
        DS8 64
        REQUIRE `?<Initializer for j_int_array1d_static_fld>`
        DS8 128
        REQUIRE `?<Initializer for g_int_array1d_static_fld>`
        DS8 1104
        REQUIRE `?<Initializer for h_int_array1d_static_fld>`
        DS8 1040
        REQUIRE `?<Initializer for c_int_array1d_static_fld>`
        DS8 56
        REQUIRE `?<Initializer for key>`
        DS8 48
        REQUIRE `?<Initializer for i_int_array1d_static_fld>`
        DS8 32
        REQUIRE `?<Initializer for b_int_array1d_static_fld>`
        DS8 32
        REQUIRE `?<Initializer for d_int_array1d_static_fld>`
// int __data main_a_int_fld
main_a_int_fld:
        DS8 4
        REQUIRE `?<Initializer for main_a_int_fld>`
// int __data main_c_int_fld
main_c_int_fld:
        DS8 4
        REQUIRE `?<Initializer for main_c_int_fld>`
// int __data getWidth
getWidth:
        DS8 4
        REQUIRE `?<Initializer for getWidth>`
// int __data getHeight
getHeight:
        DS8 4
        REQUIRE `?<Initializer for getHeight>`
// int __data screen_length
screen_length:
        DS8 4
        REQUIRE `?<Initializer for screen_length>`
nn:
        DS8 4
        REQUIRE `?<Initializer for nn>`
        DS8 4
        REQUIRE `?<Initializer for b_int_static_fld>`
        DS8 4
        REQUIRE `?<Initializer for Z>`
        DS8 4
        REQUIRE `?<Initializer for f_int_static_fld>`
        DS8 4
        REQUIRE `?<Initializer for n_int_static_fld>`
        DS8 4
        REQUIRE `?<Initializer for Q>`
        DS8 4
        REQUIRE `?<Initializer for w>`
        DS8 4
        REQUIRE `?<Initializer for P>`
        DS8 4
        REQUIRE `?<Initializer for ad>`
        DS8 4
        REQUIRE `?<Initializer for ab>`
        DS8 4
        REQUIRE `?<Initializer for S>`
        DS8 4
        REQUIRE `?<Initializer for R>`
        DS8 4
        REQUIRE `?<Initializer for o_int_static_fld>`
        DS8 4
        REQUIRE `?<Initializer for L>`
        DS8 4
        REQUIRE `?<Initializer for e_int_static_fld>`
        DS8 4
        REQUIRE `?<Initializer for H>`
        DS8 4
        REQUIRE `?<Initializer for O>`
        DS8 4
        REQUIRE `?<Initializer for g_int_static_fld>`
        DS8 4
        REQUIRE `?<Initializer for ac>`
        DS8 4
        REQUIRE `?<Initializer for N>`
        DS8 4
        REQUIRE `?<Initializer for s_int_static_fld>`
        DS8 4
        REQUIRE `?<Initializer for v_int_static_fld>`
`B`:
        DS8 4
        REQUIRE `?<Initializer for B>`
        DS8 4
        REQUIRE `?<Initializer for aa>`
        DS8 4
        REQUIRE `?<Initializer for I>`
        DS8 4
        REQUIRE `?<Initializer for F>`
k_int_static_fld:
        DS8 4
        REQUIRE `?<Initializer for k_int_static_fld>`
        DS8 4
        REQUIRE `?<Initializer for a_int_static_fld>`
        DS8 4
        REQUIRE `?<Initializer for X>`
        DS8 4
        REQUIRE `?<Initializer for y>`
        DS8 4
        REQUIRE `?<Initializer for D>`
        DS8 4
        REQUIRE `?<Initializer for c_int_static_fld>`
        DS8 4
        REQUIRE `?<Initializer for vram>`
        DS8 4
        REQUIRE `?<Initializer for T>`
        DS8 4
        REQUIRE `?<Initializer for W>`
        DS8 4
        REQUIRE `?<Initializer for U>`
        DS8 4
        REQUIRE `?<Initializer for d_int_static_fld>`
        DS8 4
        REQUIRE `?<Initializer for m_int_static_fld>`
        DS8 4
        REQUIRE `?<Initializer for c_long_static_fld>`
        DS8 4
        REQUIRE `?<Initializer for i_int_static_fld>`
        DS8 4
        REQUIRE `?<Initializer for K>`
        DS8 4
        REQUIRE `?<Initializer for t_int_static_fld>`
        DS8 128
        REQUIRE `?<Initializer for e_int_array1d_static_fld>`
        DS8 4
        REQUIRE `?<Initializer for x>`
        DS8 32
        REQUIRE `?<Initializer for l_int_array1d_static_fld>`
        DS8 4
        REQUIRE `?<Initializer for a_char_array1d_static_fld>`
        DS8 4
        REQUIRE `?<Initializer for j_int_static_fld>`
        DS8 4
        REQUIRE `?<Initializer for q_int_static_fld>`
        DS8 4
        REQUIRE `?<Initializer for E>`
        DS8 4
        REQUIRE `?<Initializer for G>`
        DS8 4
        REQUIRE `?<Initializer for J>`
        DS8 4
        REQUIRE `?<Initializer for Y>`
A:
        DS8 4
        REQUIRE `?<Initializer for A>`
        DS8 4
        REQUIRE `?<Initializer for V>`
        DS8 4
        REQUIRE `?<Initializer for p_int_static_fld>`
        DS8 256
        REQUIRE `?<Initializer for d_byte_array1d_static_fld>`
        DS8 4
        REQUIRE `?<Initializer for C>`
        DS8 4
        REQUIRE `?<Initializer for a_long_static_fld>`
        DS8 4
        REQUIRE `?<Initializer for b_byte_array1d_static_fld>`
screens:
        DS8 4
        REQUIRE `?<Initializer for screens>`
        DS8 4
        REQUIRE `?<Initializer for h_int_static_fld>`
        DS8 4
        REQUIRE `?<Initializer for r_int_static_fld>`
        DS8 4
        REQUIRE `?<Initializer for l_int_static_fld>`
        DS8 4
        REQUIRE `?<Initializer for M>`
        DS8 4
        REQUIRE `?<Initializer for ram>`
        DS8 4
        REQUIRE `?<Initializer for ramsize>`
//  135     static boolean b_boolean_array1d_static_fld[260];
//  136     static boolean a_boolean_array1d_static_fld[276];
//  137     static int l_int_static_fld = -1;
//  138     static int M = 0;
//  139     static int ram=0, ramsize=0;
//  140     int keyindex=-1;
keyindex:
        DS8 4
        REQUIRE `?<Initializer for keyindex>`
// char __data main_b_boolean_fld
main_b_boolean_fld:
        DS8 1
        REQUIRE `?<Initializer for main_b_boolean_fld>`
        DS8 1
        REQUIRE `?<Initializer for q_boolean_static_fld>`
        DS8 1
        REQUIRE `?<Initializer for r_boolean_static_fld>`
        DS8 1
        REQUIRE `?<Initializer for i_boolean_static_fld>`
        DS8 1
        REQUIRE `?<Initializer for e_boolean_static_fld>`
o_boolean_static_fld:
        DS8 1
        REQUIRE `?<Initializer for o_boolean_static_fld>`
        DS8 1
        REQUIRE `?<Initializer for f_boolean_static_fld>`
        DS8 1
        REQUIRE `?<Initializer for g_boolean_static_fld>`
t_boolean_static_fld:
        DS8 1
        REQUIRE `?<Initializer for t_boolean_static_fld>`
        DS8 1
        REQUIRE `?<Initializer for p_boolean_static_fld>`
        DS8 1
        REQUIRE `?<Initializer for b_boolean_static_fld>`
v_boolean_static_fld:
        DS8 1
        REQUIRE `?<Initializer for v_boolean_static_fld>`
        DS8 1
        REQUIRE `?<Initializer for h_boolean_static_fld>`
d_boolean_static_fld:
        DS8 1
        REQUIRE `?<Initializer for d_boolean_static_fld>`
        DS8 1
        REQUIRE `?<Initializer for n_boolean_static_fld>`
        DS8 1
        REQUIRE `?<Initializer for c_boolean_static_fld>`
l_boolean_static_fld:
        DS8 1
        REQUIRE `?<Initializer for l_boolean_static_fld>`
j_boolean_static_fld:
        DS8 1
        REQUIRE `?<Initializer for j_boolean_static_fld>`
        DS8 2
        DS8 260
        REQUIRE `?<Initializer for b_boolean_array1d_static_fld`
        DS8 276
        REQUIRE `?<Initializer for a_boolean_array1d_static_fld`

        RSEG DATA_I:DATA:SORT:NOROOT(2)
// unsigned char *__data ebuf
ebuf:
        DS8 4
        REQUIRE `?<Initializer for ebuf>`
// int __data stream
stream:
        DS8 4
        REQUIRE `?<Initializer for stream>`
// int __data streammode
streammode:
        DS8 4
        REQUIRE `?<Initializer for streammode>`
// unsigned char __data sbuf[8192]
sbuf:
        DS8 8192
        REQUIRE `?<Initializer for sbuf>`

        RSEG DATA_Z:DATA:SORT:NOROOT(2)
//  141     char *fmessage=null;
fmessage:
        DS8 4
//  142 
//  143 
//  144 
//  145 

        RSEG CODE:CODE:NOROOT(2)
        CFI Block cfiBlock21 Using cfiCommon1
        CFI Function k
        ARM
//  146     static void k() {
//  147         xxxxb((m_int_static_fld << 5) + (Z & 0x1f), (m_int_static_fld << 5) + (f_int_static_fld & 0x1f), (m_int_static_fld << 5) + (n_int_static_fld & 0x1f), (m_int_static_fld << 5) + (Q & 0x1f));
k:
        LDR      R0,??DataTable7  ;; j_int_array1d_static_fld
        LDR      R1,[R0, #+2672]
        LSL      R12,R1,#+5
        LDR      R1,[R0, #+2544]
        AND      R1,R1,#0x1F
        ADD      R3,R1,R12
        LDR      R1,[R0, #+2540]
        AND      R1,R1,#0x1F
        ADD      R2,R1,R12
        LDR      R1,[R0, #+2536]
        LDR      R0,[R0, #+2532]
        AND      R1,R1,#0x1F
        ADD      R1,R1,R12
        AND      R0,R0,#0x1F
        ADD      R0,R0,R12
        B        xxxxb            ;; tailcall
        CFI EndBlock cfiBlock21
//  148     }

        RSEG CODE:CODE:NOROOT(2)
        CFI Block cfiBlock22 Using cfiCommon0
        CFI NoFunction
        THUMB
??f??rT:
        BX       PC
        Nop      
        CFI EndBlock cfiBlock22
        REQUIRE f
//  149 

        RSEG CODE:CODE:NOROOT(2)
        CFI Block cfiBlock23 Using cfiCommon1
        CFI Function f
        ARM
//  150     static void f() {
//  151         if(abool())
f:
        LDR      R2,??DataTable7  ;; j_int_array1d_static_fld
        LDR      R1,[R2, #+2556]
        LDR      R12,[R2, #+2872]
        SUB      R0,R1,#+2
        SUB      R3,R1,#+1
        LDR      R1,[R2, #+2876]
        LDR      R2,[R2, #+2472]
        TST      R2,#0x40
//  152             xxxxb(ad - 2, J, G, ad - 1);
        MOVNE    R2,R12
//  153         else
//  154             xxxxb(G, J, ad - 2, ad - 1);
        MOVEQ    R2,R0
        MOVEQ    R0,R12
        B        xxxxb            ;; tailcall
        CFI EndBlock cfiBlock23
//  155     }

        RSEG CODE:CODE:NOROOT(2)
        CFI Block cfiBlock24 Using cfiCommon0
        CFI NoFunction
        THUMB
??l??rT:
        BX       PC
        Nop      
        CFI EndBlock cfiBlock24
        REQUIRE l
//  156 

        RSEG CODE:CODE:NOROOT(2)
        CFI Block cfiBlock25 Using cfiCommon1
        CFI Function l
        ARM
//  157     static void l() {
//  158         if(P != 0) {
l:
        LDR      R0,??DataTable7  ;; j_int_array1d_static_fld
        PUSH     {R4-R11,LR}
        CFI ?RET Frame(CFA, -4)
        CFI R11 Frame(CFA, -8)
        CFI R10 Frame(CFA, -12)
        CFI R9 Frame(CFA, -16)
        CFI R8 Frame(CFA, -20)
        CFI R7 Frame(CFA, -24)
        CFI R6 Frame(CFA, -28)
        CFI R5 Frame(CFA, -32)
        CFI R4 Frame(CFA, -36)
        CFI CFA R13+36
        LDR      R4,[R0, #+2588]
        LDR      R6,[R0, #+2592]
        LDR      R8,[R0, #+2596]
        LDR      R9,[R0, #+2600]
        LDR      R10,[R0, #+2604]
        LDR      R11,[R0, #+2608]
        LDR      R1,[R0, #+2472]
        LDR      R0,[R0, #+2552]
        ADD      R5,R4,#+1
        ADD      R7,R6,#+1
        CMP      R0,#+0
        BEQ      ??l_0
//  159             if(bbool())
        TST      R1,#0x80
        BEQ      ??l_1
//  160                 avoid8int(ac, N, s_int_static_fld, v_int_static_fld, O, O + 1, g_int_static_fld, g_int_static_fld + 1);
        PUSH     {R7}
        CFI CFA R13+40
        PUSH     {R6}
        CFI CFA R13+44
        PUSH     {R5}
        CFI CFA R13+48
        PUSH     {R4}
        CFI CFA R13+52
        MOV      R3,R11
        MOV      R2,R10
        MOV      R1,R9
        MOV      R0,R8
        BL       avoid8int
        ADD      SP,SP,#+16
        CFI CFA R13+36
        POP      {R4-R11,PC}
//  161             else
//  162                 avoid8int(O, O + 1, g_int_static_fld, g_int_static_fld + 1, ac, N, s_int_static_fld, v_int_static_fld);
??l_1:
        PUSH     {R11}
        CFI CFA R13+40
        PUSH     {R10}
        CFI CFA R13+44
        PUSH     {R9}
        CFI CFA R13+48
        PUSH     {R8}
        CFI CFA R13+52
        MOV      R3,R7
        MOV      R2,R6
        MOV      R1,R5
        MOV      R0,R4
        BL       avoid8int
        ADD      SP,SP,#+16
        CFI CFA R13+36
        POP      {R4-R11,PC}
//  163         } else
//  164         if(bbool()) {
??l_0:
        TST      R1,#0x80
        BEQ      ??l_2
//  165             bvoid2int(0, ac);
        MOV      R1,R8
        BL       bvoid2int
//  166             bvoid2int(1, N);
        MOV      R1,R9
        MOV      R0,#+1
        BL       bvoid2int
//  167             bvoid2int(2, s_int_static_fld);
        MOV      R1,R10
        MOV      R0,#+2
        BL       bvoid2int
//  168             bvoid2int(3, v_int_static_fld);
        MOV      R1,R11
        MOV      R0,#+3
        BL       bvoid2int
//  169             bvoid2int(4, O + 0);
        MOV      R1,R4
        MOV      R0,#+4
        BL       bvoid2int
//  170             bvoid2int(5, O + 1);
        MOV      R1,R5
        MOV      R0,#+5
        BL       bvoid2int
//  171             bvoid2int(6, g_int_static_fld + 0);
        MOV      R1,R6
        MOV      R0,#+6
        BL       bvoid2int
//  172             bvoid2int(7, g_int_static_fld + 1);
        MOV      R1,R7
        MOV      R0,#+7
        BL       bvoid2int
        POP      {R4-R11,PC}
//  173         } else {
//  174             bvoid2int(0, O + 0);
??l_2:
        MOV      R1,R4
        BL       bvoid2int
//  175             bvoid2int(1, O + 1);
        MOV      R1,R5
        MOV      R0,#+1
        BL       bvoid2int
//  176             bvoid2int(2, g_int_static_fld + 0);
        MOV      R1,R6
        MOV      R0,#+2
        BL       bvoid2int
//  177             bvoid2int(3, g_int_static_fld + 1);
        MOV      R1,R7
        MOV      R0,#+3
        BL       bvoid2int
//  178             bvoid2int(4, ac);
        MOV      R1,R8
        MOV      R0,#+4
        BL       bvoid2int
//  179             bvoid2int(5, N);
        MOV      R1,R9
        MOV      R0,#+5
        BL       bvoid2int
//  180             bvoid2int(6, s_int_static_fld);
        MOV      R1,R10
        MOV      R0,#+6
        BL       bvoid2int
//  181             bvoid2int(7, v_int_static_fld);
        MOV      R1,R11
        MOV      R0,#+7
        BL       bvoid2int
//  182         }
//  183     }
        POP      {R4-R11,PC}      ;; return
        CFI EndBlock cfiBlock25

        RSEG CODE:CODE:NOROOT(2)
        DATA
??DataTable7:
        DC32     j_int_array1d_static_fld

        RSEG CODE:CODE:NOROOT(2)
        CFI Block cfiBlock26 Using cfiCommon0
        CFI NoFunction
        THUMB
??run??rT:
        BX       PC
        Nop      
        CFI EndBlock cfiBlock26
        REQUIRE run
//  184 
//  185     #pragma optimize=no_code_motion

        RSEG CODE:CODE:NOROOT(2)
        CFI Block cfiBlock27 Using cfiCommon1
        CFI Function run
        ARM
//  186     void run() {
//  187         running=1;        
run:
        LDR      R0,??run_1       ;; running
        PUSH     {R4-R11,LR}
        CFI ?RET Frame(CFA, -4)
        CFI R11 Frame(CFA, -8)
        CFI R10 Frame(CFA, -12)
        CFI R9 Frame(CFA, -16)
        CFI R8 Frame(CFA, -20)
        CFI R7 Frame(CFA, -24)
        CFI R6 Frame(CFA, -28)
        CFI R5 Frame(CFA, -32)
        CFI R4 Frame(CFA, -36)
        CFI CFA R13+36
//  188         byte *abyte0 = vram;
        LDR      R11,??run_1+0x4  ;; j_int_array1d_static_fld
        SUB      SP,SP,#+872
        CFI CFA R13+908
        MOV      R1,#+1
        STR      R1,[R0, #+0]
        LDR      R5,[R11, #+2652]
//  189         byte byte4,byte5,byte6,byte7,byte8,byte9,byte10,byte11,byte12,byte13,byte14;
//  190         int k7;
//  191         int i8,i9,i10,i11,i12,i13,i14,i15,i16,i17,i18,i19,i20,i21,i22,i23,i24,i25,i26,i27,i28,i29,i30,i31,i32,i33,i34,i35,i36,i37;
//  192         int j8,j9,j10,j11,j12,j13,j14,j15,j16,j17,j18,j19,j20,j21,j22,j23,j24,j25,j26,j27,j28,j29,j30,j31,j32,j33,j34,j35,j36,j37;
//  193         int k8,k9,k10,k11,k12,k13,k14,k15,k16,k17,k18,k19,k20,k21,k22,k23,k24,k25,k26,k27,k28,k29,k30,k31,k32,k33,k34,k35,k36;
//  194         int l10,l11,l12,l13,l14,l15,l16,l17,l18,l19,l20,l21,l22,l23,l24,l25,l26,l27,l28,l29,l30,l31,l32,l33,l34,l35,l36;
//  195 
//  196         int i6,j6,i7,j7;
//  197 
//  198         int i1 = 0;
        MOV      R6,#+0
//  199         int j1 = 0;
//  200         int k1 = 0;
        MOV      R4,R6
//  201         int l1 = 0;
//  202         int i2 = 0;
        MOV      R1,R4
        STR      R1,[SP, #+0]
//  203         byte byte0 = 4;
//  204         int j2 = 255;
        MOV      R1,#+255
        STR      R1,[SP, #+4]
//  205         int k2 = 0;
//  206         int l2 = 1;
        MOV      R1,#+1
        STR      R1,[SP, #+24]
//  207         int i3 = 0;
        MOV      R1,R4
        STR      R1,[SP, #+44]
//  208         int j3 = 0;
        STR      R1,[SP, #+48]
//  209         int k3 = 0;
        STR      R1,[SP, #+52]
//  210         int l3 = 0;
        STR      R1,[SP, #+12]
//  211         int i4 = 0;
        STR      R1,[SP, #+56]
//  212         int j4 = -1;
        MVN      R1,R1
        STR      R1,[SP, #+28]
//  213         int ai[100];
//  214         int ai1[100];
//  215         int *ai2 = b_int_array1d_static_fld;
//  216         int k4 = abyte0[ai2[7] + 65532] & 0xff | (abyte0[ai2[7] + 65533] & 0xff) << 8;
        MOV      R2,#+164
        ORR      R2,R2,#0x900
        LDR      R1,[R2, +R11]
        MOV      R0,#+252
        ORR      R0,R0,#0xFF00
        ADD      R1,R1,R5
        ADD      R0,R0,R1
        LDRSB    R2,[R0, #+0]
        LDRSB    R0,[R0, #+1]
        AND      R2,R2,#0xFF
        AND      R0,R0,#0xFF
        ORR      R0,R2,R0, LSL #+8
        STR      R0,[SP, #+8]
//  217 
//  218 //new File().debugWrite("0:/vnes","\n"+Integer.toString(i5)+" = "+Integer.toString(k4));        
//  219       //debug(ai2[7],abyte0[ai2[7] + 65532]);////////////
//  220       //debug(ai2[7],abyte0[ai2[7] + 65533]);
//  221         //if(true) return; //
//  222         
//  223         int l4;
//  224         int i5 = k4 + (l4 = ai2[k4 >> 13]);
        MOV      R1,R0
        ASR      R1,R1,#+13
        ADD      R1,R11,R1, LSL #+2
        LDR      R1,[R1, #+2440]
        MOV      R10,#+0
        MOV      R9,R4
        MOV      R7,R4
        STR      R1,[SP, #+16]
        ADD      R8,R1,R0
//  225    
//  226    //new File().debugWrite("0:/vnes","\n"+Integer.toString(i5)+" = "+Integer.toString(k4));
//  227    
//  228         for(int j5 = 0; j5 < 100; j5++)
        MOV      R0,R4
        ADD      R1,SP,#+472
        MOV      R2,R0
//  229             ai1[j5] = 0;
??run_2:
        STR      R2,[R1, +R0, LSL #+2]
        ADD      R0,R0,#+1
        CMP      R0,#+100
        BLT      ??run_2
//  230 
//  231         int k5 = -50;
        MVN      R1,#+49
        STR      R1,[SP, #+32]
//  232         boolean flag = true;
        MOV      R1,#+1
        STR      R1,[SP, #+60]
//  233         int l5 = 0;
        MOV      R1,#+0
        STR      R1,[SP, #+36]
//  234         long l6 = SystemcurrentTimeMillis();
        STR      R1,[SP, #+40]
        MOV      R0,R1
//  235         c_long_static_fld = b_long_static_fld = 0L;
//  236         boolean flag1 = false;
//  237         boolean flag2 = i_boolean_static_fld;
        LDRB     R1,[R11, #+3199]
        STR      R0,[R11, #+2676]
        STR      R1,[SP, #+68]
//  238         boolean flag3 = false;
//  239         boolean flag4 = false;
//  240         m();
        B        ??run_3
//  241         k_int_static_fld = 0;
//  242         l_boolean_static_fld = j_boolean_static_fld = false;
//  243         s_boolean_static_fld = true;
//  244         
//  245         do {
//  246           
//  247             do {
//  248  //debug("dodo",1,1);////////////          
//  249               /* frameskip */
//  250              
//  251                  
//  252                 boolean flag5 = k5 % A == 0;
//  253                 if(t_boolean_static_fld) {
//  254                     l5 = p_int_static_fld + 1;
//  255                     if(l5 >= 240)
//  256                         l5 = -1;
//  257                 } else
//  258                 if((R & 0x18) != 0)
//  259                     D = y;
//  260                 for(int k6 = 0; k6 <= 261; k6++) {
//  261 //debug("k6",k6,k6);////////////                                  
//  262                     if(k6 == 261)
//  263                         o_int_static_fld &= 0x3f;
//  264                     else
//  265                     if(k6 == 241)
//  266                         o_int_static_fld |= 0x80;
//  267                     else
//  268                     if(k6 == 242) {
//  269                         if((S & 0x80) != 0) {
//  270                             k4 = i5 - l4;
//  271                             abyte0[j2-- + 256] = (byte)(k4 >> 8);
//  272                             abyte0[j2-- + 256] = (byte)k4;
//  273                             abyte0[j2-- + 256] = (byte)(k2 | (k1 == 0 ? 2 : 0) | (k1 >> 7) << 7 | l3 << 6 | l2 << 2);
//  274                             k4 = abyte0[ai2[7] + 65530] & 0xff | (abyte0[ai2[7] + 65531] & 0xff) << 8;
//  275                             i5 = k4 + (l4 = ai2[k4 >> 13]);
//  276                             i1 += 7;
//  277                             
//  278                         }
//  279                     } else
//  280                     if(t_boolean_static_fld && k6 == l5 + 1 && (R & 0x18) != 0)
//  281                         o_int_static_fld |= 0x40;
//  282                     if(k4 != j4) {
//  283                         if(t_boolean_static_fld)
//  284                           
//  285                             if(k6 <= 239) {
//  286                                 if(k6 > l5) {                 
//  287                                     i1 += 116 * (240 - k6);
//  288                                     k6 = 240;
//  289                                 } else
//  290                                 if(k6 < l5) {
//  291                                     i1 += 116 * (l5 - k6);
//  292                                     k6 = l5;
//  293                                     
//  294                                 }
//  295                             } else
//  296                             if(k6 >= 242 && k6 <= 259) {
//  297                                 i1 += 116 * (260 - k6);
//  298                                 k6 = 260;
//  299                                 
//  300                                 
//  301                             }
//  302                         i1 += 116;
//  303 //debug(999,i5);                        
//  304 label0:
//  305   
//  306   
//  307   if(!running) return;/////add
//  308                         do {
//  309                             if(i1 <= 0)                              
//  310                                                 break;
//  311 ///////debug("",i5,i1);  /usged!!
//  312 //if(i1==0x70){
//  313 //  ;
//  314 //}
//  315 							//debug(i5,i5);                                
//  316  //new File().debugWrite("0:/56","\n"+Integer.toString(i5)+" = "+Integer.toString(abyte0[i5]));
//  317          
//  318                    
//  319                    
//  320                             
//  321                             boolean flag6;
//  322                             boolean flag31;
//  323                             boolean flag32;
//  324                             boolean flag33;
//  325                             boolean flag34;
//  326                             boolean flag35;
//  327                             boolean flag36;
//  328                             boolean flag37;
//  329                             boolean flag38;
//  330                             boolean flag39;
//  331                             boolean flag40;
//  332                             boolean flag41;
//  333                             boolean flag42;
//  334                             boolean flag43;
//  335                             boolean flag44;
//  336                             boolean flag45;
//  337                             boolean flag46;
//  338                             boolean flag47;
//  339                             boolean flag48;
//  340                             boolean flag49;
//  341                             boolean flag50;
//  342                             boolean flag51;
//  343                             boolean flag52;
//  344                             boolean flag53;
//  345                             boolean flag54;
//  346                             boolean flag55;
//  347                             boolean flag56;
//  348                             boolean flag57;
//  349                             boolean flag58;
//  350                             boolean flag59;
//  351                             boolean flag60;
//  352                             boolean flag61;
//  353                             boolean flag62;
//  354                             boolean flag63;
//  355                             boolean flag64;
//  356                             boolean flag65;
//  357                             boolean flag66;
//  358                             boolean flag67;
//  359                             boolean flag68;
//  360                             boolean flag69;
//  361                             boolean flag70;
//  362                             boolean flag71;
//  363                             boolean flag72;
//  364                             boolean flag73;
//  365                             boolean flag74;
//  366                             boolean flag75;
//  367                             boolean flag76;
//  368                             boolean flag77;
//  369                             boolean flag78;
//  370                             
//  371                //31656
//  372 //                 31659//////////////
//  373  /*if(i5==31659 || i5==31656){
//  374    if(i5==31656) nnn=1;
//  375    if(i5==31659 && nnn==1)
//  376      printf("%d ",i5);                     
//  377  }else nnn=0;
//  378    */    //debug("i5",abyte0[i5],i5);////////////
//  379 /*  if(i5==16634){
//  380      printf("%d=%d",i5, ++nnn);
//  381      if(nnn==740)
//  382        nnn=0;
//  383   }*/
//  384                             
//  385                             
//  386                             switch(abyte0[i5++]) {
//  387                             default:
//  388 			                break;
//  389 			                           
//  390                             case 0: // '\0'
//  391                                 k4 = (i5 - l4) + 1;
//  392                                 abyte0[j2-- + 256] = (byte)(k4 >> 8);
//  393                                 abyte0[j2-- + 256] = (byte)k4;
//  394                                 abyte0[j2-- + 256] = (byte)(k2 | (k1 == 0 ? 2 : 0) | (k1 >> 7) << 7 | l3 << 6 | l2 << 2);
//  395                                 k4 = abyte0[ai2[7] + 65534] & 0xff | (abyte0[ai2[7] + 65535] & 0xff) << 8;
//  396                                 i5 = k4 + (l4 = ai2[k4 >> 13]);
//  397                                 j3 = 1;
//  398                                 l2 = 1;
//  399                                 i1 -= 7;
//  400                                 continue;
//  401 
//  402                             case 1: // '\001'
//  403                                 k7 = abyte0[i5++] + l1 & 0xff;
//  404                                 j1 |= aint1int(abyte0[k7] & 0xff | (abyte0[k7 + 1] & 0xff) << 8);
//  405                                 k1 = j1;
//  406                                 i1 -= 6;
//  407                                 continue;
//  408 
//  409                             case 2: // '\002'
//  410                                 //boolean flag7 = true;
//  411                                 continue;
//  412 
//  413                             case 3: // '\003'
//  414                                 //boolean flag8 = true;
//  415                                 continue;
//  416 
//  417                             case 4: // '\004'
//  418                                 i5++;
//  419                                 i1 -= 3;
//  420                                 continue;
//  421 
//  422                             case 5: // '\005'
//  423                                 j1 |= abyte0[abyte0[i5++] & 0xff] & 0xff;
//  424                                 k1 = j1;
//  425                                 i1 -= 3;
//  426                                 continue;
//  427 
//  428                             case 6: // '\006'
//  429                                 i8 = abyte0[i5++] & 0xff;
//  430                                 j8 = abyte0[i8] & 0xff;
//  431                                 k2 = j8 >> 7;
//  432                                 abyte0[i8] = (byte)(k1 = j8 << 1 & 0xff);
//  433                                 i1 -= 5;
//  434                                 continue;
//  435 
//  436                             case 7: // '\007'
//  437                                 //boolean flag9 = true;
//  438                                 continue;
//  439 
//  440                             case 8: // '\b'
//  441                                 abyte0[j2-- + 256] = (byte)(k2 | (k1 == 0 ? 2 : 0) | (k1 >> 7) << 7 | l3 << 6 | l2 << 2);
//  442                                 i1 -= 3;
//  443                                 continue;
//  444 
//  445                             case 9: // '\t'
//  446                                 j1 |= abyte0[i5++] & 0xff;
//  447                                 k1 = j1;
//  448                                 i1 -= 2;
//  449                                 continue;
//  450 
//  451                             case 10: // '\n'
//  452                                 k2 = j1 >> 7;
//  453                                 k1 = j1 = j1 << 1 & 0xff;
//  454                                 i1 -= 2;
//  455                                 continue;
//  456 
//  457                             case 11: // '\013'
//  458                                 //boolean flag10 = true;
//  459                                 continue;
//  460 
//  461                             case 12: // '\f'
//  462                                 i5 += 2;
//  463                                 i1 -= 4;
//  464                                 continue;
//  465 
//  466                             case 13: // '\r'
//  467                                 nn=abyte0[i5++] & 0xff;
//  468                                 j1 |= aint1int(nn | (abyte0[i5++] & 0xff) << 8);
//  469                                 k1 = j1;
//  470                                 i1 -= 4;
//  471                                 continue;
//  472 
//  473                             case 14: // '\016'
//  474                                 nn=abyte0[i5++] & 0xff;
//  475                                 k8 = nn | (abyte0[i5++] & 0xff) << 8;
//  476                                 i9 = aint1int(k8);
//  477                                 k2 = i9 >> 7;
//  478                                 avoid2int(k8, k1 = i9 << 1 & 0xff);
//  479                                 i1 -= 6;
//  480                                 continue;
//  481 
//  482                             case 15: // '\017'
//  483                                 //boolean flag11 = true;
//  484                                 continue;
//  485 
//  486                             case 16: // '\020'
//  487                             //debug("16-1",k1,i5);
//  488                                 if(k1 >> 7 == 0) {
//  489                                     byte byte2 = abyte0[i5++];
//  490                                     i5 += byte2;
//  491                                     i1 -= 3;
//  492                                     if(byte2 < 0 && byte2 >= -5) {
//  493                                         byte byte3 = abyte0[i5];
//  494                                         if(byte2 == -5 && (byte3 == -83 || byte3 == 44))
//  495                                             i1 = 0;
//  496                                         else
//  497                                         if(byte2 == -4 && byte3 == 6)
//  498                                             i1 = 0;
//  499                                     }
//  500                                 } else {
//  501                                     i5++;
//  502                                     i1 -= 2;
//  503                                 }
//  504                               //  debug("16-2",k1,i5);
//  505                                 continue;
//  506 
//  507                             case 17: // '\021'
//  508                                 j9 = abyte0[i5++] & 0xff;
//  509                                 j1 |= aint1int((abyte0[j9] & 0xff | (abyte0[j9 + 1] & 0xff) << 8) + i2);
//  510                                 k1 = j1;
//  511                                 i1 -= 5;
//  512                                 continue;
//  513 
//  514                             case 18: // '\022'
//  515                                 //boolean flag12 = true;
//  516                                 continue;
//  517 
//  518                             case 19: // '\023'
//  519                                 //boolean flag13 = true;
//  520                                 continue;
//  521 
//  522                             case 20: // '\024'
//  523                                 i5++;
//  524                                 i1 -= 4;
//  525                                 continue;
//  526 
//  527                             case 21: // '\025'
//  528                                 j1 |= abyte0[abyte0[i5++] + l1 & 0xff] & 0xff;
//  529                                 k1 = j1;
//  530                                 i1 -= 4;
//  531                                 continue;
//  532 
//  533                             case 22: // '\026'
//  534                                 k9 = abyte0[i5++] + l1 & 0xff;
//  535                                 i10 = abyte0[k9] & 0xff;
//  536                                 k2 = i10 >> 7;
//  537                                 abyte0[k9] = (byte)(k1 = i10 << 1 & 0xff);
//  538                                 i1 -= 6;
//  539                                 continue;
//  540 
//  541                             case 23: // '\027'
//  542                                 //boolean flag14 = true;
//  543                                 continue;
//  544 
//  545                             case 24: // '\030'
//  546                                 k2 = 0;
//  547                                 i1 -= 2;
//  548                                 continue;
//  549 
//  550                             case 25: // '\031'
//  551                                 nn=abyte0[i5++] & 0xff;
//  552                                 j1 |= aint1int((nn | (abyte0[i5++] & 0xff) << 8) + i2);
//  553                                 k1 = j1;
//  554                                 i1 -= 4;
//  555                                 continue;
//  556 
//  557                             case 26: // '\032'
//  558                                 i1 -= 2;
//  559                                 continue;
//  560 
//  561                             case 27: // '\033'
//  562                                 //boolean flag15 = true;
//  563                                 continue;
//  564 
//  565                             case 28: // '\034'
//  566                                 i5 += 2;
//  567                                 i1 -= 4;
//  568                                 continue;
//  569 
//  570                             case 29: // '\035'
//  571                                 nn=abyte0[i5++] & 0xff;
//  572                                 j1 |= aint1int((nn | (abyte0[i5++] & 0xff) << 8) + l1);
//  573                                 k1 = j1;
//  574                                 i1 -= 5;
//  575                                 continue;
//  576 
//  577                             case 30: // '\036'
//  578                                 nn=abyte0[i5++] & 0xff;
//  579                                 j10 = (nn | (abyte0[i5++] & 0xff) << 8) + l1;
//  580                                 k10 = aint1int(j10);
//  581                                 k2 = k10 >> 7;
//  582                                 avoid2int(j10, k1 = k10 << 1 & 0xff);
//  583                                 i1 -= 7;
//  584                                 continue;
//  585 
//  586                             case 31: // '\037'
//  587                                 //boolean flag16 = true;
//  588                                 continue;
//  589 
//  590                             case 32: // ' '
//  591                                 k4 = (i5 - l4) + 1;
//  592                                 abyte0[j2-- + 256] = (byte)(k4 >> 8);
//  593                                 abyte0[j2-- + 256] = (byte)k4;
//  594                                 k4 = abyte0[i5] & 0xff | (abyte0[i5 + 1] & 0xff) << 8;
//  595                                 i5 = k4 + (l4 = ai2[k4 >> 13]);
//  596                                 i1 -= 6;
//  597                                 continue;
//  598 
//  599                             case 33: // '!'
//  600                                 l10 = abyte0[i5++] + l1 & 0xff;
//  601                                 j1 &= aint1int(abyte0[l10] & 0xff | (abyte0[l10 + 1] & 0xff) << 8);
//  602                                 k1 = j1;
//  603                                 i1 -= 6;
//  604                                 continue;
//  605 
//  606                             case 34: // '"'
//  607                                 //boolean flag17 = true;
//  608                                 continue;
//  609 
//  610                             case 35: // '#'
//  611                                 //boolean flag18 = true;
//  612                                 continue;
//  613 
//  614                             case 36: // '$'
//  615                                 i11 = abyte0[abyte0[i5++] & 0xff] & 0xff;
//  616                                 l3 = i11 >> 6 & 1;
//  617                                 byte4 = abyte0[i5];
//  618                                 if(byte4 == 16 || byte4 == 48)
//  619                                     k1 = i11;
//  620                                 else
//  621                                     k1 = j1 & i11;
//  622                                 i1 -= 3;
//  623                                 continue;
//  624 
//  625                             case 37: // '%'
//  626                                 j1 &= abyte0[abyte0[i5++] & 0xff] & 0xff;
//  627                                 k1 = j1;
//  628                                 i1 -= 3;
//  629                                 continue;
//  630 
//  631                             case 38: // '&'
//  632                                 j11 = abyte0[i5++] & 0xff;
//  633                                 k11 = abyte0[j11] & 0xff;
//  634                                 k11 = k11 << 1 | k2;
//  635                                 k2 = k11 >> 8;
//  636                                 abyte0[j11] = (byte)(k1 = k11 & 0xff);
//  637                                 i1 -= 5;
//  638                                 continue;
//  639 
//  640                             case 39: // '\''
//  641                                 //boolean flag19 = true;
//  642                                 continue;
//  643 
//  644                             case 40: // '('
//  645                                 l11 = abyte0[++j2 + 256] & 0xff;
//  646                                 k2 = l11 & 1;
//  647                                 k1 = ((l11 >> 1 & 1) == 0 ? 1 : 0) | (l11 >> 7) << 7;
//  648                                 l3 = l11 >> 6 & 1;
//  649                                 l2 = l11 >> 2 & 1;
//  650                                 i1 -= 4;
//  651                                 continue;
//  652 
//  653                             case 41: // ')'
//  654                                 j1 &= abyte0[i5++] & 0xff;
//  655                                 k1 = j1;
//  656                                 i1 -= 2;
//  657                                 continue;
//  658 
//  659                             case 42: // '*'
//  660                                 j1 = j1 << 1 | k2;
//  661                                 k2 = j1 >> 8;
//  662                                 j1 &= 0xff;
//  663                                 k1 = j1;
//  664                                 i1 -= 2;
//  665                                 continue;
//  666 
//  667                             case 43: // '+'
//  668                                 //boolean flag20 = true;
//  669                                 continue;
//  670 
//  671                             case 44: // ','
//  672                                 nn=abyte0[i5++] & 0xff;
//  673                                 i12 = aint1int( nn| (abyte0[i5++] & 0xff) << 8);
//  674                                 l3 = i12 >> 6 & 1;
//  675                                 byte5 = abyte0[i5];
//  676                                 if(byte5 == 16 || byte5 == 48)
//  677                                     k1 = i12;
//  678                                 else
//  679                                     k1 = j1 & i12;
//  680                                 i1 -= 4;
//  681                                 continue;
//  682 
//  683                             case 45: // '-'
//  684                                 nn=abyte0[i5++] & 0xff;
//  685                                 j1 &= aint1int(nn | (abyte0[i5++] & 0xff) << 8);
//  686                                 k1 = j1;
//  687                                 i1 -= 4;
//  688                                 continue;
//  689 
//  690                             case 46: // '.'
//  691                                 nn=abyte0[i5++] & 0xff;
//  692                                 j12 = nn | (abyte0[i5++] & 0xff) << 8;
//  693                                 k12 = aint1int(j12);
//  694                                 k12 = k12 << 1 | k2;
//  695                                 k2 = k12 >> 8;
//  696                                 avoid2int(j12, k1 = k12 & 0xff);
//  697                                 i1 -= 6;
//  698                                 continue;
//  699 
//  700                             case 47: // '/'
//  701                                 //boolean flag21 = true;
//  702                                 continue;
//  703 
//  704                             case 48: // '0'
//  705                                 if(k1 >> 7 != 0) {
//  706                                     byte6 = abyte0[i5++];
//  707                                     i5 += byte6;
//  708                                     i1--;
//  709                                 } else {
//  710                                     i5++;
//  711                                 }
//  712                                 i1 -= 2;
//  713                                 continue;
//  714 
//  715                             case 49: // '1'
//  716                                 l12 = abyte0[i5++] & 0xff;
//  717                                 j1 &= aint1int((abyte0[l12] & 0xff | (abyte0[l12 + 1] & 0xff) << 8) + i2);
//  718                                 k1 = j1;
//  719                                 i1 -= 5;
//  720                                 continue;
//  721 
//  722                             case 50: // '2'
//  723                                 //boolean flag22 = true;
//  724                                 continue;
//  725 
//  726                             case 51: // '3'
//  727                                 //boolean flag23 = true;
//  728                                 continue;
//  729 
//  730                             case 52: // '4'
//  731                                 i5++;
//  732                                 i1 -= 4;
//  733                                 continue;
//  734 
//  735                             case 53: // '5'
//  736                                 j1 &= abyte0[abyte0[i5++] + l1 & 0xff] & 0xff;
//  737                                 k1 = j1;
//  738                                 i1 -= 4;
//  739                                 continue;
//  740 
//  741                             case 54: // '6'
//  742                                 i13 = abyte0[i5++] + l1 & 0xff;
//  743                                 j13 = abyte0[i13] & 0xff;
//  744                                 j13 = j13 << 1 | k2;
//  745                                 k2 = j13 >> 8;
//  746                                 abyte0[i13] = (byte)(k1 = j13 & 0xff);
//  747                                 i1 -= 6;
//  748                                 continue;
//  749 
//  750                             case 55: // '7'
//  751                                 //boolean flag24 = true;
//  752                                 continue;
//  753 
//  754                             case 56: // '8'
//  755                                 k2 = 1;
//  756                                 i1 -= 2;
//  757                                 continue;
//  758 
//  759                             case 57: // '9'
//  760                                 nn=abyte0[i5++] & 0xff;
//  761                                 j1 &= aint1int((nn | (abyte0[i5++] & 0xff) << 8) + i2);
//  762                                 k1 = j1;
//  763                                 i1 -= 4;
//  764                                 continue;
//  765 
//  766                             case 58: // ':'
//  767                                 i1 -= 2;
//  768                                 continue;
//  769 
//  770                             case 59: // ';'
//  771                                 //boolean flag25 = true;
//  772                                 continue;
//  773 
//  774                             case 60: // '<'
//  775                                 i5 += 2;
//  776                                 i1 -= 4;
//  777                                 continue;
//  778 
//  779                             case 61: // '='
//  780                                 nn=abyte0[i5++] & 0xff;
//  781                                 j1 &= aint1int((nn | (abyte0[i5++] & 0xff) << 8) + l1);
//  782                                 k1 = j1;
//  783                                 i1 -= 5;
//  784                                 continue;
//  785 
//  786                             case 62: // '>'
//  787                                 nn=abyte0[i5++] & 0xff;
//  788                                 k13 = (nn | (abyte0[i5++] & 0xff) << 8) + l1;
//  789                                 l13 = aint1int(k13);
//  790                                 l13 = l13 << 1 | k2;
//  791                                 k2 = l13 >> 8;
//  792                                 avoid2int(k13, k1 = l13 & 0xff);
//  793                                 i1 -= 7;
//  794                                 continue;
//  795 
//  796                             case 63: // '?'
//  797                                 //boolean flag26 = true;
//  798                                 continue;
//  799 
//  800                             case 64: // '@'
//  801                                 i14 = abyte0[++j2 + 256] & 0xff;
//  802                                 k2 = i14 & 1;
//  803                                 k1 = ((i14 >> 1 & 1) == 0 ? 1 : 0) | (i14 >> 7) << 7;
//  804                                 l3 = i14 >> 6 & 1;
//  805                                 l2 = i14 >> 2 & 1;
//  806                                 nn=abyte0[++j2 + 256] & 0xff;
//  807                                 k4 = nn | (abyte0[++j2 + 256] & 0xff) << 8;
//  808                                 i5 = k4 + (l4 = ai2[k4 >> 13]);
//  809                                 i1 -= 6;
//  810                                 continue;
//  811 
//  812                             case 65: // 'A'
//  813                                 j14 = abyte0[i5++] + l1 & 0xff;
//  814                                 j14 = abyte0[j14] & 0xff | (abyte0[j14 + 1] & 0xff) << 8;
//  815                                 j1 ^= aint1int(j14);
//  816                                 k1 = j1;
//  817                                 i1 -= 6;
//  818                                 continue;
//  819 
//  820                             case 66: // 'B'
//  821                                 //boolean flag27 = true;
//  822                                 continue;
//  823 
//  824                             case 67: // 'C'
//  825                                 //boolean flag28 = true;
//  826                                 continue;
//  827 
//  828                             case 68: // 'D'
//  829                                 i5++;
//  830                                 i1 -= 3;
//  831                                 continue;
//  832 
//  833                             case 69: // 'E'
//  834                                 j1 ^= abyte0[abyte0[i5++] & 0xff] & 0xff;
//  835                                 k1 = j1;
//  836                                 i1 -= 3;
//  837                                 continue;
//  838 
//  839                             case 70: // 'F'
//  840                                 k14 = abyte0[i5++] & 0xff;
//  841                                 l14 = abyte0[k14] & 0xff;
//  842                                 k2 = l14 & 1;
//  843                                 abyte0[k14] = (byte)(k1 = l14 >> 1);
//  844                                 i1 -= 5;
//  845                                 continue;
//  846 
//  847                             case 71: // 'G'
//  848                                 //boolean flag29 = true;
//  849                                 continue;
//  850 
//  851                             case 72: // 'H'
//  852                                 abyte0[j2-- + 256] = (byte)j1;
//  853                                 i1 -= 3;
//  854                                 continue;
//  855 
//  856                             case 73: // 'I'
//  857                                 j1 ^= abyte0[i5++] & 0xff;
//  858                                 k1 = j1;
//  859                                 i1 -= 2;
//  860                                 continue;
//  861 
//  862                             case 74: // 'J'
//  863                                 k2 = j1 & 1;
//  864                                 j1 >>= 1;
//  865                                 k1 = j1;
//  866                                 i1 -= 2;
//  867                                 continue;
//  868 
//  869                             case 75: // 'K'
//  870                                 //boolean flag30 = true;
//  871                                 continue;
//  872 
//  873                             case 76: // 'L'
//  874                                 i15 = i5 - 1;
//  875                                 k4 = abyte0[i5] & 0xff | (abyte0[i5 + 1] & 0xff) << 8;
//  876                                 i5 = k4 + (l4 = ai2[k4 >> 13]);
//  877                                 i1 -= 3;
//  878                                 if(i5 == j4 || i5 == i15) {
//  879                                     i1 = 0;
//  880                                     continue;
//  881                                 }
//  882                                 if(!flag)
//  883                                     continue;
//  884                                 j15 = 1;
//  885                                 k15 = 0;
//  886                                 do {
//  887                                     if(k15 >= 100)
//  888                                         break;
//  889                                     if(ai[k15] == i5) {
//  890                                         ai1[k15]++;
//  891                                         j15 = 0;
//  892                                         break;
//  893                                     }
//  894                                     k15++;
//  895                                 } while(true);
//  896                                 if(j15 <= 0)
//  897                                     continue;
//  898                                 k15 = 0;
//  899                                 do {
//  900                                     if(k15 >= 100)
//  901                                       goto label0;   //  continue
//  902                                     if(ai1[k15] == 0) {
//  903                                         ai1[k15]++;
//  904                                         ai[k15] = i5;
//  905                                         goto label0;  //continue
//  906                                     }
//  907                                     k15++;
//  908                                 } while(true);
//  909 
//  910                             case 77: // 'M'
//  911                                 nn=abyte0[i5++] & 0xff;
//  912                                 j1 ^= aint1int(nn | (abyte0[i5++] & 0xff) << 8);
//  913                                 k1 = j1;
//  914                                 i1 -= 4;
//  915                                 break;
//  916 
//  917                             case 78: // 'N'
//  918                                 nn=abyte0[i5++] & 0xff;
//  919                                 l15 = nn | (abyte0[i5++] & 0xff) << 8;
//  920                                 i16 = aint1int(l15);
//  921                                 k2 = i16 & 1;
//  922                                 avoid2int(l15, k1 = i16 >> 1);
//  923                                 i1 -= 6;
//  924                                 break;
//  925 
//  926                             case 79: // 'O'
//  927                                 flag31 = true;
//  928                                 break;
//  929 
//  930                             case 80: // 'P'
//  931                                 if(l3 == 0) {
//  932                                     byte7 = abyte0[i5++];
//  933                                     i5 += byte7;
//  934                                     i1 -= 3;
//  935                                     if(byte7 < 0 && byte7 >= -5) {
//  936                                         byte8 = abyte0[i5];
//  937                                         if(byte7 == -5 && byte8 == 44)
//  938                                             i1 = 0;
//  939                                     }
//  940                                 } else {
//  941                                     i5++;
//  942                                     i1 -= 2;
//  943                                 }
//  944                                 break;
//  945 
//  946                             case 81: // 'Q'
//  947                                 j16 = abyte0[i5++] & 0xff;
//  948                                 j1 ^= aint1int((abyte0[j16] & 0xff | (abyte0[j16 + 1] & 0xff) << 8) + i2);
//  949                                 k1 = j1;
//  950                                 i1 -= 5;
//  951                                 break;
//  952 
//  953                             case 82: // 'R'
//  954                                 flag32 = true;
//  955                                 break;
//  956 
//  957                             case 83: // 'S'
//  958                                 flag33 = true;
//  959                                 break;
//  960 
//  961                             case 84: // 'T'
//  962                                 i5++;
//  963                                 i1 -= 4;
//  964                                 break;
//  965 
//  966                             case 85: // 'U'
//  967                                 j1 ^= abyte0[abyte0[i5++] + l1 & 0xff] & 0xff;
//  968                                 k1 = j1;
//  969                                 i1 -= 4;
//  970                                 break;
//  971 
//  972                             case 86: // 'V'
//  973                                 k16 = abyte0[i5++] + l1 & 0xff;
//  974                                 l16 = abyte0[k16] & 0xff;
//  975                                 k2 = l16 & 1;
//  976                                 abyte0[k16] = (byte)(k1 = l16 >> 1);
//  977                                 i1 -= 6;
//  978                                 break;
//  979 
//  980                             case 87: // 'W'
//  981                                 flag34 = true;
//  982                                 break;
//  983 
//  984                             case 88: // 'X'
//  985                                 l2 = 0;
//  986                                 i1 -= 2;
//  987                                 break;
//  988 
//  989                             case 89: // 'Y'
//  990                                 nn=abyte0[i5++] & 0xff;
//  991                                 j1 ^= aint1int((nn | (abyte0[i5++] & 0xff) << 8) + i2);
//  992                                 k1 = j1;
//  993                                 i1 -= 4;
//  994                                 break;
//  995 
//  996                             case 90: // 'Z'
//  997                                 i1 -= 2;
//  998                                 break;
//  999 
// 1000                             case 91: // '['
// 1001                                 flag35 = true;
// 1002                                 break;
// 1003 
// 1004                             case 92: // '\\'
// 1005                                 i5 += 2;
// 1006                                 i1 -= 4;
// 1007                                 break;
// 1008 
// 1009                             case 93: // ']'
// 1010                                 nn=abyte0[i5++] & 0xff;
// 1011                                 j1 ^= aint1int((nn | (abyte0[i5++] & 0xff) << 8) + l1);
// 1012                                 k1 = j1;
// 1013                                 i1 -= 5;
// 1014                                 break;
// 1015 
// 1016                             case 94: // '^'
// 1017                                 nn=abyte0[i5++] & 0xff;
// 1018                                 i17 = (nn | (abyte0[i5++] & 0xff) << 8) + l1;
// 1019                                 j17 = aint1int(i17);
// 1020                                 k2 = j17 & 1;
// 1021                                 avoid2int(i17, k1 = j17 >> 1);
// 1022                                 i1 -= 7;
// 1023                                 break;
// 1024 
// 1025                             case 95: // '_'
// 1026                                 flag36 = true;
// 1027                                 break;
// 1028 
// 1029                             case 96: // '`'
// 1030                               nn=abyte0[++j2 + 256] & 0xff;
// 1031                                 k4 = (nn | (abyte0[++j2 + 256] & 0xff) << 8) + 1;
// 1032                                 i5 = k4 + (l4 = ai2[k4 >> 13]);
// 1033                                 i1 -= 4;
// 1034                                 break;
// 1035 
// 1036                             case 97: // 'a'
// 1037                                 k17 = abyte0[i5++] + l1 & 0xff;
// 1038                                 l17 = aint1int(abyte0[k17] & 0xff | (abyte0[k17 + 1] & 0xff) << 8);
// 1039                                 i18 = j1 + l17 + k2;
// 1040                                 l3 = (~(j1 ^ l17) & (j1 ^ i18)) >> 7 & 1;
// 1041                                 k2 = i18 >> 8;
// 1042                                 j1 = i18 & 0xff;
// 1043                                 k1 = j1;
// 1044                                 i1 -= 6;
// 1045                                 break;
// 1046 
// 1047                             case 98: // 'b'
// 1048                                 flag37 = true;
// 1049                                 break;
// 1050 
// 1051                             case 99: // 'c'
// 1052                                 flag38 = true;
// 1053                                 break;
// 1054 
// 1055                             case 100: // 'd'
// 1056                                 i5++;
// 1057                                 i1 -= 3;
// 1058                                 break;
// 1059 
// 1060                             case 101: // 'e'
// 1061                                 j18 = abyte0[abyte0[i5++] & 0xff] & 0xff;
// 1062                                 k18 = j1 + j18 + k2;
// 1063                                 l3 = (~(j1 ^ j18) & (j1 ^ k18)) >> 7 & 1;
// 1064                                 k2 = k18 >> 8;
// 1065                                 k1 = j1 = k18 & 0xff;
// 1066                                 i1 -= 3;
// 1067                                 break;
// 1068 
// 1069                             case 102: // 'f'
// 1070                                 l18 = abyte0[i5++] & 0xff;
// 1071                                 i19 = abyte0[l18] & 0xff;
// 1072                                 j19 = k2 << 7;
// 1073                                 k2 = i19 & 1;
// 1074                                 abyte0[l18] = (byte)(k1 = i19 >> 1 | j19);
// 1075                                 i1 -= 5;
// 1076                                 break;
// 1077 
// 1078                             case 103: // 'g'
// 1079                                 flag39 = true;
// 1080                                 break;
// 1081 
// 1082                             case 104: // 'h'
// 1083                                 k1 = j1 = abyte0[++j2 + 256] & 0xff;
// 1084                                 i1 -= 4;
// 1085                                 break;
// 1086 
// 1087                             case 105: // 'i'
// 1088                                 k19 = abyte0[i5++] & 0xff;
// 1089                                 l19 = j1 + k19 + k2;
// 1090                                 l3 = (~(j1 ^ k19) & (j1 ^ l19)) >> 7 & 1;
// 1091                                 k2 = l19 >> 8;
// 1092                                 k1 = j1 = l19 & 0xff;
// 1093                                 i1 -= 2;
// 1094                                 break;
// 1095 
// 1096                             case 106: // 'j'
// 1097                                 i20 = k2;
// 1098                                 k2 = j1 & 1;
// 1099                                 k1 = j1 = j1 >> 1 | i20 << 7;
// 1100                                 i1 -= 2;
// 1101                                 break;
// 1102 
// 1103                             case 107: // 'k'
// 1104                                 flag40 = true;
// 1105                                 break;
// 1106 
// 1107                             case 108: // 'l'
// 1108                                 nn=abyte0[i5++] & 0xff;
// 1109                                 j20 = nn | (abyte0[i5++] & 0xff) << 8;
// 1110                                 if((j20 & 0xff) == 255)
// 1111                                     k4 = aint1int(j20) | aint1int(j20 & 0xff00) << 8;
// 1112                                 else
// 1113                                     k4 = aint1int(j20) | aint1int(j20 + 1) << 8;
// 1114                                 i5 = k4 + (l4 = ai2[k4 >> 13]);
// 1115                                 i1 -= 5;
// 1116                                 break;
// 1117 
// 1118                             case 109: // 'm'
// 1119                                 nn=abyte0[i5++] & 0xff;
// 1120                                 k20 = aint1int(nn | (abyte0[i5++] & 0xff) << 8);
// 1121                                 l20 = j1 + k20 + k2;
// 1122                                 l3 = (~(j1 ^ k20) & (j1 ^ l20)) >> 7 & 1;
// 1123                                 k2 = l20 >> 8;
// 1124                                 k1 = j1 = l20 & 0xff;
// 1125                                 i1 -= 4;
// 1126                                 break;
// 1127 
// 1128                             case 110: // 'n'
// 1129                                 nn=abyte0[i5++] & 0xff;
// 1130                                 i21 = nn | (abyte0[i5++] & 0xff) << 8;
// 1131                                 j21 = aint1int(i21);
// 1132                                 k21 = k2 << 7;
// 1133                                 k2 = j21 & 1;
// 1134                                 avoid2int(i21, k1 = j21 >> 1 | k21);
// 1135                                 i1 -= 6;
// 1136                                 break;
// 1137 
// 1138                             case 111: // 'o'
// 1139                                 flag41 = true;
// 1140                                 break;
// 1141 
// 1142                             case 112: // 'p'
// 1143                                 if(l3 != 0) {
// 1144                                     byte9 = abyte0[i5++];
// 1145                                     i5 += byte9;
// 1146                                     i1--;
// 1147                                 } else {
// 1148                                     i5++;
// 1149                                 }
// 1150                                 i1 -= 4;
// 1151                                 break;
// 1152 
// 1153                             case 113: // 'q'
// 1154                                 l21 = abyte0[i5++] & 0xff;
// 1155                                 i22 = aint1int((abyte0[l21] & 0xff | (abyte0[l21 + 1] & 0xff) << 8) + i2);
// 1156                                 j22 = j1 + i22 + k2;
// 1157                                 l3 = (~(j1 ^ i22) & (j1 ^ j22)) >> 7 & 1;
// 1158                                 k2 = j22 >> 8;
// 1159                                 k1 = j1 = j22 & 0xff;
// 1160                                 i1 -= 5;
// 1161                                 break;
// 1162 
// 1163                             case 114: // 'r'
// 1164                                 flag42 = true;
// 1165                                 break;
// 1166 
// 1167                             case 115: // 's'
// 1168                                 flag43 = true;
// 1169                                 break;
// 1170 
// 1171                             case 116: // 't'
// 1172                                 i5++;
// 1173                                 i1 -= 4;
// 1174                                 break;
// 1175 
// 1176                             case 117: // 'u'
// 1177                                 k22 = abyte0[abyte0[i5++] + l1 & 0xff] & 0xff;
// 1178                                 l22 = j1 + k22 + k2;
// 1179                                 l3 = (~(j1 ^ k22) & (j1 ^ l22)) >> 7 & 1;
// 1180                                 k2 = l22 >> 8;
// 1181                                 k1 = j1 = l22 & 0xff;
// 1182                                 i1 -= 4;
// 1183                                 break;
// 1184 
// 1185                             case 118: // 'v'
// 1186                                 i23 = abyte0[i5++] + l1 & 0xff;
// 1187                                 j23 = abyte0[i23] & 0xff;
// 1188                                 k23 = k2 << 7;
// 1189                                 k2 = j23 & 1;
// 1190                                 abyte0[i23] = (byte)(k1 = j23 >> 1 | k23);
// 1191                                 i1 -= 6;
// 1192                                 break;
// 1193 
// 1194                             case 119: // 'w'
// 1195                                 flag44 = true;
// 1196                                 break;
// 1197 
// 1198                             case 120: // 'x'
// 1199                                 l2 = 1;
// 1200                                 i1 -= 2;
// 1201                                 break;
// 1202 
// 1203                             case 121: // 'y'
// 1204                                 nn=abyte0[i5++] & 0xff;
// 1205                                 l23 = aint1int((nn | (abyte0[i5++] & 0xff) << 8) + i2);
// 1206                                 i24 = j1 + l23 + k2;
// 1207                                 l3 = (~(j1 ^ l23) & (j1 ^ i24)) >> 7 & 1;
// 1208                                 k2 = i24 >> 8;
// 1209                                 k1 = j1 = i24 & 0xff;
// 1210                                 i1 -= 4;
// 1211                                 break;
// 1212 
// 1213                             case 122: // 'z'
// 1214                                 i1 -= 2;
// 1215                                 break;
// 1216 
// 1217                             case 123: // '{'
// 1218                                 flag45 = true;
// 1219                                 break;
// 1220 
// 1221                             case 124: // '|'
// 1222                                 i5 += 2;
// 1223                                 i1 -= 4;
// 1224                                 break;
// 1225 
// 1226                             case 125: // '}'
// 1227                                 nn=abyte0[i5++] & 0xff;
// 1228                                 j24 = aint1int((nn | (abyte0[i5++] & 0xff) << 8) + l1);
// 1229                                 k24 = j1 + j24 + k2;
// 1230                                 l3 = (~(j1 ^ j24) & (j1 ^ k24)) >> 7 & 1;
// 1231                                 k2 = k24 >> 8;
// 1232                                 k1 = j1 = k24 & 0xff;
// 1233                                 i1 -= 5;
// 1234                                 break;
// 1235 
// 1236                             case 126: // '~'
// 1237                                 nn=abyte0[i5++] & 0xff;
// 1238                                 l24 = (nn | (abyte0[i5++] & 0xff) << 8) + l1;
// 1239                                 i25 = aint1int(l24);
// 1240                                 j25 = k2 << 7;
// 1241                                 k2 = i25 & 1;
// 1242                                 avoid2int(l24, k1 = i25 >> 1 | j25);
// 1243                                 i1 -= 7;
// 1244                                 break;
// 1245 
// 1246                             case 127: // '\177'
// 1247                                 flag46 = true;
// 1248                                 break;
// 1249 
// 1250                             case -128: 
// 1251                                 i5++;
// 1252                                 i1 -= 2;
// 1253                                 break;
// 1254 
// 1255                             case -127: 
// 1256                               /* STA */                              
// 1257                                 k25 = abyte0[i5++] + l1 & 0xff;
// 1258                                 avoid2int(abyte0[k25] & 0xff | (abyte0[k25 + 1] & 0xff) << 8, j1);
// 1259                                 i1 -= 6;
// 1260                                 break;
// 1261 
// 1262                             case -126: 
// 1263                                 i5++;
// 1264                                 i1 -= 2;
// 1265                                 break;
// 1266 
// 1267                             case -125: 
// 1268                                 flag47 = true;
// 1269                                 break;
// 1270 
// 1271                             case -124: 
// 1272                                 abyte0[abyte0[i5++] & 0xff] = (byte)i2;
// 1273                                 i1 -= 3;
// 1274                                 break;
// 1275 
// 1276                             case -123: 
// 1277                                 abyte0[abyte0[i5++] & 0xff] = (byte)j1;
// 1278                                 i1 -= 3;
// 1279                                 break;
// 1280 
// 1281                             case -122: 
// 1282                                 abyte0[abyte0[i5++] & 0xff] = (byte)l1;
// 1283                                 i1 -= 3;
// 1284                                 break;
// 1285 
// 1286                             case -121: 
// 1287                                 flag48 = true;
// 1288                                 break;
// 1289 
// 1290                             case -120: 
// 1291                                 k1 = i2 = i2 - 1 & 0xff;
// 1292                                 i1 -= 2;
// 1293                                 break;
// 1294 
// 1295                             case -119: 
// 1296                                 i5++;
// 1297                                 i1 -= 2;
// 1298                                 break;
// 1299 
// 1300                             case -118: 
// 1301                                 k1 = j1 = l1;
// 1302                                 i1 -= 2;
// 1303                                 break;
// 1304 
// 1305                             case -117: 
// 1306                                 flag49 = true;
// 1307                                 break;
// 1308 
// 1309                             case -116: 
// 1310                                 nn=abyte0[i5++] & 0xff;
// 1311                                 avoid2int(nn | (abyte0[i5++] & 0xff) << 8, i2);
// 1312                                 i1 -= 4;
// 1313                                 break;
// 1314 
// 1315                             case -115: 
// 1316                                 nn=abyte0[i5++] & 0xff;
// 1317                                 avoid2int(nn | (abyte0[i5++] & 0xff) << 8, j1);
// 1318                                 i1 -= 4;
// 1319                                 break;
// 1320 
// 1321                             case -114: 
// 1322                                 nn=abyte0[i5++] & 0xff;
// 1323                                 avoid2int(nn | (abyte0[i5++] & 0xff) << 8, l1);
// 1324                                 i1 -= 4;
// 1325                                 break;
// 1326 
// 1327                             case -113: 
// 1328                                 flag50 = true;
// 1329                                 break;
// 1330 
// 1331                             case -112: 
// 1332                                 if(k2 == 0) {
// 1333                                     byte10 = abyte0[i5++];
// 1334                                     i5 += byte10;
// 1335                                     i1--;
// 1336                                 } else {
// 1337                                     i5++;
// 1338                                 }
// 1339                                 i1 -= 2;
// 1340                                 break;
// 1341 
// 1342                             case -111: 
// 1343                                 l25 = abyte0[i5++] & 0xff;
// 1344                                 avoid2int((abyte0[l25] & 0xff | (abyte0[l25 + 1] & 0xff) << 8) + i2, j1);
// 1345                                 i1 -= 6;
// 1346                                 break;
// 1347 
// 1348                             case -110: 
// 1349                                 flag51 = true;
// 1350                                 break;
// 1351 
// 1352                             case -109: 
// 1353                                 flag52 = true;
// 1354                                 break;
// 1355 
// 1356                             case -108: 
// 1357                                 abyte0[abyte0[i5++] + l1 & 0xff] = (byte)i2;
// 1358                                 i1 -= 4;
// 1359                                 break;
// 1360 
// 1361                             case -107: 
// 1362                                 abyte0[abyte0[i5++] + l1 & 0xff] = (byte)j1;
// 1363                                 i1 -= 4;
// 1364                                 break;
// 1365 
// 1366                             case -106: 
// 1367                                 abyte0[abyte0[i5++] + i2 & 0xff] = (byte)l1;
// 1368                                 i1 -= 4;
// 1369                                 break;
// 1370 
// 1371                             case -105: 
// 1372                                 flag53 = true;
// 1373                                 break;
// 1374 
// 1375                             case -104: 
// 1376                                 k1 = j1 = i2;
// 1377                                 i1 -= 2;
// 1378                                 break;
// 1379 
// 1380                             case -103: 
// 1381                                 nn=abyte0[i5++] & 0xff;
// 1382                                 avoid2int((nn | (abyte0[i5++] & 0xff) << 8) + i2, j1);
// 1383                                 i1 -= 5;
// 1384                                 break;
// 1385 
// 1386                             case -102: 
// 1387                                 j2 = l1;
// 1388                                 i1 -= 2;
// 1389                                 break;
// 1390 
// 1391                             case -101: 
// 1392                                 flag54 = true;
// 1393                                 break;
// 1394 
// 1395                             case -100: 
// 1396                                 flag55 = true;
// 1397                                 break;
// 1398 
// 1399                             case -99: 
// 1400                                 nn=abyte0[i5++] & 0xff;
// 1401                                 avoid2int((nn | (abyte0[i5++] & 0xff) << 8) + l1, j1);
// 1402                                 i1 -= 5;
// 1403                                 break;
// 1404 
// 1405                             case -98: 
// 1406                                 flag56 = true;
// 1407                                 break;
// 1408 
// 1409                             case -97: 
// 1410                                 flag57 = true;
// 1411                                 break;
// 1412 
// 1413                             case -96: 
// 1414                                 k1 = i2 = abyte0[i5++] & 0xff;
// 1415                                 i1 -= 2;
// 1416                                 break;
// 1417 
// 1418                             case -95: 
// 1419                                 i26 = abyte0[i5++] + l1 & 0xff;
// 1420                                 k1 = j1 = aint1int(abyte0[i26] & 0xff | (abyte0[i26 + 1] & 0xff) << 8);
// 1421                                 i1 -= 6;
// 1422                                 break;
// 1423 
// 1424                             case -94: 
// 1425                                 k1 = l1 = abyte0[i5++] & 0xff;
// 1426                                 i1 -= 2;
// 1427                                 break;
// 1428 
// 1429                             case -93: 
// 1430                                 flag58 = true;
// 1431                                 break;
// 1432 
// 1433                             case -92: 
// 1434                                 k1 = i2 = abyte0[abyte0[i5++] & 0xff] & 0xff;
// 1435                                 i1 -= 3;
// 1436                                 break;
// 1437 
// 1438                             case -91: 
// 1439                                 k1 = j1 = abyte0[abyte0[i5++] & 0xff] & 0xff;
// 1440                                 i1 -= 3;
// 1441                                 break;
// 1442 
// 1443                             case -90: 
// 1444                                 k1 = l1 = abyte0[abyte0[i5++] & 0xff] & 0xff;
// 1445                                 i1 -= 3;
// 1446                                 break;
// 1447 
// 1448                             case -89: 
// 1449                                 flag59 = true;
// 1450                                 break;
// 1451 
// 1452                             case -88: 
// 1453                                 k1 = i2 = j1;
// 1454                                 i1 -= 2;
// 1455                                 break;
// 1456 
// 1457                             case -87: 
// 1458                                 k1 = j1 = abyte0[i5++] & 0xff;
// 1459                                 i1 -= 2;
// 1460                                 break;
// 1461 
// 1462                             case -86: 
// 1463                                 k1 = l1 = j1;
// 1464                                 i1 -= 2;
// 1465                                 break;
// 1466 
// 1467                             case -85: 
// 1468                                 flag60 = true;
// 1469                                 break;
// 1470 
// 1471                             case -84: 
// 1472                                 nn=abyte0[i5++] & 0xff;
// 1473                                 k1 = i2 = aint1int(nn | (abyte0[i5++] & 0xff) << 8);
// 1474                                 i1 -= 4;
// 1475                                 break;
// 1476 
// 1477                             case -83: 
// 1478                                //debug("-83-1",abyte0[i5],abyte0[i5+1]);
// 1479                                 nn=abyte0[i5++] & 0xff;
// 1480                                 k1 = j1 = aint1int(nn | (abyte0[i5++] & 0xff) << 8);
// 1481                                 i1 -= 4;
// 1482                                 //debug("-83-2",k1,abyte0[i5-1]);                              
// 1483                                 break;
// 1484 
// 1485                             case -82: 
// 1486                                 nn=abyte0[i5++] & 0xff;
// 1487                                 k1 = l1 = aint1int(nn | (abyte0[i5++] & 0xff) << 8);
// 1488                                 i1 -= 4;
// 1489                                 break;
// 1490 
// 1491                             case -81: 
// 1492                                 flag61 = true;
// 1493                                 break;
// 1494 
// 1495                             case -80: 
// 1496                                 if(k2 != 0) {
// 1497                                     byte11 = abyte0[i5++];
// 1498                                     i5 += byte11;
// 1499                                     i1 -= 3;
// 1500                                 } else {
// 1501                                     i5++;
// 1502                                     i1 -= 2;
// 1503                                 }
// 1504                                 break;
// 1505 
// 1506                             case -79: 
// 1507                                 j26 = abyte0[i5++] & 0xff;
// 1508                                 k1 = j1 = aint1int((abyte0[j26] & 0xff | (abyte0[j26 + 1] & 0xff) << 8) + i2);
// 1509                                 i1 -= 5;
// 1510                                 break;
// 1511 
// 1512                             case -78: 
// 1513                                 flag62 = true;
// 1514                                 break;
// 1515 
// 1516                             case -77: 
// 1517                                 flag63 = true;
// 1518                                 break;
// 1519 
// 1520                             case -76: 
// 1521                                 k1 = i2 = abyte0[abyte0[i5++] + l1 & 0xff] & 0xff;
// 1522                                 i1 -= 4;
// 1523                                 break;
// 1524 
// 1525                             case -75: 
// 1526                                 k1 = j1 = abyte0[abyte0[i5++] + l1 & 0xff] & 0xff;
// 1527                                 i1 -= 4;
// 1528                                 break;
// 1529 
// 1530                             case -74: 
// 1531                                 k1 = l1 = abyte0[abyte0[i5++] + i2 & 0xff] & 0xff;
// 1532                                 i1 -= 4;
// 1533                                 break;
// 1534 
// 1535                             case -73: 
// 1536                                 flag64 = true;
// 1537                                 break;
// 1538 
// 1539                             case -72: 
// 1540                                 l3 = 0;
// 1541                                 i1 -= 2;
// 1542                                 break;
// 1543 
// 1544                             case -71: 
// 1545                                 nn=abyte0[i5++] & 0xff;
// 1546                                 k1 = j1 = aint1int((nn | (abyte0[i5++] & 0xff) << 8) + i2);
// 1547                                 i1 -= 4;
// 1548                                 break;
// 1549 
// 1550                             case -70: 
// 1551                                 k1 = l1 = j2;
// 1552                                 i1 -= 2;
// 1553                                 break;
// 1554 
// 1555                             case -69: 
// 1556                                 flag65 = true;
// 1557                                 break;
// 1558 
// 1559                             case -68: 
// 1560                               nn=abyte0[i5++] & 0xff;
// 1561                                 k1 = i2 = aint1int((nn | (abyte0[i5++] & 0xff) << 8) + l1);
// 1562                                 i1 -= 4;
// 1563                                 break;
// 1564 
// 1565                             case -67: 
// 1566                                 nn=abyte0[i5++] & 0xff;
// 1567                                 k1 = j1 = aint1int((nn | (abyte0[i5++] & 0xff) << 8) + l1);
// 1568                                 i1 -= 4;
// 1569                                 break;
// 1570 
// 1571                             case -66: 
// 1572                               nn=abyte0[i5++] & 0xff;
// 1573                                 k1 = l1 = aint1int((nn | (abyte0[i5++] & 0xff) << 8) + i2);
// 1574                                 i1 -= 4;
// 1575                                 break;
// 1576 
// 1577                             case -65: 
// 1578                                 flag66 = true;
// 1579                                 break;
// 1580 
// 1581                             case -64: 
// 1582                                 k26 = i2 - (abyte0[i5++] & 0xff);
// 1583                                 k2 = k26 < 0 ? 0 : 1;
// 1584                                 k1 = k26 & 0xff;
// 1585                                 i1 -= 2;
// 1586                                 break;
// 1587 
// 1588                             case -63: 
// 1589                                 l26 = abyte0[i5++] + l1 & 0xff;
// 1590                                 l26 = j1 - aint1int(abyte0[l26] & 0xff | (abyte0[l26 + 1] & 0xff) << 8);
// 1591                                 k2 = l26 < 0 ? 0 : 1;
// 1592                                 k1 = l26 & 0xff;
// 1593                                 i1 -= 6;
// 1594                                 break;
// 1595 
// 1596                             case -62: 
// 1597                                 i5++;
// 1598                                 i1 -= 2;
// 1599                                 break;
// 1600 
// 1601                             case -61: 
// 1602                                 flag67 = true;
// 1603                                 break;
// 1604 
// 1605                             case -60: 
// 1606                                 i27 = i2 - (abyte0[abyte0[i5++] & 0xff] & 0xff);
// 1607                                 k2 = i27 < 0 ? 0 : 1;
// 1608                                 k1 = i27 & 0xff;
// 1609                                 i1 -= 3;
// 1610                                 break;
// 1611 
// 1612                             case -59: 
// 1613                                 j27 = j1 - (abyte0[abyte0[i5++] & 0xff] & 0xff);
// 1614                                 k2 = j27 < 0 ? 0 : 1;
// 1615                                 k1 = j27 & 0xff;
// 1616                                 i1 -= 3;
// 1617                                 break;
// 1618 
// 1619                             case -58: 
// 1620                                 k27 = abyte0[i5++] & 0xff;
// 1621                                 k1 = --abyte0[k27] & 0xff;
// 1622                                 i1 -= 5;
// 1623                                 break;
// 1624 
// 1625                             case -57: 
// 1626                                 flag68 = true;
// 1627                                 break;
// 1628 
// 1629                             case -56: 
// 1630                                 k1 = i2 = i2 + 1 & 0xff;
// 1631                                 i1 -= 2;
// 1632                                 break;
// 1633 
// 1634                             case -55: 
// 1635                                 l27 = j1 - (abyte0[i5++] & 0xff);
// 1636                                 k2 = l27 < 0 ? 0 : 1;
// 1637                                 k1 = l27 & 0xff;
// 1638                                 i1 -= 2;
// 1639                                 break;
// 1640 
// 1641                             case -54: 
// 1642                                 k1 = l1 = l1 - 1 & 0xff;
// 1643                                 i1 -= 2;
// 1644                                 break;
// 1645 
// 1646                             case -53: 
// 1647                                 flag69 = true;
// 1648                                 break;
// 1649 
// 1650                             case -52: 
// 1651                                 nn=abyte0[i5++] & 0xff;
// 1652                                 i28 = i2 - aint1int(nn | (abyte0[i5++] & 0xff) << 8);
// 1653                                 k2 = i28 < 0 ? 0 : 1;
// 1654                                 k1 = i28 & 0xff;
// 1655                                 i1 -= 4;
// 1656                                 break;
// 1657 
// 1658                             case -51: 
// 1659                                nn=abyte0[i5++] & 0xff;
// 1660                                 j28 = j1 - aint1int(nn | (abyte0[i5++] & 0xff) << 8);
// 1661                                 k2 = j28 < 0 ? 0 : 1;
// 1662                                 k1 = j28 & 0xff;
// 1663                                 i1 -= 4;
// 1664                                 break;
// 1665 
// 1666                             case -50: 
// 1667                                nn=abyte0[i5++] & 0xff;
// 1668                                 k28 = nn | (abyte0[i5++] & 0xff) << 8;
// 1669                                 avoid2int(k28, k1 = aint1int(k28) - 1 & 0xff);
// 1670                                 i1 -= 6;
// 1671                                 break;
// 1672 
// 1673                             case -49: 
// 1674                                 flag70 = true;
// 1675                                 break;
// 1676 
// 1677                             case -48: 
// 1678                                 if(k1 != 0) {
// 1679                                     byte12 = abyte0[i5++];
// 1680                                     i5 += byte12;
// 1681                                     i1 -= 3;
// 1682                                     if(byte12 < 0 && byte12 >= -5) {
// 1683                                         i29 = abyte0[i5];
// 1684                                         if(byte12 == -2)
// 1685                                             i1 = 0;
// 1686                                         else
// 1687                                         if(byte12 == -4 && i29 == -91)
// 1688                                             i1 = 0;
// 1689                                         else
// 1690                                         if(byte12 == -5 && i29 == -83)
// 1691                                             i1 = 0;
// 1692                                         else
// 1693                                         if(byte12 == -3 && i29 == -54) {
// 1694                                             i29 = i1 / 5;
// 1695                                             if(l1 < i29)
// 1696                                                 i29 = l1;
// 1697                                             l1 -= i29;
// 1698                                             i1 -= i29 * 5;
// 1699                                             if(l1 == 0) {
// 1700                                                 k1 = l1;
// 1701                                                 i1++;
// 1702                                                 i5 -= byte12;
// 1703                                             }
// 1704                                         } else
// 1705                                         if(byte12 == -4 && i29 == -22 && abyte0[i5 + 1] == -54) {
// 1706                                             i29 = i1 / 7;
// 1707                                             if(l1 < i29)
// 1708                                                 i29 = l1;
// 1709                                             l1 -= i29;
// 1710                                             i1 -= i29 * 7;
// 1711                                             if(l1 == 0) {
// 1712                                                 k1 = l1;
// 1713                                                 i1++;
// 1714                                                 i5 -= byte12;
// 1715                                             }
// 1716                                         } else
// 1717                                         if(byte12 == -3 && i29 == -120) {
// 1718                                             j29 = i1 / 5;
// 1719                                             if(i2 < j29)
// 1720                                                 j29 = i2;
// 1721                                             i2 -= j29;
// 1722                                             i1 -= j29 * 5;
// 1723                                             if(i2 == 0) {
// 1724                                                 k1 = i2;
// 1725                                                 i1++;
// 1726                                                 i5 -= byte12;
// 1727                                             }
// 1728                                         }
// 1729                                     }
// 1730                                 } else {
// 1731                                     i5++;
// 1732                                     i1 -= 2;
// 1733                                 }
// 1734                                 break;
// 1735 
// 1736                             case -47: 
// 1737                                 l28 = abyte0[i5++] & 0xff;
// 1738                                 l28 = j1 - aint1int((abyte0[l28] & 0xff | (abyte0[l28 + 1] & 0xff) << 8) + i2);
// 1739                                 k2 = l28 < 0 ? 0 : 1;
// 1740                                 k1 = l28 & 0xff;
// 1741                                 i1 -= 5;
// 1742                                 break;
// 1743 
// 1744                             case -46: 
// 1745                                 flag71 = true;
// 1746                                 break;
// 1747 
// 1748                             case -45: 
// 1749                                 flag72 = true;
// 1750                                 break;
// 1751 
// 1752                             case -44: 
// 1753                                 i5++;
// 1754                                 i1 -= 4;
// 1755                                 break;
// 1756 
// 1757                             case -43: 
// 1758                                 k29 = j1 - (abyte0[abyte0[i5++] + l1 & 0xff] & 0xff);
// 1759                                 k2 = k29 < 0 ? 0 : 1;
// 1760                                 k1 = k29 & 0xff;
// 1761                                 i1 -= 4;
// 1762                                 break;
// 1763 
// 1764                             case -42: 
// 1765                                 l29 = abyte0[i5++] + l1 & 0xff;
// 1766                                 k1 = --abyte0[l29] & 0xff;
// 1767                                 i1 -= 6;
// 1768                                 break;
// 1769 
// 1770                             case -41: 
// 1771                                 flag73 = true;
// 1772                                 break;
// 1773 
// 1774                             case -40: 
// 1775                                 i3 = 0;
// 1776                                 i1 -= 2;
// 1777                                 break;
// 1778 
// 1779                             case -39: 
// 1780                                 nn=abyte0[i5++] & 0xff;
// 1781                                 i30 = j1 - aint1int((nn | (abyte0[i5++] & 0xff) << 8) + i2);
// 1782                                 k2 = i30 < 0 ? 0 : 1;
// 1783                                 k1 = i30 & 0xff;
// 1784                                 i1 -= 4;
// 1785                                 break;
// 1786 
// 1787                             case -38: 
// 1788                                 i1 -= 2;
// 1789                                 break;
// 1790 
// 1791                             case -37: 
// 1792                                 flag74 = true;
// 1793                                 break;
// 1794 
// 1795                             case -36: 
// 1796                                 i5 += 2;
// 1797                                 i1 -= 4;
// 1798                                 break;
// 1799 
// 1800                             case -35: 
// 1801                               nn=abyte0[i5++] & 0xff;
// 1802                                 j30 = j1 - aint1int((nn | (abyte0[i5++] & 0xff) << 8) + l1);
// 1803                                 k2 = j30 < 0 ? 0 : 1;
// 1804                                 k1 = j30 & 0xff;
// 1805                                 i1 -= 5;
// 1806                                 break;
// 1807 
// 1808                             case -34: 
// 1809                               nn=abyte0[i5++] & 0xff;
// 1810                                 k30 = (nn | (abyte0[i5++] & 0xff) << 8) + l1;
// 1811                                 avoid2int(k30, k1 = aint1int(k30) - 1 & 0xff);
// 1812                                 i1 -= 7;
// 1813                                 break;
// 1814 
// 1815                             case -33: 
// 1816                                 flag75 = true;
// 1817                                 break;
// 1818 
// 1819                             case -32: 
// 1820                                 l30 = l1 - (abyte0[i5++] & 0xff);
// 1821                                 k2 = l30 < 0 ? 0 : 1;
// 1822                                 k1 = l30 & 0xff;
// 1823                                 i1 -= 2;
// 1824                                 break;
// 1825 
// 1826                             case -31: 
// 1827                                 i31 = abyte0[i5++] + l1 & 0xff;
// 1828                                 j31 = aint1int(abyte0[i31] & 0xff | (abyte0[i31 + 1] & 0xff) << 8);
// 1829                                 k31 = j1 - j31 - (1 - k2);
// 1830                                 l3 = ((j1 ^ j31) & (j1 ^ k31)) >> 7;
// 1831                                 k2 = k31 < 0 ? 0 : 1;
// 1832                                 k1 = j1 = k31 & 0xff;
// 1833                                 i1 -= 6;
// 1834                                 break;
// 1835 
// 1836                             case -30: 
// 1837                                 i5++;
// 1838                                 i1 -= 2;
// 1839                                 break;
// 1840 
// 1841                             case -29: 
// 1842                                 flag76 = true;
// 1843                                 break;
// 1844 
// 1845                             case -28: 
// 1846                                 l31 = l1 - (abyte0[abyte0[i5++] & 0xff] & 0xff);
// 1847                                 k2 = l31 < 0 ? 0 : 1;
// 1848                                 k1 = l31 & 0xff;
// 1849                                 i1 -= 3;
// 1850                                 break;
// 1851 
// 1852                             case -27: 
// 1853                                 i32 = abyte0[abyte0[i5++] & 0xff] & 0xff;
// 1854                                 j32 = j1 - i32 - (1 - k2);
// 1855                                 l3 = ((j1 ^ i32) & (j1 ^ j32)) >> 7;
// 1856                                 k2 = j32 < 0 ? 0 : 1;
// 1857                                 k1 = j1 = j32 & 0xff;
// 1858                                 i1 -= 3;
// 1859                                 break;
// 1860 
// 1861                             case -26: 
// 1862                                 k32 = abyte0[i5++] & 0xff;
// 1863                                 k1 = ++abyte0[k32] & 0xff;
// 1864                                 i1 -= 5;
// 1865                                 break;
// 1866 
// 1867                             case -25: 
// 1868                                 flag77 = true;
// 1869                                 break;
// 1870 
// 1871                             case -24: 
// 1872                                 k1 = l1 = l1 + 1 & 0xff;
// 1873                                 i1 -= 2;
// 1874                                 break;
// 1875 
// 1876                             case -23: 
// 1877                                 l32 = abyte0[i5++] & 0xff;
// 1878                                 i33 = j1 - l32 - (1 - k2);
// 1879                                 l3 = ((j1 ^ l32) & (j1 ^ i33)) >> 7;
// 1880                                 k2 = i33 < 0 ? 0 : 1;
// 1881                                 k1 = j1 = i33 & 0xff;
// 1882                                 i1 -= 2;
// 1883                                 break;
// 1884 
// 1885                             case -22: 
// 1886                                 i1 -= 2;
// 1887                                 break;
// 1888 
// 1889                             case -21: 
// 1890                                 j33 = abyte0[i5++] & 0xff;
// 1891                                 k33 = j1 - j33 - (1 - k2);
// 1892                                 l3 = ((j1 ^ j33) & (j1 ^ k33)) >> 7;
// 1893                                 k2 = k33 < 0 ? 0 : 1;
// 1894                                 k1 = j1 = k33 & 0xff;
// 1895                                 i1 -= 2;
// 1896                                 break;
// 1897 
// 1898                             case -20: 
// 1899                               nn=abyte0[i5++] & 0xff;
// 1900                                 l33 = l1 - aint1int(nn | (abyte0[i5++] & 0xff) << 8);
// 1901                                 k2 = l33 < 0 ? 0 : 1;
// 1902                                 k1 = l33 & 0xff;
// 1903                                 i1 -= 4;
// 1904                                 break;
// 1905 
// 1906                             case -19: 
// 1907                               nn=abyte0[i5++] & 0xff;
// 1908                                 i34 = aint1int(nn | (abyte0[i5++] & 0xff) << 8);
// 1909                                 j34 = j1 - i34 - (1 - k2);
// 1910                                 l3 = ((j1 ^ i34) & (j1 ^ j34)) >> 7;
// 1911                                 k2 = j34 < 0 ? 0 : 1;
// 1912                                 k1 = j1 = j34 & 0xff;
// 1913                                 i1 -= 4;
// 1914                                 break;
// 1915 
// 1916                             case -18: 
// 1917                               nn=abyte0[i5++] & 0xff;
// 1918                                 k34 = nn | (abyte0[i5++] & 0xff) << 8;
// 1919                                 avoid2int(k34, k1 = aint1int(k34) + 1 & 0xff);
// 1920                                 i1 -= 6;
// 1921                                 break;
// 1922 
// 1923                             case -17: 
// 1924                                 flag78 = true;
// 1925                                 break;
// 1926 
// 1927                             case -16: 
// 1928                                 if(k1 == 0) {
// 1929                                     byte13 = abyte0[i5++];
// 1930                                     i5 += byte13;
// 1931                                     i1 -= 3;
// 1932                                     if(byte13 < 0 && byte13 >= -5) {
// 1933                                         byte14 = abyte0[i5];
// 1934                                         if(byte13 == -4 && (byte14 == -59 || byte14 == -91))
// 1935                                             i1 = 0;
// 1936                                     }
// 1937                                 } else {
// 1938                                     i5++;
// 1939                                     i1 -= 2;
// 1940                                 }
// 1941                                 break;
// 1942 
// 1943                             case -15: 
// 1944                                 l34 = abyte0[i5++] & 0xff;
// 1945                                 i35 = aint1int((abyte0[l34] & 0xff | (abyte0[l34 + 1] & 0xff) << 8) + i2);
// 1946                                 j35 = j1 - i35 - (1 - k2);
// 1947                                 l3 = ((j1 ^ i35) & (j1 ^ j35)) >> 7;
// 1948                                 k2 = j35 < 0 ? 0 : 1;
// 1949                                 k1 = j1 = j35 & 0xff;
// 1950                                 i1 -= 5;
// 1951                                 break;
// 1952 
// 1953                             case -14: 
// 1954                                 flag6 = true;
// 1955                                 break;
// 1956 
// 1957                             case -13: 
// 1958                                 flag6 = true;
// 1959                                 break;
// 1960 
// 1961                             case -12: 
// 1962                                 i5++;
// 1963                                 i1 -= 4;
// 1964                                 break;
// 1965 
// 1966                             case -11: 
// 1967                                 k35 = abyte0[abyte0[i5++] + l1 & 0xff] & 0xff;
// 1968                                 l35 = j1 - k35 - (1 - k2);
// 1969                                 l3 = ((j1 ^ k35) & (j1 ^ l35)) >> 7;
// 1970                                 k2 = l35 < 0 ? 0 : 1;
// 1971                                 k1 = j1 = l35 & 0xff;
// 1972                                 i1 -= 4;
// 1973                                 break;
// 1974 
// 1975                             case -10: 
// 1976                                 i36 = abyte0[i5++] + l1 & 0xff;
// 1977                                 k1 = ++abyte0[i36] & 0xff;
// 1978                                 i1 -= 6;
// 1979                                 break;
// 1980 
// 1981                             case -9: 
// 1982                                 flag6 = true;
// 1983                                 break;
// 1984 
// 1985                             case -8: 
// 1986                                 i3 = 1;
// 1987                                 i1 -= 2;
// 1988                                 break;
// 1989 
// 1990                             case -7: 
// 1991                               nn=abyte0[i5++] & 0xff;
// 1992                                 j36 = aint1int((nn | (abyte0[i5++] & 0xff) << 8) + i2);
// 1993                                 k36 = j1 - j36 - (1 - k2);
// 1994                                 l3 = ((j1 ^ j36) & (j1 ^ k36)) >> 7;
// 1995                                 k2 = k36 < 0 ? 0 : 1;
// 1996                                 k1 = j1 = k36 & 0xff;
// 1997                                 i1 -= 4;
// 1998                                 break;
// 1999 
// 2000                             case -6: 
// 2001                                 i1 -= 2;
// 2002                                 break;
// 2003 
// 2004                             case -5: 
// 2005                                 flag6 = true;
// 2006                                 break;
// 2007 
// 2008                             case -4: 
// 2009                                 i5 += 2;
// 2010                                 i1 -= 4;
// 2011                                 break;
// 2012 
// 2013                             case -3: 
// 2014                               nn=abyte0[i5++] & 0xff;
// 2015                                 l36 = aint1int((nn | (abyte0[i5++] & 0xff) << 8) + l1);
// 2016                                 i37 = j1 - l36 - (1 - k2);
// 2017                                 l3 = ((j1 ^ l36) & (j1 ^ i37)) >> 7;
// 2018                                 k2 = i37 < 0 ? 0 : 1;
// 2019                                 k1 = j1 = i37 & 0xff;
// 2020                                 i1 -= 5;
// 2021                                 break;
// 2022 
// 2023                             case -2: 
// 2024                               nn=abyte0[i5++] & 0xff;
// 2025                                 j37 = (nn | (abyte0[i5++] & 0xff) << 8) + l1;
// 2026                                 avoid2int(j37, k1 = aint1int(j37) + 1 & 0xff);
// 2027                                 i1 -= 7;
// 2028                                 break;
// 2029 
// 2030                             case -1: 
// 2031                                 flag6 = true;
// 2032                                 break;
// 2033                             }
// 2034                         }             
// 2035                         
// 2036                         
// 2037                         while(true);
// 2038                     }
// 2039                     if(flag2 && bint1int(k6) != 0 && l2 == 0) {
// 2040                         k4 = i5 - l4;
// 2041                         abyte0[j2-- + 256] = (byte)(k4 >> 8);
// 2042                         abyte0[j2-- + 256] = (byte)k4;
// 2043                         abyte0[j2-- + 256] = (byte)(k2 | (k1 == 0 ? 2 : 0) | (k1 >> 7) << 7 | l3 << 6 | l2 << 2);
// 2044                         k4 = abyte0[ai2[7] + 65534] & 0xff | (abyte0[ai2[7] + 65535] & 0xff) << 8;
// 2045                         i5 = k4 + (l4 = ai2[k4 >> 13]);
// 2046                         l2 = 1;
// 2047                         i1 += 7;
// 2048                     }
// 2049                     
// 2050                     /* timing */
// 2051                       if(/*flag5 &&*/ t_boolean_static_fld && k6 == 240 && (R & 0x18) != 0) {
// 2052                         long l8 = SystemcurrentTimeMillis();
// 2053                         c_long_static_fld += l8 - l6;
// 2054                         //c c1 = main;
// 2055                         a_long_static_fld = k5;//c.??
// 2056                    //     try {
// 2057                         
// 2058                         //(*(long*)0xA8100000)=LastTmrVal;
// 2059                            while(SysTimer()<LastTmrVal)c0();                        
// 2060                                                                  // LastTmrVal=LastTmrVal+40-A*10;  
// 2061                          
// 2062                             
// 2063                             LastTmrVal=LastTmrVal+A*10;                    
// 2064                    //     }
// 2065                    //     catch(Exception exception2) { }
// 2066                         l6 = SystemcurrentTimeMillis();
// 2067                         b_long_static_fld += l6 - l8;
// 2068                     }
// 2069                     //////////////////////////////////
// 2070                     if(t_boolean_static_fld || k6 >= 240 || (R & 0x18) == 0)
// 2071                         continue;
// 2072                     
// 2073                     if(flag5) {
// 2074                         D &= 0xfbe0;
// 2075                         D |= y & 0x41f;
// 2076                         long l9 = SystemcurrentTimeMillis();
// 2077                         c_long_static_fld += l9 - l6;
// 2078                         //c c2 = main;
// 2079                         a_long_static_fld = k5;//c.??
// 2080                         if(b_boolean_array1d_static_fld[k6])
// 2081                             xd(k6);
// 2082                         else
// 2083                            // try {
// 2084                                 avoid1int(k6);
// 2085                            // }
// 2086                            // catch(Exception exception3) { }
// 2087                         if(k6 == 239) {//==
// 2088                           while(SysTimer()<LastTmrVal){}; 
// 2089                             LastTmrVal=LastTmrVal+A*10;
// 2090                             repaint();
// 2091                             
// 2092                             //serviceRepaints();
// 2093                         }
// 2094                         l6 = SystemcurrentTimeMillis();
// 2095                         b_long_static_fld += l6 - l9;
// 2096                         if((D & 0x7000) == 28672) {
// 2097                             D &= 0x8fff;
// 2098                             if((D & 0x3e0) == 928) {
// 2099                                 D ^= 0x800;
// 2100                                 D &= 0xfc1f;
// 2101                                 continue;
// 2102                             }
// 2103                             if((D & 0x3e0) == 992)
// 2104                                 D &= 0xfc1f;
// 2105                             else
// 2106                                 D += 32;
// 2107                         } else {
// 2108                             D += 4096;
// 2109                         }
// 2110                     } else {
// 2111                         xd(k6);
// 2112                     }
// 2113                 }
// 2114                   
// 2115                     /*
// 2116                      if((SysTimer()-LastTmrVal)>100)
// 2117                             {
// 2118                             A++;
// 2119                             if(A>9)A=9;
// 2120                             }
// 2121                             else
// 2122                             {
// 2123                              A--;
// 2124                             if(A<1)A=1; 
// 2125                             }
// 2126                      */
// 2127                            
// 2128                      
// 2129                 k5++;
// 2130                 if(l_boolean_static_fld)
// 2131                     k_int_static_fld = k_int_static_fld & 0xfe | k5 & 1;
// 2132                 if(j_boolean_static_fld)
// 2133                     k_int_static_fld = k_int_static_fld & 0xfd | (k5 & 1) << 1;
// 2134                 if(flag && k5 == 0) {
// 2135                     i7 = 0;
// 2136                     flag = false;
// 2137                     for(j7 = 1; j7 < 100; j7++)
// 2138                         if(ai1[j7] > ai1[i7])
// 2139                             i7 = j7;
// 2140 
// 2141                     if(ai1[i7] < 8000)
// 2142                         j4 = 0x7fffffff;
// 2143                     else
// 2144                         j4 = ai[i7];
// 2145                     c_long_static_fld = b_long_static_fld = 0L;
// 2146                     l6 = SystemcurrentTimeMillis();
// 2147                 }
// 2148                 if(p_boolean_static_fld) {
// 2149                     long l7 = SystemcurrentTimeMillis();
// 2150                     c_long_static_fld += l7 - l6;
// 2151             //        while(p_boolean_static_fld) 
// 2152             //            try {
// 2153             //                Thread.sleep(100L);
// 2154             //            }
// 2155             //            catch(InterruptedException interruptedexception) { }
// 2156                     l6 = SystemcurrentTimeMillis();
// 2157                 }
// 2158             } while(!v_boolean_static_fld);          
// 2159              
// 2160                     
// 2161             v_boolean_static_fld = false;
// 2162             if(n_boolean_static_fld)
// 2163                 break;
// 2164             if(d_boolean_static_fld) {
// 2165                 d_boolean_static_fld = false;
// 2166                 
// 2167                 if(openstream(1)!=-1) {
// 2168 //                    ByteArrayOutputStream bytearrayoutputstream = new ByteArrayOutputStream();
// 2169                     bytearrayoutputstreamwrite(j1 & 0xff);
// 2170                     bytearrayoutputstreamwrite(l1 & 0xff);
// 2171                     bytearrayoutputstreamwrite(i2 & 0xff);
// 2172                     bytearrayoutputstreamwrite(k2 & 0xff);
// 2173                     bytearrayoutputstreamwrite(k1 & 0xff);
// 2174                     bytearrayoutputstreamwrite(l2 & 0xff);
// 2175                     bytearrayoutputstreamwrite(i3 & 0xff);
// 2176                     bytearrayoutputstreamwrite(j3 & 0xff);
// 2177                     bytearrayoutputstreamwrite(k3 & 0xff);
// 2178                     bytearrayoutputstreamwrite(l3 & 0xff);
// 2179                     bytearrayoutputstreamwrite(i4 & 0xff);
// 2180                     bytearrayoutputstreamwrite(j2 & 0xff);
// 2181                     bytearrayoutputstreamwrite(k4 >> 0 & 0xff);
// 2182                     bytearrayoutputstreamwrite(k4 >> 8 & 0xff);
// 2183                     bytearrayoutputstreamwrite(i5 >> 0 & 0xff);
// 2184                     bytearrayoutputstreamwrite(i5 >> 8 & 0xff);
// 2185                     bytearrayoutputstreamwrite(i5 >> 16 & 0xff);
// 2186                     bytearrayoutputstreamwrite(i5 >> 24 & 0xff);
// 2187                     bytearrayoutputstreamwrite(l4 >> 0 & 0xff);
// 2188                     bytearrayoutputstreamwrite(l4 >> 8 & 0xff);
// 2189                     bytearrayoutputstreamwrite(l4 >> 16 & 0xff);
// 2190                     bytearrayoutputstreamwrite(l4 >> 24 & 0xff);
// 2191                     bytearrayoutputstreamwrite(j4 >> 0 & 0xff);
// 2192                     bytearrayoutputstreamwrite(j4 >> 8 & 0xff);
// 2193                     bytearrayoutputstreamwrite(j4 >> 16 & 0xff);
// 2194                     bytearrayoutputstreamwrite(j4 >> 24 & 0xff);
// 2195                     bytearrayoutputstreamwrite(i1 & 0xff);
// 2196                     bytearrayoutputstreamwrite(p_boolean_static_fld ? 255 : 0);
// 2197                     c_out();//bytearrayoutputstream);
// 2198                     b_out();//bytearrayoutputstream);
// 2199                     closestream();
// 2200 //                    bytearrayoutputstream.close();
// 2201 //                    avoid1String1bytes(b_java_lang_String_static_fld + "save" + z + ".dat", bytearrayoutputstream.toByteArray());
// 2202                 }
// 2203 //                catch(Exception exception) { }
// 2204             }
// 2205             if(o_boolean_static_fld) {
// 2206                 o_boolean_static_fld = false;
// 2207                 
// 2208               if(openstream(0)!=-1){
// 2209   //                  byte abyte1[] = bbytes1String(b_java_lang_String_static_fld + "save" + z + ".dat");
// 2210 //                    ByteArrayInputStream bytearrayinputstream = null;
// 2211 //                    if(abyte1 != null)
// 2212 //                        bytearrayinputstream = new ByteArrayInputStream(abyte1);
// 2213                     j1 = bytearrayinputstreamread() & 0xff;
// 2214                     l1 = bytearrayinputstreamread() & 0xff;
// 2215                     i2 = bytearrayinputstreamread() & 0xff;
// 2216                     k2 = bytearrayinputstreamread() & 0xff;
// 2217                     k1 = bytearrayinputstreamread() & 0xff;
// 2218                     l2 = bytearrayinputstreamread() & 0xff;
// 2219                     i3 = bytearrayinputstreamread() & 0xff;
// 2220                     j3 = bytearrayinputstreamread() & 0xff;
// 2221                     k3 = bytearrayinputstreamread() & 0xff;
// 2222                     l3 = bytearrayinputstreamread() & 0xff;
// 2223                     i4 = bytearrayinputstreamread() & 0xff;
// 2224                     j2 = bytearrayinputstreamread() & 0xff;
// 2225                     k4 = bytearrayinputstreamread() & 0xff;
// 2226                     k4 |= (bytearrayinputstreamread() & 0xff) << 8;
// 2227                     i5 = bytearrayinputstreamread() & 0xff;
// 2228                     i5 |= (bytearrayinputstreamread() & 0xff) << 8;
// 2229                     i5 |= (bytearrayinputstreamread() & 0xff) << 16;
// 2230                     i5 |= (bytearrayinputstreamread() & 0xff) << 24;
// 2231                     l4 = bytearrayinputstreamread() & 0xff;
// 2232                     l4 |= (bytearrayinputstreamread() & 0xff) << 8;
// 2233                     l4 |= (bytearrayinputstreamread() & 0xff) << 16;
// 2234                     l4 |= (bytearrayinputstreamread() & 0xff) << 24;
// 2235                     j4 = bytearrayinputstreamread() & 0xff;
// 2236                     j4 |= (bytearrayinputstreamread() & 0xff) << 8;
// 2237                     j4 |= (bytearrayinputstreamread() & 0xff) << 16;
// 2238                     j4 |= (bytearrayinputstreamread() & 0xff) << 24;
// 2239                     i1 = (byte)bytearrayinputstreamread();
// 2240                     p_boolean_static_fld = bytearrayinputstreamread() == 255;
??run_4:
        LDR      R1,??run_1+0x8   ;; j_int_array1d_static_fld + 3205
        STRB     R0,[R1, #+0]
// 2241                     b_in();//(bytearrayinputstream);
        BL       b_in
// 2242                     c_in();//(bytearrayinputstream);
        BL       c_in
// 2243                     closestream();
        BL       closestream
// 2244 //                    bytearrayinputstream.close();
// 2245                 }
// 2246 //                catch(Exception exception1) { }
// 2247                 
// 2248             }
// 2249             if(h_boolean_static_fld) {
??run_5:
        LDR      R0,??run_1+0xC   ;; j_int_array1d_static_fld + 3208
        LDRB     R0,[R0, #+0]
        CMP      R0,#+0
        BEQ      ??run_6
// 2250                 h_boolean_static_fld = false;
        LDR      R0,??run_1+0xC   ;; j_int_array1d_static_fld + 3208
        MOV      R1,#+0
        STRB     R1,[R0, #+0]
// 2251                 g();
        BL       g
// 2252                 for(i6 = 0; i6 < 10240; i6++)
        MOV      R0,#+0
// 2253                     abyte0[i6] = 0;
??run_7:
        MOV      R1,#+0
        STRB     R1,[R0, +R5]
        ADD      R0,R0,#+1
        CMP      R0,#+10240
        BLT      ??run_7
// 2254 
// 2255                 if(b_byte_array1d_static_fld != null) {
        LDR      R0,??run_1+0x10  ;; j_int_array1d_static_fld + 3160
        LDR      R0,[R0, #+0]
        CMP      R0,#+0
        BEQ      ??run_8
// 2256                     for(j6 = 0; j6 < 512; j6++)
        MOV      R0,#+0
// 2257                         abyte0[6144 + j6] = b_byte_array1d_static_fld[j6];
??run_9:
        LDR      R2,??run_1+0x10  ;; j_int_array1d_static_fld + 3160
        ADD      R1,R0,R5
        LDR      R2,[R2, #+0]
        ADD      R1,R1,#+6144
        LDRSB    R2,[R0, +R2]
        ADD      R0,R0,#+1
        CMP      R0,#+512
        STRB     R2,[R1, #+0]
        BLT      ??run_9
// 2258 
// 2259                 }
// 2260                 avoid();
??run_8:
        LDR      R0,[R11, #+2880]
// 2261                 j1 = 0;
// 2262                 l1 = 0;
        MOV      R9,#+0
        ASR      R0,R0,#+13
        STR      R0,[R11, #+2556]
        LDR      R0,[R11, #+2868]
// 2263                 i2 = 0;
// 2264                 byte byte1 = 4;
// 2265                 j2 = 255;
// 2266                 k2 = 0;
        MOV      R7,R9
        ASR      R0,R0,#+10
        STR      R0,[R11, #+2552]
        BL       `b`
        MOV      R1,R9
        STR      R1,[SP, #+0]
        MOV      R1,#+255
        STR      R1,[SP, #+4]
// 2267                 k1 = 0;
        MOV      R4,R7
// 2268                 l2 = 1;
        MOV      R1,#+1
        STR      R1,[SP, #+24]
// 2269                 i3 = 0;
        MOV      R1,R4
        STR      R1,[SP, #+44]
// 2270                 j3 = 0;
        STR      R1,[SP, #+48]
// 2271                 k3 = 0;
        STR      R1,[SP, #+52]
// 2272                 l3 = 0;
        STR      R1,[SP, #+12]
// 2273                 i4 = 0;
        STR      R1,[SP, #+56]
// 2274                 k4 = abyte0[ai2[7] + 65532] & 0xff | (abyte0[ai2[7] + 65533] & 0xff) << 8;
        MOV      R2,#+164
        ORR      R2,R2,#0x900
        LDR      R1,[R2, +R11]
        MOV      R0,#+252
        ORR      R0,R0,#0xFF00
        ADD      R1,R1,R5
        ADD      R0,R0,R1
        LDRSB    R2,[R0, #+0]
        LDRSB    R0,[R0, #+1]
        AND      R2,R2,#0xFF
        AND      R0,R0,#0xFF
        ORR      R0,R2,R0, LSL #+8
        STR      R0,[SP, #+8]
// 2275                 i5 = k4 + (l4 = ai2[k4 >> 13]);
        MOV      R1,R0
        ASR      R1,R1,#+13
        ADD      R1,R11,R1, LSL #+2
        LDR      R1,[R1, #+2440]
        MOV      R10,#+0
        STR      R1,[SP, #+16]
        ADD      R8,R1,R0
// 2276                 m();
??run_3:
        LDR      R0,[R11, #+2520]
        MOV      R1,#+0
        LSL      R2,R0,#+1
        LDR      R0,[R11, #+3164]
        SWI      +187
        MOV      R0,R4
        STR      R0,[R11, #+2628]
// 2277                 k_int_static_fld = 0;
// 2278                 l_boolean_static_fld = j_boolean_static_fld = false;
        STRB     R0,[R11, #+3213]
        STRB     R0,[R11, #+3212]
// 2279             }
??run_6:
        LDR      R0,[SP, #+32]
        LDR      R1,??run_1+0x14  ;; j_int_array1d_static_fld + 2884
        LDR      R1,[R1, #+0]
        _BLF     ??div32_a,??rA??div32_a
        CMP      R0,#+0
        LDR      R0,??run_1+0x18  ;; j_int_array1d_static_fld + 3204
        MOVEQ    R1,#+1
        MOVNE    R1,#+0
        STRB     R1,[SP, #+64]
        LDRB     R0,[R0, #+0]
        CMP      R0,#+0
        BEQ      ??run_10
        LDR      R1,??run_1+0x1C  ;; j_int_array1d_static_fld + 2892
        LDR      R1,[R1, #+0]
        ADD      R1,R1,#+1
        STR      R1,[SP, #+36]
        CMP      R1,#+240
        BLT      ??run_11
        MVN      R1,#+0
        STR      R1,[SP, #+36]
        B        ??run_11
??run_10:
        LDR      R0,??run_1+0x20  ;; j_int_array1d_static_fld + 2568
        LDR      R0,[R0, #+0]
        TST      R0,#0x18
        LDRNE    R0,[R11, #+2640]
        STRNE    R0,[R11, #+2644]
??run_11:
        MOV      R1,#+0
        STR      R1,[SP, #+20]
??run_12:
        LDR      R0,??run_1+0x18  ;; j_int_array1d_static_fld + 3204
        LDRB     R0,[R0, #+0]
        CMP      R0,#+0
        BEQ      ??run_13
        LDR      R0,[SP, #+20]
        LDR      R1,[SP, #+36]
        ADD      R1,R1,#+1
        CMP      R0,R1
        BNE      ??run_13
        LDR      R0,??run_1+0x20  ;; j_int_array1d_static_fld + 2568
        LDR      R0,[R0, #+0]
        TST      R0,#0x18
        BEQ      ??run_13
        LDR      R0,[R11, #+2572]
        ORR      R0,R0,#0x40
        B        ??run_14
??run_15:
        SUB      R1,R1,#+1
        CMP      R0,R1
        BEQ      ??run_16
        CMP      R0,#+241
        LDREQ    R0,[R11, #+2572]
        ORREQ    R0,R0,#0x80
        BEQ      ??run_14
        CMP      R0,#+242
        BNE      ??run_12
        LDR      R0,??run_1+0x24  ;; j_int_array1d_static_fld + 2564
        LDR      R0,[R0, #+0]
        TST      R0,#0x80
        BEQ      ??run_13
        LDR      R0,[SP, #+16]
        LDR      R2,[SP, #+4]
        SUB      R1,R8,R0
        MOV      R0,#+256
        ADD      R2,R2,R5
        ASR      R3,R1,#+8
        STRB     R3,[R0, +R2]
        LDR      R2,[SP, #+4]
        CMP      R4,#+0
        SUB      R2,R2,#+1
        ADD      R3,R2,R5
        STRB     R1,[R0, +R3]
        SUB      R0,R2,#+1
        SUB      R2,R0,#+1
        STR      R2,[SP, #+4]
        MOVEQ    R1,#+2
        MOVNE    R1,#+0
        ORR      R1,R1,R7
        ASR      R2,R4,#+7
        ORR      R1,R1,R2, LSL #+7
        LDR      R2,[SP, #+12]
        ADD      R0,R0,R5
        ORR      R1,R1,R2, LSL #+6
        LDR      R2,[SP, #+24]
        ADD      R6,R6,#+7
        ORR      R1,R1,R2, LSL #+2
        STRB     R1,[R0, #+256]
        MOV      R2,#+164
        ORR      R2,R2,#0x900
        LDR      R1,[R2, +R11]
        MOV      R0,#+250
        ORR      R0,R0,#0xFF00
        ADD      R1,R1,R5
        ADD      R0,R0,R1
        LDRSB    R2,[R0, #+0]
        LDRSB    R0,[R0, #+1]
        AND      R2,R2,#0xFF
        AND      R0,R0,#0xFF
        ORR      R0,R2,R0, LSL #+8
        STR      R0,[SP, #+8]
        MOV      R1,R0
        ASR      R1,R1,#+13
        ADD      R1,R11,R1, LSL #+2
        LDR      R1,[R1, #+2440]
        STR      R1,[SP, #+16]
        ADD      R8,R1,R0
        B        ??run_13
??run_16:
        LDR      R0,[R11, #+2572]
        AND      R0,R0,#0x3F
??run_14:
        STR      R0,[R11, #+2572]
??run_13:
        LDR      R0,[SP, #+8]
        LDR      R1,[SP, #+28]
        CMP      R0,R1
        BEQ      ??run_17
        LDR      R0,??run_1+0x18  ;; j_int_array1d_static_fld + 3204
        LDRB     R0,[R0, #+0]
        CMP      R0,#+0
        BEQ      ??run_18
        LDR      R0,[SP, #+20]
        CMP      R0,#+240
        BGE      ??run_19
        LDR      R0,[SP, #+36]
        LDR      R1,[SP, #+20]
        CMP      R0,R1
        MOV      R0,R1
        BGE      ??run_20
        RSB      R0,R0,#+240
        MOV      R1,#+116
        MLA      R6,R1,R0,R6
        MOV      R1,#+240
        B        ??run_21
??run_20:
        LDR      R1,[SP, #+36]
        CMP      R0,R1
        BGE      ??run_18
        MOV      R0,R1
        LDR      R1,[SP, #+20]
        SUB      R0,R0,R1
        MOV      R1,#+116
        MLA      R6,R1,R0,R6
        LDR      R1,[SP, #+36]
        B        ??run_21
??run_19:
        CMP      R0,#+242
        BLT      ??run_18
        CMP      R0,#+260
        BGE      ??run_18
        RSB      R0,R0,#+260
        MOV      R1,#+116
        MLA      R6,R1,R0,R6
        MOV      R1,#+260
??run_21:
        STR      R1,[SP, #+20]
??run_18:
        ADD      R6,R6,#+116
        B        ??run_22
??run_23:
        ADD      R0,R0,#+1
        CMP      R0,#+100
        BGE      ??run_22
??run_24:
        ADD      R1,SP,#+472
        LDR      R1,[R1, +R0, LSL #+2]
        CMP      R1,#+0
        BNE      ??run_23
        ADD      R1,SP,#+472
        MOV      R2,#+1
        STR      R2,[R1, +R0, LSL #+2]
        ADD      R1,SP,#+72
        STR      R8,[R1, +R0, LSL #+2]
??run_22:
        LDR      R0,??run_1       ;; running
        LDR      R0,[R0, #+0]
        CMP      R0,#+0
        BNE      ??run_25
        ADD      SP,SP,#+872      ;; stack cleaning
        CFI CFA R13+36
        POP      {R4-R11,PC}      ;; return
        CFI CFA R13+908
??run_26:
        ORR      R1,R1,R7
        LDR      R11,??run_1+0x4  ;; j_int_array1d_static_fld
        ASR      R2,R4,#+7
        ORR      R1,R1,R2, LSL #+7
        LDR      R2,[SP, #+12]
        ADD      R0,R0,R5
        ORR      R1,R1,R2, LSL #+6
        LDR      R2,[SP, #+24]
        ORR      R1,R1,R2, LSL #+2
        STRB     R1,[R0, #+256]
        MOV      R2,#+164
        ORR      R2,R2,#0x900
        LDR      R1,[R2, +R11]
        MOV      R0,#+254
        ORR      R0,R0,#0xFF00
        ADD      R1,R1,R5
        ADD      R0,R0,R1
        LDRSB    R2,[R0, #+0]
        LDRSB    R0,[R0, #+1]
        AND      R2,R2,#0xFF
        AND      R0,R0,#0xFF
        ORR      R0,R2,R0, LSL #+8
        STR      R0,[SP, #+8]
        MOV      R1,R0
        ASR      R1,R1,#+13
        ADD      R1,R11,R1, LSL #+2
        LDR      R1,[R1, #+2440]
        STR      R1,[SP, #+16]
        ADD      R8,R1,R0
        MOV      R1,#+1
        STR      R1,[SP, #+48]
        STR      R1,[SP, #+24]
??run_27:
        SUB      R6,R6,#+7
??run_25:
        CMP      R6,#+1
        BLT      ??run_17
        MOV      R0,R8
        ADD      R8,R0,#+1
        LDRSB    R0,[R0, +R5]
        ADD      R0,R0,#+128
        CMP      R0,#+254
        BHI      ??run_25
        ADR      R1,??run_0
        MOV      R0,R0, LSL #+1
        LDRSH    R1,[R1, R0]
        ADD      PC,PC,R1, LSL #+2
        DATA
??run_0:
        DC16     +294,+1153,+294,+65523
        DC16     +1165,+1171,+1176,+65523
        DC16     +1181,+294,+1187,+65523
        DC16     +1189,+1201,+1213,+65523
        DC16     +1221,+1224,+65523,+65523
        DC16     +1238,+1245,+1251,+65523
        DC16     +1258,+1260,+1274,+65523
        DC16     +65523,+1276,+65523,+65523
        DC16     +1288,+1293,+1307,+65523
        DC16     +1313,+1320,+1327,+65523
        DC16     +1334,+1336,+1341,+65523
        DC16     +1344,+1357,+1370,+65523
        DC16     +1382,+1388,+65523,+65523
        DC16     +1403,+1411,+1419,+65523
        DC16     +1428,+1431,+1445,+65523
        DC16     +1447,+1462,+1476,+65523
        DC16     +1490,+1500,+294,+65523
        DC16     +1516,+1528,+1539,+65523
        DC16     +1548,+1554,+1563,+65523
        DC16     +1566,+1582,+1597,+65523
        DC16     +1614,+1694,+65523,+65523
        DC16     +311,+1710,+1719,+65523
        DC16     +1728,+1731,+204,+65523
        DC16     +210,+1743,+1759,+65523
        DC16     +1774,+1779,+294,+65523
        DC16     +1803,+1810,+1828,+65523
        DC16     +1836,+1839,+204,+1855
        DC16     +1871,+1886,+1909,+65523
        DC16     +1925,+1942,+65523,+65523
        DC16     +311,+1967,+1986,+65523
        DC16     +1995,+1997,+204,+65523
        DC16     +210,+2022,+2046,+65523
        DC16     +127,+146,+65523,+65523
        DC16     +161,+164,+172,+65523
        DC16     +183,+199,+206,+65523
        DC16     +210,+213,+226,+65523
        DC16     +244,+296,+65523,+65523
        DC16     +311,+313,+322,+65523
        DC16     +333,+335,+204,+65523
        DC16     +210,+347,+358,+65523
        DC16     +377,+406,+65523,+65523
        DC16     +420,+434,+442,+65523
        DC16     +451,+471,+476,+65523
        DC16     +481,+500,+512,+65523
        DC16     +527,+534,+65523,+65523
        DC16     +311,+548,+556,+65523
        DC16     +566,+568,+204,+65523
        DC16     +210,+584,+598,+65523
        DC16     +628,+666,+65523,+65523
        DC16     +161,+679,+686,+65523
        DC16     +694,+701,+706,+65523
        DC16     +709,+748,+761,+65523
        DC16     +775,+789,+65523,+65523
        DC16     +311,+803,+811,+65523
        DC16     +820,+823,+204,+65523
        DC16     +210,+837,+850,+65523
        DC16     +868,+892,+65523,+65523
        DC16     +161,+914,+930,+65523
        DC16     +939,+947,+961,+65523
        DC16     +966,+996,+1017,+65523
        DC16     +1032,+1040,+65523,+65523
        DC16     +311,+1063,+1080,+65523
        DC16     +1090,+1092,+204,+65523
        DC16     +210,+1115,+1137,+0
        ARM
??run_28:
        LDR      R0,[SP, #+16]
        LDR      R2,[SP, #+4]
        SUB      R0,R8,R0
        ADD      R1,R0,#+1
        MOV      R0,#+256
        ADD      R2,R2,R5
        ASR      R3,R1,#+8
        STRB     R3,[R0, +R2]
        LDR      R2,[SP, #+4]
        CMP      R4,#+0
        SUB      R2,R2,#+1
        ADD      R3,R2,R5
        STRB     R1,[R0, +R3]
        SUB      R0,R2,#+1
        SUB      R2,R0,#+1
        STR      R2,[SP, #+4]
        MOVNE    R1,#+0
        MOVEQ    R1,#+2
        B        ??run_26
??run_29:
        LDRSB    R0,[R8, +R5]
        ADD      R8,R8,#+1
        ADD      R0,R9,R0
        AND      R0,R0,#0xFF
        LDRSB    R1,[R0, +R5]
        ADD      R0,R0,R5
        LDRSB    R0,[R0, #+1]
        AND      R1,R1,#0xFF
        AND      R0,R0,#0xFF
        ORR      R0,R1,R0, LSL #+8
        BL       aint1int
        ORR      R10,R0,R10
??run_30:
        MOV      R4,R10
??run_31:
        SUB      R6,R6,#+6
        B        ??run_25
??run_32:
        ADD      R8,R8,#+1
??run_33:
        SUB      R6,R6,#+3
        B        ??run_25
??run_34:
        LDRSB    R0,[R8, +R5]
        ADD      R8,R8,#+1
        AND      R0,R0,#0xFF
        LDRSB    R0,[R0, +R5]
        AND      R0,R0,#0xFF
        ORR      R10,R0,R10
??run_35:
        MOV      R4,R10
        B        ??run_33
??run_36:
        LDRSB    R0,[R8, +R5]
        ADD      R8,R8,#+1
        MOV      R2,#+255
        AND      R0,R0,#0xFF
        LDRSB    R1,[R0, +R5]
        AND      R1,R1,#0xFF
        ASR      R7,R1,#+7
        AND      R4,R2,R1, LSL #+1
??run_37:
        STRB     R4,[R0, +R5]
??run_38:
        SUB      R6,R6,#+5
        B        ??run_25
??run_39:
        LDR      R0,[SP, #+4]
        CMP      R4,#+0
        SUB      R2,R0,#+1
        STR      R2,[SP, #+4]
        MOVEQ    R1,#+2
        MOVNE    R1,#+0
        ORR      R1,R1,R7
        ASR      R2,R4,#+7
        ORR      R1,R1,R2, LSL #+7
        LDR      R2,[SP, #+12]
        ADD      R0,R0,R5
        ORR      R1,R1,R2, LSL #+6
        LDR      R2,[SP, #+24]
        ORR      R1,R1,R2, LSL #+2
        STRB     R1,[R0, #+256]
        B        ??run_33
??run_40:
        LDRSB    R0,[R8, +R5]
        ADD      R8,R8,#+1
        AND      R0,R0,#0xFF
        ORR      R10,R0,R10
??run_41:
        MOV      R4,R10
??run_42:
        SUB      R6,R6,#+2
        B        ??run_25
??run_43:
        ASR      R7,R10,#+7
        MOV      R0,#+255
        AND      R10,R0,R10, LSL #+1
        B        ??run_41
??run_44:
        ADD      R8,R8,#+2
??run_45:
        SUB      R6,R6,#+4
        B        ??run_25
??run_46:
        LDRSB    R0,[R8, +R5]
        LDR      R11,??run_1+0x4  ;; j_int_array1d_static_fld
        ADD      R4,R8,#+1
        AND      R0,R0,#0xFF
        STR      R0,[R11, #+2524]
        LDRSB    R1,[R4, +R5]
        ADD      R8,R4,#+1
        AND      R1,R1,#0xFF
        ORR      R0,R0,R1, LSL #+8
??run_47:
        BL       aint1int
        ORR      R10,R0,R10
??run_48:
        MOV      R4,R10
        B        ??run_45
??run_49:
        LDRSB    R0,[R8, +R5]
        LDR      R11,??run_1+0x4  ;; j_int_array1d_static_fld
        ADD      R1,R8,#+1
        AND      R0,R0,#0xFF
        STR      R0,[R11, #+2524]
        LDRSB    R2,[R1, +R5]
        ADD      R8,R1,#+1
        AND      R2,R2,#0xFF
        ORR      R11,R0,R2, LSL #+8
        MOV      R0,R11
        BL       aint1int
        ASR      R7,R0,#+7
        MOV      R1,#+255
        AND      R4,R1,R0, LSL #+1
??run_50:
        MOV      R1,R4
        MOV      R0,R11
??run_51:
        BL       avoid2int
        B        ??run_31
??run_52:
        ASRS     R0,R4,#+7
        BNE      ??run_53
        LDRSB    R0,[R8, +R5]
        SUB      R6,R6,#+3
        ADD      R1,R0,#+1
        ADD      R8,R1,R8
        CMP      R0,#+0
        BPL      ??run_25
        CMN      R0,#+5
        BLT      ??run_25
        LDRSB    R1,[R8, +R5]
        BNE      ??run_54
        CMN      R1,#+83
        CMPNE    R1,#+44
        BNE      ??run_25
??run_55:
        MOV      R6,#+0
??run_17:
        LDR      R0,??run_1+0x28  ;; j_int_array1d_static_fld + 2620
        LDR      R1,[R0, #+0]
        LDR      R0,[SP, #+68]
        LSLS     R0,R0,#+24
        BEQ      ??run_56
        LDR      R0,??run_1+0x2C  ;; j_int_array1d_static_fld + 2548
        LDR      R0,[R0, #+0]
        SUBS     R0,R0,#+4
        BEQ      ??run_57
        SUBS     R0,R0,#+2
        BEQ      ??run_58
        B        ??run_56
??run_57:
        LDR      R0,??run_1+0x30  ;; j_int_array1d_static_fld + 3200
        LDRB     R0,[R0, #+0]
        CMP      R0,#+0
        BEQ      ??run_56
        LDR      R0,[SP, #+20]
        CMP      R0,#+0
        BMI      ??run_56
        CMP      R0,#+240
        BGE      ??run_56
        LDR      R0,??run_1+0x20  ;; j_int_array1d_static_fld + 2568
        LDR      R0,[R0, #+0]
        TST      R0,#0x18
        BEQ      ??run_56
        SUBS     R1,R1,#+1
        BPL      ??run_56
        LDR      R0,??run_1+0x34  ;; j_int_array1d_static_fld + 2624
        LDR      R1,[R0, #+0]
        B        ??run_59
??run_54:
        CMN      R0,#+4
        CMPEQ    R1,#+6
??run_60:
        BNE      ??run_25
        B        ??run_55
??run_53:
        ADD      R8,R8,#+1
        B        ??run_42
??run_61:
        LDRSB    R0,[R8, +R5]
        ADD      R8,R8,#+1
        AND      R0,R0,#0xFF
        LDRSB    R1,[R0, +R5]
        ADD      R0,R0,R5
        LDRSB    R0,[R0, #+1]
        AND      R1,R1,#0xFF
        AND      R0,R0,#0xFF
        ORR      R0,R1,R0, LSL #+8
        LDR      R1,[SP, #+0]
        ADD      R0,R1,R0
??run_62:
        BL       aint1int
        ORR      R10,R0,R10
??run_63:
        MOV      R4,R10
        B        ??run_38
??run_64:
        ADD      R8,R8,#+1
        B        ??run_45
??run_65:
        LDRSB    R0,[R8, +R5]
        ADD      R8,R8,#+1
        ADD      R0,R9,R0
        AND      R0,R0,#0xFF
        LDRSB    R0,[R0, +R5]
        AND      R0,R0,#0xFF
        ORR      R10,R0,R10
??run_66:
        MOV      R4,R10
??run_67:
        B        ??run_45
??run_68:
        LDRSB    R0,[R8, +R5]
        ADD      R8,R8,#+1
        MOV      R2,#+255
        ADD      R0,R9,R0
        AND      R0,R0,#0xFF
        LDRSB    R1,[R0, +R5]
        AND      R1,R1,#0xFF
        ASR      R7,R1,#+7
        AND      R4,R2,R1, LSL #+1
??run_69:
        STRB     R4,[R0, +R5]
        B        ??run_31
??run_70:
        MOV      R7,#+0
        B        ??run_42
??run_71:
        LDRSB    R0,[R8, +R5]
        LDR      R11,??run_1+0x4  ;; j_int_array1d_static_fld
        ADD      R4,R8,#+1
        AND      R0,R0,#0xFF
        STR      R0,[R11, #+2524]
        LDRSB    R1,[R4, +R5]
        ADD      R8,R4,#+1
        AND      R1,R1,#0xFF
        ORR      R0,R0,R1, LSL #+8
        LDR      R1,[SP, #+0]
        ADD      R0,R1,R0
        B        ??run_47
??run_72:
        LDRSB    R0,[R8, +R5]
        LDR      R11,??run_1+0x4  ;; j_int_array1d_static_fld
        ADD      R4,R8,#+1
        AND      R0,R0,#0xFF
        STR      R0,[R11, #+2524]
        LDRSB    R1,[R4, +R5]
        ADD      R8,R4,#+1
        AND      R1,R1,#0xFF
        ORR      R0,R0,R1, LSL #+8
        ADD      R0,R9,R0
        B        ??run_62
??run_73:
        LDRSB    R0,[R8, +R5]
        LDR      R11,??run_1+0x4  ;; j_int_array1d_static_fld
        ADD      R1,R8,#+1
        AND      R0,R0,#0xFF
        STR      R0,[R11, #+2524]
        LDRSB    R2,[R1, +R5]
        ADD      R8,R1,#+1
        AND      R2,R2,#0xFF
        ORR      R0,R0,R2, LSL #+8
        ADD      R11,R9,R0
        MOV      R0,R11
        BL       aint1int
        ASR      R7,R0,#+7
        MOV      R1,#+255
        AND      R4,R1,R0, LSL #+1
??run_74:
        MOV      R1,R4
        MOV      R0,R11
        BL       avoid2int
        B        ??run_27
??run_75:
        LDR      R0,[SP, #+16]
        LDR      R2,[SP, #+4]
        SUB      R0,R8,R0
        ADD      R1,R0,#+1
        MOV      R0,#+256
        ADD      R2,R2,R5
        ASR      R3,R1,#+8
        STRB     R3,[R0, +R2]
        LDR      R2,[SP, #+4]
        SUB      R2,R2,#+1
        ADD      R3,R2,R5
        STRB     R1,[R0, +R3]
        SUB      R1,R2,#+1
        STR      R1,[SP, #+4]
        LDRSB    R1,[R8, +R5]
        ADD      R2,R8,R5
        LDRSB    R2,[R2, #+1]
        AND      R1,R1,#0xFF
        AND      R2,R2,#0xFF
        ORR      R1,R1,R2, LSL #+8
        LDR      R2,??run_1+0x4   ;; j_int_array1d_static_fld
        STR      R1,[SP, #+8]
        ASR      R1,R1,#+13
        ADD      R1,R2,R1, LSL #+2
        LDR      R1,[R1, #+2440]
        STR      R1,[SP, #+16]
        LDR      R0,[SP, #+8]
??run_76:
        ADD      R8,R1,R0
        B        ??run_31
??run_77:
        LDRSB    R0,[R8, +R5]
        ADD      R8,R8,#+1
        ADD      R0,R9,R0
        AND      R0,R0,#0xFF
        LDRSB    R1,[R0, +R5]
        ADD      R0,R0,R5
        LDRSB    R0,[R0, #+1]
        AND      R1,R1,#0xFF
        AND      R0,R0,#0xFF
        ORR      R0,R1,R0, LSL #+8
        BL       aint1int
        AND      R10,R0,R10
??run_78:
        MOV      R4,R10
        B        ??run_31
??run_79:
        LDRSB    R0,[R8, +R5]
        ADD      R8,R8,#+1
        MOV      R1,#+1
        AND      R0,R0,#0xFF
        LDRSB    R0,[R0, +R5]
        AND      R4,R0,#0xFF
        AND      R1,R1,R4, ASR #+6
        STR      R1,[SP, #+12]
        LDRSB    R0,[R8, +R5]
        CMP      R0,#+16
        CMPNE    R0,#+48
        BEQ      ??run_33
        AND      R4,R4,R10
        B        ??run_33
??run_80:
        LDRSB    R0,[R8, +R5]
        ADD      R8,R8,#+1
        AND      R0,R0,#0xFF
        LDRSB    R0,[R0, +R5]
        AND      R0,R0,#0xFF
        AND      R10,R0,R10
??run_81:
        MOV      R4,R10
??run_82:
        B        ??run_33
??run_83:
        LDRSB    R0,[R8, +R5]
        ADD      R8,R8,#+1
        AND      R0,R0,#0xFF
        LDRSB    R1,[R0, +R5]
        AND      R1,R1,#0xFF
        ORR      R1,R7,R1, LSL #+1
        ASR      R7,R1,#+8
        AND      R4,R1,#0xFF
        B        ??run_37
??run_84:
        LDR      R1,[SP, #+4]
        ADD      R1,R1,#+1
        STR      R1,[SP, #+4]
        ADD      R0,R1,R5
        ADD      R0,R0,#+256
        LDRSB    R0,[R0, #+0]
        AND      R0,R0,#0xFF
        AND      R7,R0,#0x1
        TST      R0,#0x2
        MOVEQ    R1,#+1
        MOVNE    R1,#+0
        ASR      R2,R0,#+7
        ORR      R4,R1,R2, LSL #+7
        MOV      R2,#+1
        AND      R2,R2,R0, ASR #+6
        STR      R2,[SP, #+12]
        MOV      R2,#+1
        AND      R0,R2,R0, ASR #+2
        STR      R0,[SP, #+24]
        B        ??run_45
??run_85:
        LDRSB    R0,[R8, +R5]
        ADD      R8,R8,#+1
        AND      R0,R0,#0xFF
        AND      R10,R0,R10
        B        ??run_41
??run_86:
        ORR      R0,R7,R10, LSL #+1
        ASR      R7,R0,#+8
        AND      R10,R0,#0xFF
??run_87:
        MOV      R4,R10
??run_88:
        B        ??run_42
??run_89:
        LDRSB    R0,[R8, +R5]
        LDR      R11,??run_1+0x4  ;; j_int_array1d_static_fld
        ADD      R4,R8,#+1
        AND      R0,R0,#0xFF
        STR      R0,[R11, #+2524]
        LDRSB    R1,[R4, +R5]
        ADD      R8,R4,#+1
        AND      R1,R1,#0xFF
        ORR      R0,R0,R1, LSL #+8
        BL       aint1int
        MOV      R2,#+1
        AND      R2,R2,R0, ASR #+6
        STR      R2,[SP, #+12]
        LDRSB    R1,[R8, +R5]
        CMP      R1,#+16
        CMPNE    R1,#+48
        ANDNE    R4,R0,R10
        MOVEQ    R4,R0
        B        ??run_45
??run_90:
        LDRSB    R0,[R8, +R5]
        LDR      R11,??run_1+0x4  ;; j_int_array1d_static_fld
        ADD      R4,R8,#+1
        AND      R0,R0,#0xFF
        STR      R0,[R11, #+2524]
        LDRSB    R1,[R4, +R5]
        ADD      R8,R4,#+1
        AND      R1,R1,#0xFF
        ORR      R0,R0,R1, LSL #+8
        BL       aint1int
        AND      R10,R0,R10
        B        ??run_66
??run_91:
        LDRSB    R0,[R8, +R5]
        LDR      R11,??run_1+0x4  ;; j_int_array1d_static_fld
        ADD      R1,R8,#+1
        AND      R0,R0,#0xFF
        STR      R0,[R11, #+2524]
        LDRSB    R2,[R1, +R5]
        ADD      R8,R1,#+1
        AND      R2,R2,#0xFF
        ORR      R11,R0,R2, LSL #+8
        MOV      R0,R11
        BL       aint1int
        ORR      R0,R7,R0, LSL #+1
        ASR      R7,R0,#+8
        AND      R4,R0,#0xFF
        B        ??run_50
??run_92:
        ASRS     R0,R4,#+7
        BEQ      ??run_53
??run_93:
        LDRSB    R0,[R8, +R5]
        SUB      R6,R6,#+1
        ADD      R0,R0,#+1
        ADD      R8,R0,R8
??run_94:
        B        ??run_42
??run_95:
        LDRSB    R0,[R8, +R5]
        ADD      R8,R8,#+1
        AND      R0,R0,#0xFF
        LDRSB    R1,[R0, +R5]
        ADD      R0,R0,R5
        LDRSB    R0,[R0, #+1]
        AND      R1,R1,#0xFF
        AND      R0,R0,#0xFF
        ORR      R0,R1,R0, LSL #+8
        LDR      R1,[SP, #+0]
        ADD      R0,R1,R0
        BL       aint1int
        AND      R10,R0,R10
        B        ??run_63
??run_96:
        LDRSB    R0,[R8, +R5]
        ADD      R8,R8,#+1
        ADD      R0,R9,R0
        AND      R0,R0,#0xFF
        LDRSB    R0,[R0, +R5]
        AND      R0,R0,#0xFF
        AND      R10,R0,R10
        B        ??run_48
??run_97:
        LDRSB    R0,[R8, +R5]
        ADD      R8,R8,#+1
        ADD      R0,R9,R0
        AND      R0,R0,#0xFF
        LDRSB    R1,[R0, +R5]
        AND      R1,R1,#0xFF
        ORR      R1,R7,R1, LSL #+1
        ASR      R7,R1,#+8
        AND      R4,R1,#0xFF
        B        ??run_69
??run_98:
        MOV      R7,#+1
        B        ??run_42
??run_99:
        LDRSB    R0,[R8, +R5]
        LDR      R11,??run_1+0x4  ;; j_int_array1d_static_fld
        ADD      R4,R8,#+1
        AND      R0,R0,#0xFF
        STR      R0,[R11, #+2524]
        LDRSB    R1,[R4, +R5]
        ADD      R8,R4,#+1
        AND      R1,R1,#0xFF
        ORR      R0,R0,R1, LSL #+8
        LDR      R1,[SP, #+0]
        ADD      R0,R1,R0
        BL       aint1int
        AND      R10,R0,R10
        MOV      R4,R10
??run_100:
        SUB      R6,R6,#+4
        B        ??run_25
??run_101:
        LDRSB    R0,[R8, +R5]
        LDR      R11,??run_1+0x4  ;; j_int_array1d_static_fld
        ADD      R4,R8,#+1
        AND      R0,R0,#0xFF
        STR      R0,[R11, #+2524]
        LDRSB    R1,[R4, +R5]
        ADD      R8,R4,#+1
        AND      R1,R1,#0xFF
        ORR      R0,R0,R1, LSL #+8
        ADD      R0,R9,R0
        BL       aint1int
        AND      R10,R0,R10
??run_102:
        MOV      R4,R10
        B        ??run_38
??run_103:
        LDRSB    R0,[R8, +R5]
        LDR      R11,??run_1+0x4  ;; j_int_array1d_static_fld
        ADD      R1,R8,#+1
        AND      R0,R0,#0xFF
        STR      R0,[R11, #+2524]
        LDRSB    R2,[R1, +R5]
        ADD      R8,R1,#+1
        AND      R2,R2,#0xFF
        ORR      R0,R0,R2, LSL #+8
        ADD      R11,R9,R0
        MOV      R0,R11
        BL       aint1int
        ORR      R0,R7,R0, LSL #+1
        ASR      R7,R0,#+8
        AND      R4,R0,#0xFF
        B        ??run_74
        DATA
??run_1:
        DC32     running
        DC32     j_int_array1d_static_fld
        DC32     j_int_array1d_static_fld + 3205
        DC32     j_int_array1d_static_fld + 3208
        DC32     j_int_array1d_static_fld + 3160
        DC32     j_int_array1d_static_fld + 2884
        DC32     j_int_array1d_static_fld + 3204
        DC32     j_int_array1d_static_fld + 2892
        DC32     j_int_array1d_static_fld + 2568
        DC32     j_int_array1d_static_fld + 2564
        DC32     j_int_array1d_static_fld + 2620
        DC32     j_int_array1d_static_fld + 2548
        DC32     j_int_array1d_static_fld + 3200
        DC32     j_int_array1d_static_fld + 2624
        ARM
??run_104:
        LDR      R0,[SP, #+4]
        LDR      R11,??run_105    ;; j_int_array1d_static_fld
        ADD      R0,R0,#+1
        ADD      R1,R0,R5
        ADD      R1,R1,#+256
        LDRSB    R1,[R1, #+0]
        AND      R1,R1,#0xFF
        AND      R7,R1,#0x1
        TST      R1,#0x2
        MOVEQ    R2,#+1
        MOVNE    R2,#+0
        ASR      R3,R1,#+7
        ORR      R4,R2,R3, LSL #+7
        MOV      R3,#+1
        AND      R3,R3,R1, ASR #+6
        STR      R3,[SP, #+12]
        MOV      R3,#+1
        AND      R1,R3,R1, ASR #+2
        STR      R1,[SP, #+24]
        ADD      R2,R0,#+1
        MOV      R0,#+256
        ADD      R1,R2,R5
        LDRSB    R1,[R0, +R1]
        ADD      R2,R2,#+1
        ADD      R3,R2,R5
        AND      R1,R1,#0xFF
        STR      R1,[R11, #+2524]
        STR      R2,[SP, #+4]
        LDRSB    R0,[R0, +R3]
        AND      R0,R0,#0xFF
        ORR      R0,R1,R0, LSL #+8
        STR      R0,[SP, #+8]
        MOV      R1,R0
        ASR      R1,R1,#+13
        ADD      R1,R11,R1, LSL #+2
        LDR      R1,[R1, #+2440]
        STR      R1,[SP, #+16]
        B        ??run_76
??run_106:
        LDRSB    R0,[R8, +R5]
        ADD      R8,R8,#+1
        ADD      R0,R9,R0
        AND      R0,R0,#0xFF
        LDRSB    R1,[R0, +R5]
        ADD      R0,R0,R5
        LDRSB    R0,[R0, #+1]
        AND      R1,R1,#0xFF
        AND      R0,R0,#0xFF
        ORR      R0,R1,R0, LSL #+8
        BL       aint1int
        EOR      R10,R0,R10
        B        ??run_78
??run_107:
        LDRSB    R0,[R8, +R5]
        ADD      R8,R8,#+1
        AND      R0,R0,#0xFF
        LDRSB    R0,[R0, +R5]
        AND      R0,R0,#0xFF
        EOR      R10,R0,R10
        B        ??run_35
??run_108:
        LDRSB    R0,[R8, +R5]
        ADD      R8,R8,#+1
        AND      R0,R0,#0xFF
        LDRSB    R1,[R0, +R5]
        AND      R1,R1,#0xFF
        AND      R7,R1,#0x1
        ASR      R4,R1,#+1
        B        ??run_37
??run_109:
        LDR      R0,[SP, #+4]
        ADD      R0,R0,R5
        STRB     R10,[R0, #+256]
        LDR      R1,[SP, #+4]
        SUB      R1,R1,#+1
        STR      R1,[SP, #+4]
        B        ??run_33
??run_110:
        LDRSB    R0,[R8, +R5]
        ADD      R8,R8,#+1
        AND      R0,R0,#0xFF
        EOR      R10,R0,R10
        B        ??run_41
??run_111:
        AND      R7,R10,#0x1
        ASR      R10,R10,#+1
        B        ??run_87
??run_112:
        LDRSB    R2,[R8, +R5]
        ADD      R3,R8,R5
        LDRSB    R3,[R3, #+1]
        AND      R2,R2,#0xFF
        SUB      R0,R8,#+1
        AND      R3,R3,#0xFF
        ORR      R2,R2,R3, LSL #+8
        LDR      R3,??run_105     ;; j_int_array1d_static_fld
        STR      R2,[SP, #+8]
        ASR      R2,R2,#+13
        ADD      R2,R3,R2, LSL #+2
        LDR      R2,[R2, #+2440]
        SUB      R6,R6,#+3
        STR      R2,[SP, #+16]
        LDR      R1,[SP, #+8]
        ADD      R8,R2,R1
        LDR      R1,[SP, #+28]
        CMP      R8,R1
        CMPNE    R8,R0
        BEQ      ??run_55
        LDR      R0,[SP, #+60]
        LSLS     R0,R0,#+24
        BEQ      ??run_25
        MOV      R0,#+0
??run_113:
        ADD      R1,SP,#+72
        LDR      R1,[R1, +R0, LSL #+2]
        CMP      R1,R8
        BNE      ??run_114
        ADD      R1,SP,#+472
        ADD      R0,R1,R0, LSL #+2
        LDR      R1,[R0, #+0]
        ADD      R1,R1,#+1
        STR      R1,[R0, #+0]
        B        ??run_25
??run_114:
        ADD      R0,R0,#+1
        CMP      R0,#+100
        BLT      ??run_113
        MOV      R0,#+0
        B        ??run_24
??run_115:
        LDRSB    R0,[R8, +R5]
        LDR      R11,??run_105    ;; j_int_array1d_static_fld
        ADD      R4,R8,#+1
        AND      R0,R0,#0xFF
        STR      R0,[R11, #+2524]
        LDRSB    R1,[R4, +R5]
        ADD      R8,R4,#+1
        AND      R1,R1,#0xFF
        ORR      R0,R0,R1, LSL #+8
        BL       aint1int
        EOR      R10,R0,R10
        MOV      R4,R10
        B        ??run_45
??run_116:
        LDRSB    R0,[R8, +R5]
        LDR      R11,??run_105    ;; j_int_array1d_static_fld
        ADD      R1,R8,#+1
        AND      R0,R0,#0xFF
        STR      R0,[R11, #+2524]
        LDRSB    R2,[R1, +R5]
        ADD      R8,R1,#+1
        AND      R2,R2,#0xFF
        ORR      R11,R0,R2, LSL #+8
        MOV      R0,R11
        BL       aint1int
        AND      R7,R0,#0x1
        ASR      R4,R0,#+1
        B        ??run_50
??run_117:
        LDR      R0,[SP, #+12]
        CMP      R0,#+0
        BNE      ??run_53
        LDRSB    R0,[R8, +R5]
        SUB      R6,R6,#+3
        ADD      R1,R0,#+1
        ADD      R8,R1,R8
        CMP      R0,#+0
        BPL      ??run_25
        CMN      R0,#+5
        BLT      ??run_25
        LDRSBEQ  R0,[R8, +R5]
        CMPEQ    R0,#+44
        B        ??run_60
??run_118:
        LDRSB    R0,[R8, +R5]
        ADD      R8,R8,#+1
        AND      R0,R0,#0xFF
        LDRSB    R1,[R0, +R5]
        ADD      R0,R0,R5
        LDRSB    R0,[R0, #+1]
        AND      R1,R1,#0xFF
        AND      R0,R0,#0xFF
        ORR      R0,R1,R0, LSL #+8
        LDR      R1,[SP, #+0]
        ADD      R0,R1,R0
        BL       aint1int
        EOR      R10,R0,R10
        B        ??run_63
??run_119:
        LDRSB    R0,[R8, +R5]
        ADD      R8,R8,#+1
        ADD      R0,R9,R0
        AND      R0,R0,#0xFF
        LDRSB    R0,[R0, +R5]
        AND      R0,R0,#0xFF
        EOR      R10,R0,R10
        B        ??run_48
??run_120:
        LDRSB    R0,[R8, +R5]
        ADD      R8,R8,#+1
        ADD      R0,R9,R0
        AND      R0,R0,#0xFF
        LDRSB    R1,[R0, +R5]
        AND      R1,R1,#0xFF
        AND      R7,R1,#0x1
        ASR      R4,R1,#+1
        B        ??run_69
??run_121:
        MOV      R1,#+0
??run_122:
        STR      R1,[SP, #+24]
        B        ??run_42
??run_123:
        LDRSB    R0,[R8, +R5]
        LDR      R11,??run_105    ;; j_int_array1d_static_fld
        ADD      R4,R8,#+1
        AND      R0,R0,#0xFF
        STR      R0,[R11, #+2524]
        LDRSB    R1,[R4, +R5]
        ADD      R8,R4,#+1
        AND      R1,R1,#0xFF
        ORR      R0,R0,R1, LSL #+8
        LDR      R1,[SP, #+0]
        ADD      R0,R1,R0
        BL       aint1int
        EOR      R10,R0,R10
        B        ??run_66
??run_124:
        LDRSB    R0,[R8, +R5]
        LDR      R11,??run_105    ;; j_int_array1d_static_fld
        ADD      R4,R8,#+1
        AND      R0,R0,#0xFF
        STR      R0,[R11, #+2524]
        LDRSB    R1,[R4, +R5]
        ADD      R8,R4,#+1
        AND      R1,R1,#0xFF
        ORR      R0,R0,R1, LSL #+8
        ADD      R0,R9,R0
        BL       aint1int
        EOR      R10,R0,R10
        B        ??run_102
??run_125:
        LDRSB    R0,[R8, +R5]
        LDR      R11,??run_105    ;; j_int_array1d_static_fld
        ADD      R1,R8,#+1
        AND      R0,R0,#0xFF
        STR      R0,[R11, #+2524]
        LDRSB    R2,[R1, +R5]
        ADD      R8,R1,#+1
        AND      R2,R2,#0xFF
        ORR      R0,R0,R2, LSL #+8
        ADD      R11,R9,R0
        MOV      R0,R11
        BL       aint1int
        AND      R7,R0,#0x1
        ASR      R4,R0,#+1
??run_126:
        MOV      R1,R4
        MOV      R0,R11
        BL       avoid2int
        B        ??run_27
??run_127:
        LDR      R0,[SP, #+4]
        LDR      R11,??run_105    ;; j_int_array1d_static_fld
        ADD      R2,R0,#+1
        MOV      R0,#+256
        ADD      R1,R2,R5
        LDRSB    R1,[R0, +R1]
        ADD      R2,R2,#+1
        ADD      R3,R2,R5
        AND      R1,R1,#0xFF
        STR      R1,[R11, #+2524]
        STR      R2,[SP, #+4]
        LDRSB    R0,[R0, +R3]
        AND      R0,R0,#0xFF
        ORR      R0,R1,R0, LSL #+8
        ADD      R0,R0,#+1
        STR      R0,[SP, #+8]
        LDR      R1,[SP, #+8]
        ASR      R1,R1,#+13
        ADD      R1,R11,R1, LSL #+2
        LDR      R1,[R1, #+2440]
        STR      R1,[SP, #+16]
        LDR      R0,[SP, #+8]
        ADD      R8,R1,R0
        B        ??run_45
??run_128:
        LDRSB    R0,[R8, +R5]
        ADD      R8,R8,#+1
        ADD      R0,R9,R0
        AND      R0,R0,#0xFF
        LDRSB    R1,[R0, +R5]
        ADD      R0,R0,R5
        LDRSB    R0,[R0, #+1]
        AND      R1,R1,#0xFF
        AND      R0,R0,#0xFF
        ORR      R0,R1,R0, LSL #+8
        BL       aint1int
        ADD      R1,R0,R10
        ADD      R1,R7,R1
        EOR      R0,R0,R10
        EOR      R3,R1,R10
        BIC      R0,R3,R0
        MOV      R3,#+1
        AND      R0,R3,R0, ASR #+7
        STR      R0,[SP, #+12]
        ASR      R7,R1,#+8
        AND      R10,R1,#0xFF
        B        ??run_30
??run_129:
        LDRSB    R0,[R8, +R5]
        ADD      R8,R8,#+1
        AND      R0,R0,#0xFF
        LDRSB    R0,[R0, +R5]
        AND      R0,R0,#0xFF
        ADD      R1,R0,R10
        ADD      R1,R7,R1
        EOR      R0,R0,R10
        EOR      R3,R1,R10
        BIC      R0,R3,R0
        MOV      R3,#+1
        AND      R0,R3,R0, ASR #+7
        STR      R0,[SP, #+12]
        ASR      R7,R1,#+8
        AND      R10,R1,#0xFF
        B        ??run_35
??run_130:
        LDRSB    R0,[R8, +R5]
        ADD      R8,R8,#+1
        LSL      R2,R7,#+7
        AND      R0,R0,#0xFF
        LDRSB    R1,[R0, +R5]
        AND      R1,R1,#0xFF
        AND      R7,R1,#0x1
        ORR      R4,R2,R1, ASR #+1
        B        ??run_37
??run_131:
        LDR      R1,[SP, #+4]
        ADD      R1,R1,#+1
        STR      R1,[SP, #+4]
        ADD      R0,R1,R5
        ADD      R0,R0,#+256
        LDRSB    R0,[R0, #+0]
        AND      R10,R0,#0xFF
        B        ??run_66
??run_132:
        LDRSB    R0,[R8, +R5]
        ADD      R8,R8,#+1
        AND      R0,R0,#0xFF
        ADD      R1,R0,R10
        ADD      R1,R7,R1
        EOR      R0,R0,R10
        EOR      R3,R1,R10
        BIC      R0,R3,R0
        MOV      R3,#+1
        AND      R0,R3,R0, ASR #+7
        STR      R0,[SP, #+12]
        ASR      R7,R1,#+8
        AND      R10,R1,#0xFF
        B        ??run_41
??run_133:
        MOV      R0,R7
        AND      R7,R10,#0x1
        LSL      R0,R0,#+7
        ORR      R10,R0,R10, ASR #+1
        B        ??run_87
??run_134:
        LDRSB    R0,[R8, +R5]
        LDR      R11,??run_105    ;; j_int_array1d_static_fld
        ADD      R1,R8,R5
        AND      R0,R0,#0xFF
        STR      R0,[R11, #+2524]
        LDRSB    R1,[R1, #+1]
        CMP      R0,#+255
        AND      R1,R1,#0xFF
        ORR      R8,R0,R1, LSL #+8
        MOV      R0,R8
        BNE      ??run_135
        BL       aint1int
        MOV      R11,R0
        AND      R0,R8,#0xFF00
        B        ??run_136
??run_135:
        BL       aint1int
        MOV      R11,R0
        ADD      R0,R8,#+1
??run_136:
        BL       aint1int
        LDR      R2,??run_105     ;; j_int_array1d_static_fld
        ORR      R0,R11,R0, LSL #+8
        STR      R0,[SP, #+8]
        LDR      R1,[SP, #+8]
        ASR      R1,R1,#+13
        ADD      R1,R2,R1, LSL #+2
        LDR      R1,[R1, #+2440]
        STR      R1,[SP, #+16]
        LDR      R0,[SP, #+8]
        ADD      R8,R1,R0
        B        ??run_38
??run_137:
        LDRSB    R0,[R8, +R5]
        LDR      R11,??run_105    ;; j_int_array1d_static_fld
        ADD      R4,R8,#+1
        AND      R0,R0,#0xFF
        STR      R0,[R11, #+2524]
        LDRSB    R1,[R4, +R5]
        ADD      R8,R4,#+1
        AND      R1,R1,#0xFF
        ORR      R0,R0,R1, LSL #+8
        BL       aint1int
        ADD      R1,R0,R10
        ADD      R1,R7,R1
        EOR      R0,R0,R10
        EOR      R3,R1,R10
        BIC      R0,R3,R0
        MOV      R3,#+1
        AND      R0,R3,R0, ASR #+7
        STR      R0,[SP, #+12]
        ASR      R7,R1,#+8
        AND      R10,R1,#0xFF
        B        ??run_48
??run_138:
        LDRSB    R0,[R8, +R5]
        LDR      R11,??run_105    ;; j_int_array1d_static_fld
        ADD      R1,R8,#+1
        AND      R0,R0,#0xFF
        STR      R0,[R11, #+2524]
        LDRSB    R2,[R1, +R5]
        ADD      R8,R1,#+1
        AND      R2,R2,#0xFF
        ORR      R11,R0,R2, LSL #+8
        MOV      R0,R11
        BL       aint1int
        LSL      R1,R7,#+7
        AND      R7,R0,#0x1
        ORR      R4,R1,R0, ASR #+1
        B        ??run_50
??run_139:
        LDR      R0,[SP, #+12]
        CMP      R0,#+0
        BEQ      ??run_64
        LDRSB    R0,[R8, +R5]
        SUB      R6,R6,#+1
        ADD      R0,R0,#+1
        ADD      R8,R0,R8
        B        ??run_45
??run_140:
        LDRSB    R0,[R8, +R5]
        ADD      R8,R8,#+1
        AND      R0,R0,#0xFF
        LDRSB    R1,[R0, +R5]
        ADD      R0,R0,R5
        LDRSB    R0,[R0, #+1]
        AND      R1,R1,#0xFF
        AND      R0,R0,#0xFF
        ORR      R0,R1,R0, LSL #+8
        LDR      R1,[SP, #+0]
        ADD      R0,R1,R0
        BL       aint1int
        ADD      R1,R0,R10
        ADD      R1,R7,R1
        EOR      R0,R0,R10
        EOR      R3,R1,R10
        BIC      R0,R3,R0
        MOV      R3,#+1
        AND      R0,R3,R0, ASR #+7
        STR      R0,[SP, #+12]
        ASR      R7,R1,#+8
        AND      R10,R1,#0xFF
        B        ??run_63
??run_141:
        LDRSB    R0,[R8, +R5]
        ADD      R8,R8,#+1
        ADD      R0,R9,R0
        AND      R0,R0,#0xFF
        LDRSB    R0,[R0, +R5]
        AND      R0,R0,#0xFF
        ADD      R1,R0,R10
        ADD      R1,R7,R1
        EOR      R0,R0,R10
        EOR      R3,R1,R10
        BIC      R0,R3,R0
        MOV      R3,#+1
        AND      R0,R3,R0, ASR #+7
        STR      R0,[SP, #+12]
        ASR      R7,R1,#+8
        AND      R10,R1,#0xFF
        B        ??run_66
??run_142:
        LDRSB    R0,[R8, +R5]
        ADD      R8,R8,#+1
        LSL      R2,R7,#+7
        ADD      R0,R9,R0
        AND      R0,R0,#0xFF
        LDRSB    R1,[R0, +R5]
        AND      R1,R1,#0xFF
        AND      R7,R1,#0x1
        ORR      R4,R2,R1, ASR #+1
        B        ??run_69
??run_143:
        MOV      R1,#+1
        B        ??run_122
??run_144:
        LDRSB    R0,[R8, +R5]
        LDR      R11,??run_105    ;; j_int_array1d_static_fld
        ADD      R4,R8,#+1
        AND      R0,R0,#0xFF
        STR      R0,[R11, #+2524]
        LDRSB    R1,[R4, +R5]
        ADD      R8,R4,#+1
        AND      R1,R1,#0xFF
        ORR      R0,R0,R1, LSL #+8
        LDR      R1,[SP, #+0]
        ADD      R0,R1,R0
        BL       aint1int
        ADD      R1,R0,R10
        ADD      R1,R7,R1
        EOR      R0,R0,R10
        EOR      R3,R1,R10
        BIC      R0,R3,R0
        MOV      R3,#+1
        AND      R0,R3,R0, ASR #+7
        STR      R0,[SP, #+12]
        ASR      R7,R1,#+8
        AND      R10,R1,#0xFF
        B        ??run_48
??run_145:
        LDRSB    R0,[R8, +R5]
        LDR      R11,??run_105    ;; j_int_array1d_static_fld
        ADD      R4,R8,#+1
        AND      R0,R0,#0xFF
        STR      R0,[R11, #+2524]
        LDRSB    R1,[R4, +R5]
        ADD      R8,R4,#+1
        AND      R1,R1,#0xFF
        ORR      R0,R0,R1, LSL #+8
        ADD      R0,R9,R0
        BL       aint1int
        ADD      R1,R0,R10
        ADD      R1,R7,R1
        EOR      R0,R0,R10
        EOR      R3,R1,R10
        BIC      R0,R3,R0
        MOV      R3,#+1
        AND      R0,R3,R0, ASR #+7
        STR      R0,[SP, #+12]
        ASR      R7,R1,#+8
        AND      R10,R1,#0xFF
        B        ??run_102
??run_146:
        LDRSB    R0,[R8, +R5]
        LDR      R11,??run_105    ;; j_int_array1d_static_fld
        ADD      R1,R8,#+1
        AND      R0,R0,#0xFF
        STR      R0,[R11, #+2524]
        LDRSB    R2,[R1, +R5]
        ADD      R8,R1,#+1
        AND      R2,R2,#0xFF
        ORR      R0,R0,R2, LSL #+8
        ADD      R11,R9,R0
        MOV      R0,R11
        BL       aint1int
        LSL      R1,R7,#+7
        AND      R7,R0,#0x1
        ORR      R4,R1,R0, ASR #+1
        B        ??run_74
??run_147:
        LDRSB    R0,[R8, +R5]
        MOV      R1,R10
        ADD      R8,R8,#+1
        ADD      R0,R9,R0
        AND      R0,R0,#0xFF
        LDRSB    R2,[R0, +R5]
        ADD      R0,R0,R5
        LDRSB    R0,[R0, #+1]
        AND      R2,R2,#0xFF
        AND      R0,R0,#0xFF
        ORR      R0,R2,R0, LSL #+8
        B        ??run_51
??run_148:
        LDRSB    R0,[R8, +R5]
        LDR      R1,[SP, #+0]
        ADD      R8,R8,#+1
        AND      R0,R0,#0xFF
        STRB     R1,[R0, +R5]
        B        ??run_33
??run_149:
        LDRSB    R0,[R8, +R5]
        ADD      R8,R8,#+1
        AND      R0,R0,#0xFF
        STRB     R10,[R0, +R5]
        B        ??run_33
??run_150:
        LDRSB    R0,[R8, +R5]
        ADD      R8,R8,#+1
        AND      R0,R0,#0xFF
        STRB     R9,[R0, +R5]
        B        ??run_33
??run_151:
        LDR      R1,[SP, #+0]
        SUB      R1,R1,#+1
        AND      R1,R1,#0xFF
        STR      R1,[SP, #+0]
        LDR      R4,[SP, #+0]
        B        ??run_42
??run_152:
        MOV      R10,R9
        B        ??run_87
??run_153:
        LDRSB    R0,[R8, +R5]
        LDR      R11,??run_105    ;; j_int_array1d_static_fld
        ADD      R8,R8,#+1
        AND      R0,R0,#0xFF
        STR      R0,[R11, #+2524]
        LDRSB    R2,[R8, +R5]
        LDR      R1,[SP, #+0]
??run_154:
        ADD      R8,R8,#+1
        AND      R2,R2,#0xFF
        ORR      R0,R0,R2, LSL #+8
        BL       avoid2int
        B        ??run_45
??run_155:
        LDRSB    R0,[R8, +R5]
        LDR      R11,??run_105    ;; j_int_array1d_static_fld
        ADD      R8,R8,#+1
        AND      R0,R0,#0xFF
        STR      R0,[R11, #+2524]
        LDRSB    R2,[R8, +R5]
        MOV      R1,R10
        ADD      R8,R8,#+1
        AND      R2,R2,#0xFF
        ORR      R0,R0,R2, LSL #+8
        BL       avoid2int
        B        ??run_45
??run_156:
        LDRSB    R0,[R8, +R5]
        LDR      R11,??run_105    ;; j_int_array1d_static_fld
        ADD      R8,R8,#+1
        AND      R0,R0,#0xFF
        STR      R0,[R11, #+2524]
        LDRSB    R2,[R8, +R5]
        MOV      R1,R9
        B        ??run_154
??run_157:
        CMP      R7,#+0
        BEQ      ??run_93
??run_158:
        B        ??run_53
??run_159:
        LDRSB    R0,[R8, +R5]
        MOV      R1,R10
        ADD      R8,R8,#+1
        AND      R0,R0,#0xFF
        LDRSB    R2,[R0, +R5]
        ADD      R0,R0,R5
        LDRSB    R0,[R0, #+1]
        AND      R2,R2,#0xFF
        AND      R0,R0,#0xFF
        ORR      R0,R2,R0, LSL #+8
        LDR      R2,[SP, #+0]
        ADD      R0,R2,R0
        BL       avoid2int
        B        ??run_31
??run_160:
        LDRSB    R0,[R8, +R5]
        LDR      R1,[SP, #+0]
        ADD      R8,R8,#+1
        ADD      R0,R9,R0
        AND      R0,R0,#0xFF
        STRB     R1,[R0, +R5]
        B        ??run_100
??run_161:
        LDRSB    R0,[R8, +R5]
        ADD      R8,R8,#+1
        ADD      R0,R9,R0
        AND      R0,R0,#0xFF
        STRB     R10,[R0, +R5]
        B        ??run_45
??run_162:
        LDRSB    R0,[R8, +R5]
        LDR      R1,[SP, #+0]
        ADD      R8,R8,#+1
        ADD      R0,R1,R0
        AND      R0,R0,#0xFF
        STRB     R9,[R0, +R5]
        B        ??run_45
??run_163:
        LDR      R10,[SP, #+0]
        B        ??run_41
??run_164:
        LDRSB    R0,[R8, +R5]
        LDR      R11,??run_105    ;; j_int_array1d_static_fld
        ADD      R8,R8,#+1
        AND      R0,R0,#0xFF
        STR      R0,[R11, #+2524]
        LDRSB    R2,[R8, +R5]
        MOV      R1,R10
        ADD      R8,R8,#+1
        AND      R2,R2,#0xFF
        ORR      R0,R0,R2, LSL #+8
        LDR      R2,[SP, #+0]
        ADD      R0,R2,R0
??run_165:
        BL       avoid2int
        B        ??run_38
??run_166:
        STR      R9,[SP, #+4]
        B        ??run_42
??run_167:
        LDRSB    R0,[R8, +R5]
        LDR      R11,??run_105    ;; j_int_array1d_static_fld
        ADD      R8,R8,#+1
        AND      R0,R0,#0xFF
        STR      R0,[R11, #+2524]
        LDRSB    R2,[R8, +R5]
        MOV      R1,R10
        ADD      R8,R8,#+1
        AND      R2,R2,#0xFF
        ORR      R0,R0,R2, LSL #+8
        ADD      R0,R9,R0
        B        ??run_165
??run_168:
        LDRSB    R0,[R8, +R5]
        ADD      R8,R8,#+1
        AND      R4,R0,#0xFF
        STR      R4,[SP, #+0]
        B        ??run_42
??run_169:
        LDRSB    R0,[R8, +R5]
        ADD      R8,R8,#+1
        ADD      R0,R9,R0
        AND      R0,R0,#0xFF
        LDRSB    R1,[R0, +R5]
        ADD      R0,R0,R5
        LDRSB    R0,[R0, #+1]
        AND      R1,R1,#0xFF
        AND      R0,R0,#0xFF
        ORR      R0,R1,R0, LSL #+8
        BL       aint1int
        MOV      R10,R0
        MOV      R4,R0
        B        ??run_31
??run_170:
        LDRSB    R0,[R8, +R5]
        ADD      R8,R8,#+1
        SUB      R6,R6,#+2
        AND      R4,R0,#0xFF
        MOV      R9,R4
        B        ??run_25
??run_171:
        LDRSB    R0,[R8, +R5]
        ADD      R8,R8,#+1
        AND      R0,R0,#0xFF
        LDRSB    R0,[R0, +R5]
        AND      R4,R0,#0xFF
        STR      R4,[SP, #+0]
        B        ??run_33
??run_172:
        LDRSB    R0,[R8, +R5]
        ADD      R8,R8,#+1
        AND      R0,R0,#0xFF
        LDRSB    R0,[R0, +R5]
        AND      R4,R0,#0xFF
        MOV      R10,R4
        B        ??run_33
??run_173:
        LDRSB    R0,[R8, +R5]
        ADD      R8,R8,#+1
        AND      R0,R0,#0xFF
        LDRSB    R0,[R0, +R5]
        AND      R4,R0,#0xFF
        MOV      R9,R4
        B        ??run_33
??run_174:
        STR      R10,[SP, #+0]
        B        ??run_41
??run_175:
        LDRSB    R0,[R8, +R5]
        ADD      R8,R8,#+1
        AND      R4,R0,#0xFF
        MOV      R10,R4
        B        ??run_42
??run_176:
        MOV      R9,R10
??run_177:
        MOV      R4,R9
        B        ??run_42
??run_178:
        LDRSB    R0,[R8, +R5]
        LDR      R11,??run_105    ;; j_int_array1d_static_fld
        ADD      R4,R8,#+1
        AND      R0,R0,#0xFF
        STR      R0,[R11, #+2524]
        LDRSB    R1,[R4, +R5]
        ADD      R8,R4,#+1
        AND      R1,R1,#0xFF
        ORR      R0,R0,R1, LSL #+8
        BL       aint1int
        STR      R0,[SP, #+0]
??run_179:
        MOV      R4,R0
        B        ??run_45
??run_180:
        LDRSB    R0,[R8, +R5]
        LDR      R11,??run_105    ;; j_int_array1d_static_fld
        ADD      R4,R8,#+1
        AND      R0,R0,#0xFF
        STR      R0,[R11, #+2524]
        LDRSB    R1,[R4, +R5]
        ADD      R8,R4,#+1
        AND      R1,R1,#0xFF
        ORR      R0,R0,R1, LSL #+8
        BL       aint1int
        MOV      R10,R0
??run_181:
        MOV      R4,R0
        B        ??run_45
??run_182:
        LDRSB    R0,[R8, +R5]
        LDR      R11,??run_105    ;; j_int_array1d_static_fld
        ADD      R4,R8,#+1
        AND      R0,R0,#0xFF
        STR      R0,[R11, #+2524]
        LDRSB    R1,[R4, +R5]
        ADD      R8,R4,#+1
        AND      R1,R1,#0xFF
        ORR      R0,R0,R1, LSL #+8
        BL       aint1int
        MOV      R9,R0
        B        ??run_179
??run_183:
        CMP      R7,#+0
        BEQ      ??run_53
        LDRSB    R0,[R8, +R5]
        ADD      R0,R0,#+1
        ADD      R8,R0,R8
        B        ??run_33
??run_184:
        LDRSB    R0,[R8, +R5]
        ADD      R8,R8,#+1
        AND      R0,R0,#0xFF
        LDRSB    R1,[R0, +R5]
        ADD      R0,R0,R5
        LDRSB    R0,[R0, #+1]
        AND      R1,R1,#0xFF
        AND      R0,R0,#0xFF
        ORR      R0,R1,R0, LSL #+8
        LDR      R1,[SP, #+0]
        ADD      R0,R1,R0
        BL       aint1int
        MOV      R10,R0
        MOV      R4,R0
        B        ??run_38
??run_185:
        LDRSB    R0,[R8, +R5]
        ADD      R8,R8,#+1
        ADD      R0,R9,R0
        AND      R0,R0,#0xFF
        LDRSB    R0,[R0, +R5]
        AND      R4,R0,#0xFF
        STR      R4,[SP, #+0]
        B        ??run_100
??run_186:
        LDRSB    R0,[R8, +R5]
        ADD      R8,R8,#+1
        ADD      R0,R9,R0
        AND      R0,R0,#0xFF
        LDRSB    R0,[R0, +R5]
        AND      R4,R0,#0xFF
        MOV      R10,R4
        B        ??run_45
??run_187:
        LDRSB    R0,[R8, +R5]
        LDR      R1,[SP, #+0]
        ADD      R8,R8,#+1
        ADD      R0,R1,R0
        AND      R0,R0,#0xFF
        LDRSB    R0,[R0, +R5]
        AND      R4,R0,#0xFF
        MOV      R9,R4
        B        ??run_45
??run_188:
        MOV      R1,#+0
        STR      R1,[SP, #+12]
        B        ??run_42
??run_189:
        LDRSB    R0,[R8, +R5]
        LDR      R11,??run_105    ;; j_int_array1d_static_fld
        ADD      R4,R8,#+1
        AND      R0,R0,#0xFF
        STR      R0,[R11, #+2524]
        LDRSB    R1,[R4, +R5]
        ADD      R8,R4,#+1
        AND      R1,R1,#0xFF
        ORR      R0,R0,R1, LSL #+8
        LDR      R1,[SP, #+0]
        ADD      R0,R1,R0
        BL       aint1int
        MOV      R10,R0
        B        ??run_179
??run_190:
        LDR      R9,[SP, #+4]
        B        ??run_177
??run_191:
        LDRSB    R0,[R8, +R5]
        LDR      R11,??run_105    ;; j_int_array1d_static_fld
        ADD      R4,R8,#+1
        AND      R0,R0,#0xFF
        STR      R0,[R11, #+2524]
        LDRSB    R1,[R4, +R5]
        ADD      R8,R4,#+1
        SUB      R6,R6,#+4
        AND      R1,R1,#0xFF
        ORR      R0,R0,R1, LSL #+8
        ADD      R0,R9,R0
        BL       aint1int
        STR      R0,[SP, #+0]
        MOV      R4,R0
        B        ??run_25
??run_192:
        LDRSB    R0,[R8, +R5]
        LDR      R11,??run_105    ;; j_int_array1d_static_fld
        ADD      R4,R8,#+1
        AND      R0,R0,#0xFF
        STR      R0,[R11, #+2524]
        LDRSB    R1,[R4, +R5]
        ADD      R8,R4,#+1
        AND      R1,R1,#0xFF
        ORR      R0,R0,R1, LSL #+8
        ADD      R0,R9,R0
        BL       aint1int
        MOV      R10,R0
        MOV      R4,R0
        B        ??run_45
??run_193:
        LDRSB    R0,[R8, +R5]
        LDR      R11,??run_105    ;; j_int_array1d_static_fld
        ADD      R4,R8,#+1
        AND      R0,R0,#0xFF
        STR      R0,[R11, #+2524]
        LDRSB    R1,[R4, +R5]
        ADD      R8,R4,#+1
        AND      R1,R1,#0xFF
        ORR      R0,R0,R1, LSL #+8
        LDR      R1,[SP, #+0]
        ADD      R0,R1,R0
        BL       aint1int
        MOV      R9,R0
        B        ??run_181
??run_194:
        LDRSB    R1,[R8, +R5]
        LDR      R0,[SP, #+0]
        ADD      R8,R8,#+1
        AND      R1,R1,#0xFF
        SUB      R0,R0,R1
??run_195:
        CMP      R0,#+0
        MOVMI    R7,#+0
        MOVPL    R7,#+1
        AND      R4,R0,#0xFF
        B        ??run_42
??run_196:
        LDRSB    R0,[R8, +R5]
        ADD      R8,R8,#+1
        ADD      R0,R9,R0
        AND      R0,R0,#0xFF
        LDRSB    R1,[R0, +R5]
        ADD      R0,R0,R5
        LDRSB    R0,[R0, #+1]
        AND      R1,R1,#0xFF
        AND      R0,R0,#0xFF
        ORR      R0,R1,R0, LSL #+8
        BL       aint1int
        SUBS     R0,R10,R0
        MOVMI    R7,#+0
        MOVPL    R7,#+1
??run_197:
        AND      R4,R0,#0xFF
        B        ??run_31
??run_198:
        LDRSB    R1,[R8, +R5]
        LDR      R0,[SP, #+0]
        ADD      R8,R8,#+1
        AND      R1,R1,#0xFF
        LDRSB    R1,[R1, +R5]
        AND      R1,R1,#0xFF
        SUB      R0,R0,R1
??run_199:
        CMP      R0,#+0
        MOVMI    R7,#+0
        MOVPL    R7,#+1
        AND      R4,R0,#0xFF
        B        ??run_33
??run_200:
        LDRSB    R0,[R8, +R5]
        ADD      R8,R8,#+1
        AND      R0,R0,#0xFF
        LDRSB    R0,[R0, +R5]
        AND      R0,R0,#0xFF
        SUB      R0,R10,R0
        CMP      R0,#+0
        MOVMI    R7,#+0
        MOVPL    R7,#+1
        AND      R4,R0,#0xFF
        B        ??run_33
??run_201:
        LDRSB    R0,[R8, +R5]
        ADD      R8,R8,#+1
        AND      R0,R0,#0xFF
        LDRSB    R1,[R0, +R5]
        SUB      R1,R1,#+1
        STRB     R1,[R0, +R5]
        LDRSB    R0,[R0, +R5]
??run_202:
        AND      R4,R0,#0xFF
        B        ??run_38
??run_203:
        LDR      R1,[SP, #+0]
        ADD      R1,R1,#+1
        AND      R1,R1,#0xFF
        STR      R1,[SP, #+0]
        MOV      R4,R1
        B        ??run_42
??run_204:
        LDRSB    R0,[R8, +R5]
        ADD      R8,R8,#+1
        AND      R0,R0,#0xFF
        SUB      R0,R10,R0
        CMP      R0,#+0
        MOVMI    R7,#+0
        MOVPL    R7,#+1
        AND      R4,R0,#0xFF
        B        ??run_42
??run_205:
        SUB      R0,R9,#+1
        AND      R9,R0,#0xFF
        B        ??run_177
??run_206:
        LDRSB    R0,[R8, +R5]
        LDR      R11,??run_105    ;; j_int_array1d_static_fld
        ADD      R4,R8,#+1
        AND      R0,R0,#0xFF
        STR      R0,[R11, #+2524]
        LDRSB    R1,[R4, +R5]
        ADD      R8,R4,#+1
        AND      R1,R1,#0xFF
        ORR      R0,R0,R1, LSL #+8
        BL       aint1int
        LDR      R1,[SP, #+0]
        SUBS     R0,R1,R0
??run_207:
        MOVMI    R7,#+0
        MOVPL    R7,#+1
        AND      R4,R0,#0xFF
        B        ??run_45
??run_208:
        LDRSB    R0,[R8, +R5]
        LDR      R11,??run_105    ;; j_int_array1d_static_fld
        ADD      R4,R8,#+1
        AND      R0,R0,#0xFF
        STR      R0,[R11, #+2524]
        LDRSB    R1,[R4, +R5]
        ADD      R8,R4,#+1
        AND      R1,R1,#0xFF
        ORR      R0,R0,R1, LSL #+8
??run_209:
        BL       aint1int
        SUBS     R0,R10,R0
        MOVMI    R7,#+0
        MOVPL    R7,#+1
        AND      R4,R0,#0xFF
        B        ??run_45
??run_210:
        LDRSB    R0,[R8, +R5]
        LDR      R11,??run_105    ;; j_int_array1d_static_fld
        ADD      R1,R8,#+1
        AND      R0,R0,#0xFF
        STR      R0,[R11, #+2524]
        LDRSB    R2,[R1, +R5]
        ADD      R8,R1,#+1
        AND      R2,R2,#0xFF
        ORR      R11,R0,R2, LSL #+8
        MOV      R0,R11
        BL       aint1int
        SUB      R0,R0,#+1
        AND      R4,R0,#0xFF
        MOV      R1,R4
        MOV      R0,R11
        B        ??run_51
        DATA
??run_105:
        DC32     j_int_array1d_static_fld
        ARM
??run_211:
        CMP      R4,#+0
        BEQ      ??run_53
        LDRSB    R0,[R8, +R5]
        SUB      R6,R6,#+3
        ADD      R1,R0,#+1
        ADD      R8,R1,R8
        CMP      R0,#+0
        BPL      ??run_25
        CMN      R0,#+5
        BLT      ??run_25
        LDRSB    R1,[R8, +R5]
        CMN      R0,#+2
        BEQ      ??run_55
        CMN      R0,#+4
        BNE      ??run_212
        CMN      R1,#+91
        BNE      ??run_213
        B        ??run_55
??run_212:
        CMN      R0,#+5
        BNE      ??run_214
        CMN      R1,#+83
        B        ??run_60
??run_214:
        CMN      R0,#+3
        BNE      ??run_25
        CMN      R1,#+54
        BNE      ??run_215
        LDR      R0,??run_216     ;; 0x66666667
        SMULL    R1,R2,R0,R6
        ASR      R2,R2,#+1
        ADD      R1,R2,R6, LSR #+31
        CMP      R9,R1
        MOVLT    R1,R9
        SUB      R9,R9,R1
        ADD      R0,R1,R1, LSL #+2
        SUB      R6,R6,R0
        CMP      R9,#+0
        BNE      ??run_25
??run_217:
        MOV      R4,#+0
        ADD      R6,R6,#+1
        ADD      R8,R8,#+3
        B        ??run_25
??run_213:
        CMN      R1,#+22
        BNE      ??run_25
        ADD      R0,R8,R5
        LDRSB    R0,[R0, #+1]
        MVN      R1,#+53
        CMP      R0,R1
        BNE      ??run_25
        LDR      R0,??run_216+0x4  ;; 0xffffffff92492493
        SMULL    R1,R2,R0,R6
        ADD      R2,R2,R6
        ASR      R2,R2,#+2
        ADD      R1,R2,R6, LSR #+31
        CMP      R9,R1
        MOVLT    R1,R9
        SUB      R9,R9,R1
        RSB      R0,R1,R1, LSL #+3
        SUB      R6,R6,R0
        CMP      R9,#+0
        BNE      ??run_25
        MOV      R4,#+0
        ADD      R6,R6,#+1
        ADD      R8,R8,#+4
        B        ??run_25
??run_215:
        CMN      R1,#+120
        BNE      ??run_25
        LDR      R0,??run_216     ;; 0x66666667
        SMULL    R1,R2,R0,R6
        LDR      R1,[SP, #+0]
        ASR      R2,R2,#+1
        ADD      R0,R2,R6, LSR #+31
        CMP      R1,R0
        MOVLT    R0,R1
        SUB      R2,R1,R0
        STR      R2,[SP, #+0]
        ADD      R0,R0,R0, LSL #+2
        SUB      R6,R6,R0
        CMP      R2,#+0
        BNE      ??run_25
        B        ??run_217
??run_218:
        LDRSB    R0,[R8, +R5]
        ADD      R8,R8,#+1
        AND      R0,R0,#0xFF
        LDRSB    R1,[R0, +R5]
        ADD      R0,R0,R5
        LDRSB    R0,[R0, #+1]
        AND      R1,R1,#0xFF
        AND      R0,R0,#0xFF
        ORR      R0,R1,R0, LSL #+8
        LDR      R1,[SP, #+0]
        ADD      R0,R1,R0
        BL       aint1int
        SUBS     R0,R10,R0
        MOVMI    R7,#+0
        MOVPL    R7,#+1
        B        ??run_202
??run_219:
        LDRSB    R0,[R8, +R5]
        ADD      R8,R8,#+1
        ADD      R0,R9,R0
        AND      R0,R0,#0xFF
        LDRSB    R0,[R0, +R5]
        AND      R0,R0,#0xFF
        SUB      R0,R10,R0
        CMP      R0,#+0
        B        ??run_207
??run_220:
        LDRSB    R0,[R8, +R5]
        ADD      R8,R8,#+1
        ADD      R0,R9,R0
        AND      R0,R0,#0xFF
        LDRSB    R1,[R0, +R5]
        SUB      R1,R1,#+1
        STRB     R1,[R0, +R5]
        LDRSB    R0,[R0, +R5]
        B        ??run_197
??run_221:
        MOV      R1,#+0
??run_222:
        STR      R1,[SP, #+44]
        B        ??run_42
??run_223:
        LDRSB    R0,[R8, +R5]
        LDR      R11,??DataTable18  ;; j_int_array1d_static_fld
        ADD      R4,R8,#+1
        AND      R0,R0,#0xFF
        STR      R0,[R11, #+2524]
        LDRSB    R1,[R4, +R5]
        ADD      R8,R4,#+1
        AND      R1,R1,#0xFF
        ORR      R0,R0,R1, LSL #+8
        LDR      R1,[SP, #+0]
        ADD      R0,R1,R0
        B        ??run_209
??run_224:
        LDRSB    R0,[R8, +R5]
        LDR      R11,??DataTable18  ;; j_int_array1d_static_fld
        ADD      R4,R8,#+1
        AND      R0,R0,#0xFF
        STR      R0,[R11, #+2524]
        LDRSB    R1,[R4, +R5]
        ADD      R8,R4,#+1
        AND      R1,R1,#0xFF
        ORR      R0,R0,R1, LSL #+8
        ADD      R0,R9,R0
        BL       aint1int
        SUBS     R0,R10,R0
        MOVMI    R7,#+0
        MOVPL    R7,#+1
        AND      R4,R0,#0xFF
        B        ??run_38
??run_225:
        LDRSB    R0,[R8, +R5]
        LDR      R11,??DataTable18  ;; j_int_array1d_static_fld
        ADD      R1,R8,#+1
        AND      R0,R0,#0xFF
        STR      R0,[R11, #+2524]
        LDRSB    R2,[R1, +R5]
        ADD      R8,R1,#+1
        AND      R2,R2,#0xFF
        ORR      R0,R0,R2, LSL #+8
        ADD      R11,R9,R0
        MOV      R0,R11
        BL       aint1int
        SUB      R0,R0,#+1
        AND      R4,R0,#0xFF
        B        ??run_126
??run_226:
        LDRSB    R0,[R8, +R5]
        ADD      R8,R8,#+1
        AND      R0,R0,#0xFF
        SUB      R0,R9,R0
        B        ??run_195
??run_227:
        LDRSB    R0,[R8, +R5]
        ADD      R8,R8,#+1
        ADD      R0,R9,R0
        AND      R0,R0,#0xFF
        LDRSB    R1,[R0, +R5]
        ADD      R0,R0,R5
        LDRSB    R0,[R0, #+1]
        AND      R1,R1,#0xFF
        AND      R0,R0,#0xFF
        ORR      R0,R1,R0, LSL #+8
        BL       aint1int
        SUB      R1,R10,R0
        ADD      R1,R7,R1
        SUB      R1,R1,#+1
        EOR      R0,R0,R10
        EOR      R3,R1,R10
        AND      R0,R3,R0
        ASR      R0,R0,#+7
        STR      R0,[SP, #+12]
        CMP      R1,#+0
        MOVMI    R7,#+0
        MOVPL    R7,#+1
        AND      R10,R1,#0xFF
        B        ??run_30
??run_228:
        LDRSB    R0,[R8, +R5]
        ADD      R8,R8,#+1
        AND      R0,R0,#0xFF
        LDRSB    R0,[R0, +R5]
        AND      R0,R0,#0xFF
        SUB      R0,R9,R0
        B        ??run_199
??run_229:
        LDRSB    R0,[R8, +R5]
        ADD      R8,R8,#+1
        AND      R0,R0,#0xFF
        LDRSB    R0,[R0, +R5]
        AND      R0,R0,#0xFF
        SUB      R1,R10,R0
        ADD      R1,R7,R1
        SUB      R1,R1,#+1
        EOR      R0,R0,R10
        EOR      R3,R1,R10
        AND      R0,R3,R0
        ASR      R0,R0,#+7
        STR      R0,[SP, #+12]
        CMP      R1,#+0
        MOVMI    R7,#+0
        MOVPL    R7,#+1
        AND      R10,R1,#0xFF
        B        ??run_81
??run_230:
        LDRSB    R0,[R8, +R5]
        ADD      R8,R8,#+1
        AND      R0,R0,#0xFF
        LDRSB    R1,[R0, +R5]
        ADD      R1,R1,#+1
        STRB     R1,[R0, +R5]
        LDRSB    R0,[R0, +R5]
        B        ??run_202
??run_231:
        ADD      R0,R9,#+1
        AND      R9,R0,#0xFF
        B        ??run_177
??run_232:
        LDRSB    R0,[R8, +R5]
        ADD      R8,R8,#+1
        AND      R0,R0,#0xFF
        SUB      R1,R10,R0
        ADD      R1,R7,R1
        SUB      R1,R1,#+1
        EOR      R0,R0,R10
        EOR      R3,R1,R10
        AND      R0,R3,R0
        ASR      R0,R0,#+7
        STR      R0,[SP, #+12]
        CMP      R1,#+0
        MOVMI    R7,#+0
        MOVPL    R7,#+1
        AND      R10,R1,#0xFF
        B        ??run_87
??run_233:
        LDRSB    R0,[R8, +R5]
        ADD      R8,R8,#+1
        AND      R0,R0,#0xFF
        SUB      R1,R10,R0
        ADD      R1,R7,R1
        SUB      R1,R1,#+1
        EOR      R0,R0,R10
        EOR      R3,R1,R10
        AND      R0,R3,R0
        ASR      R0,R0,#+7
        STR      R0,[SP, #+12]
        CMP      R1,#+0
        MOVMI    R7,#+0
        MOVPL    R7,#+1
        AND      R10,R1,#0xFF
        B        ??run_41
??run_234:
        LDRSB    R0,[R8, +R5]
        LDR      R11,??DataTable18  ;; j_int_array1d_static_fld
        ADD      R4,R8,#+1
        AND      R0,R0,#0xFF
        STR      R0,[R11, #+2524]
        LDRSB    R1,[R4, +R5]
        ADD      R8,R4,#+1
        AND      R1,R1,#0xFF
        ORR      R0,R0,R1, LSL #+8
        BL       aint1int
        SUBS     R0,R9,R0
        MOVMI    R7,#+0
        MOVPL    R7,#+1
        AND      R4,R0,#0xFF
        B        ??run_45
??run_235:
        LDRSB    R0,[R8, +R5]
        LDR      R11,??DataTable18  ;; j_int_array1d_static_fld
        ADD      R4,R8,#+1
        AND      R0,R0,#0xFF
        STR      R0,[R11, #+2524]
        LDRSB    R1,[R4, +R5]
        ADD      R8,R4,#+1
        AND      R1,R1,#0xFF
        ORR      R0,R0,R1, LSL #+8
        BL       aint1int
        SUB      R1,R10,R0
        ADD      R1,R7,R1
        SUB      R1,R1,#+1
        EOR      R0,R0,R10
        EOR      R3,R1,R10
        AND      R0,R3,R0
        ASR      R0,R0,#+7
        STR      R0,[SP, #+12]
        CMP      R1,#+0
        MOVMI    R7,#+0
        MOVPL    R7,#+1
        AND      R10,R1,#0xFF
        B        ??run_66
??run_236:
        LDRSB    R0,[R8, +R5]
        LDR      R11,??DataTable18  ;; j_int_array1d_static_fld
        ADD      R1,R8,#+1
        AND      R0,R0,#0xFF
        STR      R0,[R11, #+2524]
        LDRSB    R2,[R1, +R5]
        ADD      R8,R1,#+1
        AND      R2,R2,#0xFF
        ORR      R11,R0,R2, LSL #+8
        MOV      R0,R11
        BL       aint1int
        ADD      R0,R0,#+1
        AND      R4,R0,#0xFF
        MOV      R1,R4
        MOV      R0,R11
        B        ??run_51
??run_237:
        CMP      R4,#+0
        BNE      ??run_53
        LDRSB    R0,[R8, +R5]
        SUB      R6,R6,#+3
        ADD      R1,R0,#+1
        ADD      R8,R1,R8
        CMP      R0,#+0
        BPL      ??run_25
        CMN      R0,#+5
        BLT      ??run_25
        LDRSB    R1,[R8, +R5]
        CMN      R0,#+4
        BNE      ??run_25
        CMN      R1,#+59
        BEQ      ??run_55
        CMN      R1,#+91
        B        ??run_60
??run_238:
        LDRSB    R0,[R8, +R5]
        ADD      R8,R8,#+1
        AND      R0,R0,#0xFF
        LDRSB    R1,[R0, +R5]
        ADD      R0,R0,R5
        LDRSB    R0,[R0, #+1]
        AND      R1,R1,#0xFF
        AND      R0,R0,#0xFF
        ORR      R0,R1,R0, LSL #+8
        LDR      R1,[SP, #+0]
        ADD      R0,R1,R0
        BL       aint1int
        SUB      R1,R10,R0
        ADD      R1,R7,R1
        SUB      R1,R1,#+1
        EOR      R0,R0,R10
        EOR      R3,R1,R10
        AND      R0,R3,R0
        ASR      R0,R0,#+7
        STR      R0,[SP, #+12]
        CMP      R1,#+0
        MOVMI    R7,#+0
        MOVPL    R7,#+1
        AND      R10,R1,#0xFF
        B        ??run_63
??run_239:
        LDRSB    R0,[R8, +R5]
        ADD      R8,R8,#+1
        ADD      R0,R9,R0
        AND      R0,R0,#0xFF
        LDRSB    R0,[R0, +R5]
        AND      R0,R0,#0xFF
        SUB      R1,R10,R0
        ADD      R1,R7,R1
        SUB      R1,R1,#+1
        EOR      R0,R0,R10
        EOR      R3,R1,R10
        AND      R0,R3,R0
        ASR      R0,R0,#+7
        STR      R0,[SP, #+12]
        CMP      R1,#+0
        MOVMI    R7,#+0
        MOVPL    R7,#+1
        AND      R10,R1,#0xFF
        B        ??run_48
??run_240:
        LDRSB    R0,[R8, +R5]
        ADD      R8,R8,#+1
        ADD      R0,R9,R0
        AND      R0,R0,#0xFF
        LDRSB    R1,[R0, +R5]
        ADD      R1,R1,#+1
        STRB     R1,[R0, +R5]
        LDRSB    R0,[R0, +R5]
        B        ??run_197
??run_241:
        MOV      R1,#+1
        B        ??run_222
??run_242:
        LDRSB    R0,[R8, +R5]
        LDR      R11,??DataTable18  ;; j_int_array1d_static_fld
        ADD      R4,R8,#+1
        AND      R0,R0,#0xFF
        STR      R0,[R11, #+2524]
        LDRSB    R1,[R4, +R5]
        ADD      R8,R4,#+1
        AND      R1,R1,#0xFF
        ORR      R0,R0,R1, LSL #+8
        LDR      R1,[SP, #+0]
        ADD      R0,R1,R0
        BL       aint1int
        SUB      R1,R10,R0
        ADD      R1,R7,R1
        SUB      R1,R1,#+1
        EOR      R0,R0,R10
        EOR      R3,R1,R10
        AND      R0,R3,R0
        ASR      R0,R0,#+7
        STR      R0,[SP, #+12]
        CMP      R1,#+0
        MOVMI    R7,#+0
        MOVPL    R7,#+1
        AND      R10,R1,#0xFF
        B        ??run_66
??run_243:
        LDRSB    R0,[R8, +R5]
        LDR      R11,??DataTable18  ;; j_int_array1d_static_fld
        ADD      R4,R8,#+1
        AND      R0,R0,#0xFF
        STR      R0,[R11, #+2524]
        LDRSB    R1,[R4, +R5]
        ADD      R8,R4,#+1
        AND      R1,R1,#0xFF
        ORR      R0,R0,R1, LSL #+8
        ADD      R0,R9,R0
        BL       aint1int
        SUB      R1,R10,R0
        ADD      R1,R7,R1
        SUB      R1,R1,#+1
        EOR      R0,R0,R10
        EOR      R3,R1,R10
        AND      R0,R3,R0
        ASR      R0,R0,#+7
        STR      R0,[SP, #+12]
        CMP      R1,#+0
        MOVMI    R7,#+0
        MOVPL    R7,#+1
        AND      R10,R1,#0xFF
        B        ??run_102
??run_244:
        LDRSB    R0,[R8, +R5]
        LDR      R11,??DataTable18  ;; j_int_array1d_static_fld
        ADD      R1,R8,#+1
        AND      R0,R0,#0xFF
        STR      R0,[R11, #+2524]
        LDRSB    R2,[R1, +R5]
        ADD      R8,R1,#+1
        AND      R2,R2,#0xFF
        ORR      R0,R0,R2, LSL #+8
        ADD      R11,R9,R0
        MOV      R0,R11
        BL       aint1int
        ADD      R0,R0,#+1
        AND      R4,R0,#0xFF
        B        ??run_74
??run_58:
        LDR      R0,??run_216+0x8  ;; j_int_array1d_static_fld + 3200
        LDRB     R0,[R0, #+0]
        CMP      R0,#+0
        BEQ      ??run_56
        ADD      R1,R1,#+133
        MOV      R0,#+255
        ORR      R0,R0,#0xFF00
        CMP      R1,R0
        BLT      ??run_56
        MOV      R1,#+0
??run_59:
        LDR      R0,[SP, #+24]
        CMP      R0,#+0
        BNE      ??run_56
        LDR      R0,[SP, #+16]
        LDR      R3,[SP, #+4]
        LDR      R11,??DataTable18  ;; j_int_array1d_static_fld
        SUB      R2,R8,R0
        MOV      R0,#+256
        ADD      R3,R3,R5
        ASR      R8,R2,#+8
        STRB     R8,[R0, +R3]
        LDR      R3,[SP, #+4]
        CMP      R4,#+0
        SUB      R3,R3,#+1
        ADD      R8,R3,R5
        STRB     R2,[R0, +R8]
        SUB      R0,R3,#+1
        SUB      R3,R0,#+1
        STR      R3,[SP, #+4]
        MOVEQ    R2,#+2
        MOVNE    R2,#+0
        ORR      R2,R2,R7
        ASR      R3,R4,#+7
        ORR      R2,R2,R3, LSL #+7
        LDR      R3,[SP, #+12]
        ADD      R0,R0,R5
        ORR      R2,R2,R3, LSL #+6
        STRB     R2,[R0, #+256]
        MOV      R2,#+164
        ORR      R2,R2,#0x900
        LDR      R2,[R2, +R11]
        MOV      R0,#+254
        ORR      R0,R0,#0xFF00
        ADD      R2,R2,R5
        ADD      R2,R0,R2
        LDRSB    R3,[R2, #+0]
        LDRSB    R2,[R2, #+1]
        AND      R3,R3,#0xFF
        AND      R2,R2,#0xFF
        ORR      R2,R3,R2, LSL #+8
        STR      R2,[SP, #+8]
        ASR      R2,R2,#+13
        ADD      R2,R11,R2, LSL #+2
        LDR      R2,[R2, #+2440]
        ADD      R6,R6,#+7
        STR      R2,[SP, #+16]
        LDR      R0,[SP, #+8]
        ADD      R8,R2,R0
        MOV      R2,#+1
        STR      R2,[SP, #+24]
??run_56:
        LDR      R11,??DataTable18  ;; j_int_array1d_static_fld
        STR      R1,[R11, #+2620]
        LDRB     R0,[R11, #+3204]
        CMP      R0,#+0
        BEQ      ??run_245
        LDR      R0,[SP, #+20]
        CMP      R0,#+240
        BNE      ??run_246
        LDR      R0,??run_216+0xC  ;; j_int_array1d_static_fld + 2568
        LDR      R0,[R0, #+0]
        TST      R0,#0x18
        BEQ      ??run_246
        LDR      R0,[R11, #+2676]
        LDR      R1,[SP, #+40]
        SUB      R0,R0,R1
        LDR      R1,??run_216+0x10  ;; LastTmrVal
        STR      R0,[R11, #+2676]
        LDR      R0,[SP, #+32]
        LDR      R1,[R1, #+0]
        STR      R0,[R11, #+3156]
        LDR      R0,??DataTable21  ;; 0xfffffffff4b00018
        LDR      R0,[R0, #+0]
        CMP      R0,R1
        BGE      ??run_247
??run_248:
        BL       `c0`
        LDR      R0,??DataTable21  ;; 0xfffffffff4b00018
        LDR      R1,??run_216+0x10  ;; LastTmrVal
        LDR      R0,[R0, #+0]
        LDR      R1,[R1, #+0]
        CMP      R0,R1
        BLT      ??run_248
??run_247:
        LDR      R2,??run_216+0x14  ;; j_int_array1d_static_fld + 2884
        LDR      R0,??run_216+0x10  ;; LastTmrVal
        LDR      R2,[R2, #+0]
        LDR      R1,[R0, #+0]
        MOV      R3,#+10
        MLA      R1,R3,R2,R1
        STR      R1,[R0, #+0]
        MOV      R1,#+0
        STR      R1,[SP, #+40]
??run_245:
        LDR      R0,??run_216+0x18  ;; j_int_array1d_static_fld + 3204
        LDRB     R0,[R0, #+0]
        CMP      R0,#+0
        BNE      ??run_246
        LDR      R0,[SP, #+20]
        CMP      R0,#+240
        BGE      ??run_246
        LDR      R0,??run_216+0xC  ;; j_int_array1d_static_fld + 2568
        LDR      R0,[R0, #+0]
        TST      R0,#0x18
        BEQ      ??run_246
        LDRB     R0,[SP, #+64]
        CMP      R0,#+0
        BEQ      ??run_249
        LDR      R0,[R11, #+2644]
        MOV      R1,#+224
        ORR      R1,R1,#0xFB00
        AND      R0,R1,R0
        LDR      R1,[R11, #+2640]
        MOV      R2,#+31
        ORR      R2,R2,#0x400
        AND      R1,R2,R1
        ORR      R0,R1,R0
        STR      R0,[R11, #+2644]
        LDR      R0,[R11, #+2676]
        LDR      R1,[SP, #+40]
        SUB      R0,R0,R1
        STR      R0,[R11, #+2676]
        LDR      R0,[SP, #+32]
        STR      R0,[R11, #+3156]
        LDR      R0,[SP, #+20]
        ADD      R0,R0,R11
        LDRB     R0,[R0, #+3216]
        CMP      R0,#+0
        LDR      R0,[SP, #+20]
        BEQ      ??run_250
        BL       xd
        B        ??run_251
??run_250:
        BL       avoid1int
??run_251:
        LDR      R0,[SP, #+20]
        CMP      R0,#+239
        BNE      ??run_252
??run_253:
        LDR      R0,??DataTable21  ;; 0xfffffffff4b00018
        LDR      R1,??run_216+0x10  ;; LastTmrVal
        LDR      R0,[R0, #+0]
        LDR      R1,[R1, #+0]
        CMP      R0,R1
        BLT      ??run_253
        LDR      R2,??run_216+0x14  ;; j_int_array1d_static_fld + 2884
        LDR      R0,??run_216+0x10  ;; LastTmrVal
        LDR      R2,[R2, #+0]
        MOV      R3,#+10
        MLA      R1,R3,R2,R1
        STR      R1,[R0, #+0]
        _BLF     repaint,??repaint??rA
??run_252:
        LDR      R0,??run_216+0x1C  ;; j_int_array1d_static_fld + 2644
        MOV      R1,#+0
        STR      R1,[SP, #+40]
        LDR      R0,[R0, #+0]
        AND      R0,R0,#0x7000
        CMP      R0,#+28672
        LDR      R0,[R11, #+2644]
        BNE      ??run_254
        MOV      R1,#+255
        ORR      R1,R1,#0x8F00
        AND      R0,R1,R0
        STR      R0,[R11, #+2644]
        AND      R0,R0,#0x3E0
        CMP      R0,#+928
        BNE      ??run_255
        LDR      R0,[R11, #+2644]
        EOR      R0,R0,#0x800
??run_256:
        MOV      R1,#+31
        ORR      R1,R1,#0xFC00
        AND      R0,R1,R0
??run_257:
        STR      R0,[R11, #+2644]
        B        ??run_246
??run_255:
        LDR      R0,??run_216+0x1C  ;; j_int_array1d_static_fld + 2644
        LDR      R0,[R0, #+0]
        AND      R0,R0,#0x3E0
        CMP      R0,#+992
        LDR      R0,[R11, #+2644]
        BEQ      ??run_256
        ADD      R0,R0,#+32
        B        ??run_257
??run_254:
        ADD      R0,R0,#+4096
        B        ??run_257
??run_249:
        LDR      R0,[SP, #+20]
        BL       xd
??run_246:
        LDR      R1,[SP, #+20]
        ADD      R1,R1,#+1
        STR      R1,[SP, #+20]
        MOV      R0,R1
        MOV      R1,#+6
        ORR      R1,R1,#0x100
        CMP      R0,R1
        BLT      ??run_15
        LDR      R1,[SP, #+32]
        ADD      R1,R1,#+1
        STR      R1,[SP, #+32]
        LDRB     R1,[R11, #+3212]
        LDR      R0,[R11, #+2628]
        CMP      R1,#+0
        BEQ      ??run_258
        LDR      R1,[SP, #+32]
        AND      R0,R0,#0xFE
        AND      R1,R1,#0x1
        ORR      R0,R1,R0
??run_258:
        LDR      R1,??run_216+0x20  ;; j_int_array1d_static_fld + 3213
        LDRB     R1,[R1, #+0]
        CMP      R1,#+0
        BEQ      ??run_259
        LDR      R1,[SP, #+32]
        AND      R0,R0,#0xFD
        AND      R1,R1,#0x1
        ORR      R0,R0,R1, LSL #+1
??run_259:
        LDR      R1,??run_216+0x24  ;; j_int_array1d_static_fld + 2628
        STR      R0,[R1, #+0]
        LDR      R0,[SP, #+60]
        LSLS     R0,R0,#+24
        BEQ      ??run_260
        LDR      R0,[SP, #+32]
        CMP      R0,#+0
        BNE      ??run_260
        MOV      R2,#+0
        STR      R2,[SP, #+60]
        MOV      R1,#+1
??run_261:
        ADD      R2,SP,#+472
        LDR      R2,[R2, +R0, LSL #+2]
        ADD      R3,SP,#+472
        LDR      R3,[R3, +R1, LSL #+2]
        CMP      R2,R3
        MOVLT    R0,R1
        ADD      R1,R1,#+1
        CMP      R1,#+100
        BLT      ??run_261
        ADD      R1,SP,#+472
        LDR      R1,[R1, +R0, LSL #+2]
        CMP      R1,#+8000
        ADDGE    R2,SP,#+72
        LDRGE    R0,[R2, +R0, LSL #+2]
        MVNLT    R1,#-2147483648
        STRGE    R0,[SP, #+28]
        LDR      R0,??run_216+0x28  ;; j_int_array1d_static_fld + 2676
        STRLT    R1,[SP, #+28]
        MOV      R1,#+0
        STR      R1,[R0, #+0]
        STR      R1,[SP, #+40]
??run_260:
        LDR      R0,??run_216+0x2C  ;; j_int_array1d_static_fld + 3205
        LDRB     R0,[R0, #+0]
        CMP      R0,#+0
        BEQ      ??run_262
        LDR      R0,[R11, #+2676]
        LDR      R1,[SP, #+40]
        SUB      R0,R0,R1
        STR      R0,[R11, #+2676]
        MOV      R1,#+0
        STR      R1,[SP, #+40]
??run_262:
        LDR      R0,??run_216+0x30  ;; j_int_array1d_static_fld + 3207
        LDRB     R0,[R0, #+0]
        CMP      R0,#+0
        BEQ      ??run_6
        MOV      R0,#+0
        STRB     R0,[R11, #+3207]
        LDRB     R0,[R11, #+3210]
        CMP      R0,#+0
        BEQ      ??run_263
// 2280         } while(true);
// 2281         s_boolean_static_fld = n_boolean_static_fld = false;
        LDR      R0,??run_216+0x34  ;; j_int_array1d_static_fld + 3210
        MOV      R1,#+0
        STRB     R1,[R0, #+0]
// 2282     }
        ADD      SP,SP,#+872
        CFI CFA R13+36
        POP      {R4-R11,PC}
        CFI CFA R13+908
??run_263:
        LDR      R0,??run_216+0x38  ;; j_int_array1d_static_fld + 3209
        LDRB     R0,[R0, #+0]
        CMP      R0,#+0
        BEQ      ??run_264
        LDR      R0,??run_216+0x38  ;; j_int_array1d_static_fld + 3209
        MOV      R1,#+0
        STRB     R1,[R0, #+0]
        MOV      R0,#+1
        BL       openstream
        CMN      R0,#+1
        BEQ      ??run_264
        AND      R0,R10,#0xFF
        BL       bytearrayoutputstreamwrite
        AND      R0,R9,#0xFF
        BL       bytearrayoutputstreamwrite
        LDR      R0,[SP, #+0]
        AND      R0,R0,#0xFF
        BL       bytearrayoutputstreamwrite
        AND      R0,R7,#0xFF
        BL       bytearrayoutputstreamwrite
        AND      R0,R4,#0xFF
        BL       bytearrayoutputstreamwrite
        LDR      R0,[SP, #+24]
        AND      R0,R0,#0xFF
        BL       bytearrayoutputstreamwrite
        LDR      R0,[SP, #+44]
        AND      R0,R0,#0xFF
        BL       bytearrayoutputstreamwrite
        LDR      R0,[SP, #+48]
        AND      R0,R0,#0xFF
        BL       bytearrayoutputstreamwrite
        LDR      R0,[SP, #+52]
        AND      R0,R0,#0xFF
        BL       bytearrayoutputstreamwrite
        LDR      R0,[SP, #+12]
        AND      R0,R0,#0xFF
        BL       bytearrayoutputstreamwrite
        LDR      R0,[SP, #+56]
        AND      R0,R0,#0xFF
        BL       bytearrayoutputstreamwrite
        LDR      R0,[SP, #+4]
        AND      R0,R0,#0xFF
        BL       bytearrayoutputstreamwrite
        LDR      R0,[SP, #+8]
        AND      R0,R0,#0xFF
        BL       bytearrayoutputstreamwrite
        LDR      R0,[SP, #+8]
        MOV      R1,#+255
        AND      R0,R1,R0, ASR #+8
        BL       bytearrayoutputstreamwrite
        AND      R0,R8,#0xFF
        BL       bytearrayoutputstreamwrite
        MOV      R0,#+255
        AND      R0,R0,R8, ASR #+8
        BL       bytearrayoutputstreamwrite
        MOV      R0,#+255
        AND      R0,R0,R8, ASR #+16
        BL       bytearrayoutputstreamwrite
        MOV      R0,#+255
        AND      R0,R0,R8, ASR #+24
        BL       bytearrayoutputstreamwrite
        LDR      R0,[SP, #+16]
        AND      R0,R0,#0xFF
        BL       bytearrayoutputstreamwrite
        LDR      R0,[SP, #+16]
        MOV      R1,#+255
        AND      R0,R1,R0, ASR #+8
        BL       bytearrayoutputstreamwrite
        LDR      R0,[SP, #+16]
        MOV      R1,#+255
        AND      R0,R1,R0, ASR #+16
        BL       bytearrayoutputstreamwrite
        LDR      R0,[SP, #+16]
        MOV      R1,#+255
        AND      R0,R1,R0, ASR #+24
        BL       bytearrayoutputstreamwrite
        LDR      R0,[SP, #+28]
        AND      R0,R0,#0xFF
        BL       bytearrayoutputstreamwrite
        LDR      R0,[SP, #+28]
        MOV      R1,#+255
        AND      R0,R1,R0, ASR #+8
        BL       bytearrayoutputstreamwrite
        LDR      R0,[SP, #+28]
        MOV      R1,#+255
        AND      R0,R1,R0, ASR #+16
        BL       bytearrayoutputstreamwrite
        LDR      R0,[SP, #+28]
        MOV      R1,#+255
        AND      R0,R1,R0, ASR #+24
        BL       bytearrayoutputstreamwrite
        AND      R0,R6,#0xFF
        BL       bytearrayoutputstreamwrite
        LDR      R0,??run_216+0x2C  ;; j_int_array1d_static_fld + 3205
        LDRB     R0,[R0, #+0]
        CMP      R0,#+0
        MOVNE    R0,#+255
        BL       bytearrayoutputstreamwrite
        BL       c_out
        BL       b_out
        BL       closestream
??run_264:
        LDR      R0,??run_216+0x3C  ;; j_int_array1d_static_fld + 3201
        LDRB     R0,[R0, #+0]
        CMP      R0,#+0
        BEQ      ??run_5
        LDR      R0,??run_216+0x3C  ;; j_int_array1d_static_fld + 3201
        MOV      R1,#+0
        STRB     R1,[R0, #+0]
        MOV      R0,#+0
        BL       openstream
        CMN      R0,#+1
        BEQ      ??run_5
        BL       bytearrayinputstreamread
        AND      R10,R0,#0xFF
        BL       bytearrayinputstreamread
        AND      R9,R0,#0xFF
        BL       bytearrayinputstreamread
        AND      R0,R0,#0xFF
        STR      R0,[SP, #+0]
        BL       bytearrayinputstreamread
        AND      R7,R0,#0xFF
        BL       bytearrayinputstreamread
        AND      R4,R0,#0xFF
        BL       bytearrayinputstreamread
        AND      R0,R0,#0xFF
        STR      R0,[SP, #+24]
        BL       bytearrayinputstreamread
        AND      R0,R0,#0xFF
        STR      R0,[SP, #+44]
        BL       bytearrayinputstreamread
        AND      R0,R0,#0xFF
        STR      R0,[SP, #+48]
        BL       bytearrayinputstreamread
        AND      R0,R0,#0xFF
        STR      R0,[SP, #+52]
        BL       bytearrayinputstreamread
        AND      R0,R0,#0xFF
        STR      R0,[SP, #+12]
        BL       bytearrayinputstreamread
        AND      R0,R0,#0xFF
        STR      R0,[SP, #+56]
        BL       bytearrayinputstreamread
        AND      R0,R0,#0xFF
        STR      R0,[SP, #+4]
        BL       bytearrayinputstreamread
        AND      R6,R0,#0xFF
        BL       bytearrayinputstreamread
        AND      R0,R0,#0xFF
        ORR      R0,R6,R0, LSL #+8
        STR      R0,[SP, #+8]
        BL       bytearrayinputstreamread
        AND      R6,R0,#0xFF
        BL       bytearrayinputstreamread
        AND      R0,R0,#0xFF
        ORR      R6,R6,R0, LSL #+8
        BL       bytearrayinputstreamread
        AND      R0,R0,#0xFF
        ORR      R6,R6,R0, LSL #+16
        BL       bytearrayinputstreamread
        ORR      R8,R6,R0, LSL #+24
        BL       bytearrayinputstreamread
        AND      R6,R0,#0xFF
        BL       bytearrayinputstreamread
        AND      R0,R0,#0xFF
        ORR      R6,R6,R0, LSL #+8
        BL       bytearrayinputstreamread
        AND      R0,R0,#0xFF
        ORR      R6,R6,R0, LSL #+16
        BL       bytearrayinputstreamread
        ORR      R0,R6,R0, LSL #+24
        STR      R0,[SP, #+16]
        BL       bytearrayinputstreamread
        AND      R6,R0,#0xFF
        BL       bytearrayinputstreamread
        AND      R0,R0,#0xFF
        ORR      R6,R6,R0, LSL #+8
        BL       bytearrayinputstreamread
        AND      R0,R0,#0xFF
        ORR      R6,R6,R0, LSL #+16
        BL       bytearrayinputstreamread
        ORR      R0,R6,R0, LSL #+24
        STR      R0,[SP, #+28]
        BL       bytearrayinputstreamread
        MOV      R6,R0, LSL #+24
        MOV      R6,R6, ASR #+24
        BL       bytearrayinputstreamread
        CMP      R0,#+255
        MOVNE    R0,#+0
        MOVEQ    R0,#+1
        B        ??run_4
        DATA
??run_216:
        DC32     0x66666667
        DC32     0xffffffff92492493
        DC32     j_int_array1d_static_fld + 3200
        DC32     j_int_array1d_static_fld + 2568
        DC32     LastTmrVal
        DC32     j_int_array1d_static_fld + 2884
        DC32     j_int_array1d_static_fld + 3204
        DC32     j_int_array1d_static_fld + 2644
        DC32     j_int_array1d_static_fld + 3213
        DC32     j_int_array1d_static_fld + 2628
        DC32     j_int_array1d_static_fld + 2676
        DC32     j_int_array1d_static_fld + 3205
        DC32     j_int_array1d_static_fld + 3207
        DC32     j_int_array1d_static_fld + 3210
        DC32     j_int_array1d_static_fld + 3209
        DC32     j_int_array1d_static_fld + 3201
        CFI EndBlock cfiBlock27

        RSEG CODE:CODE:NOROOT(2)
        DATA
??DataTable18:
        DC32     j_int_array1d_static_fld

        RSEG CODE:CODE:NOROOT(2)
        DATA
??DataTable21:
        DC32     0xfffffffff4b00018

        RSEG CODE:CODE:NOROOT(2)
        CFI Block cfiBlock28 Using cfiCommon0
        CFI NoFunction
        THUMB
??xxf??rT:
        BX       PC
        Nop      
        CFI EndBlock cfiBlock28
        REQUIRE xxf
// 2283 
// 2284 
// 2285 

        RSEG CODE:CODE:NOROOT(2)
        CFI Block cfiBlock29 Using cfiCommon1
        CFI Function xxf
        ARM
// 2286     static void xxf(int i1, int j1) {
xxf:
        PUSH     {R4-R9,LR}
        CFI ?RET Frame(CFA, -4)
        CFI R9 Frame(CFA, -8)
        CFI R8 Frame(CFA, -12)
        CFI R7 Frame(CFA, -16)
        CFI R6 Frame(CFA, -20)
        CFI R5 Frame(CFA, -24)
        CFI R4 Frame(CFA, -28)
        CFI CFA R13+28
// 2287     int l1,k1,i2,j2,k2,l2,i3,j3,k3,l3,i4;
// 2288 //label0:
// 2289         switch(w) {
        LDR      R6,??DataTable24  ;; j_int_array1d_static_fld
        MOV      R4,R1
        LDR      R9,[R6, #+2548]
        LDR      R5,[R6, #+2552]
        MOV      R8,#+168
        ORR      R8,R8,#0x900
        ORR      R1,R8,#0x4
        MOV      R2,#+2480
        MOV      R7,#+0
        MOV      R3,#+1
        SUB      R9,R9,#+1
        CMP      R9,#+14
        POPHI    {R4-R9,PC}
        ADR      R12,??xxf_0
        MOV      R9,R9, LSL #+1
        LDRH     R12,[R12, R9]
        ADD      PC,PC,R12, LSL #+2
        DATA
??xxf_0:
        DC16     +7,+223,+231,+249
        DC16     +568,+343,+380,+395
        DC16     +568,+568,+406,+568
        DC16     +568,+568,+458,+0
        ARM
// 2290         case 5: // '\005'
// 2291         case 9: // '\t'
// 2292         case 10: // '\n'
// 2293         case 12: // '\f'
// 2294         case 13: // '\r'
// 2295         case 14: // '\016'
// 2296         default:
// 2297             break;
// 2298 
// 2299         case 1: // '\001'
// 2300             if((i1 & 0x6000) != (X & 0x6000)) {
??xxf_2:
        LDR      R12,[R6, #+2636]
        AND      R9,R0,#0x6000
        AND      R12,R12,#0x6000
        CMP      R9,R12
// 2301                 M = 0;
        STRNE    R7,[R6, #+3180]
// 2302                 H = 0;
        STRNE    R7,[R6, #+2584]
// 2303             }
// 2304             X = i1;
        STR      R0,[R6, #+2636]
// 2305             if((j1 & 0x80) != 0) {
        TST      R4,#0x80
// 2306                 M = 0;
        STRNE    R7,[R6, #+3180]
// 2307                 H = 0;
        STRNE    R7,[R6, #+2584]
// 2308                 return;
        POPNE    {R4-R9,PC}
// 2309             }
// 2310             if((j1 & 1) != 0)
        LDR      R12,[R6, #+3180]
        TST      R4,#0x1
// 2311                 H |= 1 << M;
        LDRNE    R4,[R6, #+2584]
        ORRNE    R4,R4,R3, LSL R12
        STRNE    R4,[R6, #+2584]
// 2312             M++;
        ADD      R4,R12,#+1
        STR      R4,[R6, #+3180]
// 2313             if(M < 5)
        CMP      R4,#+5
        POPLT    {R4-R9,PC}
// 2314                 return;
// 2315             k1 = (i1 & 0x7fff) >> 13;
// 2316             d_int_array1d_static_fld[k1] = H;
        LDR      R4,[R6, #+2584]
        LSL      R0,R0,#+17
        LSR      R0,R0,#+17
        ASR      LR,R0,#+13
        ADD      R0,R6,LR, LSL #+2
        STR      R4,[R0, #+2472]
// 2317             M = 0;
// 2318             l1 = H;
// 2319             H = 0;
// 2320             switch(k1) {
        LDR      R0,[R6, #+2668]
        LDR      R12,[R6, #+2664]
        STR      R7,[R6, #+3180]
        STR      R7,[R6, #+2584]
        CMP      LR,#+0
        BEQ      ??xxf_3
        SUBS     LR,LR,#+1
        BEQ      ??xxf_4
        SUBS     LR,LR,#+1
        BEQ      ??xxf_5
        SUBS     LR,LR,#+1
        BEQ      ??xxf_6
        POP      {R4-R9,PC}
// 2321             default:
// 2322                 //break label0;
// 2323                 goto label0;
// 2324 
// 2325             case 0: // '\0'
// 2326                 if((d_int_array1d_static_fld[0] & 2) != 0) {
??xxf_3:
        LDR      R8,[R8, +R6]
        TST      R8,#0x2
        BEQ      ??xxf_7
// 2327                     if((d_int_array1d_static_fld[0] & 1) != 0)
        TST      R8,#0x1
// 2328                         avoid4int(0, 0, 1, 1);
        MOVNE    R2,#+1
        MOVNE    R1,R7
        BNE      ??xxf_8
// 2329                     else
// 2330                         avoid4int(0, 1, 0, 1);
        MOV      R2,#+0
        MOV      R1,R3
        B        ??xxf_9
// 2331                     goto label0;
// 2332                     //break label0;
// 2333                 }
// 2334                 if((d_int_array1d_static_fld[0] & 1) != 0)
??xxf_7:
        TST      R8,#0x1
        BEQ      ??xxf_10
// 2335                     avoid4int(1, 1, 1, 1);
        B        ??xxf_11
// 2336                 else
// 2337                     avoid4int(0, 0, 0, 0);
// 2338                 goto label0;
// 2339                 //break label0;
// 2340 
// 2341             case 1: // '\001'
// 2342                 if(U == 1024) {
??xxf_4:
        LDR      R8,[R8, +R6]
        LDR      R1,[R1, +R6]
        AND      LR,R8,#0x10
        AND      R9,R1,#0x10
        ASR      R9,R9,#+4
        CMP      R12,#+1024
        BNE      ??xxf_12
