//////////////////////////////////////////////////////////////////////////////
//                                                                           /
// IAR ARM ANSI C/C++ Compiler V4.42A/W32 EVALUATION   09/Dec/2010  18:20:54 /
// Copyright 1999-2005 IAR Systems. All rights reserved.                     /
//                                                                           /
//    Cpu mode        =  interwork                                           /
//    Endian          =  little                                              /
//    Stack alignment =  4                                                   /
//    Source file     =  C:\arm\vNes_sound\Nes.c                             /
//    Command line    =  C:\arm\vNes_sound\Nes.c -D NDEBUG -D NEWSGOLD -D    /
//                       ELKA -lCN C:\arm\vNes_sound\release_ELKA\List\ -lA  /
//                       C:\arm\vNes_sound\release_ELKA\List\ -o             /
//                       C:\arm\vNes_sound\release_ELKA\Obj\ -s9 --cpu_mode  /
//                       arm --endian little --cpu ARM926EJ-S --stack_align  /
//                       4 --interwork -e --fpu None --dlib_config           /
//                       "C:\arm2\Embedded Workbench 4.0                     /
//                       Evaluation\ARM\LIB\dl5tpainl8f.h" -I                /
//                       "C:\arm2\Embedded Workbench 4.0                     /
//                       Evaluation\ARM\INC\" --inline_threshold=2           /
//    List file       =  C:\arm\vNes_sound\release_ELKA\List\Nes.s79         /
//                                                                           /
//                                                                           /
//////////////////////////////////////////////////////////////////////////////

        NAME Nes

        RTMODEL "StackAlign4", "USED"
        RTMODEL "__cpu_mode", "__pcs__interwork"
        RTMODEL "__data_model", "absolute"
        RTMODEL "__endian", "little"
        RTMODEL "__rt_version", "6"

        RSEG CSTACK:DATA:NOROOT(2)

        EXTERN ??div32_a

        PUBWEAK `?*?DATA_ID`
        MULTWEAK ??APUWrite??rA
        MULTWEAK ??AudioTerminate??rA
??DataTable1 EQU 0
??DataTable10 EQU 0
??DataTable11 EQU 0
??DataTable12 EQU 0
??DataTable13 EQU 0
??DataTable14 EQU 0
??DataTable15 EQU 0
??DataTable16 EQU 0
??DataTable17 EQU 0
??DataTable19 EQU 0
??DataTable2 EQU 0
??DataTable20 EQU 0
??DataTable22 EQU 0
??DataTable23 EQU 0
??DataTable25 EQU 0
??DataTable26 EQU 0
??DataTable27 EQU 0
??DataTable28 EQU 0
??DataTable29 EQU 0
??DataTable3 EQU 0
??DataTable30 EQU 0
??DataTable31 EQU 0
??DataTable32 EQU 0
??DataTable34 EQU 0
??DataTable35 EQU 0
??DataTable36 EQU 0
??DataTable37 EQU 0
??DataTable38 EQU 0
??DataTable39 EQU 0
??DataTable40 EQU 0
??DataTable41 EQU 0
??DataTable43 EQU 0
??DataTable44 EQU 0
??DataTable45 EQU 0
??DataTable47 EQU 0
??DataTable5 EQU 0
??DataTable52 EQU 0
??DataTable53 EQU 0
??DataTable54 EQU 0
??DataTable55 EQU 0
??DataTable56 EQU 0
??DataTable57 EQU 0
??DataTable58 EQU 0
??DataTable6 EQU 0
??DataTable61 EQU 0
??DataTable62 EQU 0
??DataTable63 EQU 0
??DataTable65 EQU 0
??DataTable67 EQU 0
??DataTable8 EQU 0
??DataTable9 EQU 0
        MULTWEAK ??SysTimer??rT
        MULTWEAK ??Systemarraycopy??rT
        MULTWEAK ??SystemcurrentTimeMillis??rT
        MULTWEAK ??Systemgc??rT
        MULTWEAK ??aint1int??rT
        MULTWEAK ??avoid1int??rT
        MULTWEAK ??bytearrayinputstreamread??rT
        MULTWEAK ??bytearrayoutputstreamwrite??rT
        MULTWEAK ??c0??rT
        MULTWEAK ??closestream??rT
        MULTWEAK ??flush??rT
        MULTWEAK ??freeall??rT
        MULTWEAK ??h??rT
        MULTWEAK ??i??rT
        MULTWEAK ??initnul??rT
        MULTWEAK ??keyPressed??rT
        MULTWEAK ??keyReleased??rT
        MULTWEAK ??loadROM??rT
        MULTWEAK ??loadfile??rA
        MULTWEAK ??loadrom??rT
        MULTWEAK ??openstream??rT
        MULTWEAK ??rA??div32_a
        MULTWEAK ??repaint??rA
        MULTWEAK ??run??rT
        MULTWEAK ??serviceRepaints??rT
        PUBWEAK ?init?tab?DATA_I
        PUBWEAK ?init?tab?DATA_Z
        PUBLIC A
        PUBLIC `B`
        PUBLIC PSG
        PUBLIC SysTimer
        FUNCTION SysTimer,0201H
        PUBLIC Systemarraycopy
        FUNCTION Systemarraycopy,0203H
        LOCFRAME CSTACK, 4, STACK
        PUBLIC SystemcurrentTimeMillis
        FUNCTION SystemcurrentTimeMillis,0201H
        PUBLIC Systemgc
        FUNCTION Systemgc,0201H
a_boolean_static_fld EQU 0
a_java_lang_String_static_fld EQU 0
        PUBLIC aint1int
        FUNCTION aint1int,0203H
        LOCFRAME CSTACK, 4, STACK
        PUBLIC avoid1int
        FUNCTION avoid1int,0203H
        LOCFRAME CSTACK, 60, STACK
        FUNCTION avoid2int,0203H
        LOCFRAME CSTACK, 28, STACK
        FUNCTION avoid4int,0203H
        FUNCTION avoid8int,0203H
        LOCFRAME CSTACK, 32, STACK
        FUNCTION `b`,0201H
        LOCFRAME CSTACK, 32, STACK
        FUNCTION b_in,0201H
        LOCFRAME CSTACK, 24, STACK
b_java_lang_String_static_fld EQU 0
b_long_static_fld EQU 0
        FUNCTION b_out,0201H
        LOCFRAME CSTACK, 12, STACK
        FUNCTION bvoid2int,0203H
        PUBLIC bytearrayinputstreamread
        FUNCTION bytearrayinputstreamread,0201H
        LOCFRAME CSTACK, 12, STACK
        PUBLIC bytearrayoutputstreamwrite
        FUNCTION bytearrayoutputstreamwrite,0203H
        LOCFRAME CSTACK, 12, STACK
        FUNCTION c,0203H
        LOCFRAME CSTACK, 4, STACK
        PUBLIC `c0`
        FUNCTION `c0`,0201H
        LOCFRAME CSTACK, 96, STACK
        FUNCTION c_in,0201H
        LOCFRAME CSTACK, 20, STACK
        FUNCTION c_out,0201H
        LOCFRAME CSTACK, 16, STACK
        PUBLIC closestream
        FUNCTION closestream,0201H
        LOCFRAME CSTACK, 12, STACK
        PUBLIC d_boolean_static_fld
        FUNCTION e,0203H
        LOCFRAME CSTACK, 4, STACK
        PUBLIC ebuf
        FUNCTION f,0201H
        LOCFRAME CSTACK, 4, STACK
        PUBLIC flush
        FUNCTION flush,0201H
        LOCFRAME CSTACK, 12, STACK
        PUBLIC fmessage
        PUBLIC freeall
        FUNCTION freeall,0201H
        LOCFRAME CSTACK, 8, STACK
        FUNCTION g,0201H
        LOCFRAME CSTACK, 16, STACK
        PUBLIC getHeight
        PUBLIC getWidth
        PUBLIC h
        FUNCTION h,0201H
        LOCFRAME CSTACK, 16, STACK
        PUBLIC i
        FUNCTION i,0201H
        LOCFRAME CSTACK, 16, STACK
        PUBLIC initnul
        FUNCTION initnul,0201H
        LOCFRAME CSTACK, 12, STACK
        FUNCTION j,0201H
        LOCFRAME CSTACK, 156, STACK
        PUBLIC j_boolean_static_fld
        FUNCTION k,0201H
        LOCFRAME CSTACK, 4, STACK
        PUBLIC k_int_static_fld
        PUBLIC keyPressed
        FUNCTION keyPressed,0203H
        LOCFRAME CSTACK, 36, STACK
        PUBLIC keyReleased
        FUNCTION keyReleased,0203H
        PUBLIC keyindex
        FUNCTION l,0201H
        LOCFRAME CSTACK, 52, STACK
        PUBLIC l_boolean_static_fld
        PUBLIC loadROM
        FUNCTION loadROM,0203H
        LOCFRAME CSTACK, 20, STACK
        PUBLIC loadrom
        FUNCTION loadrom,0203H
        LOCFRAME CSTACK, 4, STACK
m_boolean_static_fld EQU 0
        PUBLIC main_a_int_array1d_fld
        PUBLIC main_a_int_fld
        PUBLIC main_b_boolean_fld
        PUBLIC main_c_int_fld
        PUBLIC nn
        PUBLIC nshow
        PUBLIC o_boolean_static_fld
        PUBLIC openstream
        FUNCTION openstream,0203H
        LOCFRAME CSTACK, 16, STACK
        PUBLIC run
        FUNCTION run,0201H
        LOCFRAME CSTACK, 908, STACK
s_boolean_static_fld EQU 0
        PUBLIC sbuf
        PUBLIC screen_length
        PUBLIC screens
        PUBLIC serviceRepaints
        FUNCTION serviceRepaints,0201H
        PUBLIC stream
        PUBLIC streammode
        PUBLIC t_boolean_static_fld
u_boolean_static_fld EQU 0
u_int_static_fld EQU 0
        PUBLIC v_boolean_static_fld
        FUNCTION xd,0203H
        LOCFRAME CSTACK, 4, STACK
        FUNCTION xxf,0203H
        LOCFRAME CSTACK, 44, STACK
        FUNCTION xxxxb,0203H
        LOCFRAME CSTACK, 16, STACK
        
        CFI Names cfiNames0
        CFI StackFrame CFA R13 HUGEDATA
        CFI Resource R0:32, R1:32, R2:32, R3:32, R4:32, R5:32, R6:32, R7:32
        CFI Resource R8:32, R9:32, R10:32, R11:32, R12:32, CPSR:32, R13:32
        CFI Resource R14:32, SPSR:32
        CFI VirtualResource ?RET:32
        CFI EndNames cfiNames0
        
        CFI Common cfiCommon0 Using cfiNames0
        CFI CodeAlign 2
        CFI DataAlign 4
        CFI ReturnAddress ?RET CODE
        CFI CFA R13+0
        CFI R0 Undefined
        CFI R1 Undefined
        CFI R2 Undefined
        CFI R3 Undefined
        CFI R4 SameValue
        CFI R5 SameValue
        CFI R6 SameValue
        CFI R7 SameValue
        CFI R8 SameValue
        CFI R9 SameValue
        CFI R10 SameValue
        CFI R11 SameValue
        CFI R12 Undefined
        CFI CPSR SameValue
        CFI R14 Undefined
        CFI SPSR SameValue
        CFI ?RET R14
        CFI EndCommon cfiCommon0
        
        
        CFI Common cfiCommon1 Using cfiNames0
        CFI CodeAlign 4
        CFI DataAlign 4
        CFI ReturnAddress ?RET CODE
        CFI CFA R13+0
        CFI R0 Undefined
        CFI R1 Undefined
        CFI R2 Undefined
        CFI R3 Undefined
        CFI R4 SameValue
        CFI R5 SameValue
        CFI R6 SameValue
        CFI R7 SameValue
        CFI R8 SameValue
        CFI R9 SameValue
        CFI R10 SameValue
        CFI R11 SameValue
        CFI R12 Undefined
        CFI CPSR SameValue
        CFI R14 Undefined
        CFI SPSR SameValue
        CFI ?RET R14
        CFI EndCommon cfiCommon1
        
APUWrite            SYMBOL "APUWrite"
AudioTerminate      SYMBOL "AudioTerminate"
loadfile            SYMBOL "loadfile"
repaint             SYMBOL "repaint"
??APUWrite??rA      SYMBOL "??rA", APUWrite
??AudioTerminate??rA SYMBOL "??rA", AudioTerminate
SysTimer            SYMBOL "SysTimer"
??SysTimer??rT      SYMBOL "??rT", SysTimer
Systemarraycopy     SYMBOL "Systemarraycopy"
??Systemarraycopy??rT SYMBOL "??rT", Systemarraycopy
SystemcurrentTimeMillis SYMBOL "SystemcurrentTimeMillis"
??SystemcurrentTimeMillis??rT SYMBOL "??rT", SystemcurrentTimeMillis
Systemgc            SYMBOL "Systemgc"
??Systemgc??rT      SYMBOL "??rT", Systemgc
aint1int            SYMBOL "aint1int"
??aint1int??rT      SYMBOL "??rT", aint1int
avoid1int           SYMBOL "avoid1int"
??avoid1int??rT     SYMBOL "??rT", avoid1int
bytearrayinputstreamread SYMBOL "bytearrayinputstreamread"
??bytearrayinputstreamread??rT SYMBOL "??rT", bytearrayinputstreamread
bytearrayoutputstreamwrite SYMBOL "bytearrayoutputstreamwrite"
??bytearrayoutputstreamwrite??rT SYMBOL "??rT", bytearrayoutputstreamwrite
`c0`                SYMBOL "c0"
??c0??rT            SYMBOL "??rT", `c0`
closestream         SYMBOL "closestream"
??closestream??rT   SYMBOL "??rT", closestream
flush               SYMBOL "flush"
??flush??rT         SYMBOL "??rT", flush
freeall             SYMBOL "freeall"
??freeall??rT       SYMBOL "??rT", freeall
h                   SYMBOL "h"
??h??rT             SYMBOL "??rT", h
i                   SYMBOL "i"
??i??rT             SYMBOL "??rT", i
initnul             SYMBOL "initnul"
??initnul??rT       SYMBOL "??rT", initnul
keyPressed          SYMBOL "keyPressed"
??keyPressed??rT    SYMBOL "??rT", keyPressed
keyReleased         SYMBOL "keyReleased"
??keyReleased??rT   SYMBOL "??rT", keyReleased
loadROM             SYMBOL "loadROM"
??loadROM??rT       SYMBOL "??rT", loadROM
??loadfile??rA      SYMBOL "??rA", loadfile
loadrom             SYMBOL "loadrom"
??loadrom??rT       SYMBOL "??rT", loadrom
openstream          SYMBOL "openstream"
??openstream??rT    SYMBOL "??rT", openstream
??repaint??rA       SYMBOL "??rA", repaint
run                 SYMBOL "run"
??run??rT           SYMBOL "??rT", run
serviceRepaints     SYMBOL "serviceRepaints"
??serviceRepaints??rT SYMBOL "??rT", serviceRepaints

        EXTERN APUWrite
        FUNCTION APUWrite,0202H
        EXTERN AudioTerminate
        FUNCTION AudioTerminate,0200H
        EXTERN LastTmrVal
        EXTERN loadfile
        FUNCTION loadfile,0202H
        EXTERN loadfilesize
        EXTERN repaint
        FUNCTION repaint,0200H
        EXTERN romname
        EXTERN running


        RSEG CODE:CODE:NOROOT(2)
        CFI Block cfiBlock0 Using cfiCommon0
        CFI NoFunction
        THUMB
??serviceRepaints??rT:
        BX       PC
        Nop      
        CFI EndBlock cfiBlock0
        REQUIRE serviceRepaints
// C:\arm\vNes_sound\Nes.c
//    1 
//    2 //NES emulator
//    3 
//    4 #include "nes.h"

        RSEG CODE:CODE:NOROOT(2)
        CFI Block cfiBlock1 Using cfiCommon1
        CFI Function serviceRepaints
        ARM
// __??Code32?? __code __interwork __atpcs void serviceRepaints()
serviceRepaints:
        BX       LR               ;; return
        CFI EndBlock cfiBlock1

        RSEG CODE:CODE:NOROOT(2)
        CFI Block cfiBlock2 Using cfiCommon0
        CFI NoFunction
        THUMB
??Systemgc??rT:
        BX       PC
        Nop      
        CFI EndBlock cfiBlock2
        REQUIRE Systemgc

        RSEG DATA_Z:DATA:SORT:NOROOT(2)
// int *__data main_a_int_array1d_fld
main_a_int_array1d_fld:
        DS8 4

        RSEG CODE:CODE:NOROOT(2)
        CFI Block cfiBlock3 Using cfiCommon1
        CFI Function Systemgc
        ARM
// __??Code32?? __code __interwork __atpcs void Systemgc()
Systemgc:
        BX       LR               ;; return
        CFI EndBlock cfiBlock3

        RSEG CODE:CODE:NOROOT(2)
        CFI Block cfiBlock4 Using cfiCommon0
        CFI NoFunction
        THUMB
??SystemcurrentTimeMillis??rT:
        BX       PC
        Nop      
        CFI EndBlock cfiBlock4
        REQUIRE SystemcurrentTimeMillis

        RSEG CODE:CODE:NOROOT(2)
        CFI Block cfiBlock5 Using cfiCommon1
        CFI Function SystemcurrentTimeMillis
        ARM
// __??Code32?? __code __interwork __atpcs long SystemcurrentTimeMillis()
SystemcurrentTimeMillis:
        MOV      R0,#+0
        BX       LR               ;; return
        CFI EndBlock cfiBlock5

        RSEG CODE:CODE:NOROOT(2)
        CFI Block cfiBlock6 Using cfiCommon0
        CFI NoFunction
        THUMB
??SysTimer??rT:
        BX       PC
        Nop      
        CFI EndBlock cfiBlock6
        REQUIRE SysTimer

        RSEG CODE:CODE:NOROOT(2)
        CFI Block cfiBlock7 Using cfiCommon1
        CFI Function SysTimer
        ARM
// __??Code32?? __code __interwork __atpcs long SysTimer()
SysTimer:
        LDR      R0,??DataTable0  ;; 0xfffffffff4b00018
        LDR      R0,[R0, #+0]
        BX       LR               ;; return
        CFI EndBlock cfiBlock7

        RSEG CODE:CODE:NOROOT(2)
        DATA
??DataTable0:
        DC32     0xfffffffff4b00018

        RSEG CODE:CODE:NOROOT(2)
        CFI Block cfiBlock8 Using cfiCommon0
        CFI NoFunction
        THUMB
??Systemarraycopy??rT:
        BX       PC
        Nop      
        CFI EndBlock cfiBlock8
        REQUIRE Systemarraycopy

        RSEG CODE:CODE:NOROOT(2)
        CFI Block cfiBlock9 Using cfiCommon1
        CFI Function Systemarraycopy
        ARM
// __??Code32?? __code __interwork __atpcs void Systemarraycopy(void *, int, void *, int, int)
Systemarraycopy:
        PUSH     {LR}
        CFI ?RET Frame(CFA, -4)
        CFI CFA R13+4
        MOV      R12,R2
        LDR      R2,[SP, #+4]
        ADD      R1,R1,R0
        ADD      R0,R3,R12
        SWI      +306
        POP      {PC}             ;; return
        CFI EndBlock cfiBlock9

        RSEG CODE:CODE:NOROOT(2)
        CFI Block cfiBlock10 Using cfiCommon0
        CFI NoFunction
        THUMB
??flush??rT:
        BX       PC
        Nop      
        CFI EndBlock cfiBlock10
        REQUIRE flush

        RSEG CODE:CODE:NOROOT(2)
        CFI Block cfiBlock11 Using cfiCommon1
        CFI Function flush
        ARM
// __??Code32?? __code __interwork __atpcs void flush()
flush:
        PUSH     {R4,LR}
        CFI ?RET Frame(CFA, -4)
        CFI R4 Frame(CFA, -8)
        CFI CFA R13+8
        LDR      R4,??DataTable4  ;; ebuf
        SUB      SP,SP,#+4
        CFI CFA R13+12
        LDR      R0,[R4, #+0]
        ADD      R1,R4,#+12
        SUB      R2,R0,R1
        LDR      R0,[R4, #+4]
        MOV      R3,SP
        SWI      +12
        ADD      R0,R4,#+12
        STR      R0,[R4, #+0]
        POP      {R0,R4,PC}       ;; return
        CFI EndBlock cfiBlock11

        RSEG CODE:CODE:NOROOT(2)
        CFI Block cfiBlock12 Using cfiCommon0
        CFI NoFunction
        THUMB
??bytearrayoutputstreamwrite??rT:
        BX       PC
        Nop      
        CFI EndBlock cfiBlock12
        REQUIRE bytearrayoutputstreamwrite

        RSEG CODE:CODE:NOROOT(2)
        CFI Block cfiBlock13 Using cfiCommon1
        CFI Function bytearrayoutputstreamwrite
        ARM
// __??Code32?? __code __interwork __atpcs void bytearrayoutputstreamwrite(int)
bytearrayoutputstreamwrite:
        PUSH     {R4,R5,LR}
        CFI ?RET Frame(CFA, -4)
        CFI R5 Frame(CFA, -8)
        CFI R4 Frame(CFA, -12)
        CFI CFA R13+12
        LDR      R5,??DataTable4  ;; ebuf
        MOV      R4,R0
        LDR      R0,[R5, #+0]
        MOV      R1,#+12
        ORR      R1,R1,#0x2000
        ADD      R1,R1,R5
        CMP      R0,R1
        BCC      ??bytearrayoutputstreamwrite_0
        BL       flush
??bytearrayoutputstreamwrite_0:
        LDR      R0,[R5, #+0]
        STRB     R4,[R0, #+0]
        LDR      R0,[R5, #+0]
        ADD      R0,R0,#+1
        STR      R0,[R5, #+0]
        POP      {R4,R5,PC}       ;; return
        CFI EndBlock cfiBlock13

        RSEG CODE:CODE:NOROOT(2)
        CFI Block cfiBlock14 Using cfiCommon0
        CFI NoFunction
        THUMB
??bytearrayinputstreamread??rT:
        BX       PC
        Nop      
        CFI EndBlock cfiBlock14
        REQUIRE bytearrayinputstreamread

        RSEG CODE:CODE:NOROOT(2)
        CFI Block cfiBlock15 Using cfiCommon1
        CFI Function bytearrayinputstreamread
        ARM
// __??Code32?? __code __interwork __atpcs int bytearrayinputstreamread()
bytearrayinputstreamread:
        PUSH     {R4,LR}
        CFI ?RET Frame(CFA, -4)
        CFI R4 Frame(CFA, -8)
        CFI CFA R13+8
        LDR      R4,??DataTable4  ;; ebuf
        SUB      SP,SP,#+4
        CFI CFA R13+12
        LDR      R0,[R4, #+0]
        MOV      R1,#+12
        ORR      R1,R1,#0x2000
        ADD      R1,R1,R4
        CMP      R0,R1
        BCC      ??bytearrayinputstreamread_0
        LDR      R0,[R4, #+4]
        MOV      R3,SP
        MOV      R2,#+8192
        ADD      R1,R4,#+12
        SWI      +11
        ADD      R0,R4,#+12
        STR      R0,[R4, #+0]
??bytearrayinputstreamread_0:
        LDR      R0,[R4, #+0]
        ADD      R1,R0,#+1
        STR      R1,[R4, #+0]
        LDRB     R0,[R0, #+0]
        POP      {R1,R4,PC}       ;; return
        CFI EndBlock cfiBlock15

        RSEG CODE:CODE:NOROOT(2)
        CFI Block cfiBlock16 Using cfiCommon0
        CFI NoFunction
        THUMB
??openstream??rT:
        BX       PC
        Nop      
        CFI EndBlock cfiBlock16
        REQUIRE openstream

        RSEG CODE:CODE:NOROOT(2)
        CFI Block cfiBlock17 Using cfiCommon1
        CFI Function openstream
        ARM
// __??Code32?? __code __interwork __atpcs int openstream(int)
openstream:
        PUSH     {R4,R5,LR}
        CFI ?RET Frame(CFA, -4)
        CFI R5 Frame(CFA, -8)
        CFI R4 Frame(CFA, -12)
        CFI CFA R13+12
        LDR      R4,??DataTable4  ;; ebuf
        SUB      SP,SP,#+4
        CFI CFA R13+16
        STR      R0,[R4, #+8]
        LDR      R1,[R4, #+8]
        LDR      R0,??openstream_0  ;; romname
        MVN      R5,#+0
        CMP      R1,#+0
        BEQ      ??openstream_1
        MOV      R3,SP
        MOV      R2,#+256
        MOV      R1,#+1
        ORR      R1,R1,#0x8300
        SWI      +10
        STR      R0,[R4, #+4]
        CMP      R0,R5
        BNE      ??openstream_2
??openstream_3:
        MOV      R0,R5
        POP      {R1,R4,R5,PC}
??openstream_2:
        ADD      R0,R4,#+12
        STR      R0,[R4, #+0]
        LDR      R0,[R4, #+4]
        POP      {R1,R4,R5,PC}
??openstream_1:
        MOV      R1,#+12
        ORR      R1,R1,#0x2000
        ADD      R1,R1,R4
        STR      R1,[R4, #+0]
        MOV      R3,SP
        MOV      R2,#+128
        MOV      R1,#+32768
        SWI      +10
        STR      R0,[R4, #+4]
        CMP      R0,R5
        BEQ      ??openstream_3
        LDR      R0,[R4, #+4]
        POP      {R1,R4,R5,PC}    ;; return
        DATA
??openstream_0:
        DC32     romname
        CFI EndBlock cfiBlock17

        RSEG CODE:CODE:NOROOT(2)
        DATA
??DataTable4:
        DC32     ebuf

        RSEG CODE:CODE:NOROOT(2)
        CFI Block cfiBlock18 Using cfiCommon0
        CFI NoFunction
        THUMB
??closestream??rT:
        BX       PC
        Nop      
        CFI EndBlock cfiBlock18
        REQUIRE closestream

        RSEG CODE:CODE:NOROOT(2)
        CFI Block cfiBlock19 Using cfiCommon1
        CFI Function closestream
        ARM
// __??Code32?? __code __interwork __atpcs void closestream()
closestream:
        PUSH     {R4,LR}
        CFI ?RET Frame(CFA, -4)
        CFI R4 Frame(CFA, -8)
        CFI CFA R13+8
        LDR      R4,??closestream_0  ;; ebuf
        SUB      SP,SP,#+4
        CFI CFA R13+12
        LDR      R0,[R4, #+8]
        CMP      R0,#+0
        BEQ      ??closestream_1
        BL       flush
??closestream_1:
        LDR      R0,[R4, #+4]
        MOV      R1,SP
        SWI      +13
        POP      {R0,R4,PC}       ;; return
        DATA
??closestream_0:
        DC32     ebuf
        CFI EndBlock cfiBlock19

        RSEG CODE:CODE:NOROOT(2)
        CFI Block cfiBlock20 Using cfiCommon0
        CFI NoFunction
        THUMB
??k??rT:
        BX       PC
        Nop      
        CFI EndBlock cfiBlock20
        REQUIRE k

        RSEG DATA_Z:DATA:SORT:NOROOT(2)
//    5 unsigned char PSG[25];
PSG:
        DS8 28

        RSEG DATA_C:CONST:SORT:NOROOT(2)
`?<Constant {128, 192, 256, 256}>`:
        DATA
        DC32 128, 192, 256, 256

        RSEG DATA_C:CONST:SORT:NOROOT(2)
`?<Constant {0, 61, 120, 197}>`:
        DATA
        DC32 0, 61, 120, 197

        RSEG DATA_C:CONST:SORT:NOROOT(2)
`?<Constant {74, 115, 187, 230}>`:
        DATA
        DC32 74, 115, 187, 230

        RSEG DATA_C:CONST:SORT:NOROOT(2)
`?<Constant {0, 240, 210, 180, 150, 120, 90, 60`:
        DATA
        DC32 0, 240, 210, 180, 150, 120, 90, 60, 30, 0, 330, 300, 270, 0, 0, 0
//    6 
//    7 extern long LastTmrVal;
//    8  void APUWrite( unsigned short address, unsigned char data );
//    9 extern int loadfilesize;
//   10 extern char *loadfile(char *filename);
//   11 int nn; //temp
//   12   
//   13 
//   14 
//   15     static int b_int_static_fld = 128;
//   16     static int Z = 0;
//   17     static int f_int_static_fld = 0;
//   18     static int n_int_static_fld = 0;
//   19     static int Q = 0;
//   20     static int w = 0;
//   21     static int P;
//   22     static int ad;
//   23     static int ab = 0;
//   24     static int S = 0;
//   25     static int R = 0;
//   26     static int o_int_static_fld = 0;
//   27     static int L = 128;
//   28     static int b_int_array1d_static_fld[8];
//   29     static int e_int_static_fld = 0;
//   30     static int H = 0;
//   31 //    static const char *a_java_lang_String_array1d_static_fld[] = {
//   32 //        "Up", "Down", "Left", "Right", "A", "B", "Start", "Select", "AA", "BB", 
//   33 //        "Trigger", "Quick Save", "Quick Load", "FullScreen"
//   34 //    };
//   35     static int key[] = {
//   36         50, 56, 52, 54, 49, 51, 
//   37         53, 48, 55, 57, 
//   38         35, 0, 0, 42
//   39     };
//   40    // '2'=10 8=20 4=40 6=80 1=1 3=2 0=8 7=4
//   41     static int O = 0;
//   42     static int g_int_static_fld = 0;
//   43     static int ac = 0;
//   44     static int N = 0;
//   45     static int s_int_static_fld = 0;
//   46     static int v_int_static_fld = 0;
//   47     int B = 100;
//   48     static int z = 0;
//   49     static boolean q_boolean_static_fld = true;
//   50     static boolean a_boolean_static_fld = false;
//   51     static boolean r_boolean_static_fld = false;
//   52     static boolean i_boolean_static_fld = false;
//   53     static int aa = -1;
//   54     static int I = 0;
//   55     static boolean e_boolean_static_fld = false;
//   56     static int F = 0;
//   57     int k_int_static_fld = 0;
//   58     static int a_int_static_fld = 0;
//   59     static int X = 0;
//   60     boolean o_boolean_static_fld = false;
//   61     static char *a_java_lang_String_static_fld = null;
//   62     static int y = 0;
//   63     static int D = 0;
//   64     static int c_int_static_fld = 0;
//   65     static byte *vram=0;//free?
//   66     static boolean f_boolean_static_fld = false;
//   67     static boolean g_boolean_static_fld = false;
//   68     static int T = 0;
//   69     static int W = 0;
//   70     static int U = 0;
//   71     static int d_int_static_fld = 0;
//   72     static int m_int_static_fld = 0;
//   73     static long c_long_static_fld;
//   74     static long b_long_static_fld;
//   75     static int i_int_static_fld = 0;
//   76     static int u_int_static_fld = 0;
//   77     static int K = -1;
//   78     static int t_int_static_fld = -1;
//   79     boolean t_boolean_static_fld = true;
//   80     static ushort j_int_array1d_static_fld[32];
//   81     static ushort g_int_array1d_static_fld[64];
//   82     static int e_int_array1d_static_fld[32];
//   83     static boolean p_boolean_static_fld = false;
//   84 //    static NESx65 main;
//   85     static int x = 1;
//   86     static boolean b_boolean_static_fld = false;
//   87     static int i_int_array1d_static_fld[12];
//   88     static int l_int_array1d_static_fld[8];
//   89     static ushort *a_char_array1d_static_fld=0; //free!
//   90     static int j_int_static_fld = 0;
//   91     //static byte a_byte_array1d_static_fld[];
//   92     static int q_int_static_fld = 0;
//   93     static int E = 0;
//   94     static int G = 0;
//   95     static int J = 1;
//   96     static int Y = 0;
//   97     static boolean u_boolean_static_fld = false;
//   98     int A = 5;
//   99     static int d_int_array1d_static_fld[8];//=0; //free?????
//  100     boolean v_boolean_static_fld = false;
//  101     static boolean h_boolean_static_fld = false;
//  102     static char *b_java_lang_String_static_fld;
//  103     static boolean m_boolean_static_fld = false;
//  104     static boolean s_boolean_static_fld = false;
//  105     boolean d_boolean_static_fld = false;
//  106     static boolean k_boolean_static_fld = false;
//  107     static int V = 4;
//  108     static int p_int_static_fld = 0;
//  109     static byte d_byte_array1d_static_fld[256];
//  110     static int C = 0;
//  111     static boolean n_boolean_static_fld = false;
//  112     static long a_long_static_fld = 0L;
//  113     static byte *b_byte_array1d_static_fld=0; //free

        RSEG DATA_C:CONST:SORT:NOROOT(2)
//  114     static const ushort a_short_array1d_static_fld[] = {
a_short_array1d_static_fld:
        DATA
        DC16 0, 17, 35, 52, 70, 87, 105, 122, 139, 156, 174, 191, 208, 225, 242
        DC16 259, 276, 292, 309, 326, 342, 358, 375, 391, 407, 423, 438, 454
        DC16 469, 485, 500, 515, 530, 545, 559, 574, 588, 602, 616, 629, 643
        DC16 656, 669, 682, 695, 707, 719, 731, 743, 755, 766, 777, 788, 799
        DC16 809, 819, 829, 839, 848, 857, 866, 875, 883, 891, 899, 906, 914
        DC16 921, 927, 934, 940, 946, 951, 956, 961, 966, 970, 974, 978, 982
        DC16 985, 988, 990, 993, 995, 996, 998, 999, 999, 1000, 1000
        DC8 0, 0
//  115         0, 17, 35, 52, 70, 87, 105, 122, 139, 156, 
//  116         174, 191, 208, 225, 242, 259, 276, 292, 309, 326, 
//  117         342, 358, 375, 391, 407, 423, 438, 454, 469, 485, 
//  118         500, 515, 530, 545, 559, 574, 588, 602, 616, 629, 
//  119         643, 656, 669, 682, 695, 707, 719, 731, 743, 755, 
//  120         766, 777, 788, 799, 809, 819, 829, 839, 848, 857, 
//  121         866, 875, 883, 891, 899, 906, 914, 921, 927, 934, 
//  122         940, 946, 951, 956, 961, 966, 970, 974, 978, 982, 
//  123         985, 988, 990, 993, 995, 996, 998, 999, 999, 1000, 
//  124         1000
//  125     };
//  126     static boolean c_boolean_static_fld = false;
//  127     boolean l_boolean_static_fld = false;
//  128     boolean j_boolean_static_fld = false;
//  129     ushort *screens=0; //free screen!!!
//  130     static int h_int_static_fld;
//  131     static int r_int_static_fld;
//  132     static int c_int_array1d_static_fld[260];
//  133     static int h_int_array1d_static_fld[276];

        RSEG DATA_Z:DATA:SORT:NOROOT(2)
//  134     static int f_int_array1d_static_fld[276];
f_int_array1d_static_fld:
        DS8 1104

        RSEG DATA_I:DATA:SORT:NOROOT(2)
j_int_array1d_static_fld:
        DS8 64
        REQUIRE `?<Initializer for j_int_array1d_static_fld>`
        DS8 128
        REQUIRE `?<Initializer for g_int_array1d_static_fld>`
        DS8 1104
        REQUIRE `?<Initializer for h_int_array1d_static_fld>`
        DS8 1040
        REQUIRE `?<Initializer for c_int_array1d_static_fld>`
        DS8 56
        REQUIRE `?<Initializer for key>`
        DS8 48
        REQUIRE `?<Initializer for i_int_array1d_static_fld>`
        DS8 32
        REQUIRE `?<Initializer for b_int_array1d_static_fld>`
        DS8 32
        REQUIRE `?<Initializer for d_int_array1d_static_fld>`
// int __data main_a_int_fld
main_a_int_fld:
        DS8 4
        REQUIRE `?<Initializer for main_a_int_fld>`
// int __data main_c_int_fld
main_c_int_fld:
        DS8 4
        REQUIRE `?<Initializer for main_c_int_fld>`
// int __data getWidth
getWidth:
        DS8 4
        REQUIRE `?<Initializer for getWidth>`
// int __data getHeight
getHeight:
        DS8 4
        REQUIRE `?<Initializer for getHeight>`
// int __data screen_length
screen_length:
        DS8 4
        REQUIRE `?<Initializer for screen_length>`
nn:
        DS8 4
        REQUIRE `?<Initializer for nn>`
        DS8 4
        REQUIRE `?<Initializer for b_int_static_fld>`
        DS8 4
        REQUIRE `?<Initializer for Z>`
        DS8 4
        REQUIRE `?<Initializer for f_int_static_fld>`
        DS8 4
        REQUIRE `?<Initializer for n_int_static_fld>`
        DS8 4
        REQUIRE `?<Initializer for Q>`
        DS8 4
        REQUIRE `?<Initializer for w>`
        DS8 4
        REQUIRE `?<Initializer for P>`
        DS8 4
        REQUIRE `?<Initializer for ad>`
        DS8 4
        REQUIRE `?<Initializer for ab>`
        DS8 4
        REQUIRE `?<Initializer for S>`
        DS8 4
        REQUIRE `?<Initializer for R>`
        DS8 4
        REQUIRE `?<Initializer for o_int_static_fld>`
        DS8 4
        REQUIRE `?<Initializer for L>`
        DS8 4
        REQUIRE `?<Initializer for e_int_static_fld>`
        DS8 4
        REQUIRE `?<Initializer for H>`
        DS8 4
        REQUIRE `?<Initializer for O>`
        DS8 4
        REQUIRE `?<Initializer for g_int_static_fld>`
        DS8 4
        REQUIRE `?<Initializer for ac>`
        DS8 4
        REQUIRE `?<Initializer for N>`
        DS8 4
        REQUIRE `?<Initializer for s_int_static_fld>`
        DS8 4
        REQUIRE `?<Initializer for v_int_static_fld>`
`B`:
        DS8 4
        REQUIRE `?<Initializer for B>`
        DS8 4
        REQUIRE `?<Initializer for aa>`
        DS8 4
        REQUIRE `?<Initializer for I>`
        DS8 4
        REQUIRE `?<Initializer for F>`
k_int_static_fld:
        DS8 4
        REQUIRE `?<Initializer for k_int_static_fld>`
        DS8 4
        REQUIRE `?<Initializer for a_int_static_fld>`
        DS8 4
        REQUIRE `?<Initializer for X>`
        DS8 4
        REQUIRE `?<Initializer for y>`
        DS8 4
        REQUIRE `?<Initializer for D>`
        DS8 4
        REQUIRE `?<Initializer for c_int_static_fld>`
        DS8 4
        REQUIRE `?<Initializer for vram>`
        DS8 4
        REQUIRE `?<Initializer for T>`
        DS8 4
        REQUIRE `?<Initializer for W>`
        DS8 4
        REQUIRE `?<Initializer for U>`
        DS8 4
        REQUIRE `?<Initializer for d_int_static_fld>`
        DS8 4
        REQUIRE `?<Initializer for m_int_static_fld>`
        DS8 4
        REQUIRE `?<Initializer for c_long_static_fld>`
        DS8 4
        REQUIRE `?<Initializer for i_int_static_fld>`
        DS8 4
        REQUIRE `?<Initializer for K>`
        DS8 4
        REQUIRE `?<Initializer for t_int_static_fld>`
        DS8 128
        REQUIRE `?<Initializer for e_int_array1d_static_fld>`
        DS8 4
        REQUIRE `?<Initializer for x>`
        DS8 32
        REQUIRE `?<Initializer for l_int_array1d_static_fld>`
        DS8 4
        REQUIRE `?<Initializer for a_char_array1d_static_fld>`
        DS8 4
        REQUIRE `?<Initializer for j_int_static_fld>`
        DS8 4
        REQUIRE `?<Initializer for q_int_static_fld>`
        DS8 4
        REQUIRE `?<Initializer for E>`
        DS8 4
        REQUIRE `?<Initializer for G>`
        DS8 4
        REQUIRE `?<Initializer for J>`
        DS8 4
        REQUIRE `?<Initializer for Y>`
A:
        DS8 4
        REQUIRE `?<Initializer for A>`
        DS8 4
        REQUIRE `?<Initializer for V>`
        DS8 4
        REQUIRE `?<Initializer for p_int_static_fld>`
        DS8 256
        REQUIRE `?<Initializer for d_byte_array1d_static_fld>`
        DS8 4
        REQUIRE `?<Initializer for C>`
        DS8 4
        REQUIRE `?<Initializer for a_long_static_fld>`
        DS8 4
        REQUIRE `?<Initializer for b_byte_array1d_static_fld>`
screens:
        DS8 4
        REQUIRE `?<Initializer for screens>`
        DS8 4
        REQUIRE `?<Initializer for h_int_static_fld>`
        DS8 4
        REQUIRE `?<Initializer for r_int_static_fld>`
        DS8 4
        REQUIRE `?<Initializer for l_int_static_fld>`
        DS8 4
        REQUIRE `?<Initializer for M>`
        DS8 4
        REQUIRE `?<Initializer for ram>`
        DS8 4
        REQUIRE `?<Initializer for ramsize>`
//  135     static boolean b_boolean_array1d_static_fld[260];
//  136     static boolean a_boolean_array1d_static_fld[276];
//  137     static int l_int_static_fld = -1;
//  138     static int M = 0;
//  139     static int ram=0, ramsize=0;
//  140     int keyindex=-1;
keyindex:
        DS8 4
        REQUIRE `?<Initializer for keyindex>`
// char __data main_b_boolean_fld
main_b_boolean_fld:
        DS8 1
        REQUIRE `?<Initializer for main_b_boolean_fld>`
        DS8 1
        REQUIRE `?<Initializer for q_boolean_static_fld>`
        DS8 1
        REQUIRE `?<Initializer for r_boolean_static_fld>`
        DS8 1
        REQUIRE `?<Initializer for i_boolean_static_fld>`
        DS8 1
        REQUIRE `?<Initializer for e_boolean_static_fld>`
o_boolean_static_fld:
        DS8 1
        REQUIRE `?<Initializer for o_boolean_static_fld>`
        DS8 1
        REQUIRE `?<Initializer for f_boolean_static_fld>`
        DS8 1
        REQUIRE `?<Initializer for g_boolean_static_fld>`
t_boolean_static_fld:
        DS8 1
        REQUIRE `?<Initializer for t_boolean_static_fld>`
        DS8 1
        REQUIRE `?<Initializer for p_boolean_static_fld>`
        DS8 1
        REQUIRE `?<Initializer for b_boolean_static_fld>`
v_boolean_static_fld:
        DS8 1
        REQUIRE `?<Initializer for v_boolean_static_fld>`
        DS8 1
        REQUIRE `?<Initializer for h_boolean_static_fld>`
d_boolean_static_fld:
        DS8 1
        REQUIRE `?<Initializer for d_boolean_static_fld>`
        DS8 1
        REQUIRE `?<Initializer for n_boolean_static_fld>`
        DS8 1
        REQUIRE `?<Initializer for c_boolean_static_fld>`
l_boolean_static_fld:
        DS8 1
        REQUIRE `?<Initializer for l_boolean_static_fld>`
j_boolean_static_fld:
        DS8 1
        REQUIRE `?<Initializer for j_boolean_static_fld>`
        DS8 2
        DS8 260
        REQUIRE `?<Initializer for b_boolean_array1d_static_fld`
        DS8 276
        REQUIRE `?<Initializer for a_boolean_array1d_static_fld`

        RSEG DATA_I:DATA:SORT:NOROOT(2)
// unsigned char *__data ebuf
ebuf:
        DS8 4
        REQUIRE `?<Initializer for ebuf>`
// int __data stream
stream:
        DS8 4
        REQUIRE `?<Initializer for stream>`
// int __data streammode
streammode:
        DS8 4
        REQUIRE `?<Initializer for streammode>`
// unsigned char __data sbuf[8192]
sbuf:
        DS8 8192
        REQUIRE `?<Initializer for sbuf>`

        RSEG DATA_Z:DATA:SORT:NOROOT(2)
//  141     char *fmessage=null;
fmessage:
        DS8 4
//  142 
//  143 
//  144 
//  145 

        RSEG CODE:CODE:NOROOT(2)
        CFI Block cfiBlock21 Using cfiCommon1
        CFI Function k
        ARM
//  146     static void k() {
//  147         xxxxb((m_int_static_fld << 5) + (Z & 0x1f), (m_int_static_fld << 5) + (f_int_static_fld & 0x1f), (m_int_static_fld << 5) + (n_int_static_fld & 0x1f), (m_int_static_fld << 5) + (Q & 0x1f));
k:
        LDR      R0,??DataTable7  ;; j_int_array1d_static_fld
        LDR      R1,[R0, #+2672]
        LSL      R12,R1,#+5
        LDR      R1,[R0, #+2544]
        AND      R1,R1,#0x1F
        ADD      R3,R1,R12
        LDR      R1,[R0, #+2540]
        AND      R1,R1,#0x1F
        ADD      R2,R1,R12
        LDR      R1,[R0, #+2536]
        LDR      R0,[R0, #+2532]
        AND      R1,R1,#0x1F
        ADD      R1,R1,R12
        AND      R0,R0,#0x1F
        ADD      R0,R0,R12
        B        xxxxb            ;; tailcall
        CFI EndBlock cfiBlock21
//  148     }

        RSEG CODE:CODE:NOROOT(2)
        CFI Block cfiBlock22 Using cfiCommon0
        CFI NoFunction
        THUMB
??f??rT:
        BX       PC
        Nop      
        CFI EndBlock cfiBlock22
        REQUIRE f
//  149 

        RSEG CODE:CODE:NOROOT(2)
        CFI Block cfiBlock23 Using cfiCommon1
        CFI Function f
        ARM
//  150     static void f() {
//  151         if(abool())
f:
        LDR      R2,??DataTable7  ;; j_int_array1d_static_fld
        LDR      R1,[R2, #+2556]
        LDR      R12,[R2, #+2872]
        SUB      R0,R1,#+2
        SUB      R3,R1,#+1
        LDR      R1,[R2, #+2876]
        LDR      R2,[R2, #+2472]
        TST      R2,#0x40
//  152             xxxxb(ad - 2, J, G, ad - 1);
        MOVNE    R2,R12
//  153         else
//  154             xxxxb(G, J, ad - 2, ad - 1);
        MOVEQ    R2,R0
        MOVEQ    R0,R12
        B        xxxxb            ;; tailcall
        CFI EndBlock cfiBlock23
//  155     }

        RSEG CODE:CODE:NOROOT(2)
        CFI Block cfiBlock24 Using cfiCommon0
        CFI NoFunction
        THUMB
??l??rT:
        BX       PC
        Nop      
        CFI EndBlock cfiBlock24
        REQUIRE l
//  156 

        RSEG CODE:CODE:NOROOT(2)
        CFI Block cfiBlock25 Using cfiCommon1
        CFI Function l
        ARM
//  157     static void l() {
//  158         if(P != 0) {
l:
        LDR      R0,??DataTable7  ;; j_int_array1d_static_fld
        PUSH     {R4-R11,LR}
        CFI ?RET Frame(CFA, -4)
        CFI R11 Frame(CFA, -8)
        CFI R10 Frame(CFA, -12)
        CFI R9 Frame(CFA, -16)
        CFI R8 Frame(CFA, -20)
        CFI R7 Frame(CFA, -24)
        CFI R6 Frame(CFA, -28)
        CFI R5 Frame(CFA, -32)
        CFI R4 Frame(CFA, -36)
        CFI CFA R13+36
        LDR      R4,[R0, #+2588]
        LDR      R6,[R0, #+2592]
        LDR      R8,[R0, #+2596]
        LDR      R9,[R0, #+2600]
        LDR      R10,[R0, #+2604]
        LDR      R11,[R0, #+2608]
        LDR      R1,[R0, #+2472]
        LDR      R0,[R0, #+2552]
        ADD      R5,R4,#+1
        ADD      R7,R6,#+1
        CMP      R0,#+0
        BEQ      ??l_0
//  159             if(bbool())
        TST      R1,#0x80
        BEQ      ??l_1
//  160                 avoid8int(ac, N, s_int_static_fld, v_int_static_fld, O, O + 1, g_int_static_fld, g_int_static_fld + 1);
        PUSH     {R7}
        CFI CFA R13+40
        PUSH     {R6}
        CFI CFA R13+44
        PUSH     {R5}
        CFI CFA R13+48
        PUSH     {R4}
        CFI CFA R13+52
        MOV      R3,R11
        MOV      R2,R10
        MOV      R1,R9
        MOV      R0,R8
        BL       avoid8int
        ADD      SP,SP,#+16
        CFI CFA R13+36
        POP      {R4-R11,PC}
//  161             else
//  162                 avoid8int(O, O + 1, g_int_static_fld, g_int_static_fld + 1, ac, N, s_int_static_fld, v_int_static_fld);
??l_1:
        PUSH     {R11}
        CFI CFA R13+40
        PUSH     {R10}
        CFI CFA R13+44
        PUSH     {R9}
        CFI CFA R13+48
        PUSH     {R8}
        CFI CFA R13+52
        MOV      R3,R7
        MOV      R2,R6
        MOV      R1,R5
        MOV      R0,R4
        BL       avoid8int
        ADD      SP,SP,#+16
        CFI CFA R13+36
        POP      {R4-R11,PC}
//  163         } else
//  164         if(bbool()) {
??l_0:
        TST      R1,#0x80
        BEQ      ??l_2
//  165             bvoid2int(0, ac);
        MOV      R1,R8
        BL       bvoid2int
//  166             bvoid2int(1, N);
        MOV      R1,R9
        MOV      R0,#+1
        BL       bvoid2int
//  167             bvoid2int(2, s_int_static_fld);
        MOV      R1,R10
        MOV      R0,#+2
        BL       bvoid2int
//  168             bvoid2int(3, v_int_static_fld);
        MOV      R1,R11
        MOV      R0,#+3
        BL       bvoid2int
//  169             bvoid2int(4, O + 0);
        MOV      R1,R4
        MOV      R0,#+4
        BL       bvoid2int
//  170             bvoid2int(5, O + 1);
        MOV      R1,R5
        MOV      R0,#+5
        BL       bvoid2int
//  171             bvoid2int(6, g_int_static_fld + 0);
        MOV      R1,R6
        MOV      R0,#+6
        BL       bvoid2int
//  172             bvoid2int(7, g_int_static_fld + 1);
        MOV      R1,R7
        MOV      R0,#+7
        BL       bvoid2int
        POP      {R4-R11,PC}
//  173         } else {
//  174             bvoid2int(0, O + 0);
??l_2:
        MOV      R1,R4
        BL       bvoid2int
//  175             bvoid2int(1, O + 1);
        MOV      R1,R5
        MOV      R0,#+1
        BL       bvoid2int
//  176             bvoid2int(2, g_int_static_fld + 0);
        MOV      R1,R6
        MOV      R0,#+2
        BL       bvoid2int
//  177             bvoid2int(3, g_int_static_fld + 1);
        MOV      R1,R7
        MOV      R0,#+3
        BL       bvoid2int
//  178             bvoid2int(4, ac);
        MOV      R1,R8
        MOV      R0,#+4
        BL       bvoid2int
//  179             bvoid2int(5, N);
        MOV      R1,R9
        MOV      R0,#+5
        BL       bvoid2int
//  180             bvoid2int(6, s_int_static_fld);
        MOV      R1,R10
        MOV      R0,#+6
        BL       bvoid2int
//  181             bvoid2int(7, v_int_static_fld);
        MOV      R1,R11
        MOV      R0,#+7
        BL       bvoid2int
//  182         }
//  183     }
        POP      {R4-R11,PC}      ;; return
        CFI EndBlock cfiBlock25

        RSEG CODE:CODE:NOROOT(2)
        DATA
??DataTable7:
        DC32     j_int_array1d_static_fld

        RSEG CODE:CODE:NOROOT(2)
        CFI Block cfiBlock26 Using cfiCommon0
        CFI NoFunction
        THUMB
??run??rT:
        BX       PC
        Nop      
        CFI EndBlock cfiBlock26
        REQUIRE run
//  184 
//  185     #pragma optimize=no_code_motion

        RSEG CODE:CODE:NOROOT(2)
        CFI Block cfiBlock27 Using cfiCommon1
        CFI Function run
        ARM
//  186     void run() {
//  187         running=1;        
run:
        LDR      R0,??run_1       ;; running
        PUSH     {R4-R11,LR}
        CFI ?RET Frame(CFA, -4)
        CFI R11 Frame(CFA, -8)
        CFI R10 Frame(CFA, -12)
        CFI R9 Frame(CFA, -16)
        CFI R8 Frame(CFA, -20)
        CFI R7 Frame(CFA, -24)
        CFI R6 Frame(CFA, -28)
        CFI R5 Frame(CFA, -32)
        CFI R4 Frame(CFA, -36)
        CFI CFA R13+36
//  188         byte *abyte0 = vram;
        LDR      R11,??run_1+0x4  ;; j_int_array1d_static_fld
        SUB      SP,SP,#+872
        CFI CFA R13+908
        MOV      R1,#+1
        STR      R1,[R0, #+0]
        LDR      R5,[R11, #+2652]
//  189         byte byte4,byte5,byte6,byte7,byte8,byte9,byte10,byte11,byte12,byte13,byte14;
//  190         int k7;
//  191         int i8,i9,i10,i11,i12,i13,i14,i15,i16,i17,i18,i19,i20,i21,i22,i23,i24,i25,i26,i27,i28,i29,i30,i31,i32,i33,i34,i35,i36,i37;
//  192         int j8,j9,j10,j11,j12,j13,j14,j15,j16,j17,j18,j19,j20,j21,j22,j23,j24,j25,j26,j27,j28,j29,j30,j31,j32,j33,j34,j35,j36,j37;
//  193         int k8,k9,k10,k11,k12,k13,k14,k15,k16,k17,k18,k19,k20,k21,k22,k23,k24,k25,k26,k27,k28,k29,k30,k31,k32,k33,k34,k35,k36;
//  194         int l10,l11,l12,l13,l14,l15,l16,l17,l18,l19,l20,l21,l22,l23,l24,l25,l26,l27,l28,l29,l30,l31,l32,l33,l34,l35,l36;
//  195 
//  196         int i6,j6,i7,j7;
//  197 
//  198         int i1 = 0;
        MOV      R6,#+0
//  199         int j1 = 0;
//  200         int k1 = 0;
        MOV      R4,R6
//  201         int l1 = 0;
//  202         int i2 = 0;
        MOV      R1,R4
        STR      R1,[SP, #+0]
//  203         byte byte0 = 4;
//  204         int j2 = 255;
        MOV      R1,#+255
        STR      R1,[SP, #+4]
//  205         int k2 = 0;
//  206         int l2 = 1;
        MOV      R1,#+1
        STR      R1,[SP, #+24]
//  207         int i3 = 0;
        MOV      R1,R4
        STR      R1,[SP, #+44]
//  208         int j3 = 0;
        STR      R1,[SP, #+48]
//  209         int k3 = 0;
        STR      R1,[SP, #+52]
//  210         int l3 = 0;
        STR      R1,[SP, #+12]
//  211         int i4 = 0;
        STR      R1,[SP, #+56]
//  212         int j4 = -1;
        MVN      R1,R1
        STR      R1,[SP, #+28]
//  213         int ai[100];
//  214         int ai1[100];
//  215         int *ai2 = b_int_array1d_static_fld;
//  216         int k4 = abyte0[ai2[7] + 65532] & 0xff | (abyte0[ai2[7] + 65533] & 0xff) << 8;
        MOV      R2,#+164
        ORR      R2,R2,#0x900
        LDR      R1,[R2, +R11]
        MOV      R0,#+252
        ORR      R0,R0,#0xFF00
        ADD      R1,R1,R5
        ADD      R0,R0,R1
        LDRSB    R2,[R0, #+0]
        LDRSB    R0,[R0, #+1]
        AND      R2,R2,#0xFF
        AND      R0,R0,#0xFF
        ORR      R0,R2,R0, LSL #+8
        STR      R0,[SP, #+8]
//  217 
//  218 //new File().debugWrite("0:/vnes","\n"+Integer.toString(i5)+" = "+Integer.toString(k4));        
//  219       //debug(ai2[7],abyte0[ai2[7] + 65532]);////////////
//  220       //debug(ai2[7],abyte0[ai2[7] + 65533]);
//  221         //if(true) return; //
//  222         
//  223         int l4;
//  224         int i5 = k4 + (l4 = ai2[k4 >> 13]);
        MOV      R1,R0
        ASR      R1,R1,#+13
        ADD      R1,R11,R1, LSL #+2
        LDR      R1,[R1, #+2440]
        MOV      R10,#+0
        MOV      R9,R4
        MOV      R7,R4
        STR      R1,[SP, #+16]
        ADD      R8,R1,R0
//  225    
//  226    //new File().debugWrite("0:/vnes","\n"+Integer.toString(i5)+" = "+Integer.toString(k4));
//  227    
//  228         for(int j5 = 0; j5 < 100; j5++)
        MOV      R0,R4
        ADD      R1,SP,#+472
        MOV      R2,R0
//  229             ai1[j5] = 0;
??run_2:
        STR      R2,[R1, +R0, LSL #+2]
        ADD      R0,R0,#+1
        CMP      R0,#+100
        BLT      ??run_2
//  230 
//  231         int k5 = -50;
        MVN      R1,#+49
        STR      R1,[SP, #+32]
//  232         boolean flag = true;
        MOV      R1,#+1
        STR      R1,[SP, #+60]
//  233         int l5 = 0;
        MOV      R1,#+0
        STR      R1,[SP, #+36]
//  234         long l6 = SystemcurrentTimeMillis();
        STR      R1,[SP, #+40]
        MOV      R0,R1
//  235         c_long_static_fld = b_long_static_fld = 0L;
//  236         boolean flag1 = false;
//  237         boolean flag2 = i_boolean_static_fld;
        LDRB     R1,[R11, #+3199]
        STR      R0,[R11, #+2676]
        STR      R1,[SP, #+68]
//  238         boolean flag3 = false;
//  239         boolean flag4 = false;
//  240         m();
        B        ??run_3
//  241         k_int_static_fld = 0;
//  242         l_boolean_static_fld = j_boolean_static_fld = false;
//  243         s_boolean_static_fld = true;
//  244         
//  245         do {
//  246           
//  247             do {
//  248  //debug("dodo",1,1);////////////          
//  249               /* frameskip */
//  250              
//  251                  
//  252                 boolean flag5 = k5 % A == 0;
//  253                 if(t_boolean_static_fld) {
//  254                     l5 = p_int_static_fld + 1;
//  255                     if(l5 >= 240)
//  256                         l5 = -1;
//  257                 } else
//  258                 if((R & 0x18) != 0)
//  259                     D = y;
//  260                 for(int k6 = 0; k6 <= 261; k6++) {
//  261 //debug("k6",k6,k6);////////////                                  
//  262                     if(k6 == 261)
//  263                         o_int_static_fld &= 0x3f;
//  264                     else
//  265                     if(k6 == 241)
//  266                         o_int_static_fld |= 0x80;
//  267                     else
//  268                     if(k6 == 242) {
//  269                         if((S & 0x80) != 0) {
//  270                             k4 = i5 - l4;
//  271                             abyte0[j2-- + 256] = (byte)(k4 >> 8);
//  272                             abyte0[j2-- + 256] = (byte)k4;
//  273                             abyte0[j2-- + 256] = (byte)(k2 | (k1 == 0 ? 2 : 0) | (k1 >> 7) << 7 | l3 << 6 | l2 << 2);
//  274                             k4 = abyte0[ai2[7] + 65530] & 0xff | (abyte0[ai2[7] + 65531] & 0xff) << 8;
//  275                             i5 = k4 + (l4 = ai2[k4 >> 13]);
//  276                             i1 += 7;
//  277                             
//  278                         }
//  279                     } else
//  280                     if(t_boolean_static_fld && k6 == l5 + 1 && (R & 0x18) != 0)
//  281                         o_int_static_fld |= 0x40;
//  282                     if(k4 != j4) {
//  283                         if(t_boolean_static_fld)
//  284                           
//  285                             if(k6 <= 239) {
//  286                                 if(k6 > l5) {                 
//  287                                     i1 += 116 * (240 - k6);
//  288                                     k6 = 240;
//  289                                 } else
//  290                                 if(k6 < l5) {
//  291                                     i1 += 116 * (l5 - k6);
//  292                                     k6 = l5;
//  293                                     
//  294                                 }
//  295                             } else
//  296                             if(k6 >= 242 && k6 <= 259) {
//  297                                 i1 += 116 * (260 - k6);
//  298                                 k6 = 260;
//  299                                 
//  300                                 
//  301                             }
//  302                         i1 += 116;
//  303 //debug(999,i5);                        
//  304 label0:
//  305   
//  306   
//  307   if(!running) return;/////add
//  308                         do {
//  309                             if(i1 <= 0)                              
//  310                                                 break;
//  311 ///////debug("",i5,i1);  /usged!!
//  312 //if(i1==0x70){
//  313 //  ;
//  314 //}
//  315 							//debug(i5,i5);                                
//  316  //new File().debugWrite("0:/56","\n"+Integer.toString(i5)+" = "+Integer.toString(abyte0[i5]));
//  317          
//  318                    
//  319                    
//  320                             
//  321                             boolean flag6;
//  322                             boolean flag31;
//  323                             boolean flag32;
//  324                             boolean flag33;
//  325                             boolean flag34;
//  326                             boolean flag35;
//  327                             boolean flag36;
//  328                             boolean flag37;
//  329                             boolean flag38;
//  330                             boolean flag39;
//  331                             boolean flag40;
//  332                             boolean flag41;
//  333                             boolean flag42;
//  334                             boolean flag43;
//  335                             boolean flag44;
//  336                             boolean flag45;
//  337                             boolean flag46;
//  338                             boolean flag47;
//  339                             boolean flag48;
//  340                             boolean flag49;
//  341                             boolean flag50;
//  342                             boolean flag51;
//  343                             boolean flag52;
//  344                             boolean flag53;
//  345                             boolean flag54;
//  346                             boolean flag55;
//  347                             boolean flag56;
//  348                             boolean flag57;
//  349                             boolean flag58;
//  350                             boolean flag59;
//  351                             boolean flag60;
//  352                             boolean flag61;
//  353                             boolean flag62;
//  354                             boolean flag63;
//  355                             boolean flag64;
//  356                             boolean flag65;
//  357                             boolean flag66;
//  358                             boolean flag67;
//  359                             boolean flag68;
//  360                             boolean flag69;
//  361                             boolean flag70;
//  362                             boolean flag71;
//  363                             boolean flag72;
//  364                             boolean flag73;
//  365                             boolean flag74;
//  366                             boolean flag75;
//  367                             boolean flag76;
//  368                             boolean flag77;
//  369                             boolean flag78;
//  370                             
//  371                //31656
//  372 //                 31659//////////////
//  373  /*if(i5==31659 || i5==31656){
//  374    if(i5==31656) nnn=1;
//  375    if(i5==31659 && nnn==1)
//  376      printf("%d ",i5);                     
//  377  }else nnn=0;
//  378    */    //debug("i5",abyte0[i5],i5);////////////
//  379 /*  if(i5==16634){
//  380      printf("%d=%d",i5, ++nnn);
//  381      if(nnn==740)
//  382        nnn=0;
//  383   }*/
//  384                             
//  385                             
//  386                             switch(abyte0[i5++]) {
//  387                             default:
//  388 			                break;
//  389 			                           
//  390                             case 0: // '\0'
//  391                                 k4 = (i5 - l4) + 1;
//  392                                 abyte0[j2-- + 256] = (byte)(k4 >> 8);
//  393                                 abyte0[j2-- + 256] = (byte)k4;
//  394                                 abyte0[j2-- + 256] = (byte)(k2 | (k1 == 0 ? 2 : 0) | (k1 >> 7) << 7 | l3 << 6 | l2 << 2);
//  395                                 k4 = abyte0[ai2[7] + 65534] & 0xff | (abyte0[ai2[7] + 65535] & 0xff) << 8;
//  396                                 i5 = k4 + (l4 = ai2[k4 >> 13]);
//  397                                 j3 = 1;
//  398                                 l2 = 1;
//  399                                 i1 -= 7;
//  400                                 continue;
//  401 
//  402                             case 1: // '\001'
//  403                                 k7 = abyte0[i5++] + l1 & 0xff;
//  404                                 j1 |= aint1int(abyte0[k7] & 0xff | (abyte0[k7 + 1] & 0xff) << 8);
//  405                                 k1 = j1;
//  406                                 i1 -= 6;
//  407                                 continue;
//  408 
//  409                             case 2: // '\002'
//  410                                 //boolean flag7 = true;
//  411                                 continue;
//  412 
//  413                             case 3: // '\003'
//  414                                 //boolean flag8 = true;
//  415                                 continue;
//  416 
//  417                             case 4: // '\004'
//  418                                 i5++;
//  419                                 i1 -= 3;
//  420                                 continue;
//  421 
//  422                             case 5: // '\005'
//  423                                 j1 |= abyte0[abyte0[i5++] & 0xff] & 0xff;
//  424                                 k1 = j1;
//  425                                 i1 -= 3;
//  426                                 continue;
//  427 
//  428                             case 6: // '\006'
//  429                                 i8 = abyte0[i5++] & 0xff;
//  430                                 j8 = abyte0[i8] & 0xff;
//  431                                 k2 = j8 >> 7;
//  432                                 abyte0[i8] = (byte)(k1 = j8 << 1 & 0xff);
//  433                                 i1 -= 5;
//  434                                 continue;
//  435 
//  436                             case 7: // '\007'
//  437                                 //boolean flag9 = true;
//  438                                 continue;
//  439 
//  440                             case 8: // '\b'
//  441                                 abyte0[j2-- + 256] = (byte)(k2 | (k1 == 0 ? 2 : 0) | (k1 >> 7) << 7 | l3 << 6 | l2 << 2);
//  442                                 i1 -= 3;
//  443                                 continue;
//  444 
//  445                             case 9: // '\t'
//  446                                 j1 |= abyte0[i5++] & 0xff;
//  447                                 k1 = j1;
//  448                                 i1 -= 2;
//  449                                 continue;
//  450 
//  451                             case 10: // '\n'
//  452                                 k2 = j1 >> 7;
//  453                                 k1 = j1 = j1 << 1 & 0xff;
//  454                                 i1 -= 2;
//  455                                 continue;
//  456 
//  457                             case 11: // '\013'
//  458                                 //boolean flag10 = true;
//  459                                 continue;
//  460 
//  461                             case 12: // '\f'
//  462                                 i5 += 2;
//  463                                 i1 -= 4;
//  464                                 continue;
//  465 
//  466                             case 13: // '\r'
//  467                                 nn=abyte0[i5++] & 0xff;
//  468                                 j1 |= aint1int(nn | (abyte0[i5++] & 0xff) << 8);
//  469                                 k1 = j1;
//  470                                 i1 -= 4;
//  471                                 continue;
//  472 
//  473                             case 14: // '\016'
//  474                                 nn=abyte0[i5++] & 0xff;
//  475                                 k8 = nn | (abyte0[i5++] & 0xff) << 8;
//  476                                 i9 = aint1int(k8);
//  477                                 k2 = i9 >> 7;
//  478                                 avoid2int(k8, k1 = i9 << 1 & 0xff);
//  479                                 i1 -= 6;
//  480                                 continue;
//  481 
//  482                             case 15: // '\017'
//  483                                 //boolean flag11 = true;
//  484                                 continue;
//  485 
//  486                             case 16: // '\020'
//  487                             //debug("16-1",k1,i5);
//  488                                 if(k1 >> 7 == 0) {
//  489                                     byte byte2 = abyte0[i5++];
//  490                                     i5 += byte2;
//  491                                     i1 -= 3;
//  492                                     if(byte2 < 0 && byte2 >= -5) {
//  493                                         byte byte3 = abyte0[i5];
//  494                                         if(byte2 == -5 && (byte3 == -83 || byte3 == 44))
//  495                                             i1 = 0;
//  496                                         else
//  497                                         if(byte2 == -4 && byte3 == 6)
//  498                                             i1 = 0;
//  499                                     }
//  500                                 } else {
//  501                                     i5++;
//  502                                     i1 -= 2;
//  503                                 }
//  504                               //  debug("16-2",k1,i5);
//  505                                 continue;
//  506 
//  507                             case 17: // '\021'
//  508                                 j9 = abyte0[i5++] & 0xff;
//  509                                 j1 |= aint1int((abyte0[j9] & 0xff | (abyte0[j9 + 1] & 0xff) << 8) + i2);
//  510                                 k1 = j1;
//  511                                 i1 -= 5;
//  512                                 continue;
//  513 
//  514                             case 18: // '\022'
//  515                                 //boolean flag12 = true;
//  516                                 continue;
//  517 
//  518                             case 19: // '\023'
//  519                                 //boolean flag13 = true;
//  520                                 continue;
//  521 
//  522                             case 20: // '\024'
//  523                                 i5++;
//  524                                 i1 -= 4;
//  525                                 continue;
//  526 
//  527                             case 21: // '\025'
//  528                                 j1 |= abyte0[abyte0[i5++] + l1 & 0xff] & 0xff;
//  529                                 k1 = j1;
//  530                                 i1 -= 4;
//  531                                 continue;
//  532 
//  533                             case 22: // '\026'
//  534                                 k9 = abyte0[i5++] + l1 & 0xff;
//  535                                 i10 = abyte0[k9] & 0xff;
//  536                                 k2 = i10 >> 7;
//  537                                 abyte0[k9] = (byte)(k1 = i10 << 1 & 0xff);
//  538                                 i1 -= 6;
//  539                                 continue;
//  540 
//  541                             case 23: // '\027'
//  542                                 //boolean flag14 = true;
//  543                                 continue;
//  544 
//  545                             case 24: // '\030'
//  546                                 k2 = 0;
//  547                                 i1 -= 2;
//  548                                 continue;
//  549 
//  550                             case 25: // '\031'
//  551                                 nn=abyte0[i5++] & 0xff;
//  552                                 j1 |= aint1int((nn | (abyte0[i5++] & 0xff) << 8) + i2);
//  553                                 k1 = j1;
//  554                                 i1 -= 4;
//  555                                 continue;
//  556 
//  557                             case 26: // '\032'
//  558                                 i1 -= 2;
//  559                                 continue;
//  560 
//  561                             case 27: // '\033'
//  562                                 //boolean flag15 = true;
//  563                                 continue;
//  564 
//  565                             case 28: // '\034'
//  566                                 i5 += 2;
//  567                                 i1 -= 4;
//  568                                 continue;
//  569 
//  570                             case 29: // '\035'
//  571                                 nn=abyte0[i5++] & 0xff;
//  572                                 j1 |= aint1int((nn | (abyte0[i5++] & 0xff) << 8) + l1);
//  573                                 k1 = j1;
//  574                                 i1 -= 5;
//  575                                 continue;
//  576 
//  577                             case 30: // '\036'
//  578                                 nn=abyte0[i5++] & 0xff;
//  579                                 j10 = (nn | (abyte0[i5++] & 0xff) << 8) + l1;
//  580                                 k10 = aint1int(j10);
//  581                                 k2 = k10 >> 7;
//  582                                 avoid2int(j10, k1 = k10 << 1 & 0xff);
//  583                                 i1 -= 7;
//  584                                 continue;
//  585 
//  586                             case 31: // '\037'
//  587                                 //boolean flag16 = true;
//  588                                 continue;
//  589 
//  590                             case 32: // ' '
//  591                                 k4 = (i5 - l4) + 1;
//  592                                 abyte0[j2-- + 256] = (byte)(k4 >> 8);
//  593                                 abyte0[j2-- + 256] = (byte)k4;
//  594                                 k4 = abyte0[i5] & 0xff | (abyte0[i5 + 1] & 0xff) << 8;
//  595                                 i5 = k4 + (l4 = ai2[k4 >> 13]);
//  596                                 i1 -= 6;
//  597                                 continue;
//  598 
//  599                             case 33: // '!'
//  600                                 l10 = abyte0[i5++] + l1 & 0xff;
//  601                                 j1 &= aint1int(abyte0[l10] & 0xff | (abyte0[l10 + 1] & 0xff) << 8);
//  602                                 k1 = j1;
//  603                                 i1 -= 6;
//  604                                 continue;
//  605 
//  606                             case 34: // '"'
//  607                                 //boolean flag17 = true;
//  608                                 continue;
//  609 
//  610                             case 35: // '#'
//  611                                 //boolean flag18 = true;
//  612                                 continue;
//  613 
//  614                             case 36: // '$'
//  615                                 i11 = abyte0[abyte0[i5++] & 0xff] & 0xff;
//  616                                 l3 = i11 >> 6 & 1;
//  617                                 byte4 = abyte0[i5];
//  618                                 if(byte4 == 16 || byte4 == 48)
//  619                                     k1 = i11;
//  620                                 else
//  621                                     k1 = j1 & i11;
//  622                                 i1 -= 3;
//  623                                 continue;
//  624 
//  625                             case 37: // '%'
//  626                                 j1 &= abyte0[abyte0[i5++] & 0xff] & 0xff;
//  627                                 k1 = j1;
//  628                                 i1 -= 3;
//  629                                 continue;
//  630 
//  631                             case 38: // '&'
//  632                                 j11 = abyte0[i5++] & 0xff;
//  633                                 k11 = abyte0[j11] & 0xff;
//  634                                 k11 = k11 << 1 | k2;
//  635                                 k2 = k11 >> 8;
//  636                                 abyte0[j11] = (byte)(k1 = k11 & 0xff);
//  637                                 i1 -= 5;
//  638                                 continue;
//  639 
//  640                             case 39: // '\''
//  641                                 //boolean flag19 = true;
//  642                                 continue;
//  643 
//  644                             case 40: // '('
//  645                                 l11 = abyte0[++j2 + 256] & 0xff;
//  646                                 k2 = l11 & 1;
//  647                                 k1 = ((l11 >> 1 & 1) == 0 ? 1 : 0) | (l11 >> 7) << 7;
//  648                                 l3 = l11 >> 6 & 1;
//  649                                 l2 = l11 >> 2 & 1;
//  650                                 i1 -= 4;
//  651                                 continue;
//  652 
//  653                             case 41: // ')'
//  654                                 j1 &= abyte0[i5++] & 0xff;
//  655                                 k1 = j1;
//  656                                 i1 -= 2;
//  657                                 continue;
//  658 
//  659                             case 42: // '*'
//  660                                 j1 = j1 << 1 | k2;
//  661                                 k2 = j1 >> 8;
//  662                                 j1 &= 0xff;
//  663                                 k1 = j1;
//  664                                 i1 -= 2;
//  665                                 continue;
//  666 
//  667                             case 43: // '+'
//  668                                 //boolean flag20 = true;
//  669                                 continue;
//  670 
//  671                             case 44: // ','
//  672                                 nn=abyte0[i5++] & 0xff;
//  673                                 i12 = aint1int( nn| (abyte0[i5++] & 0xff) << 8);
//  674                                 l3 = i12 >> 6 & 1;
//  675                                 byte5 = abyte0[i5];
//  676                                 if(byte5 == 16 || byte5 == 48)
//  677                                     k1 = i12;
//  678                                 else
//  679                                     k1 = j1 & i12;
//  680                                 i1 -= 4;
//  681                                 continue;
//  682 
//  683                             case 45: // '-'
//  684                                 nn=abyte0[i5++] & 0xff;
//  685                                 j1 &= aint1int(nn | (abyte0[i5++] & 0xff) << 8);
//  686                                 k1 = j1;
//  687                                 i1 -= 4;
//  688                                 continue;
//  689 
//  690                             case 46: // '.'
//  691                                 nn=abyte0[i5++] & 0xff;
//  692                                 j12 = nn | (abyte0[i5++] & 0xff) << 8;
//  693                                 k12 = aint1int(j12);
//  694                                 k12 = k12 << 1 | k2;
//  695                                 k2 = k12 >> 8;
//  696                                 avoid2int(j12, k1 = k12 & 0xff);
//  697                                 i1 -= 6;
//  698                                 continue;
//  699 
//  700                             case 47: // '/'
//  701                                 //boolean flag21 = true;
//  702                                 continue;
//  703 
//  704                             case 48: // '0'
//  705                                 if(k1 >> 7 != 0) {
//  706                                     byte6 = abyte0[i5++];
//  707                                     i5 += byte6;
//  708                                     i1--;
//  709                                 } else {
//  710                                     i5++;
//  711                                 }
//  712                                 i1 -= 2;
//  713                                 continue;
//  714 
//  715                             case 49: // '1'
//  716                                 l12 = abyte0[i5++] & 0xff;
//  717                                 j1 &= aint1int((abyte0[l12] & 0xff | (abyte0[l12 + 1] & 0xff) << 8) + i2);
//  718                                 k1 = j1;
//  719                                 i1 -= 5;
//  720                                 continue;
//  721 
//  722                             case 50: // '2'
//  723                                 //boolean flag22 = true;
//  724                                 continue;
//  725 
//  726                             case 51: // '3'
//  727                                 //boolean flag23 = true;
//  728                                 continue;
//  729 
//  730                             case 52: // '4'
//  731                                 i5++;
//  732                                 i1 -= 4;
//  733                                 continue;
//  734 
//  735                             case 53: // '5'
//  736                                 j1 &= abyte0[abyte0[i5++] + l1 & 0xff] & 0xff;
//  737                                 k1 = j1;
//  738                                 i1 -= 4;
//  739                                 continue;
//  740 
//  741                             case 54: // '6'
//  742                                 i13 = abyte0[i5++] + l1 & 0xff;
//  743                                 j13 = abyte0[i13] & 0xff;
//  744                                 j13 = j13 << 1 | k2;
//  745                                 k2 = j13 >> 8;
//  746                                 abyte0[i13] = (byte)(k1 = j13 & 0xff);
//  747                                 i1 -= 6;
//  748                                 continue;
//  749 
//  750                             case 55: // '7'
//  751                                 //boolean flag24 = true;
//  752                                 continue;
//  753 
//  754                             case 56: // '8'
//  755                                 k2 = 1;
//  756                                 i1 -= 2;
//  757                                 continue;
//  758 
//  759                             case 57: // '9'
//  760                                 nn=abyte0[i5++] & 0xff;
//  761                                 j1 &= aint1int((nn | (abyte0[i5++] & 0xff) << 8) + i2);
//  762                                 k1 = j1;
//  763                                 i1 -= 4;
//  764                                 continue;
//  765 
//  766                             case 58: // ':'
//  767                                 i1 -= 2;
//  768                                 continue;
//  769 
//  770                             case 59: // ';'
//  771                                 //boolean flag25 = true;
//  772                                 continue;
//  773 
//  774                             case 60: // '<'
//  775                                 i5 += 2;
//  776                                 i1 -= 4;
//  777                                 continue;
//  778 
//  779                             case 61: // '='
//  780                                 nn=abyte0[i5++] & 0xff;
//  781                                 j1 &= aint1int((nn | (abyte0[i5++] & 0xff) << 8) + l1);
//  782                                 k1 = j1;
//  783                                 i1 -= 5;
//  784                                 continue;
//  785 
//  786                             case 62: // '>'
//  787                                 nn=abyte0[i5++] & 0xff;
//  788                                 k13 = (nn | (abyte0[i5++] & 0xff) << 8) + l1;
//  789                                 l13 = aint1int(k13);
//  790                                 l13 = l13 << 1 | k2;
//  791                                 k2 = l13 >> 8;
//  792                                 avoid2int(k13, k1 = l13 & 0xff);
//  793                                 i1 -= 7;
//  794                                 continue;
//  795 
//  796                             case 63: // '?'
//  797                                 //boolean flag26 = true;
//  798                                 continue;
//  799 
//  800                             case 64: // '@'
//  801                                 i14 = abyte0[++j2 + 256] & 0xff;
//  802                                 k2 = i14 & 1;
//  803                                 k1 = ((i14 >> 1 & 1) == 0 ? 1 : 0) | (i14 >> 7) << 7;
//  804                                 l3 = i14 >> 6 & 1;
//  805                                 l2 = i14 >> 2 & 1;
//  806                                 nn=abyte0[++j2 + 256] & 0xff;
//  807                                 k4 = nn | (abyte0[++j2 + 256] & 0xff) << 8;
//  808                                 i5 = k4 + (l4 = ai2[k4 >> 13]);
//  809                                 i1 -= 6;
//  810                                 continue;
//  811 
//  812                             case 65: // 'A'
//  813                                 j14 = abyte0[i5++] + l1 & 0xff;
//  814                                 j14 = abyte0[j14] & 0xff | (abyte0[j14 + 1] & 0xff) << 8;
//  815                                 j1 ^= aint1int(j14);
//  816                                 k1 = j1;
//  817                                 i1 -= 6;
//  818                                 continue;
//  819 
//  820                             case 66: // 'B'
//  821                                 //boolean flag27 = true;
//  822                                 continue;
//  823 
//  824                             case 67: // 'C'
//  825                                 //boolean flag28 = true;
//  826                                 continue;
//  827 
//  828                             case 68: // 'D'
//  829                                 i5++;
//  830                                 i1 -= 3;
//  831                                 continue;
//  832 
//  833                             case 69: // 'E'
//  834                                 j1 ^= abyte0[abyte0[i5++] & 0xff] & 0xff;
//  835                                 k1 = j1;
//  836                                 i1 -= 3;
//  837                                 continue;
//  838 
//  839                             case 70: // 'F'
//  840                                 k14 = abyte0[i5++] & 0xff;
//  841                                 l14 = abyte0[k14] & 0xff;
//  842                                 k2 = l14 & 1;
//  843                                 abyte0[k14] = (byte)(k1 = l14 >> 1);
//  844                                 i1 -= 5;
//  845                                 continue;
//  846 
//  847                             case 71: // 'G'
//  848                                 //boolean flag29 = true;
//  849                                 continue;
//  850 
//  851                             case 72: // 'H'
//  852                                 abyte0[j2-- + 256] = (byte)j1;
//  853                                 i1 -= 3;
//  854                                 continue;
//  855 
//  856                             case 73: // 'I'
//  857                                 j1 ^= abyte0[i5++] & 0xff;
//  858                                 k1 = j1;
//  859                                 i1 -= 2;
//  860                                 continue;
//  861 
//  862                             case 74: // 'J'
//  863                                 k2 = j1 & 1;
//  864                                 j1 >>= 1;
//  865                                 k1 = j1;
//  866                                 i1 -= 2;
//  867                                 continue;
//  868 
//  869                             case 75: // 'K'
//  870                                 //boolean flag30 = true;
//  871                                 continue;
//  872 
//  873                             case 76: // 'L'
//  874                                 i15 = i5 - 1;
//  875                                 k4 = abyte0[i5] & 0xff | (abyte0[i5 + 1] & 0xff) << 8;
//  876                                 i5 = k4 + (l4 = ai2[k4 >> 13]);
//  877                                 i1 -= 3;
//  878                                 if(i5 == j4 || i5 == i15) {
//  879                                     i1 = 0;
//  880                                     continue;
//  881                                 }
//  882                                 if(!flag)
//  883                                     continue;
//  884                                 j15 = 1;
//  885                                 k15 = 0;
//  886                                 do {
//  887                                     if(k15 >= 100)
//  888                                         break;
//  889                                     if(ai[k15] == i5) {
//  890                                         ai1[k15]++;
//  891                                         j15 = 0;
//  892                                         break;
//  893                                     }
//  894                                     k15++;
//  895                                 } while(true);
//  896                                 if(j15 <= 0)
//  897                                     continue;
//  898                                 k15 = 0;
//  899                                 do {
//  900                                     if(k15 >= 100)
//  901                                       goto label0;   //  continue
//  902                                     if(ai1[k15] == 0) {
//  903                                         ai1[k15]++;
//  904                                         ai[k15] = i5;
//  905                                         goto label0;  //continue
//  906                                     }
//  907                                     k15++;
//  908                                 } while(true);
//  909 
//  910                             case 77: // 'M'
//  911                                 nn=abyte0[i5++] & 0xff;
//  912                                 j1 ^= aint1int(nn | (abyte0[i5++] & 0xff) << 8);
//  913                                 k1 = j1;
//  914                                 i1 -= 4;
//  915                                 break;
//  916 
//  917                             case 78: // 'N'
//  918                                 nn=abyte0[i5++] & 0xff;
//  919                                 l15 = nn | (abyte0[i5++] & 0xff) << 8;
//  920                                 i16 = aint1int(l15);
//  921                                 k2 = i16 & 1;
//  922                                 avoid2int(l15, k1 = i16 >> 1);
//  923                                 i1 -= 6;
//  924                                 break;
//  925 
//  926                             case 79: // 'O'
//  927                                 flag31 = true;
//  928                                 break;
//  929 
//  930                             case 80: // 'P'
//  931                                 if(l3 == 0) {
//  932                                     byte7 = abyte0[i5++];
//  933                                     i5 += byte7;
//  934                                     i1 -= 3;
//  935                                     if(byte7 < 0 && byte7 >= -5) {
//  936                                         byte8 = abyte0[i5];
//  937                                         if(byte7 == -5 && byte8 == 44)
//  938                                             i1 = 0;
//  939                                     }
//  940                                 } else {
//  941                                     i5++;
//  942                                     i1 -= 2;
//  943                                 }
//  944                                 break;
//  945 
//  946                             case 81: // 'Q'
//  947                                 j16 = abyte0[i5++] & 0xff;
//  948                                 j1 ^= aint1int((abyte0[j16] & 0xff | (abyte0[j16 + 1] & 0xff) << 8) + i2);
//  949                                 k1 = j1;
//  950                                 i1 -= 5;
//  951                                 break;
//  952 
//  953                             case 82: // 'R'
//  954                                 flag32 = true;
//  955                                 break;
//  956 
//  957                             case 83: // 'S'
//  958                                 flag33 = true;
//  959                                 break;
//  960 
//  961                             case 84: // 'T'
//  962                                 i5++;
//  963                                 i1 -= 4;
//  964                                 break;
//  965 
//  966                             case 85: // 'U'
//  967                                 j1 ^= abyte0[abyte0[i5++] + l1 & 0xff] & 0xff;
//  968                                 k1 = j1;
//  969                                 i1 -= 4;
//  970                                 break;
//  971 
//  972                             case 86: // 'V'
//  973                                 k16 = abyte0[i5++] + l1 & 0xff;
//  974                                 l16 = abyte0[k16] & 0xff;
//  975                                 k2 = l16 & 1;
//  976                                 abyte0[k16] = (byte)(k1 = l16 >> 1);
//  977                                 i1 -= 6;
//  978                                 break;
//  979 
//  980                             case 87: // 'W'
//  981                                 flag34 = true;
//  982                                 break;
//  983 
//  984                             case 88: // 'X'
//  985                                 l2 = 0;
//  986                                 i1 -= 2;
//  987                                 break;
//  988 
//  989                             case 89: // 'Y'
//  990                                 nn=abyte0[i5++] & 0xff;
//  991                                 j1 ^= aint1int((nn | (abyte0[i5++] & 0xff) << 8) + i2);
//  992                                 k1 = j1;
//  993                                 i1 -= 4;
//  994                                 break;
//  995 
//  996                             case 90: // 'Z'
//  997                                 i1 -= 2;
//  998                                 break;
//  999 
// 1000                             case 91: // '['
// 1001                                 flag35 = true;
// 1002                                 break;
// 1003 
// 1004                             case 92: // '\\'
// 1005                                 i5 += 2;
// 1006                                 i1 -= 4;
// 1007                                 break;
// 1008 
// 1009                             case 93: // ']'
// 1010                                 nn=abyte0[i5++] & 0xff;
// 1011                                 j1 ^= aint1int((nn | (abyte0[i5++] & 0xff) << 8) + l1);
// 1012                                 k1 = j1;
// 1013                                 i1 -= 5;
// 1014                                 break;
// 1015 
// 1016                             case 94: // '^'
// 1017                                 nn=abyte0[i5++] & 0xff;
// 1018                                 i17 = (nn | (abyte0[i5++] & 0xff) << 8) + l1;
// 1019                                 j17 = aint1int(i17);
// 1020                                 k2 = j17 & 1;
// 1021                                 avoid2int(i17, k1 = j17 >> 1);
// 1022                                 i1 -= 7;
// 1023                                 break;
// 1024 
// 1025                             case 95: // '_'
// 1026                                 flag36 = true;
// 1027                                 break;
// 1028 
// 1029                             case 96: // '`'
// 1030                               nn=abyte0[++j2 + 256] & 0xff;
// 1031                                 k4 = (nn | (abyte0[++j2 + 256] & 0xff) << 8) + 1;
// 1032                                 i5 = k4 + (l4 = ai2[k4 >> 13]);
// 1033                                 i1 -= 4;
// 1034                                 break;
// 1035 
// 1036                             case 97: // 'a'
// 1037                                 k17 = abyte0[i5++] + l1 & 0xff;
// 1038                                 l17 = aint1int(abyte0[k17] & 0xff | (abyte0[k17 + 1] & 0xff) << 8);
// 1039                                 i18 = j1 + l17 + k2;
// 1040                                 l3 = (~(j1 ^ l17) & (j1 ^ i18)) >> 7 & 1;
// 1041                                 k2 = i18 >> 8;
// 1042                                 j1 = i18 & 0xff;
// 1043                                 k1 = j1;
// 1044                                 i1 -= 6;
// 1045                                 break;
// 1046 
// 1047                             case 98: // 'b'
// 1048                                 flag37 = true;
// 1049                                 break;
// 1050 
// 1051                             case 99: // 'c'
// 1052                                 flag38 = true;
// 1053                                 break;
// 1054 
// 1055                             case 100: // 'd'
// 1056                                 i5++;
// 1057                                 i1 -= 3;
// 1058                                 break;
// 1059 
// 1060                             case 101: // 'e'
// 1061                                 j18 = abyte0[abyte0[i5++] & 0xff] & 0xff;
// 1062                                 k18 = j1 + j18 + k2;
// 1063                                 l3 = (~(j1 ^ j18) & (j1 ^ k18)) >> 7 & 1;
// 1064                                 k2 = k18 >> 8;
// 1065                                 k1 = j1 = k18 & 0xff;
// 1066                                 i1 -= 3;
// 1067                                 break;
// 1068 
// 1069                             case 102: // 'f'
// 1070                                 l18 = abyte0[i5++] & 0xff;
// 1071                                 i19 = abyte0[l18] & 0xff;
// 1072                                 j19 = k2 << 7;
// 1073                                 k2 = i19 & 1;
// 1074                                 abyte0[l18] = (byte)(k1 = i19 >> 1 | j19);
// 1075                                 i1 -= 5;
// 1076                                 break;
// 1077 
// 1078                             case 103: // 'g'
// 1079                                 flag39 = true;
// 1080                                 break;
// 1081 
// 1082                             case 104: // 'h'
// 1083                                 k1 = j1 = abyte0[++j2 + 256] & 0xff;
// 1084                                 i1 -= 4;
// 1085                                 break;
// 1086 
// 1087                             case 105: // 'i'
// 1088                                 k19 = abyte0[i5++] & 0xff;
// 1089                                 l19 = j1 + k19 + k2;
// 1090                                 l3 = (~(j1 ^ k19) & (j1 ^ l19)) >> 7 & 1;
// 1091                                 k2 = l19 >> 8;
// 1092                                 k1 = j1 = l19 & 0xff;
// 1093                                 i1 -= 2;
// 1094                                 break;
// 1095 
// 1096                             case 106: // 'j'
// 1097                                 i20 = k2;
// 1098                                 k2 = j1 & 1;
// 1099                                 k1 = j1 = j1 >> 1 | i20 << 7;
// 1100                                 i1 -= 2;
// 1101                                 break;
// 1102 
// 1103                             case 107: // 'k'
// 1104                                 flag40 = true;
// 1105                                 break;
// 1106 
// 1107                             case 108: // 'l'
// 1108                                 nn=abyte0[i5++] & 0xff;
// 1109                                 j20 = nn | (abyte0[i5++] & 0xff) << 8;
// 1110                                 if((j20 & 0xff) == 255)
// 1111                                     k4 = aint1int(j20) | aint1int(j20 & 0xff00) << 8;
// 1112                                 else
// 1113                                     k4 = aint1int(j20) | aint1int(j20 + 1) << 8;
// 1114                                 i5 = k4 + (l4 = ai2[k4 >> 13]);
// 1115                                 i1 -= 5;
// 1116                                 break;
// 1117 
// 1118                             case 109: // 'm'
// 1119                                 nn=abyte0[i5++] & 0xff;
// 1120                                 k20 = aint1int(nn | (abyte0[i5++] & 0xff) << 8);
// 1121                                 l20 = j1 + k20 + k2;
// 1122                                 l3 = (~(j1 ^ k20) & (j1 ^ l20)) >> 7 & 1;
// 1123                                 k2 = l20 >> 8;
// 1124                                 k1 = j1 = l20 & 0xff;
// 1125                                 i1 -= 4;
// 1126                                 break;
// 1127 
// 1128                             case 110: // 'n'
// 1129                                 nn=abyte0[i5++] & 0xff;
// 1130                                 i21 = nn | (abyte0[i5++] & 0xff) << 8;
// 1131                                 j21 = aint1int(i21);
// 1132                                 k21 = k2 << 7;
// 1133                                 k2 = j21 & 1;
// 1134                                 avoid2int(i21, k1 = j21 >> 1 | k21);
// 1135                                 i1 -= 6;
// 1136                                 break;
// 1137 
// 1138                             case 111: // 'o'
// 1139                                 flag41 = true;
// 1140                                 break;
// 1141 
// 1142                             case 112: // 'p'
// 1143                                 if(l3 != 0) {
// 1144                                     byte9 = abyte0[i5++];
// 1145                                     i5 += byte9;
// 1146                                     i1--;
// 1147                                 } else {
// 1148                                     i5++;
// 1149                                 }
// 1150                                 i1 -= 4;
// 1151                                 break;
// 1152 
// 1153                             case 113: // 'q'
// 1154                                 l21 = abyte0[i5++] & 0xff;
// 1155                                 i22 = aint1int((abyte0[l21] & 0xff | (abyte0[l21 + 1] & 0xff) << 8) + i2);
// 1156                                 j22 = j1 + i22 + k2;
// 1157                                 l3 = (~(j1 ^ i22) & (j1 ^ j22)) >> 7 & 1;
// 1158                                 k2 = j22 >> 8;
// 1159                                 k1 = j1 = j22 & 0xff;
// 1160                                 i1 -= 5;
// 1161                                 break;
// 1162 
// 1163                             case 114: // 'r'
// 1164                                 flag42 = true;
// 1165                                 break;
// 1166 
// 1167                             case 115: // 's'
// 1168                                 flag43 = true;
// 1169                                 break;
// 1170 
// 1171                             case 116: // 't'
// 1172                                 i5++;
// 1173                                 i1 -= 4;
// 1174                                 break;
// 1175 
// 1176                             case 117: // 'u'
// 1177                                 k22 = abyte0[abyte0[i5++] + l1 & 0xff] & 0xff;
// 1178                                 l22 = j1 + k22 + k2;
// 1179                                 l3 = (~(j1 ^ k22) & (j1 ^ l22)) >> 7 & 1;
// 1180                                 k2 = l22 >> 8;
// 1181                                 k1 = j1 = l22 & 0xff;
// 1182                                 i1 -= 4;
// 1183                                 break;
// 1184 
// 1185                             case 118: // 'v'
// 1186                                 i23 = abyte0[i5++] + l1 & 0xff;
// 1187                                 j23 = abyte0[i23] & 0xff;
// 1188                                 k23 = k2 << 7;
// 1189                                 k2 = j23 & 1;
// 1190                                 abyte0[i23] = (byte)(k1 = j23 >> 1 | k23);
// 1191                                 i1 -= 6;
// 1192                                 break;
// 1193 
// 1194                             case 119: // 'w'
// 1195                                 flag44 = true;
// 1196                                 break;
// 1197 
// 1198                             case 120: // 'x'
// 1199                                 l2 = 1;
// 1200                                 i1 -= 2;
// 1201                                 break;
// 1202 
// 1203                             case 121: // 'y'
// 1204                                 nn=abyte0[i5++] & 0xff;
// 1205                                 l23 = aint1int((nn | (abyte0[i5++] & 0xff) << 8) + i2);
// 1206                                 i24 = j1 + l23 + k2;
// 1207                                 l3 = (~(j1 ^ l23) & (j1 ^ i24)) >> 7 & 1;
// 1208                                 k2 = i24 >> 8;
// 1209                                 k1 = j1 = i24 & 0xff;
// 1210                                 i1 -= 4;
// 1211                                 break;
// 1212 
// 1213                             case 122: // 'z'
// 1214                                 i1 -= 2;
// 1215                                 break;
// 1216 
// 1217                             case 123: // '{'
// 1218                                 flag45 = true;
// 1219                                 break;
// 1220 
// 1221                             case 124: // '|'
// 1222                                 i5 += 2;
// 1223                                 i1 -= 4;
// 1224                                 break;
// 1225 
// 1226                             case 125: // '}'
// 1227                                 nn=abyte0[i5++] & 0xff;
// 1228                                 j24 = aint1int((nn | (abyte0[i5++] & 0xff) << 8) + l1);
// 1229                                 k24 = j1 + j24 + k2;
// 1230                                 l3 = (~(j1 ^ j24) & (j1 ^ k24)) >> 7 & 1;
// 1231                                 k2 = k24 >> 8;
// 1232                                 k1 = j1 = k24 & 0xff;
// 1233                                 i1 -= 5;
// 1234                                 break;
// 1235 
// 1236                             case 126: // '~'
// 1237                                 nn=abyte0[i5++] & 0xff;
// 1238                                 l24 = (nn | (abyte0[i5++] & 0xff) << 8) + l1;
// 1239                                 i25 = aint1int(l24);
// 1240                                 j25 = k2 << 7;
// 1241                                 k2 = i25 & 1;
// 1242                                 avoid2int(l24, k1 = i25 >> 1 | j25);
// 1243                                 i1 -= 7;
// 1244                                 break;
// 1245 
// 1246                             case 127: // '\177'
// 1247                                 flag46 = true;
// 1248                                 break;
// 1249 
// 1250                             case -128: 
// 1251                                 i5++;
// 1252                                 i1 -= 2;
// 1253                                 break;
// 1254 
// 1255                             case -127: 
// 1256                               /* STA */                              
// 1257                                 k25 = abyte0[i5++] + l1 & 0xff;
// 1258                                 avoid2int(abyte0[k25] & 0xff | (abyte0[k25 + 1] & 0xff) << 8, j1);
// 1259                                 i1 -= 6;
// 1260                                 break;
// 1261 
// 1262                             case -126: 
// 1263                                 i5++;
// 1264                                 i1 -= 2;
// 1265                                 break;
// 1266 
// 1267                             case -125: 
// 1268                                 flag47 = true;
// 1269                                 break;
// 1270 
// 1271                             case -124: 
// 1272                                 abyte0[abyte0[i5++] & 0xff] = (byte)i2;
// 1273                                 i1 -= 3;
// 1274                                 break;
// 1275 
// 1276                             case -123: 
// 1277                                 abyte0[abyte0[i5++] & 0xff] = (byte)j1;
// 1278                                 i1 -= 3;
// 1279                                 break;
// 1280 
// 1281                             case -122: 
// 1282                                 abyte0[abyte0[i5++] & 0xff] = (byte)l1;
// 1283                                 i1 -= 3;
// 1284                                 break;
// 1285 
// 1286                             case -121: 
// 1287                                 flag48 = true;
// 1288                                 break;
// 1289 
// 1290                             case -120: 
// 1291                                 k1 = i2 = i2 - 1 & 0xff;
// 1292                                 i1 -= 2;
// 1293                                 break;
// 1294 
// 1295                             case -119: 
// 1296                                 i5++;
// 1297                                 i1 -= 2;
// 1298                                 break;
// 1299 
// 1300                             case -118: 
// 1301                                 k1 = j1 = l1;
// 1302                                 i1 -= 2;
// 1303                                 break;
// 1304 
// 1305                             case -117: 
// 1306                                 flag49 = true;
// 1307                                 break;
// 1308 
// 1309                             case -116: 
// 1310                                 nn=abyte0[i5++] & 0xff;
// 1311                                 avoid2int(nn | (abyte0[i5++] & 0xff) << 8, i2);
// 1312                                 i1 -= 4;
// 1313                                 break;
// 1314 
// 1315                             case -115: 
// 1316                                 nn=abyte0[i5++] & 0xff;
// 1317                                 avoid2int(nn | (abyte0[i5++] & 0xff) << 8, j1);
// 1318                                 i1 -= 4;
// 1319                                 break;
// 1320 
// 1321                             case -114: 
// 1322                                 nn=abyte0[i5++] & 0xff;
// 1323                                 avoid2int(nn | (abyte0[i5++] & 0xff) << 8, l1);
// 1324                                 i1 -= 4;
// 1325                                 break;
// 1326 
// 1327                             case -113: 
// 1328                                 flag50 = true;
// 1329                                 break;
// 1330 
// 1331                             case -112: 
// 1332                                 if(k2 == 0) {
// 1333                                     byte10 = abyte0[i5++];
// 1334                                     i5 += byte10;
// 1335                                     i1--;
// 1336                                 } else {
// 1337                                     i5++;
// 1338                                 }
// 1339                                 i1 -= 2;
// 1340                                 break;
// 1341 
// 1342                             case -111: 
// 1343                                 l25 = abyte0[i5++] & 0xff;
// 1344                                 avoid2int((abyte0[l25] & 0xff | (abyte0[l25 + 1] & 0xff) << 8) + i2, j1);
// 1345                                 i1 -= 6;
// 1346                                 break;
// 1347 
// 1348                             case -110: 
// 1349                                 flag51 = true;
// 1350                                 break;
// 1351 
// 1352                             case -109: 
// 1353                                 flag52 = true;
// 1354                                 break;
// 1355 
// 1356                             case -108: 
// 1357                                 abyte0[abyte0[i5++] + l1 & 0xff] = (byte)i2;
// 1358                                 i1 -= 4;
// 1359                                 break;
// 1360 
// 1361                             case -107: 
// 1362                                 abyte0[abyte0[i5++] + l1 & 0xff] = (byte)j1;
// 1363                                 i1 -= 4;
// 1364                                 break;
// 1365 
// 1366                             case -106: 
// 1367                                 abyte0[abyte0[i5++] + i2 & 0xff] = (byte)l1;
// 1368                                 i1 -= 4;
// 1369                                 break;
// 1370 
// 1371                             case -105: 
// 1372                                 flag53 = true;
// 1373                                 break;
// 1374 
// 1375                             case -104: 
// 1376                                 k1 = j1 = i2;
// 1377                                 i1 -= 2;
// 1378                                 break;
// 1379 
// 1380                             case -103: 
// 1381                                 nn=abyte0[i5++] & 0xff;
// 1382                                 avoid2int((nn | (abyte0[i5++] & 0xff) << 8) + i2, j1);
// 1383                                 i1 -= 5;
// 1384                                 break;
// 1385 
// 1386                             case -102: 
// 1387                                 j2 = l1;
// 1388                                 i1 -= 2;
// 1389                                 break;
// 1390 
// 1391                             case -101: 
// 1392                                 flag54 = true;
// 1393                                 break;
// 1394 
// 1395                             case -100: 
// 1396                                 flag55 = true;
// 1397                                 break;
// 1398 
// 1399                             case -99: 
// 1400                                 nn=abyte0[i5++] & 0xff;
// 1401                                 avoid2int((nn | (abyte0[i5++] & 0xff) << 8) + l1, j1);
// 1402                                 i1 -= 5;
// 1403                                 break;
// 1404 
// 1405                             case -98: 
// 1406                                 flag56 = true;
// 1407                                 break;
// 1408 
// 1409                             case -97: 
// 1410                                 flag57 = true;
// 1411                                 break;
// 1412 
// 1413                             case -96: 
// 1414                                 k1 = i2 = abyte0[i5++] & 0xff;
// 1415                                 i1 -= 2;
// 1416                                 break;
// 1417 
// 1418                             case -95: 
// 1419                                 i26 = abyte0[i5++] + l1 & 0xff;
// 1420                                 k1 = j1 = aint1int(abyte0[i26] & 0xff | (abyte0[i26 + 1] & 0xff) << 8);
// 1421                                 i1 -= 6;
// 1422                                 break;
// 1423 
// 1424                             case -94: 
// 1425                                 k1 = l1 = abyte0[i5++] & 0xff;
// 1426                                 i1 -= 2;
// 1427                                 break;
// 1428 
// 1429                             case -93: 
// 1430                                 flag58 = true;
// 1431                                 break;
// 1432 
// 1433                             case -92: 
// 1434                                 k1 = i2 = abyte0[abyte0[i5++] & 0xff] & 0xff;
// 1435                                 i1 -= 3;
// 1436                                 break;
// 1437 
// 1438                             case -91: 
// 1439                                 k1 = j1 = abyte0[abyte0[i5++] & 0xff] & 0xff;
// 1440                                 i1 -= 3;
// 1441                                 break;
// 1442 
// 1443                             case -90: 
// 1444                                 k1 = l1 = abyte0[abyte0[i5++] & 0xff] & 0xff;
// 1445                                 i1 -= 3;
// 1446                                 break;
// 1447 
// 1448                             case -89: 
// 1449                                 flag59 = true;
// 1450                                 break;
// 1451 
// 1452                             case -88: 
// 1453                                 k1 = i2 = j1;
// 1454                                 i1 -= 2;
// 1455                                 break;
// 1456 
// 1457                             case -87: 
// 1458                                 k1 = j1 = abyte0[i5++] & 0xff;
// 1459                                 i1 -= 2;
// 1460                                 break;
// 1461 
// 1462                             case -86: 
// 1463                                 k1 = l1 = j1;
// 1464                                 i1 -= 2;
// 1465                                 break;
// 1466 
// 1467                             case -85: 
// 1468                                 flag60 = true;
// 1469                                 break;
// 1470 
// 1471                             case -84: 
// 1472                                 nn=abyte0[i5++] & 0xff;
// 1473                                 k1 = i2 = aint1int(nn | (abyte0[i5++] & 0xff) << 8);
// 1474                                 i1 -= 4;
// 1475                                 break;
// 1476 
// 1477                             case -83: 
// 1478                                //debug("-83-1",abyte0[i5],abyte0[i5+1]);
// 1479                                 nn=abyte0[i5++] & 0xff;
// 1480                                 k1 = j1 = aint1int(nn | (abyte0[i5++] & 0xff) << 8);
// 1481                                 i1 -= 4;
// 1482                                 //debug("-83-2",k1,abyte0[i5-1]);                              
// 1483                                 break;
// 1484 
// 1485                             case -82: 
// 1486                                 nn=abyte0[i5++] & 0xff;
// 1487                                 k1 = l1 = aint1int(nn | (abyte0[i5++] & 0xff) << 8);
// 1488                                 i1 -= 4;
// 1489                                 break;
// 1490 
// 1491                             case -81: 
// 1492                                 flag61 = true;
// 1493                                 break;
// 1494 
// 1495                             case -80: 
// 1496                                 if(k2 != 0) {
// 1497                                     byte11 = abyte0[i5++];
// 1498                                     i5 += byte11;
// 1499                                     i1 -= 3;
// 1500                                 } else {
// 1501                                     i5++;
// 1502                                     i1 -= 2;
// 1503                                 }
// 1504                                 break;
// 1505 
// 1506                             case -79: 
// 1507                                 j26 = abyte0[i5++] & 0xff;
// 1508                                 k1 = j1 = aint1int((abyte0[j26] & 0xff | (abyte0[j26 + 1] & 0xff) << 8) + i2);
// 1509                                 i1 -= 5;
// 1510                                 break;
// 1511 
// 1512                             case -78: 
// 1513                                 flag62 = true;
// 1514                                 break;
// 1515 
// 1516                             case -77: 
// 1517                                 flag63 = true;
// 1518                                 break;
// 1519 
// 1520                             case -76: 
// 1521                                 k1 = i2 = abyte0[abyte0[i5++] + l1 & 0xff] & 0xff;
// 1522                                 i1 -= 4;
// 1523                                 break;
// 1524 
// 1525                             case -75: 
// 1526                                 k1 = j1 = abyte0[abyte0[i5++] + l1 & 0xff] & 0xff;
// 1527                                 i1 -= 4;
// 1528                                 break;
// 1529 
// 1530                             case -74: 
// 1531                                 k1 = l1 = abyte0[abyte0[i5++] + i2 & 0xff] & 0xff;
// 1532                                 i1 -= 4;
// 1533                                 break;
// 1534 
// 1535                             case -73: 
// 1536                                 flag64 = true;
// 1537                                 break;
// 1538 
// 1539                             case -72: 
// 1540                                 l3 = 0;
// 1541                                 i1 -= 2;
// 1542                                 break;
// 1543 
// 1544                             case -71: 
// 1545                                 nn=abyte0[i5++] & 0xff;
// 1546                                 k1 = j1 = aint1int((nn | (abyte0[i5++] & 0xff) << 8) + i2);
// 1547                                 i1 -= 4;
// 1548                                 break;
// 1549 
// 1550                             case -70: 
// 1551                                 k1 = l1 = j2;
// 1552                                 i1 -= 2;
// 1553                                 break;
// 1554 
// 1555                             case -69: 
// 1556                                 flag65 = true;
// 1557                                 break;
// 1558 
// 1559                             case -68: 
// 1560                               nn=abyte0[i5++] & 0xff;
// 1561                                 k1 = i2 = aint1int((nn | (abyte0[i5++] & 0xff) << 8) + l1);
// 1562                                 i1 -= 4;
// 1563                                 break;
// 1564 
// 1565                             case -67: 
// 1566                                 nn=abyte0[i5++] & 0xff;
// 1567                                 k1 = j1 = aint1int((nn | (abyte0[i5++] & 0xff) << 8) + l1);
// 1568                                 i1 -= 4;
// 1569                                 break;
// 1570 
// 1571                             case -66: 
// 1572                               nn=abyte0[i5++] & 0xff;
// 1573                                 k1 = l1 = aint1int((nn | (abyte0[i5++] & 0xff) << 8) + i2);
// 1574                                 i1 -= 4;
// 1575                                 break;
// 1576 
// 1577                             case -65: 
// 1578                                 flag66 = true;
// 1579                                 break;
// 1580 
// 1581                             case -64: 
// 1582                                 k26 = i2 - (abyte0[i5++] & 0xff);
// 1583                                 k2 = k26 < 0 ? 0 : 1;
// 1584                                 k1 = k26 & 0xff;
// 1585                                 i1 -= 2;
// 1586                                 break;
// 1587 
// 1588                             case -63: 
// 1589                                 l26 = abyte0[i5++] + l1 & 0xff;
// 1590                                 l26 = j1 - aint1int(abyte0[l26] & 0xff | (abyte0[l26 + 1] & 0xff) << 8);
// 1591                                 k2 = l26 < 0 ? 0 : 1;
// 1592                                 k1 = l26 & 0xff;
// 1593                                 i1 -= 6;
// 1594                                 break;
// 1595 
// 1596                             case -62: 
// 1597                                 i5++;
// 1598                                 i1 -= 2;
// 1599                                 break;
// 1600 
// 1601                             case -61: 
// 1602                                 flag67 = true;
// 1603                                 break;
// 1604 
// 1605                             case -60: 
// 1606                                 i27 = i2 - (abyte0[abyte0[i5++] & 0xff] & 0xff);
// 1607                                 k2 = i27 < 0 ? 0 : 1;
// 1608                                 k1 = i27 & 0xff;
// 1609                                 i1 -= 3;
// 1610                                 break;
// 1611 
// 1612                             case -59: 
// 1613                                 j27 = j1 - (abyte0[abyte0[i5++] & 0xff] & 0xff);
// 1614                                 k2 = j27 < 0 ? 0 : 1;
// 1615                                 k1 = j27 & 0xff;
// 1616                                 i1 -= 3;
// 1617                                 break;
// 1618 
// 1619                             case -58: 
// 1620                                 k27 = abyte0[i5++] & 0xff;
// 1621                                 k1 = --abyte0[k27] & 0xff;
// 1622                                 i1 -= 5;
// 1623                                 break;
// 1624 
// 1625                             case -57: 
// 1626                                 flag68 = true;
// 1627                                 break;
// 1628 
// 1629                             case -56: 
// 1630                                 k1 = i2 = i2 + 1 & 0xff;
// 1631                                 i1 -= 2;
// 1632                                 break;
// 1633 
// 1634                             case -55: 
// 1635                                 l27 = j1 - (abyte0[i5++] & 0xff);
// 1636                                 k2 = l27 < 0 ? 0 : 1;
// 1637                                 k1 = l27 & 0xff;
// 1638                                 i1 -= 2;
// 1639                                 break;
// 1640 
// 1641                             case -54: 
// 1642                                 k1 = l1 = l1 - 1 & 0xff;
// 1643                                 i1 -= 2;
// 1644                                 break;
// 1645 
// 1646                             case -53: 
// 1647                                 flag69 = true;
// 1648                                 break;
// 1649 
// 1650                             case -52: 
// 1651                                 nn=abyte0[i5++] & 0xff;
// 1652                                 i28 = i2 - aint1int(nn | (abyte0[i5++] & 0xff) << 8);
// 1653                                 k2 = i28 < 0 ? 0 : 1;
// 1654                                 k1 = i28 & 0xff;
// 1655                                 i1 -= 4;
// 1656                                 break;
// 1657 
// 1658                             case -51: 
// 1659                                nn=abyte0[i5++] & 0xff;
// 1660                                 j28 = j1 - aint1int(nn | (abyte0[i5++] & 0xff) << 8);
// 1661                                 k2 = j28 < 0 ? 0 : 1;
// 1662                                 k1 = j28 & 0xff;
// 1663                                 i1 -= 4;
// 1664                                 break;
// 1665 
// 1666                             case -50: 
// 1667                                nn=abyte0[i5++] & 0xff;
// 1668                                 k28 = nn | (abyte0[i5++] & 0xff) << 8;
// 1669                                 avoid2int(k28, k1 = aint1int(k28) - 1 & 0xff);
// 1670                                 i1 -= 6;
// 1671                                 break;
// 1672 
// 1673                             case -49: 
// 1674                                 flag70 = true;
// 1675                                 break;
// 1676 
// 1677                             case -48: 
// 1678                                 if(k1 != 0) {
// 1679                                     byte12 = abyte0[i5++];
// 1680                                     i5 += byte12;
// 1681                                     i1 -= 3;
// 1682                                     if(byte12 < 0 && byte12 >= -5) {
// 1683                                         i29 = abyte0[i5];
// 1684                                         if(byte12 == -2)
// 1685                                             i1 = 0;
// 1686                                         else
// 1687                                         if(byte12 == -4 && i29 == -91)
// 1688                                             i1 = 0;
// 1689                                         else
// 1690                                         if(byte12 == -5 && i29 == -83)
// 1691                                             i1 = 0;
// 1692                                         else
// 1693                                         if(byte12 == -3 && i29 == -54) {
// 1694                                             i29 = i1 / 5;
// 1695                                             if(l1 < i29)
// 1696                                                 i29 = l1;
// 1697                                             l1 -= i29;
// 1698                                             i1 -= i29 * 5;
// 1699                                             if(l1 == 0) {
// 1700                                                 k1 = l1;
// 1701                                                 i1++;
// 1702                                                 i5 -= byte12;
// 1703                                             }
// 1704                                         } else
// 1705                                         if(byte12 == -4 && i29 == -22 && abyte0[i5 + 1] == -54) {
// 1706                                             i29 = i1 / 7;
// 1707                                             if(l1 < i29)
// 1708                                                 i29 = l1;
// 1709                                             l1 -= i29;
// 1710                                             i1 -= i29 * 7;
// 1711                                             if(l1 == 0) {
// 1712                                                 k1 = l1;
// 1713                                                 i1++;
// 1714                                                 i5 -= byte12;
// 1715                                             }
// 1716                                         } else
// 1717                                         if(byte12 == -3 && i29 == -120) {
// 1718                                             j29 = i1 / 5;
// 1719                                             if(i2 < j29)
// 1720                                                 j29 = i2;
// 1721                                             i2 -= j29;
// 1722                                             i1 -= j29 * 5;
// 1723                                             if(i2 == 0) {
// 1724                                                 k1 = i2;
// 1725                                                 i1++;
// 1726                                                 i5 -= byte12;
// 1727                                             }
// 1728                                         }
// 1729                                     }
// 1730                                 } else {
// 1731                                     i5++;
// 1732                                     i1 -= 2;
// 1733                                 }
// 1734                                 break;
// 1735 
// 1736                             case -47: 
// 1737                                 l28 = abyte0[i5++] & 0xff;
// 1738                                 l28 = j1 - aint1int((abyte0[l28] & 0xff | (abyte0[l28 + 1] & 0xff) << 8) + i2);
// 1739                                 k2 = l28 < 0 ? 0 : 1;
// 1740                                 k1 = l28 & 0xff;
// 1741                                 i1 -= 5;
// 1742                                 break;
// 1743 
// 1744                             case -46: 
// 1745                                 flag71 = true;
// 1746                                 break;
// 1747 
// 1748                             case -45: 
// 1749                                 flag72 = true;
// 1750                                 break;
// 1751 
// 1752                             case -44: 
// 1753                                 i5++;
// 1754                                 i1 -= 4;
// 1755                                 break;
// 1756 
// 1757                             case -43: 
// 1758                                 k29 = j1 - (abyte0[abyte0[i5++] + l1 & 0xff] & 0xff);
// 1759                                 k2 = k29 < 0 ? 0 : 1;
// 1760                                 k1 = k29 & 0xff;
// 1761                                 i1 -= 4;
// 1762                                 break;
// 1763 
// 1764                             case -42: 
// 1765                                 l29 = abyte0[i5++] + l1 & 0xff;
// 1766                                 k1 = --abyte0[l29] & 0xff;
// 1767                                 i1 -= 6;
// 1768                                 break;
// 1769 
// 1770                             case -41: 
// 1771                                 flag73 = true;
// 1772                                 break;
// 1773 
// 1774                             case -40: 
// 1775                                 i3 = 0;
// 1776                                 i1 -= 2;
// 1777                                 break;
// 1778 
// 1779                             case -39: 
// 1780                                 nn=abyte0[i5++] & 0xff;
// 1781                                 i30 = j1 - aint1int((nn | (abyte0[i5++] & 0xff) << 8) + i2);
// 1782                                 k2 = i30 < 0 ? 0 : 1;
// 1783                                 k1 = i30 & 0xff;
// 1784                                 i1 -= 4;
// 1785                                 break;
// 1786 
// 1787                             case -38: 
// 1788                                 i1 -= 2;
// 1789                                 break;
// 1790 
// 1791                             case -37: 
// 1792                                 flag74 = true;
// 1793                                 break;
// 1794 
// 1795                             case -36: 
// 1796                                 i5 += 2;
// 1797                                 i1 -= 4;
// 1798                                 break;
// 1799 
// 1800                             case -35: 
// 1801                               nn=abyte0[i5++] & 0xff;
// 1802                                 j30 = j1 - aint1int((nn | (abyte0[i5++] & 0xff) << 8) + l1);
// 1803                                 k2 = j30 < 0 ? 0 : 1;
// 1804                                 k1 = j30 & 0xff;
// 1805                                 i1 -= 5;
// 1806                                 break;
// 1807 
// 1808                             case -34: 
// 1809                               nn=abyte0[i5++] & 0xff;
// 1810                                 k30 = (nn | (abyte0[i5++] & 0xff) << 8) + l1;
// 1811                                 avoid2int(k30, k1 = aint1int(k30) - 1 & 0xff);
// 1812                                 i1 -= 7;
// 1813                                 break;
// 1814 
// 1815                             case -33: 
// 1816                                 flag75 = true;
// 1817                                 break;
// 1818 
// 1819                             case -32: 
// 1820                                 l30 = l1 - (abyte0[i5++] & 0xff);
// 1821                                 k2 = l30 < 0 ? 0 : 1;
// 1822                                 k1 = l30 & 0xff;
// 1823                                 i1 -= 2;
// 1824                                 break;
// 1825 
// 1826                             case -31: 
// 1827                                 i31 = abyte0[i5++] + l1 & 0xff;
// 1828                                 j31 = aint1int(abyte0[i31] & 0xff | (abyte0[i31 + 1] & 0xff) << 8);
// 1829                                 k31 = j1 - j31 - (1 - k2);
// 1830                                 l3 = ((j1 ^ j31) & (j1 ^ k31)) >> 7;
// 1831                                 k2 = k31 < 0 ? 0 : 1;
// 1832                                 k1 = j1 = k31 & 0xff;
// 1833                                 i1 -= 6;
// 1834                                 break;
// 1835 
// 1836                             case -30: 
// 1837                                 i5++;
// 1838                                 i1 -= 2;
// 1839                                 break;
// 1840 
// 1841                             case -29: 
// 1842                                 flag76 = true;
// 1843                                 break;
// 1844 
// 1845                             case -28: 
// 1846                                 l31 = l1 - (abyte0[abyte0[i5++] & 0xff] & 0xff);
// 1847                                 k2 = l31 < 0 ? 0 : 1;
// 1848                                 k1 = l31 & 0xff;
// 1849                                 i1 -= 3;
// 1850                                 break;
// 1851 
// 1852                             case -27: 
// 1853                                 i32 = abyte0[abyte0[i5++] & 0xff] & 0xff;
// 1854                                 j32 = j1 - i32 - (1 - k2);
// 1855                                 l3 = ((j1 ^ i32) & (j1 ^ j32)) >> 7;
// 1856                                 k2 = j32 < 0 ? 0 : 1;
// 1857                                 k1 = j1 = j32 & 0xff;
// 1858                                 i1 -= 3;
// 1859                                 break;
// 1860 
// 1861                             case -26: 
// 1862                                 k32 = abyte0[i5++] & 0xff;
// 1863                                 k1 = ++abyte0[k32] & 0xff;
// 1864                                 i1 -= 5;
// 1865                                 break;
// 1866 
// 1867                             case -25: 
// 1868                                 flag77 = true;
// 1869                                 break;
// 1870 
// 1871                             case -24: 
// 1872                                 k1 = l1 = l1 + 1 & 0xff;
// 1873                                 i1 -= 2;
// 1874                                 break;
// 1875 
// 1876                             case -23: 
// 1877                                 l32 = abyte0[i5++] & 0xff;
// 1878                                 i33 = j1 - l32 - (1 - k2);
// 1879                                 l3 = ((j1 ^ l32) & (j1 ^ i33)) >> 7;
// 1880                                 k2 = i33 < 0 ? 0 : 1;
// 1881                                 k1 = j1 = i33 & 0xff;
// 1882                                 i1 -= 2;
// 1883                                 break;
// 1884 
// 1885                             case -22: 
// 1886                                 i1 -= 2;
// 1887                                 break;
// 1888 
// 1889                             case -21: 
// 1890                                 j33 = abyte0[i5++] & 0xff;
// 1891                                 k33 = j1 - j33 - (1 - k2);
// 1892                                 l3 = ((j1 ^ j33) & (j1 ^ k33)) >> 7;
// 1893                                 k2 = k33 < 0 ? 0 : 1;
// 1894                                 k1 = j1 = k33 & 0xff;
// 1895                                 i1 -= 2;
// 1896                                 break;
// 1897 
// 1898                             case -20: 
// 1899                               nn=abyte0[i5++] & 0xff;
// 1900                                 l33 = l1 - aint1int(nn | (abyte0[i5++] & 0xff) << 8);
// 1901                                 k2 = l33 < 0 ? 0 : 1;
// 1902                                 k1 = l33 & 0xff;
// 1903                                 i1 -= 4;
// 1904                                 break;
// 1905 
// 1906                             case -19: 
// 1907                               nn=abyte0[i5++] & 0xff;
// 1908                                 i34 = aint1int(nn | (abyte0[i5++] & 0xff) << 8);
// 1909                                 j34 = j1 - i34 - (1 - k2);
// 1910                                 l3 = ((j1 ^ i34) & (j1 ^ j34)) >> 7;
// 1911                                 k2 = j34 < 0 ? 0 : 1;
// 1912                                 k1 = j1 = j34 & 0xff;
// 1913                                 i1 -= 4;
// 1914                                 break;
// 1915 
// 1916                             case -18: 
// 1917                               nn=abyte0[i5++] & 0xff;
// 1918                                 k34 = nn | (abyte0[i5++] & 0xff) << 8;
// 1919                                 avoid2int(k34, k1 = aint1int(k34) + 1 & 0xff);
// 1920                                 i1 -= 6;
// 1921                                 break;
// 1922 
// 1923                             case -17: 
// 1924                                 flag78 = true;
// 1925                                 break;
// 1926 
// 1927                             case -16: 
// 1928                                 if(k1 == 0) {
// 1929                                     byte13 = abyte0[i5++];
// 1930                                     i5 += byte13;
// 1931                                     i1 -= 3;
// 1932                                     if(byte13 < 0 && byte13 >= -5) {
// 1933                                         byte14 = abyte0[i5];
// 1934                                         if(byte13 == -4 && (byte14 == -59 || byte14 == -91))
// 1935                                             i1 = 0;
// 1936                                     }
// 1937                                 } else {
// 1938                                     i5++;
// 1939                                     i1 -= 2;
// 1940                                 }
// 1941                                 break;
// 1942 
// 1943                             case -15: 
// 1944                                 l34 = abyte0[i5++] & 0xff;
// 1945                                 i35 = aint1int((abyte0[l34] & 0xff | (abyte0[l34 + 1] & 0xff) << 8) + i2);
// 1946                                 j35 = j1 - i35 - (1 - k2);
// 1947                                 l3 = ((j1 ^ i35) & (j1 ^ j35)) >> 7;
// 1948                                 k2 = j35 < 0 ? 0 : 1;
// 1949                                 k1 = j1 = j35 & 0xff;
// 1950                                 i1 -= 5;
// 1951                                 break;
// 1952 
// 1953                             case -14: 
// 1954                                 flag6 = true;
// 1955                                 break;
// 1956 
// 1957                             case -13: 
// 1958                                 flag6 = true;
// 1959                                 break;
// 1960 
// 1961                             case -12: 
// 1962                                 i5++;
// 1963                                 i1 -= 4;
// 1964                                 break;
// 1965 
// 1966                             case -11: 
// 1967                                 k35 = abyte0[abyte0[i5++] + l1 & 0xff] & 0xff;
// 1968                                 l35 = j1 - k35 - (1 - k2);
// 1969                                 l3 = ((j1 ^ k35) & (j1 ^ l35)) >> 7;
// 1970                                 k2 = l35 < 0 ? 0 : 1;
// 1971                                 k1 = j1 = l35 & 0xff;
// 1972                                 i1 -= 4;
// 1973                                 break;
// 1974 
// 1975                             case -10: 
// 1976                                 i36 = abyte0[i5++] + l1 & 0xff;
// 1977                                 k1 = ++abyte0[i36] & 0xff;
// 1978                                 i1 -= 6;
// 1979                                 break;
// 1980 
// 1981                             case -9: 
// 1982                                 flag6 = true;
// 1983                                 break;
// 1984 
// 1985                             case -8: 
// 1986                                 i3 = 1;
// 1987                                 i1 -= 2;
// 1988                                 break;
// 1989 
// 1990                             case -7: 
// 1991                               nn=abyte0[i5++] & 0xff;
// 1992                                 j36 = aint1int((nn | (abyte0[i5++] & 0xff) << 8) + i2);
// 1993                                 k36 = j1 - j36 - (1 - k2);
// 1994                                 l3 = ((j1 ^ j36) & (j1 ^ k36)) >> 7;
// 1995                                 k2 = k36 < 0 ? 0 : 1;
// 1996                                 k1 = j1 = k36 & 0xff;
// 1997                                 i1 -= 4;
// 1998                                 break;
// 1999 
// 2000                             case -6: 
// 2001                                 i1 -= 2;
// 2002                                 break;
// 2003 
// 2004                             case -5: 
// 2005                                 flag6 = true;
// 2006                                 break;
// 2007 
// 2008                             case -4: 
// 2009                                 i5 += 2;
// 2010                                 i1 -= 4;
// 2011                                 break;
// 2012 
// 2013                             case -3: 
// 2014                               nn=abyte0[i5++] & 0xff;
// 2015                                 l36 = aint1int((nn | (abyte0[i5++] & 0xff) << 8) + l1);
// 2016                                 i37 = j1 - l36 - (1 - k2);
// 2017                                 l3 = ((j1 ^ l36) & (j1 ^ i37)) >> 7;
// 2018                                 k2 = i37 < 0 ? 0 : 1;
// 2019                                 k1 = j1 = i37 & 0xff;
// 2020                                 i1 -= 5;
// 2021                                 break;
// 2022 
// 2023                             case -2: 
// 2024                               nn=abyte0[i5++] & 0xff;
// 2025                                 j37 = (nn | (abyte0[i5++] & 0xff) << 8) + l1;
// 2026                                 avoid2int(j37, k1 = aint1int(j37) + 1 & 0xff);
// 2027                                 i1 -= 7;
// 2028                                 break;
// 2029 
// 2030                             case -1: 
// 2031                                 flag6 = true;
// 2032                                 break;
// 2033                             }
// 2034                         }             
// 2035                         
// 2036                         
// 2037                         while(true);
// 2038                     }
// 2039                     if(flag2 && bint1int(k6) != 0 && l2 == 0) {
// 2040                         k4 = i5 - l4;
// 2041                         abyte0[j2-- + 256] = (byte)(k4 >> 8);
// 2042                         abyte0[j2-- + 256] = (byte)k4;
// 2043                         abyte0[j2-- + 256] = (byte)(k2 | (k1 == 0 ? 2 : 0) | (k1 >> 7) << 7 | l3 << 6 | l2 << 2);
// 2044                         k4 = abyte0[ai2[7] + 65534] & 0xff | (abyte0[ai2[7] + 65535] & 0xff) << 8;
// 2045                         i5 = k4 + (l4 = ai2[k4 >> 13]);
// 2046                         l2 = 1;
// 2047                         i1 += 7;
// 2048                     }
// 2049                     
// 2050                     /* timing */
// 2051                       if(/*flag5 &&*/ t_boolean_static_fld && k6 == 240 && (R & 0x18) != 0) {
// 2052                         long l8 = SystemcurrentTimeMillis();
// 2053                         c_long_static_fld += l8 - l6;
// 2054                         //c c1 = main;
// 2055                         a_long_static_fld = k5;//c.??
// 2056                    //     try {
// 2057                         
// 2058                         //(*(long*)0xA8100000)=LastTmrVal;
// 2059                            while(SysTimer()<LastTmrVal)c0();                        
// 2060                                                                  // LastTmrVal=LastTmrVal+40-A*10;  
// 2061                          
// 2062                             
// 2063                             LastTmrVal=LastTmrVal+A*10;                    
// 2064                    //     }
// 2065                    //     catch(Exception exception2) { }
// 2066                         l6 = SystemcurrentTimeMillis();
// 2067                         b_long_static_fld += l6 - l8;
// 2068                     }
// 2069                     //////////////////////////////////
// 2070                     if(t_boolean_static_fld || k6 >= 240 || (R & 0x18) == 0)
// 2071                         continue;
// 2072                     
// 2073                     if(flag5) {
// 2074                         D &= 0xfbe0;
// 2075                         D |= y & 0x41f;
// 2076                         long l9 = SystemcurrentTimeMillis();
// 2077                         c_long_static_fld += l9 - l6;
// 2078                         //c c2 = main;
// 2079                         a_long_static_fld = k5;//c.??
// 2080                         if(b_boolean_array1d_static_fld[k6])
// 2081                             xd(k6);
// 2082                         else
// 2083                            // try {
// 2084                                 avoid1int(k6);
// 2085                            // }
// 2086                            // catch(Exception exception3) { }
// 2087                         if(k6 == 239) {//==
// 2088                           while(SysTimer()<LastTmrVal){}; 
// 2089                             LastTmrVal=LastTmrVal+A*10;
// 2090                             repaint();
// 2091                             
// 2092                             //serviceRepaints();
// 2093                         }
// 2094                         l6 = SystemcurrentTimeMillis();
// 2095                         b_long_static_fld += l6 - l9;
// 2096                         if((D & 0x7000) == 28672) {
// 2097                             D &= 0x8fff;
// 2098                             if((D & 0x3e0) == 928) {
// 2099                                 D ^= 0x800;
// 2100                                 D &= 0xfc1f;
// 2101                                 continue;
// 2102                             }
// 2103                             if((D & 0x3e0) == 992)
// 2104                                 D &= 0xfc1f;
// 2105                             else
// 2106                                 D += 32;
// 2107                         } else {
// 2108                             D += 4096;
// 2109                         }
// 2110                     } else {
// 2111                         xd(k6);
// 2112                     }
// 2113                 }
// 2114                   
// 2115                     /*
// 2116                      if((SysTimer()-LastTmrVal)>100)
// 2117                             {
// 2118                             A++;
// 2119                             if(A>9)A=9;
// 2120                             }
// 2121                             else
// 2122                             {
// 2123                              A--;
// 2124                             if(A<1)A=1; 
// 2125                             }
// 2126                      */
// 2127                            
// 2128                      
// 2129                 k5++;
// 2130                 if(l_boolean_static_fld)
// 2131                     k_int_static_fld = k_int_static_fld & 0xfe | k5 & 1;
// 2132                 if(j_boolean_static_fld)
// 2133                     k_int_static_fld = k_int_static_fld & 0xfd | (k5 & 1) << 1;
// 2134                 if(flag && k5 == 0) {
// 2135                     i7 = 0;
// 2136                     flag = false;
// 2137                     for(j7 = 1; j7 < 100; j7++)
// 2138                         if(ai1[j7] > ai1[i7])
// 2139                             i7 = j7;
// 2140 
// 2141                     if(ai1[i7] < 8000)
// 2142                         j4 = 0x7fffffff;
// 2143                     else
// 2144                         j4 = ai[i7];
// 2145                     c_long_static_fld = b_long_static_fld = 0L;
// 2146                     l6 = SystemcurrentTimeMillis();
// 2147                 }
// 2148                 if(p_boolean_static_fld) {
// 2149                     long l7 = SystemcurrentTimeMillis();
// 2150                     c_long_static_fld += l7 - l6;
// 2151             //        while(p_boolean_static_fld) 
// 2152             //            try {
// 2153             //                Thread.sleep(100L);
// 2154             //            }
// 2155             //            catch(InterruptedException interruptedexception) { }
// 2156                     l6 = SystemcurrentTimeMillis();
// 2157                 }
// 2158             } while(!v_boolean_static_fld);          
// 2159              
// 2160                     
// 2161             v_boolean_static_fld = false;
// 2162             if(n_boolean_static_fld)
// 2163                 break;
// 2164             if(d_boolean_static_fld) {
// 2165                 d_boolean_static_fld = false;
// 2166                 
// 2167                 if(openstream(1)!=-1) {
// 2168 //                    ByteArrayOutputStream bytearrayoutputstream = new ByteArrayOutputStream();
// 2169                     bytearrayoutputstreamwrite(j1 & 0xff);
// 2170                     bytearrayoutputstreamwrite(l1 & 0xff);
// 2171                     bytearrayoutputstreamwrite(i2 & 0xff);
// 2172                     bytearrayoutputstreamwrite(k2 & 0xff);
// 2173                     bytearrayoutputstreamwrite(k1 & 0xff);
// 2174                     bytearrayoutputstreamwrite(l2 & 0xff);
// 2175                     bytearrayoutputstreamwrite(i3 & 0xff);
// 2176                     bytearrayoutputstreamwrite(j3 & 0xff);
// 2177                     bytearrayoutputstreamwrite(k3 & 0xff);
// 2178                     bytearrayoutputstreamwrite(l3 & 0xff);
// 2179                     bytearrayoutputstreamwrite(i4 & 0xff);
// 2180                     bytearrayoutputstreamwrite(j2 & 0xff);
// 2181                     bytearrayoutputstreamwrite(k4 >> 0 & 0xff);
// 2182                     bytearrayoutputstreamwrite(k4 >> 8 & 0xff);
// 2183                     bytearrayoutputstreamwrite(i5 >> 0 & 0xff);
// 2184                     bytearrayoutputstreamwrite(i5 >> 8 & 0xff);
// 2185                     bytearrayoutputstreamwrite(i5 >> 16 & 0xff);
// 2186                     bytearrayoutputstreamwrite(i5 >> 24 & 0xff);
// 2187                     bytearrayoutputstreamwrite(l4 >> 0 & 0xff);
// 2188                     bytearrayoutputstreamwrite(l4 >> 8 & 0xff);
// 2189                     bytearrayoutputstreamwrite(l4 >> 16 & 0xff);
// 2190                     bytearrayoutputstreamwrite(l4 >> 24 & 0xff);
// 2191                     bytearrayoutputstreamwrite(j4 >> 0 & 0xff);
// 2192                     bytearrayoutputstreamwrite(j4 >> 8 & 0xff);
// 2193                     bytearrayoutputstreamwrite(j4 >> 16 & 0xff);
// 2194                     bytearrayoutputstreamwrite(j4 >> 24 & 0xff);
// 2195                     bytearrayoutputstreamwrite(i1 & 0xff);
// 2196                     bytearrayoutputstreamwrite(p_boolean_static_fld ? 255 : 0);
// 2197                     c_out();//bytearrayoutputstream);
// 2198                     b_out();//bytearrayoutputstream);
// 2199                     closestream();
// 2200 //                    bytearrayoutputstream.close();
// 2201 //                    avoid1String1bytes(b_java_lang_String_static_fld + "save" + z + ".dat", bytearrayoutputstream.toByteArray());
// 2202                 }
// 2203 //                catch(Exception exception) { }
// 2204             }
// 2205             if(o_boolean_static_fld) {
// 2206                 o_boolean_static_fld = false;
// 2207                 
// 2208               if(openstream(0)!=-1){
// 2209   //                  byte abyte1[] = bbytes1String(b_java_lang_String_static_fld + "save" + z + ".dat");
// 2210 //                    ByteArrayInputStream bytearrayinputstream = null;
// 2211 //                    if(abyte1 != null)
// 2212 //                        bytearrayinputstream = new ByteArrayInputStream(abyte1);
// 2213                     j1 = bytearrayinputstreamread() & 0xff;
// 2214                     l1 = bytearrayinputstreamread() & 0xff;
// 2215                     i2 = bytearrayinputstreamread() & 0xff;
// 2216                     k2 = bytearrayinputstreamread() & 0xff;
// 2217                     k1 = bytearrayinputstreamread() & 0xff;
// 2218                     l2 = bytearrayinputstreamread() & 0xff;
// 2219                     i3 = bytearrayinputstreamread() & 0xff;
// 2220                     j3 = bytearrayinputstreamread() & 0xff;
// 2221                     k3 = bytearrayinputstreamread() & 0xff;
// 2222                     l3 = bytearrayinputstreamread() & 0xff;
// 2223                     i4 = bytearrayinputstreamread() & 0xff;
// 2224                     j2 = bytearrayinputstreamread() & 0xff;
// 2225                     k4 = bytearrayinputstreamread() & 0xff;
// 2226                     k4 |= (bytearrayinputstreamread() & 0xff) << 8;
// 2227                     i5 = bytearrayinputstreamread() & 0xff;
// 2228                     i5 |= (bytearrayinputstreamread() & 0xff) << 8;
// 2229                     i5 |= (bytearrayinputstreamread() & 0xff) << 16;
// 2230                     i5 |= (bytearrayinputstreamread() & 0xff) << 24;
// 2231                     l4 = bytearrayinputstreamread() & 0xff;
// 2232                     l4 |= (bytearrayinputstreamread() & 0xff) << 8;
// 2233                     l4 |= (bytearrayinputstreamread() & 0xff) << 16;
// 2234                     l4 |= (bytearrayinputstreamread() & 0xff) << 24;
// 2235                     j4 = bytearrayinputstreamread() & 0xff;
// 2236                     j4 |= (bytearrayinputstreamread() & 0xff) << 8;
// 2237                     j4 |= (bytearrayinputstreamread() & 0xff) << 16;
// 2238                     j4 |= (bytearrayinputstreamread() & 0xff) << 24;
// 2239                     i1 = (byte)bytearrayinputstreamread();
// 2240                     p_boolean_static_fld = bytearrayinputstreamread() == 255;
??run_4:
        LDR      R1,??run_1+0x8   ;; j_int_array1d_static_fld + 3205
        STRB     R0,[R1, #+0]
// 2241                     b_in();//(bytearrayinputstream);
        BL       b_in
// 2242                     c_in();//(bytearrayinputstream);
        BL       c_in
// 2243                     closestream();
        BL       closestream
// 2244 //                    bytearrayinputstream.close();
// 2245                 }
// 2246 //                catch(Exception exception1) { }
// 2247                 
// 2248             }
// 2249             if(h_boolean_static_fld) {
??run_5:
        LDR      R0,??run_1+0xC   ;; j_int_array1d_static_fld + 3208
        LDRB     R0,[R0, #+0]
        CMP      R0,#+0
        BEQ      ??run_6
// 2250                 h_boolean_static_fld = false;
        LDR      R0,??run_1+0xC   ;; j_int_array1d_static_fld + 3208
        MOV      R1,#+0
        STRB     R1,[R0, #+0]
// 2251                 g();
        BL       g
// 2252                 for(i6 = 0; i6 < 10240; i6++)
        MOV      R0,#+0
// 2253                     abyte0[i6] = 0;
??run_7:
        MOV      R1,#+0
        STRB     R1,[R0, +R5]
        ADD      R0,R0,#+1
        CMP      R0,#+10240
        BLT      ??run_7
// 2254 
// 2255                 if(b_byte_array1d_static_fld != null) {
        LDR      R0,??run_1+0x10  ;; j_int_array1d_static_fld + 3160
        LDR      R0,[R0, #+0]
        CMP      R0,#+0
        BEQ      ??run_8
// 2256                     for(j6 = 0; j6 < 512; j6++)
        MOV      R0,#+0
// 2257                         abyte0[6144 + j6] = b_byte_array1d_static_fld[j6];
??run_9:
        LDR      R2,??run_1+0x10  ;; j_int_array1d_static_fld + 3160
        ADD      R1,R0,R5
        LDR      R2,[R2, #+0]
        ADD      R1,R1,#+6144
        LDRSB    R2,[R0, +R2]
        ADD      R0,R0,#+1
        CMP      R0,#+512
        STRB     R2,[R1, #+0]
        BLT      ??run_9
// 2258 
// 2259                 }
// 2260                 avoid();
??run_8:
        LDR      R0,[R11, #+2880]
// 2261                 j1 = 0;
// 2262                 l1 = 0;
        MOV      R9,#+0
        ASR      R0,R0,#+13
        STR      R0,[R11, #+2556]
        LDR      R0,[R11, #+2868]
// 2263                 i2 = 0;
// 2264                 byte byte1 = 4;
// 2265                 j2 = 255;
// 2266                 k2 = 0;
        MOV      R7,R9
        ASR      R0,R0,#+10
        STR      R0,[R11, #+2552]
        BL       `b`
        MOV      R1,R9
        STR      R1,[SP, #+0]
        MOV      R1,#+255
        STR      R1,[SP, #+4]
// 2267                 k1 = 0;
        MOV      R4,R7
// 2268                 l2 = 1;
        MOV      R1,#+1
        STR      R1,[SP, #+24]
// 2269                 i3 = 0;
        MOV      R1,R4
        STR      R1,[SP, #+44]
// 2270                 j3 = 0;
        STR      R1,[SP, #+48]
// 2271                 k3 = 0;
        STR      R1,[SP, #+52]
// 2272                 l3 = 0;
        STR      R1,[SP, #+12]
// 2273                 i4 = 0;
        STR      R1,[SP, #+56]
// 2274                 k4 = abyte0[ai2[7] + 65532] & 0xff | (abyte0[ai2[7] + 65533] & 0xff) << 8;
        MOV      R2,#+164
        ORR      R2,R2,#0x900
        LDR      R1,[R2, +R11]
        MOV      R0,#+252
        ORR      R0,R0,#0xFF00
        ADD      R1,R1,R5
        ADD      R0,R0,R1
        LDRSB    R2,[R0, #+0]
        LDRSB    R0,[R0, #+1]
        AND      R2,R2,#0xFF
        AND      R0,R0,#0xFF
        ORR      R0,R2,R0, LSL #+8
        STR      R0,[SP, #+8]
// 2275                 i5 = k4 + (l4 = ai2[k4 >> 13]);
        MOV      R1,R0
        ASR      R1,R1,#+13
        ADD      R1,R11,R1, LSL #+2
        LDR      R1,[R1, #+2440]
        MOV      R10,#+0
        STR      R1,[SP, #+16]
        ADD      R8,R1,R0
// 2276                 m();
??run_3:
        LDR      R0,[R11, #+2520]
        MOV      R1,#+0
        LSL      R2,R0,#+1
        LDR      R0,[R11, #+3164]
        SWI      +187
        MOV      R0,R4
        STR      R0,[R11, #+2628]
// 2277                 k_int_static_fld = 0;
// 2278                 l_boolean_static_fld = j_boolean_static_fld = false;
        STRB     R0,[R11, #+3213]
        STRB     R0,[R11, #+3212]
// 2279             }
??run_6:
        LDR      R0,[SP, #+32]
        LDR      R1,??run_1+0x14  ;; j_int_array1d_static_fld + 2884
        LDR      R1,[R1, #+0]
        _BLF     ??div32_a,??rA??div32_a
        CMP      R0,#+0
        LDR      R0,??run_1+0x18  ;; j_int_array1d_static_fld + 3204
        MOVEQ    R1,#+1
        MOVNE    R1,#+0
        STRB     R1,[SP, #+64]
        LDRB     R0,[R0, #+0]
        CMP      R0,#+0
        BEQ      ??run_10
        LDR      R1,??run_1+0x1C  ;; j_int_array1d_static_fld + 2892
        LDR      R1,[R1, #+0]
        ADD      R1,R1,#+1
        STR      R1,[SP, #+36]
        CMP      R1,#+240
        BLT      ??run_11
        MVN      R1,#+0
        STR      R1,[SP, #+36]
        B        ??run_11
??run_10:
        LDR      R0,??run_1+0x20  ;; j_int_array1d_static_fld + 2568
        LDR      R0,[R0, #+0]
        TST      R0,#0x18
        LDRNE    R0,[R11, #+2640]
        STRNE    R0,[R11, #+2644]
??run_11:
        MOV      R1,#+0
        STR      R1,[SP, #+20]
??run_12:
        LDR      R0,??run_1+0x18  ;; j_int_array1d_static_fld + 3204
        LDRB     R0,[R0, #+0]
        CMP      R0,#+0
        BEQ      ??run_13
        LDR      R0,[SP, #+20]
        LDR      R1,[SP, #+36]
        ADD      R1,R1,#+1
        CMP      R0,R1
        BNE      ??run_13
        LDR      R0,??run_1+0x20  ;; j_int_array1d_static_fld + 2568
        LDR      R0,[R0, #+0]
        TST      R0,#0x18
        BEQ      ??run_13
        LDR      R0,[R11, #+2572]
        ORR      R0,R0,#0x40
        B        ??run_14
??run_15:
        SUB      R1,R1,#+1
        CMP      R0,R1
        BEQ      ??run_16
        CMP      R0,#+241
        LDREQ    R0,[R11, #+2572]
        ORREQ    R0,R0,#0x80
        BEQ      ??run_14
        CMP      R0,#+242
        BNE      ??run_12
        LDR      R0,??run_1+0x24  ;; j_int_array1d_static_fld + 2564
        LDR      R0,[R0, #+0]
        TST      R0,#0x80
        BEQ      ??run_13
        LDR      R0,[SP, #+16]
        LDR      R2,[SP, #+4]
        SUB      R1,R8,R0
        MOV      R0,#+256
        ADD      R2,R2,R5
        ASR      R3,R1,#+8
        STRB     R3,[R0, +R2]
        LDR      R2,[SP, #+4]
        CMP      R4,#+0
        SUB      R2,R2,#+1
        ADD      R3,R2,R5
        STRB     R1,[R0, +R3]
        SUB      R0,R2,#+1
        SUB      R2,R0,#+1
        STR      R2,[SP, #+4]
        MOVEQ    R1,#+2
        MOVNE    R1,#+0
        ORR      R1,R1,R7
        ASR      R2,R4,#+7
        ORR      R1,R1,R2, LSL #+7
        LDR      R2,[SP, #+12]
        ADD      R0,R0,R5
        ORR      R1,R1,R2, LSL #+6
        LDR      R2,[SP, #+24]
        ADD      R6,R6,#+7
        ORR      R1,R1,R2, LSL #+2
        STRB     R1,[R0, #+256]
        MOV      R2,#+164
        ORR      R2,R2,#0x900
        LDR      R1,[R2, +R11]
        MOV      R0,#+250
        ORR      R0,R0,#0xFF00
        ADD      R1,R1,R5
        ADD      R0,R0,R1
        LDRSB    R2,[R0, #+0]
        LDRSB    R0,[R0, #+1]
        AND      R2,R2,#0xFF
        AND      R0,R0,#0xFF
        ORR      R0,R2,R0, LSL #+8
        STR      R0,[SP, #+8]
        MOV      R1,R0
        ASR      R1,R1,#+13
        ADD      R1,R11,R1, LSL #+2
        LDR      R1,[R1, #+2440]
        STR      R1,[SP, #+16]
        ADD      R8,R1,R0
        B        ??run_13
??run_16:
        LDR      R0,[R11, #+2572]
        AND      R0,R0,#0x3F
??run_14:
        STR      R0,[R11, #+2572]
??run_13:
        LDR      R0,[SP, #+8]
        LDR      R1,[SP, #+28]
        CMP      R0,R1
        BEQ      ??run_17
        LDR      R0,??run_1+0x18  ;; j_int_array1d_static_fld + 3204
        LDRB     R0,[R0, #+0]
        CMP      R0,#+0
        BEQ      ??run_18
        LDR      R0,[SP, #+20]
        CMP      R0,#+240
        BGE      ??run_19
        LDR      R0,[SP, #+36]
        LDR      R1,[SP, #+20]
        CMP      R0,R1
        MOV      R0,R1
        BGE      ??run_20
        RSB      R0,R0,#+240
        MOV      R1,#+116
        MLA      R6,R1,R0,R6
        MOV      R1,#+240
        B        ??run_21
??run_20:
        LDR      R1,[SP, #+36]
        CMP      R0,R1
        BGE      ??run_18
        MOV      R0,R1
        LDR      R1,[SP, #+20]
        SUB      R0,R0,R1
        MOV      R1,#+116
        MLA      R6,R1,R0,R6
        LDR      R1,[SP, #+36]
        B        ??run_21
??run_19:
        CMP      R0,#+242
        BLT      ??run_18
        CMP      R0,#+260
        BGE      ??run_18
        RSB      R0,R0,#+260
        MOV      R1,#+116
        MLA      R6,R1,R0,R6
        MOV      R1,#+260
??run_21:
        STR      R1,[SP, #+20]
??run_18:
        ADD      R6,R6,#+116
        B        ??run_22
??run_23:
        ADD      R0,R0,#+1
        CMP      R0,#+100
        BGE      ??run_22
??run_24:
        ADD      R1,SP,#+472
        LDR      R1,[R1, +R0, LSL #+2]
        CMP      R1,#+0
        BNE      ??run_23
        ADD      R1,SP,#+472
        MOV      R2,#+1
        STR      R2,[R1, +R0, LSL #+2]
        ADD      R1,SP,#+72
        STR      R8,[R1, +R0, LSL #+2]
??run_22:
        LDR      R0,??run_1       ;; running
        LDR      R0,[R0, #+0]
        CMP      R0,#+0
        BNE      ??run_25
        ADD      SP,SP,#+872      ;; stack cleaning
        CFI CFA R13+36
        POP      {R4-R11,PC}      ;; return
        CFI CFA R13+908
??run_26:
        ORR      R1,R1,R7
        LDR      R11,??run_1+0x4  ;; j_int_array1d_static_fld
        ASR      R2,R4,#+7
        ORR      R1,R1,R2, LSL #+7
        LDR      R2,[SP, #+12]
        ADD      R0,R0,R5
        ORR      R1,R1,R2, LSL #+6
        LDR      R2,[SP, #+24]
        ORR      R1,R1,R2, LSL #+2
        STRB     R1,[R0, #+256]
        MOV      R2,#+164
        ORR      R2,R2,#0x900
        LDR      R1,[R2, +R11]
        MOV      R0,#+254
        ORR      R0,R0,#0xFF00
        ADD      R1,R1,R5
        ADD      R0,R0,R1
        LDRSB    R2,[R0, #+0]
        LDRSB    R0,[R0, #+1]
        AND      R2,R2,#0xFF
        AND      R0,R0,#0xFF
        ORR      R0,R2,R0, LSL #+8
        STR      R0,[SP, #+8]
        MOV      R1,R0
        ASR      R1,R1,#+13
        ADD      R1,R11,R1, LSL #+2
        LDR      R1,[R1, #+2440]
        STR      R1,[SP, #+16]
        ADD      R8,R1,R0
        MOV      R1,#+1
        STR      R1,[SP, #+48]
        STR      R1,[SP, #+24]
??run_27:
        SUB      R6,R6,#+7
??run_25:
        CMP      R6,#+1
        BLT      ??run_17
        MOV      R0,R8
        ADD      R8,R0,#+1
        LDRSB    R0,[R0, +R5]
        ADD      R0,R0,#+128
        CMP      R0,#+254
        BHI      ??run_25
        ADR      R1,??run_0
        MOV      R0,R0, LSL #+1
        LDRSH    R1,[R1, R0]
        ADD      PC,PC,R1, LSL #+2
        DATA
??run_0:
        DC16     +294,+1153,+294,+65523
        DC16     +1165,+1171,+1176,+65523
        DC16     +1181,+294,+1187,+65523
        DC16     +1189,+1201,+1213,+65523
        DC16     +1221,+1224,+65523,+65523
        DC16     +1238,+1245,+1251,+65523
        DC16     +1258,+1260,+1274,+65523
        DC16     +65523,+1276,+65523,+65523
        DC16     +1288,+1293,+1307,+65523
        DC16     +1313,+1320,+1327,+65523
        DC16     +1334,+1336,+1341,+65523
        DC16     +1344,+1357,+1370,+65523
        DC16     +1382,+1388,+65523,+65523
        DC16     +1403,+1411,+1419,+65523
        DC16     +1428,+1431,+1445,+65523
        DC16     +1447,+1462,+1476,+65523
        DC16     +1490,+1500,+294,+65523
        DC16     +1516,+1528,+1539,+65523
        DC16     +1548,+1554,+1563,+65523
        DC16     +1566,+1582,+1597,+65523
        DC16     +1614,+1694,+65523,+65523
        DC16     +311,+1710,+1719,+65523
        DC16     +1728,+1731,+204,+65523
        DC16     +210,+1743,+1759,+65523
        DC16     +1774,+1779,+294,+65523
        DC16     +1803,+1810,+1828,+65523
        DC16     +1836,+1839,+204,+1855
        DC16     +1871,+1886,+1909,+65523
        DC16     +1925,+1942,+65523,+65523
        DC16     +311,+1967,+1986,+65523
        DC16     +1995,+1997,+204,+65523
        DC16     +210,+2022,+2046,+65523
        DC16     +127,+146,+65523,+65523
        DC16     +161,+164,+172,+65523
        DC16     +183,+199,+206,+65523
        DC16     +210,+213,+226,+65523
        DC16     +244,+296,+65523,+65523
        DC16     +311,+313,+322,+65523
        DC16     +333,+335,+204,+65523
        DC16     +210,+347,+358,+65523
        DC16     +377,+406,+65523,+65523
        DC16     +420,+434,+442,+65523
        DC16     +451,+471,+476,+65523
        DC16     +481,+500,+512,+65523
        DC16     +527,+534,+65523,+65523
        DC16     +311,+548,+556,+65523
        DC16     +566,+568,+204,+65523
        DC16     +210,+584,+598,+65523
        DC16     +628,+666,+65523,+65523
        DC16     +161,+679,+686,+65523
        DC16     +694,+701,+706,+65523
        DC16     +709,+748,+761,+65523
        DC16     +775,+789,+65523,+65523
        DC16     +311,+803,+811,+65523
        DC16     +820,+823,+204,+65523
        DC16     +210,+837,+850,+65523
        DC16     +868,+892,+65523,+65523
        DC16     +161,+914,+930,+65523
        DC16     +939,+947,+961,+65523
        DC16     +966,+996,+1017,+65523
        DC16     +1032,+1040,+65523,+65523
        DC16     +311,+1063,+1080,+65523
        DC16     +1090,+1092,+204,+65523
        DC16     +210,+1115,+1137,+0
        ARM
??run_28:
        LDR      R0,[SP, #+16]
        LDR      R2,[SP, #+4]
        SUB      R0,R8,R0
        ADD      R1,R0,#+1
        MOV      R0,#+256
        ADD      R2,R2,R5
        ASR      R3,R1,#+8
        STRB     R3,[R0, +R2]
        LDR      R2,[SP, #+4]
        CMP      R4,#+0
        SUB      R2,R2,#+1
        ADD      R3,R2,R5
        STRB     R1,[R0, +R3]
        SUB      R0,R2,#+1
        SUB      R2,R0,#+1
        STR      R2,[SP, #+4]
        MOVNE    R1,#+0
        MOVEQ    R1,#+2
        B        ??run_26
??run_29:
        LDRSB    R0,[R8, +R5]
        ADD      R8,R8,#+1
        ADD      R0,R9,R0
        AND      R0,R0,#0xFF
        LDRSB    R1,[R0, +R5]
        ADD      R0,R0,R5
        LDRSB    R0,[R0, #+1]
        AND      R1,R1,#0xFF
        AND      R0,R0,#0xFF
        ORR      R0,R1,R0, LSL #+8
        BL       aint1int
        ORR      R10,R0,R10
??run_30:
        MOV      R4,R10
??run_31:
        SUB      R6,R6,#+6
        B        ??run_25
??run_32:
        ADD      R8,R8,#+1
??run_33:
        SUB      R6,R6,#+3
        B        ??run_25
??run_34:
        LDRSB    R0,[R8, +R5]
        ADD      R8,R8,#+1
        AND      R0,R0,#0xFF
        LDRSB    R0,[R0, +R5]
        AND      R0,R0,#0xFF
        ORR      R10,R0,R10
??run_35:
        MOV      R4,R10
        B        ??run_33
??run_36:
        LDRSB    R0,[R8, +R5]
        ADD      R8,R8,#+1
        MOV      R2,#+255
        AND      R0,R0,#0xFF
        LDRSB    R1,[R0, +R5]
        AND      R1,R1,#0xFF
        ASR      R7,R1,#+7
        AND      R4,R2,R1, LSL #+1
??run_37:
        STRB     R4,[R0, +R5]
??run_38:
        SUB      R6,R6,#+5
        B        ??run_25
??run_39:
        LDR      R0,[SP, #+4]
        CMP      R4,#+0
        SUB      R2,R0,#+1
        STR      R2,[SP, #+4]
        MOVEQ    R1,#+2
        MOVNE    R1,#+0
        ORR      R1,R1,R7
        ASR      R2,R4,#+7
        ORR      R1,R1,R2, LSL #+7
        LDR      R2,[SP, #+12]
        ADD      R0,R0,R5
        ORR      R1,R1,R2, LSL #+6
        LDR      R2,[SP, #+24]
        ORR      R1,R1,R2, LSL #+2
        STRB     R1,[R0, #+256]
        B        ??run_33
??run_40:
        LDRSB    R0,[R8, +R5]
        ADD      R8,R8,#+1
        AND      R0,R0,#0xFF
        ORR      R10,R0,R10
??run_41:
        MOV      R4,R10
??run_42:
        SUB      R6,R6,#+2
        B        ??run_25
??run_43:
        ASR      R7,R10,#+7
        MOV      R0,#+255
        AND      R10,R0,R10, LSL #+1
        B        ??run_41
??run_44:
        ADD      R8,R8,#+2
??run_45:
        SUB      R6,R6,#+4
        B        ??run_25
??run_46:
        LDRSB    R0,[R8, +R5]
        LDR      R11,??run_1+0x4  ;; j_int_array1d_static_fld
        ADD      R4,R8,#+1
        AND      R0,R0,#0xFF
        STR      R0,[R11, #+2524]
        LDRSB    R1,[R4, +R5]
        ADD      R8,R4,#+1
        AND      R1,R1,#0xFF
        ORR      R0,R0,R1, LSL #+8
??run_47:
        BL       aint1int
        ORR      R10,R0,R10
??run_48:
        MOV      R4,R10
        B        ??run_45
??run_49:
        LDRSB    R0,[R8, +R5]
        LDR      R11,??run_1+0x4  ;; j_int_array1d_static_fld
        ADD      R1,R8,#+1
        AND      R0,R0,#0xFF
        STR      R0,[R11, #+2524]
        LDRSB    R2,[R1, +R5]
        ADD      R8,R1,#+1
        AND      R2,R2,#0xFF
        ORR      R11,R0,R2, LSL #+8
        MOV      R0,R11
        BL       aint1int
        ASR      R7,R0,#+7
        MOV      R1,#+255
        AND      R4,R1,R0, LSL #+1
??run_50:
        MOV      R1,R4
        MOV      R0,R11
??run_51:
        BL       avoid2int
        B        ??run_31
??run_52:
        ASRS     R0,R4,#+7
        BNE      ??run_53
        LDRSB    R0,[R8, +R5]
        SUB      R6,R6,#+3
        ADD      R1,R0,#+1
        ADD      R8,R1,R8
        CMP      R0,#+0
        BPL      ??run_25
        CMN      R0,#+5
        BLT      ??run_25
        LDRSB    R1,[R8, +R5]
        BNE      ??run_54
        CMN      R1,#+83
        CMPNE    R1,#+44
        BNE      ??run_25
??run_55:
        MOV      R6,#+0
??run_17:
        LDR      R0,??run_1+0x28  ;; j_int_array1d_static_fld + 2620
        LDR      R1,[R0, #+0]
        LDR      R0,[SP, #+68]
        LSLS     R0,R0,#+24
        BEQ      ??run_56
        LDR      R0,??run_1+0x2C  ;; j_int_array1d_static_fld + 2548
        LDR      R0,[R0, #+0]
        SUBS     R0,R0,#+4
        BEQ      ??run_57
        SUBS     R0,R0,#+2
        BEQ      ??run_58
        B        ??run_56
??run_57:
        LDR      R0,??run_1+0x30  ;; j_int_array1d_static_fld + 3200
        LDRB     R0,[R0, #+0]
        CMP      R0,#+0
        BEQ      ??run_56
        LDR      R0,[SP, #+20]
        CMP      R0,#+0
        BMI      ??run_56
        CMP      R0,#+240
        BGE      ??run_56
        LDR      R0,??run_1+0x20  ;; j_int_array1d_static_fld + 2568
        LDR      R0,[R0, #+0]
        TST      R0,#0x18
        BEQ      ??run_56
        SUBS     R1,R1,#+1
        BPL      ??run_56
        LDR      R0,??run_1+0x34  ;; j_int_array1d_static_fld + 2624
        LDR      R1,[R0, #+0]
        B        ??run_59
??run_54:
        CMN      R0,#+4
        CMPEQ    R1,#+6
??run_60:
        BNE      ??run_25
        B        ??run_55
??run_53:
        ADD      R8,R8,#+1
        B        ??run_42
??run_61:
        LDRSB    R0,[R8, +R5]
        ADD      R8,R8,#+1
        AND      R0,R0,#0xFF
        LDRSB    R1,[R0, +R5]
        ADD      R0,R0,R5
        LDRSB    R0,[R0, #+1]
        AND      R1,R1,#0xFF
        AND      R0,R0,#0xFF
        ORR      R0,R1,R0, LSL #+8
        LDR      R1,[SP, #+0]
        ADD      R0,R1,R0
??run_62:
        BL       aint1int
        ORR      R10,R0,R10
??run_63:
        MOV      R4,R10
        B        ??run_38
??run_64:
        ADD      R8,R8,#+1
        B        ??run_45
??run_65:
        LDRSB    R0,[R8, +R5]
        ADD      R8,R8,#+1
        ADD      R0,R9,R0
        AND      R0,R0,#0xFF
        LDRSB    R0,[R0, +R5]
        AND      R0,R0,#0xFF
        ORR      R10,R0,R10
??run_66:
        MOV      R4,R10
??run_67:
        B        ??run_45
??run_68:
        LDRSB    R0,[R8, +R5]
        ADD      R8,R8,#+1
        MOV      R2,#+255
        ADD      R0,R9,R0
        AND      R0,R0,#0xFF
        LDRSB    R1,[R0, +R5]
        AND      R1,R1,#0xFF
        ASR      R7,R1,#+7
        AND      R4,R2,R1, LSL #+1
??run_69:
        STRB     R4,[R0, +R5]
        B        ??run_31
??run_70:
        MOV      R7,#+0
        B        ??run_42
??run_71:
        LDRSB    R0,[R8, +R5]
        LDR      R11,??run_1+0x4  ;; j_int_array1d_static_fld
        ADD      R4,R8,#+1
        AND      R0,R0,#0xFF
        STR      R0,[R11, #+2524]
        LDRSB    R1,[R4, +R5]
        ADD      R8,R4,#+1
        AND      R1,R1,#0xFF
        ORR      R0,R0,R1, LSL #+8
        LDR      R1,[SP, #+0]
        ADD      R0,R1,R0
        B        ??run_47
??run_72:
        LDRSB    R0,[R8, +R5]
        LDR      R11,??run_1+0x4  ;; j_int_array1d_static_fld
        ADD      R4,R8,#+1
        AND      R0,R0,#0xFF
        STR      R0,[R11, #+2524]
        LDRSB    R1,[R4, +R5]
        ADD      R8,R4,#+1
        AND      R1,R1,#0xFF
        ORR      R0,R0,R1, LSL #+8
        ADD      R0,R9,R0
        B        ??run_62
??run_73:
        LDRSB    R0,[R8, +R5]
        LDR      R11,??run_1+0x4  ;; j_int_array1d_static_fld
        ADD      R1,R8,#+1
        AND      R0,R0,#0xFF
        STR      R0,[R11, #+2524]
        LDRSB    R2,[R1, +R5]
        ADD      R8,R1,#+1
        AND      R2,R2,#0xFF
        ORR      R0,R0,R2, LSL #+8
        ADD      R11,R9,R0
        MOV      R0,R11
        BL       aint1int
        ASR      R7,R0,#+7
        MOV      R1,#+255
        AND      R4,R1,R0, LSL #+1
??run_74:
        MOV      R1,R4
        MOV      R0,R11
        BL       avoid2int
        B        ??run_27
??run_75:
        LDR      R0,[SP, #+16]
        LDR      R2,[SP, #+4]
        SUB      R0,R8,R0
        ADD      R1,R0,#+1
        MOV      R0,#+256
        ADD      R2,R2,R5
        ASR      R3,R1,#+8
        STRB     R3,[R0, +R2]
        LDR      R2,[SP, #+4]
        SUB      R2,R2,#+1
        ADD      R3,R2,R5
        STRB     R1,[R0, +R3]
        SUB      R1,R2,#+1
        STR      R1,[SP, #+4]
        LDRSB    R1,[R8, +R5]
        ADD      R2,R8,R5
        LDRSB    R2,[R2, #+1]
        AND      R1,R1,#0xFF
        AND      R2,R2,#0xFF
        ORR      R1,R1,R2, LSL #+8
        LDR      R2,??run_1+0x4   ;; j_int_array1d_static_fld
        STR      R1,[SP, #+8]
        ASR      R1,R1,#+13
        ADD      R1,R2,R1, LSL #+2
        LDR      R1,[R1, #+2440]
        STR      R1,[SP, #+16]
        LDR      R0,[SP, #+8]
??run_76:
        ADD      R8,R1,R0
        B        ??run_31
??run_77:
        LDRSB    R0,[R8, +R5]
        ADD      R8,R8,#+1
        ADD      R0,R9,R0
        AND      R0,R0,#0xFF
        LDRSB    R1,[R0, +R5]
        ADD      R0,R0,R5
        LDRSB    R0,[R0, #+1]
        AND      R1,R1,#0xFF
        AND      R0,R0,#0xFF
        ORR      R0,R1,R0, LSL #+8
        BL       aint1int
        AND      R10,R0,R10
??run_78:
        MOV      R4,R10
        B        ??run_31
??run_79:
        LDRSB    R0,[R8, +R5]
        ADD      R8,R8,#+1
        MOV      R1,#+1
        AND      R0,R0,#0xFF
        LDRSB    R0,[R0, +R5]
        AND      R4,R0,#0xFF
        AND      R1,R1,R4, ASR #+6
        STR      R1,[SP, #+12]
        LDRSB    R0,[R8, +R5]
        CMP      R0,#+16
        CMPNE    R0,#+48
        BEQ      ??run_33
        AND      R4,R4,R10
        B        ??run_33
??run_80:
        LDRSB    R0,[R8, +R5]
        ADD      R8,R8,#+1
        AND      R0,R0,#0xFF
        LDRSB    R0,[R0, +R5]
        AND      R0,R0,#0xFF
        AND      R10,R0,R10
??run_81:
        MOV      R4,R10
??run_82:
        B        ??run_33
??run_83:
        LDRSB    R0,[R8, +R5]
        ADD      R8,R8,#+1
        AND      R0,R0,#0xFF
        LDRSB    R1,[R0, +R5]
        AND      R1,R1,#0xFF
        ORR      R1,R7,R1, LSL #+1
        ASR      R7,R1,#+8
        AND      R4,R1,#0xFF
        B        ??run_37
??run_84:
        LDR      R1,[SP, #+4]
        ADD      R1,R1,#+1
        STR      R1,[SP, #+4]
        ADD      R0,R1,R5
        ADD      R0,R0,#+256
        LDRSB    R0,[R0, #+0]
        AND      R0,R0,#0xFF
        AND      R7,R0,#0x1
        TST      R0,#0x2
        MOVEQ    R1,#+1
        MOVNE    R1,#+0
        ASR      R2,R0,#+7
        ORR      R4,R1,R2, LSL #+7
        MOV      R2,#+1
        AND      R2,R2,R0, ASR #+6
        STR      R2,[SP, #+12]
        MOV      R2,#+1
        AND      R0,R2,R0, ASR #+2
        STR      R0,[SP, #+24]
        B        ??run_45
??run_85:
        LDRSB    R0,[R8, +R5]
        ADD      R8,R8,#+1
        AND      R0,R0,#0xFF
        AND      R10,R0,R10
        B        ??run_41
??run_86:
        ORR      R0,R7,R10, LSL #+1
        ASR      R7,R0,#+8
        AND      R10,R0,#0xFF
??run_87:
        MOV      R4,R10
??run_88:
        B        ??run_42
??run_89:
        LDRSB    R0,[R8, +R5]
        LDR      R11,??run_1+0x4  ;; j_int_array1d_static_fld
        ADD      R4,R8,#+1
        AND      R0,R0,#0xFF
        STR      R0,[R11, #+2524]
        LDRSB    R1,[R4, +R5]
        ADD      R8,R4,#+1
        AND      R1,R1,#0xFF
        ORR      R0,R0,R1, LSL #+8
        BL       aint1int
        MOV      R2,#+1
        AND      R2,R2,R0, ASR #+6
        STR      R2,[SP, #+12]
        LDRSB    R1,[R8, +R5]
        CMP      R1,#+16
        CMPNE    R1,#+48
        ANDNE    R4,R0,R10
        MOVEQ    R4,R0
        B        ??run_45
??run_90:
        LDRSB    R0,[R8, +R5]
        LDR      R11,??run_1+0x4  ;; j_int_array1d_static_fld
        ADD      R4,R8,#+1
        AND      R0,R0,#0xFF
        STR      R0,[R11, #+2524]
        LDRSB    R1,[R4, +R5]
        ADD      R8,R4,#+1
        AND      R1,R1,#0xFF
        ORR      R0,R0,R1, LSL #+8
        BL       aint1int
        AND      R10,R0,R10
        B        ??run_66
??run_91:
        LDRSB    R0,[R8, +R5]
        LDR      R11,??run_1+0x4  ;; j_int_array1d_static_fld
        ADD      R1,R8,#+1
        AND      R0,R0,#0xFF
        STR      R0,[R11, #+2524]
        LDRSB    R2,[R1, +R5]
        ADD      R8,R1,#+1
        AND      R2,R2,#0xFF
        ORR      R11,R0,R2, LSL #+8
        MOV      R0,R11
        BL       aint1int
        ORR      R0,R7,R0, LSL #+1
        ASR      R7,R0,#+8
        AND      R4,R0,#0xFF
        B        ??run_50
??run_92:
        ASRS     R0,R4,#+7
        BEQ      ??run_53
??run_93:
        LDRSB    R0,[R8, +R5]
        SUB      R6,R6,#+1
        ADD      R0,R0,#+1
        ADD      R8,R0,R8
??run_94:
        B        ??run_42
??run_95:
        LDRSB    R0,[R8, +R5]
        ADD      R8,R8,#+1
        AND      R0,R0,#0xFF
        LDRSB    R1,[R0, +R5]
        ADD      R0,R0,R5
        LDRSB    R0,[R0, #+1]
        AND      R1,R1,#0xFF
        AND      R0,R0,#0xFF
        ORR      R0,R1,R0, LSL #+8
        LDR      R1,[SP, #+0]
        ADD      R0,R1,R0
        BL       aint1int
        AND      R10,R0,R10
        B        ??run_63
??run_96:
        LDRSB    R0,[R8, +R5]
        ADD      R8,R8,#+1
        ADD      R0,R9,R0
        AND      R0,R0,#0xFF
        LDRSB    R0,[R0, +R5]
        AND      R0,R0,#0xFF
        AND      R10,R0,R10
        B        ??run_48
??run_97:
        LDRSB    R0,[R8, +R5]
        ADD      R8,R8,#+1
        ADD      R0,R9,R0
        AND      R0,R0,#0xFF
        LDRSB    R1,[R0, +R5]
        AND      R1,R1,#0xFF
        ORR      R1,R7,R1, LSL #+1
        ASR      R7,R1,#+8
        AND      R4,R1,#0xFF
        B        ??run_69
??run_98:
        MOV      R7,#+1
        B        ??run_42
??run_99:
        LDRSB    R0,[R8, +R5]
        LDR      R11,??run_1+0x4  ;; j_int_array1d_static_fld
        ADD      R4,R8,#+1
        AND      R0,R0,#0xFF
        STR      R0,[R11, #+2524]
        LDRSB    R1,[R4, +R5]
        ADD      R8,R4,#+1
        AND      R1,R1,#0xFF
        ORR      R0,R0,R1, LSL #+8
        LDR      R1,[SP, #+0]
        ADD      R0,R1,R0
        BL       aint1int
        AND      R10,R0,R10
        MOV      R4,R10
??run_100:
        SUB      R6,R6,#+4
        B        ??run_25
??run_101:
        LDRSB    R0,[R8, +R5]
        LDR      R11,??run_1+0x4  ;; j_int_array1d_static_fld
        ADD      R4,R8,#+1
        AND      R0,R0,#0xFF
        STR      R0,[R11, #+2524]
        LDRSB    R1,[R4, +R5]
        ADD      R8,R4,#+1
        AND      R1,R1,#0xFF
        ORR      R0,R0,R1, LSL #+8
        ADD      R0,R9,R0
        BL       aint1int
        AND      R10,R0,R10
??run_102:
        MOV      R4,R10
        B        ??run_38
??run_103:
        LDRSB    R0,[R8, +R5]
        LDR      R11,??run_1+0x4  ;; j_int_array1d_static_fld
        ADD      R1,R8,#+1
        AND      R0,R0,#0xFF
        STR      R0,[R11, #+2524]
        LDRSB    R2,[R1, +R5]
        ADD      R8,R1,#+1
        AND      R2,R2,#0xFF
        ORR      R0,R0,R2, LSL #+8
        ADD      R11,R9,R0
        MOV      R0,R11
        BL       aint1int
        ORR      R0,R7,R0, LSL #+1
        ASR      R7,R0,#+8
        AND      R4,R0,#0xFF
        B        ??run_74
        DATA
??run_1:
        DC32     running
        DC32     j_int_array1d_static_fld
        DC32     j_int_array1d_static_fld + 3205
        DC32     j_int_array1d_static_fld + 3208
        DC32     j_int_array1d_static_fld + 3160
        DC32     j_int_array1d_static_fld + 2884
        DC32     j_int_array1d_static_fld + 3204
        DC32     j_int_array1d_static_fld + 2892
        DC32     j_int_array1d_static_fld + 2568
        DC32     j_int_array1d_static_fld + 2564
        DC32     j_int_array1d_static_fld + 2620
        DC32     j_int_array1d_static_fld + 2548
        DC32     j_int_array1d_static_fld + 3200
        DC32     j_int_array1d_static_fld + 2624
        ARM
??run_104:
        LDR      R0,[SP, #+4]
        LDR      R11,??run_105    ;; j_int_array1d_static_fld
        ADD      R0,R0,#+1
        ADD      R1,R0,R5
        ADD      R1,R1,#+256
        LDRSB    R1,[R1, #+0]
        AND      R1,R1,#0xFF
        AND      R7,R1,#0x1
        TST      R1,#0x2
        MOVEQ    R2,#+1
        MOVNE    R2,#+0
        ASR      R3,R1,#+7
        ORR      R4,R2,R3, LSL #+7
        MOV      R3,#+1
        AND      R3,R3,R1, ASR #+6
        STR      R3,[SP, #+12]
        MOV      R3,#+1
        AND      R1,R3,R1, ASR #+2
        STR      R1,[SP, #+24]
        ADD      R2,R0,#+1
        MOV      R0,#+256
        ADD      R1,R2,R5
        LDRSB    R1,[R0, +R1]
        ADD      R2,R2,#+1
        ADD      R3,R2,R5
        AND      R1,R1,#0xFF
        STR      R1,[R11, #+2524]
        STR      R2,[SP, #+4]
        LDRSB    R0,[R0, +R3]
        AND      R0,R0,#0xFF
        ORR      R0,R1,R0, LSL #+8
        STR      R0,[SP, #+8]
        MOV      R1,R0
        ASR      R1,R1,#+13
        ADD      R1,R11,R1, LSL #+2
        LDR      R1,[R1, #+2440]
        STR      R1,[SP, #+16]
        B        ??run_76
??run_106:
        LDRSB    R0,[R8, +R5]
        ADD      R8,R8,#+1
        ADD      R0,R9,R0
        AND      R0,R0,#0xFF
        LDRSB    R1,[R0, +R5]
        ADD      R0,R0,R5
        LDRSB    R0,[R0, #+1]
        AND      R1,R1,#0xFF
        AND      R0,R0,#0xFF
        ORR      R0,R1,R0, LSL #+8
        BL       aint1int
        EOR      R10,R0,R10
        B        ??run_78
??run_107:
        LDRSB    R0,[R8, +R5]
        ADD      R8,R8,#+1
        AND      R0,R0,#0xFF
        LDRSB    R0,[R0, +R5]
        AND      R0,R0,#0xFF
        EOR      R10,R0,R10
        B        ??run_35
??run_108:
        LDRSB    R0,[R8, +R5]
        ADD      R8,R8,#+1
        AND      R0,R0,#0xFF
        LDRSB    R1,[R0, +R5]
        AND      R1,R1,#0xFF
        AND      R7,R1,#0x1
        ASR      R4,R1,#+1
        B        ??run_37
??run_109:
        LDR      R0,[SP, #+4]
        ADD      R0,R0,R5
        STRB     R10,[R0, #+256]
        LDR      R1,[SP, #+4]
        SUB      R1,R1,#+1
        STR      R1,[SP, #+4]
        B        ??run_33
??run_110:
        LDRSB    R0,[R8, +R5]
        ADD      R8,R8,#+1
        AND      R0,R0,#0xFF
        EOR      R10,R0,R10
        B        ??run_41
??run_111:
        AND      R7,R10,#0x1
        ASR      R10,R10,#+1
        B        ??run_87
??run_112:
        LDRSB    R2,[R8, +R5]
        ADD      R3,R8,R5
        LDRSB    R3,[R3, #+1]
        AND      R2,R2,#0xFF
        SUB      R0,R8,#+1
        AND      R3,R3,#0xFF
        ORR      R2,R2,R3, LSL #+8
        LDR      R3,??run_105     ;; j_int_array1d_static_fld
        STR      R2,[SP, #+8]
        ASR      R2,R2,#+13
        ADD      R2,R3,R2, LSL #+2
        LDR      R2,[R2, #+2440]
        SUB      R6,R6,#+3
        STR      R2,[SP, #+16]
        LDR      R1,[SP, #+8]
        ADD      R8,R2,R1
        LDR      R1,[SP, #+28]
        CMP      R8,R1
        CMPNE    R8,R0
        BEQ      ??run_55
        LDR      R0,[SP, #+60]
        LSLS     R0,R0,#+24
        BEQ      ??run_25
        MOV      R0,#+0
??run_113:
        ADD      R1,SP,#+72
        LDR      R1,[R1, +R0, LSL #+2]
        CMP      R1,R8
        BNE      ??run_114
        ADD      R1,SP,#+472
        ADD      R0,R1,R0, LSL #+2
        LDR      R1,[R0, #+0]
        ADD      R1,R1,#+1
        STR      R1,[R0, #+0]
        B        ??run_25
??run_114:
        ADD      R0,R0,#+1
        CMP      R0,#+100
        BLT      ??run_113
        MOV      R0,#+0
        B        ??run_24
??run_115:
        LDRSB    R0,[R8, +R5]
        LDR      R11,??run_105    ;; j_int_array1d_static_fld
        ADD      R4,R8,#+1
        AND      R0,R0,#0xFF
        STR      R0,[R11, #+2524]
        LDRSB    R1,[R4, +R5]
        ADD      R8,R4,#+1
        AND      R1,R1,#0xFF
        ORR      R0,R0,R1, LSL #+8
        BL       aint1int
        EOR      R10,R0,R10
        MOV      R4,R10
        B        ??run_45
??run_116:
        LDRSB    R0,[R8, +R5]
        LDR      R11,??run_105    ;; j_int_array1d_static_fld
        ADD      R1,R8,#+1
        AND      R0,R0,#0xFF
        STR      R0,[R11, #+2524]
        LDRSB    R2,[R1, +R5]
        ADD      R8,R1,#+1
        AND      R2,R2,#0xFF
        ORR      R11,R0,R2, LSL #+8
        MOV      R0,R11
        BL       aint1int
        AND      R7,R0,#0x1
        ASR      R4,R0,#+1
        B        ??run_50
??run_117:
        LDR      R0,[SP, #+12]
        CMP      R0,#+0
        BNE      ??run_53
        LDRSB    R0,[R8, +R5]
        SUB      R6,R6,#+3
        ADD      R1,R0,#+1
        ADD      R8,R1,R8
        CMP      R0,#+0
        BPL      ??run_25
        CMN      R0,#+5
        BLT      ??run_25
        LDRSBEQ  R0,[R8, +R5]
        CMPEQ    R0,#+44
        B        ??run_60
??run_118:
        LDRSB    R0,[R8, +R5]
        ADD      R8,R8,#+1
        AND      R0,R0,#0xFF
        LDRSB    R1,[R0, +R5]
        ADD      R0,R0,R5
        LDRSB    R0,[R0, #+1]
        AND      R1,R1,#0xFF
        AND      R0,R0,#0xFF
        ORR      R0,R1,R0, LSL #+8
        LDR      R1,[SP, #+0]
        ADD      R0,R1,R0
        BL       aint1int
        EOR      R10,R0,R10
        B        ??run_63
??run_119:
        LDRSB    R0,[R8, +R5]
        ADD      R8,R8,#+1
        ADD      R0,R9,R0
        AND      R0,R0,#0xFF
        LDRSB    R0,[R0, +R5]
        AND      R0,R0,#0xFF
        EOR      R10,R0,R10
        B        ??run_48
??run_120:
        LDRSB    R0,[R8, +R5]
        ADD      R8,R8,#+1
        ADD      R0,R9,R0
        AND      R0,R0,#0xFF
        LDRSB    R1,[R0, +R5]
        AND      R1,R1,#0xFF
        AND      R7,R1,#0x1
        ASR      R4,R1,#+1
        B        ??run_69
??run_121:
        MOV      R1,#+0
??run_122:
        STR      R1,[SP, #+24]
        B        ??run_42
??run_123:
        LDRSB    R0,[R8, +R5]
        LDR      R11,??run_105    ;; j_int_array1d_static_fld
        ADD      R4,R8,#+1
        AND      R0,R0,#0xFF
        STR      R0,[R11, #+2524]
        LDRSB    R1,[R4, +R5]
        ADD      R8,R4,#+1
        AND      R1,R1,#0xFF
        ORR      R0,R0,R1, LSL #+8
        LDR      R1,[SP, #+0]
        ADD      R0,R1,R0
        BL       aint1int
        EOR      R10,R0,R10
        B        ??run_66
??run_124:
        LDRSB    R0,[R8, +R5]
        LDR      R11,??run_105    ;; j_int_array1d_static_fld
        ADD      R4,R8,#+1
        AND      R0,R0,#0xFF
        STR      R0,[R11, #+2524]
        LDRSB    R1,[R4, +R5]
        ADD      R8,R4,#+1
        AND      R1,R1,#0xFF
        ORR      R0,R0,R1, LSL #+8
        ADD      R0,R9,R0
        BL       aint1int
        EOR      R10,R0,R10
        B        ??run_102
??run_125:
        LDRSB    R0,[R8, +R5]
        LDR      R11,??run_105    ;; j_int_array1d_static_fld
        ADD      R1,R8,#+1
        AND      R0,R0,#0xFF
        STR      R0,[R11, #+2524]
        LDRSB    R2,[R1, +R5]
        ADD      R8,R1,#+1
        AND      R2,R2,#0xFF
        ORR      R0,R0,R2, LSL #+8
        ADD      R11,R9,R0
        MOV      R0,R11
        BL       aint1int
        AND      R7,R0,#0x1
        ASR      R4,R0,#+1
??run_126:
        MOV      R1,R4
        MOV      R0,R11
        BL       avoid2int
        B        ??run_27
??run_127:
        LDR      R0,[SP, #+4]
        LDR      R11,??run_105    ;; j_int_array1d_static_fld
        ADD      R2,R0,#+1
        MOV      R0,#+256
        ADD      R1,R2,R5
        LDRSB    R1,[R0, +R1]
        ADD      R2,R2,#+1
        ADD      R3,R2,R5
        AND      R1,R1,#0xFF
        STR      R1,[R11, #+2524]
        STR      R2,[SP, #+4]
        LDRSB    R0,[R0, +R3]
        AND      R0,R0,#0xFF
        ORR      R0,R1,R0, LSL #+8
        ADD      R0,R0,#+1
        STR      R0,[SP, #+8]
        LDR      R1,[SP, #+8]
        ASR      R1,R1,#+13
        ADD      R1,R11,R1, LSL #+2
        LDR      R1,[R1, #+2440]
        STR      R1,[SP, #+16]
        LDR      R0,[SP, #+8]
        ADD      R8,R1,R0
        B        ??run_45
??run_128:
        LDRSB    R0,[R8, +R5]
        ADD      R8,R8,#+1
        ADD      R0,R9,R0
        AND      R0,R0,#0xFF
        LDRSB    R1,[R0, +R5]
        ADD      R0,R0,R5
        LDRSB    R0,[R0, #+1]
        AND      R1,R1,#0xFF
        AND      R0,R0,#0xFF
        ORR      R0,R1,R0, LSL #+8
        BL       aint1int
        ADD      R1,R0,R10
        ADD      R1,R7,R1
        EOR      R0,R0,R10
        EOR      R3,R1,R10
        BIC      R0,R3,R0
        MOV      R3,#+1
        AND      R0,R3,R0, ASR #+7
        STR      R0,[SP, #+12]
        ASR      R7,R1,#+8
        AND      R10,R1,#0xFF
        B        ??run_30
??run_129:
        LDRSB    R0,[R8, +R5]
        ADD      R8,R8,#+1
        AND      R0,R0,#0xFF
        LDRSB    R0,[R0, +R5]
        AND      R0,R0,#0xFF
        ADD      R1,R0,R10
        ADD      R1,R7,R1
        EOR      R0,R0,R10
        EOR      R3,R1,R10
        BIC      R0,R3,R0
        MOV      R3,#+1
        AND      R0,R3,R0, ASR #+7
        STR      R0,[SP, #+12]
        ASR      R7,R1,#+8
        AND      R10,R1,#0xFF
        B        ??run_35
??run_130:
        LDRSB    R0,[R8, +R5]
        ADD      R8,R8,#+1
        LSL      R2,R7,#+7
        AND      R0,R0,#0xFF
        LDRSB    R1,[R0, +R5]
        AND      R1,R1,#0xFF
        AND      R7,R1,#0x1
        ORR      R4,R2,R1, ASR #+1
        B        ??run_37
??run_131:
        LDR      R1,[SP, #+4]
        ADD      R1,R1,#+1
        STR      R1,[SP, #+4]
        ADD      R0,R1,R5
        ADD      R0,R0,#+256
        LDRSB    R0,[R0, #+0]
        AND      R10,R0,#0xFF
        B        ??run_66
??run_132:
        LDRSB    R0,[R8, +R5]
        ADD      R8,R8,#+1
        AND      R0,R0,#0xFF
        ADD      R1,R0,R10
        ADD      R1,R7,R1
        EOR      R0,R0,R10
        EOR      R3,R1,R10
        BIC      R0,R3,R0
        MOV      R3,#+1
        AND      R0,R3,R0, ASR #+7
        STR      R0,[SP, #+12]
        ASR      R7,R1,#+8
        AND      R10,R1,#0xFF
        B        ??run_41
??run_133:
        MOV      R0,R7
        AND      R7,R10,#0x1
        LSL      R0,R0,#+7
        ORR      R10,R0,R10, ASR #+1
        B        ??run_87
??run_134:
        LDRSB    R0,[R8, +R5]
        LDR      R11,??run_105    ;; j_int_array1d_static_fld
        ADD      R1,R8,R5
        AND      R0,R0,#0xFF
        STR      R0,[R11, #+2524]
        LDRSB    R1,[R1, #+1]
        CMP      R0,#+255
        AND      R1,R1,#0xFF
        ORR      R8,R0,R1, LSL #+8
        MOV      R0,R8
        BNE      ??run_135
        BL       aint1int
        MOV      R11,R0
        AND      R0,R8,#0xFF00
        B        ??run_136
??run_135:
        BL       aint1int
        MOV      R11,R0
        ADD      R0,R8,#+1
??run_136:
        BL       aint1int
        LDR      R2,??run_105     ;; j_int_array1d_static_fld
        ORR      R0,R11,R0, LSL #+8
        STR      R0,[SP, #+8]
        LDR      R1,[SP, #+8]
        ASR      R1,R1,#+13
        ADD      R1,R2,R1, LSL #+2
        LDR      R1,[R1, #+2440]
        STR      R1,[SP, #+16]
        LDR      R0,[SP, #+8]
        ADD      R8,R1,R0
        B        ??run_38
??run_137:
        LDRSB    R0,[R8, +R5]
        LDR      R11,??run_105    ;; j_int_array1d_static_fld
        ADD      R4,R8,#+1
        AND      R0,R0,#0xFF
        STR      R0,[R11, #+2524]
        LDRSB    R1,[R4, +R5]
        ADD      R8,R4,#+1
        AND      R1,R1,#0xFF
        ORR      R0,R0,R1, LSL #+8
        BL       aint1int
        ADD      R1,R0,R10
        ADD      R1,R7,R1
        EOR      R0,R0,R10
        EOR      R3,R1,R10
        BIC      R0,R3,R0
        MOV      R3,#+1
        AND      R0,R3,R0, ASR #+7
        STR      R0,[SP, #+12]
        ASR      R7,R1,#+8
        AND      R10,R1,#0xFF
        B        ??run_48
??run_138:
        LDRSB    R0,[R8, +R5]
        LDR      R11,??run_105    ;; j_int_array1d_static_fld
        ADD      R1,R8,#+1
        AND      R0,R0,#0xFF
        STR      R0,[R11, #+2524]
        LDRSB    R2,[R1, +R5]
        ADD      R8,R1,#+1
        AND      R2,R2,#0xFF
        ORR      R11,R0,R2, LSL #+8
        MOV      R0,R11
        BL       aint1int
        LSL      R1,R7,#+7
        AND      R7,R0,#0x1
        ORR      R4,R1,R0, ASR #+1
        B        ??run_50
??run_139:
        LDR      R0,[SP, #+12]
        CMP      R0,#+0
        BEQ      ??run_64
        LDRSB    R0,[R8, +R5]
        SUB      R6,R6,#+1
        ADD      R0,R0,#+1
        ADD      R8,R0,R8
        B        ??run_45
??run_140:
        LDRSB    R0,[R8, +R5]
        ADD      R8,R8,#+1
        AND      R0,R0,#0xFF
        LDRSB    R1,[R0, +R5]
        ADD      R0,R0,R5
        LDRSB    R0,[R0, #+1]
        AND      R1,R1,#0xFF
        AND      R0,R0,#0xFF
        ORR      R0,R1,R0, LSL #+8
        LDR      R1,[SP, #+0]
        ADD      R0,R1,R0
        BL       aint1int
        ADD      R1,R0,R10
        ADD      R1,R7,R1
        EOR      R0,R0,R10
        EOR      R3,R1,R10
        BIC      R0,R3,R0
        MOV      R3,#+1
        AND      R0,R3,R0, ASR #+7
        STR      R0,[SP, #+12]
        ASR      R7,R1,#+8
        AND      R10,R1,#0xFF
        B        ??run_63
??run_141:
        LDRSB    R0,[R8, +R5]
        ADD      R8,R8,#+1
        ADD      R0,R9,R0
        AND      R0,R0,#0xFF
        LDRSB    R0,[R0, +R5]
        AND      R0,R0,#0xFF
        ADD      R1,R0,R10
        ADD      R1,R7,R1
        EOR      R0,R0,R10
        EOR      R3,R1,R10
        BIC      R0,R3,R0
        MOV      R3,#+1
        AND      R0,R3,R0, ASR #+7
        STR      R0,[SP, #+12]
        ASR      R7,R1,#+8
        AND      R10,R1,#0xFF
        B        ??run_66
??run_142:
        LDRSB    R0,[R8, +R5]
        ADD      R8,R8,#+1
        LSL      R2,R7,#+7
        ADD      R0,R9,R0
        AND      R0,R0,#0xFF
        LDRSB    R1,[R0, +R5]
        AND      R1,R1,#0xFF
        AND      R7,R1,#0x1
        ORR      R4,R2,R1, ASR #+1
        B        ??run_69
??run_143:
        MOV      R1,#+1
        B        ??run_122
??run_144:
        LDRSB    R0,[R8, +R5]
        LDR      R11,??run_105    ;; j_int_array1d_static_fld
        ADD      R4,R8,#+1
        AND      R0,R0,#0xFF
        STR      R0,[R11, #+2524]
        LDRSB    R1,[R4, +R5]
        ADD      R8,R4,#+1
        AND      R1,R1,#0xFF
        ORR      R0,R0,R1, LSL #+8
        LDR      R1,[SP, #+0]
        ADD      R0,R1,R0
        BL       aint1int
        ADD      R1,R0,R10
        ADD      R1,R7,R1
        EOR      R0,R0,R10
        EOR      R3,R1,R10
        BIC      R0,R3,R0
        MOV      R3,#+1
        AND      R0,R3,R0, ASR #+7
        STR      R0,[SP, #+12]
        ASR      R7,R1,#+8
        AND      R10,R1,#0xFF
        B        ??run_48
??run_145:
        LDRSB    R0,[R8, +R5]
        LDR      R11,??run_105    ;; j_int_array1d_static_fld
        ADD      R4,R8,#+1
        AND      R0,R0,#0xFF
        STR      R0,[R11, #+2524]
        LDRSB    R1,[R4, +R5]
        ADD      R8,R4,#+1
        AND      R1,R1,#0xFF
        ORR      R0,R0,R1, LSL #+8
        ADD      R0,R9,R0
        BL       aint1int
        ADD      R1,R0,R10
        ADD      R1,R7,R1
        EOR      R0,R0,R10
        EOR      R3,R1,R10
        BIC      R0,R3,R0
        MOV      R3,#+1
        AND      R0,R3,R0, ASR #+7
        STR      R0,[SP, #+12]
        ASR      R7,R1,#+8
        AND      R10,R1,#0xFF
        B        ??run_102
??run_146:
        LDRSB    R0,[R8, +R5]
        LDR      R11,??run_105    ;; j_int_array1d_static_fld
        ADD      R1,R8,#+1
        AND      R0,R0,#0xFF
        STR      R0,[R11, #+2524]
        LDRSB    R2,[R1, +R5]
        ADD      R8,R1,#+1
        AND      R2,R2,#0xFF
        ORR      R0,R0,R2, LSL #+8
        ADD      R11,R9,R0
        MOV      R0,R11
        BL       aint1int
        LSL      R1,R7,#+7
        AND      R7,R0,#0x1
        ORR      R4,R1,R0, ASR #+1
        B        ??run_74
??run_147:
        LDRSB    R0,[R8, +R5]
        MOV      R1,R10
        ADD      R8,R8,#+1
        ADD      R0,R9,R0
        AND      R0,R0,#0xFF
        LDRSB    R2,[R0, +R5]
        ADD      R0,R0,R5
        LDRSB    R0,[R0, #+1]
        AND      R2,R2,#0xFF
        AND      R0,R0,#0xFF
        ORR      R0,R2,R0, LSL #+8
        B        ??run_51
??run_148:
        LDRSB    R0,[R8, +R5]
        LDR      R1,[SP, #+0]
        ADD      R8,R8,#+1
        AND      R0,R0,#0xFF
        STRB     R1,[R0, +R5]
        B        ??run_33
??run_149:
        LDRSB    R0,[R8, +R5]
        ADD      R8,R8,#+1
        AND      R0,R0,#0xFF
        STRB     R10,[R0, +R5]
        B        ??run_33
??run_150:
        LDRSB    R0,[R8, +R5]
        ADD      R8,R8,#+1
        AND      R0,R0,#0xFF
        STRB     R9,[R0, +R5]
        B        ??run_33
??run_151:
        LDR      R1,[SP, #+0]
        SUB      R1,R1,#+1
        AND      R1,R1,#0xFF
        STR      R1,[SP, #+0]
        LDR      R4,[SP, #+0]
        B        ??run_42
??run_152:
        MOV      R10,R9
        B        ??run_87
??run_153:
        LDRSB    R0,[R8, +R5]
        LDR      R11,??run_105    ;; j_int_array1d_static_fld
        ADD      R8,R8,#+1
        AND      R0,R0,#0xFF
        STR      R0,[R11, #+2524]
        LDRSB    R2,[R8, +R5]
        LDR      R1,[SP, #+0]
??run_154:
        ADD      R8,R8,#+1
        AND      R2,R2,#0xFF
        ORR      R0,R0,R2, LSL #+8
        BL       avoid2int
        B        ??run_45
??run_155:
        LDRSB    R0,[R8, +R5]
        LDR      R11,??run_105    ;; j_int_array1d_static_fld
        ADD      R8,R8,#+1
        AND      R0,R0,#0xFF
        STR      R0,[R11, #+2524]
        LDRSB    R2,[R8, +R5]
        MOV      R1,R10
        ADD      R8,R8,#+1
        AND      R2,R2,#0xFF
        ORR      R0,R0,R2, LSL #+8
        BL       avoid2int
        B        ??run_45
??run_156:
        LDRSB    R0,[R8, +R5]
        LDR      R11,??run_105    ;; j_int_array1d_static_fld
        ADD      R8,R8,#+1
        AND      R0,R0,#0xFF
        STR      R0,[R11, #+2524]
        LDRSB    R2,[R8, +R5]
        MOV      R1,R9
        B        ??run_154
??run_157:
        CMP      R7,#+0
        BEQ      ??run_93
??run_158:
        B        ??run_53
??run_159:
        LDRSB    R0,[R8, +R5]
        MOV      R1,R10
        ADD      R8,R8,#+1
        AND      R0,R0,#0xFF
        LDRSB    R2,[R0, +R5]
        ADD      R0,R0,R5
        LDRSB    R0,[R0, #+1]
        AND      R2,R2,#0xFF
        AND      R0,R0,#0xFF
        ORR      R0,R2,R0, LSL #+8
        LDR      R2,[SP, #+0]
        ADD      R0,R2,R0
        BL       avoid2int
        B        ??run_31
??run_160:
        LDRSB    R0,[R8, +R5]
        LDR      R1,[SP, #+0]
        ADD      R8,R8,#+1
        ADD      R0,R9,R0
        AND      R0,R0,#0xFF
        STRB     R1,[R0, +R5]
        B        ??run_100
??run_161:
        LDRSB    R0,[R8, +R5]
        ADD      R8,R8,#+1
        ADD      R0,R9,R0
        AND      R0,R0,#0xFF
        STRB     R10,[R0, +R5]
        B        ??run_45
??run_162:
        LDRSB    R0,[R8, +R5]
        LDR      R1,[SP, #+0]
        ADD      R8,R8,#+1
        ADD      R0,R1,R0
        AND      R0,R0,#0xFF
        STRB     R9,[R0, +R5]
        B        ??run_45
??run_163:
        LDR      R10,[SP, #+0]
        B        ??run_41
??run_164:
        LDRSB    R0,[R8, +R5]
        LDR      R11,??run_105    ;; j_int_array1d_static_fld
        ADD      R8,R8,#+1
        AND      R0,R0,#0xFF
        STR      R0,[R11, #+2524]
        LDRSB    R2,[R8, +R5]
        MOV      R1,R10
        ADD      R8,R8,#+1
        AND      R2,R2,#0xFF
        ORR      R0,R0,R2, LSL #+8
        LDR      R2,[SP, #+0]
        ADD      R0,R2,R0
??run_165:
        BL       avoid2int
        B        ??run_38
??run_166:
        STR      R9,[SP, #+4]
        B        ??run_42
??run_167:
        LDRSB    R0,[R8, +R5]
        LDR      R11,??run_105    ;; j_int_array1d_static_fld
        ADD      R8,R8,#+1
        AND      R0,R0,#0xFF
        STR      R0,[R11, #+2524]
        LDRSB    R2,[R8, +R5]
        MOV      R1,R10
        ADD      R8,R8,#+1
        AND      R2,R2,#0xFF
        ORR      R0,R0,R2, LSL #+8
        ADD      R0,R9,R0
        B        ??run_165
??run_168:
        LDRSB    R0,[R8, +R5]
        ADD      R8,R8,#+1
        AND      R4,R0,#0xFF
        STR      R4,[SP, #+0]
        B        ??run_42
??run_169:
        LDRSB    R0,[R8, +R5]
        ADD      R8,R8,#+1
        ADD      R0,R9,R0
        AND      R0,R0,#0xFF
        LDRSB    R1,[R0, +R5]
        ADD      R0,R0,R5
        LDRSB    R0,[R0, #+1]
        AND      R1,R1,#0xFF
        AND      R0,R0,#0xFF
        ORR      R0,R1,R0, LSL #+8
        BL       aint1int
        MOV      R10,R0
        MOV      R4,R0
        B        ??run_31
??run_170:
        LDRSB    R0,[R8, +R5]
        ADD      R8,R8,#+1
        SUB      R6,R6,#+2
        AND      R4,R0,#0xFF
        MOV      R9,R4
        B        ??run_25
??run_171:
        LDRSB    R0,[R8, +R5]
        ADD      R8,R8,#+1
        AND      R0,R0,#0xFF
        LDRSB    R0,[R0, +R5]
        AND      R4,R0,#0xFF
        STR      R4,[SP, #+0]
        B        ??run_33
??run_172:
        LDRSB    R0,[R8, +R5]
        ADD      R8,R8,#+1
        AND      R0,R0,#0xFF
        LDRSB    R0,[R0, +R5]
        AND      R4,R0,#0xFF
        MOV      R10,R4
        B        ??run_33
??run_173:
        LDRSB    R0,[R8, +R5]
        ADD      R8,R8,#+1
        AND      R0,R0,#0xFF
        LDRSB    R0,[R0, +R5]
        AND      R4,R0,#0xFF
        MOV      R9,R4
        B        ??run_33
??run_174:
        STR      R10,[SP, #+0]
        B        ??run_41
??run_175:
        LDRSB    R0,[R8, +R5]
        ADD      R8,R8,#+1
        AND      R4,R0,#0xFF
        MOV      R10,R4
        B        ??run_42
??run_176:
        MOV      R9,R10
??run_177:
        MOV      R4,R9
        B        ??run_42
??run_178:
        LDRSB    R0,[R8, +R5]
        LDR      R11,??run_105    ;; j_int_array1d_static_fld
        ADD      R4,R8,#+1
        AND      R0,R0,#0xFF
        STR      R0,[R11, #+2524]
        LDRSB    R1,[R4, +R5]
        ADD      R8,R4,#+1
        AND      R1,R1,#0xFF
        ORR      R0,R0,R1, LSL #+8
        BL       aint1int
        STR      R0,[SP, #+0]
??run_179:
        MOV      R4,R0
        B        ??run_45
??run_180:
        LDRSB    R0,[R8, +R5]
        LDR      R11,??run_105    ;; j_int_array1d_static_fld
        ADD      R4,R8,#+1
        AND      R0,R0,#0xFF
        STR      R0,[R11, #+2524]
        LDRSB    R1,[R4, +R5]
        ADD      R8,R4,#+1
        AND      R1,R1,#0xFF
        ORR      R0,R0,R1, LSL #+8
        BL       aint1int
        MOV      R10,R0
??run_181:
        MOV      R4,R0
        B        ??run_45
??run_182:
        LDRSB    R0,[R8, +R5]
        LDR      R11,??run_105    ;; j_int_array1d_static_fld
        ADD      R4,R8,#+1
        AND      R0,R0,#0xFF
        STR      R0,[R11, #+2524]
        LDRSB    R1,[R4, +R5]
        ADD      R8,R4,#+1
        AND      R1,R1,#0xFF
        ORR      R0,R0,R1, LSL #+8
        BL       aint1int
        MOV      R9,R0
        B        ??run_179
??run_183:
        CMP      R7,#+0
        BEQ      ??run_53
        LDRSB    R0,[R8, +R5]
        ADD      R0,R0,#+1
        ADD      R8,R0,R8
        B        ??run_33
??run_184:
        LDRSB    R0,[R8, +R5]
        ADD      R8,R8,#+1
        AND      R0,R0,#0xFF
        LDRSB    R1,[R0, +R5]
        ADD      R0,R0,R5
        LDRSB    R0,[R0, #+1]
        AND      R1,R1,#0xFF
        AND      R0,R0,#0xFF
        ORR      R0,R1,R0, LSL #+8
        LDR      R1,[SP, #+0]
        ADD      R0,R1,R0
        BL       aint1int
        MOV      R10,R0
        MOV      R4,R0
        B        ??run_38
??run_185:
        LDRSB    R0,[R8, +R5]
        ADD      R8,R8,#+1
        ADD      R0,R9,R0
        AND      R0,R0,#0xFF
        LDRSB    R0,[R0, +R5]
        AND      R4,R0,#0xFF
        STR      R4,[SP, #+0]
        B        ??run_100
??run_186:
        LDRSB    R0,[R8, +R5]
        ADD      R8,R8,#+1
        ADD      R0,R9,R0
        AND      R0,R0,#0xFF
        LDRSB    R0,[R0, +R5]
        AND      R4,R0,#0xFF
        MOV      R10,R4
        B        ??run_45
??run_187:
        LDRSB    R0,[R8, +R5]
        LDR      R1,[SP, #+0]
        ADD      R8,R8,#+1
        ADD      R0,R1,R0
        AND      R0,R0,#0xFF
        LDRSB    R0,[R0, +R5]
        AND      R4,R0,#0xFF
        MOV      R9,R4
        B        ??run_45
??run_188:
        MOV      R1,#+0
        STR      R1,[SP, #+12]
        B        ??run_42
??run_189:
        LDRSB    R0,[R8, +R5]
        LDR      R11,??run_105    ;; j_int_array1d_static_fld
        ADD      R4,R8,#+1
        AND      R0,R0,#0xFF
        STR      R0,[R11, #+2524]
        LDRSB    R1,[R4, +R5]
        ADD      R8,R4,#+1
        AND      R1,R1,#0xFF
        ORR      R0,R0,R1, LSL #+8
        LDR      R1,[SP, #+0]
        ADD      R0,R1,R0
        BL       aint1int
        MOV      R10,R0
        B        ??run_179
??run_190:
        LDR      R9,[SP, #+4]
        B        ??run_177
??run_191:
        LDRSB    R0,[R8, +R5]
        LDR      R11,??run_105    ;; j_int_array1d_static_fld
        ADD      R4,R8,#+1
        AND      R0,R0,#0xFF
        STR      R0,[R11, #+2524]
        LDRSB    R1,[R4, +R5]
        ADD      R8,R4,#+1
        SUB      R6,R6,#+4
        AND      R1,R1,#0xFF
        ORR      R0,R0,R1, LSL #+8
        ADD      R0,R9,R0
        BL       aint1int
        STR      R0,[SP, #+0]
        MOV      R4,R0
        B        ??run_25
??run_192:
        LDRSB    R0,[R8, +R5]
        LDR      R11,??run_105    ;; j_int_array1d_static_fld
        ADD      R4,R8,#+1
        AND      R0,R0,#0xFF
        STR      R0,[R11, #+2524]
        LDRSB    R1,[R4, +R5]
        ADD      R8,R4,#+1
        AND      R1,R1,#0xFF
        ORR      R0,R0,R1, LSL #+8
        ADD      R0,R9,R0
        BL       aint1int
        MOV      R10,R0
        MOV      R4,R0
        B        ??run_45
??run_193:
        LDRSB    R0,[R8, +R5]
        LDR      R11,??run_105    ;; j_int_array1d_static_fld
        ADD      R4,R8,#+1
        AND      R0,R0,#0xFF
        STR      R0,[R11, #+2524]
        LDRSB    R1,[R4, +R5]
        ADD      R8,R4,#+1
        AND      R1,R1,#0xFF
        ORR      R0,R0,R1, LSL #+8
        LDR      R1,[SP, #+0]
        ADD      R0,R1,R0
        BL       aint1int
        MOV      R9,R0
        B        ??run_181
??run_194:
        LDRSB    R1,[R8, +R5]
        LDR      R0,[SP, #+0]
        ADD      R8,R8,#+1
        AND      R1,R1,#0xFF
        SUB      R0,R0,R1
??run_195:
        CMP      R0,#+0
        MOVMI    R7,#+0
        MOVPL    R7,#+1
        AND      R4,R0,#0xFF
        B        ??run_42
??run_196:
        LDRSB    R0,[R8, +R5]
        ADD      R8,R8,#+1
        ADD      R0,R9,R0
        AND      R0,R0,#0xFF
        LDRSB    R1,[R0, +R5]
        ADD      R0,R0,R5
        LDRSB    R0,[R0, #+1]
        AND      R1,R1,#0xFF
        AND      R0,R0,#0xFF
        ORR      R0,R1,R0, LSL #+8
        BL       aint1int
        SUBS     R0,R10,R0
        MOVMI    R7,#+0
        MOVPL    R7,#+1
??run_197:
        AND      R4,R0,#0xFF
        B        ??run_31
??run_198:
        LDRSB    R1,[R8, +R5]
        LDR      R0,[SP, #+0]
        ADD      R8,R8,#+1
        AND      R1,R1,#0xFF
        LDRSB    R1,[R1, +R5]
        AND      R1,R1,#0xFF
        SUB      R0,R0,R1
??run_199:
        CMP      R0,#+0
        MOVMI    R7,#+0
        MOVPL    R7,#+1
        AND      R4,R0,#0xFF
        B        ??run_33
??run_200:
        LDRSB    R0,[R8, +R5]
        ADD      R8,R8,#+1
        AND      R0,R0,#0xFF
        LDRSB    R0,[R0, +R5]
        AND      R0,R0,#0xFF
        SUB      R0,R10,R0
        CMP      R0,#+0
        MOVMI    R7,#+0
        MOVPL    R7,#+1
        AND      R4,R0,#0xFF
        B        ??run_33
??run_201:
        LDRSB    R0,[R8, +R5]
        ADD      R8,R8,#+1
        AND      R0,R0,#0xFF
        LDRSB    R1,[R0, +R5]
        SUB      R1,R1,#+1
        STRB     R1,[R0, +R5]
        LDRSB    R0,[R0, +R5]
??run_202:
        AND      R4,R0,#0xFF
        B        ??run_38
??run_203:
        LDR      R1,[SP, #+0]
        ADD      R1,R1,#+1
        AND      R1,R1,#0xFF
        STR      R1,[SP, #+0]
        MOV      R4,R1
        B        ??run_42
??run_204:
        LDRSB    R0,[R8, +R5]
        ADD      R8,R8,#+1
        AND      R0,R0,#0xFF
        SUB      R0,R10,R0
        CMP      R0,#+0
        MOVMI    R7,#+0
        MOVPL    R7,#+1
        AND      R4,R0,#0xFF
        B        ??run_42
??run_205:
        SUB      R0,R9,#+1
        AND      R9,R0,#0xFF
        B        ??run_177
??run_206:
        LDRSB    R0,[R8, +R5]
        LDR      R11,??run_105    ;; j_int_array1d_static_fld
        ADD      R4,R8,#+1
        AND      R0,R0,#0xFF
        STR      R0,[R11, #+2524]
        LDRSB    R1,[R4, +R5]
        ADD      R8,R4,#+1
        AND      R1,R1,#0xFF
        ORR      R0,R0,R1, LSL #+8
        BL       aint1int
        LDR      R1,[SP, #+0]
        SUBS     R0,R1,R0
??run_207:
        MOVMI    R7,#+0
        MOVPL    R7,#+1
        AND      R4,R0,#0xFF
        B        ??run_45
??run_208:
        LDRSB    R0,[R8, +R5]
        LDR      R11,??run_105    ;; j_int_array1d_static_fld
        ADD      R4,R8,#+1
        AND      R0,R0,#0xFF
        STR      R0,[R11, #+2524]
        LDRSB    R1,[R4, +R5]
        ADD      R8,R4,#+1
        AND      R1,R1,#0xFF
        ORR      R0,R0,R1, LSL #+8
??run_209:
        BL       aint1int
        SUBS     R0,R10,R0
        MOVMI    R7,#+0
        MOVPL    R7,#+1
        AND      R4,R0,#0xFF
        B        ??run_45
??run_210:
        LDRSB    R0,[R8, +R5]
        LDR      R11,??run_105    ;; j_int_array1d_static_fld
        ADD      R1,R8,#+1
        AND      R0,R0,#0xFF
        STR      R0,[R11, #+2524]
        LDRSB    R2,[R1, +R5]
        ADD      R8,R1,#+1
        AND      R2,R2,#0xFF
        ORR      R11,R0,R2, LSL #+8
        MOV      R0,R11
        BL       aint1int
        SUB      R0,R0,#+1
        AND      R4,R0,#0xFF
        MOV      R1,R4
        MOV      R0,R11
        B        ??run_51
        DATA
??run_105:
        DC32     j_int_array1d_static_fld
        ARM
??run_211:
        CMP      R4,#+0
        BEQ      ??run_53
        LDRSB    R0,[R8, +R5]
        SUB      R6,R6,#+3
        ADD      R1,R0,#+1
        ADD      R8,R1,R8
        CMP      R0,#+0
        BPL      ??run_25
        CMN      R0,#+5
        BLT      ??run_25
        LDRSB    R1,[R8, +R5]
        CMN      R0,#+2
        BEQ      ??run_55
        CMN      R0,#+4
        BNE      ??run_212
        CMN      R1,#+91
        BNE      ??run_213
        B        ??run_55
??run_212:
        CMN      R0,#+5
        BNE      ??run_214
        CMN      R1,#+83
        B        ??run_60
??run_214:
        CMN      R0,#+3
        BNE      ??run_25
        CMN      R1,#+54
        BNE      ??run_215
        LDR      R0,??run_216     ;; 0x66666667
        SMULL    R1,R2,R0,R6
        ASR      R2,R2,#+1
        ADD      R1,R2,R6, LSR #+31
        CMP      R9,R1
        MOVLT    R1,R9
        SUB      R9,R9,R1
        ADD      R0,R1,R1, LSL #+2
        SUB      R6,R6,R0
        CMP      R9,#+0
        BNE      ??run_25
??run_217:
        MOV      R4,#+0
        ADD      R6,R6,#+1
        ADD      R8,R8,#+3
        B        ??run_25
??run_213:
        CMN      R1,#+22
        BNE      ??run_25
        ADD      R0,R8,R5
        LDRSB    R0,[R0, #+1]
        MVN      R1,#+53
        CMP      R0,R1
        BNE      ??run_25
        LDR      R0,??run_216+0x4  ;; 0xffffffff92492493
        SMULL    R1,R2,R0,R6
        ADD      R2,R2,R6
        ASR      R2,R2,#+2
        ADD      R1,R2,R6, LSR #+31
        CMP      R9,R1
        MOVLT    R1,R9
        SUB      R9,R9,R1
        RSB      R0,R1,R1, LSL #+3
        SUB      R6,R6,R0
        CMP      R9,#+0
        BNE      ??run_25
        MOV      R4,#+0
        ADD      R6,R6,#+1
        ADD      R8,R8,#+4
        B        ??run_25
??run_215:
        CMN      R1,#+120
        BNE      ??run_25
        LDR      R0,??run_216     ;; 0x66666667
        SMULL    R1,R2,R0,R6
        LDR      R1,[SP, #+0]
        ASR      R2,R2,#+1
        ADD      R0,R2,R6, LSR #+31
        CMP      R1,R0
        MOVLT    R0,R1
        SUB      R2,R1,R0
        STR      R2,[SP, #+0]
        ADD      R0,R0,R0, LSL #+2
        SUB      R6,R6,R0
        CMP      R2,#+0
        BNE      ??run_25
        B        ??run_217
??run_218:
        LDRSB    R0,[R8, +R5]
        ADD      R8,R8,#+1
        AND      R0,R0,#0xFF
        LDRSB    R1,[R0, +R5]
        ADD      R0,R0,R5
        LDRSB    R0,[R0, #+1]
        AND      R1,R1,#0xFF
        AND      R0,R0,#0xFF
        ORR      R0,R1,R0, LSL #+8
        LDR      R1,[SP, #+0]
        ADD      R0,R1,R0
        BL       aint1int
        SUBS     R0,R10,R0
        MOVMI    R7,#+0
        MOVPL    R7,#+1
        B        ??run_202
??run_219:
        LDRSB    R0,[R8, +R5]
        ADD      R8,R8,#+1
        ADD      R0,R9,R0
        AND      R0,R0,#0xFF
        LDRSB    R0,[R0, +R5]
        AND      R0,R0,#0xFF
        SUB      R0,R10,R0
        CMP      R0,#+0
        B        ??run_207
??run_220:
        LDRSB    R0,[R8, +R5]
        ADD      R8,R8,#+1
        ADD      R0,R9,R0
        AND      R0,R0,#0xFF
        LDRSB    R1,[R0, +R5]
        SUB      R1,R1,#+1
        STRB     R1,[R0, +R5]
        LDRSB    R0,[R0, +R5]
        B        ??run_197
??run_221:
        MOV      R1,#+0
??run_222:
        STR      R1,[SP, #+44]
        B        ??run_42
??run_223:
        LDRSB    R0,[R8, +R5]
        LDR      R11,??DataTable18  ;; j_int_array1d_static_fld
        ADD      R4,R8,#+1
        AND      R0,R0,#0xFF
        STR      R0,[R11, #+2524]
        LDRSB    R1,[R4, +R5]
        ADD      R8,R4,#+1
        AND      R1,R1,#0xFF
        ORR      R0,R0,R1, LSL #+8
        LDR      R1,[SP, #+0]
        ADD      R0,R1,R0
        B        ??run_209
??run_224:
        LDRSB    R0,[R8, +R5]
        LDR      R11,??DataTable18  ;; j_int_array1d_static_fld
        ADD      R4,R8,#+1
        AND      R0,R0,#0xFF
        STR      R0,[R11, #+2524]
        LDRSB    R1,[R4, +R5]
        ADD      R8,R4,#+1
        AND      R1,R1,#0xFF
        ORR      R0,R0,R1, LSL #+8
        ADD      R0,R9,R0
        BL       aint1int
        SUBS     R0,R10,R0
        MOVMI    R7,#+0
        MOVPL    R7,#+1
        AND      R4,R0,#0xFF
        B        ??run_38
??run_225:
        LDRSB    R0,[R8, +R5]
        LDR      R11,??DataTable18  ;; j_int_array1d_static_fld
        ADD      R1,R8,#+1
        AND      R0,R0,#0xFF
        STR      R0,[R11, #+2524]
        LDRSB    R2,[R1, +R5]
        ADD      R8,R1,#+1
        AND      R2,R2,#0xFF
        ORR      R0,R0,R2, LSL #+8
        ADD      R11,R9,R0
        MOV      R0,R11
        BL       aint1int
        SUB      R0,R0,#+1
        AND      R4,R0,#0xFF
        B        ??run_126
??run_226:
        LDRSB    R0,[R8, +R5]
        ADD      R8,R8,#+1
        AND      R0,R0,#0xFF
        SUB      R0,R9,R0
        B        ??run_195
??run_227:
        LDRSB    R0,[R8, +R5]
        ADD      R8,R8,#+1
        ADD      R0,R9,R0
        AND      R0,R0,#0xFF
        LDRSB    R1,[R0, +R5]
        ADD      R0,R0,R5
        LDRSB    R0,[R0, #+1]
        AND      R1,R1,#0xFF
        AND      R0,R0,#0xFF
        ORR      R0,R1,R0, LSL #+8
        BL       aint1int
        SUB      R1,R10,R0
        ADD      R1,R7,R1
        SUB      R1,R1,#+1
        EOR      R0,R0,R10
        EOR      R3,R1,R10
        AND      R0,R3,R0
        ASR      R0,R0,#+7
        STR      R0,[SP, #+12]
        CMP      R1,#+0
        MOVMI    R7,#+0
        MOVPL    R7,#+1
        AND      R10,R1,#0xFF
        B        ??run_30
??run_228:
        LDRSB    R0,[R8, +R5]
        ADD      R8,R8,#+1
        AND      R0,R0,#0xFF
        LDRSB    R0,[R0, +R5]
        AND      R0,R0,#0xFF
        SUB      R0,R9,R0
        B        ??run_199
??run_229:
        LDRSB    R0,[R8, +R5]
        ADD      R8,R8,#+1
        AND      R0,R0,#0xFF
        LDRSB    R0,[R0, +R5]
        AND      R0,R0,#0xFF
        SUB      R1,R10,R0
        ADD      R1,R7,R1
        SUB      R1,R1,#+1
        EOR      R0,R0,R10
        EOR      R3,R1,R10
        AND      R0,R3,R0
        ASR      R0,R0,#+7
        STR      R0,[SP, #+12]
        CMP      R1,#+0
        MOVMI    R7,#+0
        MOVPL    R7,#+1
        AND      R10,R1,#0xFF
        B        ??run_81
??run_230:
        LDRSB    R0,[R8, +R5]
        ADD      R8,R8,#+1
        AND      R0,R0,#0xFF
        LDRSB    R1,[R0, +R5]
        ADD      R1,R1,#+1
        STRB     R1,[R0, +R5]
        LDRSB    R0,[R0, +R5]
        B        ??run_202
??run_231:
        ADD      R0,R9,#+1
        AND      R9,R0,#0xFF
        B        ??run_177
??run_232:
        LDRSB    R0,[R8, +R5]
        ADD      R8,R8,#+1
        AND      R0,R0,#0xFF
        SUB      R1,R10,R0
        ADD      R1,R7,R1
        SUB      R1,R1,#+1
        EOR      R0,R0,R10
        EOR      R3,R1,R10
        AND      R0,R3,R0
        ASR      R0,R0,#+7
        STR      R0,[SP, #+12]
        CMP      R1,#+0
        MOVMI    R7,#+0
        MOVPL    R7,#+1
        AND      R10,R1,#0xFF
        B        ??run_87
??run_233:
        LDRSB    R0,[R8, +R5]
        ADD      R8,R8,#+1
        AND      R0,R0,#0xFF
        SUB      R1,R10,R0
        ADD      R1,R7,R1
        SUB      R1,R1,#+1
        EOR      R0,R0,R10
        EOR      R3,R1,R10
        AND      R0,R3,R0
        ASR      R0,R0,#+7
        STR      R0,[SP, #+12]
        CMP      R1,#+0
        MOVMI    R7,#+0
        MOVPL    R7,#+1
        AND      R10,R1,#0xFF
        B        ??run_41
??run_234:
        LDRSB    R0,[R8, +R5]
        LDR      R11,??DataTable18  ;; j_int_array1d_static_fld
        ADD      R4,R8,#+1
        AND      R0,R0,#0xFF
        STR      R0,[R11, #+2524]
        LDRSB    R1,[R4, +R5]
        ADD      R8,R4,#+1
        AND      R1,R1,#0xFF
        ORR      R0,R0,R1, LSL #+8
        BL       aint1int
        SUBS     R0,R9,R0
        MOVMI    R7,#+0
        MOVPL    R7,#+1
        AND      R4,R0,#0xFF
        B        ??run_45
??run_235:
        LDRSB    R0,[R8, +R5]
        LDR      R11,??DataTable18  ;; j_int_array1d_static_fld
        ADD      R4,R8,#+1
        AND      R0,R0,#0xFF
        STR      R0,[R11, #+2524]
        LDRSB    R1,[R4, +R5]
        ADD      R8,R4,#+1
        AND      R1,R1,#0xFF
        ORR      R0,R0,R1, LSL #+8
        BL       aint1int
        SUB      R1,R10,R0
        ADD      R1,R7,R1
        SUB      R1,R1,#+1
        EOR      R0,R0,R10
        EOR      R3,R1,R10
        AND      R0,R3,R0
        ASR      R0,R0,#+7
        STR      R0,[SP, #+12]
        CMP      R1,#+0
        MOVMI    R7,#+0
        MOVPL    R7,#+1
        AND      R10,R1,#0xFF
        B        ??run_66
??run_236:
        LDRSB    R0,[R8, +R5]
        LDR      R11,??DataTable18  ;; j_int_array1d_static_fld
        ADD      R1,R8,#+1
        AND      R0,R0,#0xFF
        STR      R0,[R11, #+2524]
        LDRSB    R2,[R1, +R5]
        ADD      R8,R1,#+1
        AND      R2,R2,#0xFF
        ORR      R11,R0,R2, LSL #+8
        MOV      R0,R11
        BL       aint1int
        ADD      R0,R0,#+1
        AND      R4,R0,#0xFF
        MOV      R1,R4
        MOV      R0,R11
        B        ??run_51
??run_237:
        CMP      R4,#+0
        BNE      ??run_53
        LDRSB    R0,[R8, +R5]
        SUB      R6,R6,#+3
        ADD      R1,R0,#+1
        ADD      R8,R1,R8
        CMP      R0,#+0
        BPL      ??run_25
        CMN      R0,#+5
        BLT      ??run_25
        LDRSB    R1,[R8, +R5]
        CMN      R0,#+4
        BNE      ??run_25
        CMN      R1,#+59
        BEQ      ??run_55
        CMN      R1,#+91
        B        ??run_60
??run_238:
        LDRSB    R0,[R8, +R5]
        ADD      R8,R8,#+1
        AND      R0,R0,#0xFF
        LDRSB    R1,[R0, +R5]
        ADD      R0,R0,R5
        LDRSB    R0,[R0, #+1]
        AND      R1,R1,#0xFF
        AND      R0,R0,#0xFF
        ORR      R0,R1,R0, LSL #+8
        LDR      R1,[SP, #+0]
        ADD      R0,R1,R0
        BL       aint1int
        SUB      R1,R10,R0
        ADD      R1,R7,R1
        SUB      R1,R1,#+1
        EOR      R0,R0,R10
        EOR      R3,R1,R10
        AND      R0,R3,R0
        ASR      R0,R0,#+7
        STR      R0,[SP, #+12]
        CMP      R1,#+0
        MOVMI    R7,#+0
        MOVPL    R7,#+1
        AND      R10,R1,#0xFF
        B        ??run_63
??run_239:
        LDRSB    R0,[R8, +R5]
        ADD      R8,R8,#+1
        ADD      R0,R9,R0
        AND      R0,R0,#0xFF
        LDRSB    R0,[R0, +R5]
        AND      R0,R0,#0xFF
        SUB      R1,R10,R0
        ADD      R1,R7,R1
        SUB      R1,R1,#+1
        EOR      R0,R0,R10
        EOR      R3,R1,R10
        AND      R0,R3,R0
        ASR      R0,R0,#+7
        STR      R0,[SP, #+12]
        CMP      R1,#+0
        MOVMI    R7,#+0
        MOVPL    R7,#+1
        AND      R10,R1,#0xFF
        B        ??run_48
??run_240:
        LDRSB    R0,[R8, +R5]
        ADD      R8,R8,#+1
        ADD      R0,R9,R0
        AND      R0,R0,#0xFF
        LDRSB    R1,[R0, +R5]
        ADD      R1,R1,#+1
        STRB     R1,[R0, +R5]
        LDRSB    R0,[R0, +R5]
        B        ??run_197
??run_241:
        MOV      R1,#+1
        B        ??run_222
??run_242:
        LDRSB    R0,[R8, +R5]
        LDR      R11,??DataTable18  ;; j_int_array1d_static_fld
        ADD      R4,R8,#+1
        AND      R0,R0,#0xFF
        STR      R0,[R11, #+2524]
        LDRSB    R1,[R4, +R5]
        ADD      R8,R4,#+1
        AND      R1,R1,#0xFF
        ORR      R0,R0,R1, LSL #+8
        LDR      R1,[SP, #+0]
        ADD      R0,R1,R0
        BL       aint1int
        SUB      R1,R10,R0
        ADD      R1,R7,R1
        SUB      R1,R1,#+1
        EOR      R0,R0,R10
        EOR      R3,R1,R10
        AND      R0,R3,R0
        ASR      R0,R0,#+7
        STR      R0,[SP, #+12]
        CMP      R1,#+0
        MOVMI    R7,#+0
        MOVPL    R7,#+1
        AND      R10,R1,#0xFF
        B        ??run_66
??run_243:
        LDRSB    R0,[R8, +R5]
        LDR      R11,??DataTable18  ;; j_int_array1d_static_fld
        ADD      R4,R8,#+1
        AND      R0,R0,#0xFF
        STR      R0,[R11, #+2524]
        LDRSB    R1,[R4, +R5]
        ADD      R8,R4,#+1
        AND      R1,R1,#0xFF
        ORR      R0,R0,R1, LSL #+8
        ADD      R0,R9,R0
        BL       aint1int
        SUB      R1,R10,R0
        ADD      R1,R7,R1
        SUB      R1,R1,#+1
        EOR      R0,R0,R10
        EOR      R3,R1,R10
        AND      R0,R3,R0
        ASR      R0,R0,#+7
        STR      R0,[SP, #+12]
        CMP      R1,#+0
        MOVMI    R7,#+0
        MOVPL    R7,#+1
        AND      R10,R1,#0xFF
        B        ??run_102
??run_244:
        LDRSB    R0,[R8, +R5]
        LDR      R11,??DataTable18  ;; j_int_array1d_static_fld
        ADD      R1,R8,#+1
        AND      R0,R0,#0xFF
        STR      R0,[R11, #+2524]
        LDRSB    R2,[R1, +R5]
        ADD      R8,R1,#+1
        AND      R2,R2,#0xFF
        ORR      R0,R0,R2, LSL #+8
        ADD      R11,R9,R0
        MOV      R0,R11
        BL       aint1int
        ADD      R0,R0,#+1
        AND      R4,R0,#0xFF
        B        ??run_74
??run_58:
        LDR      R0,??run_216+0x8  ;; j_int_array1d_static_fld + 3200
        LDRB     R0,[R0, #+0]
        CMP      R0,#+0
        BEQ      ??run_56
        ADD      R1,R1,#+133
        MOV      R0,#+255
        ORR      R0,R0,#0xFF00
        CMP      R1,R0
        BLT      ??run_56
        MOV      R1,#+0
??run_59:
        LDR      R0,[SP, #+24]
        CMP      R0,#+0
        BNE      ??run_56
        LDR      R0,[SP, #+16]
        LDR      R3,[SP, #+4]
        LDR      R11,??DataTable18  ;; j_int_array1d_static_fld
        SUB      R2,R8,R0
        MOV      R0,#+256
        ADD      R3,R3,R5
        ASR      R8,R2,#+8
        STRB     R8,[R0, +R3]
        LDR      R3,[SP, #+4]
        CMP      R4,#+0
        SUB      R3,R3,#+1
        ADD      R8,R3,R5
        STRB     R2,[R0, +R8]
        SUB      R0,R3,#+1
        SUB      R3,R0,#+1
        STR      R3,[SP, #+4]
        MOVEQ    R2,#+2
        MOVNE    R2,#+0
        ORR      R2,R2,R7
        ASR      R3,R4,#+7
        ORR      R2,R2,R3, LSL #+7
        LDR      R3,[SP, #+12]
        ADD      R0,R0,R5
        ORR      R2,R2,R3, LSL #+6
        STRB     R2,[R0, #+256]
        MOV      R2,#+164
        ORR      R2,R2,#0x900
        LDR      R2,[R2, +R11]
        MOV      R0,#+254
        ORR      R0,R0,#0xFF00
        ADD      R2,R2,R5
        ADD      R2,R0,R2
        LDRSB    R3,[R2, #+0]
        LDRSB    R2,[R2, #+1]
        AND      R3,R3,#0xFF
        AND      R2,R2,#0xFF
        ORR      R2,R3,R2, LSL #+8
        STR      R2,[SP, #+8]
        ASR      R2,R2,#+13
        ADD      R2,R11,R2, LSL #+2
        LDR      R2,[R2, #+2440]
        ADD      R6,R6,#+7
        STR      R2,[SP, #+16]
        LDR      R0,[SP, #+8]
        ADD      R8,R2,R0
        MOV      R2,#+1
        STR      R2,[SP, #+24]
??run_56:
        LDR      R11,??DataTable18  ;; j_int_array1d_static_fld
        STR      R1,[R11, #+2620]
        LDRB     R0,[R11, #+3204]
        CMP      R0,#+0
        BEQ      ??run_245
        LDR      R0,[SP, #+20]
        CMP      R0,#+240
        BNE      ??run_246
        LDR      R0,??run_216+0xC  ;; j_int_array1d_static_fld + 2568
        LDR      R0,[R0, #+0]
        TST      R0,#0x18
        BEQ      ??run_246
        LDR      R0,[R11, #+2676]
        LDR      R1,[SP, #+40]
        SUB      R0,R0,R1
        LDR      R1,??run_216+0x10  ;; LastTmrVal
        STR      R0,[R11, #+2676]
        LDR      R0,[SP, #+32]
        LDR      R1,[R1, #+0]
        STR      R0,[R11, #+3156]
        LDR      R0,??DataTable21  ;; 0xfffffffff4b00018
        LDR      R0,[R0, #+0]
        CMP      R0,R1
        BGE      ??run_247
??run_248:
        BL       `c0`
        LDR      R0,??DataTable21  ;; 0xfffffffff4b00018
        LDR      R1,??run_216+0x10  ;; LastTmrVal
        LDR      R0,[R0, #+0]
        LDR      R1,[R1, #+0]
        CMP      R0,R1
        BLT      ??run_248
??run_247:
        LDR      R2,??run_216+0x14  ;; j_int_array1d_static_fld + 2884
        LDR      R0,??run_216+0x10  ;; LastTmrVal
        LDR      R2,[R2, #+0]
        LDR      R1,[R0, #+0]
        MOV      R3,#+10
        MLA      R1,R3,R2,R1
        STR      R1,[R0, #+0]
        MOV      R1,#+0
        STR      R1,[SP, #+40]
??run_245:
        LDR      R0,??run_216+0x18  ;; j_int_array1d_static_fld + 3204
        LDRB     R0,[R0, #+0]
        CMP      R0,#+0
        BNE      ??run_246
        LDR      R0,[SP, #+20]
        CMP      R0,#+240
        BGE      ??run_246
        LDR      R0,??run_216+0xC  ;; j_int_array1d_static_fld + 2568
        LDR      R0,[R0, #+0]
        TST      R0,#0x18
        BEQ      ??run_246
        LDRB     R0,[SP, #+64]
        CMP      R0,#+0
        BEQ      ??run_249
        LDR      R0,[R11, #+2644]
        MOV      R1,#+224
        ORR      R1,R1,#0xFB00
        AND      R0,R1,R0
        LDR      R1,[R11, #+2640]
        MOV      R2,#+31
        ORR      R2,R2,#0x400
        AND      R1,R2,R1
        ORR      R0,R1,R0
        STR      R0,[R11, #+2644]
        LDR      R0,[R11, #+2676]
        LDR      R1,[SP, #+40]
        SUB      R0,R0,R1
        STR      R0,[R11, #+2676]
        LDR      R0,[SP, #+32]
        STR      R0,[R11, #+3156]
        LDR      R0,[SP, #+20]
        ADD      R0,R0,R11
        LDRB     R0,[R0, #+3216]
        CMP      R0,#+0
        LDR      R0,[SP, #+20]
        BEQ      ??run_250
        BL       xd
        B        ??run_251
??run_250:
        BL       avoid1int
??run_251:
        LDR      R0,[SP, #+20]
        CMP      R0,#+239
        BNE      ??run_252
??run_253:
        LDR      R0,??DataTable21  ;; 0xfffffffff4b00018
        LDR      R1,??run_216+0x10  ;; LastTmrVal
        LDR      R0,[R0, #+0]
        LDR      R1,[R1, #+0]
        CMP      R0,R1
        BLT      ??run_253
        LDR      R2,??run_216+0x14  ;; j_int_array1d_static_fld + 2884
        LDR      R0,??run_216+0x10  ;; LastTmrVal
        LDR      R2,[R2, #+0]
        MOV      R3,#+10
        MLA      R1,R3,R2,R1
        STR      R1,[R0, #+0]
        _BLF     repaint,??repaint??rA
??run_252:
        LDR      R0,??run_216+0x1C  ;; j_int_array1d_static_fld + 2644
        MOV      R1,#+0
        STR      R1,[SP, #+40]
        LDR      R0,[R0, #+0]
        AND      R0,R0,#0x7000
        CMP      R0,#+28672
        LDR      R0,[R11, #+2644]
        BNE      ??run_254
        MOV      R1,#+255
        ORR      R1,R1,#0x8F00
        AND      R0,R1,R0
        STR      R0,[R11, #+2644]
        AND      R0,R0,#0x3E0
        CMP      R0,#+928
        BNE      ??run_255
        LDR      R0,[R11, #+2644]
        EOR      R0,R0,#0x800
??run_256:
        MOV      R1,#+31
        ORR      R1,R1,#0xFC00
        AND      R0,R1,R0
??run_257:
        STR      R0,[R11, #+2644]
        B        ??run_246
??run_255:
        LDR      R0,??run_216+0x1C  ;; j_int_array1d_static_fld + 2644
        LDR      R0,[R0, #+0]
        AND      R0,R0,#0x3E0
        CMP      R0,#+992
        LDR      R0,[R11, #+2644]
        BEQ      ??run_256
        ADD      R0,R0,#+32
        B        ??run_257
??run_254:
        ADD      R0,R0,#+4096
        B        ??run_257
??run_249:
        LDR      R0,[SP, #+20]
        BL       xd
??run_246:
        LDR      R1,[SP, #+20]
        ADD      R1,R1,#+1
        STR      R1,[SP, #+20]
        MOV      R0,R1
        MOV      R1,#+6
        ORR      R1,R1,#0x100
        CMP      R0,R1
        BLT      ??run_15
        LDR      R1,[SP, #+32]
        ADD      R1,R1,#+1
        STR      R1,[SP, #+32]
        LDRB     R1,[R11, #+3212]
        LDR      R0,[R11, #+2628]
        CMP      R1,#+0
        BEQ      ??run_258
        LDR      R1,[SP, #+32]
        AND      R0,R0,#0xFE
        AND      R1,R1,#0x1
        ORR      R0,R1,R0
??run_258:
        LDR      R1,??run_216+0x20  ;; j_int_array1d_static_fld + 3213
        LDRB     R1,[R1, #+0]
        CMP      R1,#+0
        BEQ      ??run_259
        LDR      R1,[SP, #+32]
        AND      R0,R0,#0xFD
        AND      R1,R1,#0x1
        ORR      R0,R0,R1, LSL #+1
??run_259:
        LDR      R1,??run_216+0x24  ;; j_int_array1d_static_fld + 2628
        STR      R0,[R1, #+0]
        LDR      R0,[SP, #+60]
        LSLS     R0,R0,#+24
        BEQ      ??run_260
        LDR      R0,[SP, #+32]
        CMP      R0,#+0
        BNE      ??run_260
        MOV      R2,#+0
        STR      R2,[SP, #+60]
        MOV      R1,#+1
??run_261:
        ADD      R2,SP,#+472
        LDR      R2,[R2, +R0, LSL #+2]
        ADD      R3,SP,#+472
        LDR      R3,[R3, +R1, LSL #+2]
        CMP      R2,R3
        MOVLT    R0,R1
        ADD      R1,R1,#+1
        CMP      R1,#+100
        BLT      ??run_261
        ADD      R1,SP,#+472
        LDR      R1,[R1, +R0, LSL #+2]
        CMP      R1,#+8000
        ADDGE    R2,SP,#+72
        LDRGE    R0,[R2, +R0, LSL #+2]
        MVNLT    R1,#-2147483648
        STRGE    R0,[SP, #+28]
        LDR      R0,??run_216+0x28  ;; j_int_array1d_static_fld + 2676
        STRLT    R1,[SP, #+28]
        MOV      R1,#+0
        STR      R1,[R0, #+0]
        STR      R1,[SP, #+40]
??run_260:
        LDR      R0,??run_216+0x2C  ;; j_int_array1d_static_fld + 3205
        LDRB     R0,[R0, #+0]
        CMP      R0,#+0
        BEQ      ??run_262
        LDR      R0,[R11, #+2676]
        LDR      R1,[SP, #+40]
        SUB      R0,R0,R1
        STR      R0,[R11, #+2676]
        MOV      R1,#+0
        STR      R1,[SP, #+40]
??run_262:
        LDR      R0,??run_216+0x30  ;; j_int_array1d_static_fld + 3207
        LDRB     R0,[R0, #+0]
        CMP      R0,#+0
        BEQ      ??run_6
        MOV      R0,#+0
        STRB     R0,[R11, #+3207]
        LDRB     R0,[R11, #+3210]
        CMP      R0,#+0
        BEQ      ??run_263
// 2280         } while(true);
// 2281         s_boolean_static_fld = n_boolean_static_fld = false;
        LDR      R0,??run_216+0x34  ;; j_int_array1d_static_fld + 3210
        MOV      R1,#+0
        STRB     R1,[R0, #+0]
// 2282     }
        ADD      SP,SP,#+872
        CFI CFA R13+36
        POP      {R4-R11,PC}
        CFI CFA R13+908
??run_263:
        LDR      R0,??run_216+0x38  ;; j_int_array1d_static_fld + 3209
        LDRB     R0,[R0, #+0]
        CMP      R0,#+0
        BEQ      ??run_264
        LDR      R0,??run_216+0x38  ;; j_int_array1d_static_fld + 3209
        MOV      R1,#+0
        STRB     R1,[R0, #+0]
        MOV      R0,#+1
        BL       openstream
        CMN      R0,#+1
        BEQ      ??run_264
        AND      R0,R10,#0xFF
        BL       bytearrayoutputstreamwrite
        AND      R0,R9,#0xFF
        BL       bytearrayoutputstreamwrite
        LDR      R0,[SP, #+0]
        AND      R0,R0,#0xFF
        BL       bytearrayoutputstreamwrite
        AND      R0,R7,#0xFF
        BL       bytearrayoutputstreamwrite
        AND      R0,R4,#0xFF
        BL       bytearrayoutputstreamwrite
        LDR      R0,[SP, #+24]
        AND      R0,R0,#0xFF
        BL       bytearrayoutputstreamwrite
        LDR      R0,[SP, #+44]
        AND      R0,R0,#0xFF
        BL       bytearrayoutputstreamwrite
        LDR      R0,[SP, #+48]
        AND      R0,R0,#0xFF
        BL       bytearrayoutputstreamwrite
        LDR      R0,[SP, #+52]
        AND      R0,R0,#0xFF
        BL       bytearrayoutputstreamwrite
        LDR      R0,[SP, #+12]
        AND      R0,R0,#0xFF
        BL       bytearrayoutputstreamwrite
        LDR      R0,[SP, #+56]
        AND      R0,R0,#0xFF
        BL       bytearrayoutputstreamwrite
        LDR      R0,[SP, #+4]
        AND      R0,R0,#0xFF
        BL       bytearrayoutputstreamwrite
        LDR      R0,[SP, #+8]
        AND      R0,R0,#0xFF
        BL       bytearrayoutputstreamwrite
        LDR      R0,[SP, #+8]
        MOV      R1,#+255
        AND      R0,R1,R0, ASR #+8
        BL       bytearrayoutputstreamwrite
        AND      R0,R8,#0xFF
        BL       bytearrayoutputstreamwrite
        MOV      R0,#+255
        AND      R0,R0,R8, ASR #+8
        BL       bytearrayoutputstreamwrite
        MOV      R0,#+255
        AND      R0,R0,R8, ASR #+16
        BL       bytearrayoutputstreamwrite
        MOV      R0,#+255
        AND      R0,R0,R8, ASR #+24
        BL       bytearrayoutputstreamwrite
        LDR      R0,[SP, #+16]
        AND      R0,R0,#0xFF
        BL       bytearrayoutputstreamwrite
        LDR      R0,[SP, #+16]
        MOV      R1,#+255
        AND      R0,R1,R0, ASR #+8
        BL       bytearrayoutputstreamwrite
        LDR      R0,[SP, #+16]
        MOV      R1,#+255
        AND      R0,R1,R0, ASR #+16
        BL       bytearrayoutputstreamwrite
        LDR      R0,[SP, #+16]
        MOV      R1,#+255
        AND      R0,R1,R0, ASR #+24
        BL       bytearrayoutputstreamwrite
        LDR      R0,[SP, #+28]
        AND      R0,R0,#0xFF
        BL       bytearrayoutputstreamwrite
        LDR      R0,[SP, #+28]
        MOV      R1,#+255
        AND      R0,R1,R0, ASR #+8
        BL       bytearrayoutputstreamwrite
        LDR      R0,[SP, #+28]
        MOV      R1,#+255
        AND      R0,R1,R0, ASR #+16
        BL       bytearrayoutputstreamwrite
        LDR      R0,[SP, #+28]
        MOV      R1,#+255
        AND      R0,R1,R0, ASR #+24
        BL       bytearrayoutputstreamwrite
        AND      R0,R6,#0xFF
        BL       bytearrayoutputstreamwrite
        LDR      R0,??run_216+0x2C  ;; j_int_array1d_static_fld + 3205
        LDRB     R0,[R0, #+0]
        CMP      R0,#+0
        MOVNE    R0,#+255
        BL       bytearrayoutputstreamwrite
        BL       c_out
        BL       b_out
        BL       closestream
??run_264:
        LDR      R0,??run_216+0x3C  ;; j_int_array1d_static_fld + 3201
        LDRB     R0,[R0, #+0]
        CMP      R0,#+0
        BEQ      ??run_5
        LDR      R0,??run_216+0x3C  ;; j_int_array1d_static_fld + 3201
        MOV      R1,#+0
        STRB     R1,[R0, #+0]
        MOV      R0,#+0
        BL       openstream
        CMN      R0,#+1
        BEQ      ??run_5
        BL       bytearrayinputstreamread
        AND      R10,R0,#0xFF
        BL       bytearrayinputstreamread
        AND      R9,R0,#0xFF
        BL       bytearrayinputstreamread
        AND      R0,R0,#0xFF
        STR      R0,[SP, #+0]
        BL       bytearrayinputstreamread
        AND      R7,R0,#0xFF
        BL       bytearrayinputstreamread
        AND      R4,R0,#0xFF
        BL       bytearrayinputstreamread
        AND      R0,R0,#0xFF
        STR      R0,[SP, #+24]
        BL       bytearrayinputstreamread
        AND      R0,R0,#0xFF
        STR      R0,[SP, #+44]
        BL       bytearrayinputstreamread
        AND      R0,R0,#0xFF
        STR      R0,[SP, #+48]
        BL       bytearrayinputstreamread
        AND      R0,R0,#0xFF
        STR      R0,[SP, #+52]
        BL       bytearrayinputstreamread
        AND      R0,R0,#0xFF
        STR      R0,[SP, #+12]
        BL       bytearrayinputstreamread
        AND      R0,R0,#0xFF
        STR      R0,[SP, #+56]
        BL       bytearrayinputstreamread
        AND      R0,R0,#0xFF
        STR      R0,[SP, #+4]
        BL       bytearrayinputstreamread
        AND      R6,R0,#0xFF
        BL       bytearrayinputstreamread
        AND      R0,R0,#0xFF
        ORR      R0,R6,R0, LSL #+8
        STR      R0,[SP, #+8]
        BL       bytearrayinputstreamread
        AND      R6,R0,#0xFF
        BL       bytearrayinputstreamread
        AND      R0,R0,#0xFF
        ORR      R6,R6,R0, LSL #+8
        BL       bytearrayinputstreamread
        AND      R0,R0,#0xFF
        ORR      R6,R6,R0, LSL #+16
        BL       bytearrayinputstreamread
        ORR      R8,R6,R0, LSL #+24
        BL       bytearrayinputstreamread
        AND      R6,R0,#0xFF
        BL       bytearrayinputstreamread
        AND      R0,R0,#0xFF
        ORR      R6,R6,R0, LSL #+8
        BL       bytearrayinputstreamread
        AND      R0,R0,#0xFF
        ORR      R6,R6,R0, LSL #+16
        BL       bytearrayinputstreamread
        ORR      R0,R6,R0, LSL #+24
        STR      R0,[SP, #+16]
        BL       bytearrayinputstreamread
        AND      R6,R0,#0xFF
        BL       bytearrayinputstreamread
        AND      R0,R0,#0xFF
        ORR      R6,R6,R0, LSL #+8
        BL       bytearrayinputstreamread
        AND      R0,R0,#0xFF
        ORR      R6,R6,R0, LSL #+16
        BL       bytearrayinputstreamread
        ORR      R0,R6,R0, LSL #+24
        STR      R0,[SP, #+28]
        BL       bytearrayinputstreamread
        MOV      R6,R0, LSL #+24
        MOV      R6,R6, ASR #+24
        BL       bytearrayinputstreamread
        CMP      R0,#+255
        MOVNE    R0,#+0
        MOVEQ    R0,#+1
        B        ??run_4
        DATA
??run_216:
        DC32     0x66666667
        DC32     0xffffffff92492493
        DC32     j_int_array1d_static_fld + 3200
        DC32     j_int_array1d_static_fld + 2568
        DC32     LastTmrVal
        DC32     j_int_array1d_static_fld + 2884
        DC32     j_int_array1d_static_fld + 3204
        DC32     j_int_array1d_static_fld + 2644
        DC32     j_int_array1d_static_fld + 3213
        DC32     j_int_array1d_static_fld + 2628
        DC32     j_int_array1d_static_fld + 2676
        DC32     j_int_array1d_static_fld + 3205
        DC32     j_int_array1d_static_fld + 3207
        DC32     j_int_array1d_static_fld + 3210
        DC32     j_int_array1d_static_fld + 3209
        DC32     j_int_array1d_static_fld + 3201
        CFI EndBlock cfiBlock27

        RSEG CODE:CODE:NOROOT(2)
        DATA
??DataTable18:
        DC32     j_int_array1d_static_fld

        RSEG CODE:CODE:NOROOT(2)
        DATA
??DataTable21:
        DC32     0xfffffffff4b00018

        RSEG CODE:CODE:NOROOT(2)
        CFI Block cfiBlock28 Using cfiCommon0
        CFI NoFunction
        THUMB
??xxf??rT:
        BX       PC
        Nop      
        CFI EndBlock cfiBlock28
        REQUIRE xxf
// 2283 
// 2284 
// 2285 

        RSEG CODE:CODE:NOROOT(2)
        CFI Block cfiBlock29 Using cfiCommon1
        CFI Function xxf
        ARM
// 2286     static void xxf(int i1, int j1) {
xxf:
        PUSH     {R4-R9,LR}
        CFI ?RET Frame(CFA, -4)
        CFI R9 Frame(CFA, -8)
        CFI R8 Frame(CFA, -12)
        CFI R7 Frame(CFA, -16)
        CFI R6 Frame(CFA, -20)
        CFI R5 Frame(CFA, -24)
        CFI R4 Frame(CFA, -28)
        CFI CFA R13+28
// 2287     int l1,k1,i2,j2,k2,l2,i3,j3,k3,l3,i4;
// 2288 //label0:
// 2289         switch(w) {
        LDR      R6,??DataTable24  ;; j_int_array1d_static_fld
        MOV      R4,R1
        LDR      R9,[R6, #+2548]
        LDR      R5,[R6, #+2552]
        MOV      R8,#+168
        ORR      R8,R8,#0x900
        ORR      R1,R8,#0x4
        MOV      R2,#+2480
        MOV      R7,#+0
        MOV      R3,#+1
        SUB      R9,R9,#+1
        CMP      R9,#+14
        POPHI    {R4-R9,PC}
        ADR      R12,??xxf_0
        MOV      R9,R9, LSL #+1
        LDRH     R12,[R12, R9]
        ADD      PC,PC,R12, LSL #+2
        DATA
??xxf_0:
        DC16     +7,+223,+231,+249
        DC16     +568,+343,+380,+395
        DC16     +568,+568,+406,+568
        DC16     +568,+568,+458,+0
        ARM
// 2290         case 5: // '\005'
// 2291         case 9: // '\t'
// 2292         case 10: // '\n'
// 2293         case 12: // '\f'
// 2294         case 13: // '\r'
// 2295         case 14: // '\016'
// 2296         default:
// 2297             break;
// 2298 
// 2299         case 1: // '\001'
// 2300             if((i1 & 0x6000) != (X & 0x6000)) {
??xxf_2:
        LDR      R12,[R6, #+2636]
        AND      R9,R0,#0x6000
        AND      R12,R12,#0x6000
        CMP      R9,R12
// 2301                 M = 0;
        STRNE    R7,[R6, #+3180]
// 2302                 H = 0;
        STRNE    R7,[R6, #+2584]
// 2303             }
// 2304             X = i1;
        STR      R0,[R6, #+2636]
// 2305             if((j1 & 0x80) != 0) {
        TST      R4,#0x80
// 2306                 M = 0;
        STRNE    R7,[R6, #+3180]
// 2307                 H = 0;
        STRNE    R7,[R6, #+2584]
// 2308                 return;
        POPNE    {R4-R9,PC}
// 2309             }
// 2310             if((j1 & 1) != 0)
        LDR      R12,[R6, #+3180]
        TST      R4,#0x1
// 2311                 H |= 1 << M;
        LDRNE    R4,[R6, #+2584]
        ORRNE    R4,R4,R3, LSL R12
        STRNE    R4,[R6, #+2584]
// 2312             M++;
        ADD      R4,R12,#+1
        STR      R4,[R6, #+3180]
// 2313             if(M < 5)
        CMP      R4,#+5
        POPLT    {R4-R9,PC}
// 2314                 return;
// 2315             k1 = (i1 & 0x7fff) >> 13;
// 2316             d_int_array1d_static_fld[k1] = H;
        LDR      R4,[R6, #+2584]
        LSL      R0,R0,#+17
        LSR      R0,R0,#+17
        ASR      LR,R0,#+13
        ADD      R0,R6,LR, LSL #+2
        STR      R4,[R0, #+2472]
// 2317             M = 0;
// 2318             l1 = H;
// 2319             H = 0;
// 2320             switch(k1) {
        LDR      R0,[R6, #+2668]
        LDR      R12,[R6, #+2664]
        STR      R7,[R6, #+3180]
        STR      R7,[R6, #+2584]
        CMP      LR,#+0
        BEQ      ??xxf_3
        SUBS     LR,LR,#+1
        BEQ      ??xxf_4
        SUBS     LR,LR,#+1
        BEQ      ??xxf_5
        SUBS     LR,LR,#+1
        BEQ      ??xxf_6
        POP      {R4-R9,PC}
// 2321             default:
// 2322                 //break label0;
// 2323                 goto label0;
// 2324 
// 2325             case 0: // '\0'
// 2326                 if((d_int_array1d_static_fld[0] & 2) != 0) {
??xxf_3:
        LDR      R8,[R8, +R6]
        TST      R8,#0x2
        BEQ      ??xxf_7
// 2327                     if((d_int_array1d_static_fld[0] & 1) != 0)
        TST      R8,#0x1
// 2328                         avoid4int(0, 0, 1, 1);
        MOVNE    R2,#+1
        MOVNE    R1,R7
        BNE      ??xxf_8
// 2329                     else
// 2330                         avoid4int(0, 1, 0, 1);
        MOV      R2,#+0
        MOV      R1,R3
        B        ??xxf_9
// 2331                     goto label0;
// 2332                     //break label0;
// 2333                 }
// 2334                 if((d_int_array1d_static_fld[0] & 1) != 0)
??xxf_7:
        TST      R8,#0x1
        BEQ      ??xxf_10
// 2335                     avoid4int(1, 1, 1, 1);
        B        ??xxf_11
// 2336                 else
// 2337                     avoid4int(0, 0, 0, 0);
// 2338                 goto label0;
// 2339                 //break label0;
// 2340 
// 2341             case 1: // '\001'
// 2342                 if(U == 1024) {
??xxf_4:
        LDR      R8,[R8, +R6]
        LDR      R1,[R1, +R6]
        AND      LR,R8,#0x10
        AND      R9,R1,#0x10
        ASR      R9,R9,#+4
        CMP      R12,#+1024
        BNE      ??xxf_12
// 2343                     if((d_int_array1d_static_fld[0] & 0x10) != 0) {
        CMP      LR,#+0
        BEQ      ??xxf_13
// 2344                         if(d_int_static_fld != 0) {
        CMP      R0,#+0
        BEQ      ??xxf_14
// 2345                             m_int_static_fld = (d_int_array1d_static_fld[1] & 0x10) >> 4;
// 2346                             if((d_int_array1d_static_fld[0] & 8) != 0)
        TST      R8,#0x8
// 2347                                 m_int_static_fld |= (d_int_array1d_static_fld[2] & 0x10) >> 3;
        LDRNE    R0,[R2, +R6]
        ANDNE    R0,R0,#0x10
        ORRNE    R9,R9,R0, ASR #+3
        STR      R9,[R6, #+2672]
// 2348                             k();
        BL       k
// 2349                             d_int_static_fld = 0;
        STR      R7,[R6, #+2668]
        POP      {R4-R9,PC}
// 2350                         } else {
// 2351                             d_int_static_fld = 1;
??xxf_14:
        STR      R3,[R6, #+2668]
        POP      {R4-R9,PC}
// 2352                         }
// 2353                     } else {
// 2354                         m_int_static_fld = (d_int_array1d_static_fld[1] & 0x10) != 0 ? 3 : 0;
??xxf_13:
        TST      R1,#0x10
        STREQ    R7,[R6, #+2672]
        MOVNE    R0,#+3
        STRNE    R0,[R6, #+2672]
        B        ??xxf_15
// 2355                         k();
// 2356                     }
// 2357                     goto label0;
// 2358                     //break label0;
// 2359                 }
// 2360                 if(U == 512 && P == 0) {
??xxf_12:
        CMP      R12,#+512
        CMPEQ    R5,#+0
        BNE      ??xxf_16
// 2361                     m_int_static_fld = (d_int_array1d_static_fld[1] & 0x10) >> 4;
        STR      R9,[R6, #+2672]
// 2362                     k();
??xxf_17:
        BL       k
// 2363                     goto label0;
        POP      {R4-R9,PC}
// 2364                     //break label0;
// 2365                 }
// 2366                 if(P != 0) {
??xxf_16:
        LSL      R4,R4,#+2
        CMP      R5,#+0
        BEQ      ??xxf_18
// 2367                     if((d_int_array1d_static_fld[0] & 0x10) != 0) {
        CMP      LR,#+0
        BEQ      ??xxf_19
// 2368                         l1 <<= 2;
// 2369                         c(0, l1 + 0 << 10);
        LSL      R1,R4,#+10
        MOV      R0,#+0
        BL       c
// 2370                         c(1, l1 + 1 << 10);
        ADD      R0,R4,#+1
        LSL      R1,R0,#+10
        MOV      R0,#+1
        BL       c
// 2371                         c(2, l1 + 2 << 10);
        ADD      R0,R4,#+2
        LSL      R1,R0,#+10
        MOV      R0,#+2
        BL       c
// 2372                         c(3, l1 + 3 << 10);
        ADD      R0,R4,#+3
        LSL      R1,R0,#+10
        MOV      R0,#+3
        BL       c
        POP      {R4-R9,PC}
// 2373                     } else {
// 2374                         l1 <<= 2;
// 2375                         avoid8int(l1 + 0, l1 + 1, l1 + 2, l1 + 3, l1 + 4, l1 + 5, l1 + 6, l1 + 7);
??xxf_19:
        ADD      R0,R4,#+7
        PUSH     {R0}
        CFI CFA R13+32
        ADD      R3,R4,#+3
        ADD      R2,R4,#+2
        ADD      R1,R4,#+1
        ADD      R0,R4,#+6
        PUSH     {R0}
        CFI CFA R13+36
        ADD      R0,R4,#+5
        PUSH     {R0}
        CFI CFA R13+40
        ADD      R0,R4,#+4
        PUSH     {R0}
        CFI CFA R13+44
        MOV      R0,R4
        BL       avoid8int
        ADD      SP,SP,#+16
        CFI CFA R13+28
        POP      {R4-R9,PC}
// 2376                     }
// 2377                     goto label0;
// 2378                     //break label0;
// 2379                 }
// 2380                 if((d_int_array1d_static_fld[0] & 0x10) != 0) {
??xxf_18:
        CMP      LR,#+0
        POPEQ    {R4-R9,PC}
// 2381                     l1 <<= 2;
// 2382                     bvoid2int(0, l1 + 0);
        MOV      R1,R4
        MOV      R0,#+0
        BL       bvoid2int
// 2383                     bvoid2int(1, l1 + 1);
        ADD      R1,R4,#+1
        MOV      R0,#+1
        BL       bvoid2int
// 2384                     bvoid2int(2, l1 + 2);
        ADD      R1,R4,#+2
        MOV      R0,#+2
        BL       bvoid2int
// 2385                     bvoid2int(3, l1 + 3);
        ADD      R1,R4,#+3
        MOV      R0,#+3
        B        ??xxf_20
// 2386                 }
// 2387                 goto label0;
// 2388                 //break label0;
// 2389 
// 2390             case 2: // '\002'
// 2391                 if(U == 1024 && (d_int_array1d_static_fld[0] & 8) != 0)
??xxf_5:
        LDR      R8,[R8, +R6]
        CMP      R12,#+1024
        BNE      ??xxf_21
        TST      R8,#0x8
        BEQ      ??xxf_21
// 2392                     if(d_int_static_fld != 0) {
        CMP      R0,#+0
        BEQ      ??xxf_22
// 2393                         m_int_static_fld = (d_int_array1d_static_fld[1] & 0x10) >> 4;
// 2394                         m_int_static_fld |= (d_int_array1d_static_fld[2] & 0x10) >> 3;
        LDR      R0,[R1, +R6]
        LDR      R1,[R2, +R6]
        AND      R0,R0,#0x10
        AND      R1,R1,#0x10
        ASR      R1,R1,#+3
        ORR      R0,R1,R0, ASR #+4
        STR      R0,[R6, #+2672]
// 2395                         k();
        BL       k
// 2396                         d_int_static_fld = 0;
        STR      R7,[R6, #+2668]
        B        ??xxf_21
// 2397                     } else {
// 2398                         d_int_static_fld = 1;
??xxf_22:
        STR      R3,[R6, #+2668]
// 2399                     }
// 2400                 if(P == 0 && (d_int_array1d_static_fld[0] & 0x10) != 0) {
??xxf_21:
        AND      LR,R8,#0x10
        LSL      R4,R4,#+2
        CMP      R5,#+0
        BNE      ??xxf_23
        CMP      LR,#+0
        BEQ      ??xxf_23
// 2401                     l1 <<= 2;
// 2402                     bvoid2int(4, l1 + 0);
        MOV      R1,R4
        MOV      R0,#+4
        BL       bvoid2int
// 2403                     bvoid2int(5, l1 + 1);
        ADD      R1,R4,#+1
        MOV      R0,#+5
        BL       bvoid2int
// 2404                     bvoid2int(6, l1 + 2);
        ADD      R1,R4,#+2
        MOV      R0,#+6
        BL       bvoid2int
// 2405                     bvoid2int(7, l1 + 3);
        ADD      R1,R4,#+3
        MOV      R0,#+7
??xxf_20:
        BL       bvoid2int
        POP      {R4-R9,PC}
// 2406                     goto label0;//                    break label0;
// 2407                 }
// 2408                 if((d_int_array1d_static_fld[0] & 0x10) != 0) {
??xxf_23:
        CMP      LR,#+0
        POPEQ    {R4-R9,PC}
// 2409                     l1 <<= 2;
// 2410                     c(4, l1 + 0 << 10);
        LSL      R1,R4,#+10
        MOV      R0,#+4
        BL       c
// 2411                     c(5, l1 + 1 << 10);
        ADD      R0,R4,#+1
        LSL      R1,R0,#+10
        MOV      R0,#+5
        BL       c
// 2412                     c(6, l1 + 2 << 10);
        ADD      R0,R4,#+2
        LSL      R1,R0,#+10
        MOV      R0,#+6
        BL       c
// 2413                     c(7, l1 + 3 << 10);
        ADD      R0,R4,#+3
        B        ??xxf_24
// 2414                 }
// 2415                 goto label0;//                break label0;
// 2416 
// 2417             case 3: // '\003'
// 2418                 l1 <<= 1;
// 2419                 break;
// 2420             }
// 2421             if((d_int_array1d_static_fld[0] & 8) != 0) {
??xxf_6:
        LDR      R8,[R8, +R6]
        LSL      R4,R4,#+1
        TST      R8,#0x8
        BEQ      ??xxf_25
// 2422                 if((d_int_array1d_static_fld[0] & 4) != 0) {
        ADD      R0,R4,#+1
        TST      R8,#0x4
        BEQ      ??xxf_26
// 2423                     Z = l1;
// 2424                     f_int_static_fld = l1 + 1;
        STR      R0,[R6, #+2536]
// 2425                     n_int_static_fld = T;
        LDR      R0,[R6, #+2656]
        STR      R4,[R6, #+2532]
        STR      R0,[R6, #+2540]
// 2426                     Q = W;
        LDR      R0,[R6, #+2660]
        B        ??xxf_27
// 2427                 } else
// 2428                 if(U == 1) {
??xxf_26:
        CMP      R12,#+1
        BNE      ??xxf_17
// 2429                     Z = 0;
        STR      R7,[R6, #+2532]
// 2430                     f_int_static_fld = 1;
        STR      R3,[R6, #+2536]
// 2431                     n_int_static_fld = l1;
        STR      R4,[R6, #+2540]
// 2432                     Q = l1 + 1;
??xxf_27:
        STR      R0,[R6, #+2544]
??xxf_15:
        BL       k
        POP      {R4-R9,PC}
// 2433                 }
// 2434             } else {
// 2435                 Z = l1;
??xxf_25:
        STR      R4,[R6, #+2532]
// 2436                 f_int_static_fld = l1 + 1;
        ADD      R0,R4,#+1
        STR      R0,[R6, #+2536]
// 2437                 if(U == 1) {
        CMP      R12,#+1
        BNE      ??xxf_17
// 2438                     n_int_static_fld = l1 + 2;
        ADD      R0,R4,#+2
        STR      R0,[R6, #+2540]
// 2439                     Q = l1 + 3;
        ADD      R0,R4,#+3
        B        ??xxf_27
// 2440                 }
// 2441             }
// 2442             k();
// 2443             break;
// 2444 
// 2445         case 2: // '\002'
// 2446             j1 &= ad - 1;
??xxf_28:
        LDR      R1,[R6, #+2556]
        SUB      R3,R1,#+1
        AND      R4,R3,R4
// 2447             xxxxb(j1 * 2, j1 * 2 + 1, ad - 2, ad - 1);
        LSL      R0,R4,#+1
        SUB      R2,R1,#+2
        ADD      R1,R0,#+1
        BL       xxxxb
        POP      {R4-R9,PC}
// 2448             break;
// 2449 
// 2450         case 3: // '\003'
// 2451             i2 = (j1 & (P >> 1) - 1) << 3;
??xxf_29:
        ASR      R0,R5,#+1
        SUB      R0,R0,#+1
        AND      R0,R0,R4
        LSL      R0,R0,#+3
// 2452             avoid8int(i2 + 0, i2 + 1, i2 + 2, i2 + 3, i2 + 4, i2 + 5, i2 + 6, i2 + 7);
        ADD      R1,R0,#+7
        PUSH     {R1}
        CFI CFA R13+32
        ADD      R3,R0,#+3
        ADD      R2,R0,#+2
        ADD      R1,R0,#+6
        PUSH     {R1}
        CFI CFA R13+36
        ADD      R1,R0,#+5
        PUSH     {R1}
        CFI CFA R13+40
        ADD      R1,R0,#+4
        PUSH     {R1}
        CFI CFA R13+44
        ADD      R1,R0,#+1
        BL       avoid8int
        ADD      SP,SP,#+16
        CFI CFA R13+28
        POP      {R4-R9,PC}
// 2453             break;
// 2454 
// 2455         case 4: // '\004'
// 2456             switch(i1 & 0xe001) {
??xxf_30:
        ORR      R5,R3,#0xE000
        AND      R0,R5,R0
        CMP      R0,#+32768
        BEQ      ??xxf_31
        ORR      R5,R3,#0x8000
        CMP      R0,R5
        BEQ      ??xxf_32
        CMP      R0,#+40960
        BEQ      ??xxf_33
        ORR      R5,R3,#0xA000
        CMP      R0,R5
        BEQ      ??xxf_34
        CMP      R0,#+49152
        BEQ      ??xxf_35
        ORR      R5,R3,#0xC000
        CMP      R0,R5
        BEQ      ??xxf_36
        CMP      R0,#+57344
        BEQ      ??xxf_37
        ORR      R5,R3,#0xE000
        CMP      R0,R5
        BEQ      ??xxf_38
        POP      {R4-R9,PC}
// 2457             default:
// 2458                 break;
// 2459 
// 2460             case 32768: 
// 2461                 d_int_array1d_static_fld[0] = j1;
??xxf_31:
        STR      R4,[R8, +R6]
// 2462                 l();
        BL       l
// 2463                 f();
        B        ??xxf_39
// 2464                 goto label0; //break label0;
// 2465 
// 2466             case 32769: 
// 2467                 d_int_array1d_static_fld[1] = j1;
??xxf_32:
        STR      R4,[R1, +R6]
// 2468                 j2 = d_int_array1d_static_fld[1];
// 2469                 switch(d_int_array1d_static_fld[0] & 7) {
        LDR      R1,[R8, +R6]
        MOV      R0,R4
        AND      R1,R1,#0x7
        CMP      R1,#+7
        POPHI    {R4-R9,PC}
        ADR      R2,??xxf_1
        MOV      R1,R1, LSL #+1
        LDRH     R2,[R2, R1]
        ADD      PC,PC,R2, LSL #+2
        DATA
??xxf_1:
        DC16     +3,+6,+10,+13
        DC16     +15,+17,+19,+22
        ARM
// 2470                 case 0: // '\0'
// 2471                     j2 &= 0xfe;
// 2472                     O = j2;
??xxf_40:
        AND      R0,R0,#0xFE
        STR      R0,[R6, #+2588]
// 2473                     l();
        B        ??xxf_41
// 2474                     break;
// 2475 
// 2476                 case 1: // '\001'
// 2477                     j2 &= 0xfe;
// 2478                     g_int_static_fld = j2;
??xxf_42:
        AND      R0,R0,#0xFE
        STR      R0,[R6, #+2592]
// 2479                     l();
        BL       l
        POP      {R4-R9,PC}
// 2480                     break;
// 2481 
// 2482                 case 2: // '\002'
// 2483                     ac = j2;
??xxf_43:
        STR      R0,[R6, #+2596]
// 2484                     l();
??xxf_41:
        BL       l
        POP      {R4-R9,PC}
// 2485                     break;
// 2486 
// 2487                 case 3: // '\003'
// 2488                     N = j2;
??xxf_44:
        STR      R0,[R6, #+2600]
// 2489                     l();
        B        ??xxf_41
// 2490                     break;
// 2491 
// 2492                 case 4: // '\004'
// 2493                     s_int_static_fld = j2;
??xxf_45:
        STR      R0,[R6, #+2604]
// 2494                     l();
        B        ??xxf_41
// 2495                     break;
// 2496 
// 2497                 case 5: // '\005'
// 2498                     v_int_static_fld = j2;
??xxf_46:
        STR      R0,[R6, #+2608]
// 2499                     l();
        B        ??xxf_41
// 2500                     break;
// 2501 
// 2502                 case 6: // '\006'
// 2503                     G = j2;
??xxf_47:
        STR      R0,[R6, #+2872]
// 2504                     f();
        BL       f
        POP      {R4-R9,PC}
// 2505                     break;
// 2506 
// 2507                 case 7: // '\007'
// 2508                     J = j2;
??xxf_48:
        STR      R0,[R6, #+2876]
// 2509                     f();
??xxf_39:
        BL       f
        POP      {R4-R9,PC}
// 2510                     break;
// 2511                 }
// 2512                 goto label0; //break label0;
// 2513 
// 2514             case 40960: 
// 2515                 d_int_array1d_static_fld[2] = j1;
// 2516                 if(f_boolean_static_fld)
??xxf_33:
        LDRB     R0,[R6, #+3202]
        STR      R4,[R2, +R6]
        CMP      R0,#+0
        POPNE    {R4-R9,PC}
// 2517                     goto label0; //break label0;
// 2518                 if((j1 & 1) != 0)
        TST      R4,#0x1
        MOVEQ    R2,#+0
        MOVEQ    R1,R3
// 2519                     avoid4int(0, 0, 1, 1);
        MOVNE    R2,#+1
        MOVNE    R1,R7
        B        ??xxf_49
// 2520                 else
// 2521                     avoid4int(0, 1, 0, 1);
// 2522                 break;
// 2523 
// 2524             case 40961: 
// 2525                 d_int_array1d_static_fld[3] = j1;
??xxf_34:
        STR      R4,[R6, #+2484]
// 2526                 q_boolean_static_fld = (j1 & 0x80) == 128;
        TST      R4,#0x80
        MOVNE    R0,#+1
        MOVEQ    R0,#+0
        STRB     R0,[R6, #+3197]
        POP      {R4-R9,PC}
// 2527                 break;
// 2528 
// 2529             case 49152: 
// 2530                 d_int_array1d_static_fld[4] = j1;
??xxf_35:
        ADD      R0,R1,#+12
        STR      R4,[R0, +R6]
// 2531                 I = d_int_array1d_static_fld[4];
        MOV      R0,R4
        STR      R0,[R6, #+2620]
        POP      {R4-R9,PC}
// 2532                 break;
// 2533 
// 2534             case 49153: 
// 2535                 d_int_array1d_static_fld[5] = j1;
??xxf_36:
        ORR      R0,R1,#0x10
        STR      R4,[R0, +R6]
// 2536                 F = d_int_array1d_static_fld[5];
        MOV      R0,R4
        STR      R0,[R6, #+2624]
        POP      {R4-R9,PC}
// 2537                 break;
// 2538 
// 2539             case 57344: 
// 2540                 d_int_array1d_static_fld[6] = j1;
??xxf_37:
        STR      R4,[R6, #+2496]
// 2541                 e_boolean_static_fld = false;
        STRB     R7,[R6, #+3200]
        POP      {R4-R9,PC}
// 2542                 break;
// 2543 
// 2544             case 57345: 
// 2545                 d_int_array1d_static_fld[7] = j1;
??xxf_38:
        STR      R4,[R6, #+2500]
// 2546                 e_boolean_static_fld = true;
        STRB     R3,[R6, #+3200]
        POP      {R4-R9,PC}
// 2547                 break;
// 2548             }
// 2549             break;
// 2550 
// 2551         case 6: // '\006'
// 2552             k2 = (j1 & 0x3c) >> 2;
??xxf_50:
        AND      R0,R4,#0x3C
        ASR      R5,R0,#+2
// 2553             l2 = j1 & 3;
        AND      R4,R4,#0x3
// 2554             e(0, k2 * 2 + 0 << 13);
        LSL      R1,R5,#+14
        MOV      R0,#+0
        BL       e
// 2555             e(1, k2 * 2 + 1 << 13);
        MOV      R0,#+1
        ADD      R0,R0,R5, LSL #+1
        LSL      R1,R0,#+13
        MOV      R0,#+1
        BL       e
// 2556             bvoid2int(0, l2 * 8 + 0);
        LSL      R4,R4,#+3
        MOV      R1,R4
        MOV      R0,R7
        BL       bvoid2int
// 2557             bvoid2int(1, l2 * 8 + 1);
        ADD      R1,R4,#+1
        MOV      R0,#+1
        BL       bvoid2int
// 2558             bvoid2int(2, l2 * 8 + 2);
        ADD      R1,R4,#+2
        MOV      R0,#+2
        BL       bvoid2int
// 2559             bvoid2int(3, l2 * 8 + 3);
        ADD      R1,R4,#+3
        MOV      R0,#+3
        BL       bvoid2int
// 2560             bvoid2int(4, l2 * 8 + 4);
        ADD      R1,R4,#+4
        MOV      R0,#+4
        BL       bvoid2int
// 2561             bvoid2int(5, l2 * 8 + 5);
        ADD      R1,R4,#+5
        MOV      R0,#+5
        BL       bvoid2int
// 2562             bvoid2int(6, l2 * 8 + 6);
        ADD      R1,R4,#+6
        MOV      R0,#+6
        BL       bvoid2int
// 2563             bvoid2int(7, l2 * 8 + 7);
        ADD      R1,R4,#+7
        MOV      R0,#+7
        BL       bvoid2int
        POP      {R4-R9,PC}
// 2564             break;
// 2565 
// 2566         case 7: // '\007'
// 2567             i3 = (j1 & 7) << 2;
??xxf_51:
        AND      R0,R4,#0x7
        LSL      R0,R0,#+2
// 2568             xxxxb(i3 + 0, i3 + 1, i3 + 2, i3 + 3);
        ADD      R3,R0,#+3
        ADD      R2,R0,#+2
        ADD      R1,R0,#+1
        BL       xxxxb
// 2569             if((j1 & 0x10) != 0)
        TST      R4,#0x10
// 2570                 avoid4int(1, 1, 1, 1);
        MOVNE    R3,#+1
        BNE      ??xxf_11
// 2571             else
// 2572                 avoid4int(0, 0, 0, 0);
??xxf_10:
        MOV      R3,#+0
??xxf_11:
        MOV      R2,R3
        MOV      R1,R2
??xxf_8:
        MOV      R0,R1
        BL       avoid4int
        POP      {R4-R9,PC}
// 2573             break;
// 2574 
// 2575         case 8: // '\b'
// 2576             j3 = (j1 & 0xf8) >> 3;
??xxf_52:
        LSL      R0,R4,#+24
        LSR      R5,R0,#+27
// 2577             k3 = j1 & 7;
        AND      R4,R4,#0x7
// 2578             e(0, j3 * 2 + 0 << 13);
        LSL      R1,R5,#+14
        MOV      R0,#+0
        BL       e
// 2579             e(1, j3 * 2 + 1 << 13);
        MOV      R0,#+1
        ADD      R0,R0,R5, LSL #+1
        LSL      R1,R0,#+13
        MOV      R0,#+1
        B        ??xxf_53
// 2580             c(0, k3 * 8 + 0 << 10);
// 2581             c(1, k3 * 8 + 1 << 10);
// 2582             c(2, k3 * 8 + 2 << 10);
// 2583             c(3, k3 * 8 + 3 << 10);
// 2584             c(4, k3 * 8 + 4 << 10);
// 2585             c(5, k3 * 8 + 5 << 10);
// 2586             c(6, k3 * 8 + 6 << 10);
// 2587             c(7, k3 * 8 + 7 << 10);
// 2588             break;
// 2589 
// 2590         case 11: // '\013'
// 2591             l3 = j1 & 1;
??xxf_54:
        AND      R5,R4,#0x1
// 2592             i4 = (j1 & 0x70) >> 4;
        AND      R0,R4,#0x70
        ASR      R4,R0,#+4
// 2593             e(0, l3 * 4 + 0 << 13);
        LSL      R1,R5,#+15
        MOV      R0,#+0
        BL       e
// 2594             e(1, l3 * 4 + 1 << 13);
        LSL      R5,R5,#+2
        ADD      R0,R5,#+1
        LSL      R1,R0,#+13
        MOV      R0,#+1
        BL       e
// 2595             e(2, l3 * 4 + 2 << 13);
        ADD      R0,R5,#+2
        LSL      R1,R0,#+13
        MOV      R0,#+2
        BL       e
// 2596             e(3, l3 * 4 + 3 << 13);
        ADD      R0,R5,#+3
        LSL      R1,R0,#+13
        MOV      R0,#+3
??xxf_53:
        BL       e
// 2597             c(0, i4 * 8 + 0 << 10);
        LSL      R1,R4,#+13
        MOV      R0,#+0
        BL       c
// 2598             c(1, i4 * 8 + 1 << 10);
        LSL      R4,R4,#+3
        ADD      R0,R4,#+1
        LSL      R1,R0,#+10
        MOV      R0,#+1
        BL       c
// 2599             c(2, i4 * 8 + 2 << 10);
        ADD      R0,R4,#+2
        LSL      R1,R0,#+10
        MOV      R0,#+2
        BL       c
// 2600             c(3, i4 * 8 + 3 << 10);
        ADD      R0,R4,#+3
        LSL      R1,R0,#+10
        MOV      R0,#+3
        BL       c
// 2601             c(4, i4 * 8 + 4 << 10);
        ADD      R0,R4,#+4
        LSL      R1,R0,#+10
        MOV      R0,#+4
        BL       c
// 2602             c(5, i4 * 8 + 5 << 10);
        ADD      R0,R4,#+5
        LSL      R1,R0,#+10
        MOV      R0,#+5
        BL       c
// 2603             c(6, i4 * 8 + 6 << 10);
        ADD      R0,R4,#+6
        LSL      R1,R0,#+10
        MOV      R0,#+6
        BL       c
// 2604             c(7, i4 * 8 + 7 << 10);
        ADD      R0,R4,#+7
??xxf_24:
        LSL      R1,R0,#+10
        MOV      R0,#+7
        BL       c
        POP      {R4-R9,PC}
// 2605             break;
// 2606 
// 2607         case 15: // '\017'
// 2608             switch(i1) {
??xxf_55:
        AND      R1,R4,#0x3F
        LSL      R1,R1,#+1
        ADD      R2,R1,#+1
        LSL      R5,R2,#+13
        AND      R2,R4,#0x3F
        LSL      R6,R2,#+14
        SUBS     R0,R0,#+32768
        BEQ      ??xxf_56
        SUBS     R0,R0,#+1
        BEQ      ??xxf_57
        SUBS     R0,R0,#+1
        BEQ      ??xxf_58
        SUBS     R0,R0,#+1
        BEQ      ??xxf_59
        POP      {R4-R9,PC}
// 2609             default:
// 2610                 goto label0; //break label0;
// 2611 
// 2612             case 32768: 
// 2613                 if((j1 & 0x80) != 0) {
??xxf_56:
        ADD      R0,R1,#+3
        LSL      R7,R0,#+13
        AND      R0,R4,#0x3F
        ADD      R0,R0,#+1
        LSL      R8,R0,#+14
        TST      R4,#0x80
        BEQ      ??xxf_60
// 2614                     e(0, (j1 & 0x3f) * 2 + 1 << 13);
        MOV      R1,R5
        MOV      R0,#+0
        BL       e
// 2615                     e(1, (j1 & 0x3f) * 2 + 0 << 13);
        MOV      R1,R6
        MOV      R0,#+1
        BL       e
// 2616                     e(2, (j1 & 0x3f) * 2 + 3 << 13);
        MOV      R1,R7
        MOV      R0,#+2
        BL       e
// 2617                     e(3, (j1 & 0x3f) * 2 + 2 << 13);
        MOV      R1,R8
        B        ??xxf_61
// 2618                 } else {
// 2619                     e(0, (j1 & 0x3f) * 2 + 0 << 13);
??xxf_60:
        MOV      R1,R6
        MOV      R0,#+0
        BL       e
// 2620                     e(1, (j1 & 0x3f) * 2 + 1 << 13);
        MOV      R1,R5
        MOV      R0,#+1
        BL       e
// 2621                     e(2, (j1 & 0x3f) * 2 + 2 << 13);
        MOV      R1,R8
        MOV      R0,#+2
        BL       e
// 2622                     e(3, (j1 & 0x3f) * 2 + 3 << 13);
        MOV      R1,R7
??xxf_61:
        MOV      R0,#+3
        BL       e
// 2623                 }
// 2624                 if((j1 & 0x40) != 0)
        TST      R4,#0x40
        MOV      R3,#+1
// 2625                     avoid4int(0, 0, 1, 1);
        MOVNE    R2,#+1
        MOVNE    R1,#+0
        BNE      ??xxf_8
// 2626                 else
// 2627                     avoid4int(0, 1, 0, 1);
        MOV      R2,#+0
        MOV      R1,#+1
??xxf_9:
        MOV      R0,R2
??xxf_49:
        BL       avoid4int
        POP      {R4-R9,PC}
// 2628                 goto label0; //break label0;
// 2629 
// 2630             case 32769: 
// 2631                 if((j1 & 0x80) != 0) {
??xxf_57:
        TST      R4,#0x80
// 2632                     e(2, (j1 & 0x3f) * 2 + 1 << 13);
        MOVNE    R1,R5
        BNE      ??xxf_62
// 2633                     e(3, (j1 & 0x3f) * 2 + 0 << 13);
// 2634                 } else {
// 2635                     e(2, (j1 & 0x3f) * 2 + 0 << 13);
        MOV      R1,R6
        B        ??xxf_63
// 2636                     e(3, (j1 & 0x3f) * 2 + 1 << 13);
// 2637                 }
// 2638                 goto label0; //break label0;
// 2639 
// 2640             case 32770: 
// 2641                 if((j1 & 0x80) != 0) {
??xxf_58:
        TST      R4,#0x80
        BEQ      ??xxf_64
// 2642                     e(0, (j1 & 0x3f) * 2 + 1 << 13);
        MOV      R1,R5
        MOV      R0,#+0
        BL       e
// 2643                     e(1, (j1 & 0x3f) * 2 + 1 << 13);
        MOV      R1,R5
        MOV      R0,#+1
        BL       e
// 2644                     e(2, (j1 & 0x3f) * 2 + 1 << 13);
        MOV      R1,R5
??xxf_63:
        MOV      R0,#+2
        BL       e
// 2645                     e(3, (j1 & 0x3f) * 2 + 1 << 13);
        MOV      R1,R5
        MOV      R0,#+3
        BL       e
        POP      {R4-R9,PC}
// 2646                 } else {
// 2647                     e(0, (j1 & 0x3f) * 2 + 0 << 13);
??xxf_64:
        MOV      R1,R6
        MOV      R0,#+0
        BL       e
// 2648                     e(1, (j1 & 0x3f) * 2 + 0 << 13);
        MOV      R1,R6
        MOV      R0,#+1
        BL       e
// 2649                     e(2, (j1 & 0x3f) * 2 + 0 << 13);
        MOV      R1,R6
??xxf_62:
        MOV      R0,#+2
        BL       e
// 2650                     e(3, (j1 & 0x3f) * 2 + 0 << 13);
        MOV      R1,R6
        MOV      R0,#+3
        BL       e
        POP      {R4-R9,PC}
// 2651                 }
// 2652                 goto label0; //break label0;
// 2653 
// 2654             case 32771: 
// 2655                 break;
// 2656             }
// 2657             if((j1 & 0x80) != 0) {
??xxf_59:
        TST      R4,#0x80
        BEQ      ??xxf_65
// 2658                 e(2, (j1 & 0x3f) * 2 + 1 << 13);
        MOV      R1,R5
        MOV      R0,#+2
        BL       e
// 2659                 e(3, (j1 & 0x3f) * 2 + 0 << 13);
        MOV      R1,R6
        B        ??xxf_66
// 2660             } else {
// 2661                 e(2, (j1 & 0x3f) * 2 + 0 << 13);
??xxf_65:
        MOV      R1,R6
        MOV      R0,#+2
        BL       e
// 2662                 e(3, (j1 & 0x3f) * 2 + 1 << 13);
        MOV      R1,R5
??xxf_66:
        MOV      R0,#+3
        BL       e
// 2663             }
// 2664             if((j1 & 0x40) != 0)
        TST      R4,#0x40
        MOV      R3,#+1
// 2665                 avoid4int(0, 0, 1, 1);
        MOVNE    R2,#+1
        MOVNE    R1,R7
        BNE      ??xxf_8
// 2666             else
// 2667                 avoid4int(0, 1, 0, 1);
        MOV      R2,#+0
        MOV      R1,R3
        MOV      R0,R2
        BL       avoid4int
??xxf_67:
        POP      {R4-R9,PC}       ;; return
        CFI EndBlock cfiBlock29
// 2668             break;
// 2669         }
// 2670 label0:;
// 2671     }

        RSEG CODE:CODE:NOROOT(2)
        CFI Block cfiBlock30 Using cfiCommon0
        CFI NoFunction
        THUMB
??keyPressed??rT:
        BX       PC
        Nop      
        CFI EndBlock cfiBlock30
        REQUIRE keyPressed
// 2672 
// 2673     static void xxd(int i1, int j1) {
// 2674         switch(w) {
// 2675         case 6: // '\006'
// 2676             switch(i1) {
// 2677             default:
// 2678                 break;
// 2679 
// 2680             case 17150: 
// 2681                 if((j1 & 0x10) != 0)
// 2682                     avoid4int(1, 1, 1, 1);
// 2683                 else
// 2684                     avoid4int(0, 0, 0, 0);
// 2685                 break;
// 2686 
// 2687             case 17151: 
// 2688                 if((j1 & 0x10) != 0)
// 2689                     avoid4int(0, 0, 1, 1);
// 2690                 else
// 2691                     avoid4int(0, 1, 0, 1);
// 2692                 break;
// 2693 
// 2694             case 17665: 
// 2695                 e_boolean_static_fld = false;
// 2696                 break;
// 2697 
// 2698             case 17666: 
// 2699                 I = I & 0xff00 | j1 & 0xff;
// 2700                 break;
// 2701 
// 2702             case 17667: 
// 2703                 I = I & 0xff | j1 << 8;
// 2704                 e_boolean_static_fld = true;
// 2705                 break;
// 2706             }
// 2707             break;
// 2708         }
// 2709     }
// 2710    
// 2711     

        RSEG CODE:CODE:NOROOT(2)
        CFI Block cfiBlock31 Using cfiCommon1
        CFI Function keyPressed
        ARM
// 2712     void keyPressed(int i1) {     
// 2713     
// 2714     if(keyindex<0){
keyPressed:
        LDR      R1,??DataTable24  ;; j_int_array1d_static_fld
        PUSH     {R4-R11,LR}
        CFI ?RET Frame(CFA, -4)
        CFI R11 Frame(CFA, -8)
        CFI R10 Frame(CFA, -12)
        CFI R9 Frame(CFA, -16)
        CFI R8 Frame(CFA, -20)
        CFI R7 Frame(CFA, -24)
        CFI R6 Frame(CFA, -28)
        CFI R5 Frame(CFA, -32)
        CFI R4 Frame(CFA, -36)
        CFI CFA R13+36
        LDR      R2,[R1, #+3192]
        CMP      R2,#+0
        BPL      ??keyPressed_0
// 2715         if(c_boolean_static_fld) {
        LDRB     LR,[R1, #+3211]
        LDR      R12,[R1, #+2628]
        LDR      R4,[R1, #+2364]
        LDR      R5,[R1, #+2360]
        LDR      R6,[R1, #+2356]
        LDR      R7,[R1, #+2352]
        LDR      R8,[R1, #+2348]
        LDR      R9,[R1, #+2344]
        LDR      R10,[R1, #+2340]
        LDR      R11,[R1, #+2336]
        MOV      R2,#+1
        MOV      R3,#+0
        CMP      LR,#+0
        BEQ      ??keyPressed_1
// 2716             if(i1 == key[0])
        CMP      R0,R11
// 2717                 k_int_static_fld ^= 0x10;
        EOREQ    R0,R12,#0x10
        BEQ      ??keyPressed_2
// 2718             else
// 2719             if(i1 == key[1])
        CMP      R0,R10
        BNE      ??keyPressed_3
// 2720                 k_int_static_fld ^= 0x20;
        EOR      R0,R12,#0x20
??keyPressed_2:
        STR      R0,[R1, #+2628]
        POP      {R4-R11,PC}
// 2721             else
// 2722             if(i1 == key[2])
??keyPressed_3:
        CMP      R0,R9
// 2723                 k_int_static_fld ^= 0x40;
        EOREQ    R0,R12,#0x40
        BEQ      ??keyPressed_2
// 2724             else
// 2725             if(i1 == key[3])
        CMP      R0,R8
// 2726                 k_int_static_fld ^= 0x80;
        EOREQ    R0,R12,#0x80
        BEQ      ??keyPressed_2
// 2727             else
// 2728             if(i1 == key[4])
        CMP      R0,R7
// 2729                 k_int_static_fld ^= 1;
        EOREQ    R0,R12,#0x1
        BEQ      ??keyPressed_2
// 2730             else
// 2731             if(i1 == key[5])
        CMP      R0,R6
// 2732                 k_int_static_fld ^= 2;
        EOREQ    R0,R12,#0x2
        BEQ      ??keyPressed_2
// 2733             else
// 2734             if(i1 == key[6])
        CMP      R0,R5
// 2735                 k_int_static_fld ^= 8;
        EOREQ    R0,R12,#0x8
        BEQ      ??keyPressed_2
// 2736             else
// 2737             if(i1 == key[7])
        CMP      R0,R4
// 2738                 k_int_static_fld ^= 4;
        EOREQ    R0,R12,#0x4
        BEQ      ??keyPressed_2
// 2739             else
// 2740             if(i1 == key[8]) {
        LDR      R4,[R1, #+2368]
        CMP      R0,R4
        BNE      ??keyPressed_4
// 2741                 k_int_static_fld &= 0xfe;
        AND      R0,R12,#0xFE
        STR      R0,[R1, #+2628]
// 2742                 l_boolean_static_fld = !l_boolean_static_fld;
        LDRB     R0,[R1, #+3212]
        CMP      R0,#+0
        BEQ      ??keyPressed_5
        MOV      R2,#+0
        STRB     R2,[R1, #+3212]
        POP      {R4-R11,PC}
// 2743             } else
// 2744             if(i1 == key[9]) {
??keyPressed_4:
        LDR      R4,[R1, #+2372]
        CMP      R0,R4
        POPNE    {R4-R11,PC}
// 2745                 k_int_static_fld &= 0xfd;
        AND      R0,R12,#0xFD
        STR      R0,[R1, #+2628]
// 2746                 j_boolean_static_fld = !j_boolean_static_fld;
        LDRB     R0,[R1, #+3213]
        CMP      R0,#+0
        BEQ      ??keyPressed_6
        MOV      R2,#+0
        STRB     R2,[R1, #+3213]
        POP      {R4-R11,PC}
// 2747             }
// 2748         } else
// 2749         if(i1 == key[0])
??keyPressed_1:
        CMP      R0,R11
// 2750             k_int_static_fld |= 0x10;
        ORREQ    R0,R12,#0x10
        BEQ      ??keyPressed_2
// 2751         else
// 2752         if(i1 == key[1])
        CMP      R0,R10
// 2753             k_int_static_fld |= 0x20;
        ORREQ    R0,R12,#0x20
        BEQ      ??keyPressed_2
// 2754         else
// 2755         if(i1 == key[2])
        CMP      R0,R9
// 2756             k_int_static_fld |= 0x40;
        ORREQ    R0,R12,#0x40
        BEQ      ??keyPressed_2
// 2757         else
// 2758         if(i1 == key[3])
        CMP      R0,R8
// 2759             k_int_static_fld |= 0x80;
        ORREQ    R0,R12,#0x80
        BEQ      ??keyPressed_2
// 2760         else
// 2761         if(i1 == key[4])
        CMP      R0,R7
// 2762             k_int_static_fld |= 1;
        ORREQ    R0,R12,#0x1
        BEQ      ??keyPressed_2
// 2763         else
// 2764         if(i1 == key[5])
        CMP      R0,R6
// 2765             k_int_static_fld |= 2;
        ORREQ    R0,R12,#0x2
        BEQ      ??keyPressed_2
// 2766         else
// 2767         if(i1 == key[6])
        CMP      R0,R5
// 2768             k_int_static_fld |= 8;
        ORREQ    R0,R12,#0x8
        BEQ      ??keyPressed_2
// 2769         else
// 2770         if(i1 == key[7])
        CMP      R0,R4
// 2771             k_int_static_fld |= 4;
        ORREQ    R0,R12,#0x4
        BEQ      ??keyPressed_2
// 2772         else
// 2773         if(i1 == key[8])
        LDR      R4,[R1, #+2368]
        CMP      R0,R4
        BNE      ??keyPressed_7
// 2774             l_boolean_static_fld = true;
??keyPressed_5:
        STRB     R2,[R1, #+3212]
        POP      {R4-R11,PC}
// 2775         else
// 2776         if(i1 == key[9])
??keyPressed_7:
        LDR      R4,[R1, #+2372]
        CMP      R0,R4
        BNE      ??keyPressed_8
// 2777             j_boolean_static_fld = true;
??keyPressed_6:
        STRB     R2,[R1, #+3213]
        POP      {R4-R11,PC}
// 2778         else
// 2779         if(i1 == key[10]) {
??keyPressed_8:
        LDR      R4,[R1, #+2376]
        CMP      R0,R4
        BNE      ??keyPressed_9
// 2780             long l1 = SystemcurrentTimeMillis();
// 2781             if(l1 - a_long_static_fld < 500L) {
        LDR      R0,[R1, #+3156]
// 2782                 k_int_static_fld = 0;
// 2783                 l_boolean_static_fld = j_boolean_static_fld = false;
// 2784             }
// 2785             a_long_static_fld = l1;
        STR      R3,[R1, #+3156]
        RSB      R0,R0,#+0
        CMP      R0,#+500
        STRLT    R3,[R1, #+2628]
        STRBLT   R3,[R1, #+3213]
        STRBLT   R3,[R1, #+3212]
// 2786             c_boolean_static_fld = true;
        STRB     R2,[R1, #+3211]
        POP      {R4-R11,PC}
// 2787         } else
// 2788         if(i1 == key[11]) {
??keyPressed_9:
        LDR      R3,[R1, #+2380]
        CMP      R0,R3
// 2789             z = 0;
// 2790             v_boolean_static_fld = d_boolean_static_fld = true;
        STRBEQ   R2,[R1, #+3209]
        BEQ      ??keyPressed_10
// 2791         } else
// 2792         if(i1 == key[12]) {
        LDR      R3,[R1, #+2384]
        CMP      R0,R3
        POPNE    {R4-R11,PC}
// 2793             z = 0;
// 2794             v_boolean_static_fld = o_boolean_static_fld = true;
        STRB     R2,[R1, #+3201]
??keyPressed_10:
        STRB     R2,[R1, #+3207]
        POP      {R4-R11,PC}
// 2795         }
// 2796         if(i1 == key[13]) {
// 2797             //main.d_boolean_static_fld = !main.d_boolean_static_fld;
// 2798             //setFullScreenMode(main.d_boolean_static_fld);
// 2799         }
// 2800      }else{
// 2801 		key[keyindex] = i1;
??keyPressed_0:
        ADD      R2,R1,R2, LSL #+2
        STR      R0,[R2, #+2336]
// 2802         keyindex=-1;
        MVN      R0,#+0
        STR      R0,[R1, #+3192]
// 2803         
// 2804      }
// 2805    }
        POP      {R4-R11,PC}      ;; return
        CFI EndBlock cfiBlock31

        RSEG CODE:CODE:NOROOT(2)
        CFI Block cfiBlock32 Using cfiCommon0
        CFI NoFunction
        THUMB
??keyReleased??rT:
        BX       PC
        Nop      
        CFI EndBlock cfiBlock32
        REQUIRE keyReleased
// 2806 

        RSEG CODE:CODE:NOROOT(2)
        CFI Block cfiBlock33 Using cfiCommon1
        CFI Function keyReleased
        ARM
// 2807 	void keyReleased(int i1) {
// 2808         if(c_boolean_static_fld) {
keyReleased:
        LDR      R1,??DataTable24  ;; j_int_array1d_static_fld
        MOV      R3,#+0
        LDRB     R12,[R1, #+3211]
        LDR      R2,[R1, #+2628]
        CMP      R12,#+0
        BEQ      ??keyReleased_0
// 2809             if(i1 == key[10])
        LDR      R12,[R1, #+2376]
        CMP      R0,R12
        BNE      ??keyReleased_1
// 2810                 c_boolean_static_fld = false;
        STRB     R3,[R1, #+3211]
        B        ??keyReleased_1
// 2811         } else
// 2812         if(i1 == key[0])
??keyReleased_0:
        LDR      R12,[R1, #+2336]
        CMP      R0,R12
// 2813             k_int_static_fld &= 0xef;
        ANDEQ    R2,R2,#0xEF
        BEQ      ??keyReleased_1
// 2814         else
// 2815         if(i1 == key[1])
        LDR      R12,[R1, #+2340]
        CMP      R0,R12
// 2816             k_int_static_fld &= 0xdf;
        ANDEQ    R2,R2,#0xDF
        BEQ      ??keyReleased_1
// 2817         else
// 2818         if(i1 == key[2])
        LDR      R12,[R1, #+2344]
        CMP      R0,R12
// 2819             k_int_static_fld &= 0xbf;
        ANDEQ    R2,R2,#0xBF
        BEQ      ??keyReleased_1
// 2820         else
// 2821         if(i1 == key[3])
        LDR      R12,[R1, #+2348]
        CMP      R0,R12
// 2822             k_int_static_fld &= 0x7f;
        ANDEQ    R2,R2,#0x7F
        BEQ      ??keyReleased_1
// 2823         else
// 2824         if(i1 == key[4])
        LDR      R12,[R1, #+2352]
        CMP      R0,R12
// 2825             k_int_static_fld &= 0xfe;
        ANDEQ    R2,R2,#0xFE
        BEQ      ??keyReleased_1
// 2826         else
// 2827         if(i1 == key[5])
        LDR      R12,[R1, #+2356]
        CMP      R0,R12
// 2828             k_int_static_fld &= 0xfd;
        ANDEQ    R2,R2,#0xFD
        BEQ      ??keyReleased_1
// 2829         else
// 2830         if(i1 == key[6])
        LDR      R12,[R1, #+2360]
        CMP      R0,R12
// 2831             k_int_static_fld &= 0xf7;
        ANDEQ    R2,R2,#0xF7
        BEQ      ??keyReleased_1
// 2832         else
// 2833         if(i1 == key[7])
        LDR      R12,[R1, #+2364]
        CMP      R0,R12
// 2834             k_int_static_fld &= 0xfb;
        ANDEQ    R2,R2,#0xFB
        BEQ      ??keyReleased_1
// 2835         else
// 2836         if(i1 == key[8]) {
        LDR      R12,[R1, #+2368]
        CMP      R0,R12
// 2837             k_int_static_fld &= 0xfe;
        ANDEQ    R2,R2,#0xFE
// 2838             l_boolean_static_fld = false;
        STRBEQ   R3,[R1, #+3212]
        BEQ      ??keyReleased_1
// 2839         } else
// 2840         if(i1 == key[9]) {
        LDR      R12,[R1, #+2372]
        CMP      R0,R12
// 2841             k_int_static_fld &= 0xfd;
        ANDEQ    R2,R2,#0xFD
// 2842             j_boolean_static_fld = false;
        STRBEQ   R3,[R1, #+3213]
??keyReleased_1:
        STR      R2,[R1, #+2628]
// 2843         }
// 2844     }
        BX       LR               ;; return
        CFI EndBlock cfiBlock33

        RSEG CODE:CODE:NOROOT(2)
        DATA
??DataTable24:
        DC32     j_int_array1d_static_fld

        RSEG CODE:CODE:NOROOT(2)
        CFI Block cfiBlock34 Using cfiCommon0
        CFI NoFunction
        THUMB
??j??rT:
        BX       PC
        Nop      
        CFI EndBlock cfiBlock34
        REQUIRE j
// 2845 

        RSEG CODE:CODE:NOROOT(2)
        CFI Block cfiBlock35 Using cfiCommon1
        CFI Function j
        ARM
// 2846     static void j() {
// 2847         if(b_int_static_fld < 0)
j:
        LDR      R0,??DataTable46  ;; j_int_array1d_static_fld
        PUSH     {R4-R11,LR}
        CFI ?RET Frame(CFA, -4)
        CFI R11 Frame(CFA, -8)
        CFI R10 Frame(CFA, -12)
        CFI R9 Frame(CFA, -16)
        CFI R8 Frame(CFA, -20)
        CFI R7 Frame(CFA, -24)
        CFI R6 Frame(CFA, -28)
        CFI R5 Frame(CFA, -32)
        CFI R4 Frame(CFA, -36)
        CFI CFA R13+36
        SUB      SP,SP,#+116
        CFI CFA R13+152
        LDR      R1,[R0, #+2528]
        MOV      R2,#+255
        MOV      R3,#+0
        CMP      R1,#+0
// 2848             b_int_static_fld = 0;
        STRMI    R3,[R0, #+2528]
        BMI      ??j_1
// 2849         if(b_int_static_fld > 255)
        CMP      R1,#+256
// 2850             b_int_static_fld = 255;
        STRGE    R2,[R0, #+2528]
// 2851         if(L < 0)
??j_1:
        LDR      R1,[R0, #+2576]
        CMP      R1,#+0
// 2852             L = 0;
        STRMI    R3,[R0, #+2576]
        BMI      ??j_2
// 2853         if(L > 255)
        CMP      R1,#+256
// 2854             L = 255;
        STRGE    R2,[R0, #+2576]
// 2855         int i1 = 332 + ((b_int_static_fld - 128) * 40) / 256;
??j_2:
        LDR      R1,[R0, #+2528]
        MVN      R2,#+127
        ADD      R1,R2,R1
        MOV      R2,#+40
        MUL      R1,R2,R1
// 2856         int ai[] = {
// 2857             0, 240, 210, 180, 150, 120, 90, 60, 30, 0, 
// 2858             330, 300, 270, 0, 0, 0
// 2859         };
        LDR      R2,??j_3         ;; `?<Constant {0, 240, 210, 180, 150, 120, 90, 60`
        ASR      R3,R1,#+7
        ADD      R1,R1,R3, LSR #+24
        MOV      R3,#+332
        ADD      R1,R3,R1, ASR #+8
        STR      R1,[SP, #+0]
        LDM      R2!,{R3-R10}
        ADD      R1,SP,#+52
        STM      R1!,{R3-R10}
        LDM      R2,{R3-R10}
// 2860         int ai1[] = {
// 2861             128, 192, 256, 256
// 2862         };
        LDR      R2,??j_3+0x4     ;; `?<Constant {128, 192, 256, 256}>`
        STM      R1,{R3-R10}
        LDM      R2,{R3-R6}
// 2863         int ai2[] = {
// 2864             74, 115, 187, 230
// 2865         };
        LDR      R2,??j_3+0x8     ;; `?<Constant {74, 115, 187, 230}>`
        ADD      R1,SP,#+4
        STM      R1,{R3-R6}
        LDM      R2,{R3-R6}
// 2866         int ai3[] = {
// 2867             0, 61, 120, 197
// 2868         };
        LDR      R2,??j_3+0xC     ;; `?<Constant {0, 61, 120, 197}>`
        ADD      R1,SP,#+20
        STM      R1,{R3-R6}
        LDM      R2,{R3-R6}
        ADD      R1,SP,#+36
        STM      R1,{R3-R6}
// 2869         for(int j1 = 0; j1 < 4; j1++) {
        MOV      R1,#+0
// 2870             for(int l1 = 0; l1 < 16; l1++) {
??j_4:
        MOV      R2,#+0
// 2871                 int i2 = 0;
??j_5:
        MOV      R3,#+0
// 2872                 int j2 = 0;
        MOV      R12,#+0
// 2873                 if(l1 == 0)
        CMP      R2,#+0
// 2874                     j2 = ai1[j1];
        ADDEQ    R4,SP,#+4
        BEQ      ??j_6
// 2875                 else
// 2876                 if(l1 == 13)
        CMP      R2,#+13
// 2877                     j2 = ai3[j1];
        ADDEQ    R4,SP,#+36
        BEQ      ??j_6
// 2878                 else
// 2879                 if(l1 != 14 && l1 != 15) {
        CMP      R2,#+14
        CMPNE    R2,#+15
        BEQ      ??j_7
// 2880                     i2 = L;
        LDR      R3,[R0, #+2576]
// 2881                     j2 = ai2[j1];
        ADD      R4,SP,#+20
??j_6:
        LDR      R12,[R4, +R1, LSL #+2]
// 2882                 }
// 2883                 int k2 = (ai[l1] + i1) % 360;
??j_7:
        LDR      R5,[SP, #+0]
        ADD      R4,SP,#+52
        LDR      R4,[R4, +R2, LSL #+2]
        ADD      R4,R5,R4
        LDR      R5,??j_3+0x10    ;; 0xffffffffb60b60b7
        SMULL    R6,R7,R4,R5
        MOV      R6,#+360
        ADD      R7,R7,R4
        ASR      R7,R7,#+8
        ADD      R7,R7,R4, LSR #+31
        MUL      R7,R6,R7
        SUB      R4,R4,R7
        LDR      R7,??j_3+0x14    ;; a_short_array1d_static_fld
        CMP      R4,#+90
// 2884                 int l2 = j2 + aint2int(i2, k2);
        ADDLT    R5,R7,R4, LSL #+1
        LDRHLT   R5,[R5, #+0]
        BLT      ??j_8
        RSB      R6,R4,#+0
        ADD      R6,R7,R6, LSL #+1
        CMP      R4,#+180
        ADDLT    R5,R6,#+180
        LDRHLT   R5,[R5, #+180]
        BLT      ??j_8
        MOV      R5,#+14
        ORR      R5,R5,#0x100
        CMP      R4,R5
        BGE      ??j_9
        MVN      R5,#+27
        BIC      R5,R5,#0x200
        ADD      R6,R7,R4, LSL #+1
        ADD      R5,R5,R6
        B        ??j_10
??j_9:
        ADD      R5,R6,#+540
??j_10:
        LDRH     R5,[R5, #+180]
        RSB      R5,R5,#+0
??j_8:
        LDR      R6,??j_3+0x18    ;; 0x10624dd3
        MUL      R5,R3,R5
// 2885                 int i3 = j2 - (aint2int(i2, k2) * 27 + xxb(i2, k2) * 10) / 53;
        CMP      R4,#+90
        SMULL    R8,R9,R6,R5
        MOV      R6,R4
        ASR      R9,R9,#+6
        ADD      R5,R9,R5, LSR #+31
        ADD      R5,R5,R12
        RSB      R6,R6,#+0
        ADD      R6,R7,R6, LSL #+1
        LDRHLT   R10,[R6, #+180]
        ADD      R7,R7,R4, LSL #+1
        LDRHLT   R8,[R7, #+0]
        BLT      ??j_11
        CMP      R4,#+180
        BGE      ??j_12
        ADD      R8,R6,#+180
        LDRH     R8,[R8, #+180]
        MVN      R9,#+179
        LDRH     R9,[R9, +R7]
??j_13:
        RSB      R10,R9,#+0
        B        ??j_11
??j_12:
        MOV      R8,#+14
        ORR      R8,R8,#0x100
        CMP      R4,R8
        BGE      ??j_14
        MVN      R8,#+27
        BIC      R8,R8,#0x200
        ADD      R8,R8,R7
        LDRH     R8,[R8, #+180]
        ADD      R9,R6,#+540
        LDRH     R9,[R9, #+0]
        RSB      R8,R8,#+0
        B        ??j_13
??j_14:
        ADD      R8,R6,#+540
        LDRH     R8,[R8, #+180]
        MVN      R9,#+27
        BIC      R9,R9,#0x200
        LDRH     R10,[R9, +R7]
        RSB      R8,R8,#+0
??j_11:
        LDR      R9,??j_3+0x18    ;; 0x10624dd3
        MUL      R8,R3,R8
// 2886                 int j3 = j2 - xxb(i2, k2);
        CMP      R4,#+90
        SMULL    R11,LR,R9,R8
        ASR      LR,LR,#+6
        ADD      R9,LR,R8, LSR #+31
        PUSH     {R9}
        CFI CFA R13+156
        MOV      R8,#+27
        MUL      R9,R3,R10
        LDR      R10,??j_3+0x18   ;; 0x10624dd3
        SMULL    R11,LR,R10,R9
        MOV      R11,#+10
        ASR      LR,LR,#+6
        ADD      R9,LR,R9, LSR #+31
        MUL      R10,R11,R9
        POP      {R9}
        CFI CFA R13+152
        LDRHLT   R4,[R6, #+180]
        MLA      R9,R8,R9,R10
        LDR      R8,??j_3+0x1C    ;; 0x4d4873ed
        SMULL    R10,R11,R8,R9
        ASR      R11,R11,#+4
        ADD      R8,R11,R9, LSR #+31
        SUB      R8,R12,R8
        BLT      ??j_15
        CMP      R4,#+180
        BGE      ??j_16
        MVN      R4,#+179
        LDRH     R4,[R4, +R7]
??j_17:
        RSB      R4,R4,#+0
        B        ??j_15
??j_16:
        MOV      R9,#+14
        ORR      R9,R9,#0x100
        CMP      R4,R9
        ADDLT    R4,R6,#+540
        LDRHLT   R4,[R4, #+0]
        BLT      ??j_17
        MVN      R4,#+27
        BIC      R4,R4,#0x200
        LDRH     R4,[R4, +R7]
??j_15:
        MUL      R4,R3,R4
        LDR      R3,??j_3+0x18    ;; 0x10624dd3
        SMULL    R6,R7,R3,R4
        ASR      R7,R7,#+6
        ADD      R3,R7,R4, LSR #+31
// 2887                 if((R & 0xe0) != 0)
        LDR      R4,[R0, #+2568]
        SUB      R3,R12,R3
        TST      R4,#0xE0
        BEQ      ??j_18
// 2888                     switch(R & 0xe0) {
        AND      R4,R4,#0xE0
        SUB      R4,R4,#+32
        CMP      R4,#+192
        BHI      ??j_18
        ADR      R6,??j_0
        LDRB     R6,[R6, R4]
        ADD      PC,PC,R6, LSL #+2
        DATA
??j_0:
        DC8      +48,+144,+144,+144
        DC8      +144,+144,+144,+144
        DC8      +144,+144,+144,+144
        DC8      +144,+144,+144,+144
        DC8      +144,+144,+144,+144
        DC8      +144,+144,+144,+144
        DC8      +144,+144,+144,+144
        DC8      +144,+144,+144,+144
        DC8      +55,+144,+144,+144
        DC8      +144,+144,+144,+144
        DC8      +144,+144,+144,+144
        DC8      +144,+144,+144,+144
        DC8      +144,+144,+144,+144
        DC8      +144,+144,+144,+144
        DC8      +144,+144,+144,+144
        DC8      +144,+144,+144,+144
        DC8      +66,+144,+144,+144
        DC8      +144,+144,+144,+144
        DC8      +144,+144,+144,+144
        DC8      +144,+144,+144,+144
        DC8      +144,+144,+144,+144
        DC8      +144,+144,+144,+144
        DC8      +144,+144,+144,+144
        DC8      +144,+144,+144,+144
        DC8      +82,+144,+144,+144
        DC8      +144,+144,+144,+144
        DC8      +144,+144,+144,+144
        DC8      +144,+144,+144,+144
        DC8      +144,+144,+144,+144
        DC8      +144,+144,+144,+144
        DC8      +144,+144,+144,+144
        DC8      +144,+144,+144,+144
        DC8      +94,+144,+144,+144
        DC8      +144,+144,+144,+144
        DC8      +144,+144,+144,+144
        DC8      +144,+144,+144,+144
        DC8      +144,+144,+144,+144
        DC8      +144,+144,+144,+144
        DC8      +144,+144,+144,+144
        DC8      +144,+144,+144,+144
        DC8      +110,+144,+144,+144
        DC8      +144,+144,+144,+144
        DC8      +144,+144,+144,+144
        DC8      +144,+144,+144,+144
        DC8      +144,+144,+144,+144
        DC8      +144,+144,+144,+144
        DC8      +144,+144,+144,+144
        DC8      +144,+144,+144,+144
        DC8      +126,+0,+0,+0
        ARM
// 2889                     case 32: // ' '
// 2890                         i3 = (i3 * 8) / 10;
??j_19:
        LDR      R6,??DataTable33  ;; 0x66666667
        LSL      R4,R8,#+3
        SMULL    R7,R8,R6,R4
        ASR      R8,R8,#+2
        ADD      R8,R8,R4, LSR #+31
// 2891                         j3 = (j3 * 73) / 100;
        MOV      R4,#+73
        B        ??j_20
// 2892                         break;
// 2893 
// 2894                     case 64: // '@'
// 2895                         l2 = (l2 * 73) / 100;
??j_21:
        MOV      R4,#+73
        MUL      R5,R4,R5
        LDR      R4,??DataTable42  ;; 0x51eb851f
// 2896                         j3 = (j3 * 7) / 10;
        RSB      R3,R3,R3, LSL #+3
        SMULL    R6,R7,R4,R5
        LDR      R4,??DataTable33  ;; 0x66666667
        ASR      R7,R7,#+5
        ADD      R5,R7,R5, LSR #+31
        SMULL    R6,R7,R4,R3
        ASR      R7,R7,#+2
        B        ??j_22
// 2897                         break;
// 2898 
// 2899                     case 96: // '`'
// 2900                         l2 = (l2 * 76) / 100;
??j_23:
        MOV      R4,#+76
        MUL      R5,R4,R5
        LDR      R4,??DataTable42  ;; 0x51eb851f
        SMULL    R6,R7,R4,R5
// 2901                         i3 = (i3 * 78) / 100;
        MOV      R4,#+78
        MUL      R6,R4,R8
        LDR      R4,??DataTable42  ;; 0x51eb851f
        ASR      R7,R7,#+5
        ADD      R5,R7,R5, LSR #+31
        SMULL    R7,R8,R4,R6
// 2902                         j3 = (j3 * 58) / 100;
        MOV      R4,#+58
        MUL      R3,R4,R3
        LDR      R4,??DataTable42  ;; 0x51eb851f
        ASR      R8,R8,#+5
        ADD      R8,R8,R6, LSR #+31
        B        ??j_24
// 2903                         break;
// 2904 
// 2905                     case 128: 
// 2906                         l2 = (l2 * 86) / 100;
??j_25:
        MOV      R4,#+86
        MUL      R5,R4,R5
        LDR      R4,??DataTable42  ;; 0x51eb851f
        SMULL    R6,R7,R4,R5
// 2907                         i3 = (i3 * 8) / 10;
        LDR      R6,??DataTable33  ;; 0x66666667
        ASR      R7,R7,#+5
        ADD      R5,R7,R5, LSR #+31
        LSL      R4,R8,#+3
        SMULL    R7,R8,R6,R4
        ASR      R8,R8,#+2
        ADD      R8,R8,R4, LSR #+31
        B        ??j_18
// 2908                         break;
// 2909 
// 2910                     case 160: 
// 2911                         l2 = (l2 * 83) / 100;
??j_26:
        MOV      R4,#+83
        MUL      R5,R4,R5
        LDR      R4,??DataTable42  ;; 0x51eb851f
        SMULL    R6,R7,R4,R5
// 2912                         i3 = (i3 * 68) / 100;
        MOV      R4,#+68
        MUL      R6,R4,R8
        LDR      R4,??DataTable42  ;; 0x51eb851f
        ASR      R7,R7,#+5
        ADD      R5,R7,R5, LSR #+31
        SMULL    R7,R8,R4,R6
// 2913                         j3 = (j3 * 85) / 100;
        MOV      R4,#+85
        MUL      R3,R4,R3
        LDR      R4,??DataTable42  ;; 0x51eb851f
        ASR      R8,R8,#+5
        ADD      R8,R8,R6, LSR #+31
        B        ??j_24
// 2914                         break;
// 2915 
// 2916                     case 192: 
// 2917                         l2 = (l2 * 67) / 100;
??j_27:
        MOV      R4,#+67
        MUL      R5,R4,R5
        LDR      R4,??DataTable42  ;; 0x51eb851f
        SMULL    R6,R7,R4,R5
// 2918                         i3 = (i3 * 77) / 100;
        MOV      R4,#+77
        MUL      R6,R4,R8
        LDR      R4,??DataTable42  ;; 0x51eb851f
        ASR      R7,R7,#+5
        ADD      R5,R7,R5, LSR #+31
        SMULL    R7,R8,R4,R6
// 2919                         j3 = (j3 * 83) / 100;
        MOV      R4,#+83
        MUL      R3,R4,R3
        LDR      R4,??DataTable42  ;; 0x51eb851f
        ASR      R8,R8,#+5
        ADD      R8,R8,R6, LSR #+31
        B        ??j_24
// 2920                         break;
// 2921 
// 2922                     case 224: 
// 2923                         l2 = (l2 * 68) / 100;
??j_28:
        MOV      R4,#+68
        MUL      R5,R4,R5
        LDR      R4,??DataTable42  ;; 0x51eb851f
        SMULL    R6,R7,R4,R5
// 2924                         i3 = (i3 * 68) / 100;
        MOV      R4,#+68
        MUL      R6,R4,R8
        LDR      R4,??DataTable42  ;; 0x51eb851f
        ASR      R7,R7,#+5
        ADD      R5,R7,R5, LSR #+31
        SMULL    R7,R8,R4,R6
// 2925                         j3 = (j3 * 68) / 100;
        MOV      R4,#+68
        ASR      R8,R8,#+5
        ADD      R8,R8,R6, LSR #+31
??j_20:
        MUL      R3,R4,R3
        LDR      R4,??DataTable42  ;; 0x51eb851f
??j_24:
        SMULL    R6,R7,R4,R3
        ASR      R7,R7,#+5
??j_22:
        ADD      R3,R7,R3, LSR #+31
// 2926                         break;
// 2927                     }
// 2928                 if(l2 > 255)
??j_18:
        CMP      R5,#+256
// 2929                     l2 = 255;
        MOVGE    R5,#+255
// 2930                 if(i3 > 255)
        CMP      R8,#+256
// 2931                     i3 = 255;
        MOVGE    R8,#+255
// 2932                 if(j3 > 255)
        CMP      R3,#+256
// 2933                     j3 = 255;
        MOVGE    R3,#+255
// 2934                 if(l2 < 0)
        CMP      R5,#+0
// 2935                     l2 = 0;
        MOVMI    R5,#+0
// 2936                 if(i3 < 0)
        CMP      R8,#+0
// 2937                     i3 = 0;
        MOVMI    R8,#+0
// 2938                 if(j3 < 0)
        CMP      R3,#+0
// 2939                     j3 = 0;
        MOVMI    R3,#+0
// 2940                 int k3 = (j1 << 4) + l1;
// 2941                 g_int_array1d_static_fld[k3] = (l2 & 0xf8)<<8 | (i3 & 0xfc)<<3 | (j3 & 0xf8)>>3;
        ADD      R4,R2,R1, LSL #+4
        ADD      R4,R0,R4, LSL #+1
        AND      R5,R5,#0xF8
        AND      R6,R8,#0xFC
        LSL      R6,R6,#+3
        ORR      R5,R6,R5, LSL #+8
        LSL      R3,R3,#+24
        LSR      R3,R3,#+27
        ORR      R3,R3,R5
        STRH     R3,[R4, #+64]
// 2942                   //l2 << 16 | i3 << 8 | j3;
// 2943             }
        ADD      R2,R2,#+1
        CMP      R2,#+16
        BLT      ??j_5
// 2944 
// 2945         }
        ADD      R1,R1,#+1
        CMP      R1,#+4
        BLT      ??j_4
// 2946 
// 2947         for(int k1 = 0; k1 < 32; k1++)
        MOV      R1,#+0
// 2948             j_int_array1d_static_fld[k1] = g_int_array1d_static_fld[e_int_array1d_static_fld[k1]] | (k1 & 3) << 24;
??j_29:
        ADD      R3,R0,R1, LSL #+2
        LDR      R3,[R3, #+2692]
        ADD      R2,R0,R1, LSL #+1
        ADD      R3,R0,R3, LSL #+1
        LDRH     R3,[R3, #+64]
        ADD      R1,R1,#+1
        CMP      R1,#+32
        STRH     R3,[R2, #+0]
        BLT      ??j_29
// 2949 
// 2950     }
        ADD      SP,SP,#+116      ;; stack cleaning
        CFI CFA R13+36
        POP      {R4-R11,PC}      ;; return
        DATA
??j_3:
        DC32     `?<Constant {0, 240, 210, 180, 150, 120, 90, 60`
        DC32     `?<Constant {128, 192, 256, 256}>`
        DC32     `?<Constant {74, 115, 187, 230}>`
        DC32     `?<Constant {0, 61, 120, 197}>`
        DC32     0xffffffffb60b60b7
        DC32     a_short_array1d_static_fld
        DC32     0x10624dd3
        DC32     0x4d4873ed
        CFI EndBlock cfiBlock35

        RSEG CODE:CODE:NOROOT(2)
        DATA
??DataTable33:
        DC32     0x66666667

        RSEG CODE:CODE:NOROOT(2)
        DATA
??DataTable42:
        DC32     0x51eb851f

        RSEG CODE:CODE:NOROOT(2)
        CFI Block cfiBlock36 Using cfiCommon0
        CFI NoFunction
        THUMB
??xd??rT:
        BX       PC
        Nop      
        CFI EndBlock cfiBlock36
        REQUIRE xd
// 2951 

        RSEG CODE:CODE:NOROOT(2)
        CFI Block cfiBlock37 Using cfiCommon1
        CFI Function xd
        ARM
// 2952     static void xd(int i1) {
// 2953         byte byte0 = (byte)((S & 0x20) != 0 ? 16 : 8);
xd:
        LDR      R1,??DataTable51  ;; j_int_array1d_static_fld
        PUSH     {R4}
        CFI R4 Frame(CFA, -4)
        CFI CFA R13+4
        LDR      R3,[R1, #+2564]
// 2954         int j1 = i1 - ((d_byte_array1d_static_fld[0] & 0xff) + 1);
        ADD      R12,R1,#+2896
        LDRSB    R12,[R12, #+0]
        TST      R3,#0x20
        MOVNE    R2,#+16
        MOVEQ    R2,#+8
        AND      R12,R12,#0xFF
        SUB      R0,R0,R12
        SUBS     R0,R0,#+1
// 2955         if(j1 >= 0 && j1 < byte0) {
        BMI      ??xd_0
        CMP      R0,R2
        BGE      ??xd_0
// 2956             int k1 = d_byte_array1d_static_fld[1] & 0xff;
        MOV      R12,#+81
        ORR      R12,R12,#0xB00
        LDRSB    R12,[R12, +R1]
// 2957             int l1 = d_byte_array1d_static_fld[2] & 0xff;
// 2958             boolean flag = (l1 & 0x80) != 0;
// 2959             l1 = (l1 & 3) << 2 | 0x10;
// 2960             int i2;
// 2961             if((S & 0x20) != 0)
        TST      R3,#0x20
        AND      R12,R12,#0xFF
        BEQ      ??xd_1
// 2962                 i2 = l_int_array1d_static_fld[((k1 & 1) << 2) + (k1 >> 6)] + ((k1 & 0x3e) << 3);
        AND      R3,R12,#0x1
        ASR      R4,R12,#+6
        ADD      R3,R4,R3, LSL #+2
        ADD      R3,R1,R3, LSL #+2
        LDR      R3,[R3, #+2824]
        AND      R4,R12,#0x3E
        B        ??xd_2
// 2963             else
// 2964                 i2 = l_int_array1d_static_fld[V + (k1 >> 6)] + ((k1 & 0x3f) << 3);
??xd_1:
        LDR      R3,[R1, #+2888]
        AND      R4,R12,#0x3F
        ADD      R3,R3,R12, ASR #+6
        ADD      R3,R1,R3, LSL #+2
        LDR      R3,[R3, #+2824]
// 2965             ushort c1;
// 2966             if(flag)
??xd_2:
        LDR      R12,[R1, #+2856]
        ADD      R3,R3,R4, LSL #+3
        LDRB     R4,[R1, #+2898]
        TST      R4,#0x80
// 2967                 c1 = a_char_array1d_static_fld[i2 | byte0 - 1 - j1];
        SUBNE    R2,R2,#+1
        SUBNE    R0,R2,R0
// 2968             else
// 2969                 c1 = a_char_array1d_static_fld[i2 | j1];
        ORR      R0,R0,R3
        ADD      R0,R12,R0, LSL #+1
        LDRH     R0,[R0, #+0]
// 2970             if(c1 != 0)
        CMP      R0,#+0
// 2971                 o_int_static_fld |= 0x40;
        LDRNE    R0,[R1, #+2572]
        ORRNE    R0,R0,#0x40
        STRNE    R0,[R1, #+2572]
// 2972         }
// 2973     }
??xd_0:
        POP      {R4}
        CFI R4 SameValue
        CFI CFA R13+0
        BX       LR               ;; return
        CFI EndBlock cfiBlock37

        RSEG CODE:CODE:NOROOT(2)
        CFI Block cfiBlock38 Using cfiCommon0
        CFI NoFunction
        THUMB
??h??rT:
        BX       PC
        Nop      
        CFI EndBlock cfiBlock38
        REQUIRE h
// 2974 

        RSEG CODE:CODE:NOROOT(2)
        CFI Block cfiBlock39 Using cfiCommon1
        CFI Function h
        ARM
// 2975     void h() {
h:
        PUSH     {R4-R6,LR}
        CFI ?RET Frame(CFA, -4)
        CFI R6 Frame(CFA, -8)
        CFI R5 Frame(CFA, -12)
        CFI R4 Frame(CFA, -16)
        CFI CFA R13+16
// 2976         int i1 = getWidth;
        LDR      R4,??DataTable51  ;; j_int_array1d_static_fld
        LDR      R5,[R4, #+2512]
// 2977         int j1 = getHeight;
// 2978         if(i1 != t_int_static_fld || j1 != K)
        LDR      R0,[R4, #+2688]
        LDR      R6,[R4, #+2516]
        CMP      R5,R0
        LDREQ    R0,[R4, #+2684]
        CMPEQ    R6,R0
        BEQ      ??h_0
// 2979             i();
        BL       i
// 2980         t_int_static_fld = i1;
??h_0:
        STR      R5,[R4, #+2688]
// 2981         K = j1;
        STR      R6,[R4, #+2684]
// 2982     }
        POP      {R4-R6,PC}       ;; return
        CFI EndBlock cfiBlock39

        RSEG CODE:CODE:NOROOT(2)
        CFI Block cfiBlock40 Using cfiCommon0
        CFI NoFunction
        THUMB
??loadrom??rT:
        BX       PC
        Nop      
        CFI EndBlock cfiBlock40
        REQUIRE loadrom
// 2983 
// 2984     static boolean bbool() {
// 2985         return (d_int_array1d_static_fld[0] & 0x80) != 0;
// 2986     }
// 2987 
// 2988     static void m() {
// 2989         memset(screens,0,screen_length<<1);
// 2990 //        for(int i1 = 0; i1 < screen_length; i1++)
// 2991 //            screen[i1] = 0;
// 2992 
// 2993     }
// 2994 
// 2995     static int xxb(int i1, int j1) {
// 2996         int k1;
// 2997         if(j1 < 90)
// 2998             k1 = a_short_array1d_static_fld[90 - j1];
// 2999         else
// 3000         if(j1 < 180)
// 3001             k1 = -a_short_array1d_static_fld[j1 - 90];
// 3002         else
// 3003         if(j1 < 270)
// 3004             k1 = -a_short_array1d_static_fld[270 - j1];
// 3005         else
// 3006             k1 = a_short_array1d_static_fld[j1 - 270];
// 3007         return (k1 * i1) / 1000;
// 3008     }
// 3009 

        RSEG CODE:CODE:NOROOT(2)
        CFI Block cfiBlock41 Using cfiCommon1
        CFI Function loadrom
        ARM
// 3010     boolean loadrom(char *s) {
loadrom:
        PUSH     {LR}
        CFI ?RET Frame(CFA, -4)
        CFI CFA R13+4
// 3011         int i1 = loadROM(s);      
        BL       loadROM
// 3012 
// 3013   
// 3014   //savedebug();        
// 3015         if(i1 != 0)
        CMP      R0,#+0
// 3016             return i1;
        ANDNE    R0,R0,#0xFF
        POPNE    {PC}
// 3017         g();
        BL       g
// 3018         for(int j1 = 0; j1 < b_int_array1d_static_fld_length; j1++)
        LDR      R1,??DataTable51  ;; j_int_array1d_static_fld
        MOV      R0,#+0
        B        ??loadrom_0
// 3019             if(j1 == 3)
??loadrom_1:
        CMP      R0,#+3
        BEQ      ??loadrom_2
// 3020                 b_int_array1d_static_fld[j1] = 2048 - (j1 << 13);
// 3021             else
// 3022                 b_int_array1d_static_fld[j1] = -(j1 << 13);
??loadrom_0:
        ADD      R2,R1,R0, LSL #+2
        LSL      R3,R0,#+13
        RSB      R3,R3,#+0
        STR      R3,[R2, #+2440]
        MVN      R2,#+255
        BIC      R2,R2,#0x5700
        B        ??loadrom_3
??loadrom_2:
        STR      R2,[R1, #+2452]
??loadrom_3:
        ADD      R0,R0,#+1
        CMP      R0,#+8
        BLT      ??loadrom_1
// 3023 
// 3024         avoid();
        LDR      R0,[R1, #+2880]
        ASR      R0,R0,#+13
        STR      R0,[R1, #+2556]
        LDR      R0,[R1, #+2868]
        ASR      R0,R0,#+10
        STR      R0,[R1, #+2552]
        BL       `b`
// 3025         b_java_lang_String_static_fld = s;
// 3026 //savedebug(); 
// 3027         //savefile("1.out",vram,0x10810);
// 3028         return 0;//true;
        MOV      R0,#+0
        POP      {PC}             ;; return
        CFI EndBlock cfiBlock41
// 3029     }

        RSEG CODE:CODE:NOROOT(2)
        CFI Block cfiBlock42 Using cfiCommon0
        CFI NoFunction
        THUMB
??c0??rT:
        BX       PC
        Nop      
        CFI EndBlock cfiBlock42
        REQUIRE `c0`
// 3030 
// 3031     static void d() {
// 3032         if(s_boolean_static_fld) {
// 3033             v_boolean_static_fld = n_boolean_static_fld = true;
// 3034      //       try {
// 3035      //           Thread.yield();
// 3036      //           Thread.sleep(100L);
// 3037      //       }
// 3038      //       catch(InterruptedException interruptedexception) { }
// 3039         }
// 3040     }
// 3041 /* repaint */

        RSEG CODE:CODE:NOROOT(2)
        CFI Block cfiBlock43 Using cfiCommon1
        CFI Function `c0`
        ARM
// 3042     void c0() {
`c0`:
        PUSH     {R4-R11,LR}
        CFI ?RET Frame(CFA, -4)
        CFI R11 Frame(CFA, -8)
        CFI R10 Frame(CFA, -12)
        CFI R9 Frame(CFA, -16)
        CFI R8 Frame(CFA, -20)
        CFI R7 Frame(CFA, -24)
        CFI R6 Frame(CFA, -28)
        CFI R5 Frame(CFA, -32)
        CFI R4 Frame(CFA, -36)
        CFI CFA R13+36
        SUB      SP,SP,#+60
        CFI CFA R13+96
// 3043         h();
        BL       h
// 3044         int i1,i2,i3,i4,i5,i6,i7,i8,i9,i10;
// 3045         int j1,j2,j3,j4,j5,j6,j7,j8,j9,j10;
// 3046         int k1,k2,k3,k4,k5,k6,k7,k8,k9,k10;
// 3047         int l1,l2,l3,l4,l5,l6,l7,l8,l9,l10;
// 3048 
// 3049         ushort *ai = screens;
        LDR      R0,??DataTable46  ;; j_int_array1d_static_fld
        LDR      R2,[R0, #+3164]
        STR      R2,[SP, #+40]
// 3050         byte *abyte0 = vram;
        LDR      R2,[R0, #+2652]
        STR      R2,[SP, #+24]
// 3051         byte *abyte1 = d_byte_array1d_static_fld;
// 3052         boolean *aflag = a_boolean_array1d_static_fld;
// 3053         boolean *aflag1 = b_boolean_array1d_static_fld;
// 3054         ushort *ac1 = a_char_array1d_static_fld;
        LDR      R2,[R0, #+2856]
        STR      R2,[SP, #+28]
        LDR      R1,[R0, #+2568]
        TST      R1,#0x2
        MOVNE    R1,#+1
        MOVEQ    R1,#+0
        STR      R1,[SP, #+52]
// 3055         ushort *ai1 = j_int_array1d_static_fld;
// 3056         boolean flag = (R & 2) != 0;
// 3057         boolean flag1 = (R & 4) != 0;
        LDR      R1,[R0, #+2568]
        TST      R1,#0x4
        MOVNE    R1,#+1
        MOVEQ    R1,#+0
        STRB     R1,[SP, #+13]
// 3058         i1 = r_int_static_fld;
// 3059         j1 = h_int_static_fld;
        LDR      R3,[R0, #+3168]
        LDR      R1,[R0, #+3172]
        STR      R3,[SP, #+44]
// 3060         D = y;
        LDR      R2,[R0, #+2640]
        STR      R2,[R0, #+2644]
        LDR      R2,[R0, #+2568]
        TST      R2,#0x8
        BEQ      ??c0_0
// 3061         if((R & 8) != 0) {
// 3062             for(k1 = 0; k1 < 240;) {
        MOV      R3,#+0
        STR      R3,[SP, #+8]
// 3063                 l1 = D;
??c0_1:
        LDR      R2,[R0, #+2644]
// 3064                 j2 = 0;
// 3065                 l2 = 0;
// 3066                 j3 = i_int_array1d_static_fld[8 + (l1 >> 10 & 3)];
        MOV      R4,#+3
        AND      R4,R4,R2, ASR #+10
        ADD      R4,R0,R4, LSL #+2
        LDR      R4,[R4, #+2424]
        LSL      R5,R2,#+22
        STR      R4,[SP, #+16]
        ADD      R4,R4,R5, LSR #+22
        STR      R4,[SP, #+20]
// 3067                 l3 = j3 + (l1 & 0x3ff);
// 3068                 j4 = l1 >> 12 & 7;
        MOV      R4,#+7
        AND      R4,R4,R2, ASR #+12
        STR      R4,[SP, #+32]
// 3069                 l2 = abyte0[ram+(j3 + 960 + (l1 >> 4 & 0x38) + (l1 >> 2 & 7))] & 0xff;
        LDR      R5,[R0, #+3184]
        LDR      R6,[SP, #+16]
        ASR      R3,R2,#+4
        ADD      R5,R6,R5
        AND      R6,R3,#0x38
        ADD      R5,R6,R5
        MOV      R6,#+7
        AND      R6,R6,R2, ASR #+2
        ADD      R5,R6,R5
        LDR      R6,[SP, #+24]
// 3070                 k4 = l1 & 2 | l1 >> 4 & 4;
        AND      R3,R3,#0x4
        ADD      R5,R5,R6
        ADD      R5,R5,#+960
        LDRSB    R5,[R5, #+0]
// 3071                 j2 = (l2 >> k4 & 3) << 2;
// 3072                 l4 = -c_int_static_fld;
        ADD      R6,R0,#+1296
        AND      R5,R5,#0xFF
        STR      R5,[SP, #+36]
        AND      R5,R2,#0x2
        ORR      R3,R3,R5
        STR      R3,[SP, #+0]
        LDR      R3,[SP, #+36]
        LDR      R4,[SP, #+0]
        MOV      R5,#+3
        AND      R3,R5,R3, ASR R4
        LDR      R5,[R0, #+2648]
        LSL      R3,R3,#+2
        RSB      R5,R5,#+0
        STR      R5,[SP, #+4]
        LDR      R5,[SP, #+8]
        ADD      R5,R6,R5, LSL #+2
        STR      R5,[SP, #+56]
        B        ??c0_2
// 3073                 do {
// 3074                     i5 = abyte0[ram+l3] & 0xff;
// 3075                     l5 = l_int_array1d_static_fld[e_int_static_fld + (i5 >> 6)] + ((i5 & 0x3f) << 3) + j4;
// 3076                     i6 = l4;
// 3077                     k6 = (8 + k1) - j4;
// 3078                     if(i6 < 0)
// 3079                         i6 = 0;
// 3080                     i7 = c_int_array1d_static_fld[k1] + f_int_array1d_static_fld[l4 + 7];
// 3081                     for(k7 = k1; k7 < k6;) {
// 3082                         if(!aflag1[k7]) {
// 3083                             i8 = ac1[l5];
// 3084                             l8 = i7;
// 3085                             for(k9 = l4 + 7; k9 >= i6; k9--) {
// 3086                                 if(!aflag[k9]) {
// 3087                                   if(flag || k9 >= 8){
// 3088                                       //if(k9>4) //my add =    
// 3089                                         ai[l8] = ai1[j2 | i8 & 3];
// 3090                                         //if((j2 | i8 & 3)!=0) printf("%d ", j2 | i8 & 3);
// 3091                                   }
// 3092                                     l8 -= i1;
// 3093                                 }
// 3094                                 i8 >>= 2;
// 3095                             }
// 3096 
// 3097                             i7 += j1;
// 3098                         }
// 3099                         k7++;
// 3100                         l5++;
// 3101                     }
// 3102 
// 3103                     if((l1 & 0x20) == 0) {
// 3104                         j8 = abyte0[ram+(l3 | 0x20)] & 0xff;
// 3105                         i9 = l_int_array1d_static_fld[e_int_static_fld + (j8 >> 6)] + ((j8 & 0x3f) << 3);
// 3106                         for(k6 += 8; k7 < k6;) {
// 3107                             if(!aflag1[k7]) {
// 3108                                 l9 = ac1[i9];
// 3109                                 j10 = i7;
// 3110                                 for(l10 = l4 + 7; l10 >= i6; l10--) {
// 3111                                     if(!aflag[l10]) {
// 3112                                       if(flag || l10 >= 8){
// 3113                                           //if(l10<=3)//my add = no thing
// 3114                                             ai[j10] = ai1[j2 | (l9 & 3)];
// 3115                                             //if(++nnn>2000000){
// 3116                                             // savescreen("out.bmp");
// 3117                                               //nnn=0;
// 3118                                             //}
// 3119                                       }
// 3120                                         j10 -= i1;
// 3121                                     }
// 3122                                     l9 >>= 2;
// 3123                                 }
// 3124 
// 3125                                 i7 += j1;
// 3126                             }
// 3127                             k7++;
// 3128                             i9++;
// 3129                         }
// 3130 
// 3131                     }
// 3132                     if((l4 += 8) >= 256)
// 3133                         break;
// 3134                     l1++;
// 3135                     l3++;
// 3136                     if((l1 & 1) == 0) {
// 3137                         if((l1 & 3) == 0) {
// 3138                             if((l1 & 0x1f) == 0) {
// 3139                                 l1 = (l1 - 32) ^ 0x400;
// 3140                                 j3 = i_int_array1d_static_fld[8 + (l1 >> 10 & 3)];
// 3141                                 l3 = j3 + (l1 & 0x3ff);
// 3142                             }
// 3143                             l2 = abyte0[ram+(j3 + 960 + (l1 >> 4 & 0x38) + (l1 >> 2 & 7))] & 0xff;
// 3144                             k4 -= 2;
// 3145                         } else {
// 3146                             k4 += 2;
??c0_3:
        LDR      R4,[SP, #+0]
        ADD      R4,R4,#+2
??c0_4:
        STR      R4,[SP, #+0]
// 3147                         }
// 3148                         j2 = (l2 >> k4 & 3) << 2;
        LDR      R3,[SP, #+36]
        LDR      R4,[SP, #+0]
        MOV      R5,#+3
        AND      R3,R5,R3, ASR R4
        LSL      R3,R3,#+2
??c0_2:
        LDR      R4,[R0, #+3184]
        LDR      R5,[SP, #+20]
        LDR      R9,??DataTable50  ;; f_int_array1d_static_fld + 28
        LDR      R10,[SP, #+4]
        ADD      R4,R5,R4
        LDR      R5,[SP, #+24]
        ADD      R10,R10,#+7
        LDRSB    R4,[R4, +R5]
        LDR      R5,[SP, #+32]
        AND      R4,R4,#0xFF
        AND      R6,R4,#0x3F
        ADD      R5,R5,R6, LSL #+3
        LDR      R6,[R0, #+2580]
        ADD      R4,R6,R4, ASR #+6
        LDR      R6,[SP, #+32]
        ADD      R4,R0,R4, LSL #+2
        LDR      R4,[R4, #+2824]
        ADD      R8,R4,R5
        LDR      R5,[SP, #+8]
        LDR      R4,[SP, #+4]
        ADD      R5,R5,#+8
        SUB      R7,R5,R6
        LDR      R5,[SP, #+56]
        LDR      R6,[SP, #+4]
        LDR      R5,[R5, #+0]
        LDR      R6,[R9, +R6, LSL #+2]
        CMP      R4,#+0
        ADD      R5,R6,R5
        LDR      R6,[SP, #+8]
        MOVMI    R4,#+0
        STR      R10,[SP, #+48]
        CMP      R6,R7
        BGE      ??c0_5
??c0_6:
        ADD      R9,R6,R0
        LDRB     R9,[R9, #+3216]
        CMP      R9,#+0
        BNE      ??c0_7
        LDR      R9,[SP, #+28]
        LDR      R11,[SP, #+48]
        ADD      R9,R9,R8, LSL #+1
        LDRH     R9,[R9, #+0]
        MOV      R10,R5
        CMP      R11,R4
        BLT      ??c0_8
??c0_9:
        ADD      R12,R11,R0
        LDRB     R12,[R12, #+3476]
        CMP      R12,#+0
        BNE      ??c0_10
        LDR      R12,[SP, #+52]
        LSLS     R12,R12,#+24
        BNE      ??c0_11
        CMP      R11,#+8
        BLT      ??c0_12
??c0_11:
        LDR      R12,[SP, #+40]
        AND      LR,R9,#0x3
        ORR      LR,LR,R3
        ADD      LR,R0,LR, LSL #+1
        LDRH     LR,[LR, #+0]
        ADD      R12,R12,R10, LSL #+1
        STRH     LR,[R12, #+0]
??c0_12:
        SUB      R10,R10,R1
??c0_10:
        ASR      R9,R9,#+2
        SUB      R11,R11,#+1
        CMP      R11,R4
        BGE      ??c0_9
??c0_8:
        LDR      R9,[SP, #+44]
        ADD      R5,R9,R5
??c0_7:
        ADD      R6,R6,#+1
        ADD      R8,R8,#+1
        CMP      R6,R7
        BLT      ??c0_6
??c0_5:
        AND      R9,R2,#0x20
        STRB     R9,[SP, #+12]
        CMP      R9,#+0
        BNE      ??c0_13
        LDR      R8,[R0, #+3184]
        LDR      R9,[SP, #+20]
        ADD      R7,R7,#+8
        ORR      R9,R9,#0x20
        ADD      R8,R9,R8
        LDR      R9,[SP, #+24]
        CMP      R6,R7
        LDRSB    R8,[R8, +R9]
        LDR      R9,[R0, #+2580]
        AND      R8,R8,#0xFF
        ADD      R9,R9,R8, ASR #+6
        ADD      R9,R0,R9, LSL #+2
        LDR      R9,[R9, #+2824]
        AND      R8,R8,#0x3F
        ADD      R8,R9,R8, LSL #+3
        BGE      ??c0_13
??c0_14:
        ADD      R9,R6,R0
        LDRB     R9,[R9, #+3216]
        CMP      R9,#+0
        BNE      ??c0_15
        LDR      R9,[SP, #+28]
        LDR      R11,[SP, #+48]
        ADD      R9,R9,R8, LSL #+1
        LDRH     R9,[R9, #+0]
        MOV      R10,R5
        CMP      R11,R4
        BLT      ??c0_16
??c0_17:
        ADD      R12,R11,R0
        LDRB     R12,[R12, #+3476]
        CMP      R12,#+0
        BNE      ??c0_18
        LDR      R12,[SP, #+52]
        LSLS     R12,R12,#+24
        BNE      ??c0_19
        CMP      R11,#+8
        BLT      ??c0_20
??c0_19:
        LDR      R12,[SP, #+40]
        AND      LR,R9,#0x3
        ORR      LR,LR,R3
        ADD      LR,R0,LR, LSL #+1
        LDRH     LR,[LR, #+0]
        ADD      R12,R12,R10, LSL #+1
        STRH     LR,[R12, #+0]
??c0_20:
        SUB      R10,R10,R1
??c0_18:
        ASR      R9,R9,#+2
        SUB      R11,R11,#+1
        CMP      R11,R4
        BGE      ??c0_17
??c0_16:
        LDR      R9,[SP, #+44]
        ADD      R5,R9,R5
??c0_15:
        ADD      R6,R6,#+1
        ADD      R8,R8,#+1
        CMP      R6,R7
        BLT      ??c0_14
??c0_13:
        LDR      R5,[SP, #+4]
        ADD      R5,R5,#+8
        STR      R5,[SP, #+4]
        CMP      R5,#+256
        BLT      ??c0_21
// 3149                     }
// 3150                 } while(true);
// 3151                 j5 = 8 - j4;
// 3152                 if((l1 & 0x20) == 0)
        LDRB     R3,[SP, #+12]
        LDR      R2,[SP, #+32]
// 3153                     j5 += 8;
// 3154                 k1 += j5;
        LDR      R4,[SP, #+8]
        RSB      R2,R2,#+8
        CMP      R3,#+0
        ADDEQ    R2,R2,#+8
        ADD      R4,R2,R4
        STR      R4,[SP, #+8]
        CMP      R2,#+1
        BLT      ??c0_22
// 3155                 while(j5 > 0)  {
// 3156                     if((D & 0x7000) == 28672) {
??c0_23:
        LDR      R3,[R0, #+2644]
        AND      R4,R3,#0x7000
        CMP      R4,#+28672
        BNE      ??c0_24
// 3157                         D &= 0x8fff;
        MOV      R4,#+255
        ORR      R4,R4,#0x8F00
        AND      R3,R4,R3
// 3158                         if((D & 0x3e0) == 928) {
        MOV      R4,#+31
        ORR      R4,R4,#0xFC00
        AND      R5,R3,#0x3E0
        CMP      R5,#+928
        BNE      ??c0_25
// 3159                             D ^= 0x800;
// 3160                             D &= 0xfc1f;
        EOR      R3,R3,#0x800
??c0_26:
        AND      R3,R4,R3
        B        ??c0_27
// 3161                         } else
??c0_21:
        LDR      R5,[SP, #+20]
        ADD      R2,R2,#+1
        ADD      R5,R5,#+1
        STR      R5,[SP, #+20]
        TST      R2,#0x1
        BNE      ??c0_2
        TST      R2,#0x3
        BNE      ??c0_3
        TST      R2,#0x1F
        BNE      ??c0_28
        SUB      R2,R2,#+32
        EOR      R2,R2,#0x400
        MOV      R4,#+3
        AND      R4,R4,R2, ASR #+10
        ADD      R4,R0,R4, LSL #+2
        LDR      R4,[R4, #+2424]
        LSL      R5,R2,#+22
        STR      R4,[SP, #+16]
        ADD      R4,R4,R5, LSR #+22
        STR      R4,[SP, #+20]
??c0_28:
        LDR      R4,[R0, #+3184]
        LDR      R5,[SP, #+16]
        ADD      R4,R5,R4
        MOV      R5,#+56
        AND      R5,R5,R2, ASR #+4
        ADD      R4,R5,R4
        MOV      R5,#+7
        AND      R5,R5,R2, ASR #+2
        ADD      R4,R5,R4
        LDR      R5,[SP, #+24]
        ADD      R4,R4,R5
        ADD      R4,R4,#+960
        LDRSB    R4,[R4, #+0]
        AND      R4,R4,#0xFF
        STR      R4,[SP, #+36]
        LDR      R4,[SP, #+0]
        SUB      R4,R4,#+2
        B        ??c0_4
// 3162                         if((D & 0x3e0) == 992)
// 3163                             D &= 0xfc1f;
// 3164                         else
// 3165                             D += 32;
// 3166                     } else {
// 3167                         D += 4096;
??c0_24:
        ADD      R3,R3,#+4096
??c0_27:
        STR      R3,[R0, #+2644]
// 3168                     }
// 3169                     j5--;
        SUB      R2,R2,#+1
        CMP      R2,#+1
        BGE      ??c0_23
??c0_22:
        LDR      R2,[SP, #+8]
        CMP      R2,#+240
        BLT      ??c0_1
// 3170                 }
// 3171             }
// 3172 
// 3173         }
// 3174         if((R & 0x10) != 0) {
??c0_0:
        LDR      R2,[R0, #+2568]
        TST      R2,#0x10
        BEQ      ??c0_29
// 3175             byte byte0 = (byte)((S & 0x20) != 0 ? 16 : 8);
        LDR      R2,[R0, #+2564]
        TST      R2,#0x20
        MOVEQ    R3,#+8
        MOVNE    R3,#+16
        B        ??c0_30
??c0_25:
        CMP      R5,#+992
        BEQ      ??c0_26
        ADD      R3,R3,#+32
        B        ??c0_27
??c0_30:
        STR      R3,[SP, #+0]
// 3176 //label0:
// 3177             for(i2 = 252; i2 >= 0; i2 -= 4) {
        MOV      R2,#+252
// 3178                k2 = (abyte1[i2] & 0xff) + 1;
??c0_31:
        ADD      R3,R2,R0
        ADD      R3,R3,#+2896
        LDRSB    R3,[R3, #+0]
// 3179                 i3 = abyte1[i2 + 1] & 0xff;
        ADD      R4,R2,R0
// 3180                 k3 = abyte1[i2 + 2] & 0xff;
// 3181                 i4 = abyte1[i2 + 3] & 0xff;
        ADD      R7,R2,R0
        AND      R3,R3,#0xFF
        ADD      R5,R3,#+1
        MOV      R3,#+81
        ORR      R3,R3,#0xB00
        LDRSB    R3,[R3, +R4]
// 3182                 if(k2 >= 240)
        CMP      R5,#+240
        AND      R6,R3,#0xFF
        MOV      R3,#+82
        ORR      R3,R3,#0xB00
        LDRSB    R3,[R3, +R4]
        MOV      R4,#+83
        ORR      R4,R4,#0xB00
        LDRSB    R4,[R4, +R7]
        AND      R12,R3,#0xFF
        AND      R4,R4,#0xFF
        STR      R4,[SP, #+8]
        BGE      ??c0_32
// 3183                     continue;
// 3184                 boolean flag2 = (k3 & 0x80) != 0;
        TST      R12,#0x80
        MOVNE    R3,#+1
        MOVEQ    R3,#+0
        STRB     R3,[SP, #+12]
// 3185                 boolean flag3 = (k3 & 0x40) != 0;
        TST      R12,#0x40
// 3186                 boolean flag4 = (k3 & 0x20) != 0;
// 3187                 k3 = (k3 & 3) << 2 | 0x10;
        AND      R4,R12,#0x3
        MOV      R7,#+16
        ORR      R12,R7,R4, LSL #+2
// 3188                 k5 = c_int_array1d_static_fld[k2];
// 3189                 boolean flag5 = false;
// 3190                 if(byte0 == 16)
        LDR      R7,[SP, #+0]
        MOVNE    R3,#+1
        MOVEQ    R3,#+0
        ADD      R4,R0,R5, LSL #+2
        LDR      R4,[R4, #+1296]
        ASR      R8,R6,#+6
        CMP      R7,#+16
        BNE      ??c0_33
// 3191                     j6 = l_int_array1d_static_fld[((i3 & 1) << 2) + (i3 >> 6)] + ((i3 & 0x3e) << 3);
        AND      R9,R6,#0x1
        ADD      R8,R8,R9, LSL #+2
        ADD      R8,R0,R8, LSL #+2
        LDR      R8,[R8, #+2824]
        AND      R6,R6,#0x3E
        B        ??c0_34
// 3192                 else
// 3193                     j6 = l_int_array1d_static_fld[V + (i3 >> 6)] + ((i3 & 0x3f) << 3);
??c0_33:
        LDR      R9,[R0, #+2888]
        AND      R6,R6,#0x3F
        ADD      R8,R8,R9
        ADD      R8,R0,R8, LSL #+2
        LDR      R8,[R8, #+2824]
??c0_34:
        ADD      R6,R8,R6, LSL #+3
        STR      R6,[SP, #+4]
// 3194                 l6 = byte0;
// 3195                 j7 = k2;
// 3196                 do {
// 3197                     if(l6 <= 0)
// 3198                         goto label0;//continue label0;
// 3199                     if(!aflag1[j7]) {
??c0_35:
        ADD      R8,R5,R0
        LDRB     R8,[R8, #+3216]
        SUB      R6,R7,#+1
        CMP      R8,#+0
        BNE      ??c0_36
// 3200                         if(flag2)
        LDRB     R8,[SP, #+12]
        CMP      R8,#+0
// 3201                             l7 = ac1[j6 | l6 - 1];
        LDRNE    R7,[SP, #+4]
        ORRNE    R7,R6,R7
        BNE      ??c0_37
// 3202                         else
// 3203                             l7 = ac1[j6 | byte0 - l6];
        LDR      R8,[SP, #+4]
        LDR      R9,[SP, #+0]
        SUB      R7,R9,R7
        ORR      R7,R7,R8
??c0_37:
        LDR      R8,[SP, #+28]
// 3204                         if(flag3)
// 3205                             k8 = i4;
// 3206                         else
// 3207                             k8 = i4 + 7;
// 3208                         if(flag3)
// 3209                             j9 = k5 + h_int_array1d_static_fld[k8];
// 3210                         else
// 3211                             j9 = k5 + f_int_array1d_static_fld[k8];
// 3212                         for(i10 = 0; i10 < 8; i10++) {
        MOV      R10,#+0
        ADD      R7,R8,R7, LSL #+1
        LDRH     R7,[R7, #+0]
        MOVS     R8,R3
        LDR      R8,[SP, #+8]
        LDREQ    R9,??DataTable48  ;; f_int_array1d_static_fld
        ADDEQ    R8,R8,#+7
        LDREQ    R9,[R9, +R8, LSL #+2]
        ADDNE    R9,R0,R8, LSL #+2
        LDRNE    R9,[R9, #+192]
        ADD      R9,R9,R4
// 3213                             if(!aflag[k8]) {
??c0_38:
        ADD      R11,R8,R0
        LDRB     R11,[R11, #+3476]
        CMP      R11,#+0
        BNE      ??c0_39
// 3214                                 k10 = l7 & 3;
        ANDS     R11,R7,#0x3
// 3215                                 if(k10 != 0 && (flag1 || k8 >= 8 && k8 < 248) && (!flag4 || ai[j9] >> 24 == 0))
        BEQ      ??c0_40
        LDRB     LR,[SP, #+13]
        CMP      LR,#+0
        BNE      ??c0_41
        CMP      R8,#+8
        BLT      ??c0_40
        CMP      R8,#+248
        BGE      ??c0_40
// 3216                                     ai[j9] = ai1[k10 | k3];
??c0_41:
        LDR      LR,[SP, #+40]
        ORR      R11,R12,R11
        ADD      R11,R0,R11, LSL #+1
        LDRH     R11,[R11, #+0]
        ADD      LR,LR,R9, LSL #+1
        STRH     R11,[LR, #+0]
// 3217                                 if(flag3)
??c0_40:
        MOVS     R11,R3
// 3218                                     j9 += i1;
        ADDNE    R9,R1,R9
// 3219                                 else
// 3220                                     j9 -= i1;
        SUBEQ    R9,R9,R1
// 3221                             }
// 3222                             l7 >>= 2;
??c0_39:
        ASR      R7,R7,#+2
// 3223                             if(flag3)
        MOVS     R11,R3
// 3224                                 k8++;
        ADDNE    R8,R8,#+1
// 3225                             else
// 3226                                 k8--;
        SUBEQ    R8,R8,#+1
// 3227                         }
        ADD      R10,R10,#+1
        CMP      R10,#+8
        BLT      ??c0_38
// 3228 
// 3229                         k5 += j1;
        LDR      R7,[SP, #+44]
        ADD      R4,R7,R4
// 3230                     }
// 3231                     l6--;
??c0_36:
        MOV      R7,R6
// 3232                     j7++;
        ADD      R5,R5,#+1
// 3233                 } while(true);
        CMP      R7,#+1
        BGE      ??c0_35
// 3234               label0:;/////???
// 3235             }
??c0_32:
        SUBS     R2,R2,#+4
        BPL      ??c0_31
// 3236 
// 3237         }
// 3238         repaint();
??c0_29:
        _BLF     repaint,??repaint??rA
// 3239         //serviceRepaints();
// 3240                                           
// 3241     }
        ADD      SP,SP,#+60
        CFI CFA R13+36
        POP      {R4-R11,PC}      ;; return
        CFI EndBlock cfiBlock43

        RSEG CODE:CODE:NOROOT(2)
        DATA
??DataTable46:
        DC32     j_int_array1d_static_fld

        RSEG CODE:CODE:NOROOT(2)
        DATA
??DataTable48:
        DC32     f_int_array1d_static_fld

        RSEG CODE:CODE:NOROOT(2)
        CFI Block cfiBlock44 Using cfiCommon0
        CFI NoFunction
        THUMB
??avoid1int??rT:
        BX       PC
        Nop      
        CFI EndBlock cfiBlock44
        REQUIRE avoid1int
// 3242 

        RSEG CODE:CODE:NOROOT(2)
        CFI Block cfiBlock45 Using cfiCommon1
        CFI Function avoid1int
        ARM
// 3243     void avoid1int(int i1) {
avoid1int:
        PUSH     {R0,R4-R11,LR}
        CFI ?RET Frame(CFA, -4)
        CFI R11 Frame(CFA, -8)
        CFI R10 Frame(CFA, -12)
        CFI R9 Frame(CFA, -16)
        CFI R8 Frame(CFA, -20)
        CFI R7 Frame(CFA, -24)
        CFI R6 Frame(CFA, -28)
        CFI R5 Frame(CFA, -32)
        CFI R4 Frame(CFA, -36)
        CFI CFA R13+40
        SUB      SP,SP,#+20
        CFI CFA R13+60
// 3244         h();
        BL       h
// 3245         int j1 = c_int_array1d_static_fld[i1];
        LDR      R2,??DataTable49  ;; j_int_array1d_static_fld
        LDR      R1,[SP, #+20]
        ADD      R1,R2,R1, LSL #+2
        LDR      R1,[R1, #+1296]
        STR      R1,[SP, #+12]
// 3246         ushort *ai = screens;
// 3247         byte *abyte0 = d_byte_array1d_static_fld;
// 3248         byte *abyte1 = vram;
        LDR      R1,[R2, #+2652]
        LDR      R3,[R2, #+3164]
        STR      R1,[SP, #+4]
        LDR      R0,[R2, #+2568]
        TST      R0,#0x2
        MOVNE    R0,#+1
        MOVEQ    R0,#+0
        STRB     R0,[SP, #+0]
// 3249         ushort *ai1 = j_int_array1d_static_fld;
// 3250         boolean flag = (R & 2) != 0;
// 3251         boolean flag1 = (R & 4) != 0;
        LDR      R0,[R2, #+2568]
        TST      R0,#0x4
        MOVNE    R0,#+1
        MOVEQ    R0,#+0
        STRB     R0,[SP, #+1]
// 3252         if((R & 8) != 0) {
        LDR      R0,[R2, #+2568]
        LDR      R12,[R2, #+3172]
        TST      R0,#0x8
        BEQ      ??avoid1int_0
// 3253             int k1 = D;
        LDR      R0,[R2, #+2644]
// 3254             int l1 = 0;
// 3255             int j2 = 0;
// 3256             int l2 = i_int_array1d_static_fld[8 + (k1 >> 10 & 3)];
        MOV      R1,#+3
        AND      R1,R1,R0, ASR #+10
        ADD      R1,R2,R1, LSL #+2
        LDR      R1,[R1, #+2424]
// 3257             int j3 = k1 >> 12 & 7;
        MOV      R5,#+7
        AND      R5,R5,R0, ASR #+12
        STR      R5,[SP, #+16]
        LDR      R6,[R2, #+3184]
        ASR      R4,R0,#+4
        ADD      R6,R1,R6
        AND      R7,R4,#0x38
        ADD      R6,R7,R6
        MOV      R7,#+7
        AND      R7,R7,R0, ASR #+2
        ADD      R6,R7,R6
        LDR      R7,[SP, #+4]
// 3258             j2 = abyte1[ram+(l2 + 960 + (k1 >> 4 & 0x38) + (k1 >> 2 & 7))] & 0xff;
// 3259             int l3 = k1 & 2 | k1 >> 4 & 4;
        AND      R5,R0,#0x2
        ADD      R6,R6,R7
        ADD      R6,R6,#+960
        LDRSB    R6,[R6, #+0]
        AND      R4,R4,#0x4
        ORR      R5,R4,R5
        AND      R6,R6,#0xFF
        STR      R6,[SP, #+8]
// 3260             l1 = (j2 >> l3 & 3) << 2;
        MOV      R4,R6
        MOV      R6,#+3
        AND      R4,R6,R4, ASR R5
        LSL      R6,R4,#+2
// 3261             int j4 = -c_int_static_fld;
        LDR      R4,[R2, #+2648]
        RSB      R4,R4,#+0
        B        ??avoid1int_1
// 3262             do {
// 3263                 int k4 = abyte1[ram+l2 + (k1 & 0x3ff)] & 0xff;
// 3264                 int l4 = l_int_array1d_static_fld[e_int_static_fld + (k4 >> 6)] + ((k4 & 0x3f) << 3) + j3;
// 3265                 int i5 = j4;
// 3266                 int k5 = (8 + i1) - j3;
// 3267                 if(k5 > 240)
// 3268                     k5 = 240;
// 3269                 if(i5 < 0)
// 3270                     i5 = 0;
// 3271                 int i6 = a_char_array1d_static_fld[l4];
// 3272                 int k6 = j1 + f_int_array1d_static_fld[j4 + 7];
// 3273                 for(int i7 = j4 + 7; i7 >= i5; i7--) {
// 3274                     if(!a_boolean_array1d_static_fld[i7]) {
// 3275                         if(i7 < 256 && (i7 >= 8 || flag))
// 3276                             ai[k6] = ai1[l1 | i6 & 3];
// 3277                         k6 -= r_int_static_fld;
// 3278                     }
// 3279                     i6 >>= 2;
// 3280                 }
// 3281 
// 3282                 if((j4 += 8) >= 256)
// 3283                     break;
// 3284                 if((++k1 & 1) == 0) {
// 3285                     if((k1 & 3) == 0) {
// 3286                         if((k1 & 0x1f) == 0) {
// 3287                             k1 = (k1 - 32) ^ 0x400;
// 3288                             l2 = i_int_array1d_static_fld[8 + (k1 >> 10 & 3)];
// 3289                         }
// 3290                         j2 = abyte1[ram+l2 + 960 + (k1 >> 4 & 0x38) + (k1 >> 2 & 7)] & 0xff;
// 3291                         l3 -= 2;
// 3292                     } else {
// 3293                         l3 += 2;
??avoid1int_2:
        ADD      R5,R5,#+2
// 3294                     }
// 3295                     l1 = (j2 >> l3 & 3) << 2;
??avoid1int_3:
        LDR      R6,[SP, #+8]
        MOV      R7,#+3
        AND      R6,R7,R6, ASR R5
        LSL      R6,R6,#+2
??avoid1int_1:
        LDR      R7,[R2, #+3184]
        LDR      R9,[SP, #+16]
        ADD      R7,R1,R7
        LSL      R8,R0,#+22
        ADD      R7,R7,R8, LSR #+22
        LDR      R8,[SP, #+4]
        LDRSB    R7,[R7, +R8]
        AND      R8,R7,#0xFF
        AND      R10,R8,#0x3F
        ADD      R9,R9,R10, LSL #+3
        LDR      R10,[R2, #+2580]
        MOVS     R7,R4
        ADD      R8,R10,R8, ASR #+6
        LDR      R10,??DataTable50  ;; f_int_array1d_static_fld + 28
        ADD      R8,R2,R8, LSL #+2
        LDR      R8,[R8, #+2824]
        LDR      R10,[R10, +R4, LSL #+2]
        ADD      R8,R8,R9
        LDR      R9,[R2, #+2856]
        MOVMI    R7,#+0
        ADD      R8,R9,R8, LSL #+1
        LDR      R9,[SP, #+12]
        LDRH     R8,[R8, #+0]
        ADD      R9,R10,R9
        ADD      R10,R4,#+7
        CMP      R10,R7
        BLT      ??avoid1int_4
??avoid1int_5:
        ADD      R11,R10,R2
        LDRB     R11,[R11, #+3476]
        CMP      R11,#+0
        BNE      ??avoid1int_6
        CMP      R10,#+256
        BGE      ??avoid1int_7
        CMP      R10,#+8
        BGE      ??avoid1int_8
        LDRB     R11,[SP, #+0]
        CMP      R11,#+0
        BEQ      ??avoid1int_7
??avoid1int_8:
        AND      LR,R8,#0x3
        ORR      LR,LR,R6
        ADD      LR,R2,LR, LSL #+1
        LDRH     LR,[LR, #+0]
        ADD      R11,R3,R9, LSL #+1
        STRH     LR,[R11, #+0]
??avoid1int_7:
        SUB      R9,R9,R12
??avoid1int_6:
        ASR      R8,R8,#+2
        SUB      R10,R10,#+1
        CMP      R10,R7
        BGE      ??avoid1int_5
??avoid1int_4:
        ADD      R4,R4,#+8
        CMP      R4,#+256
        BGE      ??avoid1int_0
        ADD      R0,R0,#+1
        TST      R0,#0x1
        BNE      ??avoid1int_1
        TST      R0,#0x3
        BNE      ??avoid1int_2
        TST      R0,#0x1F
        BNE      ??avoid1int_9
        SUB      R0,R0,#+32
        EOR      R0,R0,#0x400
        MOV      R1,#+3
        AND      R1,R1,R0, ASR #+10
        ADD      R1,R2,R1, LSL #+2
        LDR      R1,[R1, #+2424]
??avoid1int_9:
        LDR      R7,[R2, #+3184]
        MOV      R8,#+56
        ADD      R7,R1,R7
        AND      R8,R8,R0, ASR #+4
        ADD      R7,R8,R7
        MOV      R8,#+7
        AND      R8,R8,R0, ASR #+2
        ADD      R7,R8,R7
        LDR      R8,[SP, #+4]
        SUB      R5,R5,#+2
        ADD      R7,R7,R8
        ADD      R7,R7,#+960
        LDRSB    R7,[R7, #+0]
        AND      R7,R7,#0xFF
        STR      R7,[SP, #+8]
        B        ??avoid1int_3
// 3296                 }
// 3297             } while(true);
// 3298         }
// 3299         if((R & 0x10) != 0) {
??avoid1int_0:
        LDR      R0,[R2, #+2568]
        TST      R0,#0x10
        BEQ      ??avoid1int_10
// 3300             byte byte0 = (byte)((S & 0x20) != 0 ? 16 : 8);
        LDR      R0,[R2, #+2564]
// 3301             for(int i2 = 0; i2 < 256; i2 += 4) {
        MOV      R5,#+0
        TST      R0,#0x20
        MOVNE    R4,#+16
        MOVEQ    R4,#+8
// 3302                 int k2 = i1 - ((abyte0[i2] & 0xff) + 1);
??avoid1int_11:
        LDR      R0,[SP, #+20]
        ADD      R1,R5,R2
        ADD      R1,R1,#+2896
        LDRSB    R1,[R1, #+0]
        AND      R1,R1,#0xFF
        SUB      R0,R0,R1
        SUB      R7,R0,#+1
// 3303                 int i3 = abyte0[i2 + 1] & 0xff;
        MOV      R0,#+81
        ORR      R0,R0,#0xB00
        ADD      R1,R5,R2
        LDRSB    R0,[R0, +R1]
// 3304                 int k3 = abyte0[i2 + 2] & 0xff;
// 3305                 int i4 = abyte0[i2 + 3] & 0xff;
// 3306                 if(k2 < 0 || k2 >= byte0)
        CMP      R7,#+0
        AND      R8,R0,#0xFF
        MOV      R0,#+82
        ORR      R0,R0,#0xB00
        LDRSB    R0,[R0, +R1]
        AND      R6,R0,#0xFF
        MOV      R0,#+83
        ORR      R0,R0,#0xB00
        LDRSB    R0,[R0, +R1]
        AND      R0,R0,#0xFF
        BMI      ??avoid1int_12
        CMP      R7,R4
        BGE      ??avoid1int_12
// 3307                     continue;
// 3308                 boolean flag2 = (k3 & 0x80) != 0;
        TST      R6,#0x80
        MOVNE    R9,#+1
        MOVEQ    R9,#+0
// 3309                 boolean flag3 = (k3 & 0x40) != 0;
        TST      R6,#0x40
        MOVNE    R1,#+1
        MOVEQ    R1,#+0
// 3310                 boolean flag4 = (k3 & 0x20) != 0;
// 3311                 k3 = (k3 & 3) << 2 | 0x10;
        AND      R6,R6,#0x3
        MOV      R10,#+16
        ORR      R6,R10,R6, LSL #+2
// 3312                 int j5;
// 3313                 if(byte0 == 16)
        ASR      R10,R8,#+6
        CMP      R4,#+16
        BNE      ??avoid1int_13
// 3314                     j5 = l_int_array1d_static_fld[((i3 & 1) << 2) + (i3 >> 6)] + ((i3 & 0x3e) << 3);
        AND      R11,R8,#0x1
        ADD      R10,R10,R11, LSL #+2
        ADD      R10,R2,R10, LSL #+2
        LDR      R10,[R10, #+2824]
        AND      R8,R8,#0x3E
        B        ??avoid1int_14
// 3315                 else
// 3316                     j5 = l_int_array1d_static_fld[V + (i3 >> 6)] + ((i3 & 0x3f) << 3);
??avoid1int_13:
        LDR      R11,[R2, #+2888]
        AND      R8,R8,#0x3F
        ADD      R10,R10,R11
        ADD      R10,R2,R10, LSL #+2
        LDR      R10,[R10, #+2824]
// 3317                 int l5;
// 3318                 if(flag2)
??avoid1int_14:
        CMP      R9,#+0
        ADD      R8,R10,R8, LSL #+3
// 3319                     l5 = a_char_array1d_static_fld[j5 | byte0 - 1 - k2];
        SUBNE    R9,R4,#+1
        SUBNE    R7,R9,R7
// 3320                 else
// 3321                     l5 = a_char_array1d_static_fld[j5 | k2];
        ORR      R7,R7,R8
        LDR      R8,[R2, #+2856]
        ADD      R7,R8,R7, LSL #+1
        LDRH     R7,[R7, #+0]
// 3322                 int j6;
// 3323                 if(flag3)
        MOVS     R8,R1
// 3324                     j6 = i4;
// 3325                 else
// 3326                     j6 = i4 + 7;
// 3327                 int l6 = j1 + h_int_array1d_static_fld[j6];
        LDR      R8,[SP, #+12]
        ADDEQ    R0,R0,#+7
        ADD      R9,R2,R0, LSL #+2
        LDR      R9,[R9, #+192]
        ADD      R8,R9,R8
// 3328                 if(!flag3)
        BNE      ??avoid1int_15
// 3329                     l6 -= a_boolean_array1d_static_fld[j6] ? r_int_static_fld : 0;
        ADD      R9,R0,R2
        LDRB     R9,[R9, #+3476]
        CMP      R9,#+0
        MOVNE    R9,R12
        SUB      R8,R8,R9
// 3330                 for(int j7 = 0; j7 < 8; j7++) {
??avoid1int_15:
        MOV      R9,#+0
// 3331                     if(!a_boolean_array1d_static_fld[j6]) {
??avoid1int_16:
        ADD      R10,R0,R2
        LDRB     R10,[R10, #+3476]
        CMP      R10,#+0
        BNE      ??avoid1int_17
// 3332                         if(j6 < 256) {
        CMP      R0,#+256
        BGE      ??avoid1int_18
// 3333                             int k7 = ai[l6] >> 24;
// 3334                             if((k7 & 4) == 0) {
// 3335                                 int l7 = l5 & 3;
        ANDS     R10,R7,#0x3
// 3336                                 if(l7 != 0) {
        BEQ      ??avoid1int_18
// 3337                                     if(i2 == 0 && k7 != 0)
// 3338                                         o_int_static_fld |= 0x40;
// 3339                                     if(flag1 || j6 >= 8 && j6 < 248)
        LDRB     R11,[SP, #+1]
        CMP      R11,#+0
        BNE      ??avoid1int_19
        CMP      R0,#+8
        BLT      ??avoid1int_18
        CMP      R0,#+248
        BGE      ??avoid1int_18
// 3340                                         if(!flag4 || k7 == 0)
// 3341                                             ai[l6] = ai1[l7 | k3] | 0x4000000;
??avoid1int_19:
        ORR      R10,R6,R10
        ADD      R10,R2,R10, LSL #+1
        LDRH     R10,[R10, #+0]
        ADD      R11,R3,R8, LSL #+1
        STRH     R10,[R11, #+0]
// 3342                                         else
// 3343                                             ai[l6] |= 0x4000000;
// 3344                                 }
// 3345                             }
// 3346                         }
// 3347                         if(flag3)
??avoid1int_18:
        MOVS     R10,R1
// 3348                             l6 += r_int_static_fld;
        ADDNE    R8,R12,R8
// 3349                         else
// 3350                             l6 -= r_int_static_fld;
        SUBEQ    R8,R8,R12
// 3351                     }
// 3352                     l5 >>= 2;
??avoid1int_17:
        ASR      R7,R7,#+2
// 3353                     if(flag3)
        MOVS     R10,R1
// 3354                         j6++;
        ADDNE    R0,R0,#+1
// 3355                     else
// 3356                         j6--;
        SUBEQ    R0,R0,#+1
// 3357                 }
        ADD      R9,R9,#+1
        CMP      R9,#+8
        BLT      ??avoid1int_16
// 3358 
// 3359             }
??avoid1int_12:
        ADD      R5,R5,#+4
        CMP      R5,#+256
        BLT      ??avoid1int_11
// 3360 
// 3361         }
// 3362     }
??avoid1int_10:
        ADD      SP,SP,#+24       ;; stack cleaning
        CFI CFA R13+36
        POP      {R4-R11,PC}      ;; return
        CFI EndBlock cfiBlock45

        RSEG CODE:CODE:NOROOT(2)
        DATA
??DataTable49:
        DC32     j_int_array1d_static_fld

        RSEG CODE:CODE:NOROOT(2)
        DATA
??DataTable50:
        DC32     f_int_array1d_static_fld + 28

        RSEG CODE:CODE:NOROOT(2)
        CFI Block cfiBlock46 Using cfiCommon0
        CFI NoFunction
        THUMB
??g??rT:
        BX       PC
        Nop      
        CFI EndBlock cfiBlock46
        REQUIRE g
// 3363 /*
// 3364     static String[] aStrings1bool(boolean flag) {
// 3365         char *as[] = new String[10];
// 3366         for(int i1 = 0; i1 < 10; i1++) {
// 3367             if(flag) {
// 3368                 as[i1] = "Slot " + (i1 + 1) + " Unregistered";
// 3369                 continue;
// 3370             }
// 3371             try {
// 3372                 DataInputStream datainputstream = Connector.openDataInputStream(b_java_lang_String_static_fld + "save" + i1 + ".dat");
// 3373                 if(datainputstream == null) {
// 3374                     as[i1] = "Slot " + (i1 + 1) + "  Empty";
// 3375                     continue;
// 3376                 }
// 3377                 long l1 = 0L;
// 3378                 if(l1 >= 60L)
// 3379                     as[i1] = "Slot " + (i1 + 1) + " saved " + l1 / 60L + "h" + l1 % 60L + "m before";
// 3380                 else
// 3381                     as[i1] = "Slot " + (i1 + 1) + " saved " + l1 + "m before";
// 3382             }
// 3383             catch(IOException ioexception) {
// 3384                 as[i1] = "Slot " + (i1 + 1) + "  Empty";
// 3385             }
// 3386         }
// 3387 
// 3388         return as;
// 3389     }
// 3390 */

        RSEG CODE:CODE:NOROOT(2)
        CFI Block cfiBlock47 Using cfiCommon1
        CFI Function g
        ARM
// 3391     static void g() {
g:
        PUSH     {R4-R6,LR}
        CFI ?RET Frame(CFA, -4)
        CFI R6 Frame(CFA, -8)
        CFI R5 Frame(CFA, -12)
        CFI R4 Frame(CFA, -16)
        CFI CFA R13+16
// 3392         S = 0;
        LDR      R4,??DataTable51  ;; j_int_array1d_static_fld
        MOV      R5,#+0
        STR      R5,[R4, #+2564]
// 3393         R = 0;
        STR      R5,[R4, #+2568]
// 3394         o_int_static_fld = 0;
        STR      R5,[R4, #+2572]
// 3395         for(int i1 = 0; i1 < 8192; i1++)
        MOV      R0,#+0
// 3396             vram[ram+i1] = 0;
??g_0:
        LDR      R1,[R4, #+3184]
        LDR      R2,[R4, #+2652]
        ADD      R1,R0,R1
        STRB     R5,[R1, +R2]
        ADD      R0,R0,#+1
        CMP      R0,#+8192
        BLT      ??g_0
// 3397 
// 3398         for(int j1 = 0; j1 < 12; j1++)
        MOV      R0,#+0
        B        ??g_1
// 3399             if(j1 < 8) {
??g_2:
        CMP      R0,#+8
        BGE      ??g_3
// 3400                 i_int_array1d_static_fld[j1] = 8192 + 1024 * j1;
??g_1:
        ADD      R1,R4,R0, LSL #+2
        MOV      R2,#+8192
        ADD      R2,R2,R0, LSL #+10
        STR      R2,[R1, #+2392]
// 3401                 l_int_array1d_static_fld[j1] = 512 * j1;
        LSL      R2,R0,#+9
        STR      R2,[R1, #+2824]
        B        ??g_4
// 3402             } else {
// 3403                 i_int_array1d_static_fld[j1] = 0;
??g_3:
        ADD      R1,R4,R0, LSL #+2
        STR      R5,[R1, #+2392]
// 3404             }
??g_4:
        ADD      R0,R0,#+1
        CMP      R0,#+12
        BLT      ??g_2
// 3405 
// 3406         if(f_boolean_static_fld)
        LDRB     R0,[R4, #+3202]
        CMP      R0,#+0
        BEQ      ??g_5
// 3407             avoid4int(0, 1, 2, 3);
        MOV      R3,#+3
        MOV      R2,#+2
        MOV      R1,#+1
        MOV      R0,#+0
        B        ??g_6
// 3408         else
// 3409         if(!g_boolean_static_fld)
??g_5:
        LDRB     R0,[R4, #+3203]
        MOV      R3,#+1
        CMP      R0,#+0
        BNE      ??g_7
// 3410             avoid4int(0, 0, 1, 1);
        MOV      R2,#+1
        MOV      R1,R5
        MOV      R0,R1
        B        ??g_6
// 3411         else
// 3412         if(g_boolean_static_fld)
// 3413             avoid4int(0, 1, 0, 1);
??g_7:
        MOV      R2,#+0
        MOV      R1,R3
        MOV      R0,R2
??g_6:
        BL       avoid4int
// 3414         else
// 3415             avoid4int(0, 1, 2, 3);
// 3416         a_char_array1d_static_fld = (ushort*)malloc((ramsize / 2 - 4096)*2);
        LDR      R0,[R4, #+3188]
        ADD      R0,R0,R0, LSR #+31
        ASR      R0,R0,#+1
        SUB      R0,R0,#+4096
        LSL      R0,R0,#+1
        SWI      +20
        STR      R0,[R4, #+2856]
// 3417         memset(a_char_array1d_static_fld,0,(ramsize / 2 - 4096)*2);//clr
        LDR      R0,[R4, #+3188]
        MOV      R1,#+0
        ADD      R0,R0,R0, LSR #+31
        ASR      R0,R0,#+1
        SUB      R0,R0,#+4096
        LSL      R2,R0,#+1
        LDR      R0,[R4, #+2856]
        SWI      +187
// 3418         for(int k1 = 8192; k1 < ramsize; k1++)
        LDR      R1,[R4, #+3188]
        MOV      R0,#+8192
        ORR      R2,R0,#0x1
        CMP      R1,R2
        BGE      ??g_8
        B        ??g_9
// 3419             if((k1 & 8) == 0) {
??g_10:
        TST      R0,#0x8
        BNE      ??g_11
// 3420                 int i2 = vram[ram+k1] & 0xff;
        LDR      R3,[R4, #+3184]
        LDR      R12,[R4, #+2652]
        ADD      R2,R0,R3
        LDRSB    R2,[R2, +R12]
// 3421                 int j2 = vram[ram+(k1 | 8)] & 0xff;
        ORR      LR,R0,#0x8
        ADD      R3,LR,R3
        LDRSB    R3,[R3, +R12]
// 3422                 int k2 = ((k1 & 0xfffffff0) >> 1 | k1 & 7) - 4096;
// 3423                 a_char_array1d_static_fld[k2] = (ushort)(i2 & 1 | (i2 & 2) << 1 | (i2 & 4) << 2 | (i2 & 8) << 3 | (i2 & 0x10) << 4 | (i2 & 0x20) << 5 | (i2 & 0x40) << 6 | (i2 & 0x80) << 7 | (j2 & 1) << 1 | (j2 & 2) << 2 | (j2 & 4) << 3 | (j2 & 8) << 4 | (j2 & 0x10) << 5 | (j2 & 0x20) << 6 | (j2 & 0x40) << 7 | (j2 & 0x80) << 8);
        BIC      R12,R0,#0xF
        AND      LR,R0,#0x7
        ORR      R12,LR,R12, LSR #+1
        LDR      LR,[R4, #+2856]
        AND      R2,R2,#0xFF
        AND      R3,R3,#0xFF
        ADD      R12,LR,R12, LSL #+1
        SUB      R12,R12,#+8192
        AND      LR,R2,#0x1
        AND      R6,R2,#0x2
        ORR      R6,LR,R6, LSL #+1
        AND      LR,R2,#0x4
        ORR      R6,R6,LR, LSL #+2
        AND      LR,R2,#0x8
        ORR      R6,R6,LR, LSL #+3
        AND      LR,R2,#0x10
        ORR      R6,R6,LR, LSL #+4
        AND      LR,R2,#0x20
        ORR      R6,R6,LR, LSL #+5
        AND      LR,R2,#0x40
        ORR      R6,R6,LR, LSL #+6
        AND      R2,R2,#0x80
        ORR      R2,R6,R2, LSL #+7
        AND      R6,R3,#0x1
        ORR      R2,R2,R6, LSL #+1
        AND      R6,R3,#0x2
        ORR      R2,R2,R6, LSL #+2
        AND      R6,R3,#0x4
        ORR      R2,R2,R6, LSL #+3
        AND      R6,R3,#0x8
        ORR      R2,R2,R6, LSL #+4
        AND      R6,R3,#0x10
        ORR      R2,R2,R6, LSL #+5
        AND      R6,R3,#0x20
        ORR      R2,R2,R6, LSL #+6
        AND      R6,R3,#0x40
        ORR      R2,R2,R6, LSL #+7
        AND      R3,R3,#0x80
        ORR      R2,R2,R3, LSL #+8
        STRH     R2,[R12, #+0]
// 3424             }
??g_11:
        ADD      R0,R0,#+1
??g_8:
        CMP      R0,R1
        BLT      ??g_10
// 3425 
// 3426         C = 0;
??g_9:
        STR      R5,[R4, #+3152]
// 3427         ab = 0;
        STR      R5,[R4, #+2560]
// 3428         for(int l1 = 0; l1 < d_byte_array1d_static_fld_length; l1++)
        MOV      R0,#+0
// 3429             d_byte_array1d_static_fld[l1] = 0;
??g_12:
        ADD      R1,R0,R4
        STRB     R5,[R1, #+2896]
        ADD      R0,R0,#+1
        CMP      R0,#+256
        BLT      ??g_12
// 3430 
// 3431         e_int_static_fld = 0;
        STR      R5,[R4, #+2580]
// 3432         V = 0;
        STR      R5,[R4, #+2888]
// 3433         b_boolean_static_fld = false;
        STRB     R5,[R4, #+3206]
// 3434         D = 0;
        STR      R5,[R4, #+2644]
// 3435         y = 0;
        STR      R5,[R4, #+2640]
// 3436         c_int_static_fld = 0;
        STR      R5,[R4, #+2648]
// 3437         q_int_static_fld = 0;
        STR      R5,[R4, #+2864]
// 3438         j_int_static_fld = 0;
        STR      R5,[R4, #+2860]
// 3439         x = 1;
        MOV      R0,#+1
        STR      R0,[R4, #+2820]
// 3440         j();
        BL       j
// 3441     }
        POP      {R4-R6,PC}       ;; return
        CFI EndBlock cfiBlock47

        RSEG CODE:CODE:NOROOT(2)
        DATA
??DataTable51:
        DC32     j_int_array1d_static_fld

        RSEG CODE:CODE:NOROOT(2)
        CFI Block cfiBlock48 Using cfiCommon0
        CFI NoFunction
        THUMB
??loadROM??rT:
        BX       PC
        Nop      
        CFI EndBlock cfiBlock48
        REQUIRE loadROM
// 3442 /*
// 3443     byte[] abytes1String(char *s) throws IOException {
// 3444         InputStream inputstream = main.getClass().getResourceAsStream(s);
// 3445         ByteArrayOutputStream bytearrayoutputstream = new ByteArrayOutputStream();
// 3446         int i1;
// 3447         while((i1 = inputstream.read()) != -1) 
// 3448             bytearrayoutputstream.write(i1);
// 3449         byte abyte0[] = bytearrayoutputstream.toByteArray();
// 3450         inputstream.close();
// 3451         bytearrayoutputstream.close();
// 3452         return abyte0;
// 3453     }
// 3454 */

        RSEG CODE:CODE:NOROOT(2)
        CFI Block cfiBlock49 Using cfiCommon1
        CFI Function loadROM
        ARM
// 3455     int loadROM(char *s) {
loadROM:
        PUSH     {R4-R7,LR}
        CFI ?RET Frame(CFA, -4)
        CFI R7 Frame(CFA, -8)
        CFI R6 Frame(CFA, -12)
        CFI R5 Frame(CFA, -16)
        CFI R4 Frame(CFA, -20)
        CFI CFA R13+20
// 3456     	int i1=0, filesize, vramlength;
// 3457       char *buf;
// 3458       if(!(buf=loadfile(s))) return 3;
        _BLF     loadfile,??loadfile??rA
        MOVS     R6,R0
        BEQ      ??loadROM_1
// 3459       filesize=loadfilesize;
        LDR      R0,??loadROM_2   ;; loadfilesize
// 3460       //int f;
// 3461       //if((f=fopen(s,A_ReadOnly+A_BIN,P_READ,&err))==-1) return 3;
// 3462       //filesize=lseek(f,0,2,&err,&err);
// 3463       //lseek(f,0,0, &err,&err);
// 3464       if(!(vram = (byte*)malloc(vramlength=filesize+10240+16384))){ mfree(buf); return 3;}
        LDR      R4,??DataTable64  ;; j_int_array1d_static_fld
        LDR      R7,[R0, #+0]
        ADD      R5,R7,#+26624
        MOV      R0,R5
        SWI      +20
        STR      R0,[R4, #+2652]
        CMP      R0,#+0
        BNE      ??loadROM_3
        MOV      R0,R6
        SWI      +21
??loadROM_1:
        MOV      R0,#+3
        POP      {R4-R7,PC}
// 3465       memset(vram,0,vramlength);
??loadROM_3:
        MOV      R2,R5
        MOV      R1,#+0
        SWI      +187
// 3466       memcpy(vram,buf,filesize);
        LDR      R0,[R4, #+2652]
        MOV      R2,R7
        MOV      R1,R6
        SWI      +286
// 3467       mfree(buf);
        MOV      R0,R6
        SWI      +21
// 3468 //      fread(f, vram,filesize,&err);
// 3469 //      fclose(f, &err);
// 3470 
// 3471       //        bytearrayinputstream = new ByteArrayInputStream(bbytes1String("file:///0:/Misc/" + s + ".nes"));
// 3472         if(vramlength<(10243+16384) || !(vram[0] == 78 && vram[1] == 69 && vram[2] == 83 && vram[3] == 26)){
        MOV      R0,#+3
        ORR      R0,R0,#0x6800
        CMP      R5,R0
        BLT      ??loadROM_4
        LDR      R0,[R4, #+2652]
        LDRSB    R1,[R0, #+0]
        CMP      R1,#+78
        LDRSBEQ  R1,[R0, #+1]
        CMPEQ    R1,#+69
        LDRSBEQ  R1,[R0, #+2]
        CMPEQ    R1,#+83
        LDRSBEQ  R1,[R0, #+3]
        CMPEQ    R1,#+26
        BEQ      ??loadROM_5
// 3473         //a_java_lang_String_static_fld = "rom header error";
// 3474         return 4;
??loadROM_4:
        MOV      R0,#+4
        POP      {R4-R7,PC}
// 3475         }
// 3476 //}catch(IOException ioes){return 0;}
// 3477 //        try {
// 3478             u_int_static_fld = vram[4];
// 3479             i_int_static_fld = vram[5];
??loadROM_5:
        LDRSB    R2,[R0, #+5]
        LDRSB    R1,[R0, #+4]
        STR      R2,[R4, #+2680]
// 3480             i1 = vram[6];
        LDRSB    R2,[R0, #+6]
// 3481             g_boolean_static_fld = (i1 & 1) != 0;
        AND      R3,R2,#0x1
        STRB     R3,[R4, #+3203]
// 3482             a_boolean_static_fld = (i1 & 2) != 0;
// 3483             r_boolean_static_fld = (i1 & 4) != 0;
        TST      R2,#0x4
        MOVNE    R3,#+1
        MOVEQ    R3,#+0
        STRB     R3,[R4, #+3198]
// 3484             f_boolean_static_fld = (i1 & 8) != 0;
        TST      R2,#0x8
        MOVNE    R3,#+1
        MOVEQ    R3,#+0
        STRB     R3,[R4, #+3202]
// 3485             int k1 = i1 >> 4 & 0xf;
// 3486             int l2 = vram[7] & 0xf0;
// 3487             w = k1 | l2;
        MOV      R3,#+15
        AND      R2,R3,R2, ASR #+4
        LDRSB    R3,[R0, #+7]
        AND      R3,R3,#0xF0
        ORR      R2,R3,R2
        STR      R2,[R4, #+2548]
// 3488             for(int i3 = 0; i3 < 8; i3++)
        MOV      R2,#+0
// 3489                 if(vram[i3+8] != 0)
??loadROM_6:
        ADD      R3,R2,R0
        LDRSB    R3,[R3, #+8]
// 3490                     w &= 0xf;
        ADD      R2,R2,#+1
        CMP      R3,#+0
        LDRNE    R3,[R4, #+2548]
        ANDNE    R3,R3,#0xF
        STRNE    R3,[R4, #+2548]
        CMP      R2,#+8
        BLT      ??loadROM_6
// 3491 
// 3492            // break MISSING_BLOCK_LABEL_232;
// 3493 //        } catch(Exception exception) {
// 3494 //            a_java_lang_String_static_fld = exception.toString();
// 3495 //            return 20;
// 3496 //        }
// 3497         
// 3498         switch(w){
        LDR      R2,[R4, #+2548]
        CMP      R2,#+15
        BHI      ??loadROM_7
        ADR      R3,??loadROM_0
        LDRB     R3,[R3, R2]
        ADD      PC,PC,R3, LSL #+2
        DATA
??loadROM_0:
        DC8      +5,+5,+5,+5
        DC8      +5,+3,+5,+5
        DC8      +5,+3,+3,+5
        DC8      +3,+3,+3,+5
        ARM
// 3499         case 5: // '\005'
// 3500         case 9: // '\t'
// 3501         case 10: // '\n'
// 3502         case 12: // '\f'
// 3503         case 13: // '\r'
// 3504         case 14: // '\016'
// 3505         default:
// 3506           //  a_java_lang_String_static_fld = "unsupported mapper " + w;
// 3507             return 5;
??loadROM_7:
        MOV      R0,#+5
        POP      {R4-R7,PC}
// 3508 
// 3509         case 0: // '\0'
// 3510         case 1: // '\001'
// 3511         case 2: // '\002'
// 3512         case 3: // '\003'
// 3513         case 4: // '\004'
// 3514         case 6: // '\006'
// 3515         case 7: // '\007'
// 3516         case 8: // '\b'
// 3517         case 11: // '\013'
// 3518         case 15: // '\017'
// 3519             break;
// 3520 		}
// 3521 //try{//add		
// 3522         if(u_int_static_fld == 0){
??loadROM_8:
        CMP      R1,#+0
// 3523 //	        a_java_lang_String_static_fld = "no program rom found";
// 3524     	    return 6;
        MOVEQ    R0,#+6
        POPEQ    {R4-R7,PC}
// 3525     	}
// 3526         Y = 16384 * u_int_static_fld;
        LSL      R1,R1,#+14
        STR      R1,[R4, #+2880]
// 3527         int j1 = Y + 10240;
// 3528         //vram = new byte[j1];
// 3529         Systemarraycopy(vram,0,vram,10240,vramlength-10240);
        MOV      R6,#+10240
        SUB      R2,R5,#+10240
        MOV      R1,R0
        ADD      R0,R6,R0
        SWI      +306
// 3530         ram=10256;
        ORR      R0,R6,#0x10
        STR      R0,[R4, #+3184]
// 3531         if(r_boolean_static_fld) {
        LDRB     R0,[R4, #+3198]
        MOV      R5,#+6144
        CMP      R0,#+0
        BEQ      ??loadROM_9
// 3532             b_byte_array1d_static_fld = (byte*)malloc(512);
        MOV      R0,#+512
        SWI      +20
        STR      R0,[R4, #+3160]
// 3533             for(int l1 = 0; l1 < 512; l1++)
        MOV      R0,#+0
// 3534                 b_byte_array1d_static_fld[l1] = vram[6144 + l1] = vram[ram++];
??loadROM_10:
        LDR      R1,[R4, #+3184]
        LDR      R2,[R4, #+2652]
        LDRSB    R3,[R1, +R2]
        ADD      R1,R1,#+1
        STR      R1,[R4, #+3184]
        ADD      R1,R0,R2
        STRB     R3,[R5, +R1]
        LDR      R1,[R4, #+3160]
        STRB     R3,[R0, +R1]
        ADD      R0,R0,#+1
        CMP      R0,#+512
        BGE      ??loadROM_11
        B        ??loadROM_10
// 3535         } else {
// 3536             b_byte_array1d_static_fld = null;
??loadROM_9:
        STR      R0,[R4, #+3160]
// 3537             for(int i2 = 0; i2 < 512; i2++)
        MOV      R1,#+0
// 3538                 vram[6144 + i2] = 0;
??loadROM_12:
        LDR      R2,[R4, #+2652]
        ADD      R2,R1,R2
        STRB     R0,[R5, +R2]
        ADD      R1,R1,#+1
        CMP      R1,#+512
        BLT      ??loadROM_12
// 3539 
// 3540         }
// 3541         //for(int j2 = 0; j2 < Y; j2++)
// 3542         //    vram[j2 + 10240] = (byte)bytearrayinputstream.read();
// 3543         Systemarraycopy(vram,ram,vram,10240,Y);
??loadROM_11:
        LDR      R0,[R4, #+2652]
        LDR      R1,[R4, #+3184]
        LDR      R2,[R4, #+2880]
        ADD      R1,R1,R0
        ADD      R0,R6,R0
        SWI      +306
// 3544         ram+=Y;
        LDR      R0,[R4, #+3184]
        LDR      R1,[R4, #+2880]
        ADD      R0,R1,R0
// 3545         E = 8192 * i_int_static_fld;
        LDR      R1,[R4, #+2680]
        STR      R0,[R4, #+3184]
        LSLS     R2,R1,#+13
        STR      R2,[R4, #+2868]
// 3546         if(E == 0)
// 3547             ramsize = 16384;
        MOVEQ    R0,#+16384
        STREQ    R0,[R4, #+3188]
        BEQ      ??loadROM_13
// 3548         else{
// 3549             ramsize = E + 8192;
        ADD      R1,R2,#+8192
        STR      R1,[R4, #+3188]
// 3550         //a_byte_array1d_static_fld = new byte[ramsize];
// 3551         //for(int k2 = 0; k2 < E; k2++)
// 3552         //    a_byte_array1d_static_fld[k2 + 8192] = (byte)bytearrayinputstream.read();
// 3553         	Systemarraycopy(vram,ram,vram,ram+8192,E);
        LDR      R1,[R4, #+2652]
        ADD      R0,R0,R1
        MOV      R1,R0
        ADD      R0,R0,#+8192
        SWI      +306
// 3554        	}
// 3555 //}catch(Exception exception1){
// 3556 //        a_java_lang_String_static_fld = exception1.toString();
// 3557 //        return 20;
// 3558 //        }
// 3559         a_java_lang_String_static_fld = null;
// 3560         return 0;
??loadROM_13:
        MOV      R0,#+0
        POP      {R4-R7,PC}       ;; return
        DATA
??loadROM_2:
        DC32     loadfilesize
        CFI EndBlock cfiBlock49
// 3561     }

        RSEG CODE:CODE:NOROOT(2)
        CFI Block cfiBlock50 Using cfiCommon0
        CFI NoFunction
        THUMB
??b??rT:
        BX       PC
        Nop      
        CFI EndBlock cfiBlock50
        REQUIRE `b`
// 3562 /*
// 3563     static void avoid1InputStream(InputStream inputstream) throws IOException {
// 3564         //c c1 = main;
// 3565         d_boolean_static_fld = inputstream.read() == 255;//c.??
// 3566         u_boolean_static_fld = inputstream.read() == 255;
// 3567         m_boolean_static_fld = inputstream.read() == 255;
// 3568         t_boolean_static_fld = inputstream.read() == 255;
// 3569         k_boolean_static_fld = inputstream.read() == 255;
// 3570         B = inputstream.read();
// 3571         A = inputstream.read();
// 3572         b_int_static_fld = inputstream.read();
// 3573         L = inputstream.read();
// 3574         //c c2 = main;
// 3575         f_boolean_static_fld = inputstream.read() == 255;//c.??
// 3576         inputstream.read();
// 3577         inputstream.read();
// 3578         inputstream.read();
// 3579         inputstream.read();
// 3580         main.b_int_fld = inputstream.read();
// 3581         main.b_int_fld |= inputstream.read() << 8;
// 3582         main.e_boolean_fld = inputstream.read() == 255;
// 3583         if(main.e_boolean_fld)
// 3584         ;
// 3585 //            main.f_javax_microedition_lcdui_List_fld.set(3, "Help", null);
// 3586         int i1 = inputstream.read();
// 3587         main.c_java_lang_String_fld = "";
// 3588         for(int j1 = 0; j1 < i1; j1++)
// 3589             main.c_java_lang_String_fld += inputstream.read();
// 3590 
// 3591         for(int k1 = 0; k1 < key.length; k1++)
// 3592             key[k1] = (byte)inputstream.read();
// 3593 
// 3594     }
// 3595 */
// 3596     static void avoid() {
// 3597         switch(w) {
// 3598         case 1: // '\001'
// 3599             //d_int_array1d_static_fld = new int[4];
// 3600             break;
// 3601 
// 3602         case 4: // '\004'
// 3603             //d_int_array1d_static_fld = new int[8];
// 3604             break;
// 3605         }
// 3606         ad = Y >> 13;
// 3607         P = E >> 10;
// 3608         b();
// 3609     }
// 3610 

        RSEG CODE:CODE:NOROOT(2)
        CFI Block cfiBlock51 Using cfiCommon1
        CFI Function `b`
        ARM
// 3611     static void b() {
`b`:
        PUSH     {R4-R6,LR}
        CFI ?RET Frame(CFA, -4)
        CFI R6 Frame(CFA, -8)
        CFI R5 Frame(CFA, -12)
        CFI R4 Frame(CFA, -16)
        CFI CFA R13+16
// 3612         int i1,j1;
// 3613         switch(w) {
        LDR      R4,??DataTable64  ;; j_int_array1d_static_fld
        LDR      R0,[R4, #+2556]
        LDR      R12,[R4, #+2548]
        LDR      R6,[R4, #+2552]
        SUB      R2,R0,#+2
        SUB      R3,R0,#+1
        MOV      R5,#+0
        MOV      R1,#+1
        CMP      R12,#+15
        POPHI    {R4-R6,PC}
        ADR      LR,??b_0
        LDRB     LR,[LR, R12]
        ADD      PC,PC,LR, LSL #+2
        DATA
??b_0:
        DC8      +3,+23,+132,+48
        DC8      +58,+172,+93,+125
        DC8      +130,+172,+172,+149
        DC8      +172,+172,+172,+125
        ARM
// 3614         case 5: // '\005'
// 3615         case 9: // '\t'
// 3616         case 10: // '\n'
// 3617         case 12: // '\f'
// 3618         case 13: // '\r'
// 3619         case 14: // '\016'
// 3620         default:
// 3621             break;
// 3622 
// 3623         case 0: // '\0'
// 3624             if(ad > 2)
??b_1:
        CMP      R0,#+3
        BLT      ??b_2
// 3625                 xxxxb(0, 1, 2, 3);
        MOV      R3,#+3
        MOV      R2,#+2
        MOV      R0,#+0
        B        ??b_3
// 3626             else
// 3627             if(ad > 1)
??b_2:
        CMP      R0,#+2
        BLT      ??b_4
// 3628                 xxxxb(0, 1, 0, 1);
        MOV      R3,#+1
        MOV      R2,R5
        MOV      R0,R2
        B        ??b_3
// 3629             else
// 3630                 xxxxb(0, 0, 0, 0);
??b_4:
        MOV      R3,#+0
        MOV      R2,R3
        MOV      R1,R2
        MOV      R0,R1
??b_3:
        BL       xxxxb
// 3631             if(P > 0)
        CMP      R6,#+1
        POPLT    {R4-R6,PC}
// 3632                 avoid8int(0, 1, 2, 3, 4, 5, 6, 7);
        B        ??b_5
// 3633             break;
// 3634 
// 3635         case 1: // '\001'
// 3636             M = 0;
??b_6:
        STR      R5,[R4, #+3180]
// 3637             H = 0;
        STR      R5,[R4, #+2584]
// 3638             d_int_array1d_static_fld[0] = 12;
        MOV      R6,#+12
        STR      R6,[R4, #+2472]
// 3639             d_int_array1d_static_fld[1] = 0;
        STR      R5,[R4, #+2476]
// 3640             d_int_array1d_static_fld[2] = 0;
        STR      R5,[R4, #+2480]
// 3641             d_int_array1d_static_fld[3] = 0;
        STR      R5,[R4, #+2484]
// 3642             i1 = ad * 8;
        LSL      R0,R0,#+3
// 3643             if(i1 == 1024)
        CMP      R0,#+1024
// 3644                 U = 1024;
// 3645             else
// 3646             if(i1 == 512)
        CMPNE    R0,#+512
// 3647                 U = 512;
// 3648             else
// 3649                 U = 1;
        MOVNE    R0,#+1
        STR      R0,[R4, #+2664]
// 3650             m_int_static_fld = 0;
        STR      R5,[R4, #+2672]
// 3651             d_int_static_fld = 0;
        STR      R5,[R4, #+2668]
// 3652             if(U == 1) {
        CMP      R0,#+1
// 3653                 T = ad - 2;
// 3654                 W = ad - 1;
// 3655             } else {
// 3656                 T = 30;
        MOVNE    R2,#+30
// 3657                 W = 31;
        MOVNE    R3,#+31
        STR      R3,[R4, #+2660]
        STR      R2,[R4, #+2656]
// 3658             }
// 3659             Z = 0;
        STR      R5,[R4, #+2532]
// 3660             f_int_static_fld = 1;
        STR      R1,[R4, #+2536]
// 3661             n_int_static_fld = T;
        STR      R2,[R4, #+2540]
// 3662             Q = W;
        STR      R3,[R4, #+2544]
// 3663             k();
        BL       k
// 3664             avoid8int(0, 1, 2, 3, 4, 5, 6, 7);
        B        ??b_5
// 3665             break;
// 3666 
// 3667         case 2: // '\002'
// 3668             xxxxb(0, 1, ad - 2, ad - 1);
// 3669             avoid8int(0, 1, 2, 3, 4, 5, 6, 7);
// 3670             break;
// 3671 
// 3672         case 3: // '\003'
// 3673             if(ad > 2)
??b_7:
        CMP      R0,#+3
        BLT      ??b_8
// 3674                 xxxxb(0, 1, 2, 3);
        MOV      R3,#+3
        MOV      R2,#+2
        MOV      R0,#+0
        B        ??b_9
// 3675             else
// 3676                 xxxxb(0, 1, 0, 1);
??b_8:
        MOV      R3,#+1
        MOV      R2,R5
        MOV      R0,R2
??b_10:
        B        ??b_9
// 3677             avoid8int(0, 1, 2, 3, 4, 5, 6, 7);
// 3678             break;
// 3679 
// 3680         case 4: // '\004'
// 3681             i_boolean_static_fld = true;
??b_11:
        STRB     R1,[R4, #+3199]
// 3682             for(j1 = 0; j1 < 8; j1++)
        MOV      R0,#+0
// 3683                 d_int_array1d_static_fld[j1] = 0;
??b_12:
        ADD      R2,R4,R0, LSL #+2
        STR      R5,[R2, #+2472]
        ADD      R0,R0,#+1
        CMP      R0,#+8
        BLT      ??b_12
// 3684 
// 3685             G = 0;
        STR      R5,[R4, #+2872]
// 3686             J = 1;
        STR      R1,[R4, #+2876]
// 3687             f();
        BL       f
// 3688             if(P > 0) {
        CMP      R6,#+1
        BLT      ??b_13
// 3689                 O = 0;
        STR      R5,[R4, #+2588]
// 3690                 g_int_static_fld = 2;
        MOV      R0,#+2
        STR      R0,[R4, #+2592]
// 3691                 ac = 4;
        MOV      R0,#+4
        STR      R0,[R4, #+2596]
// 3692                 N = 5;
        MOV      R0,#+5
        STR      R0,[R4, #+2600]
// 3693                 s_int_static_fld = 6;
        MOV      R0,#+6
        STR      R0,[R4, #+2604]
// 3694                 v_int_static_fld = 7;
        MOV      R0,#+7
        STR      R0,[R4, #+2608]
// 3695                 l();
        BL       l
        B        ??b_14
// 3696             } else {
// 3697                 O = g_int_static_fld = ac = N = s_int_static_fld = v_int_static_fld = 0;
??b_13:
        STR      R5,[R4, #+2608]
        STR      R5,[R4, #+2604]
        STR      R5,[R4, #+2600]
        STR      R5,[R4, #+2596]
        STR      R5,[R4, #+2592]
        STR      R5,[R4, #+2588]
// 3698             }
// 3699             e_boolean_static_fld = false;
??b_14:
        STRB     R5,[R4, #+3200]
// 3700             I = 0;
        STR      R5,[R4, #+2620]
// 3701             F = 0;
        STR      R5,[R4, #+2624]
// 3702             avoid8int(0, 1, 2, 3, 4, 5, 6, 7);
        B        ??b_5
// 3703             break;
// 3704 
// 3705         case 6: // '\006'
// 3706             i_boolean_static_fld = true;
??b_15:
        STRB     R1,[R4, #+3199]
// 3707             xxxxb(0, 1, 14, 15);
        MOV      R3,#+15
        MOV      R2,#+14
        MOV      R0,#+0
        BL       xxxxb
// 3708             if(P > 0) {
        CMP      R6,#+1
        BGE      ??b_5
// 3709                 avoid8int(0, 1, 2, 3, 4, 5, 6, 7);
// 3710             } else {
// 3711                 bvoid2int(0, 0);
        MOV      R1,#+0
        MOV      R0,R1
        BL       bvoid2int
// 3712                 bvoid2int(0, 1);
        MOV      R1,#+1
        MOV      R0,R5
        BL       bvoid2int
// 3713                 bvoid2int(0, 2);
        MOV      R1,#+2
        MOV      R0,R5
        BL       bvoid2int
// 3714                 bvoid2int(0, 3);
        MOV      R1,#+3
        MOV      R0,R5
        BL       bvoid2int
// 3715                 bvoid2int(0, 4);
        MOV      R1,#+4
        MOV      R0,R5
        BL       bvoid2int
// 3716                 bvoid2int(0, 5);
        MOV      R1,#+5
        MOV      R0,R5
        BL       bvoid2int
// 3717                 bvoid2int(0, 6);
        MOV      R1,#+6
        MOV      R0,R5
        BL       bvoid2int
// 3718                 bvoid2int(0, 7);
        MOV      R1,#+7
        MOV      R0,R5
        BL       bvoid2int
        POP      {R4-R6,PC}
// 3719             }
// 3720             break;
// 3721 
// 3722         case 7: // '\007'
// 3723             xxxxb(0, 1, 2, 3);
??b_16:
        MOV      R3,#+3
        MOV      R2,#+2
        MOV      R0,#+0
        BL       xxxxb
        POP      {R4-R6,PC}
// 3724             break;
// 3725 
// 3726         case 8: // '\b'
// 3727             xxxxb(0, 1, 2, 3);
??b_17:
        MOV      R3,#+3
        MOV      R2,#+2
??b_18:
        MOV      R0,#+0
??b_9:
        BL       xxxxb
// 3728             avoid8int(0, 1, 2, 3, 4, 5, 6, 7);
??b_5:
        MOV      R0,#+7
        PUSH     {R0}
        CFI CFA R13+20
        MOV      R3,#+3
        MOV      R2,#+2
        MOV      R1,#+1
        MOV      R0,#+6
        PUSH     {R0}
        CFI CFA R13+24
        MOV      R0,#+5
        PUSH     {R0}
        CFI CFA R13+28
        MOV      R0,#+4
        PUSH     {R0}
        CFI CFA R13+32
        MOV      R0,#+0
        BL       avoid8int
        ADD      SP,SP,#+16
        CFI CFA R13+16
        POP      {R4-R6,PC}
// 3729             break;
// 3730 
// 3731         case 11: // '\013'
// 3732             xxxxb(0, 1, 2, 3);
??b_19:
        MOV      R3,#+3
        MOV      R2,#+2
        MOV      R0,#+0
        BL       xxxxb
// 3733             avoid8int(0, 1, 2, 3, 4, 5, 6, 7);
        MOV      R0,#+7
        PUSH     {R0}
        CFI CFA R13+20
        MOV      R3,#+3
        MOV      R2,#+2
        MOV      R1,#+1
        MOV      R0,#+6
        PUSH     {R0}
        CFI CFA R13+24
        MOV      R0,#+5
        PUSH     {R0}
        CFI CFA R13+28
        MOV      R0,#+4
        PUSH     {R0}
        CFI CFA R13+32
        MOV      R0,R5
        BL       avoid8int
// 3734             avoid4int(0, 1, 0, 1);
        MOV      R3,#+1
        MOV      R2,R5
        MOV      R1,R3
        MOV      R0,R2
        BL       avoid4int
        ADD      SP,SP,#+16
        CFI CFA R13+16
// 3735             break;
// 3736 
// 3737         case 15: // '\017'
// 3738             xxxxb(0, 1, 2, 3);
// 3739             break;
// 3740         }
// 3741     }
??b_20:
        POP      {R4-R6,PC}       ;; return
        CFI EndBlock cfiBlock51

        RSEG CODE:CODE:NOROOT(2)
        CFI Block cfiBlock52 Using cfiCommon0
        CFI NoFunction
        THUMB
??c_in??rT:
        BX       PC
        Nop      
        CFI EndBlock cfiBlock52
        REQUIRE c_in
// 3742 

        RSEG CODE:CODE:NOROOT(2)
        CFI Block cfiBlock53 Using cfiCommon1
        CFI Function c_in
        ARM
// 3743     static void c_in(){//(InputStream inputstream) throws IOException {
c_in:
        PUSH     {R4,R5,R7,LR}
        CFI ?RET Frame(CFA, -4)
        CFI R7 Frame(CFA, -8)
        CFI R5 Frame(CFA, -12)
        CFI R4 Frame(CFA, -16)
        CFI CFA R13+16
// 3744         switch(w) {
        LDR      R4,??DataTable64  ;; j_int_array1d_static_fld
        MOV      R5,#+1
        LDR      R0,[R4, #+2548]
        SUBS     R0,R0,#+1
        BEQ      ??c_in_0
        SUBS     R0,R0,#+3
        BEQ      ??c_in_1
        SUBS     R0,R0,#+2
        BEQ      ??c_in_2
        POP      {R4,R5,R7,PC}
// 3745         default:
// 3746             break;
// 3747 
// 3748         case 1: // '\001'
// 3749             X = (inputstreamread() & 0xff) << 8;
??c_in_0:
        BL       bytearrayinputstreamread
        AND      R0,R0,#0xFF
        LSL      R0,R0,#+8
        STR      R0,[R4, #+2636]
// 3750             X |= inputstreamread() & 0xff;
        BL       bytearrayinputstreamread
        LDR      R1,[R4, #+2636]
        AND      R0,R0,#0xFF
        ORR      R0,R0,R1
        STR      R0,[R4, #+2636]
// 3751             M = inputstreamread() & 0xff;
        BL       bytearrayinputstreamread
        AND      R0,R0,#0xFF
        STR      R0,[R4, #+3180]
// 3752             H = inputstreamread() & 0xff;
        BL       bytearrayinputstreamread
        AND      R0,R0,#0xFF
        STR      R0,[R4, #+2584]
// 3753             for(int i1 = 0; i1 < d_int_array1d_static_fld_length; i1++)
        MOV      R5,#+0
// 3754                 d_int_array1d_static_fld[i1] = inputstreamread() & 0xff;
??c_in_3:
        BL       bytearrayinputstreamread
        AND      R0,R0,#0xFF
        ADD      R1,R4,R5, LSL #+2
        STR      R0,[R1, #+2472]
        ADD      R5,R5,#+1
        CMP      R5,#+8
        BLT      ??c_in_3
// 3755 
// 3756             Z = inputstreamread() & 0xff;
        BL       bytearrayinputstreamread
        AND      R0,R0,#0xFF
        STR      R0,[R4, #+2532]
// 3757             f_int_static_fld = inputstreamread() & 0xff;
        BL       bytearrayinputstreamread
        AND      R0,R0,#0xFF
        STR      R0,[R4, #+2536]
// 3758             n_int_static_fld = inputstreamread() & 0xff;
        BL       bytearrayinputstreamread
        AND      R0,R0,#0xFF
        STR      R0,[R4, #+2540]
// 3759             Q = inputstreamread() & 0xff;
        BL       bytearrayinputstreamread
        AND      R0,R0,#0xFF
        STR      R0,[R4, #+2544]
// 3760             U = inputstreamread() & 0xff;
        BL       bytearrayinputstreamread
        AND      R0,R0,#0xFF
        STR      R0,[R4, #+2664]
// 3761             m_int_static_fld = inputstreamread() & 0xff;
        BL       bytearrayinputstreamread
        AND      R0,R0,#0xFF
        STR      R0,[R4, #+2672]
// 3762             d_int_static_fld = inputstreamread() & 0xff;
        BL       bytearrayinputstreamread
        AND      R0,R0,#0xFF
        STR      R0,[R4, #+2668]
// 3763             T = inputstreamread() & 0xff;
        BL       bytearrayinputstreamread
        AND      R0,R0,#0xFF
        STR      R0,[R4, #+2656]
// 3764             W = inputstreamread() & 0xff;
        BL       bytearrayinputstreamread
        AND      R0,R0,#0xFF
        STR      R0,[R4, #+2660]
// 3765             k();
        BL       k
        POP      {R4,R5,R7,PC}
// 3766             break;
// 3767 
// 3768         case 4: // '\004'
// 3769             I = inputstreamread() & 0xff;
??c_in_1:
        BL       bytearrayinputstreamread
        AND      R0,R0,#0xFF
        STR      R0,[R4, #+2620]
// 3770             e_boolean_static_fld = inputstreamread() == 255;
        BL       bytearrayinputstreamread
        CMP      R0,#+255
        MOVNE    R5,#+0
        STRB     R5,[R4, #+3200]
// 3771             F = inputstreamread() & 0xff;
        BL       bytearrayinputstreamread
        AND      R0,R0,#0xFF
        STR      R0,[R4, #+2624]
// 3772             for(int j1 = 0; j1 < d_int_array1d_static_fld_length; j1++)
        MOV      R5,#+0
// 3773                 d_int_array1d_static_fld[j1] = inputstreamread() & 0xff;
??c_in_4:
        BL       bytearrayinputstreamread
        AND      R0,R0,#0xFF
        ADD      R1,R4,R5, LSL #+2
        STR      R0,[R1, #+2472]
        ADD      R5,R5,#+1
        CMP      R5,#+8
        BLT      ??c_in_4
// 3774 
// 3775             G = inputstreamread() & 0xff;
        BL       bytearrayinputstreamread
        AND      R0,R0,#0xFF
        STR      R0,[R4, #+2872]
// 3776             J = inputstreamread() & 0xff;
        BL       bytearrayinputstreamread
        AND      R0,R0,#0xFF
        STR      R0,[R4, #+2876]
// 3777             O = inputstreamread() & 0xff;
        BL       bytearrayinputstreamread
        AND      R0,R0,#0xFF
        STR      R0,[R4, #+2588]
// 3778             g_int_static_fld = inputstreamread() & 0xff;
        BL       bytearrayinputstreamread
        AND      R0,R0,#0xFF
        STR      R0,[R4, #+2592]
// 3779             ac = inputstreamread() & 0xff;
        BL       bytearrayinputstreamread
        AND      R0,R0,#0xFF
        STR      R0,[R4, #+2596]
// 3780             N = inputstreamread() & 0xff;
        BL       bytearrayinputstreamread
        AND      R0,R0,#0xFF
        STR      R0,[R4, #+2600]
// 3781             s_int_static_fld = inputstreamread() & 0xff;
        BL       bytearrayinputstreamread
        AND      R0,R0,#0xFF
        STR      R0,[R4, #+2604]
// 3782             v_int_static_fld = inputstreamread() & 0xff;
        BL       bytearrayinputstreamread
        AND      R0,R0,#0xFF
        STR      R0,[R4, #+2608]
        POP      {R4,R5,R7,PC}
// 3783             break;
// 3784 
// 3785         case 6: // '\006'
// 3786             I = (inputstreamread() << 8) + inputstreamread();
??c_in_2:
        BL       bytearrayinputstreamread
        MOV      R7,R0
        BL       bytearrayinputstreamread
        ADD      R0,R0,R7, LSL #+8
        STR      R0,[R4, #+2620]
// 3787             e_boolean_static_fld = inputstreamread() == 255;
        BL       bytearrayinputstreamread
        CMP      R0,#+255
        MOVNE    R5,#+0
        STRB     R5,[R4, #+3200]
// 3788             break;
// 3789         }
// 3790     }
        POP      {R4,R5,R7,PC}
        CFI EndBlock cfiBlock53

        RSEG CODE:CODE:NOROOT(2)
        CFI Block cfiBlock54 Using cfiCommon0
        CFI NoFunction
        THUMB
??b_out??rT:
        BX       PC
        Nop      
        CFI EndBlock cfiBlock54
        REQUIRE b_out
// 3791 

        RSEG CODE:CODE:NOROOT(2)
        CFI Block cfiBlock55 Using cfiCommon1
        CFI Function b_out
        ARM
// 3792     static void b_out(){//(OutputStream outputstream) throws IOException {
b_out:
        PUSH     {R4,R5,LR}
        CFI ?RET Frame(CFA, -4)
        CFI R5 Frame(CFA, -8)
        CFI R4 Frame(CFA, -12)
        CFI CFA R13+12
// 3793         switch(w) {
        LDR      R4,??DataTable64  ;; j_int_array1d_static_fld
        LDR      R0,[R4, #+2620]
        LDR      R1,[R4, #+2548]
        SUBS     R1,R1,#+1
        BEQ      ??b_out_0
        SUBS     R1,R1,#+3
        BEQ      ??b_out_1
        SUBS     R1,R1,#+2
        BEQ      ??b_out_2
        POP      {R4,R5,PC}
// 3794         default:
// 3795             break;
// 3796 
// 3797         case 1: // '\001'
// 3798             outputstreamwrite(X >> 8 & 0xff);
??b_out_0:
        LDR      R0,[R4, #+2636]
        MOV      R1,#+255
        AND      R0,R1,R0, ASR #+8
        BL       bytearrayoutputstreamwrite
// 3799             outputstreamwrite(X & 0xff);
        LDR      R0,[R4, #+2636]
// 3800             outputstreamwrite(M & 0xff);
// 3801             outputstreamwrite(H & 0xff);
// 3802             for(int i1 = 0; i1 < d_int_array1d_static_fld_length; i1++)
        MOV      R5,#+0
        AND      R0,R0,#0xFF
        BL       bytearrayoutputstreamwrite
        LDR      R0,[R4, #+3180]
        AND      R0,R0,#0xFF
        BL       bytearrayoutputstreamwrite
        LDR      R0,[R4, #+2584]
        AND      R0,R0,#0xFF
        BL       bytearrayoutputstreamwrite
// 3803                 outputstreamwrite(d_int_array1d_static_fld[i1] & 0xff);
??b_out_3:
        ADD      R0,R4,R5, LSL #+2
        LDR      R0,[R0, #+2472]
        ADD      R5,R5,#+1
        AND      R0,R0,#0xFF
        BL       bytearrayoutputstreamwrite
        CMP      R5,#+8
        BLT      ??b_out_3
// 3804 
// 3805             outputstreamwrite(Z & 0xff);
        LDR      R0,[R4, #+2532]
        AND      R0,R0,#0xFF
        BL       bytearrayoutputstreamwrite
// 3806             outputstreamwrite(f_int_static_fld & 0xff);
        LDR      R0,[R4, #+2536]
        AND      R0,R0,#0xFF
        BL       bytearrayoutputstreamwrite
// 3807             outputstreamwrite(n_int_static_fld & 0xff);
        LDR      R0,[R4, #+2540]
        AND      R0,R0,#0xFF
        BL       bytearrayoutputstreamwrite
// 3808             outputstreamwrite(Q & 0xff);
        LDR      R0,[R4, #+2544]
        AND      R0,R0,#0xFF
        BL       bytearrayoutputstreamwrite
// 3809             outputstreamwrite(U & 0xff);
        LDR      R0,[R4, #+2664]
        AND      R0,R0,#0xFF
        BL       bytearrayoutputstreamwrite
// 3810             outputstreamwrite(m_int_static_fld & 0xff);
        LDR      R0,[R4, #+2672]
        AND      R0,R0,#0xFF
        BL       bytearrayoutputstreamwrite
// 3811             outputstreamwrite(d_int_static_fld & 0xff);
        LDR      R0,[R4, #+2668]
        AND      R0,R0,#0xFF
        BL       bytearrayoutputstreamwrite
// 3812             outputstreamwrite(T & 0xff);
        LDR      R0,[R4, #+2656]
        AND      R0,R0,#0xFF
        BL       bytearrayoutputstreamwrite
// 3813             outputstreamwrite(W & 0xff);
        LDR      R0,[R4, #+2660]
        B        ??b_out_4
// 3814             break;
// 3815 
// 3816         case 4: // '\004'
// 3817             outputstreamwrite(I & 0xff);
??b_out_1:
        AND      R0,R0,#0xFF
        BL       bytearrayoutputstreamwrite
// 3818             outputstreamwrite(e_boolean_static_fld ? 255 : 0);
        LDRB     R0,[R4, #+3200]
// 3819             outputstreamwrite(F & 0xff);
// 3820             for(int j1 = 0; j1 < d_int_array1d_static_fld_length; j1++)
        MOV      R5,#+0
        CMP      R0,#+0
        MOVNE    R0,#+255
        BL       bytearrayoutputstreamwrite
        LDR      R0,[R4, #+2624]
        AND      R0,R0,#0xFF
        BL       bytearrayoutputstreamwrite
// 3821                 outputstreamwrite(d_int_array1d_static_fld[j1] & 0xff);
??b_out_5:
        ADD      R0,R4,R5, LSL #+2
        LDR      R0,[R0, #+2472]
        ADD      R5,R5,#+1
        AND      R0,R0,#0xFF
        BL       bytearrayoutputstreamwrite
        CMP      R5,#+8
        BLT      ??b_out_5
// 3822 
// 3823             outputstreamwrite(G & 0xff);
        LDR      R0,[R4, #+2872]
        AND      R0,R0,#0xFF
        BL       bytearrayoutputstreamwrite
// 3824             outputstreamwrite(J & 0xff);
        LDR      R0,[R4, #+2876]
        AND      R0,R0,#0xFF
        BL       bytearrayoutputstreamwrite
// 3825             outputstreamwrite(O & 0xff);
        LDR      R0,[R4, #+2588]
        AND      R0,R0,#0xFF
        BL       bytearrayoutputstreamwrite
// 3826             outputstreamwrite(g_int_static_fld & 0xff);
        LDR      R0,[R4, #+2592]
        AND      R0,R0,#0xFF
        BL       bytearrayoutputstreamwrite
// 3827             outputstreamwrite(ac & 0xff);
        LDR      R0,[R4, #+2596]
        AND      R0,R0,#0xFF
        BL       bytearrayoutputstreamwrite
// 3828             outputstreamwrite(N & 0xff);
        LDR      R0,[R4, #+2600]
        AND      R0,R0,#0xFF
        BL       bytearrayoutputstreamwrite
// 3829             outputstreamwrite(s_int_static_fld & 0xff);
        LDR      R0,[R4, #+2604]
        AND      R0,R0,#0xFF
        BL       bytearrayoutputstreamwrite
// 3830             outputstreamwrite(v_int_static_fld & 0xff);
        LDR      R0,[R4, #+2608]
??b_out_4:
        AND      R0,R0,#0xFF
??b_out_6:
        BL       bytearrayoutputstreamwrite
        POP      {R4,R5,PC}
// 3831             break;
// 3832 
// 3833         case 6: // '\006'
// 3834             outputstreamwrite((I & 0xff00) >> 8);
??b_out_2:
        LSL      R0,R0,#+16
        LSR      R0,R0,#+24
        BL       bytearrayoutputstreamwrite
// 3835             outputstreamwrite(I & 0xff);
        LDR      R0,[R4, #+2620]
        AND      R0,R0,#0xFF
        BL       bytearrayoutputstreamwrite
// 3836             outputstreamwrite(e_boolean_static_fld ? 255 : 0);
        LDRB     R0,[R4, #+3200]
        CMP      R0,#+0
        BEQ      ??b_out_6
        MOV      R0,#+255
        BL       bytearrayoutputstreamwrite
        POP      {R4,R5,PC}
        CFI EndBlock cfiBlock55
// 3837             break;
// 3838         }
// 3839     }

        RSEG CODE:CODE:NOROOT(2)
        CFI Block cfiBlock56 Using cfiCommon0
        CFI NoFunction
        THUMB
??aint1int??rT:
        BX       PC
        Nop      
        CFI EndBlock cfiBlock56
        REQUIRE aint1int
// 3840 
// 3841     static boolean abool() {
// 3842         return (d_int_array1d_static_fld[0] & 0x40) != 0;
// 3843     }
// 3844 

        RSEG CODE:CODE:NOROOT(2)
        CFI Block cfiBlock57 Using cfiCommon1
        CFI Function aint1int
        ARM
// 3845      int aint1int(int i1) {
// 3846         int j1,k1;
// 3847         switch(i1 >> 13) {
aint1int:
        LDR      R2,??DataTable64  ;; j_int_array1d_static_fld
        PUSH     {R4}
        CFI R4 Frame(CFA, -4)
        CFI CFA R13+4
        LDR      R3,[R2, #+2652]
        ASRS     R1,R0,#+13
        BEQ      ??aint1int_0
        SUBS     R12,R1,#+1
        BEQ      ??aint1int_1
        SUBS     R12,R12,#+1
        BEQ      ??aint1int_2
        SUBS     R12,R12,#+1
        BEQ      ??aint1int_3
        B        ??aint1int_4
// 3848         case 0: // '\0'
// 3849             return vram[i1 & 0x7ff] & 0xff;
??aint1int_0:
        LSL      R0,R0,#+21
        ADD      R0,R3,R0, LSR #+21
        B        ??aint1int_5
// 3850 
// 3851         case 1: // '\001'
// 3852             switch(i1 & 7) {
??aint1int_1:
        LDR      R1,[R2, #+2860]
        AND      R0,R0,#0x7
        SUBS     R0,R0,#+2
        BEQ      ??aint1int_6
        SUBS     R0,R0,#+5
        BEQ      ??aint1int_7
        B        ??aint1int_8
// 3853             case 2: // '\002'
// 3854                 b_boolean_static_fld = false;
??aint1int_6:
        MOV      R0,#+0
        STRB     R0,[R2, #+3206]
// 3855                 j1 = o_int_static_fld;
        LDR      R0,[R2, #+2572]
// 3856  //debug("aint1",j1,j_int_static_fld);                
// 3857                 o_int_static_fld &= 0x7f;
// 3858                 j_int_static_fld = j1 & 0xe0 | j_int_static_fld & 0x1f;
        AND      R1,R1,#0x1F
        AND      R3,R0,#0x7F
        STR      R3,[R2, #+2572]
        AND      R0,R0,#0xE0
        ORR      R0,R1,R0
        STR      R0,[R2, #+2860]
// 3859 //    debug("aint2",j1,j_int_static_fld);
// 3860                 return j_int_static_fld;
        B        ??aint1int_9
// 3861 
// 3862             case 7: // '\007'
// 3863                 j_int_static_fld = q_int_static_fld;
??aint1int_7:
        LDR      R1,[R2, #+2864]
// 3864                 i1 = D & 0x3fff;
        LDR      R12,[R2, #+2644]
// 3865                 D += x;
        LDR      R4,[R2, #+2820]
        STR      R1,[R2, #+2860]
        LSL      R0,R12,#+18
        LSR      R0,R0,#+18
        ADD      R4,R4,R12
        STR      R4,[R2, #+2644]
// 3866                 if(i1 >= 12288)
        CMP      R0,#+12288
// 3867                     i1 &= 0xefff;
        MOVGE    R4,#+255
        ORRGE    R4,R4,#0xEF00
        ANDGE    R0,R4,R0
// 3868                 q_int_static_fld = vram[ram+i_int_array1d_static_fld[i1 >> 10] + (i1 & 0x3ff)] & 0xff;
        LDR      R4,[R2, #+3184]
        ASR      R12,R0,#+10
        ADD      R12,R2,R12, LSL #+2
        LDR      R12,[R12, #+2392]
        LSL      R0,R0,#+22
        ADD      R4,R12,R4
        ADD      R0,R4,R0, LSR #+22
        LDRSB    R0,[R0, +R3]
        AND      R0,R0,#0xFF
        STR      R0,[R2, #+2864]
// 3869                 return j_int_static_fld;
??aint1int_8:
        POP      {R4}
        CFI R4 SameValue
        CFI CFA R13+0
        MOV      R0,R1
        BX       LR
        CFI R4 Frame(CFA, -4)
        CFI CFA R13+4
// 3870             }
// 3871             return j_int_static_fld;
// 3872 
// 3873         case 2: // '\002'
// 3874             if(i1 == 16406) {
??aint1int_2:
        MOV      R1,#+22
        ORR      R1,R1,#0x4000
        CMP      R0,R1
        BNE      ??aint1int_10
// 3875                 k1 = a_int_static_fld & 1;
        LDR      R1,[R2, #+2632]
        AND      R0,R1,#0x1
// 3876                 a_int_static_fld >>= 1;
        ASR      R1,R1,#+1
        STR      R1,[R2, #+2632]
// 3877                 return k1;
??aint1int_9:
        POP      {R4}
        CFI R4 SameValue
        CFI CFA R13+0
        BX       LR
        CFI R4 Frame(CFA, -4)
        CFI CFA R13+4
// 3878             }
// 3879             if(i1 < 16408)
// 3880                          return 0;
??aint1int_10:
        POP      {R4}
        CFI R4 SameValue
        CFI CFA R13+0
        ADD      R1,R1,#+2
        CMP      R0,R1
        ASRGE    R0,R0,#+8
        MOVLT    R0,#+0
        BX       LR
        CFI R4 Frame(CFA, -4)
        CFI CFA R13+4
// 3881   
// 3882             else
// 3883                 return i1 >> 8;
// 3884 
// 3885         case 3: // '\003'
// 3886             return vram[i1 - 22528] & 0xff;
??aint1int_3:
        ADD      R0,R0,R3
        SUB      R0,R0,#+22528
??aint1int_5:
        LDRSB    R0,[R0, #+0]
??aint1int_11:
        POP      {R4}
        CFI R4 SameValue
        CFI CFA R13+0
        AND      R0,R0,#0xFF
        BX       LR
        CFI R4 Frame(CFA, -4)
        CFI CFA R13+4
// 3887         }
// 3888         return vram[b_int_array1d_static_fld[i1 >> 13] + i1] & 0xff;
??aint1int_4:
        ADD      R1,R2,R1, LSL #+2
        LDR      R1,[R1, #+2440]
        ADD      R0,R0,R1
        LDRSB    R0,[R0, +R3]
        B        ??aint1int_11
        CFI EndBlock cfiBlock57
// 3889     }

        RSEG CODE:CODE:NOROOT(2)
        CFI Block cfiBlock58 Using cfiCommon0
        CFI NoFunction
        THUMB
??i??rT:
        BX       PC
        Nop      
        CFI EndBlock cfiBlock58
        REQUIRE i
// 3890 /*
// 3891     byte[] bbytes1String(char *s) throws IOException {
// 3892 
// 3893         DataInputStream datainputstream = Connector.openDataInputStream(s);
// 3894         int i1 = datainputstream.available();
// 3895         if(i1 < 3) {
// 3896             throw new IOException();
// 3897         } else {
// 3898             byte abyte0[] = new byte[i1];
// 3899             datainputstream.read(abyte0);
// 3900             datainputstream.close();
// 3901             return abyte0;
// 3902         }
// 3903   
// 3904     InputStream in = getClass().getResourceAsStream("/1"); 
// 3905     byte a[] = new byte[in.available()];
// 3906     in.read(a);
// 3907     in.close();
// 3908 	return a;
// 3909 	}
// 3910 */

        RSEG CODE:CODE:NOROOT(2)
        CFI Block cfiBlock59 Using cfiCommon1
        CFI Function i
        ARM
// 3911     void i() {
// 3912         if(m_boolean_static_fld) {
// 3913             aa = (getHeight * B) / 100;
// 3914             if(u_boolean_static_fld)
// 3915                 l_int_static_fld = (aa * 240) / 256;
// 3916             else
// 3917                 l_int_static_fld = (getWidth * B) / 100;
// 3918             if(aa > 256)
// 3919                 aa = 256;
// 3920             if(l_int_static_fld > 240)
// 3921                 l_int_static_fld = 240;
// 3922             if(aa < 64)
// 3923                 aa = 64;
// 3924             if(l_int_static_fld < 60)
// 3925                 l_int_static_fld = 60;
// 3926             //main_a_int_array1d_fld = 
// 3927             if(screens) mfree(screens);
// 3928             Systemgc();
// 3929             //main_a_int_array1d_fld = 
// 3930               screens = (ushort*)malloc(l_int_static_fld * aa*2);
// 3931             for(int i1 = 0; i1 < h_int_array1d_static_fld_length; i1++)
// 3932                 h_int_array1d_static_fld[i1] = (((256 - i1 - 1) * aa) / 256) * l_int_static_fld;
// 3933 
// 3934             for(int j1 = 0; j1 < c_int_array1d_static_fld_length; j1++)
// 3935                 c_int_array1d_static_fld[j1] = (j1 * l_int_static_fld) / 240;
// 3936 
// 3937             r_int_static_fld = -l_int_static_fld;
// 3938             h_int_static_fld = 1;
// 3939         } else {
// 3940             l_int_static_fld = (getWidth * B) / 100;
i:
        LDR      R2,??DataTable59  ;; 0x51eb851f
        PUSH     {R4-R6,LR}
        CFI ?RET Frame(CFA, -4)
        CFI R6 Frame(CFA, -8)
        CFI R5 Frame(CFA, -12)
        CFI R4 Frame(CFA, -16)
        CFI CFA R13+16
        LDR      R4,??DataTable64  ;; j_int_array1d_static_fld
        LDR      R0,[R4, #+2612]
        LDR      R1,[R4, #+2512]
        MUL      R1,R0,R1
        SMULL    R3,R12,R2,R1
// 3941             if(u_boolean_static_fld)
// 3942                 aa = (l_int_static_fld * 240) / 256;
// 3943             else
// 3944                 aa = (getHeight * B) / 100;
        LDR      R2,[R4, #+2516]
        ASR      R12,R12,#+5
        MUL      R2,R0,R2
        LDR      R0,??DataTable59  ;; 0x51eb851f
        ADD      R1,R12,R1, LSR #+31
        SMULL    R3,R12,R0,R2
        ASR      R12,R12,#+5
        ADD      R0,R12,R2, LSR #+31
// 3945             if(l_int_static_fld > 256)
        MOV      R2,#+1
        ORR      R2,R2,#0x100
        CMP      R1,R2
// 3946                 l_int_static_fld = 256;
        MOVGE    R1,#+256
// 3947             if(aa > 240)
        CMP      R0,#+241
// 3948                 aa = 240;
        MOVGE    R0,#+240
// 3949             if(l_int_static_fld < 64)
        CMP      R1,#+64
// 3950                 l_int_static_fld = 64;
        MOVLT    R1,#+64
// 3951             if(aa < 60)
        CMP      R0,#+60
// 3952                 aa = 60;
        MOVLT    R0,#+60
        STR      R0,[R4, #+2616]
// 3953             //main_a_int_array1d_fld = 
// 3954               if(screens) mfree(screens);
        LDR      R0,[R4, #+3164]
        STR      R1,[R4, #+3176]
        CMP      R0,#+0
        BEQ      ??i_0
        SWI      +21
// 3955             Systemgc();
// 3956             //main_a_int_array1d_fld = 
// 3957               screens = (ushort*)malloc(l_int_static_fld * aa*2);
??i_0:
        LDR      R0,[R4, #+3176]
        LDR      R1,[R4, #+2616]
        MUL      R0,R1,R0
        LSL      R0,R0,#+1
        SWI      +20
        STR      R0,[R4, #+3164]
// 3958             for(int k1 = 0; k1 < h_int_array1d_static_fld_length; k1++)
        MOV      R1,#+0
// 3959                 h_int_array1d_static_fld[k1] = (k1 * l_int_static_fld) / 256;
??i_1:
        LDR      R0,[R4, #+3176]
        ADD      R3,R4,R1, LSL #+2
        MUL      R2,R0,R1
        ADD      R1,R1,#+1
        ASR      R12,R2,#+7
        ADD      R2,R2,R12, LSR #+24
        ASR      R2,R2,#+8
        STR      R2,[R3, #+192]
        CMP      R1,#+276
        BLT      ??i_1
// 3960 
// 3961             for(int l1 = 0; l1 < c_int_array1d_static_fld_length; l1++)
        MOV      R2,#+0
// 3962                 c_int_array1d_static_fld[l1] = ((l1 * aa) / 240) * l_int_static_fld;
??i_2:
        LDR      R1,[R4, #+2616]
        LDR      LR,??i_3         ;; 0xffffffff88888889
        MUL      R12,R1,R2
        ADD      R3,R4,R2, LSL #+2
        SMULL    R5,R6,LR,R12
        ADD      R2,R2,#+1
        ADD      R6,R6,R12
        ASR      R6,R6,#+7
        ADD      R5,R6,R12, LSR #+31
        MUL      R5,R0,R5
        CMP      R2,#+260
        STR      R5,[R3, #+1296]
        BLT      ??i_2
// 3963 
// 3964             r_int_static_fld = 1;
        MOV      R2,#+1
        STR      R2,[R4, #+3172]
// 3965             h_int_static_fld = l_int_static_fld;
        STR      R0,[R4, #+3168]
// 3966         }
// 3967         for(int i2 = 256; i2 < h_int_array1d_static_fld_length; i2++)
        MOV      R3,#+256
// 3968             h_int_array1d_static_fld[i2] = h_int_array1d_static_fld[255];
??i_4:
        LDR      R6,[R4, #+1212]
        ADD      R5,R4,R3, LSL #+2
        STR      R6,[R5, #+192]
        ADD      R3,R3,#+1
        CMP      R3,#+276
        BLT      ??i_4
// 3969 
// 3970         for(int j2 = 240; j2 < c_int_array1d_static_fld_length; j2++)
        MOV      R3,#+240
// 3971             c_int_array1d_static_fld[j2] = c_int_array1d_static_fld[239];
??i_5:
        LDR      R6,[R4, #+2252]
        ADD      R5,R4,R3, LSL #+2
        STR      R6,[R5, #+1296]
        ADD      R3,R3,#+1
        CMP      R3,#+260
        BLT      ??i_5
// 3972 
// 3973         for(int k2 = 0; k2 < h_int_array1d_static_fld_length; k2++) {
        MOV      R12,#+0
        B        ??i_6
// 3974             a_boolean_array1d_static_fld[k2] = k2 < h_int_array1d_static_fld_length - 1 && h_int_array1d_static_fld[k2] == h_int_array1d_static_fld[k2 + 1];
??i_7:
        MOV      R5,#+19
        ORR      R5,R5,#0x100
        CMP      R12,R5
        BGE      ??i_8
??i_6:
        ADD      LR,R4,R12, LSL #+2
        LDR      R5,[LR, #+192]
        LDR      R6,[LR, #+196]
        CMP      R5,R6
        MOVEQ    LR,#+1
        BEQ      ??i_9
??i_8:
        MOV      LR,#+0
??i_9:
        ADD      R5,R12,R4
        STRB     LR,[R5, #+3476]
// 3975             f_int_array1d_static_fld[k2] = h_int_array1d_static_fld[k2] - (a_boolean_array1d_static_fld[k2] ? r_int_static_fld : 0);
        LDRB     R5,[R5, #+3476]
        ADD      R6,R4,R12, LSL #+2
        LDR      R6,[R6, #+192]
        CMP      R5,#+0
        LDR      R5,??DataTable60  ;; f_int_array1d_static_fld
        MOVNE    LR,#+1
        MOVEQ    LR,#+0
        SUB      R6,R6,LR
        STR      R6,[R5, +R12, LSL #+2]
// 3976         }
        ADD      R12,R12,#+1
        CMP      R12,#+276
        BLT      ??i_7
// 3977 
// 3978         for(int l2 = 0; l2 < c_int_array1d_static_fld_length; l2++)
        MOV      R12,#+0
        B        ??i_10
// 3979             b_boolean_array1d_static_fld[l2] = l2 < c_int_array1d_static_fld_length - 1 && c_int_array1d_static_fld[l2] == c_int_array1d_static_fld[l2 + 1];
??i_11:
        MOV      R5,#+3
        ORR      R5,R5,#0x100
        CMP      R12,R5
        BGE      ??i_12
??i_10:
        ADD      LR,R4,R12, LSL #+2
        LDR      R5,[LR, #+1296]
        LDR      R6,[LR, #+1300]
        CMP      R5,R6
        MOVEQ    LR,#+1
        BEQ      ??i_13
??i_12:
        MOV      LR,#+0
??i_13:
        ADD      R5,R12,R4
        STRB     LR,[R5, #+3216]
        ADD      R12,R12,#+1
        CMP      R12,#+260
        BLT      ??i_11
// 3980 
// 3981         main_a_int_fld = l_int_static_fld;
        STR      R0,[R4, #+2504]
// 3982         main_c_int_fld = aa;
        STR      R1,[R4, #+2508]
// 3983         main_b_boolean_fld = true;
        STRB     R2,[R4, #+3196]
// 3984     }
        POP      {R4-R6,PC}       ;; return
        DATA
??i_3:
        DC32     0xffffffff88888889
        CFI EndBlock cfiBlock59

        RSEG CODE:CODE:NOROOT(2)
        DATA
??DataTable59:
        DC32     0x51eb851f

        RSEG CODE:CODE:NOROOT(2)
        DATA
??DataTable60:
        DC32     f_int_array1d_static_fld

        RSEG CODE:CODE:NOROOT(2)
        CFI Block cfiBlock60 Using cfiCommon0
        CFI NoFunction
        THUMB
??e??rT:
        BX       PC
        Nop      
        CFI EndBlock cfiBlock60
        REQUIRE e
// 3985 
// 3986 /*
// 3987     static void avoid1OutputStream(OutputStream outputstream) throws IOException {
// 3988         //c c1 = main;
// 3989         outputstream.write(d_boolean_static_fld ? 255 : 0);//c.??
// 3990         outputstream.write(u_boolean_static_fld ? 255 : 0);
// 3991         outputstream.write(m_boolean_static_fld ? 255 : 0);
// 3992         outputstream.write(t_boolean_static_fld ? 255 : 0);
// 3993         outputstream.write(k_boolean_static_fld ? 255 : 0);
// 3994         outputstream.write(B);
// 3995         outputstream.write(A);
// 3996         outputstream.write(b_int_static_fld);
// 3997         outputstream.write(L);
// 3998         //c c2 = main;
// 3999         outputstream.write(f_boolean_static_fld ? 255 : 0);
// 4000         outputstream.write(0);
// 4001         outputstream.write(0);
// 4002         outputstream.write(0);
// 4003         outputstream.write(0);
// 4004         outputstream.write(main.b_int_fld & 0xff);
// 4005         outputstream.write(main.b_int_fld >> 8 & 0xff);
// 4006         outputstream.write(main.e_boolean_fld ? 255 : 0);
// 4007         outputstream.write(main.c_java_lang_String_fld.length());
// 4008         for(int i1 = 0; i1 < main.c_java_lang_String_fld.length(); i1++)
// 4009             outputstream.write(main.c_java_lang_String_fld.charAt(i1) - 48);
// 4010 
// 4011         for(int j1 = 0; j1 < key.length; j1++)
// 4012             outputstream.write(key[j1]);
// 4013 
// 4014     }
// 4015 */

        RSEG CODE:CODE:NOROOT(2)
        CFI Block cfiBlock61 Using cfiCommon1
        CFI Function e
        ARM
// 4016     static void e(int i1, int j1) {
e:
        PUSH     {LR}
        CFI ?RET Frame(CFA, -4)
        CFI CFA R13+4
        MOV      R2,R0
        MOV      R0,R1
// 4017         j1 %= Y;
// 4018         b_int_array1d_static_fld[i1 + 4] = (j1 - (i1 + 4 << 13)) + 10240;
        LDR      R1,??DataTable64  ;; j_int_array1d_static_fld
        ADD      R3,R1,R2, LSL #+2
        LDR      R1,[R1, #+2880]
        _BLF     ??div32_a,??rA??div32_a
        ADD      R1,R2,#+4
        SUB      R0,R0,R1, LSL #+13
        ADD      R0,R0,#+10240
        STR      R0,[R3, #+2456]
// 4019     }
        POP      {PC}             ;; return
        CFI EndBlock cfiBlock61

        RSEG CODE:CODE:NOROOT(2)
        CFI Block cfiBlock62 Using cfiCommon0
        CFI NoFunction
        THUMB
??xxxxb??rT:
        BX       PC
        Nop      
        CFI EndBlock cfiBlock62
        REQUIRE xxxxb
// 4020 

        RSEG CODE:CODE:NOROOT(2)
        CFI Block cfiBlock63 Using cfiCommon1
        CFI Function xxxxb
        ARM
// 4021     static void xxxxb(int i1, int j1, int k1, int l1) {
xxxxb:
        PUSH     {R4-R6,LR}
        CFI ?RET Frame(CFA, -4)
        CFI R6 Frame(CFA, -8)
        CFI R5 Frame(CFA, -12)
        CFI R4 Frame(CFA, -16)
        CFI CFA R13+16
        MOV      R4,R1
        MOV      R5,R2
        MOV      R6,R3
// 4022         e(0, i1 << 13);
        LSL      R1,R0,#+13
        MOV      R0,#+0
        BL       e
// 4023         e(1, j1 << 13);
        LSL      R1,R4,#+13
        MOV      R0,#+1
        BL       e
// 4024         e(2, k1 << 13);
        LSL      R1,R5,#+13
        MOV      R0,#+2
        BL       e
// 4025         e(3, l1 << 13);
        LSL      R1,R6,#+13
        MOV      R0,#+3
        POP      {R4-R6,LR}       ;; Pop
        CFI R4 SameValue
        CFI R5 SameValue
        CFI R6 SameValue
        CFI ?RET R14
        CFI CFA R13+0
        B        e                ;; tailcall
        CFI EndBlock cfiBlock63
// 4026     }

        RSEG CODE:CODE:NOROOT(2)
        CFI Block cfiBlock64 Using cfiCommon0
        CFI NoFunction
        THUMB
??avoid4int??rT:
        BX       PC
        Nop      
        CFI EndBlock cfiBlock64
        REQUIRE avoid4int
// 4027 

        RSEG CODE:CODE:NOROOT(2)
        CFI Block cfiBlock65 Using cfiCommon1
        CFI Function avoid4int
        ARM
// 4028     static void avoid4int(int i1, int j1, int k1, int l1) {
// 4029         i1 &= 3;
// 4030         j1 &= 3;
// 4031         k1 &= 3;
// 4032         l1 &= 3;
// 4033         i_int_array1d_static_fld[8] = 0 + (i1 << 10);
avoid4int:
        LDR      R12,??DataTable64  ;; j_int_array1d_static_fld
        AND      R0,R0,#0x3
        LSL      R0,R0,#+10
        STR      R0,[R12, #+2424]
// 4034         i_int_array1d_static_fld[9] = 0 + (j1 << 10);
        AND      R0,R1,#0x3
        LSL      R0,R0,#+10
        STR      R0,[R12, #+2428]
// 4035         i_int_array1d_static_fld[10] = 0 + (k1 << 10);
        AND      R0,R2,#0x3
        LSL      R0,R0,#+10
        STR      R0,[R12, #+2432]
// 4036         i_int_array1d_static_fld[11] = 0 + (l1 << 10);
        AND      R0,R3,#0x3
        LSL      R0,R0,#+10
        STR      R0,[R12, #+2436]
// 4037     }
        BX       LR               ;; return
        CFI EndBlock cfiBlock65

        RSEG CODE:CODE:NOROOT(2)
        CFI Block cfiBlock66 Using cfiCommon0
        CFI NoFunction
        THUMB
??c??rT:
        BX       PC
        Nop      
        CFI EndBlock cfiBlock66
        REQUIRE c
// 4038 

        RSEG CODE:CODE:NOROOT(2)
        CFI Block cfiBlock67 Using cfiCommon1
        CFI Function c
        ARM
// 4039     static void c(int i1, int j1) {
// 4040         if(E == 0) {
c:
        LDR      R3,??DataTable64  ;; j_int_array1d_static_fld
        PUSH     {LR}
        CFI ?RET Frame(CFA, -4)
        CFI CFA R13+4
        MOV      R2,R0
        MOV      R0,R1
        LDR      R1,[R3, #+2868]
        CMP      R1,#+0
        POPEQ    {PC}
// 4041             return;
// 4042         } else {
// 4043             j1 %= E;
        _BLF     ??div32_a,??rA??div32_a
// 4044             i_int_array1d_static_fld[i1 & 7] = j1 + 8192;
        AND      R1,R2,#0x7
        ADD      R1,R3,R1, LSL #+2
        ADD      R2,R0,#+8192
        STR      R2,[R1, #+2392]
// 4045             l_int_array1d_static_fld[i1 & 7] = j1 >> 1;
        ASR      R0,R0,#+1
        STR      R0,[R1, #+2824]
// 4046             return;
        POP      {PC}             ;; return
        CFI EndBlock cfiBlock67
// 4047         }
// 4048     }

        RSEG CODE:CODE:NOROOT(2)
        CFI Block cfiBlock68 Using cfiCommon0
        CFI NoFunction
        THUMB
??avoid8int??rT:
        BX       PC
        Nop      
        CFI EndBlock cfiBlock68
        REQUIRE avoid8int
// 4049 

        RSEG CODE:CODE:NOROOT(2)
        CFI Block cfiBlock69 Using cfiCommon1
        CFI Function avoid8int
        ARM
// 4050     static void avoid8int(int i1, int j1, int k1, int l1, int i2, int j2, int k2, int l2) {
avoid8int:
        PUSH     {R4-R10,LR}
        CFI ?RET Frame(CFA, -4)
        CFI R10 Frame(CFA, -8)
        CFI R9 Frame(CFA, -12)
        CFI R8 Frame(CFA, -16)
        CFI R7 Frame(CFA, -20)
        CFI R6 Frame(CFA, -24)
        CFI R5 Frame(CFA, -28)
        CFI R4 Frame(CFA, -32)
        CFI CFA R13+32
        LDR      R7,[SP, #+32]
        LDR      R8,[SP, #+36]
        LDR      R9,[SP, #+40]
        LDR      R10,[SP, #+44]
        MOV      R4,R1
        MOV      R5,R2
        MOV      R6,R3
// 4051         c(0, i1 << 10);
        LSL      R1,R0,#+10
        MOV      R0,#+0
        BL       c
// 4052         c(1, j1 << 10);
        LSL      R1,R4,#+10
        MOV      R0,#+1
        BL       c
// 4053         c(2, k1 << 10);
        LSL      R1,R5,#+10
        MOV      R0,#+2
        BL       c
// 4054         c(3, l1 << 10);
        LSL      R1,R6,#+10
        MOV      R0,#+3
        BL       c
// 4055         c(4, i2 << 10);
        LSL      R1,R7,#+10
        MOV      R0,#+4
        BL       c
// 4056         c(5, j2 << 10);
        LSL      R1,R8,#+10
        MOV      R0,#+5
        BL       c
// 4057         c(6, k2 << 10);
        LSL      R1,R9,#+10
        MOV      R0,#+6
        BL       c
// 4058         c(7, l2 << 10);
        LSL      R1,R10,#+10
        MOV      R0,#+7
        BL       c
// 4059     }
        POP      {R4-R10,PC}      ;; return
        CFI EndBlock cfiBlock69

        RSEG CODE:CODE:NOROOT(2)
        CFI Block cfiBlock70 Using cfiCommon0
        CFI NoFunction
        THUMB
??bvoid2int??rT:
        BX       PC
        Nop      
        CFI EndBlock cfiBlock70
        REQUIRE bvoid2int
// 4060 

        RSEG CODE:CODE:NOROOT(2)
        CFI Block cfiBlock71 Using cfiCommon1
        CFI Function bvoid2int
        ARM
// 4061     static void bvoid2int(int i1, int j1) {
// 4062         if(i1 < 8) {
bvoid2int:
        LDR      R2,??DataTable64  ;; j_int_array1d_static_fld
        CMP      R0,#+8
        ADD      R2,R2,R0, LSL #+2
        BGE      ??bvoid2int_0
// 4063             i_int_array1d_static_fld[i1] = 8192 + ((j1 & 0xf) << 10);
        AND      R0,R1,#0xF
        MOV      R3,#+8192
        ADD      R0,R3,R0, LSL #+10
        STR      R0,[R2, #+2392]
// 4064             l_int_array1d_static_fld[i1] = (j1 & 0xf) << 9;
        AND      R0,R1,#0xF
        LSL      R0,R0,#+9
        STR      R0,[R2, #+2824]
        BX       LR
// 4065         } else
// 4066         if(i1 < 12)
??bvoid2int_0:
        CMP      R0,#+12
// 4067             i_int_array1d_static_fld[i1] = 0 + ((j1 & 3) << 10);
        ANDLT    R0,R1,#0x3
        LSLLT    R0,R0,#+10
        STRLT    R0,[R2, #+2392]
// 4068     }
        BX       LR               ;; return
        CFI EndBlock cfiBlock71

        RSEG CODE:CODE:NOROOT(2)
        DATA
??DataTable64:
        DC32     j_int_array1d_static_fld

        RSEG CODE:CODE:NOROOT(2)
        CFI Block cfiBlock72 Using cfiCommon0
        CFI NoFunction
        THUMB
??b_in??rT:
        BX       PC
        Nop      
        CFI EndBlock cfiBlock72
        REQUIRE b_in
// 4069 
// 4070     static int aint2int(int i1, int j1) {
// 4071         int k1;
// 4072         if(j1 < 90)
// 4073             k1 = a_short_array1d_static_fld[j1];
// 4074         else
// 4075         if(j1 < 180)
// 4076             k1 = a_short_array1d_static_fld[180 - j1];
// 4077         else
// 4078         if(j1 < 270)
// 4079             k1 = -a_short_array1d_static_fld[j1 - 180];
// 4080         else
// 4081             k1 = -a_short_array1d_static_fld[360 - j1];
// 4082         return (k1 * i1) / 1000;
// 4083     }
// 4084 

        RSEG CODE:CODE:NOROOT(2)
        CFI Block cfiBlock73 Using cfiCommon1
        CFI Function b_in
        ARM
// 4085     static void b_in(){//(InputStream inputstream) throws IOException {
b_in:
        PUSH     {R4-R8,LR}
        CFI ?RET Frame(CFA, -4)
        CFI R8 Frame(CFA, -8)
        CFI R7 Frame(CFA, -12)
        CFI R6 Frame(CFA, -16)
        CFI R5 Frame(CFA, -20)
        CFI R4 Frame(CFA, -24)
        CFI CFA R13+24
// 4086         for(int i1 = 0; i1 < 10240; i1++)
        LDR      R4,??DataTable66  ;; j_int_array1d_static_fld
        MOV      R5,#+0
// 4087             vram[i1] = (byte)inputstreamread();
??b_in_0:
        BL       bytearrayinputstreamread
        LDR      R1,[R4, #+2652]
        STRB     R0,[R5, +R1]
        ADD      R5,R5,#+1
        CMP      R5,#+10240
        BLT      ??b_in_0
// 4088 
// 4089         for(int j1 = 0; j1 < b_int_array1d_static_fld_length; j1++) {
        MOV      R5,#+0
// 4090             b_int_array1d_static_fld[j1] = (inputstreamread() & 0xff) << 0;
??b_in_1:
        ADD      R6,R4,R5, LSL #+2
        BL       bytearrayinputstreamread
        AND      R0,R0,#0xFF
        STR      R0,[R6, #+2440]
// 4091             b_int_array1d_static_fld[j1] |= (inputstreamread() & 0xff) << 8;
        BL       bytearrayinputstreamread
        LDR      R1,[R6, #+2440]
        AND      R0,R0,#0xFF
        ORR      R0,R1,R0, LSL #+8
        STR      R0,[R6, #+2440]
// 4092             b_int_array1d_static_fld[j1] |= (inputstreamread() & 0xff) << 16;
        BL       bytearrayinputstreamread
        LDR      R1,[R6, #+2440]
        AND      R0,R0,#0xFF
        ORR      R0,R1,R0, LSL #+16
        STR      R0,[R6, #+2440]
// 4093             b_int_array1d_static_fld[j1] |= (inputstreamread() & 0xff) << 24;
        BL       bytearrayinputstreamread
        LDR      R1,[R6, #+2440]
// 4094         }
        ADD      R5,R5,#+1
        ORR      R0,R1,R0, LSL #+24
        STR      R0,[R6, #+2440]
        CMP      R5,#+8
        BLT      ??b_in_1
// 4095 
// 4096         q_boolean_static_fld = inputstreamread() == 255;
        MOV      R5,#+1
        BL       bytearrayinputstreamread
        CMP      R0,#+255
        MOVEQ    R0,#+1
        MOVNE    R0,#+0
        STRB     R0,[R4, #+3197]
// 4097         a_int_static_fld = inputstreamread();
        BL       bytearrayinputstreamread
        STR      R0,[R4, #+2632]
// 4098         for(int k1 = 0; k1 < e_int_array1d_static_fld_length; k1++)
        MOV      R7,#+0
// 4099             e_int_array1d_static_fld[k1] = inputstreamread() & 0xff;
??b_in_2:
        BL       bytearrayinputstreamread
        AND      R0,R0,#0xFF
        ADD      R1,R4,R7, LSL #+2
        STR      R0,[R1, #+2692]
        ADD      R7,R7,#+1
        CMP      R7,#+32
        BLT      ??b_in_2
// 4100 
// 4101         S = inputstreamread() & 0xff;
        BL       bytearrayinputstreamread
        AND      R0,R0,#0xFF
        STR      R0,[R4, #+2564]
// 4102         R = inputstreamread() & 0xff;
        BL       bytearrayinputstreamread
        AND      R0,R0,#0xFF
        STR      R0,[R4, #+2568]
// 4103         o_int_static_fld = inputstreamread() & 0xff;
        BL       bytearrayinputstreamread
        AND      R0,R0,#0xFF
        STR      R0,[R4, #+2572]
// 4104         e_int_static_fld = inputstreamread() & 0xff;
        BL       bytearrayinputstreamread
        AND      R0,R0,#0xFF
        STR      R0,[R4, #+2580]
// 4105         V = inputstreamread() & 0xff;
        BL       bytearrayinputstreamread
        AND      R0,R0,#0xFF
        STR      R0,[R4, #+2888]
// 4106         D = (inputstreamread() & 0xff) << 0;
        BL       bytearrayinputstreamread
        AND      R0,R0,#0xFF
        STR      R0,[R4, #+2644]
// 4107         D |= (inputstreamread() & 0xff) << 8;
        BL       bytearrayinputstreamread
        LDR      R1,[R4, #+2644]
        AND      R0,R0,#0xFF
        ORR      R0,R1,R0, LSL #+8
        STR      R0,[R4, #+2644]
// 4108         D |= (inputstreamread() & 0xff) << 16;
        BL       bytearrayinputstreamread
        LDR      R1,[R4, #+2644]
        AND      R0,R0,#0xFF
        ORR      R0,R1,R0, LSL #+16
        STR      R0,[R4, #+2644]
// 4109         D |= (inputstreamread() & 0xff) << 24;
        BL       bytearrayinputstreamread
        LDR      R1,[R4, #+2644]
// 4110         y = (inputstreamread() & 0xff) << 0;
// 4111         y |= (inputstreamread() & 0xff) << 8;
// 4112         y |= (inputstreamread() & 0xff) << 16;
// 4113         y |= (inputstreamread() & 0xff) << 24;
// 4114         c_int_static_fld = inputstreamread() & 0xff;
// 4115         ab = inputstreamread() & 0xff;
// 4116         q_int_static_fld = inputstreamread() & 0xff;
// 4117         j_int_static_fld = inputstreamread() & 0xff;
// 4118         for(int l1 = 0; l1 < i_int_array1d_static_fld_length; l1++) {
        MOV      R7,#+0
        ORR      R0,R1,R0, LSL #+24
        STR      R0,[R4, #+2644]
        BL       bytearrayinputstreamread
        AND      R0,R0,#0xFF
        STR      R0,[R4, #+2640]
        BL       bytearrayinputstreamread
        LDR      R1,[R4, #+2640]
        AND      R0,R0,#0xFF
        ORR      R0,R1,R0, LSL #+8
        STR      R0,[R4, #+2640]
        BL       bytearrayinputstreamread
        LDR      R1,[R4, #+2640]
        AND      R0,R0,#0xFF
        ORR      R0,R1,R0, LSL #+16
        STR      R0,[R4, #+2640]
        BL       bytearrayinputstreamread
        LDR      R1,[R4, #+2640]
        ORR      R0,R1,R0, LSL #+24
        STR      R0,[R4, #+2640]
        BL       bytearrayinputstreamread
        AND      R0,R0,#0xFF
        STR      R0,[R4, #+2648]
        BL       bytearrayinputstreamread
        AND      R0,R0,#0xFF
        STR      R0,[R4, #+2560]
        BL       bytearrayinputstreamread
        AND      R0,R0,#0xFF
        STR      R0,[R4, #+2864]
        BL       bytearrayinputstreamread
        AND      R0,R0,#0xFF
        STR      R0,[R4, #+2860]
// 4119             i_int_array1d_static_fld[l1] = (inputstreamread() & 0xff) << 0;
??b_in_3:
        ADD      R8,R4,R7, LSL #+2
        BL       bytearrayinputstreamread
        AND      R0,R0,#0xFF
        STR      R0,[R8, #+2392]
// 4120             i_int_array1d_static_fld[l1] |= (inputstreamread() & 0xff) << 8;
        BL       bytearrayinputstreamread
        LDR      R1,[R8, #+2392]
        AND      R0,R0,#0xFF
        ORR      R0,R1,R0, LSL #+8
        STR      R0,[R8, #+2392]
// 4121             i_int_array1d_static_fld[l1] |= (inputstreamread() & 0xff) << 16;
        BL       bytearrayinputstreamread
        LDR      R1,[R8, #+2392]
        AND      R0,R0,#0xFF
        ORR      R0,R1,R0, LSL #+16
        STR      R0,[R8, #+2392]
// 4122             i_int_array1d_static_fld[l1] |= (inputstreamread() & 0xff) << 24;
        BL       bytearrayinputstreamread
        LDR      R1,[R8, #+2392]
// 4123         }
        ADD      R7,R7,#+1
        ORR      R0,R1,R0, LSL #+24
        STR      R0,[R8, #+2392]
        CMP      R7,#+12
        BLT      ??b_in_3
// 4124 
// 4125         for(int i2 = 0; i2 < l_int_array1d_static_fld_length; i2++) {
        MOV      R7,#+0
// 4126             l_int_array1d_static_fld[i2] = (inputstreamread() & 0xff) << 0;
??b_in_4:
        ADD      R8,R4,R7, LSL #+2
        BL       bytearrayinputstreamread
        AND      R0,R0,#0xFF
        STR      R0,[R8, #+2824]
// 4127             l_int_array1d_static_fld[i2] |= (inputstreamread() & 0xff) << 8;
        BL       bytearrayinputstreamread
        LDR      R1,[R8, #+2824]
        AND      R0,R0,#0xFF
        ORR      R0,R1,R0, LSL #+8
        STR      R0,[R8, #+2824]
// 4128             l_int_array1d_static_fld[i2] |= (inputstreamread() & 0xff) << 16;
        BL       bytearrayinputstreamread
        LDR      R1,[R8, #+2824]
        AND      R0,R0,#0xFF
        ORR      R0,R1,R0, LSL #+16
        STR      R0,[R8, #+2824]
// 4129             l_int_array1d_static_fld[i2] |= (inputstreamread() & 0xff) << 24;
        BL       bytearrayinputstreamread
        LDR      R1,[R8, #+2824]
// 4130         }
        ADD      R7,R7,#+1
        ORR      R0,R1,R0, LSL #+24
        STR      R0,[R8, #+2824]
        CMP      R7,#+8
        BLT      ??b_in_4
// 4131 
// 4132         short c1 = 0x2000;//'\u2000';
// 4133         if(E == 0)
        LDR      R0,[R4, #+2868]
        MOV      R7,#+8192
        CMP      R0,#+0
// 4134             c1 = 0x4000;//'\u4000';
        MOVEQ    R7,#+16384
// 4135         for(int j2 = 0; j2 < c1; j2++) {
        MOV      R8,#+0
        B        ??b_in_5
// 4136             vram[j2+ram] = (byte)inputstreamread();
??b_in_6:
        BL       bytearrayinputstreamread
        LDR      R1,[R4, #+3184]
        LDR      R2,[R4, #+2652]
        ADD      R3,R1,R8
        ADD      R3,R3,R2
        STRB     R0,[R3, #+0]
// 4137             if((j2 & 8) != 0 && j2 >= 8192) {
        TST      R8,#0x8
        BEQ      ??b_in_7
        CMP      R8,#+8192
        BLT      ??b_in_7
// 4138                 int l2 = vram[ram+(j2 ^ 8)] & 0xff;
        EOR      R0,R8,#0x8
        ADD      R0,R0,R1
        LDRSB    R0,[R0, +R2]
// 4139                 int i3 = vram[ram+j2] & 0xff;
        LDRSB    R1,[R3, #+0]
// 4140                 int j3 = ((j2 & 0xfffffff0) >> 1 | j2 & 7) - 4096;
// 4141                 a_char_array1d_static_fld[j3] = (short)(l2 & 1 | (l2 & 2) << 1 | (l2 & 4) << 2 | (l2 & 8) << 3 | (l2 & 0x10) << 4 | (l2 & 0x20) << 5 | (l2 & 0x40) << 6 | (l2 & 0x80) << 7 | (i3 & 1) << 1 | (i3 & 2) << 2 | (i3 & 4) << 3 | (i3 & 8) << 4 | (i3 & 0x10) << 5 | (i3 & 0x20) << 6 | (i3 & 0x40) << 7 | (i3 & 0x80) << 8);
        BIC      R2,R8,#0xF
        AND      R3,R8,#0x7
        ORR      R2,R3,R2, LSR #+1
        LDR      R3,[R4, #+2856]
        AND      R0,R0,#0xFF
        AND      R1,R1,#0xFF
        ADD      R2,R3,R2, LSL #+1
        SUB      R2,R2,#+8192
        AND      R3,R0,#0x1
        AND      R12,R0,#0x2
        ORR      R3,R3,R12, LSL #+1
        AND      R12,R0,#0x4
        ORR      R3,R3,R12, LSL #+2
        AND      R12,R0,#0x8
        ORR      R3,R3,R12, LSL #+3
        AND      R12,R0,#0x10
        ORR      R3,R3,R12, LSL #+4
        AND      R12,R0,#0x20
        ORR      R3,R3,R12, LSL #+5
        AND      R12,R0,#0x40
        ORR      R3,R3,R12, LSL #+6
        AND      R0,R0,#0x80
        ORR      R0,R3,R0, LSL #+7
        AND      R3,R1,#0x1
        ORR      R0,R0,R3, LSL #+1
        AND      R3,R1,#0x2
        ORR      R0,R0,R3, LSL #+2
        AND      R3,R1,#0x4
        ORR      R0,R0,R3, LSL #+3
        AND      R3,R1,#0x8
        ORR      R0,R0,R3, LSL #+4
        AND      R3,R1,#0x10
        ORR      R0,R0,R3, LSL #+5
        AND      R3,R1,#0x20
        ORR      R0,R0,R3, LSL #+6
        AND      R3,R1,#0x40
        ORR      R0,R0,R3, LSL #+7
        AND      R1,R1,#0x80
        ORR      R0,R0,R1, LSL #+8
        STRH     R0,[R2, #+0]
// 4142             }
// 4143         }
??b_in_7:
        ADD      R8,R8,#+1
??b_in_5:
        CMP      R8,R7
        BLT      ??b_in_6
// 4144 
// 4145         b_boolean_static_fld = inputstreamread() == 255;
        BL       bytearrayinputstreamread
        CMP      R0,#+255
        MOVNE    R5,#+0
        STRB     R5,[R4, #+3206]
// 4146         x = inputstreamread() & 0xff;
        BL       bytearrayinputstreamread
        AND      R0,R0,#0xFF
        STR      R0,[R4, #+2820]
// 4147         for(int k2 = 0; k2 < d_byte_array1d_static_fld_length; k2++)
        MOV      R5,#+0
        MOV      R6,#+2896
// 4148             d_byte_array1d_static_fld[k2] = (byte)inputstreamread();
??b_in_8:
        BL       bytearrayinputstreamread
        ADD      R1,R5,R4
        STRB     R0,[R6, +R1]
        ADD      R5,R5,#+1
        CMP      R5,#+256
        BLT      ??b_in_8
// 4149 
// 4150         p_int_static_fld = d_byte_array1d_static_fld[0] & 0xff;
        LDRSB    R0,[R6, +R4]
        AND      R0,R0,#0xFF
        STR      R0,[R4, #+2892]
// 4151         C = inputstreamread() & 0xff;
        BL       bytearrayinputstreamread
        AND      R0,R0,#0xFF
        STR      R0,[R4, #+3152]
// 4152         j();
        BL       j
// 4153     }
        POP      {R4-R8,PC}       ;; return
        CFI EndBlock cfiBlock73

        RSEG CODE:CODE:NOROOT(2)
        CFI Block cfiBlock74 Using cfiCommon0
        CFI NoFunction
        THUMB
??c_out??rT:
        BX       PC
        Nop      
        CFI EndBlock cfiBlock74
        REQUIRE c_out
// 4154 

        RSEG CODE:CODE:NOROOT(2)
        CFI Block cfiBlock75 Using cfiCommon1
        CFI Function c_out
        ARM
// 4155     static void c_out(){//(OutputStream outputstream) throws IOException {
c_out:
        PUSH     {R4-R6,LR}
        CFI ?RET Frame(CFA, -4)
        CFI R6 Frame(CFA, -8)
        CFI R5 Frame(CFA, -12)
        CFI R4 Frame(CFA, -16)
        CFI CFA R13+16
// 4156         for(int i1 = 0; i1 < 10240; i1++)
        LDR      R4,??DataTable66  ;; j_int_array1d_static_fld
        MOV      R5,#+0
// 4157             outputstreamwrite(vram[i1] & 0xff);
??c_out_0:
        LDR      R0,[R4, #+2652]
        LDRSB    R0,[R5, +R0]
        ADD      R5,R5,#+1
        AND      R0,R0,#0xFF
        BL       bytearrayoutputstreamwrite
        CMP      R5,#+10240
        BLT      ??c_out_0
// 4158 
// 4159         for(int j1 = 0; j1 < b_int_array1d_static_fld_length; j1++) {
        MOV      R5,#+0
// 4160             outputstreamwrite(b_int_array1d_static_fld[j1] >> 0 & 0xff);
??c_out_1:
        ADD      R6,R4,R5, LSL #+2
        LDR      R0,[R6, #+2440]
// 4161             outputstreamwrite(b_int_array1d_static_fld[j1] >> 8 & 0xff);
// 4162             outputstreamwrite(b_int_array1d_static_fld[j1] >> 16 & 0xff);
// 4163             outputstreamwrite(b_int_array1d_static_fld[j1] >> 24 & 0xff);
// 4164         }
        ADD      R5,R5,#+1
        AND      R0,R0,#0xFF
        BL       bytearrayoutputstreamwrite
        LDR      R0,[R6, #+2440]
        MOV      R1,#+255
        AND      R0,R1,R0, ASR #+8
        BL       bytearrayoutputstreamwrite
        LDR      R0,[R6, #+2440]
        MOV      R1,#+255
        AND      R0,R1,R0, ASR #+16
        BL       bytearrayoutputstreamwrite
        LDR      R0,[R6, #+2440]
        MOV      R1,#+255
        AND      R0,R1,R0, ASR #+24
        BL       bytearrayoutputstreamwrite
        CMP      R5,#+8
        BLT      ??c_out_1
// 4165 
// 4166         outputstreamwrite(q_boolean_static_fld ? 255 : 0);
        LDRB     R0,[R4, #+3197]
// 4167         outputstreamwrite(a_int_static_fld & 0xff);
// 4168         for(int k1 = 0; k1 < e_int_array1d_static_fld_length; k1++)
        MOV      R5,#+0
        CMP      R0,#+0
        MOVNE    R0,#+255
        BL       bytearrayoutputstreamwrite
        LDR      R0,[R4, #+2632]
        AND      R0,R0,#0xFF
        BL       bytearrayoutputstreamwrite
// 4169             outputstreamwrite(e_int_array1d_static_fld[k1] & 0xff);
??c_out_2:
        ADD      R0,R4,R5, LSL #+2
        LDR      R0,[R0, #+2692]
        ADD      R5,R5,#+1
        AND      R0,R0,#0xFF
        BL       bytearrayoutputstreamwrite
        CMP      R5,#+32
        BLT      ??c_out_2
// 4170 
// 4171         outputstreamwrite(S & 0xff);
        LDR      R0,[R4, #+2564]
// 4172         outputstreamwrite(R & 0xff);
// 4173         outputstreamwrite(o_int_static_fld & 0xff);
// 4174         outputstreamwrite(e_int_static_fld & 0xff);
// 4175         outputstreamwrite(V & 0xff);
// 4176         outputstreamwrite(D >> 0 & 0xff);
// 4177         outputstreamwrite(D >> 8 & 0xff);
// 4178         outputstreamwrite(D >> 16 & 0xff);
// 4179         outputstreamwrite(D >> 24 & 0xff);
// 4180         outputstreamwrite(y >> 0 & 0xff);
// 4181         outputstreamwrite(y >> 8 & 0xff);
// 4182         outputstreamwrite(y >> 16 & 0xff);
// 4183         outputstreamwrite(y >> 24 & 0xff);
// 4184         outputstreamwrite(c_int_static_fld & 0xff);
// 4185         outputstreamwrite(ab & 0xff);
// 4186         outputstreamwrite(q_int_static_fld & 0xff);
// 4187         outputstreamwrite(j_int_static_fld & 0xff);
// 4188         for(int l1 = 0; l1 < i_int_array1d_static_fld_length; l1++) {
        MOV      R5,#+0
        AND      R0,R0,#0xFF
        BL       bytearrayoutputstreamwrite
        LDR      R0,[R4, #+2568]
        AND      R0,R0,#0xFF
        BL       bytearrayoutputstreamwrite
        LDR      R0,[R4, #+2572]
        AND      R0,R0,#0xFF
        BL       bytearrayoutputstreamwrite
        LDR      R0,[R4, #+2580]
        AND      R0,R0,#0xFF
        BL       bytearrayoutputstreamwrite
        LDR      R0,[R4, #+2888]
        AND      R0,R0,#0xFF
        BL       bytearrayoutputstreamwrite
        LDR      R0,[R4, #+2644]
        AND      R0,R0,#0xFF
        BL       bytearrayoutputstreamwrite
        LDR      R0,[R4, #+2644]
        MOV      R1,#+255
        AND      R0,R1,R0, ASR #+8
        BL       bytearrayoutputstreamwrite
        LDR      R0,[R4, #+2644]
        MOV      R1,#+255
        AND      R0,R1,R0, ASR #+16
        BL       bytearrayoutputstreamwrite
        LDR      R0,[R4, #+2644]
        MOV      R1,#+255
        AND      R0,R1,R0, ASR #+24
        BL       bytearrayoutputstreamwrite
        LDR      R0,[R4, #+2640]
        AND      R0,R0,#0xFF
        BL       bytearrayoutputstreamwrite
        LDR      R0,[R4, #+2640]
        MOV      R1,#+255
        AND      R0,R1,R0, ASR #+8
        BL       bytearrayoutputstreamwrite
        LDR      R0,[R4, #+2640]
        MOV      R1,#+255
        AND      R0,R1,R0, ASR #+16
        BL       bytearrayoutputstreamwrite
        LDR      R0,[R4, #+2640]
        MOV      R1,#+255
        AND      R0,R1,R0, ASR #+24
        BL       bytearrayoutputstreamwrite
        LDR      R0,[R4, #+2648]
        AND      R0,R0,#0xFF
        BL       bytearrayoutputstreamwrite
        LDR      R0,[R4, #+2560]
        AND      R0,R0,#0xFF
        BL       bytearrayoutputstreamwrite
        LDR      R0,[R4, #+2864]
        AND      R0,R0,#0xFF
        BL       bytearrayoutputstreamwrite
        LDR      R0,[R4, #+2860]
        AND      R0,R0,#0xFF
        BL       bytearrayoutputstreamwrite
// 4189             outputstreamwrite(i_int_array1d_static_fld[l1] >> 0 & 0xff);
??c_out_3:
        ADD      R6,R4,R5, LSL #+2
        LDR      R0,[R6, #+2392]
// 4190             outputstreamwrite(i_int_array1d_static_fld[l1] >> 8 & 0xff);
// 4191             outputstreamwrite(i_int_array1d_static_fld[l1] >> 16 & 0xff);
// 4192             outputstreamwrite(i_int_array1d_static_fld[l1] >> 24 & 0xff);
// 4193         }
        ADD      R5,R5,#+1
        AND      R0,R0,#0xFF
        BL       bytearrayoutputstreamwrite
        LDR      R0,[R6, #+2392]
        MOV      R1,#+255
        AND      R0,R1,R0, ASR #+8
        BL       bytearrayoutputstreamwrite
        LDR      R0,[R6, #+2392]
        MOV      R1,#+255
        AND      R0,R1,R0, ASR #+16
        BL       bytearrayoutputstreamwrite
        LDR      R0,[R6, #+2392]
        MOV      R1,#+255
        AND      R0,R1,R0, ASR #+24
        BL       bytearrayoutputstreamwrite
        CMP      R5,#+12
        BLT      ??c_out_3
// 4194 
// 4195         for(int i2 = 0; i2 < l_int_array1d_static_fld_length; i2++) {
        MOV      R5,#+0
// 4196             outputstreamwrite(l_int_array1d_static_fld[i2] >> 0 & 0xff);
??c_out_4:
        ADD      R6,R4,R5, LSL #+2
        LDR      R0,[R6, #+2824]
// 4197             outputstreamwrite(l_int_array1d_static_fld[i2] >> 8 & 0xff);
// 4198             outputstreamwrite(l_int_array1d_static_fld[i2] >> 16 & 0xff);
// 4199             outputstreamwrite(l_int_array1d_static_fld[i2] >> 24 & 0xff);
// 4200         }
        ADD      R5,R5,#+1
        AND      R0,R0,#0xFF
        BL       bytearrayoutputstreamwrite
        LDR      R0,[R6, #+2824]
        MOV      R1,#+255
        AND      R0,R1,R0, ASR #+8
        BL       bytearrayoutputstreamwrite
        LDR      R0,[R6, #+2824]
        MOV      R1,#+255
        AND      R0,R1,R0, ASR #+16
        BL       bytearrayoutputstreamwrite
        LDR      R0,[R6, #+2824]
        MOV      R1,#+255
        AND      R0,R1,R0, ASR #+24
        BL       bytearrayoutputstreamwrite
        CMP      R5,#+8
        BLT      ??c_out_4
// 4201 
// 4202         short c1 = 0x2000;//'\u2000';
// 4203         if(E == 0)
        LDR      R0,[R4, #+2868]
        MOV      R5,#+8192
        CMP      R0,#+0
// 4204             c1 = 0x4000;//'\u4000';
        MOVEQ    R5,#+16384
// 4205         for(int j2 = 0; j2 < c1; j2++)
        MOV      R6,#+0
        B        ??c_out_5
// 4206             outputstreamwrite(vram[ram+j2] & 0xff);
??c_out_6:
        LDR      R0,[R4, #+3184]
        LDR      R1,[R4, #+2652]
        ADD      R0,R6,R0
        LDRSB    R0,[R0, +R1]
        ADD      R6,R6,#+1
        AND      R0,R0,#0xFF
        BL       bytearrayoutputstreamwrite
??c_out_5:
        CMP      R6,R5
        BLT      ??c_out_6
// 4207 
// 4208         outputstreamwrite(b_boolean_static_fld ? 255 : 0);
        LDRB     R0,[R4, #+3206]
// 4209         outputstreamwrite(x & 0xff);
// 4210         for(int k2 = 0; k2 < d_byte_array1d_static_fld_length; k2++)
        MOV      R5,#+0
        CMP      R0,#+0
        MOVNE    R0,#+255
        BL       bytearrayoutputstreamwrite
        LDR      R0,[R4, #+2820]
        AND      R0,R0,#0xFF
        BL       bytearrayoutputstreamwrite
// 4211             outputstreamwrite(d_byte_array1d_static_fld[k2] & 0xff);
??c_out_7:
        ADD      R0,R5,R4
        ADD      R0,R0,#+2896
        LDRSB    R0,[R0, #+0]
        ADD      R5,R5,#+1
        AND      R0,R0,#0xFF
        BL       bytearrayoutputstreamwrite
        CMP      R5,#+256
        BLT      ??c_out_7
// 4212 
// 4213         outputstreamwrite(C & 0xff);
        LDR      R0,[R4, #+3152]
        AND      R0,R0,#0xFF
        BL       bytearrayoutputstreamwrite
// 4214     }
        POP      {R4-R6,PC}       ;; return
        CFI EndBlock cfiBlock75

        RSEG CODE:CODE:NOROOT(2)
        DATA
??DataTable66:
        DC32     j_int_array1d_static_fld

        RSEG CODE:CODE:NOROOT(2)
        CFI Block cfiBlock76 Using cfiCommon0
        CFI NoFunction
        THUMB
??avoid2int??rT:
        BX       PC
        Nop      
        CFI EndBlock cfiBlock76
        REQUIRE avoid2int
// 4215 
// 4216     static int bint1int(int i1) {
// 4217         switch(w) {
// 4218         case 4: // '\004'
// 4219             if(e_boolean_static_fld && i1 >= 0 && i1 < 240 && (R & 0x18) != 0 && --I < 0) {
// 4220                 I = F;
// 4221                 return 3;
// 4222             } else {
// 4223                 return 0;
// 4224             }
// 4225 
// 4226         case 6: // '\006'
// 4227             if(e_boolean_static_fld) {
// 4228                 I += 133;
// 4229                 if(I >= 65535) {
// 4230                     I = 0;
// 4231                     return 3;
// 4232                 }
// 4233             }
// 4234             return 0;
// 4235         }
// 4236         return 0;
// 4237     }
// 4238 

        RSEG CODE:CODE:NOROOT(2)
        CFI Block cfiBlock77 Using cfiCommon1
        CFI Function avoid2int
        ARM
// 4239     static void avoid2int(int i1, int j1) {
avoid2int:
        PUSH     {R4-R9,LR}
        CFI ?RET Frame(CFA, -4)
        CFI R9 Frame(CFA, -8)
        CFI R8 Frame(CFA, -12)
        CFI R7 Frame(CFA, -16)
        CFI R6 Frame(CFA, -20)
        CFI R5 Frame(CFA, -24)
        CFI R4 Frame(CFA, -28)
        CFI CFA R13+28
// 4240       int k1,l1,i2,j2,k2;
// 4241 //label0:
// 4242         switch(i1 >> 13) {
        LDR      R6,??DataTable68  ;; j_int_array1d_static_fld
        MOV      R5,R1
        MOV      R9,R0
        LDR      R0,[R6, #+2652]
        AND      R1,R5,#0x10
        MOV      R7,#+2896
        MOV      R8,#+255
        ORR      R8,R8,#0x700
        MOV      R2,#+0
        MOV      R3,#+1
        ASRS     R4,R9,#+13
        BEQ      ??avoid2int_3
        SUBS     R4,R4,#+1
        BEQ      ??avoid2int_4
        SUBS     R4,R4,#+1
        BEQ      ??avoid2int_5
        SUBS     R4,R4,#+1
        BEQ      ??avoid2int_6
        B        ??avoid2int_7
// 4243  
// 4244         case 0: // '\0'
// 4245             vram[i1 & 0x7ff] = (byte)j1;
??avoid2int_3:
        AND      R1,R8,R9
        STRB     R5,[R1, +R0]
        POP      {R4-R9,PC}
// 4246             break;
// 4247 
// 4248         case 1: // '\001'
// 4249             j_int_static_fld = j1;
// 4250             switch(i1 & 7) {
??avoid2int_4:
        LDR      R4,[R6, #+2640]
        LDRB     R8,[R6, #+3206]
        STR      R5,[R6, #+2860]
        AND      R9,R9,#0x7
        CMP      R9,#+7
        POPHI    {R4-R9,PC}
        ADR      R12,??avoid2int_0
        MOV      R9,R9, LSL #+1
        LDRH     R12,[R12, R9]
        ADD      PC,PC,R12, LSL #+2
        DATA
??avoid2int_0:
        DC16     +3,+22,+556,+30
        DC16     +34,+54,+77,+93
        ARM
// 4251             case 2: // '\002'
// 4252             
// 4253             
// 4254             default:
// 4255                 goto label0; //break label0;
// 4256 
// 4257             case 0: // '\0'
// 4258                 S = j1;
??avoid2int_8:
        STR      R5,[R6, #+2564]
// 4259                 e_int_static_fld = (j1 & 0x10) != 0 ? 4 : 0;
        CMP      R1,#+0
        MOVNE    R0,#+4
        MOVEQ    R0,#+0
        STR      R0,[R6, #+2580]
// 4260                 V = (j1 & 8) != 0 ? 4 : 0;
        TST      R5,#0x8
        MOVNE    R0,#+4
        MOVEQ    R0,#+0
        STR      R0,[R6, #+2888]
// 4261                 x = (j1 & 4) != 0 ? 32 : 1;
        TST      R5,#0x4
        MOVNE    R0,#+32
        MOVEQ    R0,#+1
        STR      R0,[R6, #+2820]
// 4262                 y &= 0xf3ff;
// 4263                 y |= (j1 & 3) << 10;
        MOV      R0,#+255
        ORR      R0,R0,#0xF300
        AND      R0,R0,R4
        AND      R1,R5,#0x3
        ORR      R0,R0,R1, LSL #+10
        B        ??avoid2int_9
// 4264                 goto label0; //break label0;
// 4265 
// 4266             case 1: // '\001'
// 4267                 k1 = R;
??avoid2int_10:
        LDR      R0,[R6, #+2568]
// 4268                 R = j1;
        STR      R5,[R6, #+2568]
// 4269                 if((k1 & 0xe0) != (j1 & 0xe0))
        AND      R0,R0,#0xE0
        AND      R1,R5,#0xE0
        CMP      R0,R1
        POPEQ    {R4-R9,PC}
// 4270                     j();
        BL       j
        POP      {R4-R9,PC}
// 4271                 goto label0; //break label0;
// 4272 
// 4273             case 3: // '\003'
// 4274                 C = j1;
??avoid2int_11:
        STR      R5,[R6, #+3152]
// 4275                 ab = j1 & 7;
        AND      R0,R5,#0x7
        STR      R0,[R6, #+2560]
        POP      {R4-R9,PC}
// 4276                 goto label0; //break label0;
// 4277 
// 4278             case 4: // '\004'
// 4279                 if(ab >= 8) {
??avoid2int_12:
        LDR      R1,[R6, #+2560]
        LDR      R0,[R6, #+3152]
        CMP      R1,#+8
        BLT      ??avoid2int_13
// 4280                     if(C >= 8)
        CMP      R0,#+8
        BLT      ??avoid2int_14
// 4281                         d_byte_array1d_static_fld[C] = (byte)j1;
        ADD      R2,R0,R6
        STRB     R5,[R7, +R2]
        B        ??avoid2int_14
// 4282                 } else {
// 4283                     d_byte_array1d_static_fld[ab] = (byte)j1;
??avoid2int_13:
        ADD      R2,R1,R6
        STRB     R5,[R7, +R2]
// 4284                     if(ab == 0)
        CMP      R1,#+0
// 4285                         p_int_static_fld = j1;
        STREQ    R5,[R6, #+2892]
// 4286                 }
// 4287                 C = C + 1 & 0xff;
??avoid2int_14:
        ADD      R0,R0,#+1
        AND      R0,R0,#0xFF
        STR      R0,[R6, #+3152]
// 4288                 ab = ab + 1 & 0xff;
        ADD      R0,R1,#+1
        AND      R0,R0,#0xFF
        STR      R0,[R6, #+2560]
// 4289                 goto label0; //break label0;
        POP      {R4-R9,PC}
// 4290 
// 4291             case 5: // '\005'
// 4292                 b_boolean_static_fld = !b_boolean_static_fld;
??avoid2int_15:
        CMP      R8,#+0
        MOVEQ    R2,#+1
        STRB     R2,[R6, #+3206]
// 4293                 if(b_boolean_static_fld) {
        LDRB     R0,[R6, #+3206]
        CMP      R0,#+0
        BEQ      ??avoid2int_16
// 4294                     y &= 0xffe0;
// 4295                     y |= j1 >> 3;
        MOV      R0,#+224
        ORR      R0,R0,#0xFF00
        AND      R0,R0,R4
        ORR      R0,R0,R5, ASR #+3
        STR      R0,[R6, #+2640]
// 4296                     c_int_static_fld = j1 & 7;
        AND      R0,R5,#0x7
        STR      R0,[R6, #+2648]
        POP      {R4-R9,PC}
// 4297                 } else {
// 4298                     y &= 0x8c1f;
// 4299                     y |= (j1 & 0xf8) << 2;
// 4300                     y &= 0x8fff;
// 4301                     y |= (j1 & 7) << 12;
??avoid2int_16:
        MOV      R0,#+31
        ORR      R0,R0,#0x8C00
        AND      R0,R0,R4
        AND      R1,R5,#0xF8
        ORR      R0,R0,R1, LSL #+2
        AND      R1,R5,#0x7
        ORR      R0,R0,R1, LSL #+12
        STR      R0,[R6, #+2640]
        POP      {R4-R9,PC}
// 4302                 }
// 4303                 goto label0; //break label0;
// 4304 
// 4305             case 6: // '\006'
// 4306                 b_boolean_static_fld = !b_boolean_static_fld;
??avoid2int_17:
        CMP      R8,#+0
        MOVEQ    R2,#+1
        STRB     R2,[R6, #+3206]
// 4307                 if(b_boolean_static_fld) {
        LDRB     R0,[R6, #+3206]
        CMP      R0,#+0
        BEQ      ??avoid2int_18
// 4308                     y &= 0xff;
// 4309                     y |= (j1 & 0x3f) << 8;
        AND      R0,R4,#0xFF
        AND      R1,R5,#0x3F
        ORR      R0,R0,R1, LSL #+8
??avoid2int_9:
        STR      R0,[R6, #+2640]
        POP      {R4-R9,PC}
// 4310                 } else {
// 4311                     y &= 0xff00;
// 4312                     y |= j1;
??avoid2int_18:
        AND      R0,R4,#0xFF00
        ORR      R0,R5,R0
        STR      R0,[R6, #+2640]
// 4313                     D = y;
        STR      R0,[R6, #+2644]
        POP      {R4-R9,PC}
// 4314                 }
// 4315                 goto label0; //break label0;
// 4316 
// 4317             case 7: // '\007'
// 4318                 i1 = D & 0x3fff;
??avoid2int_19:
        LDR      R1,[R6, #+2644]
// 4319                 D += x;
        LDR      R3,[R6, #+2820]
        LSL      R2,R1,#+18
        LSR      R2,R2,#+18
        ADD      R1,R3,R1
        STR      R1,[R6, #+2644]
// 4320                 break;
// 4321             }
// 4322             if(i1 >= 16128) {
        CMP      R2,#+16128
        BLT      ??avoid2int_20
// 4323                 j1 &= 0x3f;
        AND      R5,R5,#0x3F
// 4324                 i1 &= 0x1f;
        AND      R9,R2,#0x1F
// 4325                 if((i1 & 0xf) == 0) {
        TST      R9,#0xF
        BNE      ??avoid2int_21
// 4326                     for(i2 = 0; i2 < 5; i2++) {
        MOV      R0,#+0
// 4327                         e_int_array1d_static_fld[i2 << 2] = j1;
??avoid2int_22:
        ADD      R1,R6,R0, LSL #+4
        STR      R5,[R1, #+2692]
// 4328                         j_int_array1d_static_fld[i2 << 2] = g_int_array1d_static_fld[j1];
        ADD      R2,R6,R5, LSL #+1
        LDRH     R2,[R2, #+64]
        ADD      R1,R6,R0, LSL #+3
// 4329                     }
        ADD      R0,R0,#+1
        STRH     R2,[R1, #+0]
        CMP      R0,#+5
        POPGE    {R4-R9,PC}
        B        ??avoid2int_22
// 4330 
// 4331                     break;
// 4332                 }
// 4333                 if((i1 & 3) != 0) {
??avoid2int_21:
        TST      R9,#0x3
        POPEQ    {R4-R9,PC}
// 4334                     e_int_array1d_static_fld[i1] = j1;
        ADD      R0,R6,R9, LSL #+2
        STR      R5,[R0, #+2692]
// 4335                     j_int_array1d_static_fld[i1] = g_int_array1d_static_fld[j1] | (i1 & 3) << 24;
        ADD      R1,R6,R5, LSL #+1
        LDRH     R1,[R1, #+64]
        ADD      R0,R6,R9, LSL #+1
        STRH     R1,[R0, #+0]
        POP      {R4-R9,PC}
// 4336                 }
// 4337                 break;
// 4338             }
// 4339             if(i1 >= 12288)
??avoid2int_20:
        CMP      R2,#+12288
// 4340                 i1 &= 0xefff;
        MOVGE    R1,#+255
        ORRGE    R1,R1,#0xEF00
        ANDGE    R2,R1,R2
// 4341             i1 = i_int_array1d_static_fld[i1 >> 10] + (i1 & 0x3ff);
        ASR      R1,R2,#+10
        ADD      R1,R6,R1, LSL #+2
        LDR      R1,[R1, #+2392]
        LSL      R2,R2,#+22
        ADD      R9,R1,R2, LSR #+22
// 4342             if(i1 < 8192) {
        LDR      R1,[R6, #+3184]
        CMP      R9,#+8192
// 4343                 vram[ram+i1] = (byte)j1;
        ADDLT    R1,R9,R1
        STRBLT   R5,[R1, +R0]
// 4344                 break;
        POPLT    {R4-R9,PC}
// 4345             }
// 4346             if(E != 0)
        LDR      R2,[R6, #+2868]
        CMP      R2,#+0
        POPNE    {R4-R9,PC}
// 4347                 break;
// 4348             vram[ram+i1] = (byte)j1;
        ADD      R2,R9,R1
        STRB     R5,[R2, +R0]
// 4349             if((i1 & 8) != 0) {
        TST      R9,#0x8
        POPEQ    {R4-R9,PC}
// 4350                 byte byte0 = vram[ram+(i1 ^ 8)];
        EOR      R2,R9,#0x8
        ADD      R1,R2,R1
        LDRSB    R0,[R1, +R0]
// 4351                 j2 = j1;
// 4352                 k2 = ((i1 & 0xfffffff0) >> 1 | i1 & 7) - 4096;
// 4353                 a_char_array1d_static_fld[k2] = (ushort)(byte0 & 1 | (byte0 & 2) << 1 | (byte0 & 4) << 2 | (byte0 & 8) << 3 | (byte0 & 0x10) << 4 | (byte0 & 0x20) << 5 | (byte0 & 0x40) << 6 | (byte0 & 0x80) << 7 | (j2 & 1) << 1 | (j2 & 2) << 2 | (j2 & 4) << 3 | (j2 & 8) << 4 | (j2 & 0x10) << 5 | (j2 & 0x20) << 6 | (j2 & 0x40) << 7 | (j2 & 0x80) << 8);
        BIC      R1,R9,#0xF
        AND      R2,R9,#0x7
        ORR      R1,R2,R1, LSR #+1
        LDR      R2,[R6, #+2856]
        AND      R3,R0,#0x2
        ADD      R1,R2,R1, LSL #+1
        SUB      R1,R1,#+8192
        AND      R2,R0,#0x1
        ORR      R2,R2,R3, LSL #+1
        AND      R3,R0,#0x4
        ORR      R2,R2,R3, LSL #+2
        AND      R3,R0,#0x8
        ORR      R2,R2,R3, LSL #+3
        AND      R3,R0,#0x10
        ORR      R2,R2,R3, LSL #+4
        AND      R3,R0,#0x20
        ORR      R2,R2,R3, LSL #+5
        AND      R3,R0,#0x40
        ORR      R2,R2,R3, LSL #+6
        AND      R0,R0,#0x80
        ORR      R0,R2,R0, LSL #+7
        AND      R2,R5,#0x1
        ORR      R0,R0,R2, LSL #+1
        AND      R2,R5,#0x2
        ORR      R0,R0,R2, LSL #+2
        AND      R2,R5,#0x4
        ORR      R0,R0,R2, LSL #+3
        AND      R2,R5,#0x8
        ORR      R0,R0,R2, LSL #+4
        AND      R2,R5,#0x10
        ORR      R0,R0,R2, LSL #+5
        AND      R2,R5,#0x20
        ORR      R0,R0,R2, LSL #+6
        AND      R2,R5,#0x40
        ORR      R0,R0,R2, LSL #+7
        AND      R2,R5,#0x80
        ORR      R0,R0,R2, LSL #+8
        STRH     R0,[R1, #+0]
        POP      {R4-R9,PC}
// 4354             }//ERROR WAS HERE (char)
// 4355             break;
// 4356 
// 4357         case 2: // '\002'
// 4358             if(i1 < 16408) {
??avoid2int_5:
        LSL      R4,R5,#+8
        MOV      R0,#+24
        ORR      R0,R0,#0x4000
        CMP      R9,R0
        BGE      ??avoid2int_23
// 4359               APUWrite(i1,(byte)j1);
        AND      R1,R5,#0xFF
        MOV      R0,R9, LSL #+16
        MOV      R0,R0, LSR #+16
        _BLF     APUWrite,??APUWrite??rA
// 4360                 switch(i1 & 0xff) {
        AND      R9,R9,#0xFF
        SUBS     R9,R9,#+20
        BEQ      ??avoid2int_24
        SUBS     R9,R9,#+2
        BEQ      ??avoid2int_25
        POP      {R4-R9,PC}
// 4361                 default:
// 4362                     goto label0; //break label0;
// 4363 
// 4364                 case 20: // '\024'
// 4365                     l1 = j1 << 8;
// 4366                     switch(j1 >> 5) {
??avoid2int_24:
        ASR      R0,R5,#+5
        CMP      R0,#+7
        BHI      ??avoid2int_26
        ADR      R1,??avoid2int_1
        MOV      R0,R0, LSL #+1
        LDRH     R1,[R1, R0]
        ADD      PC,PC,R1, LSL #+2
        DATA
??avoid2int_1:
        DC16     +3,+345,+345,+5
        DC16     +7,+7,+7,+7
        ARM
// 4367                     case 0: // '\0'
// 4368                         l1 &= 0x7ff;
??avoid2int_27:
        AND      R4,R8,R4
        B        ??avoid2int_26
// 4369                         break;
// 4370 
// 4371                     case 1: // '\001'
// 4372                     case 2: // '\002'
// 4373                         return;
// 4374 
// 4375                     case 3: // '\003'
// 4376                         l1 -= 22528;
??avoid2int_28:
        SUB      R4,R4,#+22528
        B        ??avoid2int_26
// 4377                         break;
// 4378 
// 4379                     case 4: // '\004'
// 4380                     case 5: // '\005'
// 4381                     case 6: // '\006'
// 4382                     case 7: // '\007'
// 4383                         l1 += b_int_array1d_static_fld[l1 >> 13];
??avoid2int_29:
        ASR      R0,R4,#+13
        ADD      R0,R6,R0, LSL #+2
        LDR      R0,[R0, #+2440]
        ADD      R4,R0,R4
// 4384                         break;
// 4385                     }
// 4386                     Systemarraycopy(vram, l1, d_byte_array1d_static_fld, 0, 256);
??avoid2int_26:
        LDR      R0,[R6, #+2652]
        MOV      R2,#+256
        ADD      R1,R4,R0
        ADD      R0,R7,R6
        SWI      +306
// 4387                     p_int_static_fld = d_byte_array1d_static_fld[0] & 0xff;
        LDRSB    R0,[R7, +R6]
        AND      R0,R0,#0xFF
        STR      R0,[R6, #+2892]
// 4388                     goto label0; //break label0;
        POP      {R4-R9,PC}
// 4389 
// 4390                 case 22: // '\026'
// 4391                     break;
// 4392                 }
// 4393                 if((j1 & 1) != 0)
??avoid2int_25:
        TST      R5,#0x1
        POPNE    {R4-R9,PC}
// 4394                     break;
// 4395                 
// 4396                 
// 4397                 a_int_static_fld = k_int_static_fld;
        LDR      R0,[R6, #+2628]
// 4398                 if((a_int_static_fld & 0x30) == 48)
        AND      R1,R0,#0x30
        CMP      R1,#+48
// 4399                     a_int_static_fld &= 0xcf;
        ANDEQ    R0,R0,#0xCF
        STR      R0,[R6, #+2632]
// 4400                 if((a_int_static_fld & 0xc0) == 192)
        AND      R0,R0,#0xC0
        CMP      R0,#+192
        POPNE    {R4-R9,PC}
// 4401                     a_int_static_fld &= 0x3f;
        LDR      R0,[R6, #+2632]
        AND      R0,R0,#0x3F
        STR      R0,[R6, #+2632]
        POP      {R4-R9,PC}
// 4402             } else {
// 4403                 xxd(i1, j1);
??avoid2int_23:
        LDR      R0,[R6, #+2548]
        CMP      R0,#+6
        POPNE    {R4-R9,PC}
        LDR      R0,[R6, #+2620]
        SUB      R9,R9,#+254
        SUB      R9,R9,#+16896
        ORR      R7,R3,#0x204
        CMP      R9,R7
        POPHI    {R4-R9,PC}
        ADR      R7,??avoid2int_2
        MOV      R9,R9, LSL #+1
        LDRH     R7,[R7, R9]
        ADD      PC,PC,R7, LSL #+2
        DATA
??avoid2int_2:
        DC16     +258,+264,+297,+297
        DC16     +297,+297,+297,+297
        DC16     +297,+297,+297,+297
        DC16     +297,+297,+297,+297
        DC16     +297,+297,+297,+297
        DC16     +297,+297,+297,+297
        DC16     +297,+297,+297,+297
        DC16     +297,+297,+297,+297
        DC16     +297,+297,+297,+297
        DC16     +297,+297,+297,+297
        DC16     +297,+297,+297,+297
        DC16     +297,+297,+297,+297
        DC16     +297,+297,+297,+297
        DC16     +297,+297,+297,+297
        DC16     +297,+297,+297,+297
        DC16     +297,+297,+297,+297
        DC16     +297,+297,+297,+297
        DC16     +297,+297,+297,+297
        DC16     +297,+297,+297,+297
        DC16     +297,+297,+297,+297
        DC16     +297,+297,+297,+297
        DC16     +297,+297,+297,+297
        DC16     +297,+297,+297,+297
        DC16     +297,+297,+297,+297
        DC16     +297,+297,+297,+297
        DC16     +297,+297,+297,+297
        DC16     +297,+297,+297,+297
        DC16     +297,+297,+297,+297
        DC16     +297,+297,+297,+297
        DC16     +297,+297,+297,+297
        DC16     +297,+297,+297,+297
        DC16     +297,+297,+297,+297
        DC16     +297,+297,+297,+297
        DC16     +297,+297,+297,+297
        DC16     +297,+297,+297,+297
        DC16     +297,+297,+297,+297
        DC16     +297,+297,+297,+297
        DC16     +297,+297,+297,+297
        DC16     +297,+297,+297,+297
        DC16     +297,+297,+297,+297
        DC16     +297,+297,+297,+297
        DC16     +297,+297,+297,+297
        DC16     +297,+297,+297,+297
        DC16     +297,+297,+297,+297
        DC16     +297,+297,+297,+297
        DC16     +297,+297,+297,+297
        DC16     +297,+297,+297,+297
        DC16     +297,+297,+297,+297
        DC16     +297,+297,+297,+297
        DC16     +297,+297,+297,+297
        DC16     +297,+297,+297,+297
        DC16     +297,+297,+297,+297
        DC16     +297,+297,+297,+297
        DC16     +297,+297,+297,+297
        DC16     +297,+297,+297,+297
        DC16     +297,+297,+297,+297
        DC16     +297,+297,+297,+297
        DC16     +297,+297,+297,+297
        DC16     +297,+297,+297,+297
        DC16     +297,+297,+297,+297
        DC16     +297,+297,+297,+297
        DC16     +297,+297,+297,+297
        DC16     +297,+297,+297,+297
        DC16     +297,+297,+297,+297
        DC16     +297,+297,+297,+297
        DC16     +297,+297,+297,+297
        DC16     +297,+297,+297,+297
        DC16     +297,+297,+297,+297
        DC16     +297,+297,+297,+297
        DC16     +297,+297,+297,+297
        DC16     +297,+297,+297,+297
        DC16     +297,+297,+297,+297
        DC16     +297,+297,+297,+297
        DC16     +297,+297,+297,+297
        DC16     +297,+297,+297,+297
        DC16     +297,+297,+297,+297
        DC16     +297,+297,+297,+297
        DC16     +297,+297,+297,+297
        DC16     +297,+297,+297,+297
        DC16     +297,+297,+297,+297
        DC16     +297,+297,+297,+297
        DC16     +297,+297,+297,+297
        DC16     +297,+297,+297,+297
        DC16     +297,+297,+297,+297
        DC16     +297,+297,+297,+297
        DC16     +297,+297,+297,+297
        DC16     +297,+297,+297,+297
        DC16     +297,+297,+297,+297
        DC16     +297,+297,+297,+297
        DC16     +297,+297,+297,+297
        DC16     +297,+297,+297,+297
        DC16     +297,+297,+297,+297
        DC16     +297,+297,+297,+297
        DC16     +297,+297,+297,+297
        DC16     +297,+297,+297,+297
        DC16     +297,+297,+297,+297
        DC16     +297,+297,+297,+297
        DC16     +297,+297,+297,+297
        DC16     +297,+297,+297,+297
        DC16     +297,+297,+297,+297
        DC16     +297,+297,+297,+297
        DC16     +297,+297,+297,+297
        DC16     +297,+297,+297,+297
        DC16     +297,+297,+297,+297
        DC16     +297,+297,+297,+297
        DC16     +297,+297,+297,+297
        DC16     +297,+297,+297,+297
        DC16     +297,+297,+297,+297
        DC16     +297,+297,+297,+297
        DC16     +297,+297,+297,+297
        DC16     +297,+297,+297,+297
        DC16     +297,+297,+297,+297
        DC16     +297,+297,+297,+297
        DC16     +297,+297,+297,+297
        DC16     +297,+297,+297,+297
        DC16     +297,+297,+297,+297
        DC16     +297,+297,+297,+297
        DC16     +297,+297,+297,+297
        DC16     +297,+297,+297,+297
        DC16     +297,+297,+297,+297
        DC16     +297,+297,+297,+297
        DC16     +297,+297,+297,+297
        DC16     +297,+297,+297,+297
        DC16     +297,+297,+297,+297
        DC16     +297,+297,+297,+297
        DC16     +297,+297,+297,+297
        DC16     +297,+297,+297,+297
        DC16     +297,+297,+297,+297
        DC16     +297,+297,+297,+275
        DC16     +277,+282
        ARM
??avoid2int_30:
        CMP      R1,#+0
        MOVNE    R2,#+1
        MOVNE    R1,R2
        BNE      ??avoid2int_31
        MOV      R3,#+0
        B        ??avoid2int_32
??avoid2int_33:
        CMP      R1,#+0
        BEQ      ??avoid2int_34
        MOV      R2,#+1
        MOV      R1,#+0
??avoid2int_31:
        MOV      R0,R1
        BL       avoid4int
        POP      {R4-R9,PC}
??avoid2int_34:
        MOV      R1,#+1
??avoid2int_32:
        MOV      R0,R2
        BL       avoid4int
        POP      {R4-R9,PC}
??avoid2int_35:
        STRB     R2,[R6, #+3200]
        POP      {R4-R9,PC}
??avoid2int_36:
        AND      R0,R0,#0xFF00
        AND      R1,R5,#0xFF
        ORR      R0,R1,R0
        STR      R0,[R6, #+2620]
        POP      {R4-R9,PC}
??avoid2int_37:
        AND      R0,R0,#0xFF
        ORR      R0,R4,R0
        STR      R0,[R6, #+2620]
        STRB     R3,[R6, #+3200]
        POP      {R4-R9,PC}
// 4404             }
// 4405             break;
// 4406 
// 4407         case 3: // '\003'
// 4408             if(q_boolean_static_fld)
??avoid2int_6:
        LDRB     R1,[R6, #+3197]
        CMP      R1,#+0
        POPEQ    {R4-R9,PC}
// 4409                 vram[i1 - 22528] = (byte)j1;
        ADD      R0,R9,R0
        SUB      R0,R0,#+22528
        STRB     R5,[R0, #+0]
        POP      {R4-R9,PC}
// 4410             break;
// 4411 
// 4412         default:
// 4413             xxf(i1, j1);
??avoid2int_7:
        MOV      R1,R5
        MOV      R0,R9
        BL       xxf
??avoid2int_38:
        POP      {R4-R9,PC}       ;; return
        CFI EndBlock cfiBlock77
// 4414             break;
// 4415         }
// 4416 label0:;
// 4417     }

        RSEG CODE:CODE:NOROOT(2)
        CFI Block cfiBlock78 Using cfiCommon0
        CFI NoFunction
        THUMB
??initnul??rT:
        BX       PC
        Nop      
        CFI EndBlock cfiBlock78
        REQUIRE initnul
// 4418 /*
// 4419 
// 4420     static void avoid1String1bytes(char *s, byte abyte0[]) throws IOException {
// 4421         DataOutputStream dataoutputstream = Connector.openDataOutputStream(s);
// 4422         dataoutputstream.write(abyte0);
// 4423         dataoutputstream.flush();
// 4424         dataoutputstream.close();
// 4425     }
// 4426 
// 4427     void paint(Graphics g) {
// 4428         //System.out.println("paint c");
// 4429         int i1 = getWidth();
// 4430         int j1 = getHeight();
// 4431         if(main.b_boolean_fld) {
// 4432             g.setColor(0x336666);
// 4433             g.fillRect(0, 0, i1, j1);
// 4434             main.b_boolean_fld = false;
// 4435         }
// 4436         if(fmessage!=null) {
// 4437           g.setColor(0xffffff);
// 4438           g.fillRect(0, 0, i1, j1);
// 4439           g.setColor(0);
// 4440           Font font = g.getFont();
// 4441           //g.drawString(s, i1 - font.stringWidth(s), j1 - font.getHeight(), 20);
// 4442           g.drawString(fmessage, 0, 0, 20);
// 4443           fmessage=null;
// 4444           return;
// 4445        }
// 4446             Image image = Image.createRGBImage(main.a_int_array1d_fld, main.a_int_fld, main.c_int_fld, false);
// 4447             g.drawImage(image, (i1 - main.a_int_fld)>>1, (j1 - main.c_int_fld)>>1, 20);
// 4448         if(main.f_boolean_static_fld && main.a_long_static_fld > 0L && c_long_static_fld > 0L && b_long_static_fld > 0L) {
// 4449             long l1 = (main.a_long_static_fld * 10000L) / (c_long_static_fld + b_long_static_fld);
// 4450             long l2 = (c_long_static_fld * 10L) / b_long_static_fld;
// 4451             g.setColor(0xffffff);
// 4452             g.drawString("FPS:" + l1 / 10L + "." + l1 % 10L + " R:" + l2 / 10L + "." + l2 % 10L, (i1 - main.a_int_fld) >>1, (j1 - main.c_int_fld) >>1, 20);
// 4453         }
// 4454     }
// 4455     
// 4456 void debug(char *s, int a, int b){
// 4457   new File().debugWrite("0:/vnes","\n"+s+"  "+Integer.toString(a)+" = "+Integer.toString(b));        
// 4458 }
// 4459 
// 4460 void savedebug(){
// 4461   File file=new File();
// 4462   int handle;
// 4463   try{
// 4464   handle=file.open("0:/vnes2");
// 4465   file.write(handle,vram,0,vram.length);
// 4466   file.close(handle);
// 4467   }catch(IOException ios){}
// 4468 }
// 4469 
// 4470 }
// 4471 */
// 4472 
// 4473 //////////38
// 4474     /*
// 4475 const char bmphead[]={
// 4476 "\x42\x4D\xC6\xB5\x00\x00\x00\x00\x00\x00\x36\x00\x00\x00\x28\x00"
// 4477 "\x00\x00\x84\x00\x00\x00\xB0\x00\x00\x00\x01\x00\x10\x00\x00\x00"
// 4478 "\x00\x00\x00\x00\x00\x00\x12\x0B\x00\x00\x12\x0B\x00\x00\x00\x00"
// 4479 "\x00\x00\x00\x00\x00\x00\x00\xF8\x00\x00\xE0\x07\x00\x00\x1F\x00"
// 4480 "\x00\x00\x00\x00\x00\x00"};
// 4481 
// 4482 void savescreen(char *fname){
// 4483   FILE *f;
// 4484   int i,j,k;
// 4485   int r,g,b;
// 4486   short scr[132*176], *ss=scr+132*176;
// 4487   int *s=main_a_int_array1d_fld;
// 4488   for(j=0;j<176;j++){
// 4489     for(i=0;i<132;i++){
// 4490       k=*s++;
// 4491       b=(k>>16)&0xff;
// 4492       g=(k>>8)&0xff;
// 4493       r=(k)&0xff;
// 4494       *--ss=(r>>3<<10)|(g>>3<<5)|(b>>3);
// 4495     }
// 4496     s+=256-132;
// 4497   }
// 4498   f=fopen(fname,"wb");
// 4499   fwrite(bmphead,sizeof(bmphead),1,f); 
// 4500   fwrite(scr,132*176*2,1,f); 
// 4501   fclose(f); 
// 4502 }
// 4503 */

        RSEG DATA_Z:DATA:SORT:NOROOT(2)
// 4504 int nshow=0;
nshow:
        DS8 4
// 4505 /*
// 4506 void repaint(){
// 4507   if(++nshow==200){
// 4508     printf("show ");
// 4509     //nshow=0;
// 4510     //savescreen("out.bmp");
// 4511     //abort();
// 4512   }
// 4513  //Image image = Image.createRGBImage(main.a_int_array1d_fld, main.a_int_fld, main.c_int_fld, false);
// 4514 }
// 4515 
// 4516 int main(int argc, char **argv){
// 4517   int i;
// 4518   if(argc<2){
// 4519     printf("No ROM!\n");
// 4520     return 1;
// 4521   }
// 4522   initnul();
// 4523   h();
// 4524   if(i=loadrom(*++argv)){
// 4525     printf("Error %d\n",i);
// 4526     return i;
// 4527   }
// 4528   run();
// 4529   return 0;
// 4530 }
// 4531 */
// 4532 

        RSEG CODE:CODE:NOROOT(2)
        CFI Block cfiBlock79 Using cfiCommon1
        CFI Function initnul
        ARM
// 4533 void initnul(){
initnul:
        PUSH     {R4,R5,LR}
        CFI ?RET Frame(CFA, -4)
        CFI R5 Frame(CFA, -8)
        CFI R4 Frame(CFA, -12)
        CFI CFA R13+12
// 4534   memset(d_byte_array1d_static_fld,0,256);
        LDR      R5,??DataTable68  ;; j_int_array1d_static_fld
        MOV      R4,#+2896
        MOV      R2,#+256
        MOV      R1,#+0
        ADD      R0,R4,R5
        SWI      +187
// 4535   memset(b_int_array1d_static_fld,0,8*4);
        MOV      R2,#+32
        MOV      R1,#+0
        SUB      R0,R4,#+456
        ADD      R0,R0,R5
        SWI      +187
// 4536   memset(j_int_array1d_static_fld,0,32*2);
        MOV      R2,#+64
        MOV      R1,#+0
        MOV      R0,R5
        SWI      +187
// 4537 memset(g_int_array1d_static_fld,0,64*2);
        MOV      R2,#+128
        MOV      R1,#+0
        ADD      R0,R5,#+64
        SWI      +187
// 4538 memset(e_int_array1d_static_fld,0,32*4);
        MOV      R2,#+128
        MOV      R1,#+0
        SUB      R0,R4,#+204
        ADD      R0,R0,R5
        SWI      +187
// 4539 memset(i_int_array1d_static_fld,0,12*4);
        MOV      R2,#+48
        MOV      R1,#+0
        SUB      R0,R4,#+504
        ADD      R0,R0,R5
        SWI      +187
// 4540 memset(l_int_array1d_static_fld,0,8*4);
        MOV      R2,#+32
        MOV      R1,#+0
        SUB      R0,R4,#+72
        ADD      R0,R0,R5
        SWI      +187
// 4541 memset(d_byte_array1d_static_fld,0,256);
        MOV      R2,#+256
        MOV      R1,#+0
        ADD      R0,R4,R5
        SWI      +187
// 4542 
// 4543 memset(c_int_array1d_static_fld,0,260*4);
        MOV      R2,#+1040
        MOV      R1,#+0
        ADD      R0,R5,#+1296
        SWI      +187
// 4544 memset(h_int_array1d_static_fld,0,276*4);
        MOV      R2,#+1104
        MOV      R1,#+0
        ADD      R0,R5,#+192
        SWI      +187
// 4545 memset(f_int_array1d_static_fld,0,276*4);
        LDR      R0,??DataTable69  ;; f_int_array1d_static_fld
        MOV      R2,#+1104
        MOV      R1,#+0
        SWI      +187
// 4546 memset(b_boolean_array1d_static_fld,0,260);
        MOV      R2,#+260
        MOV      R1,#+0
        ADD      R0,R5,#+3216
        SWI      +187
// 4547 memset(a_boolean_array1d_static_fld,0,276);
        MOV      R2,#+276
        MOV      R1,#+0
        ORR      R0,R2,#0xC80
        ADD      R0,R0,R5
        SWI      +187
// 4548   h();
        BL       h
// 4549 }
        POP      {R4,R5,PC}       ;; return
        CFI EndBlock cfiBlock79

        RSEG CODE:CODE:NOROOT(2)
        DATA
??DataTable68:
        DC32     j_int_array1d_static_fld

        RSEG CODE:CODE:NOROOT(2)
        DATA
??DataTable69:
        DC32     f_int_array1d_static_fld

        RSEG CODE:CODE:NOROOT(2)
        CFI Block cfiBlock80 Using cfiCommon0
        CFI NoFunction
        THUMB
??freeall??rT:
        BX       PC
        Nop      
        CFI EndBlock cfiBlock80
        REQUIRE freeall
// 4550 /*
// 4551 void savefile(char *fname, void *buf, int size){
// 4552   FILE *f;
// 4553   if(f=fopen(fname,"wb")){
// 4554     fwrite(buf,size,1,f);
// 4555     fclose(f);
// 4556   }
// 4557 }
// 4558 */
// 4559 void AudioTerminate();

        RSEG CODE:CODE:NOROOT(2)
        CFI Block cfiBlock81 Using cfiCommon1
        CFI Function freeall
        ARM
// 4560 void freeall(){
freeall:
        PUSH     {R4,LR}
        CFI ?RET Frame(CFA, -4)
        CFI R4 Frame(CFA, -8)
        CFI CFA R13+8
// 4561   if(a_char_array1d_static_fld) mfree(a_char_array1d_static_fld);
        LDR      R4,??DataTable70  ;; j_int_array1d_static_fld
        LDR      R0,[R4, #+2856]
        CMP      R0,#+0
        BEQ      ??freeall_0
        SWI      +21
// 4562   if(b_byte_array1d_static_fld) mfree(b_byte_array1d_static_fld);
??freeall_0:
        LDR      R0,[R4, #+3160]
        CMP      R0,#+0
        BEQ      ??freeall_1
        SWI      +21
// 4563   if(vram) mfree(vram);
??freeall_1:
        LDR      R0,[R4, #+2652]
        CMP      R0,#+0
        BEQ      ??freeall_2
        SWI      +21
// 4564   if(screens) mfree(screens);
??freeall_2:
        LDR      R0,[R4, #+3164]
        CMP      R0,#+0
        BEQ      ??freeall_3
        SWI      +21
// 4565   AudioTerminate();
??freeall_3:
        POP      {R4,LR}          ;; Pop
        CFI R4 SameValue
        CFI ?RET R14
        CFI CFA R13+0
        _BF      AudioTerminate,??AudioTerminate??rA  ;; tailcall
        CFI EndBlock cfiBlock81
// 4566 
// 4567 }

        RSEG CODE:CODE:NOROOT(2)
        DATA
??DataTable70:
        DC32     j_int_array1d_static_fld

        RSEG CODE:CODE:NOROOT(2)
        CFI Block cfiBlock82 Using cfiCommon1
        CFI NoFunction
        ARM
??rA??div32_a:
        LDR      R12,??Subroutine41_0  ;; ??div32_a
        MOV      PC,R12
        DATA
??Subroutine41_0:
        DC32     ??div32_a
        CFI EndBlock cfiBlock82

        RSEG CODE:CODE:NOROOT(2)
        CFI Block cfiBlock83 Using cfiCommon1
        CFI NoFunction
        ARM
??repaint??rA:
        LDR      R12,??Subroutine42_0  ;; repaint
        BX       R12
        DATA
??Subroutine42_0:
        DC32     repaint
        CFI EndBlock cfiBlock83

        RSEG CODE:CODE:NOROOT(2)
        CFI Block cfiBlock84 Using cfiCommon1
        CFI NoFunction
        ARM
??loadfile??rA:
        LDR      R12,??Subroutine43_0  ;; loadfile
        BX       R12
        DATA
??Subroutine43_0:
        DC32     loadfile
        CFI EndBlock cfiBlock84

        RSEG CODE:CODE:NOROOT(2)
        CFI Block cfiBlock85 Using cfiCommon1
        CFI NoFunction
        ARM
??APUWrite??rA:
        LDR      R12,??Subroutine44_0  ;; APUWrite
        BX       R12
        DATA
??Subroutine44_0:
        DC32     APUWrite
        CFI EndBlock cfiBlock85

        RSEG CODE:CODE:NOROOT(2)
        CFI Block cfiBlock86 Using cfiCommon1
        CFI NoFunction
        ARM
??AudioTerminate??rA:
        LDR      R12,??Subroutine45_0  ;; AudioTerminate
        BX       R12
        DATA
??Subroutine45_0:
        DC32     AudioTerminate
        CFI EndBlock cfiBlock86

        RSEG DATA_ID:CONST:SORT:NOROOT(2)
`?<Initializer for j_int_array1d_static_fld>`:
        DATA
        DC8 0, 0, 0, 0, 0, 0, 0, 0, 0, 0, 0, 0, 0, 0, 0, 0
        DC8 0, 0, 0, 0, 0, 0, 0, 0, 0, 0, 0, 0, 0, 0, 0, 0
        DC8 0, 0, 0, 0, 0, 0, 0, 0, 0, 0, 0, 0, 0, 0, 0, 0
        DC8 0, 0, 0, 0, 0, 0, 0, 0, 0, 0, 0, 0, 0, 0, 0, 0
`?<Initializer for g_int_array1d_static_fld>`:
        DC8 0, 0, 0, 0, 0, 0, 0, 0, 0, 0, 0, 0, 0, 0, 0, 0
        DC8 0, 0, 0, 0, 0, 0, 0, 0, 0, 0, 0, 0, 0, 0, 0, 0
        DC8 0, 0, 0, 0, 0, 0, 0, 0, 0, 0, 0, 0, 0, 0, 0, 0
        DC8 0, 0, 0, 0, 0, 0, 0, 0, 0, 0, 0, 0, 0, 0, 0, 0
        DC8 0, 0, 0, 0, 0, 0, 0, 0, 0, 0, 0, 0, 0, 0, 0, 0
        DC8 0, 0, 0, 0, 0, 0, 0, 0, 0, 0, 0, 0, 0, 0, 0, 0
        DC8 0, 0, 0, 0, 0, 0, 0, 0, 0, 0, 0, 0, 0, 0, 0, 0
        DC8 0, 0, 0, 0, 0, 0, 0, 0, 0, 0, 0, 0, 0, 0, 0, 0
`?<Initializer for h_int_array1d_static_fld>`:
        DC8 0, 0, 0, 0, 0, 0, 0, 0, 0, 0, 0, 0, 0, 0, 0, 0
        DC8 0, 0, 0, 0, 0, 0, 0, 0, 0, 0, 0, 0, 0, 0, 0, 0
        DC8 0, 0, 0, 0, 0, 0, 0, 0, 0, 0, 0, 0, 0, 0, 0, 0
        DC8 0, 0, 0, 0, 0, 0, 0, 0, 0, 0, 0, 0, 0, 0, 0, 0
        DC8 0, 0, 0, 0, 0, 0, 0, 0, 0, 0, 0, 0, 0, 0, 0, 0
        DC8 0, 0, 0, 0, 0, 0, 0, 0, 0, 0, 0, 0, 0, 0, 0, 0
        DC8 0, 0, 0, 0, 0, 0, 0, 0, 0, 0, 0, 0, 0, 0, 0, 0
        DC8 0, 0, 0, 0, 0, 0, 0, 0, 0, 0, 0, 0, 0, 0, 0, 0
        DC8 0, 0, 0, 0, 0, 0, 0, 0, 0, 0, 0, 0, 0, 0, 0, 0
        DC8 0, 0, 0, 0, 0, 0, 0, 0, 0, 0, 0, 0, 0, 0, 0, 0
        DC8 0, 0, 0, 0, 0, 0, 0, 0, 0, 0, 0, 0, 0, 0, 0, 0
        DC8 0, 0, 0, 0, 0, 0, 0, 0, 0, 0, 0, 0, 0, 0, 0, 0
        DC8 0, 0, 0, 0, 0, 0, 0, 0, 0, 0, 0, 0, 0, 0, 0, 0
        DC8 0, 0, 0, 0, 0, 0, 0, 0, 0, 0, 0, 0, 0, 0, 0, 0
        DC8 0, 0, 0, 0, 0, 0, 0, 0, 0, 0, 0, 0, 0, 0, 0, 0
        DC8 0, 0, 0, 0, 0, 0, 0, 0, 0, 0, 0, 0, 0, 0, 0, 0
        DC8 0, 0, 0, 0, 0, 0, 0, 0, 0, 0, 0, 0, 0, 0, 0, 0
        DC8 0, 0, 0, 0, 0, 0, 0, 0, 0, 0, 0, 0, 0, 0, 0, 0
        DC8 0, 0, 0, 0, 0, 0, 0, 0, 0, 0, 0, 0, 0, 0, 0, 0
        DC8 0, 0, 0, 0, 0, 0, 0, 0, 0, 0, 0, 0, 0, 0, 0, 0
        DC8 0, 0, 0, 0, 0, 0, 0, 0, 0, 0, 0, 0, 0, 0, 0, 0
        DC8 0, 0, 0, 0, 0, 0, 0, 0, 0, 0, 0, 0, 0, 0, 0, 0
        DC8 0, 0, 0, 0, 0, 0, 0, 0, 0, 0, 0, 0, 0, 0, 0, 0
        DC8 0, 0, 0, 0, 0, 0, 0, 0, 0, 0, 0, 0, 0, 0, 0, 0
        DC8 0, 0, 0, 0, 0, 0, 0, 0, 0, 0, 0, 0, 0, 0, 0, 0
        DC8 0, 0, 0, 0, 0, 0, 0, 0, 0, 0, 0, 0, 0, 0, 0, 0
        DC8 0, 0, 0, 0, 0, 0, 0, 0, 0, 0, 0, 0, 0, 0, 0, 0
        DC8 0, 0, 0, 0, 0, 0, 0, 0, 0, 0, 0, 0, 0, 0, 0, 0
        DC8 0, 0, 0, 0, 0, 0, 0, 0, 0, 0, 0, 0, 0, 0, 0, 0
        DC8 0, 0, 0, 0, 0, 0, 0, 0, 0, 0, 0, 0, 0, 0, 0, 0
        DC8 0, 0, 0, 0, 0, 0, 0, 0, 0, 0, 0, 0, 0, 0, 0, 0
        DC8 0, 0, 0, 0, 0, 0, 0, 0, 0, 0, 0, 0, 0, 0, 0, 0
        DC8 0, 0, 0, 0, 0, 0, 0, 0, 0, 0, 0, 0, 0, 0, 0, 0
        DC8 0, 0, 0, 0, 0, 0, 0, 0, 0, 0, 0, 0, 0, 0, 0, 0
        DC8 0, 0, 0, 0, 0, 0, 0, 0, 0, 0, 0, 0, 0, 0, 0, 0
        DC8 0, 0, 0, 0, 0, 0, 0, 0, 0, 0, 0, 0, 0, 0, 0, 0
        DC8 0, 0, 0, 0, 0, 0, 0, 0, 0, 0, 0, 0, 0, 0, 0, 0
        DC8 0, 0, 0, 0, 0, 0, 0, 0, 0, 0, 0, 0, 0, 0, 0, 0
        DC8 0, 0, 0, 0, 0, 0, 0, 0, 0, 0, 0, 0, 0, 0, 0, 0
        DC8 0, 0, 0, 0, 0, 0, 0, 0, 0, 0, 0, 0, 0, 0, 0, 0
        DC8 0, 0, 0, 0, 0, 0, 0, 0, 0, 0, 0, 0, 0, 0, 0, 0
        DC8 0, 0, 0, 0, 0, 0, 0, 0, 0, 0, 0, 0, 0, 0, 0, 0
        DC8 0, 0, 0, 0, 0, 0, 0, 0, 0, 0, 0, 0, 0, 0, 0, 0
        DC8 0, 0, 0, 0, 0, 0, 0, 0, 0, 0, 0, 0, 0, 0, 0, 0
        DC8 0, 0, 0, 0, 0, 0, 0, 0, 0, 0, 0, 0, 0, 0, 0, 0
        DC8 0, 0, 0, 0, 0, 0, 0, 0, 0, 0, 0, 0, 0, 0, 0, 0
        DC8 0, 0, 0, 0, 0, 0, 0, 0, 0, 0, 0, 0, 0, 0, 0, 0
        DC8 0, 0, 0, 0, 0, 0, 0, 0, 0, 0, 0, 0, 0, 0, 0, 0
        DC8 0, 0, 0, 0, 0, 0, 0, 0, 0, 0, 0, 0, 0, 0, 0, 0
        DC8 0, 0, 0, 0, 0, 0, 0, 0, 0, 0, 0, 0, 0, 0, 0, 0
        DC8 0, 0, 0, 0, 0, 0, 0, 0, 0, 0, 0, 0, 0, 0, 0, 0
        DC8 0, 0, 0, 0, 0, 0, 0, 0, 0, 0, 0, 0, 0, 0, 0, 0
        DC8 0, 0, 0, 0, 0, 0, 0, 0, 0, 0, 0, 0, 0, 0, 0, 0
        DC8 0, 0, 0, 0, 0, 0, 0, 0, 0, 0, 0, 0, 0, 0, 0, 0
        DC8 0, 0, 0, 0, 0, 0, 0, 0, 0, 0, 0, 0, 0, 0, 0, 0
        DC8 0, 0, 0, 0, 0, 0, 0, 0, 0, 0, 0, 0, 0, 0, 0, 0
        DC8 0, 0, 0, 0, 0, 0, 0, 0, 0, 0, 0, 0, 0, 0, 0, 0
        DC8 0, 0, 0, 0, 0, 0, 0, 0, 0, 0, 0, 0, 0, 0, 0, 0
        DC8 0, 0, 0, 0, 0, 0, 0, 0, 0, 0, 0, 0, 0, 0, 0, 0
        DC8 0, 0, 0, 0, 0, 0, 0, 0, 0, 0, 0, 0, 0, 0, 0, 0
        DC8 0, 0, 0, 0, 0, 0, 0, 0, 0, 0, 0, 0, 0, 0, 0, 0
        DC8 0, 0, 0, 0, 0, 0, 0, 0, 0, 0, 0, 0, 0, 0, 0, 0
        DC8 0, 0, 0, 0, 0, 0, 0, 0, 0, 0, 0, 0, 0, 0, 0, 0
        DC8 0, 0, 0, 0, 0, 0, 0, 0, 0, 0, 0, 0, 0, 0, 0, 0
        DC8 0, 0, 0, 0, 0, 0, 0, 0, 0, 0, 0, 0, 0, 0, 0, 0
        DC8 0, 0, 0, 0, 0, 0, 0, 0, 0, 0, 0, 0, 0, 0, 0, 0
        DC8 0, 0, 0, 0, 0, 0, 0, 0, 0, 0, 0, 0, 0, 0, 0, 0
        DC8 0, 0, 0, 0, 0, 0, 0, 0, 0, 0, 0, 0, 0, 0, 0, 0
        DC8 0, 0, 0, 0, 0, 0, 0, 0, 0, 0, 0, 0, 0, 0, 0, 0
`?<Initializer for c_int_array1d_static_fld>`:
        DC8 0, 0, 0, 0, 0, 0, 0, 0, 0, 0, 0, 0, 0, 0, 0, 0
        DC8 0, 0, 0, 0, 0, 0, 0, 0, 0, 0, 0, 0, 0, 0, 0, 0
        DC8 0, 0, 0, 0, 0, 0, 0, 0, 0, 0, 0, 0, 0, 0, 0, 0
        DC8 0, 0, 0, 0, 0, 0, 0, 0, 0, 0, 0, 0, 0, 0, 0, 0
        DC8 0, 0, 0, 0, 0, 0, 0, 0, 0, 0, 0, 0, 0, 0, 0, 0
        DC8 0, 0, 0, 0, 0, 0, 0, 0, 0, 0, 0, 0, 0, 0, 0, 0
        DC8 0, 0, 0, 0, 0, 0, 0, 0, 0, 0, 0, 0, 0, 0, 0, 0
        DC8 0, 0, 0, 0, 0, 0, 0, 0, 0, 0, 0, 0, 0, 0, 0, 0
        DC8 0, 0, 0, 0, 0, 0, 0, 0, 0, 0, 0, 0, 0, 0, 0, 0
        DC8 0, 0, 0, 0, 0, 0, 0, 0, 0, 0, 0, 0, 0, 0, 0, 0
        DC8 0, 0, 0, 0, 0, 0, 0, 0, 0, 0, 0, 0, 0, 0, 0, 0
        DC8 0, 0, 0, 0, 0, 0, 0, 0, 0, 0, 0, 0, 0, 0, 0, 0
        DC8 0, 0, 0, 0, 0, 0, 0, 0, 0, 0, 0, 0, 0, 0, 0, 0
        DC8 0, 0, 0, 0, 0, 0, 0, 0, 0, 0, 0, 0, 0, 0, 0, 0
        DC8 0, 0, 0, 0, 0, 0, 0, 0, 0, 0, 0, 0, 0, 0, 0, 0
        DC8 0, 0, 0, 0, 0, 0, 0, 0, 0, 0, 0, 0, 0, 0, 0, 0
        DC8 0, 0, 0, 0, 0, 0, 0, 0, 0, 0, 0, 0, 0, 0, 0, 0
        DC8 0, 0, 0, 0, 0, 0, 0, 0, 0, 0, 0, 0, 0, 0, 0, 0
        DC8 0, 0, 0, 0, 0, 0, 0, 0, 0, 0, 0, 0, 0, 0, 0, 0
        DC8 0, 0, 0, 0, 0, 0, 0, 0, 0, 0, 0, 0, 0, 0, 0, 0
        DC8 0, 0, 0, 0, 0, 0, 0, 0, 0, 0, 0, 0, 0, 0, 0, 0
        DC8 0, 0, 0, 0, 0, 0, 0, 0, 0, 0, 0, 0, 0, 0, 0, 0
        DC8 0, 0, 0, 0, 0, 0, 0, 0, 0, 0, 0, 0, 0, 0, 0, 0
        DC8 0, 0, 0, 0, 0, 0, 0, 0, 0, 0, 0, 0, 0, 0, 0, 0
        DC8 0, 0, 0, 0, 0, 0, 0, 0, 0, 0, 0, 0, 0, 0, 0, 0
        DC8 0, 0, 0, 0, 0, 0, 0, 0, 0, 0, 0, 0, 0, 0, 0, 0
        DC8 0, 0, 0, 0, 0, 0, 0, 0, 0, 0, 0, 0, 0, 0, 0, 0
        DC8 0, 0, 0, 0, 0, 0, 0, 0, 0, 0, 0, 0, 0, 0, 0, 0
        DC8 0, 0, 0, 0, 0, 0, 0, 0, 0, 0, 0, 0, 0, 0, 0, 0
        DC8 0, 0, 0, 0, 0, 0, 0, 0, 0, 0, 0, 0, 0, 0, 0, 0
        DC8 0, 0, 0, 0, 0, 0, 0, 0, 0, 0, 0, 0, 0, 0, 0, 0
        DC8 0, 0, 0, 0, 0, 0, 0, 0, 0, 0, 0, 0, 0, 0, 0, 0
        DC8 0, 0, 0, 0, 0, 0, 0, 0, 0, 0, 0, 0, 0, 0, 0, 0
        DC8 0, 0, 0, 0, 0, 0, 0, 0, 0, 0, 0, 0, 0, 0, 0, 0
        DC8 0, 0, 0, 0, 0, 0, 0, 0, 0, 0, 0, 0, 0, 0, 0, 0
        DC8 0, 0, 0, 0, 0, 0, 0, 0, 0, 0, 0, 0, 0, 0, 0, 0
        DC8 0, 0, 0, 0, 0, 0, 0, 0, 0, 0, 0, 0, 0, 0, 0, 0
        DC8 0, 0, 0, 0, 0, 0, 0, 0, 0, 0, 0, 0, 0, 0, 0, 0
        DC8 0, 0, 0, 0, 0, 0, 0, 0, 0, 0, 0, 0, 0, 0, 0, 0
        DC8 0, 0, 0, 0, 0, 0, 0, 0, 0, 0, 0, 0, 0, 0, 0, 0
        DC8 0, 0, 0, 0, 0, 0, 0, 0, 0, 0, 0, 0, 0, 0, 0, 0
        DC8 0, 0, 0, 0, 0, 0, 0, 0, 0, 0, 0, 0, 0, 0, 0, 0
        DC8 0, 0, 0, 0, 0, 0, 0, 0, 0, 0, 0, 0, 0, 0, 0, 0
        DC8 0, 0, 0, 0, 0, 0, 0, 0, 0, 0, 0, 0, 0, 0, 0, 0
        DC8 0, 0, 0, 0, 0, 0, 0, 0, 0, 0, 0, 0, 0, 0, 0, 0
        DC8 0, 0, 0, 0, 0, 0, 0, 0, 0, 0, 0, 0, 0, 0, 0, 0
        DC8 0, 0, 0, 0, 0, 0, 0, 0, 0, 0, 0, 0, 0, 0, 0, 0
        DC8 0, 0, 0, 0, 0, 0, 0, 0, 0, 0, 0, 0, 0, 0, 0, 0
        DC8 0, 0, 0, 0, 0, 0, 0, 0, 0, 0, 0, 0, 0, 0, 0, 0
        DC8 0, 0, 0, 0, 0, 0, 0, 0, 0, 0, 0, 0, 0, 0, 0, 0
        DC8 0, 0, 0, 0, 0, 0, 0, 0, 0, 0, 0, 0, 0, 0, 0, 0
        DC8 0, 0, 0, 0, 0, 0, 0, 0, 0, 0, 0, 0, 0, 0, 0, 0
        DC8 0, 0, 0, 0, 0, 0, 0, 0, 0, 0, 0, 0, 0, 0, 0, 0
        DC8 0, 0, 0, 0, 0, 0, 0, 0, 0, 0, 0, 0, 0, 0, 0, 0
        DC8 0, 0, 0, 0, 0, 0, 0, 0, 0, 0, 0, 0, 0, 0, 0, 0
        DC8 0, 0, 0, 0, 0, 0, 0, 0, 0, 0, 0, 0, 0, 0, 0, 0
        DC8 0, 0, 0, 0, 0, 0, 0, 0, 0, 0, 0, 0, 0, 0, 0, 0
        DC8 0, 0, 0, 0, 0, 0, 0, 0, 0, 0, 0, 0, 0, 0, 0, 0
        DC8 0, 0, 0, 0, 0, 0, 0, 0, 0, 0, 0, 0, 0, 0, 0, 0
        DC8 0, 0, 0, 0, 0, 0, 0, 0, 0, 0, 0, 0, 0, 0, 0, 0
        DC8 0, 0, 0, 0, 0, 0, 0, 0, 0, 0, 0, 0, 0, 0, 0, 0
        DC8 0, 0, 0, 0, 0, 0, 0, 0, 0, 0, 0, 0, 0, 0, 0, 0
        DC8 0, 0, 0, 0, 0, 0, 0, 0, 0, 0, 0, 0, 0, 0, 0, 0
        DC8 0, 0, 0, 0, 0, 0, 0, 0, 0, 0, 0, 0, 0, 0, 0, 0
        DC8 0, 0, 0, 0, 0, 0, 0, 0, 0, 0, 0, 0, 0, 0, 0, 0
`?<Initializer for key>`:
        DC32 50, 56, 52, 54, 49, 51, 53, 48, 55, 57, 35, 0, 0, 42
`?<Initializer for i_int_array1d_static_fld>`:
        DC8 0, 0, 0, 0, 0, 0, 0, 0, 0, 0, 0, 0, 0, 0, 0, 0
        DC8 0, 0, 0, 0, 0, 0, 0, 0, 0, 0, 0, 0, 0, 0, 0, 0
        DC8 0, 0, 0, 0, 0, 0, 0, 0, 0, 0, 0, 0, 0, 0, 0, 0
`?<Initializer for b_int_array1d_static_fld>`:
        DC8 0, 0, 0, 0, 0, 0, 0, 0, 0, 0, 0, 0, 0, 0, 0, 0
        DC8 0, 0, 0, 0, 0, 0, 0, 0, 0, 0, 0, 0, 0, 0, 0, 0
`?<Initializer for d_int_array1d_static_fld>`:
        DC8 0, 0, 0, 0, 0, 0, 0, 0, 0, 0, 0, 0, 0, 0, 0, 0
        DC8 0, 0, 0, 0, 0, 0, 0, 0, 0, 0, 0, 0, 0, 0, 0, 0
`?<Initializer for main_a_int_fld>`:
        DC8 0, 0, 0, 0
`?<Initializer for main_c_int_fld>`:
        DC8 0, 0, 0, 0
`?<Initializer for getWidth>`:
        DC32 132
`?<Initializer for getHeight>`:
        DC32 176
`?<Initializer for screen_length>`:
        DC32 23232
`?<Initializer for nn>`:
        DC8 0, 0, 0, 0
`?<Initializer for b_int_static_fld>`:
        DC32 128
`?<Initializer for Z>`:
        DC32 0
`?<Initializer for f_int_static_fld>`:
        DC32 0
`?<Initializer for n_int_static_fld>`:
        DC32 0
`?<Initializer for Q>`:
        DC32 0
`?<Initializer for w>`:
        DC32 0
`?<Initializer for P>`:
        DC8 0, 0, 0, 0
`?<Initializer for ad>`:
        DC8 0, 0, 0, 0
`?<Initializer for ab>`:
        DC32 0
`?<Initializer for S>`:
        DC32 0
`?<Initializer for R>`:
        DC32 0
`?<Initializer for o_int_static_fld>`:
        DC32 0
`?<Initializer for L>`:
        DC32 128
`?<Initializer for e_int_static_fld>`:
        DC32 0
`?<Initializer for H>`:
        DC32 0
`?<Initializer for O>`:
        DC32 0
`?<Initializer for g_int_static_fld>`:
        DC32 0
`?<Initializer for ac>`:
        DC32 0
`?<Initializer for N>`:
        DC32 0
`?<Initializer for s_int_static_fld>`:
        DC32 0
`?<Initializer for v_int_static_fld>`:
        DC32 0
`?<Initializer for B>`:
        DC32 100
`?<Initializer for aa>`:
        DC32 -1
`?<Initializer for I>`:
        DC32 0
`?<Initializer for F>`:
        DC32 0
`?<Initializer for k_int_static_fld>`:
        DC32 0
`?<Initializer for a_int_static_fld>`:
        DC32 0
`?<Initializer for X>`:
        DC32 0
`?<Initializer for y>`:
        DC32 0
`?<Initializer for D>`:
        DC32 0
`?<Initializer for c_int_static_fld>`:
        DC32 0
`?<Initializer for vram>`:
        DC32 0H
`?<Initializer for T>`:
        DC32 0
`?<Initializer for W>`:
        DC32 0
`?<Initializer for U>`:
        DC32 0
`?<Initializer for d_int_static_fld>`:
        DC32 0
`?<Initializer for m_int_static_fld>`:
        DC32 0
`?<Initializer for c_long_static_fld>`:
        DC8 0, 0, 0, 0
`?<Initializer for i_int_static_fld>`:
        DC32 0
`?<Initializer for K>`:
        DC32 -1
`?<Initializer for t_int_static_fld>`:
        DC32 -1
`?<Initializer for e_int_array1d_static_fld>`:
        DC8 0, 0, 0, 0, 0, 0, 0, 0, 0, 0, 0, 0, 0, 0, 0, 0
        DC8 0, 0, 0, 0, 0, 0, 0, 0, 0, 0, 0, 0, 0, 0, 0, 0
        DC8 0, 0, 0, 0, 0, 0, 0, 0, 0, 0, 0, 0, 0, 0, 0, 0
        DC8 0, 0, 0, 0, 0, 0, 0, 0, 0, 0, 0, 0, 0, 0, 0, 0
        DC8 0, 0, 0, 0, 0, 0, 0, 0, 0, 0, 0, 0, 0, 0, 0, 0
        DC8 0, 0, 0, 0, 0, 0, 0, 0, 0, 0, 0, 0, 0, 0, 0, 0
        DC8 0, 0, 0, 0, 0, 0, 0, 0, 0, 0, 0, 0, 0, 0, 0, 0
        DC8 0, 0, 0, 0, 0, 0, 0, 0, 0, 0, 0, 0, 0, 0, 0, 0
`?<Initializer for x>`:
        DC32 1
`?<Initializer for l_int_array1d_static_fld>`:
        DC8 0, 0, 0, 0, 0, 0, 0, 0, 0, 0, 0, 0, 0, 0, 0, 0
        DC8 0, 0, 0, 0, 0, 0, 0, 0, 0, 0, 0, 0, 0, 0, 0, 0
`?<Initializer for a_char_array1d_static_fld>`:
        DC32 0H
`?<Initializer for j_int_static_fld>`:
        DC32 0
`?<Initializer for q_int_static_fld>`:
        DC32 0
`?<Initializer for E>`:
        DC32 0
`?<Initializer for G>`:
        DC32 0
`?<Initializer for J>`:
        DC32 1
`?<Initializer for Y>`:
        DC32 0
`?<Initializer for A>`:
        DC32 5
`?<Initializer for V>`:
        DC32 4
`?<Initializer for p_int_static_fld>`:
        DC32 0
`?<Initializer for d_byte_array1d_static_fld>`:
        DC8 0, 0, 0, 0, 0, 0, 0, 0, 0, 0, 0, 0, 0, 0, 0, 0
        DC8 0, 0, 0, 0, 0, 0, 0, 0, 0, 0, 0, 0, 0, 0, 0, 0
        DC8 0, 0, 0, 0, 0, 0, 0, 0, 0, 0, 0, 0, 0, 0, 0, 0
        DC8 0, 0, 0, 0, 0, 0, 0, 0, 0, 0, 0, 0, 0, 0, 0, 0
        DC8 0, 0, 0, 0, 0, 0, 0, 0, 0, 0, 0, 0, 0, 0, 0, 0
        DC8 0, 0, 0, 0, 0, 0, 0, 0, 0, 0, 0, 0, 0, 0, 0, 0
        DC8 0, 0, 0, 0, 0, 0, 0, 0, 0, 0, 0, 0, 0, 0, 0, 0
        DC8 0, 0, 0, 0, 0, 0, 0, 0, 0, 0, 0, 0, 0, 0, 0, 0
        DC8 0, 0, 0, 0, 0, 0, 0, 0, 0, 0, 0, 0, 0, 0, 0, 0
        DC8 0, 0, 0, 0, 0, 0, 0, 0, 0, 0, 0, 0, 0, 0, 0, 0
        DC8 0, 0, 0, 0, 0, 0, 0, 0, 0, 0, 0, 0, 0, 0, 0, 0
        DC8 0, 0, 0, 0, 0, 0, 0, 0, 0, 0, 0, 0, 0, 0, 0, 0
        DC8 0, 0, 0, 0, 0, 0, 0, 0, 0, 0, 0, 0, 0, 0, 0, 0
        DC8 0, 0, 0, 0, 0, 0, 0, 0, 0, 0, 0, 0, 0, 0, 0, 0
        DC8 0, 0, 0, 0, 0, 0, 0, 0, 0, 0, 0, 0, 0, 0, 0, 0
        DC8 0, 0, 0, 0, 0, 0, 0, 0, 0, 0, 0, 0, 0, 0, 0, 0
`?<Initializer for C>`:
        DC32 0
`?<Initializer for a_long_static_fld>`:
        DC32 0
`?<Initializer for b_byte_array1d_static_fld>`:
        DC32 0H
`?<Initializer for screens>`:
        DC32 0H
`?<Initializer for h_int_static_fld>`:
        DC8 0, 0, 0, 0
`?<Initializer for r_int_static_fld>`:
        DC8 0, 0, 0, 0
`?<Initializer for l_int_static_fld>`:
        DC32 -1
`?<Initializer for M>`:
        DC32 0
`?<Initializer for ram>`:
        DC32 0
`?<Initializer for ramsize>`:
        DC32 0
`?<Initializer for keyindex>`:
        DC32 -1
`?<Initializer for main_b_boolean_fld>`:
        DC8 0
`?<Initializer for q_boolean_static_fld>`:
        DC8 1
`?<Initializer for r_boolean_static_fld>`:
        DC8 0
`?<Initializer for i_boolean_static_fld>`:
        DC8 0
`?<Initializer for e_boolean_static_fld>`:
        DC8 0
`?<Initializer for o_boolean_static_fld>`:
        DC8 0
`?<Initializer for f_boolean_static_fld>`:
        DC8 0
`?<Initializer for g_boolean_static_fld>`:
        DC8 0
`?<Initializer for t_boolean_static_fld>`:
        DC8 1
`?<Initializer for p_boolean_static_fld>`:
        DC8 0
`?<Initializer for b_boolean_static_fld>`:
        DC8 0
`?<Initializer for v_boolean_static_fld>`:
        DC8 0
`?<Initializer for h_boolean_static_fld>`:
        DC8 0
`?<Initializer for d_boolean_static_fld>`:
        DC8 0
`?<Initializer for n_boolean_static_fld>`:
        DC8 0
`?<Initializer for c_boolean_static_fld>`:
        DC8 0
`?<Initializer for l_boolean_static_fld>`:
        DC8 0
`?<Initializer for j_boolean_static_fld>`:
        DC8 0
        DC8 0, 0
`?<Initializer for b_boolean_array1d_static_fld`:
        DC8 0, 0, 0, 0, 0, 0, 0, 0, 0, 0, 0, 0, 0, 0, 0, 0
        DC8 0, 0, 0, 0, 0, 0, 0, 0, 0, 0, 0, 0, 0, 0, 0, 0
        DC8 0, 0, 0, 0, 0, 0, 0, 0, 0, 0, 0, 0, 0, 0, 0, 0
        DC8 0, 0, 0, 0, 0, 0, 0, 0, 0, 0, 0, 0, 0, 0, 0, 0
        DC8 0, 0, 0, 0, 0, 0, 0, 0, 0, 0, 0, 0, 0, 0, 0, 0
        DC8 0, 0, 0, 0, 0, 0, 0, 0, 0, 0, 0, 0, 0, 0, 0, 0
        DC8 0, 0, 0, 0, 0, 0, 0, 0, 0, 0, 0, 0, 0, 0, 0, 0
        DC8 0, 0, 0, 0, 0, 0, 0, 0, 0, 0, 0, 0, 0, 0, 0, 0
        DC8 0, 0, 0, 0, 0, 0, 0, 0, 0, 0, 0, 0, 0, 0, 0, 0
        DC8 0, 0, 0, 0, 0, 0, 0, 0, 0, 0, 0, 0, 0, 0, 0, 0
        DC8 0, 0, 0, 0, 0, 0, 0, 0, 0, 0, 0, 0, 0, 0, 0, 0
        DC8 0, 0, 0, 0, 0, 0, 0, 0, 0, 0, 0, 0, 0, 0, 0, 0
        DC8 0, 0, 0, 0, 0, 0, 0, 0, 0, 0, 0, 0, 0, 0, 0, 0
        DC8 0, 0, 0, 0, 0, 0, 0, 0, 0, 0, 0, 0, 0, 0, 0, 0
        DC8 0, 0, 0, 0, 0, 0, 0, 0, 0, 0, 0, 0, 0, 0, 0, 0
        DC8 0, 0, 0, 0, 0, 0, 0, 0, 0, 0, 0, 0, 0, 0, 0, 0, 0, 0, 0, 0
`?<Initializer for a_boolean_array1d_static_fld`:
        DC8 0, 0, 0, 0, 0, 0, 0, 0, 0, 0, 0, 0, 0, 0, 0, 0
        DC8 0, 0, 0, 0, 0, 0, 0, 0, 0, 0, 0, 0, 0, 0, 0, 0
        DC8 0, 0, 0, 0, 0, 0, 0, 0, 0, 0, 0, 0, 0, 0, 0, 0
        DC8 0, 0, 0, 0, 0, 0, 0, 0, 0, 0, 0, 0, 0, 0, 0, 0
        DC8 0, 0, 0, 0, 0, 0, 0, 0, 0, 0, 0, 0, 0, 0, 0, 0
        DC8 0, 0, 0, 0, 0, 0, 0, 0, 0, 0, 0, 0, 0, 0, 0, 0
        DC8 0, 0, 0, 0, 0, 0, 0, 0, 0, 0, 0, 0, 0, 0, 0, 0
        DC8 0, 0, 0, 0, 0, 0, 0, 0, 0, 0, 0, 0, 0, 0, 0, 0
        DC8 0, 0, 0, 0, 0, 0, 0, 0, 0, 0, 0, 0, 0, 0, 0, 0
        DC8 0, 0, 0, 0, 0, 0, 0, 0, 0, 0, 0, 0, 0, 0, 0, 0
        DC8 0, 0, 0, 0, 0, 0, 0, 0, 0, 0, 0, 0, 0, 0, 0, 0
        DC8 0, 0, 0, 0, 0, 0, 0, 0, 0, 0, 0, 0, 0, 0, 0, 0
        DC8 0, 0, 0, 0, 0, 0, 0, 0, 0, 0, 0, 0, 0, 0, 0, 0
        DC8 0, 0, 0, 0, 0, 0, 0, 0, 0, 0, 0, 0, 0, 0, 0, 0
        DC8 0, 0, 0, 0, 0, 0, 0, 0, 0, 0, 0, 0, 0, 0, 0, 0
        DC8 0, 0, 0, 0, 0, 0, 0, 0, 0, 0, 0, 0, 0, 0, 0, 0
        DC8 0, 0, 0, 0, 0, 0, 0, 0, 0, 0, 0, 0, 0, 0, 0, 0, 0, 0, 0, 0

        RSEG DATA_ID:CONST:SORT:NOROOT(2)
`?<Initializer for ebuf>`:
        DATA
        DC32 sbuf
`?<Initializer for stream>`:
        DC8 0, 0, 0, 0
`?<Initializer for streammode>`:
        DC8 0, 0, 0, 0
`?<Initializer for sbuf>`:
        DC8 0, 0, 0, 0, 0, 0, 0, 0, 0, 0, 0, 0, 0, 0, 0, 0
        DC8 0, 0, 0, 0, 0, 0, 0, 0, 0, 0, 0, 0, 0, 0, 0, 0
        DC8 0, 0, 0, 0, 0, 0, 0, 0, 0, 0, 0, 0, 0, 0, 0, 0
        DC8 0, 0, 0, 0, 0, 0, 0, 0, 0, 0, 0, 0, 0, 0, 0, 0
        DC8 0, 0, 0, 0, 0, 0, 0, 0, 0, 0, 0, 0, 0, 0, 0, 0
        DC8 0, 0, 0, 0, 0, 0, 0, 0, 0, 0, 0, 0, 0, 0, 0, 0
        DC8 0, 0, 0, 0, 0, 0, 0, 0, 0, 0, 0, 0, 0, 0, 0, 0
        DC8 0, 0, 0, 0, 0, 0, 0, 0, 0, 0, 0, 0, 0, 0, 0, 0
        DC8 0, 0, 0, 0, 0, 0, 0, 0, 0, 0, 0, 0, 0, 0, 0, 0
        DC8 0, 0, 0, 0, 0, 0, 0, 0, 0, 0, 0, 0, 0, 0, 0, 0
        DC8 0, 0, 0, 0, 0, 0, 0, 0, 0, 0, 0, 0, 0, 0, 0, 0
        DC8 0, 0, 0, 0, 0, 0, 0, 0, 0, 0, 0, 0, 0, 0, 0, 0
        DC8 0, 0, 0, 0, 0, 0, 0, 0, 0, 0, 0, 0, 0, 0, 0, 0
        DC8 0, 0, 0, 0, 0, 0, 0, 0, 0, 0, 0, 0, 0, 0, 0, 0
        DC8 0, 0, 0, 0, 0, 0, 0, 0, 0, 0, 0, 0, 0, 0, 0, 0
        DC8 0, 0, 0, 0, 0, 0, 0, 0, 0, 0, 0, 0, 0, 0, 0, 0
        DC8 0, 0, 0, 0, 0, 0, 0, 0, 0, 0, 0, 0, 0, 0, 0, 0
        DC8 0, 0, 0, 0, 0, 0, 0, 0, 0, 0, 0, 0, 0, 0, 0, 0
        DC8 0, 0, 0, 0, 0, 0, 0, 0, 0, 0, 0, 0, 0, 0, 0, 0
        DC8 0, 0, 0, 0, 0, 0, 0, 0, 0, 0, 0, 0, 0, 0, 0, 0
        DC8 0, 0, 0, 0, 0, 0, 0, 0, 0, 0, 0, 0, 0, 0, 0, 0
        DC8 0, 0, 0, 0, 0, 0, 0, 0, 0, 0, 0, 0, 0, 0, 0, 0
        DC8 0, 0, 0, 0, 0, 0, 0, 0, 0, 0, 0, 0, 0, 0, 0, 0
        DC8 0, 0, 0, 0, 0, 0, 0, 0, 0, 0, 0, 0, 0, 0, 0, 0
        DC8 0, 0, 0, 0, 0, 0, 0, 0, 0, 0, 0, 0, 0, 0, 0, 0
        DC8 0, 0, 0, 0, 0, 0, 0, 0, 0, 0, 0, 0, 0, 0, 0, 0
        DC8 0, 0, 0, 0, 0, 0, 0, 0, 0, 0, 0, 0, 0, 0, 0, 0
        DC8 0, 0, 0, 0, 0, 0, 0, 0, 0, 0, 0, 0, 0, 0, 0, 0
        DC8 0, 0, 0, 0, 0, 0, 0, 0, 0, 0, 0, 0, 0, 0, 0, 0
        DC8 0, 0, 0, 0, 0, 0, 0, 0, 0, 0, 0, 0, 0, 0, 0, 0
        DC8 0, 0, 0, 0, 0, 0, 0, 0, 0, 0, 0, 0, 0, 0, 0, 0
        DC8 0, 0, 0, 0, 0, 0, 0, 0, 0, 0, 0, 0, 0, 0, 0, 0
        DC8 0, 0, 0, 0, 0, 0, 0, 0, 0, 0, 0, 0, 0, 0, 0, 0
        DC8 0, 0, 0, 0, 0, 0, 0, 0, 0, 0, 0, 0, 0, 0, 0, 0
        DC8 0, 0, 0, 0, 0, 0, 0, 0, 0, 0, 0, 0, 0, 0, 0, 0
        DC8 0, 0, 0, 0, 0, 0, 0, 0, 0, 0, 0, 0, 0, 0, 0, 0
        DC8 0, 0, 0, 0, 0, 0, 0, 0, 0, 0, 0, 0, 0, 0, 0, 0
        DC8 0, 0, 0, 0, 0, 0, 0, 0, 0, 0, 0, 0, 0, 0, 0, 0
        DC8 0, 0, 0, 0, 0, 0, 0, 0, 0, 0, 0, 0, 0, 0, 0, 0
        DC8 0, 0, 0, 0, 0, 0, 0, 0, 0, 0, 0, 0, 0, 0, 0, 0
        DC8 0, 0, 0, 0, 0, 0, 0, 0, 0, 0, 0, 0, 0, 0, 0, 0
        DC8 0, 0, 0, 0, 0, 0, 0, 0, 0, 0, 0, 0, 0, 0, 0, 0
        DC8 0, 0, 0, 0, 0, 0, 0, 0, 0, 0, 0, 0, 0, 0, 0, 0
        DC8 0, 0, 0, 0, 0, 0, 0, 0, 0, 0, 0, 0, 0, 0, 0, 0
        DC8 0, 0, 0, 0, 0, 0, 0, 0, 0, 0, 0, 0, 0, 0, 0, 0
        DC8 0, 0, 0, 0, 0, 0, 0, 0, 0, 0, 0, 0, 0, 0, 0, 0
        DC8 0, 0, 0, 0, 0, 0, 0, 0, 0, 0, 0, 0, 0, 0, 0, 0
        DC8 0, 0, 0, 0, 0, 0, 0, 0, 0, 0, 0, 0, 0, 0, 0, 0
        DC8 0, 0, 0, 0, 0, 0, 0, 0, 0, 0, 0, 0, 0, 0, 0, 0
        DC8 0, 0, 0, 0, 0, 0, 0, 0, 0, 0, 0, 0, 0, 0, 0, 0
        DC8 0, 0, 0, 0, 0, 0, 0, 0, 0, 0, 0, 0, 0, 0, 0, 0
        DC8 0, 0, 0, 0, 0, 0, 0, 0, 0, 0, 0, 0, 0, 0, 0, 0
        DC8 0, 0, 0, 0, 0, 0, 0, 0, 0, 0, 0, 0, 0, 0, 0, 0
        DC8 0, 0, 0, 0, 0, 0, 0, 0, 0, 0, 0, 0, 0, 0, 0, 0
        DC8 0, 0, 0, 0, 0, 0, 0, 0, 0, 0, 0, 0, 0, 0, 0, 0
        DC8 0, 0, 0, 0, 0, 0, 0, 0, 0, 0, 0, 0, 0, 0, 0, 0
        DC8 0, 0, 0, 0, 0, 0, 0, 0, 0, 0, 0, 0, 0, 0, 0, 0
        DC8 0, 0, 0, 0, 0, 0, 0, 0, 0, 0, 0, 0, 0, 0, 0, 0
        DC8 0, 0, 0, 0, 0, 0, 0, 0, 0, 0, 0, 0, 0, 0, 0, 0
        DC8 0, 0, 0, 0, 0, 0, 0, 0, 0, 0, 0, 0, 0, 0, 0, 0
        DC8 0, 0, 0, 0, 0, 0, 0, 0, 0, 0, 0, 0, 0, 0, 0, 0
        DC8 0, 0, 0, 0, 0, 0, 0, 0, 0, 0, 0, 0, 0, 0, 0, 0
        DC8 0, 0, 0, 0, 0, 0, 0, 0, 0, 0, 0, 0, 0, 0, 0, 0
        DC8 0, 0, 0, 0, 0, 0, 0, 0, 0, 0, 0, 0, 0, 0, 0, 0
        DC8 0, 0, 0, 0, 0, 0, 0, 0, 0, 0, 0, 0, 0, 0, 0, 0
        DC8 0, 0, 0, 0, 0, 0, 0, 0, 0, 0, 0, 0, 0, 0, 0, 0
        DC8 0, 0, 0, 0, 0, 0, 0, 0, 0, 0, 0, 0, 0, 0, 0, 0
        DC8 0, 0, 0, 0, 0, 0, 0, 0, 0, 0, 0, 0, 0, 0, 0, 0
        DC8 0, 0, 0, 0, 0, 0, 0, 0, 0, 0, 0, 0, 0, 0, 0, 0
        DC8 0, 0, 0, 0, 0, 0, 0, 0, 0, 0, 0, 0, 0, 0, 0, 0
        DC8 0, 0, 0, 0, 0, 0, 0, 0, 0, 0, 0, 0, 0, 0, 0, 0
        DC8 0, 0, 0, 0, 0, 0, 0, 0, 0, 0, 0, 0, 0, 0, 0, 0
        DC8 0, 0, 0, 0, 0, 0, 0, 0, 0, 0, 0, 0, 0, 0, 0, 0
        DC8 0, 0, 0, 0, 0, 0, 0, 0, 0, 0, 0, 0, 0, 0, 0, 0
        DC8 0, 0, 0, 0, 0, 0, 0, 0, 0, 0, 0, 0, 0, 0, 0, 0
        DC8 0, 0, 0, 0, 0, 0, 0, 0, 0, 0, 0, 0, 0, 0, 0, 0
        DC8 0, 0, 0, 0, 0, 0, 0, 0, 0, 0, 0, 0, 0, 0, 0, 0
        DC8 0, 0, 0, 0, 0, 0, 0, 0, 0, 0, 0, 0, 0, 0, 0, 0
        DC8 0, 0, 0, 0, 0, 0, 0, 0, 0, 0, 0, 0, 0, 0, 0, 0
        DC8 0, 0, 0, 0, 0, 0, 0, 0, 0, 0, 0, 0, 0, 0, 0, 0
        DC8 0, 0, 0, 0, 0, 0, 0, 0, 0, 0, 0, 0, 0, 0, 0, 0
        DC8 0, 0, 0, 0, 0, 0, 0, 0, 0, 0, 0, 0, 0, 0, 0, 0
        DC8 0, 0, 0, 0, 0, 0, 0, 0, 0, 0, 0, 0, 0, 0, 0, 0
        DC8 0, 0, 0, 0, 0, 0, 0, 0, 0, 0, 0, 0, 0, 0, 0, 0
        DC8 0, 0, 0, 0, 0, 0, 0, 0, 0, 0, 0, 0, 0, 0, 0, 0
        DC8 0, 0, 0, 0, 0, 0, 0, 0, 0, 0, 0, 0, 0, 0, 0, 0
        DC8 0, 0, 0, 0, 0, 0, 0, 0, 0, 0, 0, 0, 0, 0, 0, 0
        DC8 0, 0, 0, 0, 0, 0, 0, 0, 0, 0, 0, 0, 0, 0, 0, 0
        DC8 0, 0, 0, 0, 0, 0, 0, 0, 0, 0, 0, 0, 0, 0, 0, 0
        DC8 0, 0, 0, 0, 0, 0, 0, 0, 0, 0, 0, 0, 0, 0, 0, 0
        DC8 0, 0, 0, 0, 0, 0, 0, 0, 0, 0, 0, 0, 0, 0, 0, 0
        DC8 0, 0, 0, 0, 0, 0, 0, 0, 0, 0, 0, 0, 0, 0, 0, 0
        DC8 0, 0, 0, 0, 0, 0, 0, 0, 0, 0, 0, 0, 0, 0, 0, 0
        DC8 0, 0, 0, 0, 0, 0, 0, 0, 0, 0, 0, 0, 0, 0, 0, 0
        DC8 0, 0, 0, 0, 0, 0, 0, 0, 0, 0, 0, 0, 0, 0, 0, 0
        DC8 0, 0, 0, 0, 0, 0, 0, 0, 0, 0, 0, 0, 0, 0, 0, 0
        DC8 0, 0, 0, 0, 0, 0, 0, 0, 0, 0, 0, 0, 0, 0, 0, 0
        DC8 0, 0, 0, 0, 0, 0, 0, 0, 0, 0, 0, 0, 0, 0, 0, 0
        DC8 0, 0, 0, 0, 0, 0, 0, 0, 0, 0, 0, 0, 0, 0, 0, 0
        DC8 0, 0, 0, 0, 0, 0, 0, 0, 0, 0, 0, 0, 0, 0, 0, 0
        DC8 0, 0, 0, 0, 0, 0, 0, 0, 0, 0, 0, 0, 0, 0, 0, 0
        DC8 0, 0, 0, 0, 0, 0, 0, 0, 0, 0, 0, 0, 0, 0, 0, 0
        DC8 0, 0, 0, 0, 0, 0, 0, 0, 0, 0, 0, 0, 0, 0, 0, 0
        DC8 0, 0, 0, 0, 0, 0, 0, 0, 0, 0, 0, 0, 0, 0, 0, 0
        DC8 0, 0, 0, 0, 0, 0, 0, 0, 0, 0, 0, 0, 0, 0, 0, 0
        DC8 0, 0, 0, 0, 0, 0, 0, 0, 0, 0, 0, 0, 0, 0, 0, 0
        DC8 0, 0, 0, 0, 0, 0, 0, 0, 0, 0, 0, 0, 0, 0, 0, 0
        DC8 0, 0, 0, 0, 0, 0, 0, 0, 0, 0, 0, 0, 0, 0, 0, 0
        DC8 0, 0, 0, 0, 0, 0, 0, 0, 0, 0, 0, 0, 0, 0, 0, 0
        DC8 0, 0, 0, 0, 0, 0, 0, 0, 0, 0, 0, 0, 0, 0, 0, 0
        DC8 0, 0, 0, 0, 0, 0, 0, 0, 0, 0, 0, 0, 0, 0, 0, 0
        DC8 0, 0, 0, 0, 0, 0, 0, 0, 0, 0, 0, 0, 0, 0, 0, 0
        DC8 0, 0, 0, 0, 0, 0, 0, 0, 0, 0, 0, 0, 0, 0, 0, 0
        DC8 0, 0, 0, 0, 0, 0, 0, 0, 0, 0, 0, 0, 0, 0, 0, 0
        DC8 0, 0, 0, 0, 0, 0, 0, 0, 0, 0, 0, 0, 0, 0, 0, 0
        DC8 0, 0, 0, 0, 0, 0, 0, 0, 0, 0, 0, 0, 0, 0, 0, 0
        DC8 0, 0, 0, 0, 0, 0, 0, 0, 0, 0, 0, 0, 0, 0, 0, 0
        DC8 0, 0, 0, 0, 0, 0, 0, 0, 0, 0, 0, 0, 0, 0, 0, 0
        DC8 0, 0, 0, 0, 0, 0, 0, 0, 0, 0, 0, 0, 0, 0, 0, 0
        DC8 0, 0, 0, 0, 0, 0, 0, 0, 0, 0, 0, 0, 0, 0, 0, 0
        DC8 0, 0, 0, 0, 0, 0, 0, 0, 0, 0, 0, 0, 0, 0, 0, 0
        DC8 0, 0, 0, 0, 0, 0, 0, 0, 0, 0, 0, 0, 0, 0, 0, 0
        DC8 0, 0, 0, 0, 0, 0, 0, 0, 0, 0, 0, 0, 0, 0, 0, 0
        DC8 0, 0, 0, 0, 0, 0, 0, 0, 0, 0, 0, 0, 0, 0, 0, 0
        DC8 0, 0, 0, 0, 0, 0, 0, 0, 0, 0, 0, 0, 0, 0, 0, 0
        DC8 0, 0, 0, 0, 0, 0, 0, 0, 0, 0, 0, 0, 0, 0, 0, 0
        DC8 0, 0, 0, 0, 0, 0, 0, 0, 0, 0, 0, 0, 0, 0, 0, 0
        DC8 0, 0, 0, 0, 0, 0, 0, 0, 0, 0, 0, 0, 0, 0, 0, 0
        DC8 0, 0, 0, 0, 0, 0, 0, 0, 0, 0, 0, 0, 0, 0, 0, 0
        DC8 0, 0, 0, 0, 0, 0, 0, 0, 0, 0, 0, 0, 0, 0, 0, 0
        DC8 0, 0, 0, 0, 0, 0, 0, 0, 0, 0, 0, 0, 0, 0, 0, 0
        DC8 0, 0, 0, 0, 0, 0, 0, 0, 0, 0, 0, 0, 0, 0, 0, 0
        DC8 0, 0, 0, 0, 0, 0, 0, 0, 0, 0, 0, 0, 0, 0, 0, 0
        DC8 0, 0, 0, 0, 0, 0, 0, 0, 0, 0, 0, 0, 0, 0, 0, 0
        DC8 0, 0, 0, 0, 0, 0, 0, 0, 0, 0, 0, 0, 0, 0, 0, 0
        DC8 0, 0, 0, 0, 0, 0, 0, 0, 0, 0, 0, 0, 0, 0, 0, 0
        DC8 0, 0, 0, 0, 0, 0, 0, 0, 0, 0, 0, 0, 0, 0, 0, 0
        DC8 0, 0, 0, 0, 0, 0, 0, 0, 0, 0, 0, 0, 0, 0, 0, 0
        DC8 0, 0, 0, 0, 0, 0, 0, 0, 0, 0, 0, 0, 0, 0, 0, 0
        DC8 0, 0, 0, 0, 0, 0, 0, 0, 0, 0, 0, 0, 0, 0, 0, 0
        DC8 0, 0, 0, 0, 0, 0, 0, 0, 0, 0, 0, 0, 0, 0, 0, 0
        DC8 0, 0, 0, 0, 0, 0, 0, 0, 0, 0, 0, 0, 0, 0, 0, 0
        DC8 0, 0, 0, 0, 0, 0, 0, 0, 0, 0, 0, 0, 0, 0, 0, 0
        DC8 0, 0, 0, 0, 0, 0, 0, 0, 0, 0, 0, 0, 0, 0, 0, 0
        DC8 0, 0, 0, 0, 0, 0, 0, 0, 0, 0, 0, 0, 0, 0, 0, 0
        DC8 0, 0, 0, 0, 0, 0, 0, 0, 0, 0, 0, 0, 0, 0, 0, 0
        DC8 0, 0, 0, 0, 0, 0, 0, 0, 0, 0, 0, 0, 0, 0, 0, 0
        DC8 0, 0, 0, 0, 0, 0, 0, 0, 0, 0, 0, 0, 0, 0, 0, 0
        DC8 0, 0, 0, 0, 0, 0, 0, 0, 0, 0, 0, 0, 0, 0, 0, 0
        DC8 0, 0, 0, 0, 0, 0, 0, 0, 0, 0, 0, 0, 0, 0, 0, 0
        DC8 0, 0, 0, 0, 0, 0, 0, 0, 0, 0, 0, 0, 0, 0, 0, 0
        DC8 0, 0, 0, 0, 0, 0, 0, 0, 0, 0, 0, 0, 0, 0, 0, 0
        DC8 0, 0, 0, 0, 0, 0, 0, 0, 0, 0, 0, 0, 0, 0, 0, 0
        DC8 0, 0, 0, 0, 0, 0, 0, 0, 0, 0, 0, 0, 0, 0, 0, 0
        DC8 0, 0, 0, 0, 0, 0, 0, 0, 0, 0, 0, 0, 0, 0, 0, 0
        DC8 0, 0, 0, 0, 0, 0, 0, 0, 0, 0, 0, 0, 0, 0, 0, 0
        DC8 0, 0, 0, 0, 0, 0, 0, 0, 0, 0, 0, 0, 0, 0, 0, 0
        DC8 0, 0, 0, 0, 0, 0, 0, 0, 0, 0, 0, 0, 0, 0, 0, 0
        DC8 0, 0, 0, 0, 0, 0, 0, 0, 0, 0, 0, 0, 0, 0, 0, 0
        DC8 0, 0, 0, 0, 0, 0, 0, 0, 0, 0, 0, 0, 0, 0, 0, 0
        DC8 0, 0, 0, 0, 0, 0, 0, 0, 0, 0, 0, 0, 0, 0, 0, 0
        DC8 0, 0, 0, 0, 0, 0, 0, 0, 0, 0, 0, 0, 0, 0, 0, 0
        DC8 0, 0, 0, 0, 0, 0, 0, 0, 0, 0, 0, 0, 0, 0, 0, 0
        DC8 0, 0, 0, 0, 0, 0, 0, 0, 0, 0, 0, 0, 0, 0, 0, 0
        DC8 0, 0, 0, 0, 0, 0, 0, 0, 0, 0, 0, 0, 0, 0, 0, 0
        DC8 0, 0, 0, 0, 0, 0, 0, 0, 0, 0, 0, 0, 0, 0, 0, 0
        DC8 0, 0, 0, 0, 0, 0, 0, 0, 0, 0, 0, 0, 0, 0, 0, 0
        DC8 0, 0, 0, 0, 0, 0, 0, 0, 0, 0, 0, 0, 0, 0, 0, 0
        DC8 0, 0, 0, 0, 0, 0, 0, 0, 0, 0, 0, 0, 0, 0, 0, 0
        DC8 0, 0, 0, 0, 0, 0, 0, 0, 0, 0, 0, 0, 0, 0, 0, 0
        DC8 0, 0, 0, 0, 0, 0, 0, 0, 0, 0, 0, 0, 0, 0, 0, 0
        DC8 0, 0, 0, 0, 0, 0, 0, 0, 0, 0, 0, 0, 0, 0, 0, 0
        DC8 0, 0, 0, 0, 0, 0, 0, 0, 0, 0, 0, 0, 0, 0, 0, 0
        DC8 0, 0, 0, 0, 0, 0, 0, 0, 0, 0, 0, 0, 0, 0, 0, 0
        DC8 0, 0, 0, 0, 0, 0, 0, 0, 0, 0, 0, 0, 0, 0, 0, 0
        DC8 0, 0, 0, 0, 0, 0, 0, 0, 0, 0, 0, 0, 0, 0, 0, 0
        DC8 0, 0, 0, 0, 0, 0, 0, 0, 0, 0, 0, 0, 0, 0, 0, 0
        DC8 0, 0, 0, 0, 0, 0, 0, 0, 0, 0, 0, 0, 0, 0, 0, 0
        DC8 0, 0, 0, 0, 0, 0, 0, 0, 0, 0, 0, 0, 0, 0, 0, 0
        DC8 0, 0, 0, 0, 0, 0, 0, 0, 0, 0, 0, 0, 0, 0, 0, 0
        DC8 0, 0, 0, 0, 0, 0, 0, 0, 0, 0, 0, 0, 0, 0, 0, 0
        DC8 0, 0, 0, 0, 0, 0, 0, 0, 0, 0, 0, 0, 0, 0, 0, 0
        DC8 0, 0, 0, 0, 0, 0, 0, 0, 0, 0, 0, 0, 0, 0, 0, 0
        DC8 0, 0, 0, 0, 0, 0, 0, 0, 0, 0, 0, 0, 0, 0, 0, 0
        DC8 0, 0, 0, 0, 0, 0, 0, 0, 0, 0, 0, 0, 0, 0, 0, 0
        DC8 0, 0, 0, 0, 0, 0, 0, 0, 0, 0, 0, 0, 0, 0, 0, 0
        DC8 0, 0, 0, 0, 0, 0, 0, 0, 0, 0, 0, 0, 0, 0, 0, 0
        DC8 0, 0, 0, 0, 0, 0, 0, 0, 0, 0, 0, 0, 0, 0, 0, 0
        DC8 0, 0, 0, 0, 0, 0, 0, 0, 0, 0, 0, 0, 0, 0, 0, 0
        DC8 0, 0, 0, 0, 0, 0, 0, 0, 0, 0, 0, 0, 0, 0, 0, 0
        DC8 0, 0, 0, 0, 0, 0, 0, 0, 0, 0, 0, 0, 0, 0, 0, 0
        DC8 0, 0, 0, 0, 0, 0, 0, 0, 0, 0, 0, 0, 0, 0, 0, 0
        DC8 0, 0, 0, 0, 0, 0, 0, 0, 0, 0, 0, 0, 0, 0, 0, 0
        DC8 0, 0, 0, 0, 0, 0, 0, 0, 0, 0, 0, 0, 0, 0, 0, 0
        DC8 0, 0, 0, 0, 0, 0, 0, 0, 0, 0, 0, 0, 0, 0, 0, 0
        DC8 0, 0, 0, 0, 0, 0, 0, 0, 0, 0, 0, 0, 0, 0, 0, 0
        DC8 0, 0, 0, 0, 0, 0, 0, 0, 0, 0, 0, 0, 0, 0, 0, 0
        DC8 0, 0, 0, 0, 0, 0, 0, 0, 0, 0, 0, 0, 0, 0, 0, 0
        DC8 0, 0, 0, 0, 0, 0, 0, 0, 0, 0, 0, 0, 0, 0, 0, 0
        DC8 0, 0, 0, 0, 0, 0, 0, 0, 0, 0, 0, 0, 0, 0, 0, 0
        DC8 0, 0, 0, 0, 0, 0, 0, 0, 0, 0, 0, 0, 0, 0, 0, 0
        DC8 0, 0, 0, 0, 0, 0, 0, 0, 0, 0, 0, 0, 0, 0, 0, 0
        DC8 0, 0, 0, 0, 0, 0, 0, 0, 0, 0, 0, 0, 0, 0, 0, 0
        DC8 0, 0, 0, 0, 0, 0, 0, 0, 0, 0, 0, 0, 0, 0, 0, 0
        DC8 0, 0, 0, 0, 0, 0, 0, 0, 0, 0, 0, 0, 0, 0, 0, 0
        DC8 0, 0, 0, 0, 0, 0, 0, 0, 0, 0, 0, 0, 0, 0, 0, 0
        DC8 0, 0, 0, 0, 0, 0, 0, 0, 0, 0, 0, 0, 0, 0, 0, 0
        DC8 0, 0, 0, 0, 0, 0, 0, 0, 0, 0, 0, 0, 0, 0, 0, 0
        DC8 0, 0, 0, 0, 0, 0, 0, 0, 0, 0, 0, 0, 0, 0, 0, 0
        DC8 0, 0, 0, 0, 0, 0, 0, 0, 0, 0, 0, 0, 0, 0, 0, 0
        DC8 0, 0, 0, 0, 0, 0, 0, 0, 0, 0, 0, 0, 0, 0, 0, 0
        DC8 0, 0, 0, 0, 0, 0, 0, 0, 0, 0, 0, 0, 0, 0, 0, 0
        DC8 0, 0, 0, 0, 0, 0, 0, 0, 0, 0, 0, 0, 0, 0, 0, 0
        DC8 0, 0, 0, 0, 0, 0, 0, 0, 0, 0, 0, 0, 0, 0, 0, 0
        DC8 0, 0, 0, 0, 0, 0, 0, 0, 0, 0, 0, 0, 0, 0, 0, 0
        DC8 0, 0, 0, 0, 0, 0, 0, 0, 0, 0, 0, 0, 0, 0, 0, 0
        DC8 0, 0, 0, 0, 0, 0, 0, 0, 0, 0, 0, 0, 0, 0, 0, 0
        DC8 0, 0, 0, 0, 0, 0, 0, 0, 0, 0, 0, 0, 0, 0, 0, 0
        DC8 0, 0, 0, 0, 0, 0, 0, 0, 0, 0, 0, 0, 0, 0, 0, 0
        DC8 0, 0, 0, 0, 0, 0, 0, 0, 0, 0, 0, 0, 0, 0, 0, 0
        DC8 0, 0, 0, 0, 0, 0, 0, 0, 0, 0, 0, 0, 0, 0, 0, 0
        DC8 0, 0, 0, 0, 0, 0, 0, 0, 0, 0, 0, 0, 0, 0, 0, 0
        DC8 0, 0, 0, 0, 0, 0, 0, 0, 0, 0, 0, 0, 0, 0, 0, 0
        DC8 0, 0, 0, 0, 0, 0, 0, 0, 0, 0, 0, 0, 0, 0, 0, 0
        DC8 0, 0, 0, 0, 0, 0, 0, 0, 0, 0, 0, 0, 0, 0, 0, 0
        DC8 0, 0, 0, 0, 0, 0, 0, 0, 0, 0, 0, 0, 0, 0, 0, 0
        DC8 0, 0, 0, 0, 0, 0, 0, 0, 0, 0, 0, 0, 0, 0, 0, 0
        DC8 0, 0, 0, 0, 0, 0, 0, 0, 0, 0, 0, 0, 0, 0, 0, 0
        DC8 0, 0, 0, 0, 0, 0, 0, 0, 0, 0, 0, 0, 0, 0, 0, 0
        DC8 0, 0, 0, 0, 0, 0, 0, 0, 0, 0, 0, 0, 0, 0, 0, 0
        DC8 0, 0, 0, 0, 0, 0, 0, 0, 0, 0, 0, 0, 0, 0, 0, 0
        DC8 0, 0, 0, 0, 0, 0, 0, 0, 0, 0, 0, 0, 0, 0, 0, 0
        DC8 0, 0, 0, 0, 0, 0, 0, 0, 0, 0, 0, 0, 0, 0, 0, 0
        DC8 0, 0, 0, 0, 0, 0, 0, 0, 0, 0, 0, 0, 0, 0, 0, 0
        DC8 0, 0, 0, 0, 0, 0, 0, 0, 0, 0, 0, 0, 0, 0, 0, 0
        DC8 0, 0, 0, 0, 0, 0, 0, 0, 0, 0, 0, 0, 0, 0, 0, 0
        DC8 0, 0, 0, 0, 0, 0, 0, 0, 0, 0, 0, 0, 0, 0, 0, 0
        DC8 0, 0, 0, 0, 0, 0, 0, 0, 0, 0, 0, 0, 0, 0, 0, 0
        DC8 0, 0, 0, 0, 0, 0, 0, 0, 0, 0, 0, 0, 0, 0, 0, 0
        DC8 0, 0, 0, 0, 0, 0, 0, 0, 0, 0, 0, 0, 0, 0, 0, 0
        DC8 0, 0, 0, 0, 0, 0, 0, 0, 0, 0, 0, 0, 0, 0, 0, 0
        DC8 0, 0, 0, 0, 0, 0, 0, 0, 0, 0, 0, 0, 0, 0, 0, 0
        DC8 0, 0, 0, 0, 0, 0, 0, 0, 0, 0, 0, 0, 0, 0, 0, 0
        DC8 0, 0, 0, 0, 0, 0, 0, 0, 0, 0, 0, 0, 0, 0, 0, 0
        DC8 0, 0, 0, 0, 0, 0, 0, 0, 0, 0, 0, 0, 0, 0, 0, 0
        DC8 0, 0, 0, 0, 0, 0, 0, 0, 0, 0, 0, 0, 0, 0, 0, 0
        DC8 0, 0, 0, 0, 0, 0, 0, 0, 0, 0, 0, 0, 0, 0, 0, 0
        DC8 0, 0, 0, 0, 0, 0, 0, 0, 0, 0, 0, 0, 0, 0, 0, 0
        DC8 0, 0, 0, 0, 0, 0, 0, 0, 0, 0, 0, 0, 0, 0, 0, 0
        DC8 0, 0, 0, 0, 0, 0, 0, 0, 0, 0, 0, 0, 0, 0, 0, 0
        DC8 0, 0, 0, 0, 0, 0, 0, 0, 0, 0, 0, 0, 0, 0, 0, 0
        DC8 0, 0, 0, 0, 0, 0, 0, 0, 0, 0, 0, 0, 0, 0, 0, 0
        DC8 0, 0, 0, 0, 0, 0, 0, 0, 0, 0, 0, 0, 0, 0, 0, 0
        DC8 0, 0, 0, 0, 0, 0, 0, 0, 0, 0, 0, 0, 0, 0, 0, 0
        DC8 0, 0, 0, 0, 0, 0, 0, 0, 0, 0, 0, 0, 0, 0, 0, 0
        DC8 0, 0, 0, 0, 0, 0, 0, 0, 0, 0, 0, 0, 0, 0, 0, 0
        DC8 0, 0, 0, 0, 0, 0, 0, 0, 0, 0, 0, 0, 0, 0, 0, 0
        DC8 0, 0, 0, 0, 0, 0, 0, 0, 0, 0, 0, 0, 0, 0, 0, 0
        DC8 0, 0, 0, 0, 0, 0, 0, 0, 0, 0, 0, 0, 0, 0, 0, 0
        DC8 0, 0, 0, 0, 0, 0, 0, 0, 0, 0, 0, 0, 0, 0, 0, 0
        DC8 0, 0, 0, 0, 0, 0, 0, 0, 0, 0, 0, 0, 0, 0, 0, 0
        DC8 0, 0, 0, 0, 0, 0, 0, 0, 0, 0, 0, 0, 0, 0, 0, 0
        DC8 0, 0, 0, 0, 0, 0, 0, 0, 0, 0, 0, 0, 0, 0, 0, 0
        DC8 0, 0, 0, 0, 0, 0, 0, 0, 0, 0, 0, 0, 0, 0, 0, 0
        DC8 0, 0, 0, 0, 0, 0, 0, 0, 0, 0, 0, 0, 0, 0, 0, 0
        DC8 0, 0, 0, 0, 0, 0, 0, 0, 0, 0, 0, 0, 0, 0, 0, 0
        DC8 0, 0, 0, 0, 0, 0, 0, 0, 0, 0, 0, 0, 0, 0, 0, 0
        DC8 0, 0, 0, 0, 0, 0, 0, 0, 0, 0, 0, 0, 0, 0, 0, 0
        DC8 0, 0, 0, 0, 0, 0, 0, 0, 0, 0, 0, 0, 0, 0, 0, 0
        DC8 0, 0, 0, 0, 0, 0, 0, 0, 0, 0, 0, 0, 0, 0, 0, 0
        DC8 0, 0, 0, 0, 0, 0, 0, 0, 0, 0, 0, 0, 0, 0, 0, 0
        DC8 0, 0, 0, 0, 0, 0, 0, 0, 0, 0, 0, 0, 0, 0, 0, 0
        DC8 0, 0, 0, 0, 0, 0, 0, 0, 0, 0, 0, 0, 0, 0, 0, 0
        DC8 0, 0, 0, 0, 0, 0, 0, 0, 0, 0, 0, 0, 0, 0, 0, 0
        DC8 0, 0, 0, 0, 0, 0, 0, 0, 0, 0, 0, 0, 0, 0, 0, 0
        DC8 0, 0, 0, 0, 0, 0, 0, 0, 0, 0, 0, 0, 0, 0, 0, 0
        DC8 0, 0, 0, 0, 0, 0, 0, 0, 0, 0, 0, 0, 0, 0, 0, 0
        DC8 0, 0, 0, 0, 0, 0, 0, 0, 0, 0, 0, 0, 0, 0, 0, 0
        DC8 0, 0, 0, 0, 0, 0, 0, 0, 0, 0, 0, 0, 0, 0, 0, 0
        DC8 0, 0, 0, 0, 0, 0, 0, 0, 0, 0, 0, 0, 0, 0, 0, 0
        DC8 0, 0, 0, 0, 0, 0, 0, 0, 0, 0, 0, 0, 0, 0, 0, 0
        DC8 0, 0, 0, 0, 0, 0, 0, 0, 0, 0, 0, 0, 0, 0, 0, 0
        DC8 0, 0, 0, 0, 0, 0, 0, 0, 0, 0, 0, 0, 0, 0, 0, 0
        DC8 0, 0, 0, 0, 0, 0, 0, 0, 0, 0, 0, 0, 0, 0, 0, 0
        DC8 0, 0, 0, 0, 0, 0, 0, 0, 0, 0, 0, 0, 0, 0, 0, 0
        DC8 0, 0, 0, 0, 0, 0, 0, 0, 0, 0, 0, 0, 0, 0, 0, 0
        DC8 0, 0, 0, 0, 0, 0, 0, 0, 0, 0, 0, 0, 0, 0, 0, 0
        DC8 0, 0, 0, 0, 0, 0, 0, 0, 0, 0, 0, 0, 0, 0, 0, 0
        DC8 0, 0, 0, 0, 0, 0, 0, 0, 0, 0, 0, 0, 0, 0, 0, 0
        DC8 0, 0, 0, 0, 0, 0, 0, 0, 0, 0, 0, 0, 0, 0, 0, 0
        DC8 0, 0, 0, 0, 0, 0, 0, 0, 0, 0, 0, 0, 0, 0, 0, 0
        DC8 0, 0, 0, 0, 0, 0, 0, 0, 0, 0, 0, 0, 0, 0, 0, 0
        DC8 0, 0, 0, 0, 0, 0, 0, 0, 0, 0, 0, 0, 0, 0, 0, 0
        DC8 0, 0, 0, 0, 0, 0, 0, 0, 0, 0, 0, 0, 0, 0, 0, 0
        DC8 0, 0, 0, 0, 0, 0, 0, 0, 0, 0, 0, 0, 0, 0, 0, 0
        DC8 0, 0, 0, 0, 0, 0, 0, 0, 0, 0, 0, 0, 0, 0, 0, 0
        DC8 0, 0, 0, 0, 0, 0, 0, 0, 0, 0, 0, 0, 0, 0, 0, 0
        DC8 0, 0, 0, 0, 0, 0, 0, 0, 0, 0, 0, 0, 0, 0, 0, 0
        DC8 0, 0, 0, 0, 0, 0, 0, 0, 0, 0, 0, 0, 0, 0, 0, 0
        DC8 0, 0, 0, 0, 0, 0, 0, 0, 0, 0, 0, 0, 0, 0, 0, 0
        DC8 0, 0, 0, 0, 0, 0, 0, 0, 0, 0, 0, 0, 0, 0, 0, 0
        DC8 0, 0, 0, 0, 0, 0, 0, 0, 0, 0, 0, 0, 0, 0, 0, 0
        DC8 0, 0, 0, 0, 0, 0, 0, 0, 0, 0, 0, 0, 0, 0, 0, 0
        DC8 0, 0, 0, 0, 0, 0, 0, 0, 0, 0, 0, 0, 0, 0, 0, 0
        DC8 0, 0, 0, 0, 0, 0, 0, 0, 0, 0, 0, 0, 0, 0, 0, 0
        DC8 0, 0, 0, 0, 0, 0, 0, 0, 0, 0, 0, 0, 0, 0, 0, 0
        DC8 0, 0, 0, 0, 0, 0, 0, 0, 0, 0, 0, 0, 0, 0, 0, 0
        DC8 0, 0, 0, 0, 0, 0, 0, 0, 0, 0, 0, 0, 0, 0, 0, 0
        DC8 0, 0, 0, 0, 0, 0, 0, 0, 0, 0, 0, 0, 0, 0, 0, 0
        DC8 0, 0, 0, 0, 0, 0, 0, 0, 0, 0, 0, 0, 0, 0, 0, 0
        DC8 0, 0, 0, 0, 0, 0, 0, 0, 0, 0, 0, 0, 0, 0, 0, 0
        DC8 0, 0, 0, 0, 0, 0, 0, 0, 0, 0, 0, 0, 0, 0, 0, 0
        DC8 0, 0, 0, 0, 0, 0, 0, 0, 0, 0, 0, 0, 0, 0, 0, 0
        DC8 0, 0, 0, 0, 0, 0, 0, 0, 0, 0, 0, 0, 0, 0, 0, 0
        DC8 0, 0, 0, 0, 0, 0, 0, 0, 0, 0, 0, 0, 0, 0, 0, 0
        DC8 0, 0, 0, 0, 0, 0, 0, 0, 0, 0, 0, 0, 0, 0, 0, 0
        DC8 0, 0, 0, 0, 0, 0, 0, 0, 0, 0, 0, 0, 0, 0, 0, 0
        DC8 0, 0, 0, 0, 0, 0, 0, 0, 0, 0, 0, 0, 0, 0, 0, 0
        DC8 0, 0, 0, 0, 0, 0, 0, 0, 0, 0, 0, 0, 0, 0, 0, 0
        DC8 0, 0, 0, 0, 0, 0, 0, 0, 0, 0, 0, 0, 0, 0, 0, 0
        DC8 0, 0, 0, 0, 0, 0, 0, 0, 0, 0, 0, 0, 0, 0, 0, 0
        DC8 0, 0, 0, 0, 0, 0, 0, 0, 0, 0, 0, 0, 0, 0, 0, 0
        DC8 0, 0, 0, 0, 0, 0, 0, 0, 0, 0, 0, 0, 0, 0, 0, 0
        DC8 0, 0, 0, 0, 0, 0, 0, 0, 0, 0, 0, 0, 0, 0, 0, 0
        DC8 0, 0, 0, 0, 0, 0, 0, 0, 0, 0, 0, 0, 0, 0, 0, 0
        DC8 0, 0, 0, 0, 0, 0, 0, 0, 0, 0, 0, 0, 0, 0, 0, 0
        DC8 0, 0, 0, 0, 0, 0, 0, 0, 0, 0, 0, 0, 0, 0, 0, 0
        DC8 0, 0, 0, 0, 0, 0, 0, 0, 0, 0, 0, 0, 0, 0, 0, 0
        DC8 0, 0, 0, 0, 0, 0, 0, 0, 0, 0, 0, 0, 0, 0, 0, 0
        DC8 0, 0, 0, 0, 0, 0, 0, 0, 0, 0, 0, 0, 0, 0, 0, 0
        DC8 0, 0, 0, 0, 0, 0, 0, 0, 0, 0, 0, 0, 0, 0, 0, 0
        DC8 0, 0, 0, 0, 0, 0, 0, 0, 0, 0, 0, 0, 0, 0, 0, 0
        DC8 0, 0, 0, 0, 0, 0, 0, 0, 0, 0, 0, 0, 0, 0, 0, 0
        DC8 0, 0, 0, 0, 0, 0, 0, 0, 0, 0, 0, 0, 0, 0, 0, 0
        DC8 0, 0, 0, 0, 0, 0, 0, 0, 0, 0, 0, 0, 0, 0, 0, 0
        DC8 0, 0, 0, 0, 0, 0, 0, 0, 0, 0, 0, 0, 0, 0, 0, 0
        DC8 0, 0, 0, 0, 0, 0, 0, 0, 0, 0, 0, 0, 0, 0, 0, 0
        DC8 0, 0, 0, 0, 0, 0, 0, 0, 0, 0, 0, 0, 0, 0, 0, 0
        DC8 0, 0, 0, 0, 0, 0, 0, 0, 0, 0, 0, 0, 0, 0, 0, 0
        DC8 0, 0, 0, 0, 0, 0, 0, 0, 0, 0, 0, 0, 0, 0, 0, 0
        DC8 0, 0, 0, 0, 0, 0, 0, 0, 0, 0, 0, 0, 0, 0, 0, 0
        DC8 0, 0, 0, 0, 0, 0, 0, 0, 0, 0, 0, 0, 0, 0, 0, 0
        DC8 0, 0, 0, 0, 0, 0, 0, 0, 0, 0, 0, 0, 0, 0, 0, 0
        DC8 0, 0, 0, 0, 0, 0, 0, 0, 0, 0, 0, 0, 0, 0, 0, 0
        DC8 0, 0, 0, 0, 0, 0, 0, 0, 0, 0, 0, 0, 0, 0, 0, 0
        DC8 0, 0, 0, 0, 0, 0, 0, 0, 0, 0, 0, 0, 0, 0, 0, 0
        DC8 0, 0, 0, 0, 0, 0, 0, 0, 0, 0, 0, 0, 0, 0, 0, 0
        DC8 0, 0, 0, 0, 0, 0, 0, 0, 0, 0, 0, 0, 0, 0, 0, 0
        DC8 0, 0, 0, 0, 0, 0, 0, 0, 0, 0, 0, 0, 0, 0, 0, 0
        DC8 0, 0, 0, 0, 0, 0, 0, 0, 0, 0, 0, 0, 0, 0, 0, 0
        DC8 0, 0, 0, 0, 0, 0, 0, 0, 0, 0, 0, 0, 0, 0, 0, 0
        DC8 0, 0, 0, 0, 0, 0, 0, 0, 0, 0, 0, 0, 0, 0, 0, 0
        DC8 0, 0, 0, 0, 0, 0, 0, 0, 0, 0, 0, 0, 0, 0, 0, 0
        DC8 0, 0, 0, 0, 0, 0, 0, 0, 0, 0, 0, 0, 0, 0, 0, 0
        DC8 0, 0, 0, 0, 0, 0, 0, 0, 0, 0, 0, 0, 0, 0, 0, 0
        DC8 0, 0, 0, 0, 0, 0, 0, 0, 0, 0, 0, 0, 0, 0, 0, 0
        DC8 0, 0, 0, 0, 0, 0, 0, 0, 0, 0, 0, 0, 0, 0, 0, 0
        DC8 0, 0, 0, 0, 0, 0, 0, 0, 0, 0, 0, 0, 0, 0, 0, 0
        DC8 0, 0, 0, 0, 0, 0, 0, 0, 0, 0, 0, 0, 0, 0, 0, 0
        DC8 0, 0, 0, 0, 0, 0, 0, 0, 0, 0, 0, 0, 0, 0, 0, 0
        DC8 0, 0, 0, 0, 0, 0, 0, 0, 0, 0, 0, 0, 0, 0, 0, 0
        DC8 0, 0, 0, 0, 0, 0, 0, 0, 0, 0, 0, 0, 0, 0, 0, 0
        DC8 0, 0, 0, 0, 0, 0, 0, 0, 0, 0, 0, 0, 0, 0, 0, 0
        DC8 0, 0, 0, 0, 0, 0, 0, 0, 0, 0, 0, 0, 0, 0, 0, 0
        DC8 0, 0, 0, 0, 0, 0, 0, 0, 0, 0, 0, 0, 0, 0, 0, 0
        DC8 0, 0, 0, 0, 0, 0, 0, 0, 0, 0, 0, 0, 0, 0, 0, 0
        DC8 0, 0, 0, 0, 0, 0, 0, 0, 0, 0, 0, 0, 0, 0, 0, 0
        DC8 0, 0, 0, 0, 0, 0, 0, 0, 0, 0, 0, 0, 0, 0, 0, 0
        DC8 0, 0, 0, 0, 0, 0, 0, 0, 0, 0, 0, 0, 0, 0, 0, 0
        DC8 0, 0, 0, 0, 0, 0, 0, 0, 0, 0, 0, 0, 0, 0, 0, 0
        DC8 0, 0, 0, 0, 0, 0, 0, 0, 0, 0, 0, 0, 0, 0, 0, 0
        DC8 0, 0, 0, 0, 0, 0, 0, 0, 0, 0, 0, 0, 0, 0, 0, 0
        DC8 0, 0, 0, 0, 0, 0, 0, 0, 0, 0, 0, 0, 0, 0, 0, 0
        DC8 0, 0, 0, 0, 0, 0, 0, 0, 0, 0, 0, 0, 0, 0, 0, 0
        DC8 0, 0, 0, 0, 0, 0, 0, 0, 0, 0, 0, 0, 0, 0, 0, 0
        DC8 0, 0, 0, 0, 0, 0, 0, 0, 0, 0, 0, 0, 0, 0, 0, 0
        DC8 0, 0, 0, 0, 0, 0, 0, 0, 0, 0, 0, 0, 0, 0, 0, 0
        DC8 0, 0, 0, 0, 0, 0, 0, 0, 0, 0, 0, 0, 0, 0, 0, 0
        DC8 0, 0, 0, 0, 0, 0, 0, 0, 0, 0, 0, 0, 0, 0, 0, 0
        DC8 0, 0, 0, 0, 0, 0, 0, 0, 0, 0, 0, 0, 0, 0, 0, 0
        DC8 0, 0, 0, 0, 0, 0, 0, 0, 0, 0, 0, 0, 0, 0, 0, 0
        DC8 0, 0, 0, 0, 0, 0, 0, 0, 0, 0, 0, 0, 0, 0, 0, 0
        DC8 0, 0, 0, 0, 0, 0, 0, 0, 0, 0, 0, 0, 0, 0, 0, 0
        DC8 0, 0, 0, 0, 0, 0, 0, 0, 0, 0, 0, 0, 0, 0, 0, 0
        DC8 0, 0, 0, 0, 0, 0, 0, 0, 0, 0, 0, 0, 0, 0, 0, 0
        DC8 0, 0, 0, 0, 0, 0, 0, 0, 0, 0, 0, 0, 0, 0, 0, 0
        DC8 0, 0, 0, 0, 0, 0, 0, 0, 0, 0, 0, 0, 0, 0, 0, 0
        DC8 0, 0, 0, 0, 0, 0, 0, 0, 0, 0, 0, 0, 0, 0, 0, 0
        DC8 0, 0, 0, 0, 0, 0, 0, 0, 0, 0, 0, 0, 0, 0, 0, 0
        DC8 0, 0, 0, 0, 0, 0, 0, 0, 0, 0, 0, 0, 0, 0, 0, 0
        DC8 0, 0, 0, 0, 0, 0, 0, 0, 0, 0, 0, 0, 0, 0, 0, 0
        DC8 0, 0, 0, 0, 0, 0, 0, 0, 0, 0, 0, 0, 0, 0, 0, 0
        DC8 0, 0, 0, 0, 0, 0, 0, 0, 0, 0, 0, 0, 0, 0, 0, 0
        DC8 0, 0, 0, 0, 0, 0, 0, 0, 0, 0, 0, 0, 0, 0, 0, 0
        DC8 0, 0, 0, 0, 0, 0, 0, 0, 0, 0, 0, 0, 0, 0, 0, 0
        DC8 0, 0, 0, 0, 0, 0, 0, 0, 0, 0, 0, 0, 0, 0, 0, 0
        DC8 0, 0, 0, 0, 0, 0, 0, 0, 0, 0, 0, 0, 0, 0, 0, 0
        DC8 0, 0, 0, 0, 0, 0, 0, 0, 0, 0, 0, 0, 0, 0, 0, 0
        DC8 0, 0, 0, 0, 0, 0, 0, 0, 0, 0, 0, 0, 0, 0, 0, 0
        DC8 0, 0, 0, 0, 0, 0, 0, 0, 0, 0, 0, 0, 0, 0, 0, 0
        DC8 0, 0, 0, 0, 0, 0, 0, 0, 0, 0, 0, 0, 0, 0, 0, 0
        DC8 0, 0, 0, 0, 0, 0, 0, 0, 0, 0, 0, 0, 0, 0, 0, 0
        DC8 0, 0, 0, 0, 0, 0, 0, 0, 0, 0, 0, 0, 0, 0, 0, 0
        DC8 0, 0, 0, 0, 0, 0, 0, 0, 0, 0, 0, 0, 0, 0, 0, 0
        DC8 0, 0, 0, 0, 0, 0, 0, 0, 0, 0, 0, 0, 0, 0, 0, 0
        DC8 0, 0, 0, 0, 0, 0, 0, 0, 0, 0, 0, 0, 0, 0, 0, 0
        DC8 0, 0, 0, 0, 0, 0, 0, 0, 0, 0, 0, 0, 0, 0, 0, 0
        DC8 0, 0, 0, 0, 0, 0, 0, 0, 0, 0, 0, 0, 0, 0, 0, 0
        DC8 0, 0, 0, 0, 0, 0, 0, 0, 0, 0, 0, 0, 0, 0, 0, 0
        DC8 0, 0, 0, 0, 0, 0, 0, 0, 0, 0, 0, 0, 0, 0, 0, 0
        DC8 0, 0, 0, 0, 0, 0, 0, 0, 0, 0, 0, 0, 0, 0, 0, 0
        DC8 0, 0, 0, 0, 0, 0, 0, 0, 0, 0, 0, 0, 0, 0, 0, 0
        DC8 0, 0, 0, 0, 0, 0, 0, 0, 0, 0, 0, 0, 0, 0, 0, 0
        DC8 0, 0, 0, 0, 0, 0, 0, 0, 0, 0, 0, 0, 0, 0, 0, 0
        DC8 0, 0, 0, 0, 0, 0, 0, 0, 0, 0, 0, 0, 0, 0, 0, 0
        DC8 0, 0, 0, 0, 0, 0, 0, 0, 0, 0, 0, 0, 0, 0, 0, 0
        DC8 0, 0, 0, 0, 0, 0, 0, 0, 0, 0, 0, 0, 0, 0, 0, 0
        DC8 0, 0, 0, 0, 0, 0, 0, 0, 0, 0, 0, 0, 0, 0, 0, 0
        DC8 0, 0, 0, 0, 0, 0, 0, 0, 0, 0, 0, 0, 0, 0, 0, 0
        DC8 0, 0, 0, 0, 0, 0, 0, 0, 0, 0, 0, 0, 0, 0, 0, 0
        DC8 0, 0, 0, 0, 0, 0, 0, 0, 0, 0, 0, 0, 0, 0, 0, 0
        DC8 0, 0, 0, 0, 0, 0, 0, 0, 0, 0, 0, 0, 0, 0, 0, 0
        DC8 0, 0, 0, 0, 0, 0, 0, 0, 0, 0, 0, 0, 0, 0, 0, 0
        DC8 0, 0, 0, 0, 0, 0, 0, 0, 0, 0, 0, 0, 0, 0, 0, 0
        DC8 0, 0, 0, 0, 0, 0, 0, 0, 0, 0, 0, 0, 0, 0, 0, 0
        DC8 0, 0, 0, 0, 0, 0, 0, 0, 0, 0, 0, 0, 0, 0, 0, 0
        DC8 0, 0, 0, 0, 0, 0, 0, 0, 0, 0, 0, 0, 0, 0, 0, 0
        DC8 0, 0, 0, 0, 0, 0, 0, 0, 0, 0, 0, 0, 0, 0, 0, 0
        DC8 0, 0, 0, 0, 0, 0, 0, 0, 0, 0, 0, 0, 0, 0, 0, 0
        DC8 0, 0, 0, 0, 0, 0, 0, 0, 0, 0, 0, 0, 0, 0, 0, 0
        DC8 0, 0, 0, 0, 0, 0, 0, 0, 0, 0, 0, 0, 0, 0, 0, 0
        DC8 0, 0, 0, 0, 0, 0, 0, 0, 0, 0, 0, 0, 0, 0, 0, 0
        DC8 0, 0, 0, 0, 0, 0, 0, 0, 0, 0, 0, 0, 0, 0, 0, 0
        DC8 0, 0, 0, 0, 0, 0, 0, 0, 0, 0, 0, 0, 0, 0, 0, 0
        DC8 0, 0, 0, 0, 0, 0, 0, 0, 0, 0, 0, 0, 0, 0, 0, 0
        DC8 0, 0, 0, 0, 0, 0, 0, 0, 0, 0, 0, 0, 0, 0, 0, 0
        DC8 0, 0, 0, 0, 0, 0, 0, 0, 0, 0, 0, 0, 0, 0, 0, 0
        DC8 0, 0, 0, 0, 0, 0, 0, 0, 0, 0, 0, 0, 0, 0, 0, 0
        DC8 0, 0, 0, 0, 0, 0, 0, 0, 0, 0, 0, 0, 0, 0, 0, 0
        DC8 0, 0, 0, 0, 0, 0, 0, 0, 0, 0, 0, 0, 0, 0, 0, 0
        DC8 0, 0, 0, 0, 0, 0, 0, 0, 0, 0, 0, 0, 0, 0, 0, 0
        DC8 0, 0, 0, 0, 0, 0, 0, 0, 0, 0, 0, 0, 0, 0, 0, 0
        DC8 0, 0, 0, 0, 0, 0, 0, 0, 0, 0, 0, 0, 0, 0, 0, 0
        DC8 0, 0, 0, 0, 0, 0, 0, 0, 0, 0, 0, 0, 0, 0, 0, 0
        DC8 0, 0, 0, 0, 0, 0, 0, 0, 0, 0, 0, 0, 0, 0, 0, 0
        DC8 0, 0, 0, 0, 0, 0, 0, 0, 0, 0, 0, 0, 0, 0, 0, 0
        DC8 0, 0, 0, 0, 0, 0, 0, 0, 0, 0, 0, 0, 0, 0, 0, 0
        DC8 0, 0, 0, 0, 0, 0, 0, 0, 0, 0, 0, 0, 0, 0, 0, 0
        DC8 0, 0, 0, 0, 0, 0, 0, 0, 0, 0, 0, 0, 0, 0, 0, 0
        DC8 0, 0, 0, 0, 0, 0, 0, 0, 0, 0, 0, 0, 0, 0, 0, 0
        DC8 0, 0, 0, 0, 0, 0, 0, 0, 0, 0, 0, 0, 0, 0, 0, 0
        DC8 0, 0, 0, 0, 0, 0, 0, 0, 0, 0, 0, 0, 0, 0, 0, 0
        DC8 0, 0, 0, 0, 0, 0, 0, 0, 0, 0, 0, 0, 0, 0, 0, 0
        DC8 0, 0, 0, 0, 0, 0, 0, 0, 0, 0, 0, 0, 0, 0, 0, 0
        DC8 0, 0, 0, 0, 0, 0, 0, 0, 0, 0, 0, 0, 0, 0, 0, 0
        DC8 0, 0, 0, 0, 0, 0, 0, 0, 0, 0, 0, 0, 0, 0, 0, 0
        DC8 0, 0, 0, 0, 0, 0, 0, 0, 0, 0, 0, 0, 0, 0, 0, 0
        DC8 0, 0, 0, 0, 0, 0, 0, 0, 0, 0, 0, 0, 0, 0, 0, 0
        DC8 0, 0, 0, 0, 0, 0, 0, 0, 0, 0, 0, 0, 0, 0, 0, 0
        DC8 0, 0, 0, 0, 0, 0, 0, 0, 0, 0, 0, 0, 0, 0, 0, 0
        DC8 0, 0, 0, 0, 0, 0, 0, 0, 0, 0, 0, 0, 0, 0, 0, 0
        DC8 0, 0, 0, 0, 0, 0, 0, 0, 0, 0, 0, 0, 0, 0, 0, 0
        DC8 0, 0, 0, 0, 0, 0, 0, 0, 0, 0, 0, 0, 0, 0, 0, 0
        DC8 0, 0, 0, 0, 0, 0, 0, 0, 0, 0, 0, 0, 0, 0, 0, 0
        DC8 0, 0, 0, 0, 0, 0, 0, 0, 0, 0, 0, 0, 0, 0, 0, 0
        DC8 0, 0, 0, 0, 0, 0, 0, 0, 0, 0, 0, 0, 0, 0, 0, 0
        DC8 0, 0, 0, 0, 0, 0, 0, 0, 0, 0, 0, 0, 0, 0, 0, 0
        DC8 0, 0, 0, 0, 0, 0, 0, 0, 0, 0, 0, 0, 0, 0, 0, 0
        DC8 0, 0, 0, 0, 0, 0, 0, 0, 0, 0, 0, 0, 0, 0, 0, 0
        DC8 0, 0, 0, 0, 0, 0, 0, 0, 0, 0, 0, 0, 0, 0, 0, 0
        DC8 0, 0, 0, 0, 0, 0, 0, 0, 0, 0, 0, 0, 0, 0, 0, 0
        DC8 0, 0, 0, 0, 0, 0, 0, 0, 0, 0, 0, 0, 0, 0, 0, 0
        DC8 0, 0, 0, 0, 0, 0, 0, 0, 0, 0, 0, 0, 0, 0, 0, 0
        DC8 0, 0, 0, 0, 0, 0, 0, 0, 0, 0, 0, 0, 0, 0, 0, 0
        DC8 0, 0, 0, 0, 0, 0, 0, 0, 0, 0, 0, 0, 0, 0, 0, 0
        DC8 0, 0, 0, 0, 0, 0, 0, 0, 0, 0, 0, 0, 0, 0, 0, 0
        DC8 0, 0, 0, 0, 0, 0, 0, 0, 0, 0, 0, 0, 0, 0, 0, 0
        DC8 0, 0, 0, 0, 0, 0, 0, 0, 0, 0, 0, 0, 0, 0, 0, 0
        DC8 0, 0, 0, 0, 0, 0, 0, 0, 0, 0, 0, 0, 0, 0, 0, 0
        DC8 0, 0, 0, 0, 0, 0, 0, 0, 0, 0, 0, 0, 0, 0, 0, 0
        DC8 0, 0, 0, 0, 0, 0, 0, 0, 0, 0, 0, 0, 0, 0, 0, 0
        DC8 0, 0, 0, 0, 0, 0, 0, 0, 0, 0, 0, 0, 0, 0, 0, 0
        DC8 0, 0, 0, 0, 0, 0, 0, 0, 0, 0, 0, 0, 0, 0, 0, 0
        DC8 0, 0, 0, 0, 0, 0, 0, 0, 0, 0, 0, 0, 0, 0, 0, 0
        DC8 0, 0, 0, 0, 0, 0, 0, 0, 0, 0, 0, 0, 0, 0, 0, 0
        DC8 0, 0, 0, 0, 0, 0, 0, 0, 0, 0, 0, 0, 0, 0, 0, 0
        DC8 0, 0, 0, 0, 0, 0, 0, 0, 0, 0, 0, 0, 0, 0, 0, 0
        DC8 0, 0, 0, 0, 0, 0, 0, 0, 0, 0, 0, 0, 0, 0, 0, 0
        DC8 0, 0, 0, 0, 0, 0, 0, 0, 0, 0, 0, 0, 0, 0, 0, 0
        DC8 0, 0, 0, 0, 0, 0, 0, 0, 0, 0, 0, 0, 0, 0, 0, 0
        DC8 0, 0, 0, 0, 0, 0, 0, 0, 0, 0, 0, 0, 0, 0, 0, 0
        DC8 0, 0, 0, 0, 0, 0, 0, 0, 0, 0, 0, 0, 0, 0, 0, 0
        DC8 0, 0, 0, 0, 0, 0, 0, 0, 0, 0, 0, 0, 0, 0, 0, 0
        DC8 0, 0, 0, 0, 0, 0, 0, 0, 0, 0, 0, 0, 0, 0, 0, 0
        DC8 0, 0, 0, 0, 0, 0, 0, 0, 0, 0, 0, 0, 0, 0, 0, 0
        DC8 0, 0, 0, 0, 0, 0, 0, 0, 0, 0, 0, 0, 0, 0, 0, 0
        DC8 0, 0, 0, 0, 0, 0, 0, 0, 0, 0, 0, 0, 0, 0, 0, 0
        DC8 0, 0, 0, 0, 0, 0, 0, 0, 0, 0, 0, 0, 0, 0, 0, 0
        DC8 0, 0, 0, 0, 0, 0, 0, 0, 0, 0, 0, 0, 0, 0, 0, 0
        DC8 0, 0, 0, 0, 0, 0, 0, 0, 0, 0, 0, 0, 0, 0, 0, 0
        DC8 0, 0, 0, 0, 0, 0, 0, 0, 0, 0, 0, 0, 0, 0, 0, 0
        DC8 0, 0, 0, 0, 0, 0, 0, 0, 0, 0, 0, 0, 0, 0, 0, 0
        DC8 0, 0, 0, 0, 0, 0, 0, 0, 0, 0, 0, 0, 0, 0, 0, 0
        DC8 0, 0, 0, 0, 0, 0, 0, 0, 0, 0, 0, 0, 0, 0, 0, 0
        DC8 0, 0, 0, 0, 0, 0, 0, 0, 0, 0, 0, 0, 0, 0, 0, 0
        DC8 0, 0, 0, 0, 0, 0, 0, 0, 0, 0, 0, 0, 0, 0, 0, 0
        DC8 0, 0, 0, 0, 0, 0, 0, 0, 0, 0, 0, 0, 0, 0, 0, 0
        DC8 0, 0, 0, 0, 0, 0, 0, 0, 0, 0, 0, 0, 0, 0, 0, 0
        DC8 0, 0, 0, 0, 0, 0, 0, 0, 0, 0, 0, 0, 0, 0, 0, 0
        DC8 0, 0, 0, 0, 0, 0, 0, 0, 0, 0, 0, 0, 0, 0, 0, 0
        DC8 0, 0, 0, 0, 0, 0, 0, 0, 0, 0, 0, 0, 0, 0, 0, 0
        DC8 0, 0, 0, 0, 0, 0, 0, 0, 0, 0, 0, 0, 0, 0, 0, 0

        RSEG INITTAB:CODE:ROOT(2)
        DATA
?init?tab?DATA_Z:
        DCD      sfe(DATA_Z) - sfb(DATA_Z), sfb(DATA_Z), sfb(DATA_Z)

        RSEG DATA_ID:CONST:SORT:NOROOT(2)
`?*?DATA_ID`:

        RSEG INITTAB:CODE:ROOT(2)
        DATA
?init?tab?DATA_I:
        DCD      sfe(DATA_I) - sfb(DATA_I), sfb(DATA_I), sfb(DATA_ID)

        END
// 
// 28 960 bytes in segment CODE
//    296 bytes in segment DATA_C
// 11 956 bytes in segment DATA_I
// 11 956 bytes in segment DATA_ID
//  1 144 bytes in segment DATA_Z
//     24 bytes in segment INITTAB
// 
// 28 736 bytes of CODE  memory (+ 248 bytes shared)
// 12 252 bytes of CONST memory
// 13 100 bytes of DATA  memory
//
//Errors: none
//Warnings: 62
