##############################################################################
#                                                                            #
# IAR ARM ANSI C/C++ Compiler V4.42A/W32 EVALUATION    09/Dec/2010  18:20:55 #
# Copyright 1999-2005 IAR Systems. All rights reserved.                      #
#                                                                            #
#    Cpu mode        =  interwork                                            #
#    Endian          =  little                                               #
#    Stack alignment =  4                                                    #
#    Source file     =  C:\arm\vNes_sound\Nes.c                              #
#    Command line    =  C:\arm\vNes_sound\Nes.c -D NDEBUG -D NEWSGOLD -D     #
#                       ELKA -lCN C:\arm\vNes_sound\release_ELKA\List\ -lA   #
#                       C:\arm\vNes_sound\release_ELKA\List\ -o              #
#                       C:\arm\vNes_sound\release_ELKA\Obj\ -s9 --cpu_mode   #
#                       arm --endian little --cpu ARM926EJ-S --stack_align   #
#                       4 --interwork -e --fpu None --dlib_config            #
#                       "C:\arm2\Embedded Workbench 4.0                      #
#                       Evaluation\ARM\LIB\dl5tpainl8f.h" -I                 #
#                       "C:\arm2\Embedded Workbench 4.0                      #
#                       Evaluation\ARM\INC\" --inline_threshold=2            #
#    List file       =  C:\arm\vNes_sound\release_ELKA\List\Nes.lst          #
#    Object file     =  C:\arm\vNes_sound\release_ELKA\Obj\Nes.r79           #
#                                                                            #
#                                                                            #
##############################################################################

C:\arm\vNes_sound\Nes.c
      1          
      2          //NES emulator
      3          
      4          #include "nes.h"

   \                                 In segment CODE, align 4, keep-with-next
   \   __??Code32?? __code __interwork __atpcs void serviceRepaints()
   \                     serviceRepaints:
   \   00000000   1EFF2FE1           BX       LR               ;; return

   \                                 In segment DATA_Z, align 4, align-sorted
   \   int *__data main_a_int_array1d_fld
   \                     main_a_int_array1d_fld:
   \   00000000                      DS8 4

   \                                 In segment CODE, align 4, keep-with-next
   \   __??Code32?? __code __interwork __atpcs void Systemgc()
   \                     Systemgc:
   \   00000000   1EFF2FE1           BX       LR               ;; return

   \                                 In segment CODE, align 4, keep-with-next
   \   __??Code32?? __code __interwork __atpcs long SystemcurrentTimeMillis()
   \                     SystemcurrentTimeMillis:
   \   00000000   0000A0E3           MOV      R0,#+0
   \   00000004   1EFF2FE1           BX       LR               ;; return

   \                                 In segment CODE, align 4, keep-with-next
   \   __??Code32?? __code __interwork __atpcs long SysTimer()
   \                     SysTimer:
   \   00000000   ........           LDR      R0,??DataTable0  ;; 0xfffffffff4b00018
   \   00000004   000090E5           LDR      R0,[R0, #+0]
   \   00000008   1EFF2FE1           BX       LR               ;; return

   \                                 In segment CODE, align 4, keep-with-next
   \   __??Code32?? __code __interwork __atpcs void Systemarraycopy(void *, int, void *, int, int)
   \                     Systemarraycopy:
   \   00000000   00402DE9           PUSH     {LR}
   \   00000004   02C0A0E1           MOV      R12,R2
   \   00000008   04209DE5           LDR      R2,[SP, #+4]
   \   0000000C   001081E0           ADD      R1,R1,R0
   \   00000010   0C0083E0           ADD      R0,R3,R12
   \   00000014   320100EF           SWI      +306
   \   00000018   0080BDE8           POP      {PC}             ;; return

   \                                 In segment CODE, align 4, keep-with-next
   \   __??Code32?? __code __interwork __atpcs void flush()
   \                     flush:
   \   00000000   10402DE9           PUSH     {R4,LR}
   \   00000004   ........           LDR      R4,??DataTable4  ;; ebuf
   \   00000008   04D04DE2           SUB      SP,SP,#+4
   \   0000000C   000094E5           LDR      R0,[R4, #+0]
   \   00000010   0C1084E2           ADD      R1,R4,#+12
   \   00000014   012040E0           SUB      R2,R0,R1
   \   00000018   040094E5           LDR      R0,[R4, #+4]
   \   0000001C   0D30A0E1           MOV      R3,SP
   \   00000020   0C0000EF           SWI      +12
   \   00000024   0C0084E2           ADD      R0,R4,#+12
   \   00000028   000084E5           STR      R0,[R4, #+0]
   \   0000002C   1180BDE8           POP      {R0,R4,PC}       ;; return

   \                                 In segment CODE, align 4, keep-with-next
   \   __??Code32?? __code __interwork __atpcs void bytearrayoutputstreamwrite(int)
   \                     bytearrayoutputstreamwrite:
   \   00000000   30402DE9           PUSH     {R4,R5,LR}
   \   00000004   ........           LDR      R5,??DataTable4  ;; ebuf
   \   00000008   0040A0E1           MOV      R4,R0
   \   0000000C   000095E5           LDR      R0,[R5, #+0]
   \   00000010   0C10A0E3           MOV      R1,#+12
   \   00000014   801D81E3           ORR      R1,R1,#0x2000
   \   00000018   051081E0           ADD      R1,R1,R5
   \   0000001C   010050E1           CMP      R0,R1
   \   00000020   0000003A           BCC      ??bytearrayoutputstreamwrite_0
   \   00000024   ........           BL       flush
   \                     ??bytearrayoutputstreamwrite_0:
   \   00000028   000095E5           LDR      R0,[R5, #+0]
   \   0000002C   0040C0E5           STRB     R4,[R0, #+0]
   \   00000030   000095E5           LDR      R0,[R5, #+0]
   \   00000034   010080E2           ADD      R0,R0,#+1
   \   00000038   000085E5           STR      R0,[R5, #+0]
   \   0000003C   3080BDE8           POP      {R4,R5,PC}       ;; return

   \                                 In segment CODE, align 4, keep-with-next
   \   __??Code32?? __code __interwork __atpcs int bytearrayinputstreamread()
   \                     bytearrayinputstreamread:
   \   00000000   10402DE9           PUSH     {R4,LR}
   \   00000004   ........           LDR      R4,??DataTable4  ;; ebuf
   \   00000008   04D04DE2           SUB      SP,SP,#+4
   \   0000000C   000094E5           LDR      R0,[R4, #+0]
   \   00000010   0C10A0E3           MOV      R1,#+12
   \   00000014   801D81E3           ORR      R1,R1,#0x2000
   \   00000018   041081E0           ADD      R1,R1,R4
   \   0000001C   010050E1           CMP      R0,R1
   \   00000020   0600003A           BCC      ??bytearrayinputstreamread_0
   \   00000024   040094E5           LDR      R0,[R4, #+4]
   \   00000028   0D30A0E1           MOV      R3,SP
   \   0000002C   802DA0E3           MOV      R2,#+8192
   \   00000030   0C1084E2           ADD      R1,R4,#+12
   \   00000034   0B0000EF           SWI      +11
   \   00000038   0C0084E2           ADD      R0,R4,#+12
   \   0000003C   000084E5           STR      R0,[R4, #+0]
   \                     ??bytearrayinputstreamread_0:
   \   00000040   000094E5           LDR      R0,[R4, #+0]
   \   00000044   011080E2           ADD      R1,R0,#+1
   \   00000048   001084E5           STR      R1,[R4, #+0]
   \   0000004C   0000D0E5           LDRB     R0,[R0, #+0]
   \   00000050   1280BDE8           POP      {R1,R4,PC}       ;; return

   \                                 In segment CODE, align 4, keep-with-next
   \   __??Code32?? __code __interwork __atpcs int openstream(int)
   \                     openstream:
   \   00000000   30402DE9           PUSH     {R4,R5,LR}
   \   00000004   ........           LDR      R4,??DataTable4  ;; ebuf
   \   00000008   04D04DE2           SUB      SP,SP,#+4
   \   0000000C   080084E5           STR      R0,[R4, #+8]
   \   00000010   081094E5           LDR      R1,[R4, #+8]
   \   00000014   74009FE5           LDR      R0,??openstream_0  ;; romname
   \   00000018   0050E0E3           MVN      R5,#+0
   \   0000001C   000051E3           CMP      R1,#+0
   \   00000020   0D00000A           BEQ      ??openstream_1
   \   00000024   0D30A0E1           MOV      R3,SP
   \   00000028   402FA0E3           MOV      R2,#+256
   \   0000002C   0110A0E3           MOV      R1,#+1
   \   00000030   831C81E3           ORR      R1,R1,#0x8300
   \   00000034   0A0000EF           SWI      +10
   \   00000038   040084E5           STR      R0,[R4, #+4]
   \   0000003C   050050E1           CMP      R0,R5
   \   00000040   0100001A           BNE      ??openstream_2
   \                     ??openstream_3:
   \   00000044   0500A0E1           MOV      R0,R5
   \   00000048   3280BDE8           POP      {R1,R4,R5,PC}
   \                     ??openstream_2:
   \   0000004C   0C0084E2           ADD      R0,R4,#+12
   \   00000050   000084E5           STR      R0,[R4, #+0]
   \   00000054   040094E5           LDR      R0,[R4, #+4]
   \   00000058   3280BDE8           POP      {R1,R4,R5,PC}
   \                     ??openstream_1:
   \   0000005C   0C10A0E3           MOV      R1,#+12
   \   00000060   801D81E3           ORR      R1,R1,#0x2000
   \   00000064   041081E0           ADD      R1,R1,R4
   \   00000068   001084E5           STR      R1,[R4, #+0]
   \   0000006C   0D30A0E1           MOV      R3,SP
   \   00000070   8020A0E3           MOV      R2,#+128
   \   00000074   801CA0E3           MOV      R1,#+32768
   \   00000078   0A0000EF           SWI      +10
   \   0000007C   040084E5           STR      R0,[R4, #+4]
   \   00000080   050050E1           CMP      R0,R5
   \   00000084   EEFFFF0A           BEQ      ??openstream_3
   \   00000088   040094E5           LDR      R0,[R4, #+4]
   \   0000008C   3280BDE8           POP      {R1,R4,R5,PC}    ;; return
   \                     ??openstream_0:
   \   00000090   ........           DC32     romname

   \                                 In segment CODE, align 4, keep-with-next
   \   __??Code32?? __code __interwork __atpcs void closestream()
   \                     closestream:
   \   00000000   10402DE9           PUSH     {R4,LR}
   \   00000004   20409FE5           LDR      R4,??closestream_0  ;; ebuf
   \   00000008   04D04DE2           SUB      SP,SP,#+4
   \   0000000C   080094E5           LDR      R0,[R4, #+8]
   \   00000010   000050E3           CMP      R0,#+0
   \   00000014   0000000A           BEQ      ??closestream_1
   \   00000018   ........           BL       flush
   \                     ??closestream_1:
   \   0000001C   040094E5           LDR      R0,[R4, #+4]
   \   00000020   0D10A0E1           MOV      R1,SP
   \   00000024   0D0000EF           SWI      +13
   \   00000028   1180BDE8           POP      {R0,R4,PC}       ;; return
   \                     ??closestream_0:
   \   0000002C   ........           DC32     ebuf

   \                                 In segment DATA_Z, align 4, align-sorted
      5          unsigned char PSG[25];
   \                     PSG:
   \   00000000                      DS8 28
      6          
      7          extern long LastTmrVal;
      8           void APUWrite( unsigned short address, unsigned char data );
      9          extern int loadfilesize;
     10          extern char *loadfile(char *filename);
     11          int nn; //temp
     12            
     13          
     14          
     15              static int b_int_static_fld = 128;
     16              static int Z = 0;
     17              static int f_int_static_fld = 0;
     18              static int n_int_static_fld = 0;
     19              static int Q = 0;
     20              static int w = 0;
     21              static int P;
     22              static int ad;
     23              static int ab = 0;
     24              static int S = 0;
     25              static int R = 0;
     26              static int o_int_static_fld = 0;
     27              static int L = 128;
     28              static int b_int_array1d_static_fld[8];
     29              static int e_int_static_fld = 0;
     30              static int H = 0;
     31          //    static const char *a_java_lang_String_array1d_static_fld[] = {
     32          //        "Up", "Down", "Left", "Right", "A", "B", "Start", "Select", "AA", "BB", 
     33          //        "Trigger", "Quick Save", "Quick Load", "FullScreen"
     34          //    };
     35              static int key[] = {
     36                  50, 56, 52, 54, 49, 51, 
     37                  53, 48, 55, 57, 
     38                  35, 0, 0, 42
     39              };
     40             // '2'=10 8=20 4=40 6=80 1=1 3=2 0=8 7=4
     41              static int O = 0;
     42              static int g_int_static_fld = 0;
     43              static int ac = 0;
     44              static int N = 0;
     45              static int s_int_static_fld = 0;
     46              static int v_int_static_fld = 0;
     47              int B = 100;
     48              static int z = 0;
     49              static boolean q_boolean_static_fld = true;
     50              static boolean a_boolean_static_fld = false;
     51              static boolean r_boolean_static_fld = false;
     52              static boolean i_boolean_static_fld = false;
     53              static int aa = -1;
     54              static int I = 0;
     55              static boolean e_boolean_static_fld = false;
     56              static int F = 0;
     57              int k_int_static_fld = 0;
     58              static int a_int_static_fld = 0;
     59              static int X = 0;
     60              boolean o_boolean_static_fld = false;
     61              static char *a_java_lang_String_static_fld = null;
     62              static int y = 0;
     63              static int D = 0;
     64              static int c_int_static_fld = 0;
     65              static byte *vram=0;//free?
     66              static boolean f_boolean_static_fld = false;
     67              static boolean g_boolean_static_fld = false;
     68              static int T = 0;
     69              static int W = 0;
     70              static int U = 0;
     71              static int d_int_static_fld = 0;
     72              static int m_int_static_fld = 0;
     73              static long c_long_static_fld;
     74              static long b_long_static_fld;
     75              static int i_int_static_fld = 0;
     76              static int u_int_static_fld = 0;
     77              static int K = -1;
     78              static int t_int_static_fld = -1;
     79              boolean t_boolean_static_fld = true;
     80              static ushort j_int_array1d_static_fld[32];
     81              static ushort g_int_array1d_static_fld[64];
     82              static int e_int_array1d_static_fld[32];
     83              static boolean p_boolean_static_fld = false;
     84          //    static NESx65 main;
     85              static int x = 1;
     86              static boolean b_boolean_static_fld = false;
     87              static int i_int_array1d_static_fld[12];
     88              static int l_int_array1d_static_fld[8];
     89              static ushort *a_char_array1d_static_fld=0; //free!
     90              static int j_int_static_fld = 0;
     91              //static byte a_byte_array1d_static_fld[];
     92              static int q_int_static_fld = 0;
     93              static int E = 0;
     94              static int G = 0;
     95              static int J = 1;
     96              static int Y = 0;
     97              static boolean u_boolean_static_fld = false;
     98              int A = 5;
     99              static int d_int_array1d_static_fld[8];//=0; //free?????
    100              boolean v_boolean_static_fld = false;
    101              static boolean h_boolean_static_fld = false;
    102              static char *b_java_lang_String_static_fld;
    103              static boolean m_boolean_static_fld = false;
    104              static boolean s_boolean_static_fld = false;
    105              boolean d_boolean_static_fld = false;
    106              static boolean k_boolean_static_fld = false;
    107              static int V = 4;
    108              static int p_int_static_fld = 0;
    109              static byte d_byte_array1d_static_fld[256];
    110              static int C = 0;
    111              static boolean n_boolean_static_fld = false;
    112              static long a_long_static_fld = 0L;
    113              static byte *b_byte_array1d_static_fld=0; //free

   \                                 In segment DATA_C, align 4, align-sorted
    114              static const ushort a_short_array1d_static_fld[] = {
   \                     a_short_array1d_static_fld:
   \   00000000   000011002300       DC16 0, 17, 35, 52, 70, 87, 105, 122, 139, 156, 174, 191, 208, 225, 242
   \              340046005700
   \              69007A008B00
   \              9C00AE00BF00
   \              D000E100F200
   \   0000001E   030114012401       DC16 259, 276, 292, 309, 326, 342, 358, 375, 391, 407, 423, 438, 454
   \              350146015601
   \              660177018701
   \              9701A701B601
   \              C601        
   \   00000038   D501E501F401       DC16 469, 485, 500, 515, 530, 545, 559, 574, 588, 602, 616, 629, 643
   \              030212022102
   \              2F023E024C02
   \              5A0268027502
   \              8302        
   \   00000052   90029D02AA02       DC16 656, 669, 682, 695, 707, 719, 731, 743, 755, 766, 777, 788, 799
   \              B702C302CF02
   \              DB02E702F302
   \              FE0209031403
   \              1F03        
   \   0000006C   290333033D03       DC16 809, 819, 829, 839, 848, 857, 866, 875, 883, 891, 899, 906, 914
   \              470350035903
   \              62036B037303
   \              7B0383038A03
   \              9203        
   \   00000086   99039F03A603       DC16 921, 927, 934, 940, 946, 951, 956, 961, 966, 970, 974, 978, 982
   \              AC03B203B703
   \              BC03C103C603
   \              CA03CE03D203
   \              D603        
   \   000000A0   D903DC03DE03       DC16 985, 988, 990, 993, 995, 996, 998, 999, 999, 1000, 1000
   \              E103E303E403
   \              E603E703E703
   \              E803E803    
   \   000000B6   0000               DC8 0, 0
    115                  0, 17, 35, 52, 70, 87, 105, 122, 139, 156, 
    116                  174, 191, 208, 225, 242, 259, 276, 292, 309, 326, 
    117                  342, 358, 375, 391, 407, 423, 438, 454, 469, 485, 
    118                  500, 515, 530, 545, 559, 574, 588, 602, 616, 629, 
    119                  643, 656, 669, 682, 695, 707, 719, 731, 743, 755, 
    120                  766, 777, 788, 799, 809, 819, 829, 839, 848, 857, 
    121                  866, 875, 883, 891, 899, 906, 914, 921, 927, 934, 
    122                  940, 946, 951, 956, 961, 966, 970, 974, 978, 982, 
    123                  985, 988, 990, 993, 995, 996, 998, 999, 999, 1000, 
    124                  1000
    125              };
    126              static boolean c_boolean_static_fld = false;
    127              boolean l_boolean_static_fld = false;
    128              boolean j_boolean_static_fld = false;
    129              ushort *screens=0; //free screen!!!
    130              static int h_int_static_fld;
    131              static int r_int_static_fld;
    132              static int c_int_array1d_static_fld[260];
    133              static int h_int_array1d_static_fld[276];

   \                                 In segment DATA_Z, align 4, align-sorted
    134              static int f_int_array1d_static_fld[276];
   \                     f_int_array1d_static_fld:
   \   00000000                      DS8 1104

   \                                 In segment DATA_I, align 4, align-sorted
   \                     j_int_array1d_static_fld:
   \   00000000                      DS8 64
   \   00000040                      REQUIRE `?<Initializer for j_int_array1d_static_fld>`
   \   00000040                      DS8 128
   \   000000C0                      REQUIRE `?<Initializer for g_int_array1d_static_fld>`
   \   000000C0                      DS8 1104
   \   00000510                      REQUIRE `?<Initializer for h_int_array1d_static_fld>`
   \   00000510                      DS8 1040
   \   00000920                      REQUIRE `?<Initializer for c_int_array1d_static_fld>`
   \   00000920                      DS8 56
   \   00000958                      REQUIRE `?<Initializer for key>`
   \   00000958                      DS8 48
   \   00000988                      REQUIRE `?<Initializer for i_int_array1d_static_fld>`
   \   00000988                      DS8 32
   \   000009A8                      REQUIRE `?<Initializer for b_int_array1d_static_fld>`
   \   000009A8                      DS8 32
   \   000009C8                      REQUIRE `?<Initializer for d_int_array1d_static_fld>`
   \   int __data main_a_int_fld
   \                     main_a_int_fld:
   \   000009C8                      DS8 4
   \   000009CC                      REQUIRE `?<Initializer for main_a_int_fld>`
   \   int __data main_c_int_fld
   \                     main_c_int_fld:
   \   000009CC                      DS8 4
   \   000009D0                      REQUIRE `?<Initializer for main_c_int_fld>`
   \   int __data getWidth
   \                     getWidth:
   \   000009D0                      DS8 4
   \   000009D4                      REQUIRE `?<Initializer for getWidth>`
   \   int __data getHeight
   \                     getHeight:
   \   000009D4                      DS8 4
   \   000009D8                      REQUIRE `?<Initializer for getHeight>`
   \   int __data screen_length
   \                     screen_length:
   \   000009D8                      DS8 4
   \   000009DC                      REQUIRE `?<Initializer for screen_length>`
   \                     nn:
   \   000009DC                      DS8 4
   \   000009E0                      REQUIRE `?<Initializer for nn>`
   \   000009E0                      DS8 4
   \   000009E4                      REQUIRE `?<Initializer for b_int_static_fld>`
   \   000009E4                      DS8 4
   \   000009E8                      REQUIRE `?<Initializer for Z>`
   \   000009E8                      DS8 4
   \   000009EC                      REQUIRE `?<Initializer for f_int_static_fld>`
   \   000009EC                      DS8 4
   \   000009F0                      REQUIRE `?<Initializer for n_int_static_fld>`
   \   000009F0                      DS8 4
   \   000009F4                      REQUIRE `?<Initializer for Q>`
   \   000009F4                      DS8 4
   \   000009F8                      REQUIRE `?<Initializer for w>`
   \   000009F8                      DS8 4
   \   000009FC                      REQUIRE `?<Initializer for P>`
   \   000009FC                      DS8 4
   \   00000A00                      REQUIRE `?<Initializer for ad>`
   \   00000A00                      DS8 4
   \   00000A04                      REQUIRE `?<Initializer for ab>`
   \   00000A04                      DS8 4
   \   00000A08                      REQUIRE `?<Initializer for S>`
   \   00000A08                      DS8 4
   \   00000A0C                      REQUIRE `?<Initializer for R>`
   \   00000A0C                      DS8 4
   \   00000A10                      REQUIRE `?<Initializer for o_int_static_fld>`
   \   00000A10                      DS8 4
   \   00000A14                      REQUIRE `?<Initializer for L>`
   \   00000A14                      DS8 4
   \   00000A18                      REQUIRE `?<Initializer for e_int_static_fld>`
   \   00000A18                      DS8 4
   \   00000A1C                      REQUIRE `?<Initializer for H>`
   \   00000A1C                      DS8 4
   \   00000A20                      REQUIRE `?<Initializer for O>`
   \   00000A20                      DS8 4
   \   00000A24                      REQUIRE `?<Initializer for g_int_static_fld>`
   \   00000A24                      DS8 4
   \   00000A28                      REQUIRE `?<Initializer for ac>`
   \   00000A28                      DS8 4
   \   00000A2C                      REQUIRE `?<Initializer for N>`
   \   00000A2C                      DS8 4
   \   00000A30                      REQUIRE `?<Initializer for s_int_static_fld>`
   \   00000A30                      DS8 4
   \   00000A34                      REQUIRE `?<Initializer for v_int_static_fld>`
   \                     `B`:
   \   00000A34                      DS8 4
   \   00000A38                      REQUIRE `?<Initializer for B>`
   \   00000A38                      DS8 4
   \   00000A3C                      REQUIRE `?<Initializer for aa>`
   \   00000A3C                      DS8 4
   \   00000A40                      REQUIRE `?<Initializer for I>`
   \   00000A40                      DS8 4
   \   00000A44                      REQUIRE `?<Initializer for F>`
   \                     k_int_static_fld:
   \   00000A44                      DS8 4
   \   00000A48                      REQUIRE `?<Initializer for k_int_static_fld>`
   \   00000A48                      DS8 4
   \   00000A4C                      REQUIRE `?<Initializer for a_int_static_fld>`
   \   00000A4C                      DS8 4
   \   00000A50                      REQUIRE `?<Initializer for X>`
   \   00000A50                      DS8 4
   \   00000A54                      REQUIRE `?<Initializer for y>`
   \   00000A54                      DS8 4
   \   00000A58                      REQUIRE `?<Initializer for D>`
   \   00000A58                      DS8 4
   \   00000A5C                      REQUIRE `?<Initializer for c_int_static_fld>`
   \   00000A5C                      DS8 4
   \   00000A60                      REQUIRE `?<Initializer for vram>`
   \   00000A60                      DS8 4
   \   00000A64                      REQUIRE `?<Initializer for T>`
   \   00000A64                      DS8 4
   \   00000A68                      REQUIRE `?<Initializer for W>`
   \   00000A68                      DS8 4
   \   00000A6C                      REQUIRE `?<Initializer for U>`
   \   00000A6C                      DS8 4
   \   00000A70                      REQUIRE `?<Initializer for d_int_static_fld>`
   \   00000A70                      DS8 4
   \   00000A74                      REQUIRE `?<Initializer for m_int_static_fld>`
   \   00000A74                      DS8 4
   \   00000A78                      REQUIRE `?<Initializer for c_long_static_fld>`
   \   00000A78                      DS8 4
   \   00000A7C                      REQUIRE `?<Initializer for i_int_static_fld>`
   \   00000A7C                      DS8 4
   \   00000A80                      REQUIRE `?<Initializer for K>`
   \   00000A80                      DS8 4
   \   00000A84                      REQUIRE `?<Initializer for t_int_static_fld>`
   \   00000A84                      DS8 128
   \   00000B04                      REQUIRE `?<Initializer for e_int_array1d_static_fld>`
   \   00000B04                      DS8 4
   \   00000B08                      REQUIRE `?<Initializer for x>`
   \   00000B08                      DS8 32
   \   00000B28                      REQUIRE `?<Initializer for l_int_array1d_static_fld>`
   \   00000B28                      DS8 4
   \   00000B2C                      REQUIRE `?<Initializer for a_char_array1d_static_fld>`
   \   00000B2C                      DS8 4
   \   00000B30                      REQUIRE `?<Initializer for j_int_static_fld>`
   \   00000B30                      DS8 4
   \   00000B34                      REQUIRE `?<Initializer for q_int_static_fld>`
   \   00000B34                      DS8 4
   \   00000B38                      REQUIRE `?<Initializer for E>`
   \   00000B38                      DS8 4
   \   00000B3C                      REQUIRE `?<Initializer for G>`
   \   00000B3C                      DS8 4
   \   00000B40                      REQUIRE `?<Initializer for J>`
   \   00000B40                      DS8 4
   \   00000B44                      REQUIRE `?<Initializer for Y>`
   \                     A:
   \   00000B44                      DS8 4
   \   00000B48                      REQUIRE `?<Initializer for A>`
   \   00000B48                      DS8 4
   \   00000B4C                      REQUIRE `?<Initializer for V>`
   \   00000B4C                      DS8 4
   \   00000B50                      REQUIRE `?<Initializer for p_int_static_fld>`
   \   00000B50                      DS8 256
   \   00000C50                      REQUIRE `?<Initializer for d_byte_array1d_static_fld>`
   \   00000C50                      DS8 4
   \   00000C54                      REQUIRE `?<Initializer for C>`
   \   00000C54                      DS8 4
   \   00000C58                      REQUIRE `?<Initializer for a_long_static_fld>`
   \   00000C58                      DS8 4
   \   00000C5C                      REQUIRE `?<Initializer for b_byte_array1d_static_fld>`
   \                     screens:
   \   00000C5C                      DS8 4
   \   00000C60                      REQUIRE `?<Initializer for screens>`
   \   00000C60                      DS8 4
   \   00000C64                      REQUIRE `?<Initializer for h_int_static_fld>`
   \   00000C64                      DS8 4
   \   00000C68                      REQUIRE `?<Initializer for r_int_static_fld>`
   \   00000C68                      DS8 4
   \   00000C6C                      REQUIRE `?<Initializer for l_int_static_fld>`
   \   00000C6C                      DS8 4
   \   00000C70                      REQUIRE `?<Initializer for M>`
   \   00000C70                      DS8 4
   \   00000C74                      REQUIRE `?<Initializer for ram>`
   \   00000C74                      DS8 4
   \   00000C78                      REQUIRE `?<Initializer for ramsize>`
    135              static boolean b_boolean_array1d_static_fld[260];
    136              static boolean a_boolean_array1d_static_fld[276];
    137              static int l_int_static_fld = -1;
    138              static int M = 0;
    139              static int ram=0, ramsize=0;
    140              int keyindex=-1;
   \                     keyindex:
   \   00000C78                      DS8 4
   \   00000C7C                      REQUIRE `?<Initializer for keyindex>`
   \   char __data main_b_boolean_fld
   \                     main_b_boolean_fld:
   \   00000C7C                      DS8 1
   \   00000C7D                      REQUIRE `?<Initializer for main_b_boolean_fld>`
   \   00000C7D                      DS8 1
   \   00000C7E                      REQUIRE `?<Initializer for q_boolean_static_fld>`
   \   00000C7E                      DS8 1
   \   00000C7F                      REQUIRE `?<Initializer for r_boolean_static_fld>`
   \   00000C7F                      DS8 1
   \   00000C80                      REQUIRE `?<Initializer for i_boolean_static_fld>`
   \   00000C80                      DS8 1
   \   00000C81                      REQUIRE `?<Initializer for e_boolean_static_fld>`
   \                     o_boolean_static_fld:
   \   00000C81                      DS8 1
   \   00000C82                      REQUIRE `?<Initializer for o_boolean_static_fld>`
   \   00000C82                      DS8 1
   \   00000C83                      REQUIRE `?<Initializer for f_boolean_static_fld>`
   \   00000C83                      DS8 1
   \   00000C84                      REQUIRE `?<Initializer for g_boolean_static_fld>`
   \                     t_boolean_static_fld:
   \   00000C84                      DS8 1
   \   00000C85                      REQUIRE `?<Initializer for t_boolean_static_fld>`
   \   00000C85                      DS8 1
   \   00000C86                      REQUIRE `?<Initializer for p_boolean_static_fld>`
   \   00000C86                      DS8 1
   \   00000C87                      REQUIRE `?<Initializer for b_boolean_static_fld>`
   \                     v_boolean_static_fld:
   \   00000C87                      DS8 1
   \   00000C88                      REQUIRE `?<Initializer for v_boolean_static_fld>`
   \   00000C88                      DS8 1
   \   00000C89                      REQUIRE `?<Initializer for h_boolean_static_fld>`
   \                     d_boolean_static_fld:
   \   00000C89                      DS8 1
   \   00000C8A                      REQUIRE `?<Initializer for d_boolean_static_fld>`
   \   00000C8A                      DS8 1
   \   00000C8B                      REQUIRE `?<Initializer for n_boolean_static_fld>`
   \   00000C8B                      DS8 1
   \   00000C8C                      REQUIRE `?<Initializer for c_boolean_static_fld>`
   \                     l_boolean_static_fld:
   \   00000C8C                      DS8 1
   \   00000C8D                      REQUIRE `?<Initializer for l_boolean_static_fld>`
   \                     j_boolean_static_fld:
   \   00000C8D                      DS8 1
   \   00000C8E                      REQUIRE `?<Initializer for j_boolean_static_fld>`
   \   00000C8E                      DS8 2
   \   00000C90                      DS8 260
   \   00000D94                      REQUIRE `?<Initializer for b_boolean_array1d_static_fld`
   \   00000D94                      DS8 276
   \   00000EA8                      REQUIRE `?<Initializer for a_boolean_array1d_static_fld`

   \                                 In segment DATA_I, align 4, align-sorted
   \   unsigned char *__data ebuf
   \                     ebuf:
   \   00000000                      DS8 4
   \   00000004                      REQUIRE `?<Initializer for ebuf>`
   \   int __data stream
   \                     stream:
   \   00000004                      DS8 4
   \   00000008                      REQUIRE `?<Initializer for stream>`
   \   int __data streammode
   \                     streammode:
   \   00000008                      DS8 4
   \   0000000C                      REQUIRE `?<Initializer for streammode>`
   \   unsigned char __data sbuf[8192]
   \                     sbuf:
   \   0000000C                      DS8 8192
   \   0000200C                      REQUIRE `?<Initializer for sbuf>`

   \                                 In segment DATA_Z, align 4, align-sorted
    141              char *fmessage=null;
   \                     fmessage:
   \   00000000                      DS8 4
    142          
    143          
    144          
    145          

   \                                 In segment CODE, align 4, keep-with-next
    146              static void k() {
    147                  xxxxb((m_int_static_fld << 5) + (Z & 0x1f), (m_int_static_fld << 5) + (f_int_static_fld & 0x1f), (m_int_static_fld << 5) + (n_int_static_fld & 0x1f), (m_int_static_fld << 5) + (Q & 0x1f));
   \                     k:
   \   00000000   ........           LDR      R0,??DataTable7  ;; j_int_array1d_static_fld
   \   00000004   701A90E5           LDR      R1,[R0, #+2672]
   \   00000008   81C2A0E1           LSL      R12,R1,#+5
   \   0000000C   F01990E5           LDR      R1,[R0, #+2544]
   \   00000010   1F1001E2           AND      R1,R1,#0x1F
   \   00000014   0C3081E0           ADD      R3,R1,R12
   \   00000018   EC1990E5           LDR      R1,[R0, #+2540]
   \   0000001C   1F1001E2           AND      R1,R1,#0x1F
   \   00000020   0C2081E0           ADD      R2,R1,R12
   \   00000024   E81990E5           LDR      R1,[R0, #+2536]
   \   00000028   E40990E5           LDR      R0,[R0, #+2532]
   \   0000002C   1F1001E2           AND      R1,R1,#0x1F
   \   00000030   0C1081E0           ADD      R1,R1,R12
   \   00000034   1F0000E2           AND      R0,R0,#0x1F
   \   00000038   0C0080E0           ADD      R0,R0,R12
   \   0000003C   ........           B        xxxxb            ;; tailcall
    148              }
    149          

   \                                 In segment CODE, align 4, keep-with-next
    150              static void f() {
    151                  if(abool())
   \                     f:
   \   00000000   ........           LDR      R2,??DataTable7  ;; j_int_array1d_static_fld
   \   00000004   FC1992E5           LDR      R1,[R2, #+2556]
   \   00000008   38CB92E5           LDR      R12,[R2, #+2872]
   \   0000000C   020041E2           SUB      R0,R1,#+2
   \   00000010   013041E2           SUB      R3,R1,#+1
   \   00000014   3C1B92E5           LDR      R1,[R2, #+2876]
   \   00000018   A82992E5           LDR      R2,[R2, #+2472]
   \   0000001C   400012E3           TST      R2,#0x40
    152                      xxxxb(ad - 2, J, G, ad - 1);
   \   00000020   0C20A011           MOVNE    R2,R12
    153                  else
    154                      xxxxb(G, J, ad - 2, ad - 1);
   \   00000024   0020A001           MOVEQ    R2,R0
   \   00000028   0C00A001           MOVEQ    R0,R12
   \   0000002C   ........           B        xxxxb            ;; tailcall
    155              }
    156          

   \                                 In segment CODE, align 4, keep-with-next
    157              static void l() {
    158                  if(P != 0) {
   \                     l:
   \   00000000   ........           LDR      R0,??DataTable7  ;; j_int_array1d_static_fld
   \   00000004   F04F2DE9           PUSH     {R4-R11,LR}
   \   00000008   1C4A90E5           LDR      R4,[R0, #+2588]
   \   0000000C   206A90E5           LDR      R6,[R0, #+2592]
   \   00000010   248A90E5           LDR      R8,[R0, #+2596]
   \   00000014   289A90E5           LDR      R9,[R0, #+2600]
   \   00000018   2CAA90E5           LDR      R10,[R0, #+2604]
   \   0000001C   30BA90E5           LDR      R11,[R0, #+2608]
   \   00000020   A81990E5           LDR      R1,[R0, #+2472]
   \   00000024   F80990E5           LDR      R0,[R0, #+2552]
   \   00000028   015084E2           ADD      R5,R4,#+1
   \   0000002C   017086E2           ADD      R7,R6,#+1
   \   00000030   000050E3           CMP      R0,#+0
   \   00000034   1700000A           BEQ      ??l_0
    159                      if(bbool())
   \   00000038   800011E3           TST      R1,#0x80
   \   0000003C   0A00000A           BEQ      ??l_1
    160                          avoid8int(ac, N, s_int_static_fld, v_int_static_fld, O, O + 1, g_int_static_fld, g_int_static_fld + 1);
   \   00000040   80002DE9           PUSH     {R7}
   \   00000044   40002DE9           PUSH     {R6}
   \   00000048   20002DE9           PUSH     {R5}
   \   0000004C   10002DE9           PUSH     {R4}
   \   00000050   0B30A0E1           MOV      R3,R11
   \   00000054   0A20A0E1           MOV      R2,R10
   \   00000058   0910A0E1           MOV      R1,R9
   \   0000005C   0800A0E1           MOV      R0,R8
   \   00000060   ........           BL       avoid8int
   \   00000064   10D08DE2           ADD      SP,SP,#+16
   \   00000068   F08FBDE8           POP      {R4-R11,PC}
    161                      else
    162                          avoid8int(O, O + 1, g_int_static_fld, g_int_static_fld + 1, ac, N, s_int_static_fld, v_int_static_fld);
   \                     ??l_1:
   \   0000006C   00082DE9           PUSH     {R11}
   \   00000070   00042DE9           PUSH     {R10}
   \   00000074   00022DE9           PUSH     {R9}
   \   00000078   00012DE9           PUSH     {R8}
   \   0000007C   0730A0E1           MOV      R3,R7
   \   00000080   0620A0E1           MOV      R2,R6
   \   00000084   0510A0E1           MOV      R1,R5
   \   00000088   0400A0E1           MOV      R0,R4
   \   0000008C   ........           BL       avoid8int
   \   00000090   10D08DE2           ADD      SP,SP,#+16
   \   00000094   F08FBDE8           POP      {R4-R11,PC}
    163                  } else
    164                  if(bbool()) {
   \                     ??l_0:
   \   00000098   800011E3           TST      R1,#0x80
   \   0000009C   1700000A           BEQ      ??l_2
    165                      bvoid2int(0, ac);
   \   000000A0   0810A0E1           MOV      R1,R8
   \   000000A4   ........           BL       bvoid2int
    166                      bvoid2int(1, N);
   \   000000A8   0910A0E1           MOV      R1,R9
   \   000000AC   0100A0E3           MOV      R0,#+1
   \   000000B0   ........           BL       bvoid2int
    167                      bvoid2int(2, s_int_static_fld);
   \   000000B4   0A10A0E1           MOV      R1,R10
   \   000000B8   0200A0E3           MOV      R0,#+2
   \   000000BC   ........           BL       bvoid2int
    168                      bvoid2int(3, v_int_static_fld);
   \   000000C0   0B10A0E1           MOV      R1,R11
   \   000000C4   0300A0E3           MOV      R0,#+3
   \   000000C8   ........           BL       bvoid2int
    169                      bvoid2int(4, O + 0);
   \   000000CC   0410A0E1           MOV      R1,R4
   \   000000D0   0400A0E3           MOV      R0,#+4
   \   000000D4   ........           BL       bvoid2int
    170                      bvoid2int(5, O + 1);
   \   000000D8   0510A0E1           MOV      R1,R5
   \   000000DC   0500A0E3           MOV      R0,#+5
   \   000000E0   ........           BL       bvoid2int
    171                      bvoid2int(6, g_int_static_fld + 0);
   \   000000E4   0610A0E1           MOV      R1,R6
   \   000000E8   0600A0E3           MOV      R0,#+6
   \   000000EC   ........           BL       bvoid2int
    172                      bvoid2int(7, g_int_static_fld + 1);
   \   000000F0   0710A0E1           MOV      R1,R7
   \   000000F4   0700A0E3           MOV      R0,#+7
   \   000000F8   ........           BL       bvoid2int
   \   000000FC   F08FBDE8           POP      {R4-R11,PC}
    173                  } else {
    174                      bvoid2int(0, O + 0);
   \                     ??l_2:
   \   00000100   0410A0E1           MOV      R1,R4
   \   00000104   ........           BL       bvoid2int
    175                      bvoid2int(1, O + 1);
   \   00000108   0510A0E1           MOV      R1,R5
   \   0000010C   0100A0E3           MOV      R0,#+1
   \   00000110   ........           BL       bvoid2int
    176                      bvoid2int(2, g_int_static_fld + 0);
   \   00000114   0610A0E1           MOV      R1,R6
   \   00000118   0200A0E3           MOV      R0,#+2
   \   0000011C   ........           BL       bvoid2int
    177                      bvoid2int(3, g_int_static_fld + 1);
   \   00000120   0710A0E1           MOV      R1,R7
   \   00000124   0300A0E3           MOV      R0,#+3
   \   00000128   ........           BL       bvoid2int
    178                      bvoid2int(4, ac);
   \   0000012C   0810A0E1           MOV      R1,R8
   \   00000130   0400A0E3           MOV      R0,#+4
   \   00000134   ........           BL       bvoid2int
    179                      bvoid2int(5, N);
   \   00000138   0910A0E1           MOV      R1,R9
   \   0000013C   0500A0E3           MOV      R0,#+5
   \   00000140   ........           BL       bvoid2int
    180                      bvoid2int(6, s_int_static_fld);
   \   00000144   0A10A0E1           MOV      R1,R10
   \   00000148   0600A0E3           MOV      R0,#+6
   \   0000014C   ........           BL       bvoid2int
    181                      bvoid2int(7, v_int_static_fld);
   \   00000150   0B10A0E1           MOV      R1,R11
   \   00000154   0700A0E3           MOV      R0,#+7
   \   00000158   ........           BL       bvoid2int
    182                  }
    183              }
   \   0000015C   F08FBDE8           POP      {R4-R11,PC}      ;; return
    184          
    185              #pragma optimize=no_code_motion

   \                                 In segment CODE, align 4, keep-with-next
    186              void run() {
    187                  running=1;        
   \                     run:
   \   00000000   340F9FE5           LDR      R0,??run_1       ;; running
   \   00000004   F04F2DE9           PUSH     {R4-R11,LR}
    188                  byte *abyte0 = vram;
   \   00000008   30BF9FE5           LDR      R11,??run_1+0x4  ;; j_int_array1d_static_fld
   \   0000000C   DADF4DE2           SUB      SP,SP,#+872
   \   00000010   0110A0E3           MOV      R1,#+1
   \   00000014   001080E5           STR      R1,[R0, #+0]
   \   00000018   5C5A9BE5           LDR      R5,[R11, #+2652]
    189                  byte byte4,byte5,byte6,byte7,byte8,byte9,byte10,byte11,byte12,byte13,byte14;
    190                  int k7;
    191                  int i8,i9,i10,i11,i12,i13,i14,i15,i16,i17,i18,i19,i20,i21,i22,i23,i24,i25,i26,i27,i28,i29,i30,i31,i32,i33,i34,i35,i36,i37;
    192                  int j8,j9,j10,j11,j12,j13,j14,j15,j16,j17,j18,j19,j20,j21,j22,j23,j24,j25,j26,j27,j28,j29,j30,j31,j32,j33,j34,j35,j36,j37;
    193                  int k8,k9,k10,k11,k12,k13,k14,k15,k16,k17,k18,k19,k20,k21,k22,k23,k24,k25,k26,k27,k28,k29,k30,k31,k32,k33,k34,k35,k36;
    194                  int l10,l11,l12,l13,l14,l15,l16,l17,l18,l19,l20,l21,l22,l23,l24,l25,l26,l27,l28,l29,l30,l31,l32,l33,l34,l35,l36;
    195          
    196                  int i6,j6,i7,j7;
    197          
    198                  int i1 = 0;
   \   0000001C   0060A0E3           MOV      R6,#+0
    199                  int j1 = 0;
    200                  int k1 = 0;
   \   00000020   0640A0E1           MOV      R4,R6
    201                  int l1 = 0;
    202                  int i2 = 0;
   \   00000024   0410A0E1           MOV      R1,R4
   \   00000028   00108DE5           STR      R1,[SP, #+0]
    203                  byte byte0 = 4;
    204                  int j2 = 255;
   \   0000002C   FF10A0E3           MOV      R1,#+255
   \   00000030   04108DE5           STR      R1,[SP, #+4]
    205                  int k2 = 0;
    206                  int l2 = 1;
   \   00000034   0110A0E3           MOV      R1,#+1
   \   00000038   18108DE5           STR      R1,[SP, #+24]
    207                  int i3 = 0;
   \   0000003C   0410A0E1           MOV      R1,R4
   \   00000040   2C108DE5           STR      R1,[SP, #+44]
    208                  int j3 = 0;
   \   00000044   30108DE5           STR      R1,[SP, #+48]
    209                  int k3 = 0;
   \   00000048   34108DE5           STR      R1,[SP, #+52]
    210                  int l3 = 0;
   \   0000004C   0C108DE5           STR      R1,[SP, #+12]
    211                  int i4 = 0;
   \   00000050   38108DE5           STR      R1,[SP, #+56]
    212                  int j4 = -1;
   \   00000054   0110E0E1           MVN      R1,R1
   \   00000058   1C108DE5           STR      R1,[SP, #+28]
    213                  int ai[100];
    214                  int ai1[100];
    215                  int *ai2 = b_int_array1d_static_fld;
    216                  int k4 = abyte0[ai2[7] + 65532] & 0xff | (abyte0[ai2[7] + 65533] & 0xff) << 8;
   \   0000005C   A420A0E3           MOV      R2,#+164
   \   00000060   902E82E3           ORR      R2,R2,#0x900
   \   00000064   0B1092E7           LDR      R1,[R2, +R11]
   \   00000068   FC00A0E3           MOV      R0,#+252
   \   0000006C   FF0C80E3           ORR      R0,R0,#0xFF00
   \   00000070   051081E0           ADD      R1,R1,R5
   \   00000074   010080E0           ADD      R0,R0,R1
   \   00000078   D020D0E1           LDRSB    R2,[R0, #+0]
   \   0000007C   D100D0E1           LDRSB    R0,[R0, #+1]
   \   00000080   FF2002E2           AND      R2,R2,#0xFF
   \   00000084   FF0000E2           AND      R0,R0,#0xFF
   \   00000088   000482E1           ORR      R0,R2,R0, LSL #+8
   \   0000008C   08008DE5           STR      R0,[SP, #+8]
    217          
    218          //new File().debugWrite("0:/vnes","\n"+Integer.toString(i5)+" = "+Integer.toString(k4));        
    219                //debug(ai2[7],abyte0[ai2[7] + 65532]);////////////
    220                //debug(ai2[7],abyte0[ai2[7] + 65533]);
    221                  //if(true) return; //
    222                  
    223                  int l4;
    224                  int i5 = k4 + (l4 = ai2[k4 >> 13]);
   \   00000090   0010A0E1           MOV      R1,R0
   \   00000094   C116A0E1           ASR      R1,R1,#+13
   \   00000098   01118BE0           ADD      R1,R11,R1, LSL #+2
   \   0000009C   881991E5           LDR      R1,[R1, #+2440]
   \   000000A0   00A0A0E3           MOV      R10,#+0
   \   000000A4   0490A0E1           MOV      R9,R4
   \   000000A8   0470A0E1           MOV      R7,R4
   \   000000AC   10108DE5           STR      R1,[SP, #+16]
   \   000000B0   008081E0           ADD      R8,R1,R0
    225             
    226             //new File().debugWrite("0:/vnes","\n"+Integer.toString(i5)+" = "+Integer.toString(k4));
    227             
    228                  for(int j5 = 0; j5 < 100; j5++)
   \   000000B4   0400A0E1           MOV      R0,R4
   \   000000B8   761F8DE2           ADD      R1,SP,#+472
   \   000000BC   0020A0E1           MOV      R2,R0
    229                      ai1[j5] = 0;
   \                     ??run_2:
   \   000000C0   002181E7           STR      R2,[R1, +R0, LSL #+2]
   \   000000C4   010080E2           ADD      R0,R0,#+1
   \   000000C8   640050E3           CMP      R0,#+100
   \   000000CC   FBFFFFBA           BLT      ??run_2
    230          
    231                  int k5 = -50;
   \   000000D0   3110E0E3           MVN      R1,#+49
   \   000000D4   20108DE5           STR      R1,[SP, #+32]
    232                  boolean flag = true;
   \   000000D8   0110A0E3           MOV      R1,#+1
   \   000000DC   3C108DE5           STR      R1,[SP, #+60]
    233                  int l5 = 0;
   \   000000E0   0010A0E3           MOV      R1,#+0
   \   000000E4   24108DE5           STR      R1,[SP, #+36]
    234                  long l6 = SystemcurrentTimeMillis();
   \   000000E8   28108DE5           STR      R1,[SP, #+40]
   \   000000EC   0100A0E1           MOV      R0,R1
    235                  c_long_static_fld = b_long_static_fld = 0L;
    236                  boolean flag1 = false;
    237                  boolean flag2 = i_boolean_static_fld;
   \   000000F0   7F1CDBE5           LDRB     R1,[R11, #+3199]
   \   000000F4   740A8BE5           STR      R0,[R11, #+2676]
   \   000000F8   44108DE5           STR      R1,[SP, #+68]
    238                  boolean flag3 = false;
    239                  boolean flag4 = false;
    240                  m();
   \   000000FC   4A0000EA           B        ??run_3
    241                  k_int_static_fld = 0;
    242                  l_boolean_static_fld = j_boolean_static_fld = false;
    243                  s_boolean_static_fld = true;
    244                  
    245                  do {
    246                    
    247                      do {
    248           //debug("dodo",1,1);////////////          
    249                        /* frameskip */
    250                       
    251                           
    252                          boolean flag5 = k5 % A == 0;
    253                          if(t_boolean_static_fld) {
    254                              l5 = p_int_static_fld + 1;
    255                              if(l5 >= 240)
    256                                  l5 = -1;
    257                          } else
    258                          if((R & 0x18) != 0)
    259                              D = y;
    260                          for(int k6 = 0; k6 <= 261; k6++) {
    261          //debug("k6",k6,k6);////////////                                  
    262                              if(k6 == 261)
    263                                  o_int_static_fld &= 0x3f;
    264                              else
    265                              if(k6 == 241)
    266                                  o_int_static_fld |= 0x80;
    267                              else
    268                              if(k6 == 242) {
    269                                  if((S & 0x80) != 0) {
    270                                      k4 = i5 - l4;
    271                                      abyte0[j2-- + 256] = (byte)(k4 >> 8);
    272                                      abyte0[j2-- + 256] = (byte)k4;
    273                                      abyte0[j2-- + 256] = (byte)(k2 | (k1 == 0 ? 2 : 0) | (k1 >> 7) << 7 | l3 << 6 | l2 << 2);
    274                                      k4 = abyte0[ai2[7] + 65530] & 0xff | (abyte0[ai2[7] + 65531] & 0xff) << 8;
    275                                      i5 = k4 + (l4 = ai2[k4 >> 13]);
    276                                      i1 += 7;
    277                                      
    278                                  }
    279                              } else
    280                              if(t_boolean_static_fld && k6 == l5 + 1 && (R & 0x18) != 0)
    281                                  o_int_static_fld |= 0x40;
    282                              if(k4 != j4) {
    283                                  if(t_boolean_static_fld)
    284                                    
    285                                      if(k6 <= 239) {
    286                                          if(k6 > l5) {                 
    287                                              i1 += 116 * (240 - k6);
    288                                              k6 = 240;
    289                                          } else
    290                                          if(k6 < l5) {
    291                                              i1 += 116 * (l5 - k6);
    292                                              k6 = l5;
    293                                              
    294                                          }
    295                                      } else
    296                                      if(k6 >= 242 && k6 <= 259) {
    297                                          i1 += 116 * (260 - k6);
    298                                          k6 = 260;
    299                                          
    300                                          
    301                                      }
    302                                  i1 += 116;
    303          //debug(999,i5);                        
    304          label0:
    305            
    306            
    307            if(!running) return;/////add
    308                                  do {
    309                                      if(i1 <= 0)                              
    310                                                          break;
    311          ///////debug("",i5,i1);  /usged!!
    312          //if(i1==0x70){
    313          //  ;
    314          //}
    315          							//debug(i5,i5);                                
    316           //new File().debugWrite("0:/56","\n"+Integer.toString(i5)+" = "+Integer.toString(abyte0[i5]));
    317                   
    318                             
    319                             
    320                                      
    321                                      boolean flag6;
    322                                      boolean flag31;
    323                                      boolean flag32;
    324                                      boolean flag33;
    325                                      boolean flag34;
    326                                      boolean flag35;
    327                                      boolean flag36;
    328                                      boolean flag37;
    329                                      boolean flag38;
    330                                      boolean flag39;
    331                                      boolean flag40;
    332                                      boolean flag41;
    333                                      boolean flag42;
    334                                      boolean flag43;
    335                                      boolean flag44;
    336                                      boolean flag45;
    337                                      boolean flag46;
    338                                      boolean flag47;
    339                                      boolean flag48;
    340                                      boolean flag49;
    341                                      boolean flag50;
    342                                      boolean flag51;
    343                                      boolean flag52;
    344                                      boolean flag53;
    345                                      boolean flag54;
    346                                      boolean flag55;
    347                                      boolean flag56;
    348                                      boolean flag57;
    349                                      boolean flag58;
    350                                      boolean flag59;
    351                                      boolean flag60;
    352                                      boolean flag61;
    353                                      boolean flag62;
    354                                      boolean flag63;
    355                                      boolean flag64;
    356                                      boolean flag65;
    357                                      boolean flag66;
    358                                      boolean flag67;
    359                                      boolean flag68;
    360                                      boolean flag69;
    361                                      boolean flag70;
    362                                      boolean flag71;
    363                                      boolean flag72;
    364                                      boolean flag73;
    365                                      boolean flag74;
    366                                      boolean flag75;
    367                                      boolean flag76;
    368                                      boolean flag77;
    369                                      boolean flag78;
    370                                      
    371                         //31656
    372          //                 31659//////////////
    373           /*if(i5==31659 || i5==31656){
    374             if(i5==31656) nnn=1;
    375             if(i5==31659 && nnn==1)
    376               printf("%d ",i5);                     
    377           }else nnn=0;
    378             */    //debug("i5",abyte0[i5],i5);////////////
    379          /*  if(i5==16634){
    380               printf("%d=%d",i5, ++nnn);
    381               if(nnn==740)
    382                 nnn=0;
    383            }*/
    384                                      
    385                                      
    386                                      switch(abyte0[i5++]) {
    387                                      default:
    388          			                break;
    389          			                           
    390                                      case 0: // '\0'
    391                                          k4 = (i5 - l4) + 1;
    392                                          abyte0[j2-- + 256] = (byte)(k4 >> 8);
    393                                          abyte0[j2-- + 256] = (byte)k4;
    394                                          abyte0[j2-- + 256] = (byte)(k2 | (k1 == 0 ? 2 : 0) | (k1 >> 7) << 7 | l3 << 6 | l2 << 2);
    395                                          k4 = abyte0[ai2[7] + 65534] & 0xff | (abyte0[ai2[7] + 65535] & 0xff) << 8;
    396                                          i5 = k4 + (l4 = ai2[k4 >> 13]);
    397                                          j3 = 1;
    398                                          l2 = 1;
    399                                          i1 -= 7;
    400                                          continue;
    401          
    402                                      case 1: // '\001'
    403                                          k7 = abyte0[i5++] + l1 & 0xff;
    404                                          j1 |= aint1int(abyte0[k7] & 0xff | (abyte0[k7 + 1] & 0xff) << 8);
    405                                          k1 = j1;
    406                                          i1 -= 6;
    407                                          continue;
    408          
    409                                      case 2: // '\002'
    410                                          //boolean flag7 = true;
    411                                          continue;
    412          
    413                                      case 3: // '\003'
    414                                          //boolean flag8 = true;
    415                                          continue;
    416          
    417                                      case 4: // '\004'
    418                                          i5++;
    419                                          i1 -= 3;
    420                                          continue;
    421          
    422                                      case 5: // '\005'
    423                                          j1 |= abyte0[abyte0[i5++] & 0xff] & 0xff;
    424                                          k1 = j1;
    425                                          i1 -= 3;
    426                                          continue;
    427          
    428                                      case 6: // '\006'
    429                                          i8 = abyte0[i5++] & 0xff;
    430                                          j8 = abyte0[i8] & 0xff;
    431                                          k2 = j8 >> 7;
    432                                          abyte0[i8] = (byte)(k1 = j8 << 1 & 0xff);
    433                                          i1 -= 5;
    434                                          continue;
    435          
    436                                      case 7: // '\007'
    437                                          //boolean flag9 = true;
    438                                          continue;
    439          
    440                                      case 8: // '\b'
    441                                          abyte0[j2-- + 256] = (byte)(k2 | (k1 == 0 ? 2 : 0) | (k1 >> 7) << 7 | l3 << 6 | l2 << 2);
    442                                          i1 -= 3;
    443                                          continue;
    444          
    445                                      case 9: // '\t'
    446                                          j1 |= abyte0[i5++] & 0xff;
    447                                          k1 = j1;
    448                                          i1 -= 2;
    449                                          continue;
    450          
    451                                      case 10: // '\n'
    452                                          k2 = j1 >> 7;
    453                                          k1 = j1 = j1 << 1 & 0xff;
    454                                          i1 -= 2;
    455                                          continue;
    456          
    457                                      case 11: // '\013'
    458                                          //boolean flag10 = true;
    459                                          continue;
    460          
    461                                      case 12: // '\f'
    462                                          i5 += 2;
    463                                          i1 -= 4;
    464                                          continue;
    465          
    466                                      case 13: // '\r'
    467                                          nn=abyte0[i5++] & 0xff;
    468                                          j1 |= aint1int(nn | (abyte0[i5++] & 0xff) << 8);
    469                                          k1 = j1;
    470                                          i1 -= 4;
    471                                          continue;
    472          
    473                                      case 14: // '\016'
    474                                          nn=abyte0[i5++] & 0xff;
    475                                          k8 = nn | (abyte0[i5++] & 0xff) << 8;
    476                                          i9 = aint1int(k8);
    477                                          k2 = i9 >> 7;
    478                                          avoid2int(k8, k1 = i9 << 1 & 0xff);
    479                                          i1 -= 6;
    480                                          continue;
    481          
    482                                      case 15: // '\017'
    483                                          //boolean flag11 = true;
    484                                          continue;
    485          
    486                                      case 16: // '\020'
    487                                      //debug("16-1",k1,i5);
    488                                          if(k1 >> 7 == 0) {
    489                                              byte byte2 = abyte0[i5++];
    490                                              i5 += byte2;
    491                                              i1 -= 3;
    492                                              if(byte2 < 0 && byte2 >= -5) {
    493                                                  byte byte3 = abyte0[i5];
    494                                                  if(byte2 == -5 && (byte3 == -83 || byte3 == 44))
    495                                                      i1 = 0;
    496                                                  else
    497                                                  if(byte2 == -4 && byte3 == 6)
    498                                                      i1 = 0;
    499                                              }
    500                                          } else {
    501                                              i5++;
    502                                              i1 -= 2;
    503                                          }
    504                                        //  debug("16-2",k1,i5);
    505                                          continue;
    506          
    507                                      case 17: // '\021'
    508                                          j9 = abyte0[i5++] & 0xff;
    509                                          j1 |= aint1int((abyte0[j9] & 0xff | (abyte0[j9 + 1] & 0xff) << 8) + i2);
    510                                          k1 = j1;
    511                                          i1 -= 5;
    512                                          continue;
    513          
    514                                      case 18: // '\022'
    515                                          //boolean flag12 = true;
    516                                          continue;
    517          
    518                                      case 19: // '\023'
    519                                          //boolean flag13 = true;
    520                                          continue;
    521          
    522                                      case 20: // '\024'
    523                                          i5++;
    524                                          i1 -= 4;
    525                                          continue;
    526          
    527                                      case 21: // '\025'
    528                                          j1 |= abyte0[abyte0[i5++] + l1 & 0xff] & 0xff;
    529                                          k1 = j1;
    530                                          i1 -= 4;
    531                                          continue;
    532          
    533                                      case 22: // '\026'
    534                                          k9 = abyte0[i5++] + l1 & 0xff;
    535                                          i10 = abyte0[k9] & 0xff;
    536                                          k2 = i10 >> 7;
    537                                          abyte0[k9] = (byte)(k1 = i10 << 1 & 0xff);
    538                                          i1 -= 6;
    539                                          continue;
    540          
    541                                      case 23: // '\027'
    542                                          //boolean flag14 = true;
    543                                          continue;
    544          
    545                                      case 24: // '\030'
    546                                          k2 = 0;
    547                                          i1 -= 2;
    548                                          continue;
    549          
    550                                      case 25: // '\031'
    551                                          nn=abyte0[i5++] & 0xff;
    552                                          j1 |= aint1int((nn | (abyte0[i5++] & 0xff) << 8) + i2);
    553                                          k1 = j1;
    554                                          i1 -= 4;
    555                                          continue;
    556          
    557                                      case 26: // '\032'
    558                                          i1 -= 2;
    559                                          continue;
    560          
    561                                      case 27: // '\033'
    562                                          //boolean flag15 = true;
    563                                          continue;
    564          
    565                                      case 28: // '\034'
    566                                          i5 += 2;
    567                                          i1 -= 4;
    568                                          continue;
    569          
    570                                      case 29: // '\035'
    571                                          nn=abyte0[i5++] & 0xff;
    572                                          j1 |= aint1int((nn | (abyte0[i5++] & 0xff) << 8) + l1);
    573                                          k1 = j1;
    574                                          i1 -= 5;
    575                                          continue;
    576          
    577                                      case 30: // '\036'
    578                                          nn=abyte0[i5++] & 0xff;
    579                                          j10 = (nn | (abyte0[i5++] & 0xff) << 8) + l1;
    580                                          k10 = aint1int(j10);
    581                                          k2 = k10 >> 7;
    582                                          avoid2int(j10, k1 = k10 << 1 & 0xff);
    583                                          i1 -= 7;
    584                                          continue;
    585          
    586                                      case 31: // '\037'
    587                                          //boolean flag16 = true;
    588                                          continue;
    589          
    590                                      case 32: // ' '
    591                                          k4 = (i5 - l4) + 1;
    592                                          abyte0[j2-- + 256] = (byte)(k4 >> 8);
    593                                          abyte0[j2-- + 256] = (byte)k4;
    594                                          k4 = abyte0[i5] & 0xff | (abyte0[i5 + 1] & 0xff) << 8;
    595                                          i5 = k4 + (l4 = ai2[k4 >> 13]);
    596                                          i1 -= 6;
    597                                          continue;
    598          
    599                                      case 33: // '!'
    600                                          l10 = abyte0[i5++] + l1 & 0xff;
    601                                          j1 &= aint1int(abyte0[l10] & 0xff | (abyte0[l10 + 1] & 0xff) << 8);
    602                                          k1 = j1;
    603                                          i1 -= 6;
    604                                          continue;
    605          
    606                                      case 34: // '"'
    607                                          //boolean flag17 = true;
    608                                          continue;
    609          
    610                                      case 35: // '#'
    611                                          //boolean flag18 = true;
    612                                          continue;
    613          
    614                                      case 36: // '$'
    615                                          i11 = abyte0[abyte0[i5++] & 0xff] & 0xff;
    616                                          l3 = i11 >> 6 & 1;
    617                                          byte4 = abyte0[i5];
    618                                          if(byte4 == 16 || byte4 == 48)
    619                                              k1 = i11;
    620                                          else
    621                                              k1 = j1 & i11;
    622                                          i1 -= 3;
    623                                          continue;
    624          
    625                                      case 37: // '%'
    626                                          j1 &= abyte0[abyte0[i5++] & 0xff] & 0xff;
    627                                          k1 = j1;
    628                                          i1 -= 3;
    629                                          continue;
    630          
    631                                      case 38: // '&'
    632                                          j11 = abyte0[i5++] & 0xff;
    633                                          k11 = abyte0[j11] & 0xff;
    634                                          k11 = k11 << 1 | k2;
    635                                          k2 = k11 >> 8;
    636                                          abyte0[j11] = (byte)(k1 = k11 & 0xff);
    637                                          i1 -= 5;
    638                                          continue;
    639          
    640                                      case 39: // '\''
    641                                          //boolean flag19 = true;
    642                                          continue;
    643          
    644                                      case 40: // '('
    645                                          l11 = abyte0[++j2 + 256] & 0xff;
    646                                          k2 = l11 & 1;
    647                                          k1 = ((l11 >> 1 & 1) == 0 ? 1 : 0) | (l11 >> 7) << 7;
    648                                          l3 = l11 >> 6 & 1;
    649                                          l2 = l11 >> 2 & 1;
    650                                          i1 -= 4;
    651                                          continue;
    652          
    653                                      case 41: // ')'
    654                                          j1 &= abyte0[i5++] & 0xff;
    655                                          k1 = j1;
    656                                          i1 -= 2;
    657                                          continue;
    658          
    659                                      case 42: // '*'
    660                                          j1 = j1 << 1 | k2;
    661                                          k2 = j1 >> 8;
    662                                          j1 &= 0xff;
    663                                          k1 = j1;
    664                                          i1 -= 2;
    665                                          continue;
    666          
    667                                      case 43: // '+'
    668                                          //boolean flag20 = true;
    669                                          continue;
    670          
    671                                      case 44: // ','
    672                                          nn=abyte0[i5++] & 0xff;
    673                                          i12 = aint1int( nn| (abyte0[i5++] & 0xff) << 8);
    674                                          l3 = i12 >> 6 & 1;
    675                                          byte5 = abyte0[i5];
    676                                          if(byte5 == 16 || byte5 == 48)
    677                                              k1 = i12;
    678                                          else
    679                                              k1 = j1 & i12;
    680                                          i1 -= 4;
    681                                          continue;
    682          
    683                                      case 45: // '-'
    684                                          nn=abyte0[i5++] & 0xff;
    685                                          j1 &= aint1int(nn | (abyte0[i5++] & 0xff) << 8);
    686                                          k1 = j1;
    687                                          i1 -= 4;
    688                                          continue;
    689          
    690                                      case 46: // '.'
    691                                          nn=abyte0[i5++] & 0xff;
    692                                          j12 = nn | (abyte0[i5++] & 0xff) << 8;
    693                                          k12 = aint1int(j12);
    694                                          k12 = k12 << 1 | k2;
    695                                          k2 = k12 >> 8;
    696                                          avoid2int(j12, k1 = k12 & 0xff);
    697                                          i1 -= 6;
    698                                          continue;
    699          
    700                                      case 47: // '/'
    701                                          //boolean flag21 = true;
    702                                          continue;
    703          
    704                                      case 48: // '0'
    705                                          if(k1 >> 7 != 0) {
    706                                              byte6 = abyte0[i5++];
    707                                              i5 += byte6;
    708                                              i1--;
    709                                          } else {
    710                                              i5++;
    711                                          }
    712                                          i1 -= 2;
    713                                          continue;
    714          
    715                                      case 49: // '1'
    716                                          l12 = abyte0[i5++] & 0xff;
    717                                          j1 &= aint1int((abyte0[l12] & 0xff | (abyte0[l12 + 1] & 0xff) << 8) + i2);
    718                                          k1 = j1;
    719                                          i1 -= 5;
    720                                          continue;
    721          
    722                                      case 50: // '2'
    723                                          //boolean flag22 = true;
    724                                          continue;
    725          
    726                                      case 51: // '3'
    727                                          //boolean flag23 = true;
    728                                          continue;
    729          
    730                                      case 52: // '4'
    731                                          i5++;
    732                                          i1 -= 4;
    733                                          continue;
    734          
    735                                      case 53: // '5'
    736                                          j1 &= abyte0[abyte0[i5++] + l1 & 0xff] & 0xff;
    737                                          k1 = j1;
    738                                          i1 -= 4;
    739                                          continue;
    740          
    741                                      case 54: // '6'
    742                                          i13 = abyte0[i5++] + l1 & 0xff;
    743                                          j13 = abyte0[i13] & 0xff;
    744                                          j13 = j13 << 1 | k2;
    745                                          k2 = j13 >> 8;
    746                                          abyte0[i13] = (byte)(k1 = j13 & 0xff);
    747                                          i1 -= 6;
    748                                          continue;
    749          
    750                                      case 55: // '7'
    751                                          //boolean flag24 = true;
    752                                          continue;
    753          
    754                                      case 56: // '8'
    755                                          k2 = 1;
    756                                          i1 -= 2;
    757                                          continue;
    758          
    759                                      case 57: // '9'
    760                                          nn=abyte0[i5++] & 0xff;
    761                                          j1 &= aint1int((nn | (abyte0[i5++] & 0xff) << 8) + i2);
    762                                          k1 = j1;
    763                                          i1 -= 4;
    764                                          continue;
    765          
    766                                      case 58: // ':'
    767                                          i1 -= 2;
    768                                          continue;
    769          
    770                                      case 59: // ';'
    771                                          //boolean flag25 = true;
    772                                          continue;
    773          
    774                                      case 60: // '<'
    775                                          i5 += 2;
    776                                          i1 -= 4;
    777                                          continue;
    778          
    779                                      case 61: // '='
    780                                          nn=abyte0[i5++] & 0xff;
    781                                          j1 &= aint1int((nn | (abyte0[i5++] & 0xff) << 8) + l1);
    782                                          k1 = j1;
    783                                          i1 -= 5;
    784                                          continue;
    785          
    786                                      case 62: // '>'
    787                                          nn=abyte0[i5++] & 0xff;
    788                                          k13 = (nn | (abyte0[i5++] & 0xff) << 8) + l1;
    789                                          l13 = aint1int(k13);
    790                                          l13 = l13 << 1 | k2;
    791                                          k2 = l13 >> 8;
    792                                          avoid2int(k13, k1 = l13 & 0xff);
    793                                          i1 -= 7;
    794                                          continue;
    795          
    796                                      case 63: // '?'
    797                                          //boolean flag26 = true;
    798                                          continue;
    799          
    800                                      case 64: // '@'
    801                                          i14 = abyte0[++j2 + 256] & 0xff;
    802                                          k2 = i14 & 1;
    803                                          k1 = ((i14 >> 1 & 1) == 0 ? 1 : 0) | (i14 >> 7) << 7;
    804                                          l3 = i14 >> 6 & 1;
    805                                          l2 = i14 >> 2 & 1;
    806                                          nn=abyte0[++j2 + 256] & 0xff;
    807                                          k4 = nn | (abyte0[++j2 + 256] & 0xff) << 8;
    808                                          i5 = k4 + (l4 = ai2[k4 >> 13]);
    809                                          i1 -= 6;
    810                                          continue;
    811          
    812                                      case 65: // 'A'
    813                                          j14 = abyte0[i5++] + l1 & 0xff;
    814                                          j14 = abyte0[j14] & 0xff | (abyte0[j14 + 1] & 0xff) << 8;
    815                                          j1 ^= aint1int(j14);
    816                                          k1 = j1;
    817                                          i1 -= 6;
    818                                          continue;
    819          
    820                                      case 66: // 'B'
    821                                          //boolean flag27 = true;
    822                                          continue;
    823          
    824                                      case 67: // 'C'
    825                                          //boolean flag28 = true;
    826                                          continue;
    827          
    828                                      case 68: // 'D'
    829                                          i5++;
    830                                          i1 -= 3;
    831                                          continue;
    832          
    833                                      case 69: // 'E'
    834                                          j1 ^= abyte0[abyte0[i5++] & 0xff] & 0xff;
    835                                          k1 = j1;
    836                                          i1 -= 3;
    837                                          continue;
    838          
    839                                      case 70: // 'F'
    840                                          k14 = abyte0[i5++] & 0xff;
    841                                          l14 = abyte0[k14] & 0xff;
    842                                          k2 = l14 & 1;
    843                                          abyte0[k14] = (byte)(k1 = l14 >> 1);
    844                                          i1 -= 5;
    845                                          continue;
    846          
    847                                      case 71: // 'G'
    848                                          //boolean flag29 = true;
    849                                          continue;
    850          
    851                                      case 72: // 'H'
    852                                          abyte0[j2-- + 256] = (byte)j1;
    853                                          i1 -= 3;
    854                                          continue;
    855          
    856                                      case 73: // 'I'
    857                                          j1 ^= abyte0[i5++] & 0xff;
    858                                          k1 = j1;
    859                                          i1 -= 2;
    860                                          continue;
    861          
    862                                      case 74: // 'J'
    863                                          k2 = j1 & 1;
    864                                          j1 >>= 1;
    865                                          k1 = j1;
    866                                          i1 -= 2;
    867                                          continue;
    868          
    869                                      case 75: // 'K'
    870                                          //boolean flag30 = true;
    871                                          continue;
    872          
    873                                      case 76: // 'L'
    874                                          i15 = i5 - 1;
    875                                          k4 = abyte0[i5] & 0xff | (abyte0[i5 + 1] & 0xff) << 8;
    876                                          i5 = k4 + (l4 = ai2[k4 >> 13]);
    877                                          i1 -= 3;
    878                                          if(i5 == j4 || i5 == i15) {
    879                                              i1 = 0;
    880                                              continue;
    881                                          }
    882                                          if(!flag)
    883                                              continue;
    884                                          j15 = 1;
    885                                          k15 = 0;
    886                                          do {
    887                                              if(k15 >= 100)
    888                                                  break;
    889                                              if(ai[k15] == i5) {
    890                                                  ai1[k15]++;
    891                                                  j15 = 0;
    892                                                  break;
    893                                              }
    894                                              k15++;
    895                                          } while(true);
    896                                          if(j15 <= 0)
    897                                              continue;
    898                                          k15 = 0;
    899                                          do {
    900                                              if(k15 >= 100)
    901                                                goto label0;   //  continue
    902                                              if(ai1[k15] == 0) {
    903                                                  ai1[k15]++;
    904                                                  ai[k15] = i5;
    905                                                  goto label0;  //continue
    906                                              }
    907                                              k15++;
    908                                          } while(true);
    909          
    910                                      case 77: // 'M'
    911                                          nn=abyte0[i5++] & 0xff;
    912                                          j1 ^= aint1int(nn | (abyte0[i5++] & 0xff) << 8);
    913                                          k1 = j1;
    914                                          i1 -= 4;
    915                                          break;
    916          
    917                                      case 78: // 'N'
    918                                          nn=abyte0[i5++] & 0xff;
    919                                          l15 = nn | (abyte0[i5++] & 0xff) << 8;
    920                                          i16 = aint1int(l15);
    921                                          k2 = i16 & 1;
    922                                          avoid2int(l15, k1 = i16 >> 1);
    923                                          i1 -= 6;
    924                                          break;
    925          
    926                                      case 79: // 'O'
    927                                          flag31 = true;
    928                                          break;
    929          
    930                                      case 80: // 'P'
    931                                          if(l3 == 0) {
    932                                              byte7 = abyte0[i5++];
    933                                              i5 += byte7;
    934                                              i1 -= 3;
    935                                              if(byte7 < 0 && byte7 >= -5) {
    936                                                  byte8 = abyte0[i5];
    937                                                  if(byte7 == -5 && byte8 == 44)
    938                                                      i1 = 0;
    939                                              }
    940                                          } else {
    941                                              i5++;
    942                                              i1 -= 2;
    943                                          }
    944                                          break;
    945          
    946                                      case 81: // 'Q'
    947                                          j16 = abyte0[i5++] & 0xff;
    948                                          j1 ^= aint1int((abyte0[j16] & 0xff | (abyte0[j16 + 1] & 0xff) << 8) + i2);
    949                                          k1 = j1;
    950                                          i1 -= 5;
    951                                          break;
    952          
    953                                      case 82: // 'R'
    954                                          flag32 = true;
    955                                          break;
    956          
    957                                      case 83: // 'S'
    958                                          flag33 = true;
    959                                          break;
    960          
    961                                      case 84: // 'T'
    962                                          i5++;
    963                                          i1 -= 4;
    964                                          break;
    965          
    966                                      case 85: // 'U'
    967                                          j1 ^= abyte0[abyte0[i5++] + l1 & 0xff] & 0xff;
    968                                          k1 = j1;
    969                                          i1 -= 4;
    970                                          break;
    971          
    972                                      case 86: // 'V'
    973                                          k16 = abyte0[i5++] + l1 & 0xff;
    974                                          l16 = abyte0[k16] & 0xff;
    975                                          k2 = l16 & 1;
    976                                          abyte0[k16] = (byte)(k1 = l16 >> 1);
    977                                          i1 -= 6;
    978                                          break;
    979          
    980                                      case 87: // 'W'
    981                                          flag34 = true;
    982                                          break;
    983          
    984                                      case 88: // 'X'
    985                                          l2 = 0;
    986                                          i1 -= 2;
    987                                          break;
    988          
    989                                      case 89: // 'Y'
    990                                          nn=abyte0[i5++] & 0xff;
    991                                          j1 ^= aint1int((nn | (abyte0[i5++] & 0xff) << 8) + i2);
    992                                          k1 = j1;
    993                                          i1 -= 4;
    994                                          break;
    995          
    996                                      case 90: // 'Z'
    997                                          i1 -= 2;
    998                                          break;
    999          
   1000                                      case 91: // '['
   1001                                          flag35 = true;
   1002                                          break;
   1003          
   1004                                      case 92: // '\\'
   1005                                          i5 += 2;
   1006                                          i1 -= 4;
   1007                                          break;
   1008          
   1009                                      case 93: // ']'
   1010                                          nn=abyte0[i5++] & 0xff;
   1011                                          j1 ^= aint1int((nn | (abyte0[i5++] & 0xff) << 8) + l1);
   1012                                          k1 = j1;
   1013                                          i1 -= 5;
   1014                                          break;
   1015          
   1016                                      case 94: // '^'
   1017                                          nn=abyte0[i5++] & 0xff;
   1018                                          i17 = (nn | (abyte0[i5++] & 0xff) << 8) + l1;
   1019                                          j17 = aint1int(i17);
   1020                                          k2 = j17 & 1;
   1021                                          avoid2int(i17, k1 = j17 >> 1);
   1022                                          i1 -= 7;
   1023                                          break;
   1024          
   1025                                      case 95: // '_'
   1026                                          flag36 = true;
   1027                                          break;
   1028          
   1029                                      case 96: // '`'
   1030                                        nn=abyte0[++j2 + 256] & 0xff;
   1031                                          k4 = (nn | (abyte0[++j2 + 256] & 0xff) << 8) + 1;
   1032                                          i5 = k4 + (l4 = ai2[k4 >> 13]);
   1033                                          i1 -= 4;
   1034                                          break;
   1035          
   1036                                      case 97: // 'a'
   1037                                          k17 = abyte0[i5++] + l1 & 0xff;
   1038                                          l17 = aint1int(abyte0[k17] & 0xff | (abyte0[k17 + 1] & 0xff) << 8);
   1039                                          i18 = j1 + l17 + k2;
   1040                                          l3 = (~(j1 ^ l17) & (j1 ^ i18)) >> 7 & 1;
   1041                                          k2 = i18 >> 8;
   1042                                          j1 = i18 & 0xff;
   1043                                          k1 = j1;
   1044                                          i1 -= 6;
   1045                                          break;
   1046          
   1047                                      case 98: // 'b'
   1048                                          flag37 = true;
   1049                                          break;
   1050          
   1051                                      case 99: // 'c'
   1052                                          flag38 = true;
   1053                                          break;
   1054          
   1055                                      case 100: // 'd'
   1056                                          i5++;
   1057                                          i1 -= 3;
   1058                                          break;
   1059          
   1060                                      case 101: // 'e'
   1061                                          j18 = abyte0[abyte0[i5++] & 0xff] & 0xff;
   1062                                          k18 = j1 + j18 + k2;
   1063                                          l3 = (~(j1 ^ j18) & (j1 ^ k18)) >> 7 & 1;
   1064                                          k2 = k18 >> 8;
   1065                                          k1 = j1 = k18 & 0xff;
   1066                                          i1 -= 3;
   1067                                          break;
   1068          
   1069                                      case 102: // 'f'
   1070                                          l18 = abyte0[i5++] & 0xff;
   1071                                          i19 = abyte0[l18] & 0xff;
   1072                                          j19 = k2 << 7;
   1073                                          k2 = i19 & 1;
   1074                                          abyte0[l18] = (byte)(k1 = i19 >> 1 | j19);
   1075                                          i1 -= 5;
   1076                                          break;
   1077          
   1078                                      case 103: // 'g'
   1079                                          flag39 = true;
   1080                                          break;
   1081          
   1082                                      case 104: // 'h'
   1083                                          k1 = j1 = abyte0[++j2 + 256] & 0xff;
   1084                                          i1 -= 4;
   1085                                          break;
   1086          
   1087                                      case 105: // 'i'
   1088                                          k19 = abyte0[i5++] & 0xff;
   1089                                          l19 = j1 + k19 + k2;
   1090                                          l3 = (~(j1 ^ k19) & (j1 ^ l19)) >> 7 & 1;
   1091                                          k2 = l19 >> 8;
   1092                                          k1 = j1 = l19 & 0xff;
   1093                                          i1 -= 2;
   1094                                          break;
   1095          
   1096                                      case 106: // 'j'
   1097                                          i20 = k2;
   1098                                          k2 = j1 & 1;
   1099                                          k1 = j1 = j1 >> 1 | i20 << 7;
   1100                                          i1 -= 2;
   1101                                          break;
   1102          
   1103                                      case 107: // 'k'
   1104                                          flag40 = true;
   1105                                          break;
   1106          
   1107                                      case 108: // 'l'
   1108                                          nn=abyte0[i5++] & 0xff;
   1109                                          j20 = nn | (abyte0[i5++] & 0xff) << 8;
   1110                                          if((j20 & 0xff) == 255)
   1111                                              k4 = aint1int(j20) | aint1int(j20 & 0xff00) << 8;
   1112                                          else
   1113                                              k4 = aint1int(j20) | aint1int(j20 + 1) << 8;
   1114                                          i5 = k4 + (l4 = ai2[k4 >> 13]);
   1115                                          i1 -= 5;
   1116                                          break;
   1117          
   1118                                      case 109: // 'm'
   1119                                          nn=abyte0[i5++] & 0xff;
   1120                                          k20 = aint1int(nn | (abyte0[i5++] & 0xff) << 8);
   1121                                          l20 = j1 + k20 + k2;
   1122                                          l3 = (~(j1 ^ k20) & (j1 ^ l20)) >> 7 & 1;
   1123                                          k2 = l20 >> 8;
   1124                                          k1 = j1 = l20 & 0xff;
   1125                                          i1 -= 4;
   1126                                          break;
   1127          
   1128                                      case 110: // 'n'
   1129                                          nn=abyte0[i5++] & 0xff;
   1130                                          i21 = nn | (abyte0[i5++] & 0xff) << 8;
   1131                                          j21 = aint1int(i21);
   1132                                          k21 = k2 << 7;
   1133                                          k2 = j21 & 1;
   1134                                          avoid2int(i21, k1 = j21 >> 1 | k21);
   1135                                          i1 -= 6;
   1136                                          break;
   1137          
   1138                                      case 111: // 'o'
   1139                                          flag41 = true;
   1140                                          break;
   1141          
   1142                                      case 112: // 'p'
   1143                                          if(l3 != 0) {
   1144                                              byte9 = abyte0[i5++];
   1145                                              i5 += byte9;
   1146                                              i1--;
   1147                                          } else {
   1148                                              i5++;
   1149                                          }
   1150                                          i1 -= 4;
   1151                                          break;
   1152          
   1153                                      case 113: // 'q'
   1154                                          l21 = abyte0[i5++] & 0xff;
   1155                                          i22 = aint1int((abyte0[l21] & 0xff | (abyte0[l21 + 1] & 0xff) << 8) + i2);
   1156                                          j22 = j1 + i22 + k2;
   1157                                          l3 = (~(j1 ^ i22) & (j1 ^ j22)) >> 7 & 1;
   1158                                          k2 = j22 >> 8;
   1159                                          k1 = j1 = j22 & 0xff;
   1160                                          i1 -= 5;
   1161                                          break;
   1162          
   1163                                      case 114: // 'r'
   1164                                          flag42 = true;
   1165                                          break;
   1166          
   1167                                      case 115: // 's'
   1168                                          flag43 = true;
   1169                                          break;
   1170          
   1171                                      case 116: // 't'
   1172                                          i5++;
   1173                                          i1 -= 4;
   1174                                          break;
   1175          
   1176                                      case 117: // 'u'
   1177                                          k22 = abyte0[abyte0[i5++] + l1 & 0xff] & 0xff;
   1178                                          l22 = j1 + k22 + k2;
   1179                                          l3 = (~(j1 ^ k22) & (j1 ^ l22)) >> 7 & 1;
   1180                                          k2 = l22 >> 8;
   1181                                          k1 = j1 = l22 & 0xff;
   1182                                          i1 -= 4;
   1183                                          break;
   1184          
   1185                                      case 118: // 'v'
   1186                                          i23 = abyte0[i5++] + l1 & 0xff;
   1187                                          j23 = abyte0[i23] & 0xff;
   1188                                          k23 = k2 << 7;
   1189                                          k2 = j23 & 1;
   1190                                          abyte0[i23] = (byte)(k1 = j23 >> 1 | k23);
   1191                                          i1 -= 6;
   1192                                          break;
   1193          
   1194                                      case 119: // 'w'
   1195                                          flag44 = true;
   1196                                          break;
   1197          
   1198                                      case 120: // 'x'
   1199                                          l2 = 1;
   1200                                          i1 -= 2;
   1201                                          break;
   1202          
   1203                                      case 121: // 'y'
   1204                                          nn=abyte0[i5++] & 0xff;
   1205                                          l23 = aint1int((nn | (abyte0[i5++] & 0xff) << 8) + i2);
   1206                                          i24 = j1 + l23 + k2;
   1207                                          l3 = (~(j1 ^ l23) & (j1 ^ i24)) >> 7 & 1;
   1208                                          k2 = i24 >> 8;
   1209                                          k1 = j1 = i24 & 0xff;
   1210                                          i1 -= 4;
   1211                                          break;
   1212          
   1213                                      case 122: // 'z'
   1214                                          i1 -= 2;
   1215                                          break;
   1216          
   1217                                      case 123: // '{'
   1218                                          flag45 = true;
   1219                                          break;
   1220          
   1221                                      case 124: // '|'
   1222                                          i5 += 2;
   1223                                          i1 -= 4;
   1224                                          break;
   1225          
   1226                                      case 125: // '}'
   1227                                          nn=abyte0[i5++] & 0xff;
   1228                                          j24 = aint1int((nn | (abyte0[i5++] & 0xff) << 8) + l1);
   1229                                          k24 = j1 + j24 + k2;
   1230                                          l3 = (~(j1 ^ j24) & (j1 ^ k24)) >> 7 & 1;
   1231                                          k2 = k24 >> 8;
   1232                                          k1 = j1 = k24 & 0xff;
   1233                                          i1 -= 5;
   1234                                          break;
   1235          
   1236                                      case 126: // '~'
   1237                                          nn=abyte0[i5++] & 0xff;
   1238                                          l24 = (nn | (abyte0[i5++] & 0xff) << 8) + l1;
   1239                                          i25 = aint1int(l24);
   1240                                          j25 = k2 << 7;
   1241                                          k2 = i25 & 1;
   1242                                          avoid2int(l24, k1 = i25 >> 1 | j25);
   1243                                          i1 -= 7;
   1244                                          break;
   1245          
   1246                                      case 127: // '\177'
   1247                                          flag46 = true;
   1248                                          break;
   1249          
   1250                                      case -128: 
   1251                                          i5++;
   1252                                          i1 -= 2;
   1253                                          break;
   1254          
   1255                                      case -127: 
   1256                                        /* STA */                              
   1257                                          k25 = abyte0[i5++] + l1 & 0xff;
   1258                                          avoid2int(abyte0[k25] & 0xff | (abyte0[k25 + 1] & 0xff) << 8, j1);
   1259                                          i1 -= 6;
   1260                                          break;
   1261          
   1262                                      case -126: 
   1263                                          i5++;
   1264                                          i1 -= 2;
   1265                                          break;
   1266          
   1267                                      case -125: 
   1268                                          flag47 = true;
   1269                                          break;
   1270          
   1271                                      case -124: 
   1272                                          abyte0[abyte0[i5++] & 0xff] = (byte)i2;
   1273                                          i1 -= 3;
   1274                                          break;
   1275          
   1276                                      case -123: 
   1277                                          abyte0[abyte0[i5++] & 0xff] = (byte)j1;
   1278                                          i1 -= 3;
   1279                                          break;
   1280          
   1281                                      case -122: 
   1282                                          abyte0[abyte0[i5++] & 0xff] = (byte)l1;
   1283                                          i1 -= 3;
   1284                                          break;
   1285          
   1286                                      case -121: 
   1287                                          flag48 = true;
   1288                                          break;
   1289          
   1290                                      case -120: 
   1291                                          k1 = i2 = i2 - 1 & 0xff;
   1292                                          i1 -= 2;
   1293                                          break;
   1294          
   1295                                      case -119: 
   1296                                          i5++;
   1297                                          i1 -= 2;
   1298                                          break;
   1299          
   1300                                      case -118: 
   1301                                          k1 = j1 = l1;
   1302                                          i1 -= 2;
   1303                                          break;
   1304          
   1305                                      case -117: 
   1306                                          flag49 = true;
   1307                                          break;
   1308          
   1309                                      case -116: 
   1310                                          nn=abyte0[i5++] & 0xff;
   1311                                          avoid2int(nn | (abyte0[i5++] & 0xff) << 8, i2);
   1312                                          i1 -= 4;
   1313                                          break;
   1314          
   1315                                      case -115: 
   1316                                          nn=abyte0[i5++] & 0xff;
   1317                                          avoid2int(nn | (abyte0[i5++] & 0xff) << 8, j1);
   1318                                          i1 -= 4;
   1319                                          break;
   1320          
   1321                                      case -114: 
   1322                                          nn=abyte0[i5++] & 0xff;
   1323                                          avoid2int(nn | (abyte0[i5++] & 0xff) << 8, l1);
   1324                                          i1 -= 4;
   1325                                          break;
   1326          
   1327                                      case -113: 
   1328                                          flag50 = true;
   1329                                          break;
   1330          
   1331                                      case -112: 
   1332                                          if(k2 == 0) {
   1333                                              byte10 = abyte0[i5++];
   1334                                              i5 += byte10;
   1335                                              i1--;
   1336                                          } else {
   1337                                              i5++;
   1338                                          }
   1339                                          i1 -= 2;
   1340                                          break;
   1341          
   1342                                      case -111: 
   1343                                          l25 = abyte0[i5++] & 0xff;
   1344                                          avoid2int((abyte0[l25] & 0xff | (abyte0[l25 + 1] & 0xff) << 8) + i2, j1);
   1345                                          i1 -= 6;
   1346                                          break;
   1347          
   1348                                      case -110: 
   1349                                          flag51 = true;
   1350                                          break;
   1351          
   1352                                      case -109: 
   1353                                          flag52 = true;
   1354                                          break;
   1355          
   1356                                      case -108: 
   1357                                          abyte0[abyte0[i5++] + l1 & 0xff] = (byte)i2;
   1358                                          i1 -= 4;
   1359                                          break;
   1360          
   1361                                      case -107: 
   1362                                          abyte0[abyte0[i5++] + l1 & 0xff] = (byte)j1;
   1363                                          i1 -= 4;
   1364                                          break;
   1365          
   1366                                      case -106: 
   1367                                          abyte0[abyte0[i5++] + i2 & 0xff] = (byte)l1;
   1368                                          i1 -= 4;
   1369                                          break;
   1370          
   1371                                      case -105: 
   1372                                          flag53 = true;
   1373                                          break;
   1374          
   1375                                      case -104: 
   1376                                          k1 = j1 = i2;
   1377                                          i1 -= 2;
   1378                                          break;
   1379          
   1380                                      case -103: 
   1381                                          nn=abyte0[i5++] & 0xff;
   1382                                          avoid2int((nn | (abyte0[i5++] & 0xff) << 8) + i2, j1);
   1383                                          i1 -= 5;
   1384                                          break;
   1385          
   1386                                      case -102: 
   1387                                          j2 = l1;
   1388                                          i1 -= 2;
   1389                                          break;
   1390          
   1391                                      case -101: 
   1392                                          flag54 = true;
   1393                                          break;
   1394          
   1395                                      case -100: 
   1396                                          flag55 = true;
   1397                                          break;
   1398          
   1399                                      case -99: 
   1400                                          nn=abyte0[i5++] & 0xff;
   1401                                          avoid2int((nn | (abyte0[i5++] & 0xff) << 8) + l1, j1);
   1402                                          i1 -= 5;
   1403                                          break;
   1404          
   1405                                      case -98: 
   1406                                          flag56 = true;
   1407                                          break;
   1408          
   1409                                      case -97: 
   1410                                          flag57 = true;
   1411                                          break;
   1412          
   1413                                      case -96: 
   1414                                          k1 = i2 = abyte0[i5++] & 0xff;
   1415                                          i1 -= 2;
   1416                                          break;
   1417          
   1418                                      case -95: 
   1419                                          i26 = abyte0[i5++] + l1 & 0xff;
   1420                                          k1 = j1 = aint1int(abyte0[i26] & 0xff | (abyte0[i26 + 1] & 0xff) << 8);
   1421                                          i1 -= 6;
   1422                                          break;
   1423          
   1424                                      case -94: 
   1425                                          k1 = l1 = abyte0[i5++] & 0xff;
   1426                                          i1 -= 2;
   1427                                          break;
   1428          
   1429                                      case -93: 
   1430                                          flag58 = true;
   1431                                          break;
   1432          
   1433                                      case -92: 
   1434                                          k1 = i2 = abyte0[abyte0[i5++] & 0xff] & 0xff;
   1435                                          i1 -= 3;
   1436                                          break;
   1437          
   1438                                      case -91: 
   1439                                          k1 = j1 = abyte0[abyte0[i5++] & 0xff] & 0xff;
   1440                                          i1 -= 3;
   1441                                          break;
   1442          
   1443                                      case -90: 
   1444                                          k1 = l1 = abyte0[abyte0[i5++] & 0xff] & 0xff;
   1445                                          i1 -= 3;
   1446                                          break;
   1447          
   1448                                      case -89: 
   1449                                          flag59 = true;
   1450                                          break;
   1451          
   1452                                      case -88: 
   1453                                          k1 = i2 = j1;
   1454                                          i1 -= 2;
   1455                                          break;
   1456          
   1457                                      case -87: 
   1458                                          k1 = j1 = abyte0[i5++] & 0xff;
   1459                                          i1 -= 2;
   1460                                          break;
   1461          
   1462                                      case -86: 
   1463                                          k1 = l1 = j1;
   1464                                          i1 -= 2;
   1465                                          break;
   1466          
   1467                                      case -85: 
   1468                                          flag60 = true;
   1469                                          break;
   1470          
   1471                                      case -84: 
   1472                                          nn=abyte0[i5++] & 0xff;
   1473                                          k1 = i2 = aint1int(nn | (abyte0[i5++] & 0xff) << 8);
   1474                                          i1 -= 4;
   1475                                          break;
   1476          
   1477                                      case -83: 
   1478                                         //debug("-83-1",abyte0[i5],abyte0[i5+1]);
   1479                                          nn=abyte0[i5++] & 0xff;
   1480                                          k1 = j1 = aint1int(nn | (abyte0[i5++] & 0xff) << 8);
   1481                                          i1 -= 4;
   1482                                          //debug("-83-2",k1,abyte0[i5-1]);                              
   1483                                          break;
   1484          
   1485                                      case -82: 
   1486                                          nn=abyte0[i5++] & 0xff;
   1487                                          k1 = l1 = aint1int(nn | (abyte0[i5++] & 0xff) << 8);
   1488                                          i1 -= 4;
   1489                                          break;
   1490          
   1491                                      case -81: 
   1492                                          flag61 = true;
   1493                                          break;
   1494          
   1495                                      case -80: 
   1496                                          if(k2 != 0) {
   1497                                              byte11 = abyte0[i5++];
   1498                                              i5 += byte11;
   1499                                              i1 -= 3;
   1500                                          } else {
   1501                                              i5++;
   1502                                              i1 -= 2;
   1503                                          }
   1504                                          break;
   1505          
   1506                                      case -79: 
   1507                                          j26 = abyte0[i5++] & 0xff;
   1508                                          k1 = j1 = aint1int((abyte0[j26] & 0xff | (abyte0[j26 + 1] & 0xff) << 8) + i2);
   1509                                          i1 -= 5;
   1510                                          break;
   1511          
   1512                                      case -78: 
   1513                                          flag62 = true;
   1514                                          break;
   1515          
   1516                                      case -77: 
   1517                                          flag63 = true;
   1518                                          break;
   1519          
   1520                                      case -76: 
   1521                                          k1 = i2 = abyte0[abyte0[i5++] + l1 & 0xff] & 0xff;
   1522                                          i1 -= 4;
   1523                                          break;
   1524          
   1525                                      case -75: 
   1526                                          k1 = j1 = abyte0[abyte0[i5++] + l1 & 0xff] & 0xff;
   1527                                          i1 -= 4;
   1528                                          break;
   1529          
   1530                                      case -74: 
   1531                                          k1 = l1 = abyte0[abyte0[i5++] + i2 & 0xff] & 0xff;
   1532                                          i1 -= 4;
   1533                                          break;
   1534          
   1535                                      case -73: 
   1536                                          flag64 = true;
   1537                                          break;
   1538          
   1539                                      case -72: 
   1540                                          l3 = 0;
   1541                                          i1 -= 2;
   1542                                          break;
   1543          
   1544                                      case -71: 
   1545                                          nn=abyte0[i5++] & 0xff;
   1546                                          k1 = j1 = aint1int((nn | (abyte0[i5++] & 0xff) << 8) + i2);
   1547                                          i1 -= 4;
   1548                                          break;
   1549          
   1550                                      case -70: 
   1551                                          k1 = l1 = j2;
   1552                                          i1 -= 2;
   1553                                          break;
   1554          
   1555                                      case -69: 
   1556                                          flag65 = true;
   1557                                          break;
   1558          
   1559                                      case -68: 
   1560                                        nn=abyte0[i5++] & 0xff;
   1561                                          k1 = i2 = aint1int((nn | (abyte0[i5++] & 0xff) << 8) + l1);
   1562                                          i1 -= 4;
   1563                                          break;
   1564          
   1565                                      case -67: 
   1566                                          nn=abyte0[i5++] & 0xff;
   1567                                          k1 = j1 = aint1int((nn | (abyte0[i5++] & 0xff) << 8) + l1);
   1568                                          i1 -= 4;
   1569                                          break;
   1570          
   1571                                      case -66: 
   1572                                        nn=abyte0[i5++] & 0xff;
   1573                                          k1 = l1 = aint1int((nn | (abyte0[i5++] & 0xff) << 8) + i2);
   1574                                          i1 -= 4;
   1575                                          break;
   1576          
   1577                                      case -65: 
   1578                                          flag66 = true;
   1579                                          break;
   1580          
   1581                                      case -64: 
   1582                                          k26 = i2 - (abyte0[i5++] & 0xff);
   1583                                          k2 = k26 < 0 ? 0 : 1;
   1584                                          k1 = k26 & 0xff;
   1585                                          i1 -= 2;
   1586                                          break;
   1587          
   1588                                      case -63: 
   1589                                          l26 = abyte0[i5++] + l1 & 0xff;
   1590                                          l26 = j1 - aint1int(abyte0[l26] & 0xff | (abyte0[l26 + 1] & 0xff) << 8);
   1591                                          k2 = l26 < 0 ? 0 : 1;
   1592                                          k1 = l26 & 0xff;
   1593                                          i1 -= 6;
   1594                                          break;
   1595          
   1596                                      case -62: 
   1597                                          i5++;
   1598                                          i1 -= 2;
   1599                                          break;
   1600          
   1601                                      case -61: 
   1602                                          flag67 = true;
   1603                                          break;
   1604          
   1605                                      case -60: 
   1606                                          i27 = i2 - (abyte0[abyte0[i5++] & 0xff] & 0xff);
   1607                                          k2 = i27 < 0 ? 0 : 1;
   1608                                          k1 = i27 & 0xff;
   1609                                          i1 -= 3;
   1610                                          break;
   1611          
   1612                                      case -59: 
   1613                                          j27 = j1 - (abyte0[abyte0[i5++] & 0xff] & 0xff);
   1614                                          k2 = j27 < 0 ? 0 : 1;
   1615                                          k1 = j27 & 0xff;
   1616                                          i1 -= 3;
   1617                                          break;
   1618          
   1619                                      case -58: 
   1620                                          k27 = abyte0[i5++] & 0xff;
   1621                                          k1 = --abyte0[k27] & 0xff;
   1622                                          i1 -= 5;
   1623                                          break;
   1624          
   1625                                      case -57: 
   1626                                          flag68 = true;
   1627                                          break;
   1628          
   1629                                      case -56: 
   1630                                          k1 = i2 = i2 + 1 & 0xff;
   1631                                          i1 -= 2;
   1632                                          break;
   1633          
   1634                                      case -55: 
   1635                                          l27 = j1 - (abyte0[i5++] & 0xff);
   1636                                          k2 = l27 < 0 ? 0 : 1;
   1637                                          k1 = l27 & 0xff;
   1638                                          i1 -= 2;
   1639                                          break;
   1640          
   1641                                      case -54: 
   1642                                          k1 = l1 = l1 - 1 & 0xff;
   1643                                          i1 -= 2;
   1644                                          break;
   1645          
   1646                                      case -53: 
   1647                                          flag69 = true;
   1648                                          break;
   1649          
   1650                                      case -52: 
   1651                                          nn=abyte0[i5++] & 0xff;
   1652                                          i28 = i2 - aint1int(nn | (abyte0[i5++] & 0xff) << 8);
   1653                                          k2 = i28 < 0 ? 0 : 1;
   1654                                          k1 = i28 & 0xff;
   1655                                          i1 -= 4;
   1656                                          break;
   1657          
   1658                                      case -51: 
   1659                                         nn=abyte0[i5++] & 0xff;
   1660                                          j28 = j1 - aint1int(nn | (abyte0[i5++] & 0xff) << 8);
   1661                                          k2 = j28 < 0 ? 0 : 1;
   1662                                          k1 = j28 & 0xff;
   1663                                          i1 -= 4;
   1664                                          break;
   1665          
   1666                                      case -50: 
   1667                                         nn=abyte0[i5++] & 0xff;
   1668                                          k28 = nn | (abyte0[i5++] & 0xff) << 8;
   1669                                          avoid2int(k28, k1 = aint1int(k28) - 1 & 0xff);
   1670                                          i1 -= 6;
   1671                                          break;
   1672          
   1673                                      case -49: 
   1674                                          flag70 = true;
   1675                                          break;
   1676          
   1677                                      case -48: 
   1678                                          if(k1 != 0) {
   1679                                              byte12 = abyte0[i5++];
   1680                                              i5 += byte12;
   1681                                              i1 -= 3;
   1682                                              if(byte12 < 0 && byte12 >= -5) {
   1683                                                  i29 = abyte0[i5];
   1684                                                  if(byte12 == -2)
   1685                                                      i1 = 0;
   1686                                                  else
   1687                                                  if(byte12 == -4 && i29 == -91)
   1688                                                      i1 = 0;
   1689                                                  else
   1690                                                  if(byte12 == -5 && i29 == -83)
   1691                                                      i1 = 0;
   1692                                                  else
   1693                                                  if(byte12 == -3 && i29 == -54) {
   1694                                                      i29 = i1 / 5;
   1695                                                      if(l1 < i29)
   1696                                                          i29 = l1;
   1697                                                      l1 -= i29;
   1698                                                      i1 -= i29 * 5;
   1699                                                      if(l1 == 0) {
   1700                                                          k1 = l1;
   1701                                                          i1++;
   1702                                                          i5 -= byte12;
   1703                                                      }
   1704                                                  } else
   1705                                                  if(byte12 == -4 && i29 == -22 && abyte0[i5 + 1] == -54) {
   1706                                                      i29 = i1 / 7;
   1707                                                      if(l1 < i29)
   1708                                                          i29 = l1;
   1709                                                      l1 -= i29;
   1710                                                      i1 -= i29 * 7;
   1711                                                      if(l1 == 0) {
   1712                                                          k1 = l1;
   1713                                                          i1++;
   1714                                                          i5 -= byte12;
   1715                                                      }
   1716                                                  } else
   1717                                                  if(byte12 == -3 && i29 == -120) {
   1718                                                      j29 = i1 / 5;
   1719                                                      if(i2 < j29)
   1720                                                          j29 = i2;
   1721                                                      i2 -= j29;
   1722                                                      i1 -= j29 * 5;
   1723                                                      if(i2 == 0) {
   1724                                                          k1 = i2;
   1725                                                          i1++;
   1726                                                          i5 -= byte12;
   1727                                                      }
   1728                                                  }
   1729                                              }
   1730                                          } else {
   1731                                              i5++;
   1732                                              i1 -= 2;
   1733                                          }
   1734                                          break;
   1735          
   1736                                      case -47: 
   1737                                          l28 = abyte0[i5++] & 0xff;
   1738                                          l28 = j1 - aint1int((abyte0[l28] & 0xff | (abyte0[l28 + 1] & 0xff) << 8) + i2);
   1739                                          k2 = l28 < 0 ? 0 : 1;
   1740                                          k1 = l28 & 0xff;
   1741                                          i1 -= 5;
   1742                                          break;
   1743          
   1744                                      case -46: 
   1745                                          flag71 = true;
   1746                                          break;
   1747          
   1748                                      case -45: 
   1749                                          flag72 = true;
   1750                                          break;
   1751          
   1752                                      case -44: 
   1753                                          i5++;
   1754                                          i1 -= 4;
   1755                                          break;
   1756          
   1757                                      case -43: 
   1758                                          k29 = j1 - (abyte0[abyte0[i5++] + l1 & 0xff] & 0xff);
   1759                                          k2 = k29 < 0 ? 0 : 1;
   1760                                          k1 = k29 & 0xff;
   1761                                          i1 -= 4;
   1762                                          break;
   1763          
   1764                                      case -42: 
   1765                                          l29 = abyte0[i5++] + l1 & 0xff;
   1766                                          k1 = --abyte0[l29] & 0xff;
   1767                                          i1 -= 6;
   1768                                          break;
   1769          
   1770                                      case -41: 
   1771                                          flag73 = true;
   1772                                          break;
   1773          
   1774                                      case -40: 
   1775                                          i3 = 0;
   1776                                          i1 -= 2;
   1777                                          break;
   1778          
   1779                                      case -39: 
   1780                                          nn=abyte0[i5++] & 0xff;
   1781                                          i30 = j1 - aint1int((nn | (abyte0[i5++] & 0xff) << 8) + i2);
   1782                                          k2 = i30 < 0 ? 0 : 1;
   1783                                          k1 = i30 & 0xff;
   1784                                          i1 -= 4;
   1785                                          break;
   1786          
   1787                                      case -38: 
   1788                                          i1 -= 2;
   1789                                          break;
   1790          
   1791                                      case -37: 
   1792                                          flag74 = true;
   1793                                          break;
   1794          
   1795                                      case -36: 
   1796                                          i5 += 2;
   1797                                          i1 -= 4;
   1798                                          break;
   1799          
   1800                                      case -35: 
   1801                                        nn=abyte0[i5++] & 0xff;
   1802                                          j30 = j1 - aint1int((nn | (abyte0[i5++] & 0xff) << 8) + l1);
   1803                                          k2 = j30 < 0 ? 0 : 1;
   1804                                          k1 = j30 & 0xff;
   1805                                          i1 -= 5;
   1806                                          break;
   1807          
   1808                                      case -34: 
   1809                                        nn=abyte0[i5++] & 0xff;
   1810                                          k30 = (nn | (abyte0[i5++] & 0xff) << 8) + l1;
   1811                                          avoid2int(k30, k1 = aint1int(k30) - 1 & 0xff);
   1812                                          i1 -= 7;
   1813                                          break;
   1814          
   1815                                      case -33: 
   1816                                          flag75 = true;
   1817                                          break;
   1818          
   1819                                      case -32: 
   1820                                          l30 = l1 - (abyte0[i5++] & 0xff);
   1821                                          k2 = l30 < 0 ? 0 : 1;
   1822                                          k1 = l30 & 0xff;
   1823                                          i1 -= 2;
   1824                                          break;
   1825          
   1826                                      case -31: 
   1827                                          i31 = abyte0[i5++] + l1 & 0xff;
   1828                                          j31 = aint1int(abyte0[i31] & 0xff | (abyte0[i31 + 1] & 0xff) << 8);
   1829                                          k31 = j1 - j31 - (1 - k2);
   1830                                          l3 = ((j1 ^ j31) & (j1 ^ k31)) >> 7;
   1831                                          k2 = k31 < 0 ? 0 : 1;
   1832                                          k1 = j1 = k31 & 0xff;
   1833                                          i1 -= 6;
   1834                                          break;
   1835          
   1836                                      case -30: 
   1837                                          i5++;
   1838                                          i1 -= 2;
   1839                                          break;
   1840          
   1841                                      case -29: 
   1842                                          flag76 = true;
   1843                                          break;
   1844          
   1845                                      case -28: 
   1846                                          l31 = l1 - (abyte0[abyte0[i5++] & 0xff] & 0xff);
   1847                                          k2 = l31 < 0 ? 0 : 1;
   1848                                          k1 = l31 & 0xff;
   1849                                          i1 -= 3;
   1850                                          break;
   1851          
   1852                                      case -27: 
   1853                                          i32 = abyte0[abyte0[i5++] & 0xff] & 0xff;
   1854                                          j32 = j1 - i32 - (1 - k2);
   1855                                          l3 = ((j1 ^ i32) & (j1 ^ j32)) >> 7;
   1856                                          k2 = j32 < 0 ? 0 : 1;
   1857                                          k1 = j1 = j32 & 0xff;
   1858                                          i1 -= 3;
   1859                                          break;
   1860          
   1861                                      case -26: 
   1862                                          k32 = abyte0[i5++] & 0xff;
   1863                                          k1 = ++abyte0[k32] & 0xff;
   1864                                          i1 -= 5;
   1865                                          break;
   1866          
   1867                                      case -25: 
   1868                                          flag77 = true;
   1869                                          break;
   1870          
   1871                                      case -24: 
   1872                                          k1 = l1 = l1 + 1 & 0xff;
   1873                                          i1 -= 2;
   1874                                          break;
   1875          
   1876                                      case -23: 
   1877                                          l32 = abyte0[i5++] & 0xff;
   1878                                          i33 = j1 - l32 - (1 - k2);
   1879                                          l3 = ((j1 ^ l32) & (j1 ^ i33)) >> 7;
   1880                                          k2 = i33 < 0 ? 0 : 1;
   1881                                          k1 = j1 = i33 & 0xff;
   1882                                          i1 -= 2;
   1883                                          break;
   1884          
   1885                                      case -22: 
   1886                                          i1 -= 2;
   1887                                          break;
   1888          
   1889                                      case -21: 
   1890                                          j33 = abyte0[i5++] & 0xff;
   1891                                          k33 = j1 - j33 - (1 - k2);
   1892                                          l3 = ((j1 ^ j33) & (j1 ^ k33)) >> 7;
   1893                                          k2 = k33 < 0 ? 0 : 1;
   1894                                          k1 = j1 = k33 & 0xff;
   1895                                          i1 -= 2;
   1896                                          break;
   1897          
   1898                                      case -20: 
   1899                                        nn=abyte0[i5++] & 0xff;
   1900                                          l33 = l1 - aint1int(nn | (abyte0[i5++] & 0xff) << 8);
   1901                                          k2 = l33 < 0 ? 0 : 1;
   1902                                          k1 = l33 & 0xff;
   1903                                          i1 -= 4;
   1904                                          break;
   1905          
   1906                                      case -19: 
   1907                                        nn=abyte0[i5++] & 0xff;
   1908                                          i34 = aint1int(nn | (abyte0[i5++] & 0xff) << 8);
   1909                                          j34 = j1 - i34 - (1 - k2);
   1910                                          l3 = ((j1 ^ i34) & (j1 ^ j34)) >> 7;
   1911                                          k2 = j34 < 0 ? 0 : 1;
   1912                                          k1 = j1 = j34 & 0xff;
   1913                                          i1 -= 4;
   1914                                          break;
   1915          
   1916                                      case -18: 
   1917                                        nn=abyte0[i5++] & 0xff;
   1918                                          k34 = nn | (abyte0[i5++] & 0xff) << 8;
   1919                                          avoid2int(k34, k1 = aint1int(k34) + 1 & 0xff);
   1920                                          i1 -= 6;
   1921                                          break;
   1922          
   1923                                      case -17: 
   1924                                          flag78 = true;
   1925                                          break;
   1926          
   1927                                      case -16: 
   1928                                          if(k1 == 0) {
   1929                                              byte13 = abyte0[i5++];
   1930                                              i5 += byte13;
   1931                                              i1 -= 3;
   1932                                              if(byte13 < 0 && byte13 >= -5) {
   1933                                                  byte14 = abyte0[i5];
   1934                                                  if(byte13 == -4 && (byte14 == -59 || byte14 == -91))
   1935                                                      i1 = 0;
   1936                                              }
   1937                                          } else {
   1938                                              i5++;
   1939                                              i1 -= 2;
   1940                                          }
   1941                                          break;
   1942          
   1943                                      case -15: 
   1944                                          l34 = abyte0[i5++] & 0xff;
   1945                                          i35 = aint1int((abyte0[l34] & 0xff | (abyte0[l34 + 1] & 0xff) << 8) + i2);
   1946                                          j35 = j1 - i35 - (1 - k2);
   1947                                          l3 = ((j1 ^ i35) & (j1 ^ j35)) >> 7;
   1948                                          k2 = j35 < 0 ? 0 : 1;
   1949                                          k1 = j1 = j35 & 0xff;
   1950                                          i1 -= 5;
   1951                                          break;
   1952          
   1953                                      case -14: 
   1954                                          flag6 = true;
   1955                                          break;
   1956          
   1957                                      case -13: 
   1958                                          flag6 = true;
   1959                                          break;
   1960          
   1961                                      case -12: 
   1962                                          i5++;
   1963                                          i1 -= 4;
   1964                                          break;
   1965          
   1966                                      case -11: 
   1967                                          k35 = abyte0[abyte0[i5++] + l1 & 0xff] & 0xff;
   1968                                          l35 = j1 - k35 - (1 - k2);
   1969                                          l3 = ((j1 ^ k35) & (j1 ^ l35)) >> 7;
   1970                                          k2 = l35 < 0 ? 0 : 1;
   1971                                          k1 = j1 = l35 & 0xff;
   1972                                          i1 -= 4;
   1973                                          break;
   1974          
   1975                                      case -10: 
   1976                                          i36 = abyte0[i5++] + l1 & 0xff;
   1977                                          k1 = ++abyte0[i36] & 0xff;
   1978                                          i1 -= 6;
   1979                                          break;
   1980          
   1981                                      case -9: 
   1982                                          flag6 = true;
   1983                                          break;
   1984          
   1985                                      case -8: 
   1986                                          i3 = 1;
   1987                                          i1 -= 2;
   1988                                          break;
   1989          
   1990                                      case -7: 
   1991                                        nn=abyte0[i5++] & 0xff;
   1992                                          j36 = aint1int((nn | (abyte0[i5++] & 0xff) << 8) + i2);
   1993                                          k36 = j1 - j36 - (1 - k2);
   1994                                          l3 = ((j1 ^ j36) & (j1 ^ k36)) >> 7;
   1995                                          k2 = k36 < 0 ? 0 : 1;
   1996                                          k1 = j1 = k36 & 0xff;
   1997                                          i1 -= 4;
   1998                                          break;
   1999          
   2000                                      case -6: 
   2001                                          i1 -= 2;
   2002                                          break;
   2003          
   2004                                      case -5: 
   2005                                          flag6 = true;
   2006                                          break;
   2007          
   2008                                      case -4: 
   2009                                          i5 += 2;
   2010                                          i1 -= 4;
   2011                                          break;
   2012          
   2013                                      case -3: 
   2014                                        nn=abyte0[i5++] & 0xff;
   2015                                          l36 = aint1int((nn | (abyte0[i5++] & 0xff) << 8) + l1);
   2016                                          i37 = j1 - l36 - (1 - k2);
   2017                                          l3 = ((j1 ^ l36) & (j1 ^ i37)) >> 7;
   2018                                          k2 = i37 < 0 ? 0 : 1;
   2019                                          k1 = j1 = i37 & 0xff;
   2020                                          i1 -= 5;
   2021                                          break;
   2022          
   2023                                      case -2: 
   2024                                        nn=abyte0[i5++] & 0xff;
   2025                                          j37 = (nn | (abyte0[i5++] & 0xff) << 8) + l1;
   2026                                          avoid2int(j37, k1 = aint1int(j37) + 1 & 0xff);
   2027                                          i1 -= 7;
   2028                                          break;
   2029          
   2030                                      case -1: 
   2031                                          flag6 = true;
   2032                                          break;
   2033                                      }
   2034                                  }             
   2035                                  
   2036                                  
   2037                                  while(true);
   2038                              }
   2039                              if(flag2 && bint1int(k6) != 0 && l2 == 0) {
   2040                                  k4 = i5 - l4;
   2041                                  abyte0[j2-- + 256] = (byte)(k4 >> 8);
   2042                                  abyte0[j2-- + 256] = (byte)k4;
   2043                                  abyte0[j2-- + 256] = (byte)(k2 | (k1 == 0 ? 2 : 0) | (k1 >> 7) << 7 | l3 << 6 | l2 << 2);
   2044                                  k4 = abyte0[ai2[7] + 65534] & 0xff | (abyte0[ai2[7] + 65535] & 0xff) << 8;
   2045                                  i5 = k4 + (l4 = ai2[k4 >> 13]);
   2046                                  l2 = 1;
   2047                                  i1 += 7;
   2048                              }
   2049                              
   2050                              /* timing */
   2051                                if(/*flag5 &&*/ t_boolean_static_fld && k6 == 240 && (R & 0x18) != 0) {
   2052                                  long l8 = SystemcurrentTimeMillis();
   2053                                  c_long_static_fld += l8 - l6;
   2054                                  //c c1 = main;
   2055                                  a_long_static_fld = k5;//c.??
   2056                             //     try {
   2057                                  
   2058                                  //(*(long*)0xA8100000)=LastTmrVal;
   2059                                     while(SysTimer()<LastTmrVal)c0();                        
   2060                                                                           // LastTmrVal=LastTmrVal+40-A*10;  
   2061                                   
   2062                                      
   2063                                      LastTmrVal=LastTmrVal+A*10;                    
   2064                             //     }
   2065                             //     catch(Exception exception2) { }
   2066                                  l6 = SystemcurrentTimeMillis();
   2067                                  b_long_static_fld += l6 - l8;
   2068                              }
   2069                              //////////////////////////////////
   2070                              if(t_boolean_static_fld || k6 >= 240 || (R & 0x18) == 0)
   2071                                  continue;
   2072                              
   2073                              if(flag5) {
   2074                                  D &= 0xfbe0;
   2075                                  D |= y & 0x41f;
   2076                                  long l9 = SystemcurrentTimeMillis();
   2077                                  c_long_static_fld += l9 - l6;
   2078                                  //c c2 = main;
   2079                                  a_long_static_fld = k5;//c.??
   2080                                  if(b_boolean_array1d_static_fld[k6])
   2081                                      xd(k6);
   2082                                  else
   2083                                     // try {
   2084                                          avoid1int(k6);
   2085                                     // }
   2086                                     // catch(Exception exception3) { }
   2087                                  if(k6 == 239) {//==
   2088                                    while(SysTimer()<LastTmrVal){}; 
   2089                                      LastTmrVal=LastTmrVal+A*10;
   2090                                      repaint();
   2091                                      
   2092                                      //serviceRepaints();
   2093                                  }
   2094                                  l6 = SystemcurrentTimeMillis();
   2095                                  b_long_static_fld += l6 - l9;
   2096                                  if((D & 0x7000) == 28672) {
   2097                                      D &= 0x8fff;
   2098                                      if((D & 0x3e0) == 928) {
   2099                                          D ^= 0x800;
   2100                                          D &= 0xfc1f;
   2101                                          continue;
   2102                                      }
   2103                                      if((D & 0x3e0) == 992)
   2104                                          D &= 0xfc1f;
   2105                                      else
   2106                                          D += 32;
   2107                                  } else {
   2108                                      D += 4096;
   2109                                  }
   2110                              } else {
   2111                                  xd(k6);
   2112                              }
   2113                          }
   2114                            
   2115                              /*
   2116                               if((SysTimer()-LastTmrVal)>100)
   2117                                      {
   2118                                      A++;
   2119                                      if(A>9)A=9;
   2120                                      }
   2121                                      else
   2122                                      {
   2123                                       A--;
   2124                                      if(A<1)A=1; 
   2125                                      }
   2126                               */
   2127                                     
   2128                               
   2129                          k5++;
   2130                          if(l_boolean_static_fld)
   2131                              k_int_static_fld = k_int_static_fld & 0xfe | k5 & 1;
   2132                          if(j_boolean_static_fld)
   2133                              k_int_static_fld = k_int_static_fld & 0xfd | (k5 & 1) << 1;
   2134                          if(flag && k5 == 0) {
   2135                              i7 = 0;
   2136                              flag = false;
   2137                              for(j7 = 1; j7 < 100; j7++)
   2138                                  if(ai1[j7] > ai1[i7])
   2139                                      i7 = j7;
   2140          
   2141                              if(ai1[i7] < 8000)
   2142                                  j4 = 0x7fffffff;
   2143                              else
   2144                                  j4 = ai[i7];
   2145                              c_long_static_fld = b_long_static_fld = 0L;
   2146                              l6 = SystemcurrentTimeMillis();
   2147                          }
   2148                          if(p_boolean_static_fld) {
   2149                              long l7 = SystemcurrentTimeMillis();
   2150                              c_long_static_fld += l7 - l6;
   2151                      //        while(p_boolean_static_fld) 
   2152                      //            try {
   2153                      //                Thread.sleep(100L);
   2154                      //            }
   2155                      //            catch(InterruptedException interruptedexception) { }
   2156                              l6 = SystemcurrentTimeMillis();
   2157                          }
   2158                      } while(!v_boolean_static_fld);          
   2159                       
   2160                              
   2161                      v_boolean_static_fld = false;
   2162                      if(n_boolean_static_fld)
   2163                          break;
   2164                      if(d_boolean_static_fld) {
   2165                          d_boolean_static_fld = false;
   2166                          
   2167                          if(openstream(1)!=-1) {
   2168          //                    ByteArrayOutputStream bytearrayoutputstream = new ByteArrayOutputStream();
   2169                              bytearrayoutputstreamwrite(j1 & 0xff);
   2170                              bytearrayoutputstreamwrite(l1 & 0xff);
   2171                              bytearrayoutputstreamwrite(i2 & 0xff);
   2172                              bytearrayoutputstreamwrite(k2 & 0xff);
   2173                              bytearrayoutputstreamwrite(k1 & 0xff);
   2174                              bytearrayoutputstreamwrite(l2 & 0xff);
   2175                              bytearrayoutputstreamwrite(i3 & 0xff);
   2176                              bytearrayoutputstreamwrite(j3 & 0xff);
   2177                              bytearrayoutputstreamwrite(k3 & 0xff);
   2178                              bytearrayoutputstreamwrite(l3 & 0xff);
   2179                              bytearrayoutputstreamwrite(i4 & 0xff);
   2180                              bytearrayoutputstreamwrite(j2 & 0xff);
   2181                              bytearrayoutputstreamwrite(k4 >> 0 & 0xff);
   2182                              bytearrayoutputstreamwrite(k4 >> 8 & 0xff);
   2183                              bytearrayoutputstreamwrite(i5 >> 0 & 0xff);
   2184                              bytearrayoutputstreamwrite(i5 >> 8 & 0xff);
   2185                              bytearrayoutputstreamwrite(i5 >> 16 & 0xff);
   2186                              bytearrayoutputstreamwrite(i5 >> 24 & 0xff);
   2187                              bytearrayoutputstreamwrite(l4 >> 0 & 0xff);
   2188                              bytearrayoutputstreamwrite(l4 >> 8 & 0xff);
   2189                              bytearrayoutputstreamwrite(l4 >> 16 & 0xff);
   2190                              bytearrayoutputstreamwrite(l4 >> 24 & 0xff);
   2191                              bytearrayoutputstreamwrite(j4 >> 0 & 0xff);
   2192                              bytearrayoutputstreamwrite(j4 >> 8 & 0xff);
   2193                              bytearrayoutputstreamwrite(j4 >> 16 & 0xff);
   2194                              bytearrayoutputstreamwrite(j4 >> 24 & 0xff);
   2195                              bytearrayoutputstreamwrite(i1 & 0xff);
   2196                              bytearrayoutputstreamwrite(p_boolean_static_fld ? 255 : 0);
   2197                              c_out();//bytearrayoutputstream);
   2198                              b_out();//bytearrayoutputstream);
   2199                              closestream();
   2200          //                    bytearrayoutputstream.close();
   2201          //                    avoid1String1bytes(b_java_lang_String_static_fld + "save" + z + ".dat", bytearrayoutputstream.toByteArray());
   2202                          }
   2203          //                catch(Exception exception) { }
   2204                      }
   2205                      if(o_boolean_static_fld) {
   2206                          o_boolean_static_fld = false;
   2207                          
   2208                        if(openstream(0)!=-1){
   2209            //                  byte abyte1[] = bbytes1String(b_java_lang_String_static_fld + "save" + z + ".dat");
   2210          //                    ByteArrayInputStream bytearrayinputstream = null;
   2211          //                    if(abyte1 != null)
   2212          //                        bytearrayinputstream = new ByteArrayInputStream(abyte1);
   2213                              j1 = bytearrayinputstreamread() & 0xff;
   2214                              l1 = bytearrayinputstreamread() & 0xff;
   2215                              i2 = bytearrayinputstreamread() & 0xff;
   2216                              k2 = bytearrayinputstreamread() & 0xff;
   2217                              k1 = bytearrayinputstreamread() & 0xff;
   2218                              l2 = bytearrayinputstreamread() & 0xff;
   2219                              i3 = bytearrayinputstreamread() & 0xff;
   2220                              j3 = bytearrayinputstreamread() & 0xff;
   2221                              k3 = bytearrayinputstreamread() & 0xff;
   2222                              l3 = bytearrayinputstreamread() & 0xff;
   2223                              i4 = bytearrayinputstreamread() & 0xff;
   2224                              j2 = bytearrayinputstreamread() & 0xff;
   2225                              k4 = bytearrayinputstreamread() & 0xff;
   2226                              k4 |= (bytearrayinputstreamread() & 0xff) << 8;
   2227                              i5 = bytearrayinputstreamread() & 0xff;
   2228                              i5 |= (bytearrayinputstreamread() & 0xff) << 8;
   2229                              i5 |= (bytearrayinputstreamread() & 0xff) << 16;
   2230                              i5 |= (bytearrayinputstreamread() & 0xff) << 24;
   2231                              l4 = bytearrayinputstreamread() & 0xff;
   2232                              l4 |= (bytearrayinputstreamread() & 0xff) << 8;
   2233                              l4 |= (bytearrayinputstreamread() & 0xff) << 16;
   2234                              l4 |= (bytearrayinputstreamread() & 0xff) << 24;
   2235                              j4 = bytearrayinputstreamread() & 0xff;
   2236                              j4 |= (bytearrayinputstreamread() & 0xff) << 8;
   2237                              j4 |= (bytearrayinputstreamread() & 0xff) << 16;
   2238                              j4 |= (bytearrayinputstreamread() & 0xff) << 24;
   2239                              i1 = (byte)bytearrayinputstreamread();
   2240                              p_boolean_static_fld = bytearrayinputstreamread() == 255;
   \                     ??run_4:
   \   00000100   3C1E9FE5           LDR      R1,??run_1+0x8   ;; j_int_array1d_static_fld + 3205
   \   00000104   0000C1E5           STRB     R0,[R1, #+0]
   2241                              b_in();//(bytearrayinputstream);
   \   00000108   ........           BL       b_in
   2242                              c_in();//(bytearrayinputstream);
   \   0000010C   ........           BL       c_in
   2243                              closestream();
   \   00000110   ........           BL       closestream
   2244          //                    bytearrayinputstream.close();
   2245                          }
   2246          //                catch(Exception exception1) { }
   2247                          
   2248                      }
   2249                      if(h_boolean_static_fld) {
   \                     ??run_5:
   \   00000114   2C0E9FE5           LDR      R0,??run_1+0xC   ;; j_int_array1d_static_fld + 3208
   \   00000118   0000D0E5           LDRB     R0,[R0, #+0]
   \   0000011C   000050E3           CMP      R0,#+0
   \   00000120   4A00000A           BEQ      ??run_6
   2250                          h_boolean_static_fld = false;
   \   00000124   1C0E9FE5           LDR      R0,??run_1+0xC   ;; j_int_array1d_static_fld + 3208
   \   00000128   0010A0E3           MOV      R1,#+0
   \   0000012C   0010C0E5           STRB     R1,[R0, #+0]
   2251                          g();
   \   00000130   ........           BL       g
   2252                          for(i6 = 0; i6 < 10240; i6++)
   \   00000134   0000A0E3           MOV      R0,#+0
   2253                              abyte0[i6] = 0;
   \                     ??run_7:
   \   00000138   0010A0E3           MOV      R1,#+0
   \   0000013C   0510C0E7           STRB     R1,[R0, +R5]
   \   00000140   010080E2           ADD      R0,R0,#+1
   \   00000144   A00D50E3           CMP      R0,#+10240
   \   00000148   FAFFFFBA           BLT      ??run_7
   2254          
   2255                          if(b_byte_array1d_static_fld != null) {
   \   0000014C   F80D9FE5           LDR      R0,??run_1+0x10  ;; j_int_array1d_static_fld + 3160
   \   00000150   000090E5           LDR      R0,[R0, #+0]
   \   00000154   000050E3           CMP      R0,#+0
   \   00000158   0900000A           BEQ      ??run_8
   2256                              for(j6 = 0; j6 < 512; j6++)
   \   0000015C   0000A0E3           MOV      R0,#+0
   2257                                  abyte0[6144 + j6] = b_byte_array1d_static_fld[j6];
   \                     ??run_9:
   \   00000160   E42D9FE5           LDR      R2,??run_1+0x10  ;; j_int_array1d_static_fld + 3160
   \   00000164   051080E0           ADD      R1,R0,R5
   \   00000168   002092E5           LDR      R2,[R2, #+0]
   \   0000016C   601D81E2           ADD      R1,R1,#+6144
   \   00000170   D22090E1           LDRSB    R2,[R0, +R2]
   \   00000174   010080E2           ADD      R0,R0,#+1
   \   00000178   800F50E3           CMP      R0,#+512
   \   0000017C   0020C1E5           STRB     R2,[R1, #+0]
   \   00000180   F6FFFFBA           BLT      ??run_9
   2258          
   2259                          }
   2260                          avoid();
   \                     ??run_8:
   \   00000184   400B9BE5           LDR      R0,[R11, #+2880]
   2261                          j1 = 0;
   2262                          l1 = 0;
   \   00000188   0090A0E3           MOV      R9,#+0
   \   0000018C   C006A0E1           ASR      R0,R0,#+13
   \   00000190   FC098BE5           STR      R0,[R11, #+2556]
   \   00000194   340B9BE5           LDR      R0,[R11, #+2868]
   2263                          i2 = 0;
   2264                          byte byte1 = 4;
   2265                          j2 = 255;
   2266                          k2 = 0;
   \   00000198   0970A0E1           MOV      R7,R9
   \   0000019C   4005A0E1           ASR      R0,R0,#+10
   \   000001A0   F8098BE5           STR      R0,[R11, #+2552]
   \   000001A4   ........           BL       `b`
   \   000001A8   0910A0E1           MOV      R1,R9
   \   000001AC   00108DE5           STR      R1,[SP, #+0]
   \   000001B0   FF10A0E3           MOV      R1,#+255
   \   000001B4   04108DE5           STR      R1,[SP, #+4]
   2267                          k1 = 0;
   \   000001B8   0740A0E1           MOV      R4,R7
   2268                          l2 = 1;
   \   000001BC   0110A0E3           MOV      R1,#+1
   \   000001C0   18108DE5           STR      R1,[SP, #+24]
   2269                          i3 = 0;
   \   000001C4   0410A0E1           MOV      R1,R4
   \   000001C8   2C108DE5           STR      R1,[SP, #+44]
   2270                          j3 = 0;
   \   000001CC   30108DE5           STR      R1,[SP, #+48]
   2271                          k3 = 0;
   \   000001D0   34108DE5           STR      R1,[SP, #+52]
   2272                          l3 = 0;
   \   000001D4   0C108DE5           STR      R1,[SP, #+12]
   2273                          i4 = 0;
   \   000001D8   38108DE5           STR      R1,[SP, #+56]
   2274                          k4 = abyte0[ai2[7] + 65532] & 0xff | (abyte0[ai2[7] + 65533] & 0xff) << 8;
   \   000001DC   A420A0E3           MOV      R2,#+164
   \   000001E0   902E82E3           ORR      R2,R2,#0x900
   \   000001E4   0B1092E7           LDR      R1,[R2, +R11]
   \   000001E8   FC00A0E3           MOV      R0,#+252
   \   000001EC   FF0C80E3           ORR      R0,R0,#0xFF00
   \   000001F0   051081E0           ADD      R1,R1,R5
   \   000001F4   010080E0           ADD      R0,R0,R1
   \   000001F8   D020D0E1           LDRSB    R2,[R0, #+0]
   \   000001FC   D100D0E1           LDRSB    R0,[R0, #+1]
   \   00000200   FF2002E2           AND      R2,R2,#0xFF
   \   00000204   FF0000E2           AND      R0,R0,#0xFF
   \   00000208   000482E1           ORR      R0,R2,R0, LSL #+8
   \   0000020C   08008DE5           STR      R0,[SP, #+8]
   2275                          i5 = k4 + (l4 = ai2[k4 >> 13]);
   \   00000210   0010A0E1           MOV      R1,R0
   \   00000214   C116A0E1           ASR      R1,R1,#+13
   \   00000218   01118BE0           ADD      R1,R11,R1, LSL #+2
   \   0000021C   881991E5           LDR      R1,[R1, #+2440]
   \   00000220   00A0A0E3           MOV      R10,#+0
   \   00000224   10108DE5           STR      R1,[SP, #+16]
   \   00000228   008081E0           ADD      R8,R1,R0
   2276                          m();
   \                     ??run_3:
   \   0000022C   D8099BE5           LDR      R0,[R11, #+2520]
   \   00000230   0010A0E3           MOV      R1,#+0
   \   00000234   8020A0E1           LSL      R2,R0,#+1
   \   00000238   5C0C9BE5           LDR      R0,[R11, #+3164]
   \   0000023C   BB0000EF           SWI      +187
   \   00000240   0400A0E1           MOV      R0,R4
   \   00000244   440A8BE5           STR      R0,[R11, #+2628]
   2277                          k_int_static_fld = 0;
   2278                          l_boolean_static_fld = j_boolean_static_fld = false;
   \   00000248   8D0CCBE5           STRB     R0,[R11, #+3213]
   \   0000024C   8C0CCBE5           STRB     R0,[R11, #+3212]
   2279                      }
   \                     ??run_6:
   \   00000250   20009DE5           LDR      R0,[SP, #+32]
   \   00000254   F41C9FE5           LDR      R1,??run_1+0x14  ;; j_int_array1d_static_fld + 2884
   \   00000258   001091E5           LDR      R1,[R1, #+0]
   \   0000025C   ........           _BLF     ??div32_a,??rA??div32_a
   \   00000260   000050E3           CMP      R0,#+0
   \   00000264   E80C9FE5           LDR      R0,??run_1+0x18  ;; j_int_array1d_static_fld + 3204
   \   00000268   0110A003           MOVEQ    R1,#+1
   \   0000026C   0010A013           MOVNE    R1,#+0
   \   00000270   4010CDE5           STRB     R1,[SP, #+64]
   \   00000274   0000D0E5           LDRB     R0,[R0, #+0]
   \   00000278   000050E3           CMP      R0,#+0
   \   0000027C   0800000A           BEQ      ??run_10
   \   00000280   D01C9FE5           LDR      R1,??run_1+0x1C  ;; j_int_array1d_static_fld + 2892
   \   00000284   001091E5           LDR      R1,[R1, #+0]
   \   00000288   011081E2           ADD      R1,R1,#+1
   \   0000028C   24108DE5           STR      R1,[SP, #+36]
   \   00000290   F00051E3           CMP      R1,#+240
   \   00000294   070000BA           BLT      ??run_11
   \   00000298   0010E0E3           MVN      R1,#+0
   \   0000029C   24108DE5           STR      R1,[SP, #+36]
   \   000002A0   040000EA           B        ??run_11
   \                     ??run_10:
   \   000002A4   B00C9FE5           LDR      R0,??run_1+0x20  ;; j_int_array1d_static_fld + 2568
   \   000002A8   000090E5           LDR      R0,[R0, #+0]
   \   000002AC   180010E3           TST      R0,#0x18
   \   000002B0   500A9B15           LDRNE    R0,[R11, #+2640]
   \   000002B4   540A8B15           STRNE    R0,[R11, #+2644]
   \                     ??run_11:
   \   000002B8   0010A0E3           MOV      R1,#+0
   \   000002BC   14108DE5           STR      R1,[SP, #+20]
   \                     ??run_12:
   \   000002C0   8C0C9FE5           LDR      R0,??run_1+0x18  ;; j_int_array1d_static_fld + 3204
   \   000002C4   0000D0E5           LDRB     R0,[R0, #+0]
   \   000002C8   000050E3           CMP      R0,#+0
   \   000002CC   4A00000A           BEQ      ??run_13
   \   000002D0   14009DE5           LDR      R0,[SP, #+20]
   \   000002D4   24109DE5           LDR      R1,[SP, #+36]
   \   000002D8   011081E2           ADD      R1,R1,#+1
   \   000002DC   010050E1           CMP      R0,R1
   \   000002E0   4500001A           BNE      ??run_13
   \   000002E4   700C9FE5           LDR      R0,??run_1+0x20  ;; j_int_array1d_static_fld + 2568
   \   000002E8   000090E5           LDR      R0,[R0, #+0]
   \   000002EC   180010E3           TST      R0,#0x18
   \   000002F0   4100000A           BEQ      ??run_13
   \   000002F4   0C0A9BE5           LDR      R0,[R11, #+2572]
   \   000002F8   400080E3           ORR      R0,R0,#0x40
   \   000002FC   3D0000EA           B        ??run_14
   \                     ??run_15:
   \   00000300   011041E2           SUB      R1,R1,#+1
   \   00000304   010050E1           CMP      R0,R1
   \   00000308   3800000A           BEQ      ??run_16
   \   0000030C   F10050E3           CMP      R0,#+241
   \   00000310   0C0A9B05           LDREQ    R0,[R11, #+2572]
   \   00000314   80008003           ORREQ    R0,R0,#0x80
   \   00000318   3600000A           BEQ      ??run_14
   \   0000031C   F20050E3           CMP      R0,#+242
   \   00000320   E6FFFF1A           BNE      ??run_12
   \   00000324   340C9FE5           LDR      R0,??run_1+0x24  ;; j_int_array1d_static_fld + 2564
   \   00000328   000090E5           LDR      R0,[R0, #+0]
   \   0000032C   800010E3           TST      R0,#0x80
   \   00000330   3100000A           BEQ      ??run_13
   \   00000334   10009DE5           LDR      R0,[SP, #+16]
   \   00000338   04209DE5           LDR      R2,[SP, #+4]
   \   0000033C   001048E0           SUB      R1,R8,R0
   \   00000340   400FA0E3           MOV      R0,#+256
   \   00000344   052082E0           ADD      R2,R2,R5
   \   00000348   4134A0E1           ASR      R3,R1,#+8
   \   0000034C   0230C0E7           STRB     R3,[R0, +R2]
   \   00000350   04209DE5           LDR      R2,[SP, #+4]
   \   00000354   000054E3           CMP      R4,#+0
   \   00000358   012042E2           SUB      R2,R2,#+1
   \   0000035C   053082E0           ADD      R3,R2,R5
   \   00000360   0310C0E7           STRB     R1,[R0, +R3]
   \   00000364   010042E2           SUB      R0,R2,#+1
   \   00000368   012040E2           SUB      R2,R0,#+1
   \   0000036C   04208DE5           STR      R2,[SP, #+4]
   \   00000370   0210A003           MOVEQ    R1,#+2
   \   00000374   0010A013           MOVNE    R1,#+0
   \   00000378   071081E1           ORR      R1,R1,R7
   \   0000037C   C423A0E1           ASR      R2,R4,#+7
   \   00000380   821381E1           ORR      R1,R1,R2, LSL #+7
   \   00000384   0C209DE5           LDR      R2,[SP, #+12]
   \   00000388   050080E0           ADD      R0,R0,R5
   \   0000038C   021381E1           ORR      R1,R1,R2, LSL #+6
   \   00000390   18209DE5           LDR      R2,[SP, #+24]
   \   00000394   076086E2           ADD      R6,R6,#+7
   \   00000398   021181E1           ORR      R1,R1,R2, LSL #+2
   \   0000039C   0011C0E5           STRB     R1,[R0, #+256]
   \   000003A0   A420A0E3           MOV      R2,#+164
   \   000003A4   902E82E3           ORR      R2,R2,#0x900
   \   000003A8   0B1092E7           LDR      R1,[R2, +R11]
   \   000003AC   FA00A0E3           MOV      R0,#+250
   \   000003B0   FF0C80E3           ORR      R0,R0,#0xFF00
   \   000003B4   051081E0           ADD      R1,R1,R5
   \   000003B8   010080E0           ADD      R0,R0,R1
   \   000003BC   D020D0E1           LDRSB    R2,[R0, #+0]
   \   000003C0   D100D0E1           LDRSB    R0,[R0, #+1]
   \   000003C4   FF2002E2           AND      R2,R2,#0xFF
   \   000003C8   FF0000E2           AND      R0,R0,#0xFF
   \   000003CC   000482E1           ORR      R0,R2,R0, LSL #+8
   \   000003D0   08008DE5           STR      R0,[SP, #+8]
   \   000003D4   0010A0E1           MOV      R1,R0
   \   000003D8   C116A0E1           ASR      R1,R1,#+13
   \   000003DC   01118BE0           ADD      R1,R11,R1, LSL #+2
   \   000003E0   881991E5           LDR      R1,[R1, #+2440]
   \   000003E4   10108DE5           STR      R1,[SP, #+16]
   \   000003E8   008081E0           ADD      R8,R1,R0
   \   000003EC   020000EA           B        ??run_13
   \                     ??run_16:
   \   000003F0   0C0A9BE5           LDR      R0,[R11, #+2572]
   \   000003F4   3F0000E2           AND      R0,R0,#0x3F
   \                     ??run_14:
   \   000003F8   0C0A8BE5           STR      R0,[R11, #+2572]
   \                     ??run_13:
   \   000003FC   08009DE5           LDR      R0,[SP, #+8]
   \   00000400   1C109DE5           LDR      R1,[SP, #+28]
   \   00000404   010050E1           CMP      R0,R1
   \   00000408   6901000A           BEQ      ??run_17
   \   0000040C   400B9FE5           LDR      R0,??run_1+0x18  ;; j_int_array1d_static_fld + 3204
   \   00000410   0000D0E5           LDRB     R0,[R0, #+0]
   \   00000414   000050E3           CMP      R0,#+0
   \   00000418   1F00000A           BEQ      ??run_18
   \   0000041C   14009DE5           LDR      R0,[SP, #+20]
   \   00000420   F00050E3           CMP      R0,#+240
   \   00000424   130000AA           BGE      ??run_19
   \   00000428   24009DE5           LDR      R0,[SP, #+36]
   \   0000042C   14109DE5           LDR      R1,[SP, #+20]
   \   00000430   010050E1           CMP      R0,R1
   \   00000434   0100A0E1           MOV      R0,R1
   \   00000438   040000AA           BGE      ??run_20
   \   0000043C   F00060E2           RSB      R0,R0,#+240
   \   00000440   7410A0E3           MOV      R1,#+116
   \   00000444   916026E0           MLA      R6,R1,R0,R6
   \   00000448   F010A0E3           MOV      R1,#+240
   \   0000044C   110000EA           B        ??run_21
   \                     ??run_20:
   \   00000450   24109DE5           LDR      R1,[SP, #+36]
   \   00000454   010050E1           CMP      R0,R1
   \   00000458   0F0000AA           BGE      ??run_18
   \   0000045C   0100A0E1           MOV      R0,R1
   \   00000460   14109DE5           LDR      R1,[SP, #+20]
   \   00000464   010040E0           SUB      R0,R0,R1
   \   00000468   7410A0E3           MOV      R1,#+116
   \   0000046C   916026E0           MLA      R6,R1,R0,R6
   \   00000470   24109DE5           LDR      R1,[SP, #+36]
   \   00000474   070000EA           B        ??run_21
   \                     ??run_19:
   \   00000478   F20050E3           CMP      R0,#+242
   \   0000047C   060000BA           BLT      ??run_18
   \   00000480   410F50E3           CMP      R0,#+260
   \   00000484   040000AA           BGE      ??run_18
   \   00000488   410F60E2           RSB      R0,R0,#+260
   \   0000048C   7410A0E3           MOV      R1,#+116
   \   00000490   916026E0           MLA      R6,R1,R0,R6
   \   00000494   411FA0E3           MOV      R1,#+260
   \                     ??run_21:
   \   00000498   14108DE5           STR      R1,[SP, #+20]
   \                     ??run_18:
   \   0000049C   746086E2           ADD      R6,R6,#+116
   \   000004A0   0B0000EA           B        ??run_22
   \                     ??run_23:
   \   000004A4   010080E2           ADD      R0,R0,#+1
   \   000004A8   640050E3           CMP      R0,#+100
   \   000004AC   080000AA           BGE      ??run_22
   \                     ??run_24:
   \   000004B0   761F8DE2           ADD      R1,SP,#+472
   \   000004B4   001191E7           LDR      R1,[R1, +R0, LSL #+2]
   \   000004B8   000051E3           CMP      R1,#+0
   \   000004BC   F8FFFF1A           BNE      ??run_23
   \   000004C0   761F8DE2           ADD      R1,SP,#+472
   \   000004C4   0120A0E3           MOV      R2,#+1
   \   000004C8   002181E7           STR      R2,[R1, +R0, LSL #+2]
   \   000004CC   48108DE2           ADD      R1,SP,#+72
   \   000004D0   008181E7           STR      R8,[R1, +R0, LSL #+2]
   \                     ??run_22:
   \   000004D4   600A9FE5           LDR      R0,??run_1       ;; running
   \   000004D8   000090E5           LDR      R0,[R0, #+0]
   \   000004DC   000050E3           CMP      R0,#+0
   \   000004E0   2200001A           BNE      ??run_25
   \   000004E4   DADF8DE2           ADD      SP,SP,#+872      ;; stack cleaning
   \   000004E8   F08FBDE8           POP      {R4-R11,PC}      ;; return
   \                     ??run_26:
   \   000004EC   071081E1           ORR      R1,R1,R7
   \   000004F0   48BA9FE5           LDR      R11,??run_1+0x4  ;; j_int_array1d_static_fld
   \   000004F4   C423A0E1           ASR      R2,R4,#+7
   \   000004F8   821381E1           ORR      R1,R1,R2, LSL #+7
   \   000004FC   0C209DE5           LDR      R2,[SP, #+12]
   \   00000500   050080E0           ADD      R0,R0,R5
   \   00000504   021381E1           ORR      R1,R1,R2, LSL #+6
   \   00000508   18209DE5           LDR      R2,[SP, #+24]
   \   0000050C   021181E1           ORR      R1,R1,R2, LSL #+2
   \   00000510   0011C0E5           STRB     R1,[R0, #+256]
   \   00000514   A420A0E3           MOV      R2,#+164
   \   00000518   902E82E3           ORR      R2,R2,#0x900
   \   0000051C   0B1092E7           LDR      R1,[R2, +R11]
   \   00000520   FE00A0E3           MOV      R0,#+254
   \   00000524   FF0C80E3           ORR      R0,R0,#0xFF00
   \   00000528   051081E0           ADD      R1,R1,R5
   \   0000052C   010080E0           ADD      R0,R0,R1
   \   00000530   D020D0E1           LDRSB    R2,[R0, #+0]
   \   00000534   D100D0E1           LDRSB    R0,[R0, #+1]
   \   00000538   FF2002E2           AND      R2,R2,#0xFF
   \   0000053C   FF0000E2           AND      R0,R0,#0xFF
   \   00000540   000482E1           ORR      R0,R2,R0, LSL #+8
   \   00000544   08008DE5           STR      R0,[SP, #+8]
   \   00000548   0010A0E1           MOV      R1,R0
   \   0000054C   C116A0E1           ASR      R1,R1,#+13
   \   00000550   01118BE0           ADD      R1,R11,R1, LSL #+2
   \   00000554   881991E5           LDR      R1,[R1, #+2440]
   \   00000558   10108DE5           STR      R1,[SP, #+16]
   \   0000055C   008081E0           ADD      R8,R1,R0
   \   00000560   0110A0E3           MOV      R1,#+1
   \   00000564   30108DE5           STR      R1,[SP, #+48]
   \   00000568   18108DE5           STR      R1,[SP, #+24]
   \                     ??run_27:
   \   0000056C   076046E2           SUB      R6,R6,#+7
   \                     ??run_25:
   \   00000570   010056E3           CMP      R6,#+1
   \   00000574   0E0100BA           BLT      ??run_17
   \   00000578   0800A0E1           MOV      R0,R8
   \   0000057C   018080E2           ADD      R8,R0,#+1
   \   00000580   D50090E1           LDRSB    R0,[R0, +R5]
   \   00000584   800080E2           ADD      R0,R0,#+128
   \   00000588   FE0050E3           CMP      R0,#+254
   \   0000058C   F7FFFF8A           BHI      ??run_25
   \   00000590   021F8FE2           ADR      R1,??run_0
   \   00000594   8000A0E1           MOV      R0,R0, LSL #+1
   \   00000598   F01091E1           LDRSH    R1,[R1, R0]
   \   0000059C   01F18FE0           ADD      PC,PC,R1, LSL #+2
   \                     ??run_0:
   \   000005A0   260181042601       DC16     +294,+1153,+294,+65523
   \              F3FF        
   \   000005A8   8D0493049804       DC16     +1165,+1171,+1176,+65523
   \              F3FF        
   \   000005B0   9D042601A304       DC16     +1181,+294,+1187,+65523
   \              F3FF        
   \   000005B8   A504B104BD04       DC16     +1189,+1201,+1213,+65523
   \              F3FF        
   \   000005C0   C504C804F3FF       DC16     +1221,+1224,+65523,+65523
   \              F3FF        
   \   000005C8   D604DD04E304       DC16     +1238,+1245,+1251,+65523
   \              F3FF        
   \   000005D0   EA04EC04FA04       DC16     +1258,+1260,+1274,+65523
   \              F3FF        
   \   000005D8   F3FFFC04F3FF       DC16     +65523,+1276,+65523,+65523
   \              F3FF        
   \   000005E0   08050D051B05       DC16     +1288,+1293,+1307,+65523
   \              F3FF        
   \   000005E8   210528052F05       DC16     +1313,+1320,+1327,+65523
   \              F3FF        
   \   000005F0   360538053D05       DC16     +1334,+1336,+1341,+65523
   \              F3FF        
   \   000005F8   40054D055A05       DC16     +1344,+1357,+1370,+65523
   \              F3FF        
   \   00000600   66056C05F3FF       DC16     +1382,+1388,+65523,+65523
   \              F3FF        
   \   00000608   7B0583058B05       DC16     +1403,+1411,+1419,+65523
   \              F3FF        
   \   00000610   94059705A505       DC16     +1428,+1431,+1445,+65523
   \              F3FF        
   \   00000618   A705B605C405       DC16     +1447,+1462,+1476,+65523
   \              F3FF        
   \   00000620   D205DC052601       DC16     +1490,+1500,+294,+65523
   \              F3FF        
   \   00000628   EC05F8050306       DC16     +1516,+1528,+1539,+65523
   \              F3FF        
   \   00000630   0C0612061B06       DC16     +1548,+1554,+1563,+65523
   \              F3FF        
   \   00000638   1E062E063D06       DC16     +1566,+1582,+1597,+65523
   \              F3FF        
   \   00000640   4E069E06F3FF       DC16     +1614,+1694,+65523,+65523
   \              F3FF        
   \   00000648   3701AE06B706       DC16     +311,+1710,+1719,+65523
   \              F3FF        
   \   00000650   C006C306CC00       DC16     +1728,+1731,+204,+65523
   \              F3FF        
   \   00000658   D200CF06DF06       DC16     +210,+1743,+1759,+65523
   \              F3FF        
   \   00000660   EE06F3062601       DC16     +1774,+1779,+294,+65523
   \              F3FF        
   \   00000668   0B0712072407       DC16     +1803,+1810,+1828,+65523
   \              F3FF        
   \   00000670   2C072F07CC00       DC16     +1836,+1839,+204,+1855
   \              3F07        
   \   00000678   4F075E077507       DC16     +1871,+1886,+1909,+65523
   \              F3FF        
   \   00000680   85079607F3FF       DC16     +1925,+1942,+65523,+65523
   \              F3FF        
   \   00000688   3701AF07C207       DC16     +311,+1967,+1986,+65523
   \              F3FF        
   \   00000690   CB07CD07CC00       DC16     +1995,+1997,+204,+65523
   \              F3FF        
   \   00000698   D200E607FE07       DC16     +210,+2022,+2046,+65523
   \              F3FF        
   \   000006A0   7F009200F3FF       DC16     +127,+146,+65523,+65523
   \              F3FF        
   \   000006A8   A100A400AC00       DC16     +161,+164,+172,+65523
   \              F3FF        
   \   000006B0   B700C700CE00       DC16     +183,+199,+206,+65523
   \              F3FF        
   \   000006B8   D200D500E200       DC16     +210,+213,+226,+65523
   \              F3FF        
   \   000006C0   F4002801F3FF       DC16     +244,+296,+65523,+65523
   \              F3FF        
   \   000006C8   370139014201       DC16     +311,+313,+322,+65523
   \              F3FF        
   \   000006D0   4D014F01CC00       DC16     +333,+335,+204,+65523
   \              F3FF        
   \   000006D8   D2005B016601       DC16     +210,+347,+358,+65523
   \              F3FF        
   \   000006E0   79019601F3FF       DC16     +377,+406,+65523,+65523
   \              F3FF        
   \   000006E8   A401B201BA01       DC16     +420,+434,+442,+65523
   \              F3FF        
   \   000006F0   C301D701DC01       DC16     +451,+471,+476,+65523
   \              F3FF        
   \   000006F8   E101F4010002       DC16     +481,+500,+512,+65523
   \              F3FF        
   \   00000700   0F021602F3FF       DC16     +527,+534,+65523,+65523
   \              F3FF        
   \   00000708   370124022C02       DC16     +311,+548,+556,+65523
   \              F3FF        
   \   00000710   36023802CC00       DC16     +566,+568,+204,+65523
   \              F3FF        
   \   00000718   D20048025602       DC16     +210,+584,+598,+65523
   \              F3FF        
   \   00000720   74029A02F3FF       DC16     +628,+666,+65523,+65523
   \              F3FF        
   \   00000728   A100A702AE02       DC16     +161,+679,+686,+65523
   \              F3FF        
   \   00000730   B602BD02C202       DC16     +694,+701,+706,+65523
   \              F3FF        
   \   00000738   C502EC02F902       DC16     +709,+748,+761,+65523
   \              F3FF        
   \   00000740   07031503F3FF       DC16     +775,+789,+65523,+65523
   \              F3FF        
   \   00000748   370123032B03       DC16     +311,+803,+811,+65523
   \              F3FF        
   \   00000750   34033703CC00       DC16     +820,+823,+204,+65523
   \              F3FF        
   \   00000758   D20045035203       DC16     +210,+837,+850,+65523
   \              F3FF        
   \   00000760   64037C03F3FF       DC16     +868,+892,+65523,+65523
   \              F3FF        
   \   00000768   A1009203A203       DC16     +161,+914,+930,+65523
   \              F3FF        
   \   00000770   AB03B303C103       DC16     +939,+947,+961,+65523
   \              F3FF        
   \   00000778   C603E403F903       DC16     +966,+996,+1017,+65523
   \              F3FF        
   \   00000780   08041004F3FF       DC16     +1032,+1040,+65523,+65523
   \              F3FF        
   \   00000788   370127043804       DC16     +311,+1063,+1080,+65523
   \              F3FF        
   \   00000790   42044404CC00       DC16     +1090,+1092,+204,+65523
   \              F3FF        
   \   00000798   D2005B047104       DC16     +210,+1115,+1137,+0
   \              0000        
   \                     ??run_28:
   \   000007A0   10009DE5           LDR      R0,[SP, #+16]
   \   000007A4   04209DE5           LDR      R2,[SP, #+4]
   \   000007A8   000048E0           SUB      R0,R8,R0
   \   000007AC   011080E2           ADD      R1,R0,#+1
   \   000007B0   400FA0E3           MOV      R0,#+256
   \   000007B4   052082E0           ADD      R2,R2,R5
   \   000007B8   4134A0E1           ASR      R3,R1,#+8
   \   000007BC   0230C0E7           STRB     R3,[R0, +R2]
   \   000007C0   04209DE5           LDR      R2,[SP, #+4]
   \   000007C4   000054E3           CMP      R4,#+0
   \   000007C8   012042E2           SUB      R2,R2,#+1
   \   000007CC   053082E0           ADD      R3,R2,R5
   \   000007D0   0310C0E7           STRB     R1,[R0, +R3]
   \   000007D4   010042E2           SUB      R0,R2,#+1
   \   000007D8   012040E2           SUB      R2,R0,#+1
   \   000007DC   04208DE5           STR      R2,[SP, #+4]
   \   000007E0   0010A013           MOVNE    R1,#+0
   \   000007E4   0210A003           MOVEQ    R1,#+2
   \   000007E8   3FFFFFEA           B        ??run_26
   \                     ??run_29:
   \   000007EC   D50098E1           LDRSB    R0,[R8, +R5]
   \   000007F0   018088E2           ADD      R8,R8,#+1
   \   000007F4   000089E0           ADD      R0,R9,R0
   \   000007F8   FF0000E2           AND      R0,R0,#0xFF
   \   000007FC   D51090E1           LDRSB    R1,[R0, +R5]
   \   00000800   050080E0           ADD      R0,R0,R5
   \   00000804   D100D0E1           LDRSB    R0,[R0, #+1]
   \   00000808   FF1001E2           AND      R1,R1,#0xFF
   \   0000080C   FF0000E2           AND      R0,R0,#0xFF
   \   00000810   000481E1           ORR      R0,R1,R0, LSL #+8
   \   00000814   ........           BL       aint1int
   \   00000818   0AA080E1           ORR      R10,R0,R10
   \                     ??run_30:
   \   0000081C   0A40A0E1           MOV      R4,R10
   \                     ??run_31:
   \   00000820   066046E2           SUB      R6,R6,#+6
   \   00000824   51FFFFEA           B        ??run_25
   \                     ??run_32:
   \   00000828   018088E2           ADD      R8,R8,#+1
   \                     ??run_33:
   \   0000082C   036046E2           SUB      R6,R6,#+3
   \   00000830   4EFFFFEA           B        ??run_25
   \                     ??run_34:
   \   00000834   D50098E1           LDRSB    R0,[R8, +R5]
   \   00000838   018088E2           ADD      R8,R8,#+1
   \   0000083C   FF0000E2           AND      R0,R0,#0xFF
   \   00000840   D50090E1           LDRSB    R0,[R0, +R5]
   \   00000844   FF0000E2           AND      R0,R0,#0xFF
   \   00000848   0AA080E1           ORR      R10,R0,R10
   \                     ??run_35:
   \   0000084C   0A40A0E1           MOV      R4,R10
   \   00000850   F5FFFFEA           B        ??run_33
   \                     ??run_36:
   \   00000854   D50098E1           LDRSB    R0,[R8, +R5]
   \   00000858   018088E2           ADD      R8,R8,#+1
   \   0000085C   FF20A0E3           MOV      R2,#+255
   \   00000860   FF0000E2           AND      R0,R0,#0xFF
   \   00000864   D51090E1           LDRSB    R1,[R0, +R5]
   \   00000868   FF1001E2           AND      R1,R1,#0xFF
   \   0000086C   C173A0E1           ASR      R7,R1,#+7
   \   00000870   814002E0           AND      R4,R2,R1, LSL #+1
   \                     ??run_37:
   \   00000874   0540C0E7           STRB     R4,[R0, +R5]
   \                     ??run_38:
   \   00000878   056046E2           SUB      R6,R6,#+5
   \   0000087C   3BFFFFEA           B        ??run_25
   \                     ??run_39:
   \   00000880   04009DE5           LDR      R0,[SP, #+4]
   \   00000884   000054E3           CMP      R4,#+0
   \   00000888   012040E2           SUB      R2,R0,#+1
   \   0000088C   04208DE5           STR      R2,[SP, #+4]
   \   00000890   0210A003           MOVEQ    R1,#+2
   \   00000894   0010A013           MOVNE    R1,#+0
   \   00000898   071081E1           ORR      R1,R1,R7
   \   0000089C   C423A0E1           ASR      R2,R4,#+7
   \   000008A0   821381E1           ORR      R1,R1,R2, LSL #+7
   \   000008A4   0C209DE5           LDR      R2,[SP, #+12]
   \   000008A8   050080E0           ADD      R0,R0,R5
   \   000008AC   021381E1           ORR      R1,R1,R2, LSL #+6
   \   000008B0   18209DE5           LDR      R2,[SP, #+24]
   \   000008B4   021181E1           ORR      R1,R1,R2, LSL #+2
   \   000008B8   0011C0E5           STRB     R1,[R0, #+256]
   \   000008BC   DAFFFFEA           B        ??run_33
   \                     ??run_40:
   \   000008C0   D50098E1           LDRSB    R0,[R8, +R5]
   \   000008C4   018088E2           ADD      R8,R8,#+1
   \   000008C8   FF0000E2           AND      R0,R0,#0xFF
   \   000008CC   0AA080E1           ORR      R10,R0,R10
   \                     ??run_41:
   \   000008D0   0A40A0E1           MOV      R4,R10
   \                     ??run_42:
   \   000008D4   026046E2           SUB      R6,R6,#+2
   \   000008D8   24FFFFEA           B        ??run_25
   \                     ??run_43:
   \   000008DC   CA73A0E1           ASR      R7,R10,#+7
   \   000008E0   FF00A0E3           MOV      R0,#+255
   \   000008E4   8AA000E0           AND      R10,R0,R10, LSL #+1
   \   000008E8   F8FFFFEA           B        ??run_41
   \                     ??run_44:
   \   000008EC   028088E2           ADD      R8,R8,#+2
   \                     ??run_45:
   \   000008F0   046046E2           SUB      R6,R6,#+4
   \   000008F4   1DFFFFEA           B        ??run_25
   \                     ??run_46:
   \   000008F8   D50098E1           LDRSB    R0,[R8, +R5]
   \   000008FC   3CB69FE5           LDR      R11,??run_1+0x4  ;; j_int_array1d_static_fld
   \   00000900   014088E2           ADD      R4,R8,#+1
   \   00000904   FF0000E2           AND      R0,R0,#0xFF
   \   00000908   DC098BE5           STR      R0,[R11, #+2524]
   \   0000090C   D51094E1           LDRSB    R1,[R4, +R5]
   \   00000910   018084E2           ADD      R8,R4,#+1
   \   00000914   FF1001E2           AND      R1,R1,#0xFF
   \   00000918   010480E1           ORR      R0,R0,R1, LSL #+8
   \                     ??run_47:
   \   0000091C   ........           BL       aint1int
   \   00000920   0AA080E1           ORR      R10,R0,R10
   \                     ??run_48:
   \   00000924   0A40A0E1           MOV      R4,R10
   \   00000928   F0FFFFEA           B        ??run_45
   \                     ??run_49:
   \   0000092C   D50098E1           LDRSB    R0,[R8, +R5]
   \   00000930   08B69FE5           LDR      R11,??run_1+0x4  ;; j_int_array1d_static_fld
   \   00000934   011088E2           ADD      R1,R8,#+1
   \   00000938   FF0000E2           AND      R0,R0,#0xFF
   \   0000093C   DC098BE5           STR      R0,[R11, #+2524]
   \   00000940   D52091E1           LDRSB    R2,[R1, +R5]
   \   00000944   018081E2           ADD      R8,R1,#+1
   \   00000948   FF2002E2           AND      R2,R2,#0xFF
   \   0000094C   02B480E1           ORR      R11,R0,R2, LSL #+8
   \   00000950   0B00A0E1           MOV      R0,R11
   \   00000954   ........           BL       aint1int
   \   00000958   C073A0E1           ASR      R7,R0,#+7
   \   0000095C   FF10A0E3           MOV      R1,#+255
   \   00000960   804001E0           AND      R4,R1,R0, LSL #+1
   \                     ??run_50:
   \   00000964   0410A0E1           MOV      R1,R4
   \   00000968   0B00A0E1           MOV      R0,R11
   \                     ??run_51:
   \   0000096C   ........           BL       avoid2int
   \   00000970   AAFFFFEA           B        ??run_31
   \                     ??run_52:
   \   00000974   C403B0E1           ASRS     R0,R4,#+7
   \   00000978   2F00001A           BNE      ??run_53
   \   0000097C   D50098E1           LDRSB    R0,[R8, +R5]
   \   00000980   036046E2           SUB      R6,R6,#+3
   \   00000984   011080E2           ADD      R1,R0,#+1
   \   00000988   088081E0           ADD      R8,R1,R8
   \   0000098C   000050E3           CMP      R0,#+0
   \   00000990   F6FEFF5A           BPL      ??run_25
   \   00000994   050070E3           CMN      R0,#+5
   \   00000998   F4FEFFBA           BLT      ??run_25
   \   0000099C   D51098E1           LDRSB    R1,[R8, +R5]
   \   000009A0   2100001A           BNE      ??run_54
   \   000009A4   530071E3           CMN      R1,#+83
   \   000009A8   2C005113           CMPNE    R1,#+44
   \   000009AC   EFFEFF1A           BNE      ??run_25
   \                     ??run_55:
   \   000009B0   0060A0E3           MOV      R6,#+0
   \                     ??run_17:
   \   000009B4   A8059FE5           LDR      R0,??run_1+0x28  ;; j_int_array1d_static_fld + 2620
   \   000009B8   001090E5           LDR      R1,[R0, #+0]
   \   000009BC   44009DE5           LDR      R0,[SP, #+68]
   \   000009C0   000CB0E1           LSLS     R0,R0,#+24
   \   000009C4   3F07000A           BEQ      ??run_56
   \   000009C8   98059FE5           LDR      R0,??run_1+0x2C  ;; j_int_array1d_static_fld + 2548
   \   000009CC   000090E5           LDR      R0,[R0, #+0]
   \   000009D0   040050E2           SUBS     R0,R0,#+4
   \   000009D4   0200000A           BEQ      ??run_57
   \   000009D8   020050E2           SUBS     R0,R0,#+2
   \   000009DC   FD06000A           BEQ      ??run_58
   \   000009E0   380700EA           B        ??run_56
   \                     ??run_57:
   \   000009E4   80059FE5           LDR      R0,??run_1+0x30  ;; j_int_array1d_static_fld + 3200
   \   000009E8   0000D0E5           LDRB     R0,[R0, #+0]
   \   000009EC   000050E3           CMP      R0,#+0
   \   000009F0   3407000A           BEQ      ??run_56
   \   000009F4   14009DE5           LDR      R0,[SP, #+20]
   \   000009F8   000050E3           CMP      R0,#+0
   \   000009FC   3107004A           BMI      ??run_56
   \   00000A00   F00050E3           CMP      R0,#+240
   \   00000A04   2F0700AA           BGE      ??run_56
   \   00000A08   4C059FE5           LDR      R0,??run_1+0x20  ;; j_int_array1d_static_fld + 2568
   \   00000A0C   000090E5           LDR      R0,[R0, #+0]
   \   00000A10   180010E3           TST      R0,#0x18
   \   00000A14   2B07000A           BEQ      ??run_56
   \   00000A18   011051E2           SUBS     R1,R1,#+1
   \   00000A1C   2907005A           BPL      ??run_56
   \   00000A20   48059FE5           LDR      R0,??run_1+0x34  ;; j_int_array1d_static_fld + 2624
   \   00000A24   001090E5           LDR      R1,[R0, #+0]
   \   00000A28   F40600EA           B        ??run_59
   \                     ??run_54:
   \   00000A2C   040070E3           CMN      R0,#+4
   \   00000A30   06005103           CMPEQ    R1,#+6
   \                     ??run_60:
   \   00000A34   CDFEFF1A           BNE      ??run_25
   \   00000A38   DCFFFFEA           B        ??run_55
   \                     ??run_53:
   \   00000A3C   018088E2           ADD      R8,R8,#+1
   \   00000A40   A3FFFFEA           B        ??run_42
   \                     ??run_61:
   \   00000A44   D50098E1           LDRSB    R0,[R8, +R5]
   \   00000A48   018088E2           ADD      R8,R8,#+1
   \   00000A4C   FF0000E2           AND      R0,R0,#0xFF
   \   00000A50   D51090E1           LDRSB    R1,[R0, +R5]
   \   00000A54   050080E0           ADD      R0,R0,R5
   \   00000A58   D100D0E1           LDRSB    R0,[R0, #+1]
   \   00000A5C   FF1001E2           AND      R1,R1,#0xFF
   \   00000A60   FF0000E2           AND      R0,R0,#0xFF
   \   00000A64   000481E1           ORR      R0,R1,R0, LSL #+8
   \   00000A68   00109DE5           LDR      R1,[SP, #+0]
   \   00000A6C   000081E0           ADD      R0,R1,R0
   \                     ??run_62:
   \   00000A70   ........           BL       aint1int
   \   00000A74   0AA080E1           ORR      R10,R0,R10
   \                     ??run_63:
   \   00000A78   0A40A0E1           MOV      R4,R10
   \   00000A7C   7DFFFFEA           B        ??run_38
   \                     ??run_64:
   \   00000A80   018088E2           ADD      R8,R8,#+1
   \   00000A84   99FFFFEA           B        ??run_45
   \                     ??run_65:
   \   00000A88   D50098E1           LDRSB    R0,[R8, +R5]
   \   00000A8C   018088E2           ADD      R8,R8,#+1
   \   00000A90   000089E0           ADD      R0,R9,R0
   \   00000A94   FF0000E2           AND      R0,R0,#0xFF
   \   00000A98   D50090E1           LDRSB    R0,[R0, +R5]
   \   00000A9C   FF0000E2           AND      R0,R0,#0xFF
   \   00000AA0   0AA080E1           ORR      R10,R0,R10
   \                     ??run_66:
   \   00000AA4   0A40A0E1           MOV      R4,R10
   \                     ??run_67:
   \   00000AA8   90FFFFEA           B        ??run_45
   \                     ??run_68:
   \   00000AAC   D50098E1           LDRSB    R0,[R8, +R5]
   \   00000AB0   018088E2           ADD      R8,R8,#+1
   \   00000AB4   FF20A0E3           MOV      R2,#+255
   \   00000AB8   000089E0           ADD      R0,R9,R0
   \   00000ABC   FF0000E2           AND      R0,R0,#0xFF
   \   00000AC0   D51090E1           LDRSB    R1,[R0, +R5]
   \   00000AC4   FF1001E2           AND      R1,R1,#0xFF
   \   00000AC8   C173A0E1           ASR      R7,R1,#+7
   \   00000ACC   814002E0           AND      R4,R2,R1, LSL #+1
   \                     ??run_69:
   \   00000AD0   0540C0E7           STRB     R4,[R0, +R5]
   \   00000AD4   51FFFFEA           B        ??run_31
   \                     ??run_70:
   \   00000AD8   0070A0E3           MOV      R7,#+0
   \   00000ADC   7CFFFFEA           B        ??run_42
   \                     ??run_71:
   \   00000AE0   D50098E1           LDRSB    R0,[R8, +R5]
   \   00000AE4   54B49FE5           LDR      R11,??run_1+0x4  ;; j_int_array1d_static_fld
   \   00000AE8   014088E2           ADD      R4,R8,#+1
   \   00000AEC   FF0000E2           AND      R0,R0,#0xFF
   \   00000AF0   DC098BE5           STR      R0,[R11, #+2524]
   \   00000AF4   D51094E1           LDRSB    R1,[R4, +R5]
   \   00000AF8   018084E2           ADD      R8,R4,#+1
   \   00000AFC   FF1001E2           AND      R1,R1,#0xFF
   \   00000B00   010480E1           ORR      R0,R0,R1, LSL #+8
   \   00000B04   00109DE5           LDR      R1,[SP, #+0]
   \   00000B08   000081E0           ADD      R0,R1,R0
   \   00000B0C   82FFFFEA           B        ??run_47
   \                     ??run_72:
   \   00000B10   D50098E1           LDRSB    R0,[R8, +R5]
   \   00000B14   24B49FE5           LDR      R11,??run_1+0x4  ;; j_int_array1d_static_fld
   \   00000B18   014088E2           ADD      R4,R8,#+1
   \   00000B1C   FF0000E2           AND      R0,R0,#0xFF
   \   00000B20   DC098BE5           STR      R0,[R11, #+2524]
   \   00000B24   D51094E1           LDRSB    R1,[R4, +R5]
   \   00000B28   018084E2           ADD      R8,R4,#+1
   \   00000B2C   FF1001E2           AND      R1,R1,#0xFF
   \   00000B30   010480E1           ORR      R0,R0,R1, LSL #+8
   \   00000B34   000089E0           ADD      R0,R9,R0
   \   00000B38   CCFFFFEA           B        ??run_62
   \                     ??run_73:
   \   00000B3C   D50098E1           LDRSB    R0,[R8, +R5]
   \   00000B40   F8B39FE5           LDR      R11,??run_1+0x4  ;; j_int_array1d_static_fld
   \   00000B44   011088E2           ADD      R1,R8,#+1
   \   00000B48   FF0000E2           AND      R0,R0,#0xFF
   \   00000B4C   DC098BE5           STR      R0,[R11, #+2524]
   \   00000B50   D52091E1           LDRSB    R2,[R1, +R5]
   \   00000B54   018081E2           ADD      R8,R1,#+1
   \   00000B58   FF2002E2           AND      R2,R2,#0xFF
   \   00000B5C   020480E1           ORR      R0,R0,R2, LSL #+8
   \   00000B60   00B089E0           ADD      R11,R9,R0
   \   00000B64   0B00A0E1           MOV      R0,R11
   \   00000B68   ........           BL       aint1int
   \   00000B6C   C073A0E1           ASR      R7,R0,#+7
   \   00000B70   FF10A0E3           MOV      R1,#+255
   \   00000B74   804001E0           AND      R4,R1,R0, LSL #+1
   \                     ??run_74:
   \   00000B78   0410A0E1           MOV      R1,R4
   \   00000B7C   0B00A0E1           MOV      R0,R11
   \   00000B80   ........           BL       avoid2int
   \   00000B84   78FEFFEA           B        ??run_27
   \                     ??run_75:
   \   00000B88   10009DE5           LDR      R0,[SP, #+16]
   \   00000B8C   04209DE5           LDR      R2,[SP, #+4]
   \   00000B90   000048E0           SUB      R0,R8,R0
   \   00000B94   011080E2           ADD      R1,R0,#+1
   \   00000B98   400FA0E3           MOV      R0,#+256
   \   00000B9C   052082E0           ADD      R2,R2,R5
   \   00000BA0   4134A0E1           ASR      R3,R1,#+8
   \   00000BA4   0230C0E7           STRB     R3,[R0, +R2]
   \   00000BA8   04209DE5           LDR      R2,[SP, #+4]
   \   00000BAC   012042E2           SUB      R2,R2,#+1
   \   00000BB0   053082E0           ADD      R3,R2,R5
   \   00000BB4   0310C0E7           STRB     R1,[R0, +R3]
   \   00000BB8   011042E2           SUB      R1,R2,#+1
   \   00000BBC   04108DE5           STR      R1,[SP, #+4]
   \   00000BC0   D51098E1           LDRSB    R1,[R8, +R5]
   \   00000BC4   052088E0           ADD      R2,R8,R5
   \   00000BC8   D120D2E1           LDRSB    R2,[R2, #+1]
   \   00000BCC   FF1001E2           AND      R1,R1,#0xFF
   \   00000BD0   FF2002E2           AND      R2,R2,#0xFF
   \   00000BD4   021481E1           ORR      R1,R1,R2, LSL #+8
   \   00000BD8   60239FE5           LDR      R2,??run_1+0x4   ;; j_int_array1d_static_fld
   \   00000BDC   08108DE5           STR      R1,[SP, #+8]
   \   00000BE0   C116A0E1           ASR      R1,R1,#+13
   \   00000BE4   011182E0           ADD      R1,R2,R1, LSL #+2
   \   00000BE8   881991E5           LDR      R1,[R1, #+2440]
   \   00000BEC   10108DE5           STR      R1,[SP, #+16]
   \   00000BF0   08009DE5           LDR      R0,[SP, #+8]
   \                     ??run_76:
   \   00000BF4   008081E0           ADD      R8,R1,R0
   \   00000BF8   08FFFFEA           B        ??run_31
   \                     ??run_77:
   \   00000BFC   D50098E1           LDRSB    R0,[R8, +R5]
   \   00000C00   018088E2           ADD      R8,R8,#+1
   \   00000C04   000089E0           ADD      R0,R9,R0
   \   00000C08   FF0000E2           AND      R0,R0,#0xFF
   \   00000C0C   D51090E1           LDRSB    R1,[R0, +R5]
   \   00000C10   050080E0           ADD      R0,R0,R5
   \   00000C14   D100D0E1           LDRSB    R0,[R0, #+1]
   \   00000C18   FF1001E2           AND      R1,R1,#0xFF
   \   00000C1C   FF0000E2           AND      R0,R0,#0xFF
   \   00000C20   000481E1           ORR      R0,R1,R0, LSL #+8
   \   00000C24   ........           BL       aint1int
   \   00000C28   0AA000E0           AND      R10,R0,R10
   \                     ??run_78:
   \   00000C2C   0A40A0E1           MOV      R4,R10
   \   00000C30   FAFEFFEA           B        ??run_31
   \                     ??run_79:
   \   00000C34   D50098E1           LDRSB    R0,[R8, +R5]
   \   00000C38   018088E2           ADD      R8,R8,#+1
   \   00000C3C   0110A0E3           MOV      R1,#+1
   \   00000C40   FF0000E2           AND      R0,R0,#0xFF
   \   00000C44   D50090E1           LDRSB    R0,[R0, +R5]
   \   00000C48   FF4000E2           AND      R4,R0,#0xFF
   \   00000C4C   441301E0           AND      R1,R1,R4, ASR #+6
   \   00000C50   0C108DE5           STR      R1,[SP, #+12]
   \   00000C54   D50098E1           LDRSB    R0,[R8, +R5]
   \   00000C58   100050E3           CMP      R0,#+16
   \   00000C5C   30005013           CMPNE    R0,#+48
   \   00000C60   F1FEFF0A           BEQ      ??run_33
   \   00000C64   0A4004E0           AND      R4,R4,R10
   \   00000C68   EFFEFFEA           B        ??run_33
   \                     ??run_80:
   \   00000C6C   D50098E1           LDRSB    R0,[R8, +R5]
   \   00000C70   018088E2           ADD      R8,R8,#+1
   \   00000C74   FF0000E2           AND      R0,R0,#0xFF
   \   00000C78   D50090E1           LDRSB    R0,[R0, +R5]
   \   00000C7C   FF0000E2           AND      R0,R0,#0xFF
   \   00000C80   0AA000E0           AND      R10,R0,R10
   \                     ??run_81:
   \   00000C84   0A40A0E1           MOV      R4,R10
   \                     ??run_82:
   \   00000C88   E7FEFFEA           B        ??run_33
   \                     ??run_83:
   \   00000C8C   D50098E1           LDRSB    R0,[R8, +R5]
   \   00000C90   018088E2           ADD      R8,R8,#+1
   \   00000C94   FF0000E2           AND      R0,R0,#0xFF
   \   00000C98   D51090E1           LDRSB    R1,[R0, +R5]
   \   00000C9C   FF1001E2           AND      R1,R1,#0xFF
   \   00000CA0   811087E1           ORR      R1,R7,R1, LSL #+1
   \   00000CA4   4174A0E1           ASR      R7,R1,#+8
   \   00000CA8   FF4001E2           AND      R4,R1,#0xFF
   \   00000CAC   F0FEFFEA           B        ??run_37
   \                     ??run_84:
   \   00000CB0   04109DE5           LDR      R1,[SP, #+4]
   \   00000CB4   011081E2           ADD      R1,R1,#+1
   \   00000CB8   04108DE5           STR      R1,[SP, #+4]
   \   00000CBC   050081E0           ADD      R0,R1,R5
   \   00000CC0   400F80E2           ADD      R0,R0,#+256
   \   00000CC4   D000D0E1           LDRSB    R0,[R0, #+0]
   \   00000CC8   FF0000E2           AND      R0,R0,#0xFF
   \   00000CCC   017000E2           AND      R7,R0,#0x1
   \   00000CD0   020010E3           TST      R0,#0x2
   \   00000CD4   0110A003           MOVEQ    R1,#+1
   \   00000CD8   0010A013           MOVNE    R1,#+0
   \   00000CDC   C023A0E1           ASR      R2,R0,#+7
   \   00000CE0   824381E1           ORR      R4,R1,R2, LSL #+7
   \   00000CE4   0120A0E3           MOV      R2,#+1
   \   00000CE8   402302E0           AND      R2,R2,R0, ASR #+6
   \   00000CEC   0C208DE5           STR      R2,[SP, #+12]
   \   00000CF0   0120A0E3           MOV      R2,#+1
   \   00000CF4   400102E0           AND      R0,R2,R0, ASR #+2
   \   00000CF8   18008DE5           STR      R0,[SP, #+24]
   \   00000CFC   FBFEFFEA           B        ??run_45
   \                     ??run_85:
   \   00000D00   D50098E1           LDRSB    R0,[R8, +R5]
   \   00000D04   018088E2           ADD      R8,R8,#+1
   \   00000D08   FF0000E2           AND      R0,R0,#0xFF
   \   00000D0C   0AA000E0           AND      R10,R0,R10
   \   00000D10   EEFEFFEA           B        ??run_41
   \                     ??run_86:
   \   00000D14   8A0087E1           ORR      R0,R7,R10, LSL #+1
   \   00000D18   4074A0E1           ASR      R7,R0,#+8
   \   00000D1C   FFA000E2           AND      R10,R0,#0xFF
   \                     ??run_87:
   \   00000D20   0A40A0E1           MOV      R4,R10
   \                     ??run_88:
   \   00000D24   EAFEFFEA           B        ??run_42
   \                     ??run_89:
   \   00000D28   D50098E1           LDRSB    R0,[R8, +R5]
   \   00000D2C   0CB29FE5           LDR      R11,??run_1+0x4  ;; j_int_array1d_static_fld
   \   00000D30   014088E2           ADD      R4,R8,#+1
   \   00000D34   FF0000E2           AND      R0,R0,#0xFF
   \   00000D38   DC098BE5           STR      R0,[R11, #+2524]
   \   00000D3C   D51094E1           LDRSB    R1,[R4, +R5]
   \   00000D40   018084E2           ADD      R8,R4,#+1
   \   00000D44   FF1001E2           AND      R1,R1,#0xFF
   \   00000D48   010480E1           ORR      R0,R0,R1, LSL #+8
   \   00000D4C   ........           BL       aint1int
   \   00000D50   0120A0E3           MOV      R2,#+1
   \   00000D54   402302E0           AND      R2,R2,R0, ASR #+6
   \   00000D58   0C208DE5           STR      R2,[SP, #+12]
   \   00000D5C   D51098E1           LDRSB    R1,[R8, +R5]
   \   00000D60   100051E3           CMP      R1,#+16
   \   00000D64   30005113           CMPNE    R1,#+48
   \   00000D68   0A400010           ANDNE    R4,R0,R10
   \   00000D6C   0040A001           MOVEQ    R4,R0
   \   00000D70   DEFEFFEA           B        ??run_45
   \                     ??run_90:
   \   00000D74   D50098E1           LDRSB    R0,[R8, +R5]
   \   00000D78   C0B19FE5           LDR      R11,??run_1+0x4  ;; j_int_array1d_static_fld
   \   00000D7C   014088E2           ADD      R4,R8,#+1
   \   00000D80   FF0000E2           AND      R0,R0,#0xFF
   \   00000D84   DC098BE5           STR      R0,[R11, #+2524]
   \   00000D88   D51094E1           LDRSB    R1,[R4, +R5]
   \   00000D8C   018084E2           ADD      R8,R4,#+1
   \   00000D90   FF1001E2           AND      R1,R1,#0xFF
   \   00000D94   010480E1           ORR      R0,R0,R1, LSL #+8
   \   00000D98   ........           BL       aint1int
   \   00000D9C   0AA000E0           AND      R10,R0,R10
   \   00000DA0   3FFFFFEA           B        ??run_66
   \                     ??run_91:
   \   00000DA4   D50098E1           LDRSB    R0,[R8, +R5]
   \   00000DA8   90B19FE5           LDR      R11,??run_1+0x4  ;; j_int_array1d_static_fld
   \   00000DAC   011088E2           ADD      R1,R8,#+1
   \   00000DB0   FF0000E2           AND      R0,R0,#0xFF
   \   00000DB4   DC098BE5           STR      R0,[R11, #+2524]
   \   00000DB8   D52091E1           LDRSB    R2,[R1, +R5]
   \   00000DBC   018081E2           ADD      R8,R1,#+1
   \   00000DC0   FF2002E2           AND      R2,R2,#0xFF
   \   00000DC4   02B480E1           ORR      R11,R0,R2, LSL #+8
   \   00000DC8   0B00A0E1           MOV      R0,R11
   \   00000DCC   ........           BL       aint1int
   \   00000DD0   800087E1           ORR      R0,R7,R0, LSL #+1
   \   00000DD4   4074A0E1           ASR      R7,R0,#+8
   \   00000DD8   FF4000E2           AND      R4,R0,#0xFF
   \   00000DDC   E0FEFFEA           B        ??run_50
   \                     ??run_92:
   \   00000DE0   C403B0E1           ASRS     R0,R4,#+7
   \   00000DE4   14FFFF0A           BEQ      ??run_53
   \                     ??run_93:
   \   00000DE8   D50098E1           LDRSB    R0,[R8, +R5]
   \   00000DEC   016046E2           SUB      R6,R6,#+1
   \   00000DF0   010080E2           ADD      R0,R0,#+1
   \   00000DF4   088080E0           ADD      R8,R0,R8
   \                     ??run_94:
   \   00000DF8   B5FEFFEA           B        ??run_42
   \                     ??run_95:
   \   00000DFC   D50098E1           LDRSB    R0,[R8, +R5]
   \   00000E00   018088E2           ADD      R8,R8,#+1
   \   00000E04   FF0000E2           AND      R0,R0,#0xFF
   \   00000E08   D51090E1           LDRSB    R1,[R0, +R5]
   \   00000E0C   050080E0           ADD      R0,R0,R5
   \   00000E10   D100D0E1           LDRSB    R0,[R0, #+1]
   \   00000E14   FF1001E2           AND      R1,R1,#0xFF
   \   00000E18   FF0000E2           AND      R0,R0,#0xFF
   \   00000E1C   000481E1           ORR      R0,R1,R0, LSL #+8
   \   00000E20   00109DE5           LDR      R1,[SP, #+0]
   \   00000E24   000081E0           ADD      R0,R1,R0
   \   00000E28   ........           BL       aint1int
   \   00000E2C   0AA000E0           AND      R10,R0,R10
   \   00000E30   10FFFFEA           B        ??run_63
   \                     ??run_96:
   \   00000E34   D50098E1           LDRSB    R0,[R8, +R5]
   \   00000E38   018088E2           ADD      R8,R8,#+1
   \   00000E3C   000089E0           ADD      R0,R9,R0
   \   00000E40   FF0000E2           AND      R0,R0,#0xFF
   \   00000E44   D50090E1           LDRSB    R0,[R0, +R5]
   \   00000E48   FF0000E2           AND      R0,R0,#0xFF
   \   00000E4C   0AA000E0           AND      R10,R0,R10
   \   00000E50   B3FEFFEA           B        ??run_48
   \                     ??run_97:
   \   00000E54   D50098E1           LDRSB    R0,[R8, +R5]
   \   00000E58   018088E2           ADD      R8,R8,#+1
   \   00000E5C   000089E0           ADD      R0,R9,R0
   \   00000E60   FF0000E2           AND      R0,R0,#0xFF
   \   00000E64   D51090E1           LDRSB    R1,[R0, +R5]
   \   00000E68   FF1001E2           AND      R1,R1,#0xFF
   \   00000E6C   811087E1           ORR      R1,R7,R1, LSL #+1
   \   00000E70   4174A0E1           ASR      R7,R1,#+8
   \   00000E74   FF4001E2           AND      R4,R1,#0xFF
   \   00000E78   14FFFFEA           B        ??run_69
   \                     ??run_98:
   \   00000E7C   0170A0E3           MOV      R7,#+1
   \   00000E80   93FEFFEA           B        ??run_42
   \                     ??run_99:
   \   00000E84   D50098E1           LDRSB    R0,[R8, +R5]
   \   00000E88   B0B09FE5           LDR      R11,??run_1+0x4  ;; j_int_array1d_static_fld
   \   00000E8C   014088E2           ADD      R4,R8,#+1
   \   00000E90   FF0000E2           AND      R0,R0,#0xFF
   \   00000E94   DC098BE5           STR      R0,[R11, #+2524]
   \   00000E98   D51094E1           LDRSB    R1,[R4, +R5]
   \   00000E9C   018084E2           ADD      R8,R4,#+1
   \   00000EA0   FF1001E2           AND      R1,R1,#0xFF
   \   00000EA4   010480E1           ORR      R0,R0,R1, LSL #+8
   \   00000EA8   00109DE5           LDR      R1,[SP, #+0]
   \   00000EAC   000081E0           ADD      R0,R1,R0
   \   00000EB0   ........           BL       aint1int
   \   00000EB4   0AA000E0           AND      R10,R0,R10
   \   00000EB8   0A40A0E1           MOV      R4,R10
   \                     ??run_100:
   \   00000EBC   046046E2           SUB      R6,R6,#+4
   \   00000EC0   AAFDFFEA           B        ??run_25
   \                     ??run_101:
   \   00000EC4   D50098E1           LDRSB    R0,[R8, +R5]
   \   00000EC8   70B09FE5           LDR      R11,??run_1+0x4  ;; j_int_array1d_static_fld
   \   00000ECC   014088E2           ADD      R4,R8,#+1
   \   00000ED0   FF0000E2           AND      R0,R0,#0xFF
   \   00000ED4   DC098BE5           STR      R0,[R11, #+2524]
   \   00000ED8   D51094E1           LDRSB    R1,[R4, +R5]
   \   00000EDC   018084E2           ADD      R8,R4,#+1
   \   00000EE0   FF1001E2           AND      R1,R1,#0xFF
   \   00000EE4   010480E1           ORR      R0,R0,R1, LSL #+8
   \   00000EE8   000089E0           ADD      R0,R9,R0
   \   00000EEC   ........           BL       aint1int
   \   00000EF0   0AA000E0           AND      R10,R0,R10
   \                     ??run_102:
   \   00000EF4   0A40A0E1           MOV      R4,R10
   \   00000EF8   5EFEFFEA           B        ??run_38
   \                     ??run_103:
   \   00000EFC   D50098E1           LDRSB    R0,[R8, +R5]
   \   00000F00   38B09FE5           LDR      R11,??run_1+0x4  ;; j_int_array1d_static_fld
   \   00000F04   011088E2           ADD      R1,R8,#+1
   \   00000F08   FF0000E2           AND      R0,R0,#0xFF
   \   00000F0C   DC098BE5           STR      R0,[R11, #+2524]
   \   00000F10   D52091E1           LDRSB    R2,[R1, +R5]
   \   00000F14   018081E2           ADD      R8,R1,#+1
   \   00000F18   FF2002E2           AND      R2,R2,#0xFF
   \   00000F1C   020480E1           ORR      R0,R0,R2, LSL #+8
   \   00000F20   00B089E0           ADD      R11,R9,R0
   \   00000F24   0B00A0E1           MOV      R0,R11
   \   00000F28   ........           BL       aint1int
   \   00000F2C   800087E1           ORR      R0,R7,R0, LSL #+1
   \   00000F30   4074A0E1           ASR      R7,R0,#+8
   \   00000F34   FF4000E2           AND      R4,R0,#0xFF
   \   00000F38   0EFFFFEA           B        ??run_74
   \                     ??run_1:
   \   00000F3C   ........           DC32     running
   \   00000F40   ........           DC32     j_int_array1d_static_fld
   \   00000F44   ........           DC32     j_int_array1d_static_fld + 3205
   \   00000F48   ........           DC32     j_int_array1d_static_fld + 3208
   \   00000F4C   ........           DC32     j_int_array1d_static_fld + 3160
   \   00000F50   ........           DC32     j_int_array1d_static_fld + 2884
   \   00000F54   ........           DC32     j_int_array1d_static_fld + 3204
   \   00000F58   ........           DC32     j_int_array1d_static_fld + 2892
   \   00000F5C   ........           DC32     j_int_array1d_static_fld + 2568
   \   00000F60   ........           DC32     j_int_array1d_static_fld + 2564
   \   00000F64   ........           DC32     j_int_array1d_static_fld + 2620
   \   00000F68   ........           DC32     j_int_array1d_static_fld + 2548
   \   00000F6C   ........           DC32     j_int_array1d_static_fld + 3200
   \   00000F70   ........           DC32     j_int_array1d_static_fld + 2624
   \                     ??run_104:
   \   00000F74   04009DE5           LDR      R0,[SP, #+4]
   \   00000F78   58BF9FE5           LDR      R11,??run_105    ;; j_int_array1d_static_fld
   \   00000F7C   010080E2           ADD      R0,R0,#+1
   \   00000F80   051080E0           ADD      R1,R0,R5
   \   00000F84   401F81E2           ADD      R1,R1,#+256
   \   00000F88   D010D1E1           LDRSB    R1,[R1, #+0]
   \   00000F8C   FF1001E2           AND      R1,R1,#0xFF
   \   00000F90   017001E2           AND      R7,R1,#0x1
   \   00000F94   020011E3           TST      R1,#0x2
   \   00000F98   0120A003           MOVEQ    R2,#+1
   \   00000F9C   0020A013           MOVNE    R2,#+0
   \   00000FA0   C133A0E1           ASR      R3,R1,#+7
   \   00000FA4   834382E1           ORR      R4,R2,R3, LSL #+7
   \   00000FA8   0130A0E3           MOV      R3,#+1
   \   00000FAC   413303E0           AND      R3,R3,R1, ASR #+6
   \   00000FB0   0C308DE5           STR      R3,[SP, #+12]
   \   00000FB4   0130A0E3           MOV      R3,#+1
   \   00000FB8   411103E0           AND      R1,R3,R1, ASR #+2
   \   00000FBC   18108DE5           STR      R1,[SP, #+24]
   \   00000FC0   012080E2           ADD      R2,R0,#+1
   \   00000FC4   400FA0E3           MOV      R0,#+256
   \   00000FC8   051082E0           ADD      R1,R2,R5
   \   00000FCC   D11090E1           LDRSB    R1,[R0, +R1]
   \   00000FD0   012082E2           ADD      R2,R2,#+1
   \   00000FD4   053082E0           ADD      R3,R2,R5
   \   00000FD8   FF1001E2           AND      R1,R1,#0xFF
   \   00000FDC   DC198BE5           STR      R1,[R11, #+2524]
   \   00000FE0   04208DE5           STR      R2,[SP, #+4]
   \   00000FE4   D30090E1           LDRSB    R0,[R0, +R3]
   \   00000FE8   FF0000E2           AND      R0,R0,#0xFF
   \   00000FEC   000481E1           ORR      R0,R1,R0, LSL #+8
   \   00000FF0   08008DE5           STR      R0,[SP, #+8]
   \   00000FF4   0010A0E1           MOV      R1,R0
   \   00000FF8   C116A0E1           ASR      R1,R1,#+13
   \   00000FFC   01118BE0           ADD      R1,R11,R1, LSL #+2
   \   00001000   881991E5           LDR      R1,[R1, #+2440]
   \   00001004   10108DE5           STR      R1,[SP, #+16]
   \   00001008   F9FEFFEA           B        ??run_76
   \                     ??run_106:
   \   0000100C   D50098E1           LDRSB    R0,[R8, +R5]
   \   00001010   018088E2           ADD      R8,R8,#+1
   \   00001014   000089E0           ADD      R0,R9,R0
   \   00001018   FF0000E2           AND      R0,R0,#0xFF
   \   0000101C   D51090E1           LDRSB    R1,[R0, +R5]
   \   00001020   050080E0           ADD      R0,R0,R5
   \   00001024   D100D0E1           LDRSB    R0,[R0, #+1]
   \   00001028   FF1001E2           AND      R1,R1,#0xFF
   \   0000102C   FF0000E2           AND      R0,R0,#0xFF
   \   00001030   000481E1           ORR      R0,R1,R0, LSL #+8
   \   00001034   ........           BL       aint1int
   \   00001038   0AA020E0           EOR      R10,R0,R10
   \   0000103C   FAFEFFEA           B        ??run_78
   \                     ??run_107:
   \   00001040   D50098E1           LDRSB    R0,[R8, +R5]
   \   00001044   018088E2           ADD      R8,R8,#+1
   \   00001048   FF0000E2           AND      R0,R0,#0xFF
   \   0000104C   D50090E1           LDRSB    R0,[R0, +R5]
   \   00001050   FF0000E2           AND      R0,R0,#0xFF
   \   00001054   0AA020E0           EOR      R10,R0,R10
   \   00001058   FBFDFFEA           B        ??run_35
   \                     ??run_108:
   \   0000105C   D50098E1           LDRSB    R0,[R8, +R5]
   \   00001060   018088E2           ADD      R8,R8,#+1
   \   00001064   FF0000E2           AND      R0,R0,#0xFF
   \   00001068   D51090E1           LDRSB    R1,[R0, +R5]
   \   0000106C   FF1001E2           AND      R1,R1,#0xFF
   \   00001070   017001E2           AND      R7,R1,#0x1
   \   00001074   C140A0E1           ASR      R4,R1,#+1
   \   00001078   FDFDFFEA           B        ??run_37
   \                     ??run_109:
   \   0000107C   04009DE5           LDR      R0,[SP, #+4]
   \   00001080   050080E0           ADD      R0,R0,R5
   \   00001084   00A1C0E5           STRB     R10,[R0, #+256]
   \   00001088   04109DE5           LDR      R1,[SP, #+4]
   \   0000108C   011041E2           SUB      R1,R1,#+1
   \   00001090   04108DE5           STR      R1,[SP, #+4]
   \   00001094   E4FDFFEA           B        ??run_33
   \                     ??run_110:
   \   00001098   D50098E1           LDRSB    R0,[R8, +R5]
   \   0000109C   018088E2           ADD      R8,R8,#+1
   \   000010A0   FF0000E2           AND      R0,R0,#0xFF
   \   000010A4   0AA020E0           EOR      R10,R0,R10
   \   000010A8   08FEFFEA           B        ??run_41
   \                     ??run_111:
   \   000010AC   01700AE2           AND      R7,R10,#0x1
   \   000010B0   CAA0A0E1           ASR      R10,R10,#+1
   \   000010B4   19FFFFEA           B        ??run_87
   \                     ??run_112:
   \   000010B8   D52098E1           LDRSB    R2,[R8, +R5]
   \   000010BC   053088E0           ADD      R3,R8,R5
   \   000010C0   D130D3E1           LDRSB    R3,[R3, #+1]
   \   000010C4   FF2002E2           AND      R2,R2,#0xFF
   \   000010C8   010048E2           SUB      R0,R8,#+1
   \   000010CC   FF3003E2           AND      R3,R3,#0xFF
   \   000010D0   032482E1           ORR      R2,R2,R3, LSL #+8
   \   000010D4   FC3D9FE5           LDR      R3,??run_105     ;; j_int_array1d_static_fld
   \   000010D8   08208DE5           STR      R2,[SP, #+8]
   \   000010DC   C226A0E1           ASR      R2,R2,#+13
   \   000010E0   022183E0           ADD      R2,R3,R2, LSL #+2
   \   000010E4   882992E5           LDR      R2,[R2, #+2440]
   \   000010E8   036046E2           SUB      R6,R6,#+3
   \   000010EC   10208DE5           STR      R2,[SP, #+16]
   \   000010F0   08109DE5           LDR      R1,[SP, #+8]
   \   000010F4   018082E0           ADD      R8,R2,R1
   \   000010F8   1C109DE5           LDR      R1,[SP, #+28]
   \   000010FC   010058E1           CMP      R8,R1
   \   00001100   00005811           CMPNE    R8,R0
   \   00001104   29FEFF0A           BEQ      ??run_55
   \   00001108   3C009DE5           LDR      R0,[SP, #+60]
   \   0000110C   000CB0E1           LSLS     R0,R0,#+24
   \   00001110   16FDFF0A           BEQ      ??run_25
   \   00001114   0000A0E3           MOV      R0,#+0
   \                     ??run_113:
   \   00001118   48108DE2           ADD      R1,SP,#+72
   \   0000111C   001191E7           LDR      R1,[R1, +R0, LSL #+2]
   \   00001120   080051E1           CMP      R1,R8
   \   00001124   0500001A           BNE      ??run_114
   \   00001128   761F8DE2           ADD      R1,SP,#+472
   \   0000112C   000181E0           ADD      R0,R1,R0, LSL #+2
   \   00001130   001090E5           LDR      R1,[R0, #+0]
   \   00001134   011081E2           ADD      R1,R1,#+1
   \   00001138   001080E5           STR      R1,[R0, #+0]
   \   0000113C   0BFDFFEA           B        ??run_25
   \                     ??run_114:
   \   00001140   010080E2           ADD      R0,R0,#+1
   \   00001144   640050E3           CMP      R0,#+100
   \   00001148   F2FFFFBA           BLT      ??run_113
   \   0000114C   0000A0E3           MOV      R0,#+0
   \   00001150   D6FCFFEA           B        ??run_24
   \                     ??run_115:
   \   00001154   D50098E1           LDRSB    R0,[R8, +R5]
   \   00001158   78BD9FE5           LDR      R11,??run_105    ;; j_int_array1d_static_fld
   \   0000115C   014088E2           ADD      R4,R8,#+1
   \   00001160   FF0000E2           AND      R0,R0,#0xFF
   \   00001164   DC098BE5           STR      R0,[R11, #+2524]
   \   00001168   D51094E1           LDRSB    R1,[R4, +R5]
   \   0000116C   018084E2           ADD      R8,R4,#+1
   \   00001170   FF1001E2           AND      R1,R1,#0xFF
   \   00001174   010480E1           ORR      R0,R0,R1, LSL #+8
   \   00001178   ........           BL       aint1int
   \   0000117C   0AA020E0           EOR      R10,R0,R10
   \   00001180   0A40A0E1           MOV      R4,R10
   \   00001184   D9FDFFEA           B        ??run_45
   \                     ??run_116:
   \   00001188   D50098E1           LDRSB    R0,[R8, +R5]
   \   0000118C   44BD9FE5           LDR      R11,??run_105    ;; j_int_array1d_static_fld
   \   00001190   011088E2           ADD      R1,R8,#+1
   \   00001194   FF0000E2           AND      R0,R0,#0xFF
   \   00001198   DC098BE5           STR      R0,[R11, #+2524]
   \   0000119C   D52091E1           LDRSB    R2,[R1, +R5]
   \   000011A0   018081E2           ADD      R8,R1,#+1
   \   000011A4   FF2002E2           AND      R2,R2,#0xFF
   \   000011A8   02B480E1           ORR      R11,R0,R2, LSL #+8
   \   000011AC   0B00A0E1           MOV      R0,R11
   \   000011B0   ........           BL       aint1int
   \   000011B4   017000E2           AND      R7,R0,#0x1
   \   000011B8   C040A0E1           ASR      R4,R0,#+1
   \   000011BC   E8FDFFEA           B        ??run_50
   \                     ??run_117:
   \   000011C0   0C009DE5           LDR      R0,[SP, #+12]
   \   000011C4   000050E3           CMP      R0,#+0
   \   000011C8   1BFEFF1A           BNE      ??run_53
   \   000011CC   D50098E1           LDRSB    R0,[R8, +R5]
   \   000011D0   036046E2           SUB      R6,R6,#+3
   \   000011D4   011080E2           ADD      R1,R0,#+1
   \   000011D8   088081E0           ADD      R8,R1,R8
   \   000011DC   000050E3           CMP      R0,#+0
   \   000011E0   E2FCFF5A           BPL      ??run_25
   \   000011E4   050070E3           CMN      R0,#+5
   \   000011E8   E0FCFFBA           BLT      ??run_25
   \   000011EC   D5009801           LDRSBEQ  R0,[R8, +R5]
   \   000011F0   2C005003           CMPEQ    R0,#+44
   \   000011F4   0EFEFFEA           B        ??run_60
   \                     ??run_118:
   \   000011F8   D50098E1           LDRSB    R0,[R8, +R5]
   \   000011FC   018088E2           ADD      R8,R8,#+1
   \   00001200   FF0000E2           AND      R0,R0,#0xFF
   \   00001204   D51090E1           LDRSB    R1,[R0, +R5]
   \   00001208   050080E0           ADD      R0,R0,R5
   \   0000120C   D100D0E1           LDRSB    R0,[R0, #+1]
   \   00001210   FF1001E2           AND      R1,R1,#0xFF
   \   00001214   FF0000E2           AND      R0,R0,#0xFF
   \   00001218   000481E1           ORR      R0,R1,R0, LSL #+8
   \   0000121C   00109DE5           LDR      R1,[SP, #+0]
   \   00001220   000081E0           ADD      R0,R1,R0
   \   00001224   ........           BL       aint1int
   \   00001228   0AA020E0           EOR      R10,R0,R10
   \   0000122C   11FEFFEA           B        ??run_63
   \                     ??run_119:
   \   00001230   D50098E1           LDRSB    R0,[R8, +R5]
   \   00001234   018088E2           ADD      R8,R8,#+1
   \   00001238   000089E0           ADD      R0,R9,R0
   \   0000123C   FF0000E2           AND      R0,R0,#0xFF
   \   00001240   D50090E1           LDRSB    R0,[R0, +R5]
   \   00001244   FF0000E2           AND      R0,R0,#0xFF
   \   00001248   0AA020E0           EOR      R10,R0,R10
   \   0000124C   B4FDFFEA           B        ??run_48
   \                     ??run_120:
   \   00001250   D50098E1           LDRSB    R0,[R8, +R5]
   \   00001254   018088E2           ADD      R8,R8,#+1
   \   00001258   000089E0           ADD      R0,R9,R0
   \   0000125C   FF0000E2           AND      R0,R0,#0xFF
   \   00001260   D51090E1           LDRSB    R1,[R0, +R5]
   \   00001264   FF1001E2           AND      R1,R1,#0xFF
   \   00001268   017001E2           AND      R7,R1,#0x1
   \   0000126C   C140A0E1           ASR      R4,R1,#+1
   \   00001270   16FEFFEA           B        ??run_69
   \                     ??run_121:
   \   00001274   0010A0E3           MOV      R1,#+0
   \                     ??run_122:
   \   00001278   18108DE5           STR      R1,[SP, #+24]
   \   0000127C   94FDFFEA           B        ??run_42
   \                     ??run_123:
   \   00001280   D50098E1           LDRSB    R0,[R8, +R5]
   \   00001284   4CBC9FE5           LDR      R11,??run_105    ;; j_int_array1d_static_fld
   \   00001288   014088E2           ADD      R4,R8,#+1
   \   0000128C   FF0000E2           AND      R0,R0,#0xFF
   \   00001290   DC098BE5           STR      R0,[R11, #+2524]
   \   00001294   D51094E1           LDRSB    R1,[R4, +R5]
   \   00001298   018084E2           ADD      R8,R4,#+1
   \   0000129C   FF1001E2           AND      R1,R1,#0xFF
   \   000012A0   010480E1           ORR      R0,R0,R1, LSL #+8
   \   000012A4   00109DE5           LDR      R1,[SP, #+0]
   \   000012A8   000081E0           ADD      R0,R1,R0
   \   000012AC   ........           BL       aint1int
   \   000012B0   0AA020E0           EOR      R10,R0,R10
   \   000012B4   FAFDFFEA           B        ??run_66
   \                     ??run_124:
   \   000012B8   D50098E1           LDRSB    R0,[R8, +R5]
   \   000012BC   14BC9FE5           LDR      R11,??run_105    ;; j_int_array1d_static_fld
   \   000012C0   014088E2           ADD      R4,R8,#+1
   \   000012C4   FF0000E2           AND      R0,R0,#0xFF
   \   000012C8   DC098BE5           STR      R0,[R11, #+2524]
   \   000012CC   D51094E1           LDRSB    R1,[R4, +R5]
   \   000012D0   018084E2           ADD      R8,R4,#+1
   \   000012D4   FF1001E2           AND      R1,R1,#0xFF
   \   000012D8   010480E1           ORR      R0,R0,R1, LSL #+8
   \   000012DC   000089E0           ADD      R0,R9,R0
   \   000012E0   ........           BL       aint1int
   \   000012E4   0AA020E0           EOR      R10,R0,R10
   \   000012E8   01FFFFEA           B        ??run_102
   \                     ??run_125:
   \   000012EC   D50098E1           LDRSB    R0,[R8, +R5]
   \   000012F0   E0BB9FE5           LDR      R11,??run_105    ;; j_int_array1d_static_fld
   \   000012F4   011088E2           ADD      R1,R8,#+1
   \   000012F8   FF0000E2           AND      R0,R0,#0xFF
   \   000012FC   DC098BE5           STR      R0,[R11, #+2524]
   \   00001300   D52091E1           LDRSB    R2,[R1, +R5]
   \   00001304   018081E2           ADD      R8,R1,#+1
   \   00001308   FF2002E2           AND      R2,R2,#0xFF
   \   0000130C   020480E1           ORR      R0,R0,R2, LSL #+8
   \   00001310   00B089E0           ADD      R11,R9,R0
   \   00001314   0B00A0E1           MOV      R0,R11
   \   00001318   ........           BL       aint1int
   \   0000131C   017000E2           AND      R7,R0,#0x1
   \   00001320   C040A0E1           ASR      R4,R0,#+1
   \                     ??run_126:
   \   00001324   0410A0E1           MOV      R1,R4
   \   00001328   0B00A0E1           MOV      R0,R11
   \   0000132C   ........           BL       avoid2int
   \   00001330   8DFCFFEA           B        ??run_27
   \                     ??run_127:
   \   00001334   04009DE5           LDR      R0,[SP, #+4]
   \   00001338   98BB9FE5           LDR      R11,??run_105    ;; j_int_array1d_static_fld
   \   0000133C   012080E2           ADD      R2,R0,#+1
   \   00001340   400FA0E3           MOV      R0,#+256
   \   00001344   051082E0           ADD      R1,R2,R5
   \   00001348   D11090E1           LDRSB    R1,[R0, +R1]
   \   0000134C   012082E2           ADD      R2,R2,#+1
   \   00001350   053082E0           ADD      R3,R2,R5
   \   00001354   FF1001E2           AND      R1,R1,#0xFF
   \   00001358   DC198BE5           STR      R1,[R11, #+2524]
   \   0000135C   04208DE5           STR      R2,[SP, #+4]
   \   00001360   D30090E1           LDRSB    R0,[R0, +R3]
   \   00001364   FF0000E2           AND      R0,R0,#0xFF
   \   00001368   000481E1           ORR      R0,R1,R0, LSL #+8
   \   0000136C   010080E2           ADD      R0,R0,#+1
   \   00001370   08008DE5           STR      R0,[SP, #+8]
   \   00001374   08109DE5           LDR      R1,[SP, #+8]
   \   00001378   C116A0E1           ASR      R1,R1,#+13
   \   0000137C   01118BE0           ADD      R1,R11,R1, LSL #+2
   \   00001380   881991E5           LDR      R1,[R1, #+2440]
   \   00001384   10108DE5           STR      R1,[SP, #+16]
   \   00001388   08009DE5           LDR      R0,[SP, #+8]
   \   0000138C   008081E0           ADD      R8,R1,R0
   \   00001390   56FDFFEA           B        ??run_45
   \                     ??run_128:
   \   00001394   D50098E1           LDRSB    R0,[R8, +R5]
   \   00001398   018088E2           ADD      R8,R8,#+1
   \   0000139C   000089E0           ADD      R0,R9,R0
   \   000013A0   FF0000E2           AND      R0,R0,#0xFF
   \   000013A4   D51090E1           LDRSB    R1,[R0, +R5]
   \   000013A8   050080E0           ADD      R0,R0,R5
   \   000013AC   D100D0E1           LDRSB    R0,[R0, #+1]
   \   000013B0   FF1001E2           AND      R1,R1,#0xFF
   \   000013B4   FF0000E2           AND      R0,R0,#0xFF
   \   000013B8   000481E1           ORR      R0,R1,R0, LSL #+8
   \   000013BC   ........           BL       aint1int
   \   000013C0   0A1080E0           ADD      R1,R0,R10
   \   000013C4   011087E0           ADD      R1,R7,R1
   \   000013C8   0A0020E0           EOR      R0,R0,R10
   \   000013CC   0A3021E0           EOR      R3,R1,R10
   \   000013D0   0000C3E1           BIC      R0,R3,R0
   \   000013D4   0130A0E3           MOV      R3,#+1
   \   000013D8   C00303E0           AND      R0,R3,R0, ASR #+7
   \   000013DC   0C008DE5           STR      R0,[SP, #+12]
   \   000013E0   4174A0E1           ASR      R7,R1,#+8
   \   000013E4   FFA001E2           AND      R10,R1,#0xFF
   \   000013E8   0BFDFFEA           B        ??run_30
   \                     ??run_129:
   \   000013EC   D50098E1           LDRSB    R0,[R8, +R5]
   \   000013F0   018088E2           ADD      R8,R8,#+1
   \   000013F4   FF0000E2           AND      R0,R0,#0xFF
   \   000013F8   D50090E1           LDRSB    R0,[R0, +R5]
   \   000013FC   FF0000E2           AND      R0,R0,#0xFF
   \   00001400   0A1080E0           ADD      R1,R0,R10
   \   00001404   011087E0           ADD      R1,R7,R1
   \   00001408   0A0020E0           EOR      R0,R0,R10
   \   0000140C   0A3021E0           EOR      R3,R1,R10
   \   00001410   0000C3E1           BIC      R0,R3,R0
   \   00001414   0130A0E3           MOV      R3,#+1
   \   00001418   C00303E0           AND      R0,R3,R0, ASR #+7
   \   0000141C   0C008DE5           STR      R0,[SP, #+12]
   \   00001420   4174A0E1           ASR      R7,R1,#+8
   \   00001424   FFA001E2           AND      R10,R1,#0xFF
   \   00001428   07FDFFEA           B        ??run_35
   \                     ??run_130:
   \   0000142C   D50098E1           LDRSB    R0,[R8, +R5]
   \   00001430   018088E2           ADD      R8,R8,#+1
   \   00001434   8723A0E1           LSL      R2,R7,#+7
   \   00001438   FF0000E2           AND      R0,R0,#0xFF
   \   0000143C   D51090E1           LDRSB    R1,[R0, +R5]
   \   00001440   FF1001E2           AND      R1,R1,#0xFF
   \   00001444   017001E2           AND      R7,R1,#0x1
   \   00001448   C14082E1           ORR      R4,R2,R1, ASR #+1
   \   0000144C   08FDFFEA           B        ??run_37
   \                     ??run_131:
   \   00001450   04109DE5           LDR      R1,[SP, #+4]
   \   00001454   011081E2           ADD      R1,R1,#+1
   \   00001458   04108DE5           STR      R1,[SP, #+4]
   \   0000145C   050081E0           ADD      R0,R1,R5
   \   00001460   400F80E2           ADD      R0,R0,#+256
   \   00001464   D000D0E1           LDRSB    R0,[R0, #+0]
   \   00001468   FFA000E2           AND      R10,R0,#0xFF
   \   0000146C   8CFDFFEA           B        ??run_66
   \                     ??run_132:
   \   00001470   D50098E1           LDRSB    R0,[R8, +R5]
   \   00001474   018088E2           ADD      R8,R8,#+1
   \   00001478   FF0000E2           AND      R0,R0,#0xFF
   \   0000147C   0A1080E0           ADD      R1,R0,R10
   \   00001480   011087E0           ADD      R1,R7,R1
   \   00001484   0A0020E0           EOR      R0,R0,R10
   \   00001488   0A3021E0           EOR      R3,R1,R10
   \   0000148C   0000C3E1           BIC      R0,R3,R0
   \   00001490   0130A0E3           MOV      R3,#+1
   \   00001494   C00303E0           AND      R0,R3,R0, ASR #+7
   \   00001498   0C008DE5           STR      R0,[SP, #+12]
   \   0000149C   4174A0E1           ASR      R7,R1,#+8
   \   000014A0   FFA001E2           AND      R10,R1,#0xFF
   \   000014A4   09FDFFEA           B        ??run_41
   \                     ??run_133:
   \   000014A8   0700A0E1           MOV      R0,R7
   \   000014AC   01700AE2           AND      R7,R10,#0x1
   \   000014B0   8003A0E1           LSL      R0,R0,#+7
   \   000014B4   CAA080E1           ORR      R10,R0,R10, ASR #+1
   \   000014B8   18FEFFEA           B        ??run_87
   \                     ??run_134:
   \   000014BC   D50098E1           LDRSB    R0,[R8, +R5]
   \   000014C0   10BA9FE5           LDR      R11,??run_105    ;; j_int_array1d_static_fld
   \   000014C4   051088E0           ADD      R1,R8,R5
   \   000014C8   FF0000E2           AND      R0,R0,#0xFF
   \   000014CC   DC098BE5           STR      R0,[R11, #+2524]
   \   000014D0   D110D1E1           LDRSB    R1,[R1, #+1]
   \   000014D4   FF0050E3           CMP      R0,#+255
   \   000014D8   FF1001E2           AND      R1,R1,#0xFF
   \   000014DC   018480E1           ORR      R8,R0,R1, LSL #+8
   \   000014E0   0800A0E1           MOV      R0,R8
   \   000014E4   0300001A           BNE      ??run_135
   \   000014E8   ........           BL       aint1int
   \   000014EC   00B0A0E1           MOV      R11,R0
   \   000014F0   FF0C08E2           AND      R0,R8,#0xFF00
   \   000014F4   020000EA           B        ??run_136
   \                     ??run_135:
   \   000014F8   ........           BL       aint1int
   \   000014FC   00B0A0E1           MOV      R11,R0
   \   00001500   010088E2           ADD      R0,R8,#+1
   \                     ??run_136:
   \   00001504   ........           BL       aint1int
   \   00001508   C8299FE5           LDR      R2,??run_105     ;; j_int_array1d_static_fld
   \   0000150C   00048BE1           ORR      R0,R11,R0, LSL #+8
   \   00001510   08008DE5           STR      R0,[SP, #+8]
   \   00001514   08109DE5           LDR      R1,[SP, #+8]
   \   00001518   C116A0E1           ASR      R1,R1,#+13
   \   0000151C   011182E0           ADD      R1,R2,R1, LSL #+2
   \   00001520   881991E5           LDR      R1,[R1, #+2440]
   \   00001524   10108DE5           STR      R1,[SP, #+16]
   \   00001528   08009DE5           LDR      R0,[SP, #+8]
   \   0000152C   008081E0           ADD      R8,R1,R0
   \   00001530   D0FCFFEA           B        ??run_38
   \                     ??run_137:
   \   00001534   D50098E1           LDRSB    R0,[R8, +R5]
   \   00001538   98B99FE5           LDR      R11,??run_105    ;; j_int_array1d_static_fld
   \   0000153C   014088E2           ADD      R4,R8,#+1
   \   00001540   FF0000E2           AND      R0,R0,#0xFF
   \   00001544   DC098BE5           STR      R0,[R11, #+2524]
   \   00001548   D51094E1           LDRSB    R1,[R4, +R5]
   \   0000154C   018084E2           ADD      R8,R4,#+1
   \   00001550   FF1001E2           AND      R1,R1,#0xFF
   \   00001554   010480E1           ORR      R0,R0,R1, LSL #+8
   \   00001558   ........           BL       aint1int
   \   0000155C   0A1080E0           ADD      R1,R0,R10
   \   00001560   011087E0           ADD      R1,R7,R1
   \   00001564   0A0020E0           EOR      R0,R0,R10
   \   00001568   0A3021E0           EOR      R3,R1,R10
   \   0000156C   0000C3E1           BIC      R0,R3,R0
   \   00001570   0130A0E3           MOV      R3,#+1
   \   00001574   C00303E0           AND      R0,R3,R0, ASR #+7
   \   00001578   0C008DE5           STR      R0,[SP, #+12]
   \   0000157C   4174A0E1           ASR      R7,R1,#+8
   \   00001580   FFA001E2           AND      R10,R1,#0xFF
   \   00001584   E6FCFFEA           B        ??run_48
   \                     ??run_138:
   \   00001588   D50098E1           LDRSB    R0,[R8, +R5]
   \   0000158C   44B99FE5           LDR      R11,??run_105    ;; j_int_array1d_static_fld
   \   00001590   011088E2           ADD      R1,R8,#+1
   \   00001594   FF0000E2           AND      R0,R0,#0xFF
   \   00001598   DC098BE5           STR      R0,[R11, #+2524]
   \   0000159C   D52091E1           LDRSB    R2,[R1, +R5]
   \   000015A0   018081E2           ADD      R8,R1,#+1
   \   000015A4   FF2002E2           AND      R2,R2,#0xFF
   \   000015A8   02B480E1           ORR      R11,R0,R2, LSL #+8
   \   000015AC   0B00A0E1           MOV      R0,R11
   \   000015B0   ........           BL       aint1int
   \   000015B4   8713A0E1           LSL      R1,R7,#+7
   \   000015B8   017000E2           AND      R7,R0,#0x1
   \   000015BC   C04081E1           ORR      R4,R1,R0, ASR #+1
   \   000015C0   E7FCFFEA           B        ??run_50
   \                     ??run_139:
   \   000015C4   0C009DE5           LDR      R0,[SP, #+12]
   \   000015C8   000050E3           CMP      R0,#+0
   \   000015CC   2BFDFF0A           BEQ      ??run_64
   \   000015D0   D50098E1           LDRSB    R0,[R8, +R5]
   \   000015D4   016046E2           SUB      R6,R6,#+1
   \   000015D8   010080E2           ADD      R0,R0,#+1
   \   000015DC   088080E0           ADD      R8,R0,R8
   \   000015E0   C2FCFFEA           B        ??run_45
   \                     ??run_140:
   \   000015E4   D50098E1           LDRSB    R0,[R8, +R5]
   \   000015E8   018088E2           ADD      R8,R8,#+1
   \   000015EC   FF0000E2           AND      R0,R0,#0xFF
   \   000015F0   D51090E1           LDRSB    R1,[R0, +R5]
   \   000015F4   050080E0           ADD      R0,R0,R5
   \   000015F8   D100D0E1           LDRSB    R0,[R0, #+1]
   \   000015FC   FF1001E2           AND      R1,R1,#0xFF
   \   00001600   FF0000E2           AND      R0,R0,#0xFF
   \   00001604   000481E1           ORR      R0,R1,R0, LSL #+8
   \   00001608   00109DE5           LDR      R1,[SP, #+0]
   \   0000160C   000081E0           ADD      R0,R1,R0
   \   00001610   ........           BL       aint1int
   \   00001614   0A1080E0           ADD      R1,R0,R10
   \   00001618   011087E0           ADD      R1,R7,R1
   \   0000161C   0A0020E0           EOR      R0,R0,R10
   \   00001620   0A3021E0           EOR      R3,R1,R10
   \   00001624   0000C3E1           BIC      R0,R3,R0
   \   00001628   0130A0E3           MOV      R3,#+1
   \   0000162C   C00303E0           AND      R0,R3,R0, ASR #+7
   \   00001630   0C008DE5           STR      R0,[SP, #+12]
   \   00001634   4174A0E1           ASR      R7,R1,#+8
   \   00001638   FFA001E2           AND      R10,R1,#0xFF
   \   0000163C   0DFDFFEA           B        ??run_63
   \                     ??run_141:
   \   00001640   D50098E1           LDRSB    R0,[R8, +R5]
   \   00001644   018088E2           ADD      R8,R8,#+1
   \   00001648   000089E0           ADD      R0,R9,R0
   \   0000164C   FF0000E2           AND      R0,R0,#0xFF
   \   00001650   D50090E1           LDRSB    R0,[R0, +R5]
   \   00001654   FF0000E2           AND      R0,R0,#0xFF
   \   00001658   0A1080E0           ADD      R1,R0,R10
   \   0000165C   011087E0           ADD      R1,R7,R1
   \   00001660   0A0020E0           EOR      R0,R0,R10
   \   00001664   0A3021E0           EOR      R3,R1,R10
   \   00001668   0000C3E1           BIC      R0,R3,R0
   \   0000166C   0130A0E3           MOV      R3,#+1
   \   00001670   C00303E0           AND      R0,R3,R0, ASR #+7
   \   00001674   0C008DE5           STR      R0,[SP, #+12]
   \   00001678   4174A0E1           ASR      R7,R1,#+8
   \   0000167C   FFA001E2           AND      R10,R1,#0xFF
   \   00001680   07FDFFEA           B        ??run_66
   \                     ??run_142:
   \   00001684   D50098E1           LDRSB    R0,[R8, +R5]
   \   00001688   018088E2           ADD      R8,R8,#+1
   \   0000168C   8723A0E1           LSL      R2,R7,#+7
   \   00001690   000089E0           ADD      R0,R9,R0
   \   00001694   FF0000E2           AND      R0,R0,#0xFF
   \   00001698   D51090E1           LDRSB    R1,[R0, +R5]
   \   0000169C   FF1001E2           AND      R1,R1,#0xFF
   \   000016A0   017001E2           AND      R7,R1,#0x1
   \   000016A4   C14082E1           ORR      R4,R2,R1, ASR #+1
   \   000016A8   08FDFFEA           B        ??run_69
   \                     ??run_143:
   \   000016AC   0110A0E3           MOV      R1,#+1
   \   000016B0   F0FEFFEA           B        ??run_122
   \                     ??run_144:
   \   000016B4   D50098E1           LDRSB    R0,[R8, +R5]
   \   000016B8   18B89FE5           LDR      R11,??run_105    ;; j_int_array1d_static_fld
   \   000016BC   014088E2           ADD      R4,R8,#+1
   \   000016C0   FF0000E2           AND      R0,R0,#0xFF
   \   000016C4   DC098BE5           STR      R0,[R11, #+2524]
   \   000016C8   D51094E1           LDRSB    R1,[R4, +R5]
   \   000016CC   018084E2           ADD      R8,R4,#+1
   \   000016D0   FF1001E2           AND      R1,R1,#0xFF
   \   000016D4   010480E1           ORR      R0,R0,R1, LSL #+8
   \   000016D8   00109DE5           LDR      R1,[SP, #+0]
   \   000016DC   000081E0           ADD      R0,R1,R0
   \   000016E0   ........           BL       aint1int
   \   000016E4   0A1080E0           ADD      R1,R0,R10
   \   000016E8   011087E0           ADD      R1,R7,R1
   \   000016EC   0A0020E0           EOR      R0,R0,R10
   \   000016F0   0A3021E0           EOR      R3,R1,R10
   \   000016F4   0000C3E1           BIC      R0,R3,R0
   \   000016F8   0130A0E3           MOV      R3,#+1
   \   000016FC   C00303E0           AND      R0,R3,R0, ASR #+7
   \   00001700   0C008DE5           STR      R0,[SP, #+12]
   \   00001704   4174A0E1           ASR      R7,R1,#+8
   \   00001708   FFA001E2           AND      R10,R1,#0xFF
   \   0000170C   84FCFFEA           B        ??run_48
   \                     ??run_145:
   \   00001710   D50098E1           LDRSB    R0,[R8, +R5]
   \   00001714   BCB79FE5           LDR      R11,??run_105    ;; j_int_array1d_static_fld
   \   00001718   014088E2           ADD      R4,R8,#+1
   \   0000171C   FF0000E2           AND      R0,R0,#0xFF
   \   00001720   DC098BE5           STR      R0,[R11, #+2524]
   \   00001724   D51094E1           LDRSB    R1,[R4, +R5]
   \   00001728   018084E2           ADD      R8,R4,#+1
   \   0000172C   FF1001E2           AND      R1,R1,#0xFF
   \   00001730   010480E1           ORR      R0,R0,R1, LSL #+8
   \   00001734   000089E0           ADD      R0,R9,R0
   \   00001738   ........           BL       aint1int
   \   0000173C   0A1080E0           ADD      R1,R0,R10
   \   00001740   011087E0           ADD      R1,R7,R1
   \   00001744   0A0020E0           EOR      R0,R0,R10
   \   00001748   0A3021E0           EOR      R3,R1,R10
   \   0000174C   0000C3E1           BIC      R0,R3,R0
   \   00001750   0130A0E3           MOV      R3,#+1
   \   00001754   C00303E0           AND      R0,R3,R0, ASR #+7
   \   00001758   0C008DE5           STR      R0,[SP, #+12]
   \   0000175C   4174A0E1           ASR      R7,R1,#+8
   \   00001760   FFA001E2           AND      R10,R1,#0xFF
   \   00001764   E2FDFFEA           B        ??run_102
   \                     ??run_146:
   \   00001768   D50098E1           LDRSB    R0,[R8, +R5]
   \   0000176C   64B79FE5           LDR      R11,??run_105    ;; j_int_array1d_static_fld
   \   00001770   011088E2           ADD      R1,R8,#+1
   \   00001774   FF0000E2           AND      R0,R0,#0xFF
   \   00001778   DC098BE5           STR      R0,[R11, #+2524]
   \   0000177C   D52091E1           LDRSB    R2,[R1, +R5]
   \   00001780   018081E2           ADD      R8,R1,#+1
   \   00001784   FF2002E2           AND      R2,R2,#0xFF
   \   00001788   020480E1           ORR      R0,R0,R2, LSL #+8
   \   0000178C   00B089E0           ADD      R11,R9,R0
   \   00001790   0B00A0E1           MOV      R0,R11
   \   00001794   ........           BL       aint1int
   \   00001798   8713A0E1           LSL      R1,R7,#+7
   \   0000179C   017000E2           AND      R7,R0,#0x1
   \   000017A0   C04081E1           ORR      R4,R1,R0, ASR #+1
   \   000017A4   F3FCFFEA           B        ??run_74
   \                     ??run_147:
   \   000017A8   D50098E1           LDRSB    R0,[R8, +R5]
   \   000017AC   0A10A0E1           MOV      R1,R10
   \   000017B0   018088E2           ADD      R8,R8,#+1
   \   000017B4   000089E0           ADD      R0,R9,R0
   \   000017B8   FF0000E2           AND      R0,R0,#0xFF
   \   000017BC   D52090E1           LDRSB    R2,[R0, +R5]
   \   000017C0   050080E0           ADD      R0,R0,R5
   \   000017C4   D100D0E1           LDRSB    R0,[R0, #+1]
   \   000017C8   FF2002E2           AND      R2,R2,#0xFF
   \   000017CC   FF0000E2           AND      R0,R0,#0xFF
   \   000017D0   000482E1           ORR      R0,R2,R0, LSL #+8
   \   000017D4   64FCFFEA           B        ??run_51
   \                     ??run_148:
   \   000017D8   D50098E1           LDRSB    R0,[R8, +R5]
   \   000017DC   00109DE5           LDR      R1,[SP, #+0]
   \   000017E0   018088E2           ADD      R8,R8,#+1
   \   000017E4   FF0000E2           AND      R0,R0,#0xFF
   \   000017E8   0510C0E7           STRB     R1,[R0, +R5]
   \   000017EC   0EFCFFEA           B        ??run_33
   \                     ??run_149:
   \   000017F0   D50098E1           LDRSB    R0,[R8, +R5]
   \   000017F4   018088E2           ADD      R8,R8,#+1
   \   000017F8   FF0000E2           AND      R0,R0,#0xFF
   \   000017FC   05A0C0E7           STRB     R10,[R0, +R5]
   \   00001800   09FCFFEA           B        ??run_33
   \                     ??run_150:
   \   00001804   D50098E1           LDRSB    R0,[R8, +R5]
   \   00001808   018088E2           ADD      R8,R8,#+1
   \   0000180C   FF0000E2           AND      R0,R0,#0xFF
   \   00001810   0590C0E7           STRB     R9,[R0, +R5]
   \   00001814   04FCFFEA           B        ??run_33
   \                     ??run_151:
   \   00001818   00109DE5           LDR      R1,[SP, #+0]
   \   0000181C   011041E2           SUB      R1,R1,#+1
   \   00001820   FF1001E2           AND      R1,R1,#0xFF
   \   00001824   00108DE5           STR      R1,[SP, #+0]
   \   00001828   00409DE5           LDR      R4,[SP, #+0]
   \   0000182C   28FCFFEA           B        ??run_42
   \                     ??run_152:
   \   00001830   09A0A0E1           MOV      R10,R9
   \   00001834   39FDFFEA           B        ??run_87
   \                     ??run_153:
   \   00001838   D50098E1           LDRSB    R0,[R8, +R5]
   \   0000183C   94B69FE5           LDR      R11,??run_105    ;; j_int_array1d_static_fld
   \   00001840   018088E2           ADD      R8,R8,#+1
   \   00001844   FF0000E2           AND      R0,R0,#0xFF
   \   00001848   DC098BE5           STR      R0,[R11, #+2524]
   \   0000184C   D52098E1           LDRSB    R2,[R8, +R5]
   \   00001850   00109DE5           LDR      R1,[SP, #+0]
   \                     ??run_154:
   \   00001854   018088E2           ADD      R8,R8,#+1
   \   00001858   FF2002E2           AND      R2,R2,#0xFF
   \   0000185C   020480E1           ORR      R0,R0,R2, LSL #+8
   \   00001860   ........           BL       avoid2int
   \   00001864   21FCFFEA           B        ??run_45
   \                     ??run_155:
   \   00001868   D50098E1           LDRSB    R0,[R8, +R5]
   \   0000186C   64B69FE5           LDR      R11,??run_105    ;; j_int_array1d_static_fld
   \   00001870   018088E2           ADD      R8,R8,#+1
   \   00001874   FF0000E2           AND      R0,R0,#0xFF
   \   00001878   DC098BE5           STR      R0,[R11, #+2524]
   \   0000187C   D52098E1           LDRSB    R2,[R8, +R5]
   \   00001880   0A10A0E1           MOV      R1,R10
   \   00001884   018088E2           ADD      R8,R8,#+1
   \   00001888   FF2002E2           AND      R2,R2,#0xFF
   \   0000188C   020480E1           ORR      R0,R0,R2, LSL #+8
   \   00001890   ........           BL       avoid2int
   \   00001894   15FCFFEA           B        ??run_45
   \                     ??run_156:
   \   00001898   D50098E1           LDRSB    R0,[R8, +R5]
   \   0000189C   34B69FE5           LDR      R11,??run_105    ;; j_int_array1d_static_fld
   \   000018A0   018088E2           ADD      R8,R8,#+1
   \   000018A4   FF0000E2           AND      R0,R0,#0xFF
   \   000018A8   DC098BE5           STR      R0,[R11, #+2524]
   \   000018AC   D52098E1           LDRSB    R2,[R8, +R5]
   \   000018B0   0910A0E1           MOV      R1,R9
   \   000018B4   E6FFFFEA           B        ??run_154
   \                     ??run_157:
   \   000018B8   000057E3           CMP      R7,#+0
   \   000018BC   49FDFF0A           BEQ      ??run_93
   \                     ??run_158:
   \   000018C0   5DFCFFEA           B        ??run_53
   \                     ??run_159:
   \   000018C4   D50098E1           LDRSB    R0,[R8, +R5]
   \   000018C8   0A10A0E1           MOV      R1,R10
   \   000018CC   018088E2           ADD      R8,R8,#+1
   \   000018D0   FF0000E2           AND      R0,R0,#0xFF
   \   000018D4   D52090E1           LDRSB    R2,[R0, +R5]
   \   000018D8   050080E0           ADD      R0,R0,R5
   \   000018DC   D100D0E1           LDRSB    R0,[R0, #+1]
   \   000018E0   FF2002E2           AND      R2,R2,#0xFF
   \   000018E4   FF0000E2           AND      R0,R0,#0xFF
   \   000018E8   000482E1           ORR      R0,R2,R0, LSL #+8
   \   000018EC   00209DE5           LDR      R2,[SP, #+0]
   \   000018F0   000082E0           ADD      R0,R2,R0
   \   000018F4   ........           BL       avoid2int
   \   000018F8   C8FBFFEA           B        ??run_31
   \                     ??run_160:
   \   000018FC   D50098E1           LDRSB    R0,[R8, +R5]
   \   00001900   00109DE5           LDR      R1,[SP, #+0]
   \   00001904   018088E2           ADD      R8,R8,#+1
   \   00001908   000089E0           ADD      R0,R9,R0
   \   0000190C   FF0000E2           AND      R0,R0,#0xFF
   \   00001910   0510C0E7           STRB     R1,[R0, +R5]
   \   00001914   68FDFFEA           B        ??run_100
   \                     ??run_161:
   \   00001918   D50098E1           LDRSB    R0,[R8, +R5]
   \   0000191C   018088E2           ADD      R8,R8,#+1
   \   00001920   000089E0           ADD      R0,R9,R0
   \   00001924   FF0000E2           AND      R0,R0,#0xFF
   \   00001928   05A0C0E7           STRB     R10,[R0, +R5]
   \   0000192C   EFFBFFEA           B        ??run_45
   \                     ??run_162:
   \   00001930   D50098E1           LDRSB    R0,[R8, +R5]
   \   00001934   00109DE5           LDR      R1,[SP, #+0]
   \   00001938   018088E2           ADD      R8,R8,#+1
   \   0000193C   000081E0           ADD      R0,R1,R0
   \   00001940   FF0000E2           AND      R0,R0,#0xFF
   \   00001944   0590C0E7           STRB     R9,[R0, +R5]
   \   00001948   E8FBFFEA           B        ??run_45
   \                     ??run_163:
   \   0000194C   00A09DE5           LDR      R10,[SP, #+0]
   \   00001950   DEFBFFEA           B        ??run_41
   \                     ??run_164:
   \   00001954   D50098E1           LDRSB    R0,[R8, +R5]
   \   00001958   78B59FE5           LDR      R11,??run_105    ;; j_int_array1d_static_fld
   \   0000195C   018088E2           ADD      R8,R8,#+1
   \   00001960   FF0000E2           AND      R0,R0,#0xFF
   \   00001964   DC098BE5           STR      R0,[R11, #+2524]
   \   00001968   D52098E1           LDRSB    R2,[R8, +R5]
   \   0000196C   0A10A0E1           MOV      R1,R10
   \   00001970   018088E2           ADD      R8,R8,#+1
   \   00001974   FF2002E2           AND      R2,R2,#0xFF
   \   00001978   020480E1           ORR      R0,R0,R2, LSL #+8
   \   0000197C   00209DE5           LDR      R2,[SP, #+0]
   \   00001980   000082E0           ADD      R0,R2,R0
   \                     ??run_165:
   \   00001984   ........           BL       avoid2int
   \   00001988   BAFBFFEA           B        ??run_38
   \                     ??run_166:
   \   0000198C   04908DE5           STR      R9,[SP, #+4]
   \   00001990   CFFBFFEA           B        ??run_42
   \                     ??run_167:
   \   00001994   D50098E1           LDRSB    R0,[R8, +R5]
   \   00001998   38B59FE5           LDR      R11,??run_105    ;; j_int_array1d_static_fld
   \   0000199C   018088E2           ADD      R8,R8,#+1
   \   000019A0   FF0000E2           AND      R0,R0,#0xFF
   \   000019A4   DC098BE5           STR      R0,[R11, #+2524]
   \   000019A8   D52098E1           LDRSB    R2,[R8, +R5]
   \   000019AC   0A10A0E1           MOV      R1,R10
   \   000019B0   018088E2           ADD      R8,R8,#+1
   \   000019B4   FF2002E2           AND      R2,R2,#0xFF
   \   000019B8   020480E1           ORR      R0,R0,R2, LSL #+8
   \   000019BC   000089E0           ADD      R0,R9,R0
   \   000019C0   EFFFFFEA           B        ??run_165
   \                     ??run_168:
   \   000019C4   D50098E1           LDRSB    R0,[R8, +R5]
   \   000019C8   018088E2           ADD      R8,R8,#+1
   \   000019CC   FF4000E2           AND      R4,R0,#0xFF
   \   000019D0   00408DE5           STR      R4,[SP, #+0]
   \   000019D4   BEFBFFEA           B        ??run_42
   \                     ??run_169:
   \   000019D8   D50098E1           LDRSB    R0,[R8, +R5]
   \   000019DC   018088E2           ADD      R8,R8,#+1
   \   000019E0   000089E0           ADD      R0,R9,R0
   \   000019E4   FF0000E2           AND      R0,R0,#0xFF
   \   000019E8   D51090E1           LDRSB    R1,[R0, +R5]
   \   000019EC   050080E0           ADD      R0,R0,R5
   \   000019F0   D100D0E1           LDRSB    R0,[R0, #+1]
   \   000019F4   FF1001E2           AND      R1,R1,#0xFF
   \   000019F8   FF0000E2           AND      R0,R0,#0xFF
   \   000019FC   000481E1           ORR      R0,R1,R0, LSL #+8
   \   00001A00   ........           BL       aint1int
   \   00001A04   00A0A0E1           MOV      R10,R0
   \   00001A08   0040A0E1           MOV      R4,R0
   \   00001A0C   83FBFFEA           B        ??run_31
   \                     ??run_170:
   \   00001A10   D50098E1           LDRSB    R0,[R8, +R5]
   \   00001A14   018088E2           ADD      R8,R8,#+1
   \   00001A18   026046E2           SUB      R6,R6,#+2
   \   00001A1C   FF4000E2           AND      R4,R0,#0xFF
   \   00001A20   0490A0E1           MOV      R9,R4
   \   00001A24   D1FAFFEA           B        ??run_25
   \                     ??run_171:
   \   00001A28   D50098E1           LDRSB    R0,[R8, +R5]
   \   00001A2C   018088E2           ADD      R8,R8,#+1
   \   00001A30   FF0000E2           AND      R0,R0,#0xFF
   \   00001A34   D50090E1           LDRSB    R0,[R0, +R5]
   \   00001A38   FF4000E2           AND      R4,R0,#0xFF
   \   00001A3C   00408DE5           STR      R4,[SP, #+0]
   \   00001A40   79FBFFEA           B        ??run_33
   \                     ??run_172:
   \   00001A44   D50098E1           LDRSB    R0,[R8, +R5]
   \   00001A48   018088E2           ADD      R8,R8,#+1
   \   00001A4C   FF0000E2           AND      R0,R0,#0xFF
   \   00001A50   D50090E1           LDRSB    R0,[R0, +R5]
   \   00001A54   FF4000E2           AND      R4,R0,#0xFF
   \   00001A58   04A0A0E1           MOV      R10,R4
   \   00001A5C   72FBFFEA           B        ??run_33
   \                     ??run_173:
   \   00001A60   D50098E1           LDRSB    R0,[R8, +R5]
   \   00001A64   018088E2           ADD      R8,R8,#+1
   \   00001A68   FF0000E2           AND      R0,R0,#0xFF
   \   00001A6C   D50090E1           LDRSB    R0,[R0, +R5]
   \   00001A70   FF4000E2           AND      R4,R0,#0xFF
   \   00001A74   0490A0E1           MOV      R9,R4
   \   00001A78   6BFBFFEA           B        ??run_33
   \                     ??run_174:
   \   00001A7C   00A08DE5           STR      R10,[SP, #+0]
   \   00001A80   92FBFFEA           B        ??run_41
   \                     ??run_175:
   \   00001A84   D50098E1           LDRSB    R0,[R8, +R5]
   \   00001A88   018088E2           ADD      R8,R8,#+1
   \   00001A8C   FF4000E2           AND      R4,R0,#0xFF
   \   00001A90   04A0A0E1           MOV      R10,R4
   \   00001A94   8EFBFFEA           B        ??run_42
   \                     ??run_176:
   \   00001A98   0A90A0E1           MOV      R9,R10
   \                     ??run_177:
   \   00001A9C   0940A0E1           MOV      R4,R9
   \   00001AA0   8BFBFFEA           B        ??run_42
   \                     ??run_178:
   \   00001AA4   D50098E1           LDRSB    R0,[R8, +R5]
   \   00001AA8   28B49FE5           LDR      R11,??run_105    ;; j_int_array1d_static_fld
   \   00001AAC   014088E2           ADD      R4,R8,#+1
   \   00001AB0   FF0000E2           AND      R0,R0,#0xFF
   \   00001AB4   DC098BE5           STR      R0,[R11, #+2524]
   \   00001AB8   D51094E1           LDRSB    R1,[R4, +R5]
   \   00001ABC   018084E2           ADD      R8,R4,#+1
   \   00001AC0   FF1001E2           AND      R1,R1,#0xFF
   \   00001AC4   010480E1           ORR      R0,R0,R1, LSL #+8
   \   00001AC8   ........           BL       aint1int
   \   00001ACC   00008DE5           STR      R0,[SP, #+0]
   \                     ??run_179:
   \   00001AD0   0040A0E1           MOV      R4,R0
   \   00001AD4   85FBFFEA           B        ??run_45
   \                     ??run_180:
   \   00001AD8   D50098E1           LDRSB    R0,[R8, +R5]
   \   00001ADC   F4B39FE5           LDR      R11,??run_105    ;; j_int_array1d_static_fld
   \   00001AE0   014088E2           ADD      R4,R8,#+1
   \   00001AE4   FF0000E2           AND      R0,R0,#0xFF
   \   00001AE8   DC098BE5           STR      R0,[R11, #+2524]
   \   00001AEC   D51094E1           LDRSB    R1,[R4, +R5]
   \   00001AF0   018084E2           ADD      R8,R4,#+1
   \   00001AF4   FF1001E2           AND      R1,R1,#0xFF
   \   00001AF8   010480E1           ORR      R0,R0,R1, LSL #+8
   \   00001AFC   ........           BL       aint1int
   \   00001B00   00A0A0E1           MOV      R10,R0
   \                     ??run_181:
   \   00001B04   0040A0E1           MOV      R4,R0
   \   00001B08   78FBFFEA           B        ??run_45
   \                     ??run_182:
   \   00001B0C   D50098E1           LDRSB    R0,[R8, +R5]
   \   00001B10   C0B39FE5           LDR      R11,??run_105    ;; j_int_array1d_static_fld
   \   00001B14   014088E2           ADD      R4,R8,#+1
   \   00001B18   FF0000E2           AND      R0,R0,#0xFF
   \   00001B1C   DC098BE5           STR      R0,[R11, #+2524]
   \   00001B20   D51094E1           LDRSB    R1,[R4, +R5]
   \   00001B24   018084E2           ADD      R8,R4,#+1
   \   00001B28   FF1001E2           AND      R1,R1,#0xFF
   \   00001B2C   010480E1           ORR      R0,R0,R1, LSL #+8
   \   00001B30   ........           BL       aint1int
   \   00001B34   0090A0E1           MOV      R9,R0
   \   00001B38   E4FFFFEA           B        ??run_179
   \                     ??run_183:
   \   00001B3C   000057E3           CMP      R7,#+0
   \   00001B40   BDFBFF0A           BEQ      ??run_53
   \   00001B44   D50098E1           LDRSB    R0,[R8, +R5]
   \   00001B48   010080E2           ADD      R0,R0,#+1
   \   00001B4C   088080E0           ADD      R8,R0,R8
   \   00001B50   35FBFFEA           B        ??run_33
   \                     ??run_184:
   \   00001B54   D50098E1           LDRSB    R0,[R8, +R5]
   \   00001B58   018088E2           ADD      R8,R8,#+1
   \   00001B5C   FF0000E2           AND      R0,R0,#0xFF
   \   00001B60   D51090E1           LDRSB    R1,[R0, +R5]
   \   00001B64   050080E0           ADD      R0,R0,R5
   \   00001B68   D100D0E1           LDRSB    R0,[R0, #+1]
   \   00001B6C   FF1001E2           AND      R1,R1,#0xFF
   \   00001B70   FF0000E2           AND      R0,R0,#0xFF
   \   00001B74   000481E1           ORR      R0,R1,R0, LSL #+8
   \   00001B78   00109DE5           LDR      R1,[SP, #+0]
   \   00001B7C   000081E0           ADD      R0,R1,R0
   \   00001B80   ........           BL       aint1int
   \   00001B84   00A0A0E1           MOV      R10,R0
   \   00001B88   0040A0E1           MOV      R4,R0
   \   00001B8C   39FBFFEA           B        ??run_38
   \                     ??run_185:
   \   00001B90   D50098E1           LDRSB    R0,[R8, +R5]
   \   00001B94   018088E2           ADD      R8,R8,#+1
   \   00001B98   000089E0           ADD      R0,R9,R0
   \   00001B9C   FF0000E2           AND      R0,R0,#0xFF
   \   00001BA0   D50090E1           LDRSB    R0,[R0, +R5]
   \   00001BA4   FF4000E2           AND      R4,R0,#0xFF
   \   00001BA8   00408DE5           STR      R4,[SP, #+0]
   \   00001BAC   C2FCFFEA           B        ??run_100
   \                     ??run_186:
   \   00001BB0   D50098E1           LDRSB    R0,[R8, +R5]
   \   00001BB4   018088E2           ADD      R8,R8,#+1
   \   00001BB8   000089E0           ADD      R0,R9,R0
   \   00001BBC   FF0000E2           AND      R0,R0,#0xFF
   \   00001BC0   D50090E1           LDRSB    R0,[R0, +R5]
   \   00001BC4   FF4000E2           AND      R4,R0,#0xFF
   \   00001BC8   04A0A0E1           MOV      R10,R4
   \   00001BCC   47FBFFEA           B        ??run_45
   \                     ??run_187:
   \   00001BD0   D50098E1           LDRSB    R0,[R8, +R5]
   \   00001BD4   00109DE5           LDR      R1,[SP, #+0]
   \   00001BD8   018088E2           ADD      R8,R8,#+1
   \   00001BDC   000081E0           ADD      R0,R1,R0
   \   00001BE0   FF0000E2           AND      R0,R0,#0xFF
   \   00001BE4   D50090E1           LDRSB    R0,[R0, +R5]
   \   00001BE8   FF4000E2           AND      R4,R0,#0xFF
   \   00001BEC   0490A0E1           MOV      R9,R4
   \   00001BF0   3EFBFFEA           B        ??run_45
   \                     ??run_188:
   \   00001BF4   0010A0E3           MOV      R1,#+0
   \   00001BF8   0C108DE5           STR      R1,[SP, #+12]
   \   00001BFC   34FBFFEA           B        ??run_42
   \                     ??run_189:
   \   00001C00   D50098E1           LDRSB    R0,[R8, +R5]
   \   00001C04   CCB29FE5           LDR      R11,??run_105    ;; j_int_array1d_static_fld
   \   00001C08   014088E2           ADD      R4,R8,#+1
   \   00001C0C   FF0000E2           AND      R0,R0,#0xFF
   \   00001C10   DC098BE5           STR      R0,[R11, #+2524]
   \   00001C14   D51094E1           LDRSB    R1,[R4, +R5]
   \   00001C18   018084E2           ADD      R8,R4,#+1
   \   00001C1C   FF1001E2           AND      R1,R1,#0xFF
   \   00001C20   010480E1           ORR      R0,R0,R1, LSL #+8
   \   00001C24   00109DE5           LDR      R1,[SP, #+0]
   \   00001C28   000081E0           ADD      R0,R1,R0
   \   00001C2C   ........           BL       aint1int
   \   00001C30   00A0A0E1           MOV      R10,R0
   \   00001C34   A5FFFFEA           B        ??run_179
   \                     ??run_190:
   \   00001C38   04909DE5           LDR      R9,[SP, #+4]
   \   00001C3C   96FFFFEA           B        ??run_177
   \                     ??run_191:
   \   00001C40   D50098E1           LDRSB    R0,[R8, +R5]
   \   00001C44   8CB29FE5           LDR      R11,??run_105    ;; j_int_array1d_static_fld
   \   00001C48   014088E2           ADD      R4,R8,#+1
   \   00001C4C   FF0000E2           AND      R0,R0,#0xFF
   \   00001C50   DC098BE5           STR      R0,[R11, #+2524]
   \   00001C54   D51094E1           LDRSB    R1,[R4, +R5]
   \   00001C58   018084E2           ADD      R8,R4,#+1
   \   00001C5C   046046E2           SUB      R6,R6,#+4
   \   00001C60   FF1001E2           AND      R1,R1,#0xFF
   \   00001C64   010480E1           ORR      R0,R0,R1, LSL #+8
   \   00001C68   000089E0           ADD      R0,R9,R0
   \   00001C6C   ........           BL       aint1int
   \   00001C70   00008DE5           STR      R0,[SP, #+0]
   \   00001C74   0040A0E1           MOV      R4,R0
   \   00001C78   3CFAFFEA           B        ??run_25
   \                     ??run_192:
   \   00001C7C   D50098E1           LDRSB    R0,[R8, +R5]
   \   00001C80   50B29FE5           LDR      R11,??run_105    ;; j_int_array1d_static_fld
   \   00001C84   014088E2           ADD      R4,R8,#+1
   \   00001C88   FF0000E2           AND      R0,R0,#0xFF
   \   00001C8C   DC098BE5           STR      R0,[R11, #+2524]
   \   00001C90   D51094E1           LDRSB    R1,[R4, +R5]
   \   00001C94   018084E2           ADD      R8,R4,#+1
   \   00001C98   FF1001E2           AND      R1,R1,#0xFF
   \   00001C9C   010480E1           ORR      R0,R0,R1, LSL #+8
   \   00001CA0   000089E0           ADD      R0,R9,R0
   \   00001CA4   ........           BL       aint1int
   \   00001CA8   00A0A0E1           MOV      R10,R0
   \   00001CAC   0040A0E1           MOV      R4,R0
   \   00001CB0   0EFBFFEA           B        ??run_45
   \                     ??run_193:
   \   00001CB4   D50098E1           LDRSB    R0,[R8, +R5]
   \   00001CB8   18B29FE5           LDR      R11,??run_105    ;; j_int_array1d_static_fld
   \   00001CBC   014088E2           ADD      R4,R8,#+1
   \   00001CC0   FF0000E2           AND      R0,R0,#0xFF
   \   00001CC4   DC098BE5           STR      R0,[R11, #+2524]
   \   00001CC8   D51094E1           LDRSB    R1,[R4, +R5]
   \   00001CCC   018084E2           ADD      R8,R4,#+1
   \   00001CD0   FF1001E2           AND      R1,R1,#0xFF
   \   00001CD4   010480E1           ORR      R0,R0,R1, LSL #+8
   \   00001CD8   00109DE5           LDR      R1,[SP, #+0]
   \   00001CDC   000081E0           ADD      R0,R1,R0
   \   00001CE0   ........           BL       aint1int
   \   00001CE4   0090A0E1           MOV      R9,R0
   \   00001CE8   85FFFFEA           B        ??run_181
   \                     ??run_194:
   \   00001CEC   D51098E1           LDRSB    R1,[R8, +R5]
   \   00001CF0   00009DE5           LDR      R0,[SP, #+0]
   \   00001CF4   018088E2           ADD      R8,R8,#+1
   \   00001CF8   FF1001E2           AND      R1,R1,#0xFF
   \   00001CFC   010040E0           SUB      R0,R0,R1
   \                     ??run_195:
   \   00001D00   000050E3           CMP      R0,#+0
   \   00001D04   0070A043           MOVMI    R7,#+0
   \   00001D08   0170A053           MOVPL    R7,#+1
   \   00001D0C   FF4000E2           AND      R4,R0,#0xFF
   \   00001D10   EFFAFFEA           B        ??run_42
   \                     ??run_196:
   \   00001D14   D50098E1           LDRSB    R0,[R8, +R5]
   \   00001D18   018088E2           ADD      R8,R8,#+1
   \   00001D1C   000089E0           ADD      R0,R9,R0
   \   00001D20   FF0000E2           AND      R0,R0,#0xFF
   \   00001D24   D51090E1           LDRSB    R1,[R0, +R5]
   \   00001D28   050080E0           ADD      R0,R0,R5
   \   00001D2C   D100D0E1           LDRSB    R0,[R0, #+1]
   \   00001D30   FF1001E2           AND      R1,R1,#0xFF
   \   00001D34   FF0000E2           AND      R0,R0,#0xFF
   \   00001D38   000481E1           ORR      R0,R1,R0, LSL #+8
   \   00001D3C   ........           BL       aint1int
   \   00001D40   00005AE0           SUBS     R0,R10,R0
   \   00001D44   0070A043           MOVMI    R7,#+0
   \   00001D48   0170A053           MOVPL    R7,#+1
   \                     ??run_197:
   \   00001D4C   FF4000E2           AND      R4,R0,#0xFF
   \   00001D50   B2FAFFEA           B        ??run_31
   \                     ??run_198:
   \   00001D54   D51098E1           LDRSB    R1,[R8, +R5]
   \   00001D58   00009DE5           LDR      R0,[SP, #+0]
   \   00001D5C   018088E2           ADD      R8,R8,#+1
   \   00001D60   FF1001E2           AND      R1,R1,#0xFF
   \   00001D64   D51091E1           LDRSB    R1,[R1, +R5]
   \   00001D68   FF1001E2           AND      R1,R1,#0xFF
   \   00001D6C   010040E0           SUB      R0,R0,R1
   \                     ??run_199:
   \   00001D70   000050E3           CMP      R0,#+0
   \   00001D74   0070A043           MOVMI    R7,#+0
   \   00001D78   0170A053           MOVPL    R7,#+1
   \   00001D7C   FF4000E2           AND      R4,R0,#0xFF
   \   00001D80   A9FAFFEA           B        ??run_33
   \                     ??run_200:
   \   00001D84   D50098E1           LDRSB    R0,[R8, +R5]
   \   00001D88   018088E2           ADD      R8,R8,#+1
   \   00001D8C   FF0000E2           AND      R0,R0,#0xFF
   \   00001D90   D50090E1           LDRSB    R0,[R0, +R5]
   \   00001D94   FF0000E2           AND      R0,R0,#0xFF
   \   00001D98   00004AE0           SUB      R0,R10,R0
   \   00001D9C   000050E3           CMP      R0,#+0
   \   00001DA0   0070A043           MOVMI    R7,#+0
   \   00001DA4   0170A053           MOVPL    R7,#+1
   \   00001DA8   FF4000E2           AND      R4,R0,#0xFF
   \   00001DAC   9EFAFFEA           B        ??run_33
   \                     ??run_201:
   \   00001DB0   D50098E1           LDRSB    R0,[R8, +R5]
   \   00001DB4   018088E2           ADD      R8,R8,#+1
   \   00001DB8   FF0000E2           AND      R0,R0,#0xFF
   \   00001DBC   D51090E1           LDRSB    R1,[R0, +R5]
   \   00001DC0   011041E2           SUB      R1,R1,#+1
   \   00001DC4   0510C0E7           STRB     R1,[R0, +R5]
   \   00001DC8   D50090E1           LDRSB    R0,[R0, +R5]
   \                     ??run_202:
   \   00001DCC   FF4000E2           AND      R4,R0,#0xFF
   \   00001DD0   A8FAFFEA           B        ??run_38
   \                     ??run_203:
   \   00001DD4   00109DE5           LDR      R1,[SP, #+0]
   \   00001DD8   011081E2           ADD      R1,R1,#+1
   \   00001DDC   FF1001E2           AND      R1,R1,#0xFF
   \   00001DE0   00108DE5           STR      R1,[SP, #+0]
   \   00001DE4   0140A0E1           MOV      R4,R1
   \   00001DE8   B9FAFFEA           B        ??run_42
   \                     ??run_204:
   \   00001DEC   D50098E1           LDRSB    R0,[R8, +R5]
   \   00001DF0   018088E2           ADD      R8,R8,#+1
   \   00001DF4   FF0000E2           AND      R0,R0,#0xFF
   \   00001DF8   00004AE0           SUB      R0,R10,R0
   \   00001DFC   000050E3           CMP      R0,#+0
   \   00001E00   0070A043           MOVMI    R7,#+0
   \   00001E04   0170A053           MOVPL    R7,#+1
   \   00001E08   FF4000E2           AND      R4,R0,#0xFF
   \   00001E0C   B0FAFFEA           B        ??run_42
   \                     ??run_205:
   \   00001E10   010049E2           SUB      R0,R9,#+1
   \   00001E14   FF9000E2           AND      R9,R0,#0xFF
   \   00001E18   1FFFFFEA           B        ??run_177
   \                     ??run_206:
   \   00001E1C   D50098E1           LDRSB    R0,[R8, +R5]
   \   00001E20   B0B09FE5           LDR      R11,??run_105    ;; j_int_array1d_static_fld
   \   00001E24   014088E2           ADD      R4,R8,#+1
   \   00001E28   FF0000E2           AND      R0,R0,#0xFF
   \   00001E2C   DC098BE5           STR      R0,[R11, #+2524]
   \   00001E30   D51094E1           LDRSB    R1,[R4, +R5]
   \   00001E34   018084E2           ADD      R8,R4,#+1
   \   00001E38   FF1001E2           AND      R1,R1,#0xFF
   \   00001E3C   010480E1           ORR      R0,R0,R1, LSL #+8
   \   00001E40   ........           BL       aint1int
   \   00001E44   00109DE5           LDR      R1,[SP, #+0]
   \   00001E48   000051E0           SUBS     R0,R1,R0
   \                     ??run_207:
   \   00001E4C   0070A043           MOVMI    R7,#+0
   \   00001E50   0170A053           MOVPL    R7,#+1
   \   00001E54   FF4000E2           AND      R4,R0,#0xFF
   \   00001E58   A4FAFFEA           B        ??run_45
   \                     ??run_208:
   \   00001E5C   D50098E1           LDRSB    R0,[R8, +R5]
   \   00001E60   70B09FE5           LDR      R11,??run_105    ;; j_int_array1d_static_fld
   \   00001E64   014088E2           ADD      R4,R8,#+1
   \   00001E68   FF0000E2           AND      R0,R0,#0xFF
   \   00001E6C   DC098BE5           STR      R0,[R11, #+2524]
   \   00001E70   D51094E1           LDRSB    R1,[R4, +R5]
   \   00001E74   018084E2           ADD      R8,R4,#+1
   \   00001E78   FF1001E2           AND      R1,R1,#0xFF
   \   00001E7C   010480E1           ORR      R0,R0,R1, LSL #+8
   \                     ??run_209:
   \   00001E80   ........           BL       aint1int
   \   00001E84   00005AE0           SUBS     R0,R10,R0
   \   00001E88   0070A043           MOVMI    R7,#+0
   \   00001E8C   0170A053           MOVPL    R7,#+1
   \   00001E90   FF4000E2           AND      R4,R0,#0xFF
   \   00001E94   95FAFFEA           B        ??run_45
   \                     ??run_210:
   \   00001E98   D50098E1           LDRSB    R0,[R8, +R5]
   \   00001E9C   34B09FE5           LDR      R11,??run_105    ;; j_int_array1d_static_fld
   \   00001EA0   011088E2           ADD      R1,R8,#+1
   \   00001EA4   FF0000E2           AND      R0,R0,#0xFF
   \   00001EA8   DC098BE5           STR      R0,[R11, #+2524]
   \   00001EAC   D52091E1           LDRSB    R2,[R1, +R5]
   \   00001EB0   018081E2           ADD      R8,R1,#+1
   \   00001EB4   FF2002E2           AND      R2,R2,#0xFF
   \   00001EB8   02B480E1           ORR      R11,R0,R2, LSL #+8
   \   00001EBC   0B00A0E1           MOV      R0,R11
   \   00001EC0   ........           BL       aint1int
   \   00001EC4   010040E2           SUB      R0,R0,#+1
   \   00001EC8   FF4000E2           AND      R4,R0,#0xFF
   \   00001ECC   0410A0E1           MOV      R1,R4
   \   00001ED0   0B00A0E1           MOV      R0,R11
   \   00001ED4   A4FAFFEA           B        ??run_51
   \                     ??run_105:
   \   00001ED8   ........           DC32     j_int_array1d_static_fld
   \                     ??run_211:
   \   00001EDC   000054E3           CMP      R4,#+0
   \   00001EE0   D5FAFF0A           BEQ      ??run_53
   \   00001EE4   D50098E1           LDRSB    R0,[R8, +R5]
   \   00001EE8   036046E2           SUB      R6,R6,#+3
   \   00001EEC   011080E2           ADD      R1,R0,#+1
   \   00001EF0   088081E0           ADD      R8,R1,R8
   \   00001EF4   000050E3           CMP      R0,#+0
   \   00001EF8   9CF9FF5A           BPL      ??run_25
   \   00001EFC   050070E3           CMN      R0,#+5
   \   00001F00   9AF9FFBA           BLT      ??run_25
   \   00001F04   D51098E1           LDRSB    R1,[R8, +R5]
   \   00001F08   020070E3           CMN      R0,#+2
   \   00001F0C   A7FAFF0A           BEQ      ??run_55
   \   00001F10   040070E3           CMN      R0,#+4
   \   00001F14   0200001A           BNE      ??run_212
   \   00001F18   5B0071E3           CMN      R1,#+91
   \   00001F1C   1700001A           BNE      ??run_213
   \   00001F20   A2FAFFEA           B        ??run_55
   \                     ??run_212:
   \   00001F24   050070E3           CMN      R0,#+5
   \   00001F28   0100001A           BNE      ??run_214
   \   00001F2C   530071E3           CMN      R1,#+83
   \   00001F30   BFFAFFEA           B        ??run_60
   \                     ??run_214:
   \   00001F34   030070E3           CMN      R0,#+3
   \   00001F38   8CF9FF1A           BNE      ??run_25
   \   00001F3C   360071E3           CMN      R1,#+54
   \   00001F40   2500001A           BNE      ??run_215
   \   00001F44   C40D9FE5           LDR      R0,??run_216     ;; 0x66666667
   \   00001F48   9016C2E0           SMULL    R1,R2,R0,R6
   \   00001F4C   C220A0E1           ASR      R2,R2,#+1
   \   00001F50   A61F82E0           ADD      R1,R2,R6, LSR #+31
   \   00001F54   010059E1           CMP      R9,R1
   \   00001F58   0910A0B1           MOVLT    R1,R9
   \   00001F5C   019049E0           SUB      R9,R9,R1
   \   00001F60   010181E0           ADD      R0,R1,R1, LSL #+2
   \   00001F64   006046E0           SUB      R6,R6,R0
   \   00001F68   000059E3           CMP      R9,#+0
   \   00001F6C   7FF9FF1A           BNE      ??run_25
   \                     ??run_217:
   \   00001F70   0040A0E3           MOV      R4,#+0
   \   00001F74   016086E2           ADD      R6,R6,#+1
   \   00001F78   038088E2           ADD      R8,R8,#+3
   \   00001F7C   7BF9FFEA           B        ??run_25
   \                     ??run_213:
   \   00001F80   160071E3           CMN      R1,#+22
   \   00001F84   79F9FF1A           BNE      ??run_25
   \   00001F88   050088E0           ADD      R0,R8,R5
   \   00001F8C   D100D0E1           LDRSB    R0,[R0, #+1]
   \   00001F90   3510E0E3           MVN      R1,#+53
   \   00001F94   010050E1           CMP      R0,R1
   \   00001F98   74F9FF1A           BNE      ??run_25
   \   00001F9C   700D9FE5           LDR      R0,??run_216+0x4  ;; 0xffffffff92492493
   \   00001FA0   9016C2E0           SMULL    R1,R2,R0,R6
   \   00001FA4   062082E0           ADD      R2,R2,R6
   \   00001FA8   4221A0E1           ASR      R2,R2,#+2
   \   00001FAC   A61F82E0           ADD      R1,R2,R6, LSR #+31
   \   00001FB0   010059E1           CMP      R9,R1
   \   00001FB4   0910A0B1           MOVLT    R1,R9
   \   00001FB8   019049E0           SUB      R9,R9,R1
   \   00001FBC   810161E0           RSB      R0,R1,R1, LSL #+3
   \   00001FC0   006046E0           SUB      R6,R6,R0
   \   00001FC4   000059E3           CMP      R9,#+0
   \   00001FC8   68F9FF1A           BNE      ??run_25
   \   00001FCC   0040A0E3           MOV      R4,#+0
   \   00001FD0   016086E2           ADD      R6,R6,#+1
   \   00001FD4   048088E2           ADD      R8,R8,#+4
   \   00001FD8   64F9FFEA           B        ??run_25
   \                     ??run_215:
   \   00001FDC   780071E3           CMN      R1,#+120
   \   00001FE0   62F9FF1A           BNE      ??run_25
   \   00001FE4   240D9FE5           LDR      R0,??run_216     ;; 0x66666667
   \   00001FE8   9016C2E0           SMULL    R1,R2,R0,R6
   \   00001FEC   00109DE5           LDR      R1,[SP, #+0]
   \   00001FF0   C220A0E1           ASR      R2,R2,#+1
   \   00001FF4   A60F82E0           ADD      R0,R2,R6, LSR #+31
   \   00001FF8   000051E1           CMP      R1,R0
   \   00001FFC   0100A0B1           MOVLT    R0,R1
   \   00002000   002041E0           SUB      R2,R1,R0
   \   00002004   00208DE5           STR      R2,[SP, #+0]
   \   00002008   000180E0           ADD      R0,R0,R0, LSL #+2
   \   0000200C   006046E0           SUB      R6,R6,R0
   \   00002010   000052E3           CMP      R2,#+0
   \   00002014   55F9FF1A           BNE      ??run_25
   \   00002018   D4FFFFEA           B        ??run_217
   \                     ??run_218:
   \   0000201C   D50098E1           LDRSB    R0,[R8, +R5]
   \   00002020   018088E2           ADD      R8,R8,#+1
   \   00002024   FF0000E2           AND      R0,R0,#0xFF
   \   00002028   D51090E1           LDRSB    R1,[R0, +R5]
   \   0000202C   050080E0           ADD      R0,R0,R5
   \   00002030   D100D0E1           LDRSB    R0,[R0, #+1]
   \   00002034   FF1001E2           AND      R1,R1,#0xFF
   \   00002038   FF0000E2           AND      R0,R0,#0xFF
   \   0000203C   000481E1           ORR      R0,R1,R0, LSL #+8
   \   00002040   00109DE5           LDR      R1,[SP, #+0]
   \   00002044   000081E0           ADD      R0,R1,R0
   \   00002048   ........           BL       aint1int
   \   0000204C   00005AE0           SUBS     R0,R10,R0
   \   00002050   0070A043           MOVMI    R7,#+0
   \   00002054   0170A053           MOVPL    R7,#+1
   \   00002058   5BFFFFEA           B        ??run_202
   \                     ??run_219:
   \   0000205C   D50098E1           LDRSB    R0,[R8, +R5]
   \   00002060   018088E2           ADD      R8,R8,#+1
   \   00002064   000089E0           ADD      R0,R9,R0
   \   00002068   FF0000E2           AND      R0,R0,#0xFF
   \   0000206C   D50090E1           LDRSB    R0,[R0, +R5]
   \   00002070   FF0000E2           AND      R0,R0,#0xFF
   \   00002074   00004AE0           SUB      R0,R10,R0
   \   00002078   000050E3           CMP      R0,#+0
   \   0000207C   72FFFFEA           B        ??run_207
   \                     ??run_220:
   \   00002080   D50098E1           LDRSB    R0,[R8, +R5]
   \   00002084   018088E2           ADD      R8,R8,#+1
   \   00002088   000089E0           ADD      R0,R9,R0
   \   0000208C   FF0000E2           AND      R0,R0,#0xFF
   \   00002090   D51090E1           LDRSB    R1,[R0, +R5]
   \   00002094   011041E2           SUB      R1,R1,#+1
   \   00002098   0510C0E7           STRB     R1,[R0, +R5]
   \   0000209C   D50090E1           LDRSB    R0,[R0, +R5]
   \   000020A0   29FFFFEA           B        ??run_197
   \                     ??run_221:
   \   000020A4   0010A0E3           MOV      R1,#+0
   \                     ??run_222:
   \   000020A8   2C108DE5           STR      R1,[SP, #+44]
   \   000020AC   08FAFFEA           B        ??run_42
   \                     ??run_223:
   \   000020B0   D50098E1           LDRSB    R0,[R8, +R5]
   \   000020B4   ........           LDR      R11,??DataTable18  ;; j_int_array1d_static_fld
   \   000020B8   014088E2           ADD      R4,R8,#+1
   \   000020BC   FF0000E2           AND      R0,R0,#0xFF
   \   000020C0   DC098BE5           STR      R0,[R11, #+2524]
   \   000020C4   D51094E1           LDRSB    R1,[R4, +R5]
   \   000020C8   018084E2           ADD      R8,R4,#+1
   \   000020CC   FF1001E2           AND      R1,R1,#0xFF
   \   000020D0   010480E1           ORR      R0,R0,R1, LSL #+8
   \   000020D4   00109DE5           LDR      R1,[SP, #+0]
   \   000020D8   000081E0           ADD      R0,R1,R0
   \   000020DC   67FFFFEA           B        ??run_209
   \                     ??run_224:
   \   000020E0   D50098E1           LDRSB    R0,[R8, +R5]
   \   000020E4   ........           LDR      R11,??DataTable18  ;; j_int_array1d_static_fld
   \   000020E8   014088E2           ADD      R4,R8,#+1
   \   000020EC   FF0000E2           AND      R0,R0,#0xFF
   \   000020F0   DC098BE5           STR      R0,[R11, #+2524]
   \   000020F4   D51094E1           LDRSB    R1,[R4, +R5]
   \   000020F8   018084E2           ADD      R8,R4,#+1
   \   000020FC   FF1001E2           AND      R1,R1,#0xFF
   \   00002100   010480E1           ORR      R0,R0,R1, LSL #+8
   \   00002104   000089E0           ADD      R0,R9,R0
   \   00002108   ........           BL       aint1int
   \   0000210C   00005AE0           SUBS     R0,R10,R0
   \   00002110   0070A043           MOVMI    R7,#+0
   \   00002114   0170A053           MOVPL    R7,#+1
   \   00002118   FF4000E2           AND      R4,R0,#0xFF
   \   0000211C   D5F9FFEA           B        ??run_38
   \                     ??run_225:
   \   00002120   D50098E1           LDRSB    R0,[R8, +R5]
   \   00002124   ........           LDR      R11,??DataTable18  ;; j_int_array1d_static_fld
   \   00002128   011088E2           ADD      R1,R8,#+1
   \   0000212C   FF0000E2           AND      R0,R0,#0xFF
   \   00002130   DC098BE5           STR      R0,[R11, #+2524]
   \   00002134   D52091E1           LDRSB    R2,[R1, +R5]
   \   00002138   018081E2           ADD      R8,R1,#+1
   \   0000213C   FF2002E2           AND      R2,R2,#0xFF
   \   00002140   020480E1           ORR      R0,R0,R2, LSL #+8
   \   00002144   00B089E0           ADD      R11,R9,R0
   \   00002148   0B00A0E1           MOV      R0,R11
   \   0000214C   ........           BL       aint1int
   \   00002150   010040E2           SUB      R0,R0,#+1
   \   00002154   FF4000E2           AND      R4,R0,#0xFF
   \   00002158   71FCFFEA           B        ??run_126
   \                     ??run_226:
   \   0000215C   D50098E1           LDRSB    R0,[R8, +R5]
   \   00002160   018088E2           ADD      R8,R8,#+1
   \   00002164   FF0000E2           AND      R0,R0,#0xFF
   \   00002168   000049E0           SUB      R0,R9,R0
   \   0000216C   E3FEFFEA           B        ??run_195
   \                     ??run_227:
   \   00002170   D50098E1           LDRSB    R0,[R8, +R5]
   \   00002174   018088E2           ADD      R8,R8,#+1
   \   00002178   000089E0           ADD      R0,R9,R0
   \   0000217C   FF0000E2           AND      R0,R0,#0xFF
   \   00002180   D51090E1           LDRSB    R1,[R0, +R5]
   \   00002184   050080E0           ADD      R0,R0,R5
   \   00002188   D100D0E1           LDRSB    R0,[R0, #+1]
   \   0000218C   FF1001E2           AND      R1,R1,#0xFF
   \   00002190   FF0000E2           AND      R0,R0,#0xFF
   \   00002194   000481E1           ORR      R0,R1,R0, LSL #+8
   \   00002198   ........           BL       aint1int
   \   0000219C   00104AE0           SUB      R1,R10,R0
   \   000021A0   011087E0           ADD      R1,R7,R1
   \   000021A4   011041E2           SUB      R1,R1,#+1
   \   000021A8   0A0020E0           EOR      R0,R0,R10
   \   000021AC   0A3021E0           EOR      R3,R1,R10
   \   000021B0   000003E0           AND      R0,R3,R0
   \   000021B4   C003A0E1           ASR      R0,R0,#+7
   \   000021B8   0C008DE5           STR      R0,[SP, #+12]
   \   000021BC   000051E3           CMP      R1,#+0
   \   000021C0   0070A043           MOVMI    R7,#+0
   \   000021C4   0170A053           MOVPL    R7,#+1
   \   000021C8   FFA001E2           AND      R10,R1,#0xFF
   \   000021CC   92F9FFEA           B        ??run_30
   \                     ??run_228:
   \   000021D0   D50098E1           LDRSB    R0,[R8, +R5]
   \   000021D4   018088E2           ADD      R8,R8,#+1
   \   000021D8   FF0000E2           AND      R0,R0,#0xFF
   \   000021DC   D50090E1           LDRSB    R0,[R0, +R5]
   \   000021E0   FF0000E2           AND      R0,R0,#0xFF
   \   000021E4   000049E0           SUB      R0,R9,R0
   \   000021E8   E0FEFFEA           B        ??run_199
   \                     ??run_229:
   \   000021EC   D50098E1           LDRSB    R0,[R8, +R5]
   \   000021F0   018088E2           ADD      R8,R8,#+1
   \   000021F4   FF0000E2           AND      R0,R0,#0xFF
   \   000021F8   D50090E1           LDRSB    R0,[R0, +R5]
   \   000021FC   FF0000E2           AND      R0,R0,#0xFF
   \   00002200   00104AE0           SUB      R1,R10,R0
   \   00002204   011087E0           ADD      R1,R7,R1
   \   00002208   011041E2           SUB      R1,R1,#+1
   \   0000220C   0A0020E0           EOR      R0,R0,R10
   \   00002210   0A3021E0           EOR      R3,R1,R10
   \   00002214   000003E0           AND      R0,R3,R0
   \   00002218   C003A0E1           ASR      R0,R0,#+7
   \   0000221C   0C008DE5           STR      R0,[SP, #+12]
   \   00002220   000051E3           CMP      R1,#+0
   \   00002224   0070A043           MOVMI    R7,#+0
   \   00002228   0170A053           MOVPL    R7,#+1
   \   0000222C   FFA001E2           AND      R10,R1,#0xFF
   \   00002230   93FAFFEA           B        ??run_81
   \                     ??run_230:
   \   00002234   D50098E1           LDRSB    R0,[R8, +R5]
   \   00002238   018088E2           ADD      R8,R8,#+1
   \   0000223C   FF0000E2           AND      R0,R0,#0xFF
   \   00002240   D51090E1           LDRSB    R1,[R0, +R5]
   \   00002244   011081E2           ADD      R1,R1,#+1
   \   00002248   0510C0E7           STRB     R1,[R0, +R5]
   \   0000224C   D50090E1           LDRSB    R0,[R0, +R5]
   \   00002250   DDFEFFEA           B        ??run_202
   \                     ??run_231:
   \   00002254   010089E2           ADD      R0,R9,#+1
   \   00002258   FF9000E2           AND      R9,R0,#0xFF
   \   0000225C   0EFEFFEA           B        ??run_177
   \                     ??run_232:
   \   00002260   D50098E1           LDRSB    R0,[R8, +R5]
   \   00002264   018088E2           ADD      R8,R8,#+1
   \   00002268   FF0000E2           AND      R0,R0,#0xFF
   \   0000226C   00104AE0           SUB      R1,R10,R0
   \   00002270   011087E0           ADD      R1,R7,R1
   \   00002274   011041E2           SUB      R1,R1,#+1
   \   00002278   0A0020E0           EOR      R0,R0,R10
   \   0000227C   0A3021E0           EOR      R3,R1,R10
   \   00002280   000003E0           AND      R0,R3,R0
   \   00002284   C003A0E1           ASR      R0,R0,#+7
   \   00002288   0C008DE5           STR      R0,[SP, #+12]
   \   0000228C   000051E3           CMP      R1,#+0
   \   00002290   0070A043           MOVMI    R7,#+0
   \   00002294   0170A053           MOVPL    R7,#+1
   \   00002298   FFA001E2           AND      R10,R1,#0xFF
   \   0000229C   9FFAFFEA           B        ??run_87
   \                     ??run_233:
   \   000022A0   D50098E1           LDRSB    R0,[R8, +R5]
   \   000022A4   018088E2           ADD      R8,R8,#+1
   \   000022A8   FF0000E2           AND      R0,R0,#0xFF
   \   000022AC   00104AE0           SUB      R1,R10,R0
   \   000022B0   011087E0           ADD      R1,R7,R1
   \   000022B4   011041E2           SUB      R1,R1,#+1
   \   000022B8   0A0020E0           EOR      R0,R0,R10
   \   000022BC   0A3021E0           EOR      R3,R1,R10
   \   000022C0   000003E0           AND      R0,R3,R0
   \   000022C4   C003A0E1           ASR      R0,R0,#+7
   \   000022C8   0C008DE5           STR      R0,[SP, #+12]
   \   000022CC   000051E3           CMP      R1,#+0
   \   000022D0   0070A043           MOVMI    R7,#+0
   \   000022D4   0170A053           MOVPL    R7,#+1
   \   000022D8   FFA001E2           AND      R10,R1,#0xFF
   \   000022DC   7BF9FFEA           B        ??run_41
   \                     ??run_234:
   \   000022E0   D50098E1           LDRSB    R0,[R8, +R5]
   \   000022E4   ........           LDR      R11,??DataTable18  ;; j_int_array1d_static_fld
   \   000022E8   014088E2           ADD      R4,R8,#+1
   \   000022EC   FF0000E2           AND      R0,R0,#0xFF
   \   000022F0   DC098BE5           STR      R0,[R11, #+2524]
   \   000022F4   D51094E1           LDRSB    R1,[R4, +R5]
   \   000022F8   018084E2           ADD      R8,R4,#+1
   \   000022FC   FF1001E2           AND      R1,R1,#0xFF
   \   00002300   010480E1           ORR      R0,R0,R1, LSL #+8
   \   00002304   ........           BL       aint1int
   \   00002308   000059E0           SUBS     R0,R9,R0
   \   0000230C   0070A043           MOVMI    R7,#+0
   \   00002310   0170A053           MOVPL    R7,#+1
   \   00002314   FF4000E2           AND      R4,R0,#0xFF
   \   00002318   74F9FFEA           B        ??run_45
   \                     ??run_235:
   \   0000231C   D50098E1           LDRSB    R0,[R8, +R5]
   \   00002320   ........           LDR      R11,??DataTable18  ;; j_int_array1d_static_fld
   \   00002324   014088E2           ADD      R4,R8,#+1
   \   00002328   FF0000E2           AND      R0,R0,#0xFF
   \   0000232C   DC098BE5           STR      R0,[R11, #+2524]
   \   00002330   D51094E1           LDRSB    R1,[R4, +R5]
   \   00002334   018084E2           ADD      R8,R4,#+1
   \   00002338   FF1001E2           AND      R1,R1,#0xFF
   \   0000233C   010480E1           ORR      R0,R0,R1, LSL #+8
   \   00002340   ........           BL       aint1int
   \   00002344   00104AE0           SUB      R1,R10,R0
   \   00002348   011087E0           ADD      R1,R7,R1
   \   0000234C   011041E2           SUB      R1,R1,#+1
   \   00002350   0A0020E0           EOR      R0,R0,R10
   \   00002354   0A3021E0           EOR      R3,R1,R10
   \   00002358   000003E0           AND      R0,R3,R0
   \   0000235C   C003A0E1           ASR      R0,R0,#+7
   \   00002360   0C008DE5           STR      R0,[SP, #+12]
   \   00002364   000051E3           CMP      R1,#+0
   \   00002368   0070A043           MOVMI    R7,#+0
   \   0000236C   0170A053           MOVPL    R7,#+1
   \   00002370   FFA001E2           AND      R10,R1,#0xFF
   \   00002374   CAF9FFEA           B        ??run_66
   \                     ??run_236:
   \   00002378   D50098E1           LDRSB    R0,[R8, +R5]
   \   0000237C   ........           LDR      R11,??DataTable18  ;; j_int_array1d_static_fld
   \   00002380   011088E2           ADD      R1,R8,#+1
   \   00002384   FF0000E2           AND      R0,R0,#0xFF
   \   00002388   DC098BE5           STR      R0,[R11, #+2524]
   \   0000238C   D52091E1           LDRSB    R2,[R1, +R5]
   \   00002390   018081E2           ADD      R8,R1,#+1
   \   00002394   FF2002E2           AND      R2,R2,#0xFF
   \   00002398   02B480E1           ORR      R11,R0,R2, LSL #+8
   \   0000239C   0B00A0E1           MOV      R0,R11
   \   000023A0   ........           BL       aint1int
   \   000023A4   010080E2           ADD      R0,R0,#+1
   \   000023A8   FF4000E2           AND      R4,R0,#0xFF
   \   000023AC   0410A0E1           MOV      R1,R4
   \   000023B0   0B00A0E1           MOV      R0,R11
   \   000023B4   6CF9FFEA           B        ??run_51
   \                     ??run_237:
   \   000023B8   000054E3           CMP      R4,#+0
   \   000023BC   9EF9FF1A           BNE      ??run_53
   \   000023C0   D50098E1           LDRSB    R0,[R8, +R5]
   \   000023C4   036046E2           SUB      R6,R6,#+3
   \   000023C8   011080E2           ADD      R1,R0,#+1
   \   000023CC   088081E0           ADD      R8,R1,R8
   \   000023D0   000050E3           CMP      R0,#+0
   \   000023D4   65F8FF5A           BPL      ??run_25
   \   000023D8   050070E3           CMN      R0,#+5
   \   000023DC   63F8FFBA           BLT      ??run_25
   \   000023E0   D51098E1           LDRSB    R1,[R8, +R5]
   \   000023E4   040070E3           CMN      R0,#+4
   \   000023E8   60F8FF1A           BNE      ??run_25
   \   000023EC   3B0071E3           CMN      R1,#+59
   \   000023F0   6EF9FF0A           BEQ      ??run_55
   \   000023F4   5B0071E3           CMN      R1,#+91
   \   000023F8   8DF9FFEA           B        ??run_60
   \                     ??run_238:
   \   000023FC   D50098E1           LDRSB    R0,[R8, +R5]
   \   00002400   018088E2           ADD      R8,R8,#+1
   \   00002404   FF0000E2           AND      R0,R0,#0xFF
   \   00002408   D51090E1           LDRSB    R1,[R0, +R5]
   \   0000240C   050080E0           ADD      R0,R0,R5
   \   00002410   D100D0E1           LDRSB    R0,[R0, #+1]
   \   00002414   FF1001E2           AND      R1,R1,#0xFF
   \   00002418   FF0000E2           AND      R0,R0,#0xFF
   \   0000241C   000481E1           ORR      R0,R1,R0, LSL #+8
   \   00002420   00109DE5           LDR      R1,[SP, #+0]
   \   00002424   000081E0           ADD      R0,R1,R0
   \   00002428   ........           BL       aint1int
   \   0000242C   00104AE0           SUB      R1,R10,R0
   \   00002430   011087E0           ADD      R1,R7,R1
   \   00002434   011041E2           SUB      R1,R1,#+1
   \   00002438   0A0020E0           EOR      R0,R0,R10
   \   0000243C   0A3021E0           EOR      R3,R1,R10
   \   00002440   000003E0           AND      R0,R3,R0
   \   00002444   C003A0E1           ASR      R0,R0,#+7
   \   00002448   0C008DE5           STR      R0,[SP, #+12]
   \   0000244C   000051E3           CMP      R1,#+0
   \   00002450   0070A043           MOVMI    R7,#+0
   \   00002454   0170A053           MOVPL    R7,#+1
   \   00002458   FFA001E2           AND      R10,R1,#0xFF
   \   0000245C   85F9FFEA           B        ??run_63
   \                     ??run_239:
   \   00002460   D50098E1           LDRSB    R0,[R8, +R5]
   \   00002464   018088E2           ADD      R8,R8,#+1
   \   00002468   000089E0           ADD      R0,R9,R0
   \   0000246C   FF0000E2           AND      R0,R0,#0xFF
   \   00002470   D50090E1           LDRSB    R0,[R0, +R5]
   \   00002474   FF0000E2           AND      R0,R0,#0xFF
   \   00002478   00104AE0           SUB      R1,R10,R0
   \   0000247C   011087E0           ADD      R1,R7,R1
   \   00002480   011041E2           SUB      R1,R1,#+1
   \   00002484   0A0020E0           EOR      R0,R0,R10
   \   00002488   0A3021E0           EOR      R3,R1,R10
   \   0000248C   000003E0           AND      R0,R3,R0
   \   00002490   C003A0E1           ASR      R0,R0,#+7
   \   00002494   0C008DE5           STR      R0,[SP, #+12]
   \   00002498   000051E3           CMP      R1,#+0
   \   0000249C   0070A043           MOVMI    R7,#+0
   \   000024A0   0170A053           MOVPL    R7,#+1
   \   000024A4   FFA001E2           AND      R10,R1,#0xFF
   \   000024A8   1DF9FFEA           B        ??run_48
   \                     ??run_240:
   \   000024AC   D50098E1           LDRSB    R0,[R8, +R5]
   \   000024B0   018088E2           ADD      R8,R8,#+1
   \   000024B4   000089E0           ADD      R0,R9,R0
   \   000024B8   FF0000E2           AND      R0,R0,#0xFF
   \   000024BC   D51090E1           LDRSB    R1,[R0, +R5]
   \   000024C0   011081E2           ADD      R1,R1,#+1
   \   000024C4   0510C0E7           STRB     R1,[R0, +R5]
   \   000024C8   D50090E1           LDRSB    R0,[R0, +R5]
   \   000024CC   1EFEFFEA           B        ??run_197
   \                     ??run_241:
   \   000024D0   0110A0E3           MOV      R1,#+1
   \   000024D4   F3FEFFEA           B        ??run_222
   \                     ??run_242:
   \   000024D8   D50098E1           LDRSB    R0,[R8, +R5]
   \   000024DC   ........           LDR      R11,??DataTable18  ;; j_int_array1d_static_fld
   \   000024E0   014088E2           ADD      R4,R8,#+1
   \   000024E4   FF0000E2           AND      R0,R0,#0xFF
   \   000024E8   DC098BE5           STR      R0,[R11, #+2524]
   \   000024EC   D51094E1           LDRSB    R1,[R4, +R5]
   \   000024F0   018084E2           ADD      R8,R4,#+1
   \   000024F4   FF1001E2           AND      R1,R1,#0xFF
   \   000024F8   010480E1           ORR      R0,R0,R1, LSL #+8
   \   000024FC   00109DE5           LDR      R1,[SP, #+0]
   \   00002500   000081E0           ADD      R0,R1,R0
   \   00002504   ........           BL       aint1int
   \   00002508   00104AE0           SUB      R1,R10,R0
   \   0000250C   011087E0           ADD      R1,R7,R1
   \   00002510   011041E2           SUB      R1,R1,#+1
   \   00002514   0A0020E0           EOR      R0,R0,R10
   \   00002518   0A3021E0           EOR      R3,R1,R10
   \   0000251C   000003E0           AND      R0,R3,R0
   \   00002520   C003A0E1           ASR      R0,R0,#+7
   \   00002524   0C008DE5           STR      R0,[SP, #+12]
   \   00002528   000051E3           CMP      R1,#+0
   \   0000252C   0070A043           MOVMI    R7,#+0
   \   00002530   0170A053           MOVPL    R7,#+1
   \   00002534   FFA001E2           AND      R10,R1,#0xFF
   \   00002538   59F9FFEA           B        ??run_66
   \                     ??run_243:
   \   0000253C   D50098E1           LDRSB    R0,[R8, +R5]
   \   00002540   ........           LDR      R11,??DataTable18  ;; j_int_array1d_static_fld
   \   00002544   014088E2           ADD      R4,R8,#+1
   \   00002548   FF0000E2           AND      R0,R0,#0xFF
   \   0000254C   DC098BE5           STR      R0,[R11, #+2524]
   \   00002550   D51094E1           LDRSB    R1,[R4, +R5]
   \   00002554   018084E2           ADD      R8,R4,#+1
   \   00002558   FF1001E2           AND      R1,R1,#0xFF
   \   0000255C   010480E1           ORR      R0,R0,R1, LSL #+8
   \   00002560   000089E0           ADD      R0,R9,R0
   \   00002564   ........           BL       aint1int
   \   00002568   00104AE0           SUB      R1,R10,R0
   \   0000256C   011087E0           ADD      R1,R7,R1
   \   00002570   011041E2           SUB      R1,R1,#+1
   \   00002574   0A0020E0           EOR      R0,R0,R10
   \   00002578   0A3021E0           EOR      R3,R1,R10
   \   0000257C   000003E0           AND      R0,R3,R0
   \   00002580   C003A0E1           ASR      R0,R0,#+7
   \   00002584   0C008DE5           STR      R0,[SP, #+12]
   \   00002588   000051E3           CMP      R1,#+0
   \   0000258C   0070A043           MOVMI    R7,#+0
   \   00002590   0170A053           MOVPL    R7,#+1
   \   00002594   FFA001E2           AND      R10,R1,#0xFF
   \   00002598   55FAFFEA           B        ??run_102
   \                     ??run_244:
   \   0000259C   D50098E1           LDRSB    R0,[R8, +R5]
   \   000025A0   ........           LDR      R11,??DataTable18  ;; j_int_array1d_static_fld
   \   000025A4   011088E2           ADD      R1,R8,#+1
   \   000025A8   FF0000E2           AND      R0,R0,#0xFF
   \   000025AC   DC098BE5           STR      R0,[R11, #+2524]
   \   000025B0   D52091E1           LDRSB    R2,[R1, +R5]
   \   000025B4   018081E2           ADD      R8,R1,#+1
   \   000025B8   FF2002E2           AND      R2,R2,#0xFF
   \   000025BC   020480E1           ORR      R0,R0,R2, LSL #+8
   \   000025C0   00B089E0           ADD      R11,R9,R0
   \   000025C4   0B00A0E1           MOV      R0,R11
   \   000025C8   ........           BL       aint1int
   \   000025CC   010080E2           ADD      R0,R0,#+1
   \   000025D0   FF4000E2           AND      R4,R0,#0xFF
   \   000025D4   67F9FFEA           B        ??run_74
   \                     ??run_58:
   \   000025D8   38079FE5           LDR      R0,??run_216+0x8  ;; j_int_array1d_static_fld + 3200
   \   000025DC   0000D0E5           LDRB     R0,[R0, #+0]
   \   000025E0   000050E3           CMP      R0,#+0
   \   000025E4   3700000A           BEQ      ??run_56
   \   000025E8   851081E2           ADD      R1,R1,#+133
   \   000025EC   FF00A0E3           MOV      R0,#+255
   \   000025F0   FF0C80E3           ORR      R0,R0,#0xFF00
   \   000025F4   000051E1           CMP      R1,R0
   \   000025F8   320000BA           BLT      ??run_56
   \   000025FC   0010A0E3           MOV      R1,#+0
   \                     ??run_59:
   \   00002600   18009DE5           LDR      R0,[SP, #+24]
   \   00002604   000050E3           CMP      R0,#+0
   \   00002608   2E00001A           BNE      ??run_56
   \   0000260C   10009DE5           LDR      R0,[SP, #+16]
   \   00002610   04309DE5           LDR      R3,[SP, #+4]
   \   00002614   ........           LDR      R11,??DataTable18  ;; j_int_array1d_static_fld
   \   00002618   002048E0           SUB      R2,R8,R0
   \   0000261C   400FA0E3           MOV      R0,#+256
   \   00002620   053083E0           ADD      R3,R3,R5
   \   00002624   4284A0E1           ASR      R8,R2,#+8
   \   00002628   0380C0E7           STRB     R8,[R0, +R3]
   \   0000262C   04309DE5           LDR      R3,[SP, #+4]
   \   00002630   000054E3           CMP      R4,#+0
   \   00002634   013043E2           SUB      R3,R3,#+1
   \   00002638   058083E0           ADD      R8,R3,R5
   \   0000263C   0820C0E7           STRB     R2,[R0, +R8]
   \   00002640   010043E2           SUB      R0,R3,#+1
   \   00002644   013040E2           SUB      R3,R0,#+1
   \   00002648   04308DE5           STR      R3,[SP, #+4]
   \   0000264C   0220A003           MOVEQ    R2,#+2
   \   00002650   0020A013           MOVNE    R2,#+0
   \   00002654   072082E1           ORR      R2,R2,R7
   \   00002658   C433A0E1           ASR      R3,R4,#+7
   \   0000265C   832382E1           ORR      R2,R2,R3, LSL #+7
   \   00002660   0C309DE5           LDR      R3,[SP, #+12]
   \   00002664   050080E0           ADD      R0,R0,R5
   \   00002668   032382E1           ORR      R2,R2,R3, LSL #+6
   \   0000266C   0021C0E5           STRB     R2,[R0, #+256]
   \   00002670   A420A0E3           MOV      R2,#+164
   \   00002674   902E82E3           ORR      R2,R2,#0x900
   \   00002678   0B2092E7           LDR      R2,[R2, +R11]
   \   0000267C   FE00A0E3           MOV      R0,#+254
   \   00002680   FF0C80E3           ORR      R0,R0,#0xFF00
   \   00002684   052082E0           ADD      R2,R2,R5
   \   00002688   022080E0           ADD      R2,R0,R2
   \   0000268C   D030D2E1           LDRSB    R3,[R2, #+0]
   \   00002690   D120D2E1           LDRSB    R2,[R2, #+1]
   \   00002694   FF3003E2           AND      R3,R3,#0xFF
   \   00002698   FF2002E2           AND      R2,R2,#0xFF
   \   0000269C   022483E1           ORR      R2,R3,R2, LSL #+8
   \   000026A0   08208DE5           STR      R2,[SP, #+8]
   \   000026A4   C226A0E1           ASR      R2,R2,#+13
   \   000026A8   02218BE0           ADD      R2,R11,R2, LSL #+2
   \   000026AC   882992E5           LDR      R2,[R2, #+2440]
   \   000026B0   076086E2           ADD      R6,R6,#+7
   \   000026B4   10208DE5           STR      R2,[SP, #+16]
   \   000026B8   08009DE5           LDR      R0,[SP, #+8]
   \   000026BC   008082E0           ADD      R8,R2,R0
   \   000026C0   0120A0E3           MOV      R2,#+1
   \   000026C4   18208DE5           STR      R2,[SP, #+24]
   \                     ??run_56:
   \   000026C8   ........           LDR      R11,??DataTable18  ;; j_int_array1d_static_fld
   \   000026CC   3C1A8BE5           STR      R1,[R11, #+2620]
   \   000026D0   840CDBE5           LDRB     R0,[R11, #+3204]
   \   000026D4   000050E3           CMP      R0,#+0
   \   000026D8   2200000A           BEQ      ??run_245
   \   000026DC   14009DE5           LDR      R0,[SP, #+20]
   \   000026E0   F00050E3           CMP      R0,#+240
   \   000026E4   7800001A           BNE      ??run_246
   \   000026E8   2C069FE5           LDR      R0,??run_216+0xC  ;; j_int_array1d_static_fld + 2568
   \   000026EC   000090E5           LDR      R0,[R0, #+0]
   \   000026F0   180010E3           TST      R0,#0x18
   \   000026F4   7400000A           BEQ      ??run_246
   \   000026F8   740A9BE5           LDR      R0,[R11, #+2676]
   \   000026FC   28109DE5           LDR      R1,[SP, #+40]
   \   00002700   010040E0           SUB      R0,R0,R1
   \   00002704   14169FE5           LDR      R1,??run_216+0x10  ;; LastTmrVal
   \   00002708   740A8BE5           STR      R0,[R11, #+2676]
   \   0000270C   20009DE5           LDR      R0,[SP, #+32]
   \   00002710   001091E5           LDR      R1,[R1, #+0]
   \   00002714   540C8BE5           STR      R0,[R11, #+3156]
   \   00002718   ........           LDR      R0,??DataTable21  ;; 0xfffffffff4b00018
   \   0000271C   000090E5           LDR      R0,[R0, #+0]
   \   00002720   010050E1           CMP      R0,R1
   \   00002724   060000AA           BGE      ??run_247
   \                     ??run_248:
   \   00002728   ........           BL       `c0`
   \   0000272C   ........           LDR      R0,??DataTable21  ;; 0xfffffffff4b00018
   \   00002730   E8159FE5           LDR      R1,??run_216+0x10  ;; LastTmrVal
   \   00002734   000090E5           LDR      R0,[R0, #+0]
   \   00002738   001091E5           LDR      R1,[R1, #+0]
   \   0000273C   010050E1           CMP      R0,R1
   \   00002740   F8FFFFBA           BLT      ??run_248
   \                     ??run_247:
   \   00002744   D8259FE5           LDR      R2,??run_216+0x14  ;; j_int_array1d_static_fld + 2884
   \   00002748   D0059FE5           LDR      R0,??run_216+0x10  ;; LastTmrVal
   \   0000274C   002092E5           LDR      R2,[R2, #+0]
   \   00002750   001090E5           LDR      R1,[R0, #+0]
   \   00002754   0A30A0E3           MOV      R3,#+10
   \   00002758   931221E0           MLA      R1,R3,R2,R1
   \   0000275C   001080E5           STR      R1,[R0, #+0]
   \   00002760   0010A0E3           MOV      R1,#+0
   \   00002764   28108DE5           STR      R1,[SP, #+40]
   \                     ??run_245:
   \   00002768   B8059FE5           LDR      R0,??run_216+0x18  ;; j_int_array1d_static_fld + 3204
   \   0000276C   0000D0E5           LDRB     R0,[R0, #+0]
   \   00002770   000050E3           CMP      R0,#+0
   \   00002774   5400001A           BNE      ??run_246
   \   00002778   14009DE5           LDR      R0,[SP, #+20]
   \   0000277C   F00050E3           CMP      R0,#+240
   \   00002780   510000AA           BGE      ??run_246
   \   00002784   90059FE5           LDR      R0,??run_216+0xC  ;; j_int_array1d_static_fld + 2568
   \   00002788   000090E5           LDR      R0,[R0, #+0]
   \   0000278C   180010E3           TST      R0,#0x18
   \   00002790   4D00000A           BEQ      ??run_246
   \   00002794   4000DDE5           LDRB     R0,[SP, #+64]
   \   00002798   000050E3           CMP      R0,#+0
   \   0000279C   4800000A           BEQ      ??run_249
   \   000027A0   540A9BE5           LDR      R0,[R11, #+2644]
   \   000027A4   E010A0E3           MOV      R1,#+224
   \   000027A8   FB1C81E3           ORR      R1,R1,#0xFB00
   \   000027AC   000001E0           AND      R0,R1,R0
   \   000027B0   501A9BE5           LDR      R1,[R11, #+2640]
   \   000027B4   1F20A0E3           MOV      R2,#+31
   \   000027B8   402E82E3           ORR      R2,R2,#0x400
   \   000027BC   011002E0           AND      R1,R2,R1
   \   000027C0   000081E1           ORR      R0,R1,R0
   \   000027C4   540A8BE5           STR      R0,[R11, #+2644]
   \   000027C8   740A9BE5           LDR      R0,[R11, #+2676]
   \   000027CC   28109DE5           LDR      R1,[SP, #+40]
   \   000027D0   010040E0           SUB      R0,R0,R1
   \   000027D4   740A8BE5           STR      R0,[R11, #+2676]
   \   000027D8   20009DE5           LDR      R0,[SP, #+32]
   \   000027DC   540C8BE5           STR      R0,[R11, #+3156]
   \   000027E0   14009DE5           LDR      R0,[SP, #+20]
   \   000027E4   0B0080E0           ADD      R0,R0,R11
   \   000027E8   900CD0E5           LDRB     R0,[R0, #+3216]
   \   000027EC   000050E3           CMP      R0,#+0
   \   000027F0   14009DE5           LDR      R0,[SP, #+20]
   \   000027F4   0100000A           BEQ      ??run_250
   \   000027F8   ........           BL       xd
   \   000027FC   000000EA           B        ??run_251
   \                     ??run_250:
   \   00002800   ........           BL       avoid1int
   \                     ??run_251:
   \   00002804   14009DE5           LDR      R0,[SP, #+20]
   \   00002808   EF0050E3           CMP      R0,#+239
   \   0000280C   0C00001A           BNE      ??run_252
   \                     ??run_253:
   \   00002810   ........           LDR      R0,??DataTable21  ;; 0xfffffffff4b00018
   \   00002814   04159FE5           LDR      R1,??run_216+0x10  ;; LastTmrVal
   \   00002818   000090E5           LDR      R0,[R0, #+0]
   \   0000281C   001091E5           LDR      R1,[R1, #+0]
   \   00002820   010050E1           CMP      R0,R1
   \   00002824   F9FFFFBA           BLT      ??run_253
   \   00002828   F4249FE5           LDR      R2,??run_216+0x14  ;; j_int_array1d_static_fld + 2884
   \   0000282C   EC049FE5           LDR      R0,??run_216+0x10  ;; LastTmrVal
   \   00002830   002092E5           LDR      R2,[R2, #+0]
   \   00002834   0A30A0E3           MOV      R3,#+10
   \   00002838   931221E0           MLA      R1,R3,R2,R1
   \   0000283C   001080E5           STR      R1,[R0, #+0]
   \   00002840   ........           _BLF     repaint,??repaint??rA
   \                     ??run_252:
   \   00002844   E0049FE5           LDR      R0,??run_216+0x1C  ;; j_int_array1d_static_fld + 2644
   \   00002848   0010A0E3           MOV      R1,#+0
   \   0000284C   28108DE5           STR      R1,[SP, #+40]
   \   00002850   000090E5           LDR      R0,[R0, #+0]
   \   00002854   700C00E2           AND      R0,R0,#0x7000
   \   00002858   700C50E3           CMP      R0,#+28672
   \   0000285C   540A9BE5           LDR      R0,[R11, #+2644]
   \   00002860   1500001A           BNE      ??run_254
   \   00002864   FF10A0E3           MOV      R1,#+255
   \   00002868   8F1C81E3           ORR      R1,R1,#0x8F00
   \   0000286C   000001E0           AND      R0,R1,R0
   \   00002870   540A8BE5           STR      R0,[R11, #+2644]
   \   00002874   F80F00E2           AND      R0,R0,#0x3E0
   \   00002878   E80F50E3           CMP      R0,#+928
   \   0000287C   0600001A           BNE      ??run_255
   \   00002880   540A9BE5           LDR      R0,[R11, #+2644]
   \   00002884   800E20E2           EOR      R0,R0,#0x800
   \                     ??run_256:
   \   00002888   1F10A0E3           MOV      R1,#+31
   \   0000288C   FC1C81E3           ORR      R1,R1,#0xFC00
   \   00002890   000001E0           AND      R0,R1,R0
   \                     ??run_257:
   \   00002894   540A8BE5           STR      R0,[R11, #+2644]
   \   00002898   0B0000EA           B        ??run_246
   \                     ??run_255:
   \   0000289C   88049FE5           LDR      R0,??run_216+0x1C  ;; j_int_array1d_static_fld + 2644
   \   000028A0   000090E5           LDR      R0,[R0, #+0]
   \   000028A4   F80F00E2           AND      R0,R0,#0x3E0
   \   000028A8   F80F50E3           CMP      R0,#+992
   \   000028AC   540A9BE5           LDR      R0,[R11, #+2644]
   \   000028B0   F4FFFF0A           BEQ      ??run_256
   \   000028B4   200080E2           ADD      R0,R0,#+32
   \   000028B8   F5FFFFEA           B        ??run_257
   \                     ??run_254:
   \   000028BC   400D80E2           ADD      R0,R0,#+4096
   \   000028C0   F3FFFFEA           B        ??run_257
   \                     ??run_249:
   \   000028C4   14009DE5           LDR      R0,[SP, #+20]
   \   000028C8   ........           BL       xd
   \                     ??run_246:
   \   000028CC   14109DE5           LDR      R1,[SP, #+20]
   \   000028D0   011081E2           ADD      R1,R1,#+1
   \   000028D4   14108DE5           STR      R1,[SP, #+20]
   \   000028D8   0100A0E1           MOV      R0,R1
   \   000028DC   0610A0E3           MOV      R1,#+6
   \   000028E0   401F81E3           ORR      R1,R1,#0x100
   \   000028E4   010050E1           CMP      R0,R1
   \   000028E8   84F6FFBA           BLT      ??run_15
   \   000028EC   20109DE5           LDR      R1,[SP, #+32]
   \   000028F0   011081E2           ADD      R1,R1,#+1
   \   000028F4   20108DE5           STR      R1,[SP, #+32]
   \   000028F8   8C1CDBE5           LDRB     R1,[R11, #+3212]
   \   000028FC   440A9BE5           LDR      R0,[R11, #+2628]
   \   00002900   000051E3           CMP      R1,#+0
   \   00002904   0300000A           BEQ      ??run_258
   \   00002908   20109DE5           LDR      R1,[SP, #+32]
   \   0000290C   FE0000E2           AND      R0,R0,#0xFE
   \   00002910   011001E2           AND      R1,R1,#0x1
   \   00002914   000081E1           ORR      R0,R1,R0
   \                     ??run_258:
   \   00002918   10149FE5           LDR      R1,??run_216+0x20  ;; j_int_array1d_static_fld + 3213
   \   0000291C   0010D1E5           LDRB     R1,[R1, #+0]
   \   00002920   000051E3           CMP      R1,#+0
   \   00002924   0300000A           BEQ      ??run_259
   \   00002928   20109DE5           LDR      R1,[SP, #+32]
   \   0000292C   FD0000E2           AND      R0,R0,#0xFD
   \   00002930   011001E2           AND      R1,R1,#0x1
   \   00002934   810080E1           ORR      R0,R0,R1, LSL #+1
   \                     ??run_259:
   \   00002938   F4139FE5           LDR      R1,??run_216+0x24  ;; j_int_array1d_static_fld + 2628
   \   0000293C   000081E5           STR      R0,[R1, #+0]
   \   00002940   3C009DE5           LDR      R0,[SP, #+60]
   \   00002944   000CB0E1           LSLS     R0,R0,#+24
   \   00002948   1A00000A           BEQ      ??run_260
   \   0000294C   20009DE5           LDR      R0,[SP, #+32]
   \   00002950   000050E3           CMP      R0,#+0
   \   00002954   1700001A           BNE      ??run_260
   \   00002958   0020A0E3           MOV      R2,#+0
   \   0000295C   3C208DE5           STR      R2,[SP, #+60]
   \   00002960   0110A0E3           MOV      R1,#+1
   \                     ??run_261:
   \   00002964   762F8DE2           ADD      R2,SP,#+472
   \   00002968   002192E7           LDR      R2,[R2, +R0, LSL #+2]
   \   0000296C   763F8DE2           ADD      R3,SP,#+472
   \   00002970   013193E7           LDR      R3,[R3, +R1, LSL #+2]
   \   00002974   030052E1           CMP      R2,R3
   \   00002978   0100A0B1           MOVLT    R0,R1
   \   0000297C   011081E2           ADD      R1,R1,#+1
   \   00002980   640051E3           CMP      R1,#+100
   \   00002984   F6FFFFBA           BLT      ??run_261
   \   00002988   761F8DE2           ADD      R1,SP,#+472
   \   0000298C   001191E7           LDR      R1,[R1, +R0, LSL #+2]
   \   00002990   7D0D51E3           CMP      R1,#+8000
   \   00002994   48208DA2           ADDGE    R2,SP,#+72
   \   00002998   000192A7           LDRGE    R0,[R2, +R0, LSL #+2]
   \   0000299C   8014E0B3           MVNLT    R1,#-2147483648
   \   000029A0   1C008DA5           STRGE    R0,[SP, #+28]
   \   000029A4   8C039FE5           LDR      R0,??run_216+0x28  ;; j_int_array1d_static_fld + 2676
   \   000029A8   1C108DB5           STRLT    R1,[SP, #+28]
   \   000029AC   0010A0E3           MOV      R1,#+0
   \   000029B0   001080E5           STR      R1,[R0, #+0]
   \   000029B4   28108DE5           STR      R1,[SP, #+40]
   \                     ??run_260:
   \   000029B8   7C039FE5           LDR      R0,??run_216+0x2C  ;; j_int_array1d_static_fld + 3205
   \   000029BC   0000D0E5           LDRB     R0,[R0, #+0]
   \   000029C0   000050E3           CMP      R0,#+0
   \   000029C4   0500000A           BEQ      ??run_262
   \   000029C8   740A9BE5           LDR      R0,[R11, #+2676]
   \   000029CC   28109DE5           LDR      R1,[SP, #+40]
   \   000029D0   010040E0           SUB      R0,R0,R1
   \   000029D4   740A8BE5           STR      R0,[R11, #+2676]
   \   000029D8   0010A0E3           MOV      R1,#+0
   \   000029DC   28108DE5           STR      R1,[SP, #+40]
   \                     ??run_262:
   \   000029E0   58039FE5           LDR      R0,??run_216+0x30  ;; j_int_array1d_static_fld + 3207
   \   000029E4   0000D0E5           LDRB     R0,[R0, #+0]
   \   000029E8   000050E3           CMP      R0,#+0
   \   000029EC   17F6FF0A           BEQ      ??run_6
   \   000029F0   0000A0E3           MOV      R0,#+0
   \   000029F4   870CCBE5           STRB     R0,[R11, #+3207]
   \   000029F8   8A0CDBE5           LDRB     R0,[R11, #+3210]
   \   000029FC   000050E3           CMP      R0,#+0
   \   00002A00   0400000A           BEQ      ??run_263
   2280                  } while(true);
   2281                  s_boolean_static_fld = n_boolean_static_fld = false;
   \   00002A04   38039FE5           LDR      R0,??run_216+0x34  ;; j_int_array1d_static_fld + 3210
   \   00002A08   0010A0E3           MOV      R1,#+0
   \   00002A0C   0010C0E5           STRB     R1,[R0, #+0]
   2282              }
   \   00002A10   DADF8DE2           ADD      SP,SP,#+872
   \   00002A14   F08FBDE8           POP      {R4-R11,PC}
   \                     ??run_263:
   \   00002A18   28039FE5           LDR      R0,??run_216+0x38  ;; j_int_array1d_static_fld + 3209
   \   00002A1C   0000D0E5           LDRB     R0,[R0, #+0]
   \   00002A20   000050E3           CMP      R0,#+0
   \   00002A24   6000000A           BEQ      ??run_264
   \   00002A28   18039FE5           LDR      R0,??run_216+0x38  ;; j_int_array1d_static_fld + 3209
   \   00002A2C   0010A0E3           MOV      R1,#+0
   \   00002A30   0010C0E5           STRB     R1,[R0, #+0]
   \   00002A34   0100A0E3           MOV      R0,#+1
   \   00002A38   ........           BL       openstream
   \   00002A3C   010070E3           CMN      R0,#+1
   \   00002A40   5900000A           BEQ      ??run_264
   \   00002A44   FF000AE2           AND      R0,R10,#0xFF
   \   00002A48   ........           BL       bytearrayoutputstreamwrite
   \   00002A4C   FF0009E2           AND      R0,R9,#0xFF
   \   00002A50   ........           BL       bytearrayoutputstreamwrite
   \   00002A54   00009DE5           LDR      R0,[SP, #+0]
   \   00002A58   FF0000E2           AND      R0,R0,#0xFF
   \   00002A5C   ........           BL       bytearrayoutputstreamwrite
   \   00002A60   FF0007E2           AND      R0,R7,#0xFF
   \   00002A64   ........           BL       bytearrayoutputstreamwrite
   \   00002A68   FF0004E2           AND      R0,R4,#0xFF
   \   00002A6C   ........           BL       bytearrayoutputstreamwrite
   \   00002A70   18009DE5           LDR      R0,[SP, #+24]
   \   00002A74   FF0000E2           AND      R0,R0,#0xFF
   \   00002A78   ........           BL       bytearrayoutputstreamwrite
   \   00002A7C   2C009DE5           LDR      R0,[SP, #+44]
   \   00002A80   FF0000E2           AND      R0,R0,#0xFF
   \   00002A84   ........           BL       bytearrayoutputstreamwrite
   \   00002A88   30009DE5           LDR      R0,[SP, #+48]
   \   00002A8C   FF0000E2           AND      R0,R0,#0xFF
   \   00002A90   ........           BL       bytearrayoutputstreamwrite
   \   00002A94   34009DE5           LDR      R0,[SP, #+52]
   \   00002A98   FF0000E2           AND      R0,R0,#0xFF
   \   00002A9C   ........           BL       bytearrayoutputstreamwrite
   \   00002AA0   0C009DE5           LDR      R0,[SP, #+12]
   \   00002AA4   FF0000E2           AND      R0,R0,#0xFF
   \   00002AA8   ........           BL       bytearrayoutputstreamwrite
   \   00002AAC   38009DE5           LDR      R0,[SP, #+56]
   \   00002AB0   FF0000E2           AND      R0,R0,#0xFF
   \   00002AB4   ........           BL       bytearrayoutputstreamwrite
   \   00002AB8   04009DE5           LDR      R0,[SP, #+4]
   \   00002ABC   FF0000E2           AND      R0,R0,#0xFF
   \   00002AC0   ........           BL       bytearrayoutputstreamwrite
   \   00002AC4   08009DE5           LDR      R0,[SP, #+8]
   \   00002AC8   FF0000E2           AND      R0,R0,#0xFF
   \   00002ACC   ........           BL       bytearrayoutputstreamwrite
   \   00002AD0   08009DE5           LDR      R0,[SP, #+8]
   \   00002AD4   FF10A0E3           MOV      R1,#+255
   \   00002AD8   400401E0           AND      R0,R1,R0, ASR #+8
   \   00002ADC   ........           BL       bytearrayoutputstreamwrite
   \   00002AE0   FF0008E2           AND      R0,R8,#0xFF
   \   00002AE4   ........           BL       bytearrayoutputstreamwrite
   \   00002AE8   FF00A0E3           MOV      R0,#+255
   \   00002AEC   480400E0           AND      R0,R0,R8, ASR #+8
   \   00002AF0   ........           BL       bytearrayoutputstreamwrite
   \   00002AF4   FF00A0E3           MOV      R0,#+255
   \   00002AF8   480800E0           AND      R0,R0,R8, ASR #+16
   \   00002AFC   ........           BL       bytearrayoutputstreamwrite
   \   00002B00   FF00A0E3           MOV      R0,#+255
   \   00002B04   480C00E0           AND      R0,R0,R8, ASR #+24
   \   00002B08   ........           BL       bytearrayoutputstreamwrite
   \   00002B0C   10009DE5           LDR      R0,[SP, #+16]
   \   00002B10   FF0000E2           AND      R0,R0,#0xFF
   \   00002B14   ........           BL       bytearrayoutputstreamwrite
   \   00002B18   10009DE5           LDR      R0,[SP, #+16]
   \   00002B1C   FF10A0E3           MOV      R1,#+255
   \   00002B20   400401E0           AND      R0,R1,R0, ASR #+8
   \   00002B24   ........           BL       bytearrayoutputstreamwrite
   \   00002B28   10009DE5           LDR      R0,[SP, #+16]
   \   00002B2C   FF10A0E3           MOV      R1,#+255
   \   00002B30   400801E0           AND      R0,R1,R0, ASR #+16
   \   00002B34   ........           BL       bytearrayoutputstreamwrite
   \   00002B38   10009DE5           LDR      R0,[SP, #+16]
   \   00002B3C   FF10A0E3           MOV      R1,#+255
   \   00002B40   400C01E0           AND      R0,R1,R0, ASR #+24
   \   00002B44   ........           BL       bytearrayoutputstreamwrite
   \   00002B48   1C009DE5           LDR      R0,[SP, #+28]
   \   00002B4C   FF0000E2           AND      R0,R0,#0xFF
   \   00002B50   ........           BL       bytearrayoutputstreamwrite
   \   00002B54   1C009DE5           LDR      R0,[SP, #+28]
   \   00002B58   FF10A0E3           MOV      R1,#+255
   \   00002B5C   400401E0           AND      R0,R1,R0, ASR #+8
   \   00002B60   ........           BL       bytearrayoutputstreamwrite
   \   00002B64   1C009DE5           LDR      R0,[SP, #+28]
   \   00002B68   FF10A0E3           MOV      R1,#+255
   \   00002B6C   400801E0           AND      R0,R1,R0, ASR #+16
   \   00002B70   ........           BL       bytearrayoutputstreamwrite
   \   00002B74   1C009DE5           LDR      R0,[SP, #+28]
   \   00002B78   FF10A0E3           MOV      R1,#+255
   \   00002B7C   400C01E0           AND      R0,R1,R0, ASR #+24
   \   00002B80   ........           BL       bytearrayoutputstreamwrite
   \   00002B84   FF0006E2           AND      R0,R6,#0xFF
   \   00002B88   ........           BL       bytearrayoutputstreamwrite
   \   00002B8C   A8019FE5           LDR      R0,??run_216+0x2C  ;; j_int_array1d_static_fld + 3205
   \   00002B90   0000D0E5           LDRB     R0,[R0, #+0]
   \   00002B94   000050E3           CMP      R0,#+0
   \   00002B98   FF00A013           MOVNE    R0,#+255
   \   00002B9C   ........           BL       bytearrayoutputstreamwrite
   \   00002BA0   ........           BL       c_out
   \   00002BA4   ........           BL       b_out
   \   00002BA8   ........           BL       closestream
   \                     ??run_264:
   \   00002BAC   98019FE5           LDR      R0,??run_216+0x3C  ;; j_int_array1d_static_fld + 3201
   \   00002BB0   0000D0E5           LDRB     R0,[R0, #+0]
   \   00002BB4   000050E3           CMP      R0,#+0
   \   00002BB8   55F5FF0A           BEQ      ??run_5
   \   00002BBC   88019FE5           LDR      R0,??run_216+0x3C  ;; j_int_array1d_static_fld + 3201
   \   00002BC0   0010A0E3           MOV      R1,#+0
   \   00002BC4   0010C0E5           STRB     R1,[R0, #+0]
   \   00002BC8   0000A0E3           MOV      R0,#+0
   \   00002BCC   ........           BL       openstream
   \   00002BD0   010070E3           CMN      R0,#+1
   \   00002BD4   4EF5FF0A           BEQ      ??run_5
   \   00002BD8   ........           BL       bytearrayinputstreamread
   \   00002BDC   FFA000E2           AND      R10,R0,#0xFF
   \   00002BE0   ........           BL       bytearrayinputstreamread
   \   00002BE4   FF9000E2           AND      R9,R0,#0xFF
   \   00002BE8   ........           BL       bytearrayinputstreamread
   \   00002BEC   FF0000E2           AND      R0,R0,#0xFF
   \   00002BF0   00008DE5           STR      R0,[SP, #+0]
   \   00002BF4   ........           BL       bytearrayinputstreamread
   \   00002BF8   FF7000E2           AND      R7,R0,#0xFF
   \   00002BFC   ........           BL       bytearrayinputstreamread
   \   00002C00   FF4000E2           AND      R4,R0,#0xFF
   \   00002C04   ........           BL       bytearrayinputstreamread
   \   00002C08   FF0000E2           AND      R0,R0,#0xFF
   \   00002C0C   18008DE5           STR      R0,[SP, #+24]
   \   00002C10   ........           BL       bytearrayinputstreamread
   \   00002C14   FF0000E2           AND      R0,R0,#0xFF
   \   00002C18   2C008DE5           STR      R0,[SP, #+44]
   \   00002C1C   ........           BL       bytearrayinputstreamread
   \   00002C20   FF0000E2           AND      R0,R0,#0xFF
   \   00002C24   30008DE5           STR      R0,[SP, #+48]
   \   00002C28   ........           BL       bytearrayinputstreamread
   \   00002C2C   FF0000E2           AND      R0,R0,#0xFF
   \   00002C30   34008DE5           STR      R0,[SP, #+52]
   \   00002C34   ........           BL       bytearrayinputstreamread
   \   00002C38   FF0000E2           AND      R0,R0,#0xFF
   \   00002C3C   0C008DE5           STR      R0,[SP, #+12]
   \   00002C40   ........           BL       bytearrayinputstreamread
   \   00002C44   FF0000E2           AND      R0,R0,#0xFF
   \   00002C48   38008DE5           STR      R0,[SP, #+56]
   \   00002C4C   ........           BL       bytearrayinputstreamread
   \   00002C50   FF0000E2           AND      R0,R0,#0xFF
   \   00002C54   04008DE5           STR      R0,[SP, #+4]
   \   00002C58   ........           BL       bytearrayinputstreamread
   \   00002C5C   FF6000E2           AND      R6,R0,#0xFF
   \   00002C60   ........           BL       bytearrayinputstreamread
   \   00002C64   FF0000E2           AND      R0,R0,#0xFF
   \   00002C68   000486E1           ORR      R0,R6,R0, LSL #+8
   \   00002C6C   08008DE5           STR      R0,[SP, #+8]
   \   00002C70   ........           BL       bytearrayinputstreamread
   \   00002C74   FF6000E2           AND      R6,R0,#0xFF
   \   00002C78   ........           BL       bytearrayinputstreamread
   \   00002C7C   FF0000E2           AND      R0,R0,#0xFF
   \   00002C80   006486E1           ORR      R6,R6,R0, LSL #+8
   \   00002C84   ........           BL       bytearrayinputstreamread
   \   00002C88   FF0000E2           AND      R0,R0,#0xFF
   \   00002C8C   006886E1           ORR      R6,R6,R0, LSL #+16
   \   00002C90   ........           BL       bytearrayinputstreamread
   \   00002C94   008C86E1           ORR      R8,R6,R0, LSL #+24
   \   00002C98   ........           BL       bytearrayinputstreamread
   \   00002C9C   FF6000E2           AND      R6,R0,#0xFF
   \   00002CA0   ........           BL       bytearrayinputstreamread
   \   00002CA4   FF0000E2           AND      R0,R0,#0xFF
   \   00002CA8   006486E1           ORR      R6,R6,R0, LSL #+8
   \   00002CAC   ........           BL       bytearrayinputstreamread
   \   00002CB0   FF0000E2           AND      R0,R0,#0xFF
   \   00002CB4   006886E1           ORR      R6,R6,R0, LSL #+16
   \   00002CB8   ........           BL       bytearrayinputstreamread
   \   00002CBC   000C86E1           ORR      R0,R6,R0, LSL #+24
   \   00002CC0   10008DE5           STR      R0,[SP, #+16]
   \   00002CC4   ........           BL       bytearrayinputstreamread
   \   00002CC8   FF6000E2           AND      R6,R0,#0xFF
   \   00002CCC   ........           BL       bytearrayinputstreamread
   \   00002CD0   FF0000E2           AND      R0,R0,#0xFF
   \   00002CD4   006486E1           ORR      R6,R6,R0, LSL #+8
   \   00002CD8   ........           BL       bytearrayinputstreamread
   \   00002CDC   FF0000E2           AND      R0,R0,#0xFF
   \   00002CE0   006886E1           ORR      R6,R6,R0, LSL #+16
   \   00002CE4   ........           BL       bytearrayinputstreamread
   \   00002CE8   000C86E1           ORR      R0,R6,R0, LSL #+24
   \   00002CEC   1C008DE5           STR      R0,[SP, #+28]
   \   00002CF0   ........           BL       bytearrayinputstreamread
   \   00002CF4   006CA0E1           MOV      R6,R0, LSL #+24
   \   00002CF8   466CA0E1           MOV      R6,R6, ASR #+24
   \   00002CFC   ........           BL       bytearrayinputstreamread
   \   00002D00   FF0050E3           CMP      R0,#+255
   \   00002D04   0000A013           MOVNE    R0,#+0
   \   00002D08   0100A003           MOVEQ    R0,#+1
   \   00002D0C   FBF4FFEA           B        ??run_4
   \                     ??run_216:
   \   00002D10   67666666           DC32     0x66666667
   \   00002D14   93244992           DC32     0xffffffff92492493
   \   00002D18   ........           DC32     j_int_array1d_static_fld + 3200
   \   00002D1C   ........           DC32     j_int_array1d_static_fld + 2568
   \   00002D20   ........           DC32     LastTmrVal
   \   00002D24   ........           DC32     j_int_array1d_static_fld + 2884
   \   00002D28   ........           DC32     j_int_array1d_static_fld + 3204
   \   00002D2C   ........           DC32     j_int_array1d_static_fld + 2644
   \   00002D30   ........           DC32     j_int_array1d_static_fld + 3213
   \   00002D34   ........           DC32     j_int_array1d_static_fld + 2628
   \   00002D38   ........           DC32     j_int_array1d_static_fld + 2676
   \   00002D3C   ........           DC32     j_int_array1d_static_fld + 3205
   \   00002D40   ........           DC32     j_int_array1d_static_fld + 3207
   \   00002D44   ........           DC32     j_int_array1d_static_fld + 3210
   \   00002D48   ........           DC32     j_int_array1d_static_fld + 3209
   \   00002D4C   ........           DC32     j_int_array1d_static_fld + 3201
   2283          
   2284          
   2285          

   \                                 In segment CODE, align 4, keep-with-next
   2286              static void xxf(int i1, int j1) {
   \                     xxf:
   \   00000000   F0432DE9           PUSH     {R4-R9,LR}
   2287              int l1,k1,i2,j2,k2,l2,i3,j3,k3,l3,i4;
   2288          //label0:
   2289                  switch(w) {
   \   00000004   ........           LDR      R6,??DataTable24  ;; j_int_array1d_static_fld
   \   00000008   0140A0E1           MOV      R4,R1
   \   0000000C   F49996E5           LDR      R9,[R6, #+2548]
   \   00000010   F85996E5           LDR      R5,[R6, #+2552]
   \   00000014   A880A0E3           MOV      R8,#+168
   \   00000018   908E88E3           ORR      R8,R8,#0x900
   \   0000001C   041088E3           ORR      R1,R8,#0x4
   \   00000020   9B2EA0E3           MOV      R2,#+2480
   \   00000024   0070A0E3           MOV      R7,#+0
   \   00000028   0130A0E3           MOV      R3,#+1
   \   0000002C   019049E2           SUB      R9,R9,#+1
   \   00000030   0E0059E3           CMP      R9,#+14
   \   00000034   F083BD88           POPHI    {R4-R9,PC}
   \   00000038   02CF8FE2           ADR      R12,??xxf_0
   \   0000003C   8990A0E1           MOV      R9,R9, LSL #+1
   \   00000040   B9C09CE1           LDRH     R12,[R12, R9]
   \   00000044   0CF18FE0           ADD      PC,PC,R12, LSL #+2
   \                     ??xxf_0:
   \   00000048   0700DF00E700       DC16     +7,+223,+231,+249
   \              F900        
   \   00000050   380257017C01       DC16     +568,+343,+380,+395
   \              8B01        
   \   00000058   380238029601       DC16     +568,+568,+406,+568
   \              3802        
   \   00000060   38023802CA01       DC16     +568,+568,+458,+0
   \              0000        
   2290                  case 5: // '\005'
   2291                  case 9: // '\t'
   2292                  case 10: // '\n'
   2293                  case 12: // '\f'
   2294                  case 13: // '\r'
   2295                  case 14: // '\016'
   2296                  default:
   2297                      break;
   2298          
   2299                  case 1: // '\001'
   2300                      if((i1 & 0x6000) != (X & 0x6000)) {
   \                     ??xxf_2:
   \   00000068   4CCA96E5           LDR      R12,[R6, #+2636]
   \   0000006C   609C00E2           AND      R9,R0,#0x6000
   \   00000070   60CC0CE2           AND      R12,R12,#0x6000
   \   00000074   0C0059E1           CMP      R9,R12
   2301                          M = 0;
   \   00000078   6C7C8615           STRNE    R7,[R6, #+3180]
   2302                          H = 0;
   \   0000007C   187A8615           STRNE    R7,[R6, #+2584]
   2303                      }
   2304                      X = i1;
   \   00000080   4C0A86E5           STR      R0,[R6, #+2636]
   2305                      if((j1 & 0x80) != 0) {
   \   00000084   800014E3           TST      R4,#0x80
   2306                          M = 0;
   \   00000088   6C7C8615           STRNE    R7,[R6, #+3180]
   2307                          H = 0;
   \   0000008C   187A8615           STRNE    R7,[R6, #+2584]
   2308                          return;
   \   00000090   F083BD18           POPNE    {R4-R9,PC}
   2309                      }
   2310                      if((j1 & 1) != 0)
   \   00000094   6CCC96E5           LDR      R12,[R6, #+3180]
   \   00000098   010014E3           TST      R4,#0x1
   2311                          H |= 1 << M;
   \   0000009C   184A9615           LDRNE    R4,[R6, #+2584]
   \   000000A0   134C8411           ORRNE    R4,R4,R3, LSL R12
   \   000000A4   184A8615           STRNE    R4,[R6, #+2584]
   2312                      M++;
   \   000000A8   01408CE2           ADD      R4,R12,#+1
   \   000000AC   6C4C86E5           STR      R4,[R6, #+3180]
   2313                      if(M < 5)
   \   000000B0   050054E3           CMP      R4,#+5
   \   000000B4   F083BDB8           POPLT    {R4-R9,PC}
   2314                          return;
   2315                      k1 = (i1 & 0x7fff) >> 13;
   2316                      d_int_array1d_static_fld[k1] = H;
   \   000000B8   184A96E5           LDR      R4,[R6, #+2584]
   \   000000BC   8008A0E1           LSL      R0,R0,#+17
   \   000000C0   A008A0E1           LSR      R0,R0,#+17
   \   000000C4   C0E6A0E1           ASR      LR,R0,#+13
   \   000000C8   0E0186E0           ADD      R0,R6,LR, LSL #+2
   \   000000CC   A84980E5           STR      R4,[R0, #+2472]
   2317                      M = 0;
   2318                      l1 = H;
   2319                      H = 0;
   2320                      switch(k1) {
   \   000000D0   6C0A96E5           LDR      R0,[R6, #+2668]
   \   000000D4   68CA96E5           LDR      R12,[R6, #+2664]
   \   000000D8   6C7C86E5           STR      R7,[R6, #+3180]
   \   000000DC   187A86E5           STR      R7,[R6, #+2584]
   \   000000E0   00005EE3           CMP      LR,#+0
   \   000000E4   0600000A           BEQ      ??xxf_3
   \   000000E8   01E05EE2           SUBS     LR,LR,#+1
   \   000000EC   1100000A           BEQ      ??xxf_4
   \   000000F0   01E05EE2           SUBS     LR,LR,#+1
   \   000000F4   6100000A           BEQ      ??xxf_5
   \   000000F8   01E05EE2           SUBS     LR,LR,#+1
   \   000000FC   9300000A           BEQ      ??xxf_6
   \   00000100   F083BDE8           POP      {R4-R9,PC}
   2321                      default:
   2322                          //break label0;
   2323                          goto label0;
   2324          
   2325                      case 0: // '\0'
   2326                          if((d_int_array1d_static_fld[0] & 2) != 0) {
   \                     ??xxf_3:
   \   00000104   068098E7           LDR      R8,[R8, +R6]
   \   00000108   020018E3           TST      R8,#0x2
   \   0000010C   0600000A           BEQ      ??xxf_7
   2327                              if((d_int_array1d_static_fld[0] & 1) != 0)
   \   00000110   010018E3           TST      R8,#0x1
   2328                                  avoid4int(0, 0, 1, 1);
   \   00000114   0120A013           MOVNE    R2,#+1
   \   00000118   0710A011           MOVNE    R1,R7
   \   0000011C   5201001A           BNE      ??xxf_8
   2329                              else
   2330                                  avoid4int(0, 1, 0, 1);
   \   00000120   0020A0E3           MOV      R2,#+0
   \   00000124   0310A0E1           MOV      R1,R3
   \   00000128   C50100EA           B        ??xxf_9
   2331                              goto label0;
   2332                              //break label0;
   2333                          }
   2334                          if((d_int_array1d_static_fld[0] & 1) != 0)
   \                     ??xxf_7:
   \   0000012C   010018E3           TST      R8,#0x1
   \   00000130   4A01000A           BEQ      ??xxf_10
   2335                              avoid4int(1, 1, 1, 1);
   \   00000134   4A0100EA           B        ??xxf_11
   2336                          else
   2337                              avoid4int(0, 0, 0, 0);
   2338                          goto label0;
   2339                          //break label0;
   2340          
   2341                      case 1: // '\001'
   2342                          if(U == 1024) {
   \                     ??xxf_4:
   \   00000138   068098E7           LDR      R8,[R8, +R6]
   \   0000013C   061091E7           LDR      R1,[R1, +R6]
   \   00000140   10E008E2           AND      LR,R8,#0x10
   \   00000144   109001E2           AND      R9,R1,#0x10
   \   00000148   4992A0E1           ASR      R9,R9,#+4
   \   0000014C   400E5CE3           CMP      R12,#+1024
   \   00000150   1200001A           BNE      ??xxf_12
   2343                              if((d_int_array1d_static_fld[0] & 0x10) != 0) {
   \   00000154   00005EE3           CMP      LR,#+0
   \   00000158   0B00000A           BEQ      ??xxf_13
   2344                                  if(d_int_static_fld != 0) {
   \   0000015C   000050E3           CMP      R0,#+0
   \   00000160   0700000A           BEQ      ??xxf_14
   2345                                      m_int_static_fld = (d_int_array1d_static_fld[1] & 0x10) >> 4;
   2346                                      if((d_int_array1d_static_fld[0] & 8) != 0)
   \   00000164   080018E3           TST      R8,#0x8
   2347                                          m_int_static_fld |= (d_int_array1d_static_fld[2] & 0x10) >> 3;
   \   00000168   06009217           LDRNE    R0,[R2, +R6]
   \   0000016C   10000012           ANDNE    R0,R0,#0x10
   \   00000170   C0918911           ORRNE    R9,R9,R0, ASR #+3
   \   00000174   709A86E5           STR      R9,[R6, #+2672]
   2348                                      k();
   \   00000178   ........           BL       k
   2349                                      d_int_static_fld = 0;
   \   0000017C   6C7A86E5           STR      R7,[R6, #+2668]
   \   00000180   F083BDE8           POP      {R4-R9,PC}
   2350                                  } else {
   2351                                      d_int_static_fld = 1;
   \                     ??xxf_14:
   \   00000184   6C3A86E5           STR      R3,[R6, #+2668]
   \   00000188   F083BDE8           POP      {R4-R9,PC}
   2352                                  }
   2353                              } else {
   2354                                  m_int_static_fld = (d_int_array1d_static_fld[1] & 0x10) != 0 ? 3 : 0;
   \                     ??xxf_13:
   \   0000018C   100011E3           TST      R1,#0x10
   \   00000190   707A8605           STREQ    R7,[R6, #+2672]
   \   00000194   0300A013           MOVNE    R0,#+3
   \   00000198   700A8615           STRNE    R0,[R6, #+2672]
   \   0000019C   7E0000EA           B        ??xxf_15
   2355                                  k();
   2356                              }
   2357                              goto label0;
   2358                              //break label0;
   2359                          }
   2360                          if(U == 512 && P == 0) {
   \                     ??xxf_12:
   \   000001A0   800F5CE3           CMP      R12,#+512
   \   000001A4   00005503           CMPEQ    R5,#+0
   \   000001A8   0200001A           BNE      ??xxf_16
   2361                              m_int_static_fld = (d_int_array1d_static_fld[1] & 0x10) >> 4;
   \   000001AC   709A86E5           STR      R9,[R6, #+2672]
   2362                              k();
   \                     ??xxf_17:
   \   000001B0   ........           BL       k
   2363                              goto label0;
   \   000001B4   F083BDE8           POP      {R4-R9,PC}
   2364                              //break label0;
   2365                          }
   2366                          if(P != 0) {
   \                     ??xxf_16:
   \   000001B8   0441A0E1           LSL      R4,R4,#+2
   \   000001BC   000055E3           CMP      R5,#+0
   \   000001C0   2000000A           BEQ      ??xxf_18
   2367                              if((d_int_array1d_static_fld[0] & 0x10) != 0) {
   \   000001C4   00005EE3           CMP      LR,#+0
   \   000001C8   0F00000A           BEQ      ??xxf_19
   2368                                  l1 <<= 2;
   2369                                  c(0, l1 + 0 << 10);
   \   000001CC   0415A0E1           LSL      R1,R4,#+10
   \   000001D0   0000A0E3           MOV      R0,#+0
   \   000001D4   ........           BL       c
   2370                                  c(1, l1 + 1 << 10);
   \   000001D8   010084E2           ADD      R0,R4,#+1
   \   000001DC   0015A0E1           LSL      R1,R0,#+10
   \   000001E0   0100A0E3           MOV      R0,#+1
   \   000001E4   ........           BL       c
   2371                                  c(2, l1 + 2 << 10);
   \   000001E8   020084E2           ADD      R0,R4,#+2
   \   000001EC   0015A0E1           LSL      R1,R0,#+10
   \   000001F0   0200A0E3           MOV      R0,#+2
   \   000001F4   ........           BL       c
   2372                                  c(3, l1 + 3 << 10);
   \   000001F8   030084E2           ADD      R0,R4,#+3
   \   000001FC   0015A0E1           LSL      R1,R0,#+10
   \   00000200   0300A0E3           MOV      R0,#+3
   \   00000204   ........           BL       c
   \   00000208   F083BDE8           POP      {R4-R9,PC}
   2373                              } else {
   2374                                  l1 <<= 2;
   2375                                  avoid8int(l1 + 0, l1 + 1, l1 + 2, l1 + 3, l1 + 4, l1 + 5, l1 + 6, l1 + 7);
   \                     ??xxf_19:
   \   0000020C   070084E2           ADD      R0,R4,#+7
   \   00000210   01002DE9           PUSH     {R0}
   \   00000214   033084E2           ADD      R3,R4,#+3
   \   00000218   022084E2           ADD      R2,R4,#+2
   \   0000021C   011084E2           ADD      R1,R4,#+1
   \   00000220   060084E2           ADD      R0,R4,#+6
   \   00000224   01002DE9           PUSH     {R0}
   \   00000228   050084E2           ADD      R0,R4,#+5
   \   0000022C   01002DE9           PUSH     {R0}
   \   00000230   040084E2           ADD      R0,R4,#+4
   \   00000234   01002DE9           PUSH     {R0}
   \   00000238   0400A0E1           MOV      R0,R4
   \   0000023C   ........           BL       avoid8int
   \   00000240   10D08DE2           ADD      SP,SP,#+16
   \   00000244   F083BDE8           POP      {R4-R9,PC}
   2376                              }
   2377                              goto label0;
   2378                              //break label0;
   2379                          }
   2380                          if((d_int_array1d_static_fld[0] & 0x10) != 0) {
   \                     ??xxf_18:
   \   00000248   00005EE3           CMP      LR,#+0
   \   0000024C   F083BD08           POPEQ    {R4-R9,PC}
   2381                              l1 <<= 2;
   2382                              bvoid2int(0, l1 + 0);
   \   00000250   0410A0E1           MOV      R1,R4
   \   00000254   0000A0E3           MOV      R0,#+0
   \   00000258   ........           BL       bvoid2int
   2383                              bvoid2int(1, l1 + 1);
   \   0000025C   011084E2           ADD      R1,R4,#+1
   \   00000260   0100A0E3           MOV      R0,#+1
   \   00000264   ........           BL       bvoid2int
   2384                              bvoid2int(2, l1 + 2);
   \   00000268   021084E2           ADD      R1,R4,#+2
   \   0000026C   0200A0E3           MOV      R0,#+2
   \   00000270   ........           BL       bvoid2int
   2385                              bvoid2int(3, l1 + 3);
   \   00000274   031084E2           ADD      R1,R4,#+3
   \   00000278   0300A0E3           MOV      R0,#+3
   \   0000027C   220000EA           B        ??xxf_20
   2386                          }
   2387                          goto label0;
   2388                          //break label0;
   2389          
   2390                      case 2: // '\002'
   2391                          if(U == 1024 && (d_int_array1d_static_fld[0] & 8) != 0)
   \                     ??xxf_5:
   \   00000280   068098E7           LDR      R8,[R8, +R6]
   \   00000284   400E5CE3           CMP      R12,#+1024
   \   00000288   0E00001A           BNE      ??xxf_21
   \   0000028C   080018E3           TST      R8,#0x8
   \   00000290   0C00000A           BEQ      ??xxf_21
   2392                              if(d_int_static_fld != 0) {
   \   00000294   000050E3           CMP      R0,#+0
   \   00000298   0900000A           BEQ      ??xxf_22
   2393                                  m_int_static_fld = (d_int_array1d_static_fld[1] & 0x10) >> 4;
   2394                                  m_int_static_fld |= (d_int_array1d_static_fld[2] & 0x10) >> 3;
   \   0000029C   060091E7           LDR      R0,[R1, +R6]
   \   000002A0   061092E7           LDR      R1,[R2, +R6]
   \   000002A4   100000E2           AND      R0,R0,#0x10
   \   000002A8   101001E2           AND      R1,R1,#0x10
   \   000002AC   C111A0E1           ASR      R1,R1,#+3
   \   000002B0   400281E1           ORR      R0,R1,R0, ASR #+4
   \   000002B4   700A86E5           STR      R0,[R6, #+2672]
   2395                                  k();
   \   000002B8   ........           BL       k
   2396                                  d_int_static_fld = 0;
   \   000002BC   6C7A86E5           STR      R7,[R6, #+2668]
   \   000002C0   000000EA           B        ??xxf_21
   2397                              } else {
   2398                                  d_int_static_fld = 1;
   \                     ??xxf_22:
   \   000002C4   6C3A86E5           STR      R3,[R6, #+2668]
   2399                              }
   2400                          if(P == 0 && (d_int_array1d_static_fld[0] & 0x10) != 0) {
   \                     ??xxf_21:
   \   000002C8   10E008E2           AND      LR,R8,#0x10
   \   000002CC   0441A0E1           LSL      R4,R4,#+2
   \   000002D0   000055E3           CMP      R5,#+0
   \   000002D4   0E00001A           BNE      ??xxf_23
   \   000002D8   00005EE3           CMP      LR,#+0
   \   000002DC   0C00000A           BEQ      ??xxf_23
   2401                              l1 <<= 2;
   2402                              bvoid2int(4, l1 + 0);
   \   000002E0   0410A0E1           MOV      R1,R4
   \   000002E4   0400A0E3           MOV      R0,#+4
   \   000002E8   ........           BL       bvoid2int
   2403                              bvoid2int(5, l1 + 1);
   \   000002EC   011084E2           ADD      R1,R4,#+1
   \   000002F0   0500A0E3           MOV      R0,#+5
   \   000002F4   ........           BL       bvoid2int
   2404                              bvoid2int(6, l1 + 2);
   \   000002F8   021084E2           ADD      R1,R4,#+2
   \   000002FC   0600A0E3           MOV      R0,#+6
   \   00000300   ........           BL       bvoid2int
   2405                              bvoid2int(7, l1 + 3);
   \   00000304   031084E2           ADD      R1,R4,#+3
   \   00000308   0700A0E3           MOV      R0,#+7
   \                     ??xxf_20:
   \   0000030C   ........           BL       bvoid2int
   \   00000310   F083BDE8           POP      {R4-R9,PC}
   2406                              goto label0;//                    break label0;
   2407                          }
   2408                          if((d_int_array1d_static_fld[0] & 0x10) != 0) {
   \                     ??xxf_23:
   \   00000314   00005EE3           CMP      LR,#+0
   \   00000318   F083BD08           POPEQ    {R4-R9,PC}
   2409                              l1 <<= 2;
   2410                              c(4, l1 + 0 << 10);
   \   0000031C   0415A0E1           LSL      R1,R4,#+10
   \   00000320   0400A0E3           MOV      R0,#+4
   \   00000324   ........           BL       c
   2411                              c(5, l1 + 1 << 10);
   \   00000328   010084E2           ADD      R0,R4,#+1
   \   0000032C   0015A0E1           LSL      R1,R0,#+10
   \   00000330   0500A0E3           MOV      R0,#+5
   \   00000334   ........           BL       c
   2412                              c(6, l1 + 2 << 10);
   \   00000338   020084E2           ADD      R0,R4,#+2
   \   0000033C   0015A0E1           LSL      R1,R0,#+10
   \   00000340   0600A0E3           MOV      R0,#+6
   \   00000344   ........           BL       c
   2413                              c(7, l1 + 3 << 10);
   \   00000348   030084E2           ADD      R0,R4,#+3
   \   0000034C   040100EA           B        ??xxf_24
   2414                          }
   2415                          goto label0;//                break label0;
   2416          
   2417                      case 3: // '\003'
   2418                          l1 <<= 1;
   2419                          break;
   2420                      }
   2421                      if((d_int_array1d_static_fld[0] & 8) != 0) {
   \                     ??xxf_6:
   \   00000350   068098E7           LDR      R8,[R8, +R6]
   \   00000354   8440A0E1           LSL      R4,R4,#+1
   \   00000358   080018E3           TST      R8,#0x8
   \   0000035C   1000000A           BEQ      ??xxf_25
   2422                          if((d_int_array1d_static_fld[0] & 4) != 0) {
   \   00000360   010084E2           ADD      R0,R4,#+1
   \   00000364   040018E3           TST      R8,#0x4
   \   00000368   0500000A           BEQ      ??xxf_26
   2423                              Z = l1;
   2424                              f_int_static_fld = l1 + 1;
   \   0000036C   E80986E5           STR      R0,[R6, #+2536]
   2425                              n_int_static_fld = T;
   \   00000370   600A96E5           LDR      R0,[R6, #+2656]
   \   00000374   E44986E5           STR      R4,[R6, #+2532]
   \   00000378   EC0986E5           STR      R0,[R6, #+2540]
   2426                              Q = W;
   \   0000037C   640A96E5           LDR      R0,[R6, #+2660]
   \   00000380   040000EA           B        ??xxf_27
   2427                          } else
   2428                          if(U == 1) {
   \                     ??xxf_26:
   \   00000384   01005CE3           CMP      R12,#+1
   \   00000388   88FFFF1A           BNE      ??xxf_17
   2429                              Z = 0;
   \   0000038C   E47986E5           STR      R7,[R6, #+2532]
   2430                              f_int_static_fld = 1;
   \   00000390   E83986E5           STR      R3,[R6, #+2536]
   2431                              n_int_static_fld = l1;
   \   00000394   EC4986E5           STR      R4,[R6, #+2540]
   2432                              Q = l1 + 1;
   \                     ??xxf_27:
   \   00000398   F00986E5           STR      R0,[R6, #+2544]
   \                     ??xxf_15:
   \   0000039C   ........           BL       k
   \   000003A0   F083BDE8           POP      {R4-R9,PC}
   2433                          }
   2434                      } else {
   2435                          Z = l1;
   \                     ??xxf_25:
   \   000003A4   E44986E5           STR      R4,[R6, #+2532]
   2436                          f_int_static_fld = l1 + 1;
   \   000003A8   010084E2           ADD      R0,R4,#+1
   \   000003AC   E80986E5           STR      R0,[R6, #+2536]
   2437                          if(U == 1) {
   \   000003B0   01005CE3           CMP      R12,#+1
   \   000003B4   7DFFFF1A           BNE      ??xxf_17
   2438                              n_int_static_fld = l1 + 2;
   \   000003B8   020084E2           ADD      R0,R4,#+2
   \   000003BC   EC0986E5           STR      R0,[R6, #+2540]
   2439                              Q = l1 + 3;
   \   000003C0   030084E2           ADD      R0,R4,#+3
   \   000003C4   F3FFFFEA           B        ??xxf_27
   2440                          }
   2441                      }
   2442                      k();
   2443                      break;
   2444          
   2445                  case 2: // '\002'
   2446                      j1 &= ad - 1;
   \                     ??xxf_28:
   \   000003C8   FC1996E5           LDR      R1,[R6, #+2556]
   \   000003CC   013041E2           SUB      R3,R1,#+1
   \   000003D0   044003E0           AND      R4,R3,R4
   2447                      xxxxb(j1 * 2, j1 * 2 + 1, ad - 2, ad - 1);
   \   000003D4   8400A0E1           LSL      R0,R4,#+1
   \   000003D8   022041E2           SUB      R2,R1,#+2
   \   000003DC   011080E2           ADD      R1,R0,#+1
   \   000003E0   ........           BL       xxxxb
   \   000003E4   F083BDE8           POP      {R4-R9,PC}
   2448                      break;
   2449          
   2450                  case 3: // '\003'
   2451                      i2 = (j1 & (P >> 1) - 1) << 3;
   \                     ??xxf_29:
   \   000003E8   C500A0E1           ASR      R0,R5,#+1
   \   000003EC   010040E2           SUB      R0,R0,#+1
   \   000003F0   040000E0           AND      R0,R0,R4
   \   000003F4   8001A0E1           LSL      R0,R0,#+3
   2452                      avoid8int(i2 + 0, i2 + 1, i2 + 2, i2 + 3, i2 + 4, i2 + 5, i2 + 6, i2 + 7);
   \   000003F8   071080E2           ADD      R1,R0,#+7
   \   000003FC   02002DE9           PUSH     {R1}
   \   00000400   033080E2           ADD      R3,R0,#+3
   \   00000404   022080E2           ADD      R2,R0,#+2
   \   00000408   061080E2           ADD      R1,R0,#+6
   \   0000040C   02002DE9           PUSH     {R1}
   \   00000410   051080E2           ADD      R1,R0,#+5
   \   00000414   02002DE9           PUSH     {R1}
   \   00000418   041080E2           ADD      R1,R0,#+4
   \   0000041C   02002DE9           PUSH     {R1}
   \   00000420   011080E2           ADD      R1,R0,#+1
   \   00000424   ........           BL       avoid8int
   \   00000428   10D08DE2           ADD      SP,SP,#+16
   \   0000042C   F083BDE8           POP      {R4-R9,PC}
   2453                      break;
   2454          
   2455                  case 4: // '\004'
   2456                      switch(i1 & 0xe001) {
   \                     ??xxf_30:
   \   00000430   E05C83E3           ORR      R5,R3,#0xE000
   \   00000434   000005E0           AND      R0,R5,R0
   \   00000438   800C50E3           CMP      R0,#+32768
   \   0000043C   1200000A           BEQ      ??xxf_31
   \   00000440   805C83E3           ORR      R5,R3,#0x8000
   \   00000444   050050E1           CMP      R0,R5
   \   00000448   1200000A           BEQ      ??xxf_32
   \   0000044C   A00C50E3           CMP      R0,#+40960
   \   00000450   3400000A           BEQ      ??xxf_33
   \   00000454   A05C83E3           ORR      R5,R3,#0xA000
   \   00000458   050050E1           CMP      R0,R5
   \   0000045C   3B00000A           BEQ      ??xxf_34
   \   00000460   C00C50E3           CMP      R0,#+49152
   \   00000464   3F00000A           BEQ      ??xxf_35
   \   00000468   C05C83E3           ORR      R5,R3,#0xC000
   \   0000046C   050050E1           CMP      R0,R5
   \   00000470   4100000A           BEQ      ??xxf_36
   \   00000474   E00C50E3           CMP      R0,#+57344
   \   00000478   4400000A           BEQ      ??xxf_37
   \   0000047C   E05C83E3           ORR      R5,R3,#0xE000
   \   00000480   050050E1           CMP      R0,R5
   \   00000484   4400000A           BEQ      ??xxf_38
   \   00000488   F083BDE8           POP      {R4-R9,PC}
   2457                      default:
   2458                          break;
   2459          
   2460                      case 32768: 
   2461                          d_int_array1d_static_fld[0] = j1;
   \                     ??xxf_31:
   \   0000048C   064088E7           STR      R4,[R8, +R6]
   2462                          l();
   \   00000490   ........           BL       l
   2463                          f();
   \   00000494   210000EA           B        ??xxf_39
   2464                          goto label0; //break label0;
   2465          
   2466                      case 32769: 
   2467                          d_int_array1d_static_fld[1] = j1;
   \                     ??xxf_32:
   \   00000498   064081E7           STR      R4,[R1, +R6]
   2468                          j2 = d_int_array1d_static_fld[1];
   2469                          switch(d_int_array1d_static_fld[0] & 7) {
   \   0000049C   061098E7           LDR      R1,[R8, +R6]
   \   000004A0   0400A0E1           MOV      R0,R4
   \   000004A4   071001E2           AND      R1,R1,#0x7
   \   000004A8   070051E3           CMP      R1,#+7
   \   000004AC   F083BD88           POPHI    {R4-R9,PC}
   \   000004B0   022F8FE2           ADR      R2,??xxf_1
   \   000004B4   8110A0E1           MOV      R1,R1, LSL #+1
   \   000004B8   B12092E1           LDRH     R2,[R2, R1]
   \   000004BC   02F18FE0           ADD      PC,PC,R2, LSL #+2
   \                     ??xxf_1:
   \   000004C0   030006000A00       DC16     +3,+6,+10,+13
   \              0D00        
   \   000004C8   0F0011001300       DC16     +15,+17,+19,+22
   \              1600        
   2470                          case 0: // '\0'
   2471                              j2 &= 0xfe;
   2472                              O = j2;
   \                     ??xxf_40:
   \   000004D0   FE0000E2           AND      R0,R0,#0xFE
   \   000004D4   1C0A86E5           STR      R0,[R6, #+2588]
   2473                              l();
   \   000004D8   040000EA           B        ??xxf_41
   2474                              break;
   2475          
   2476                          case 1: // '\001'
   2477                              j2 &= 0xfe;
   2478                              g_int_static_fld = j2;
   \                     ??xxf_42:
   \   000004DC   FE0000E2           AND      R0,R0,#0xFE
   \   000004E0   200A86E5           STR      R0,[R6, #+2592]
   2479                              l();
   \   000004E4   ........           BL       l
   \   000004E8   F083BDE8           POP      {R4-R9,PC}
   2480                              break;
   2481          
   2482                          case 2: // '\002'
   2483                              ac = j2;
   \                     ??xxf_43:
   \   000004EC   240A86E5           STR      R0,[R6, #+2596]
   2484                              l();
   \                     ??xxf_41:
   \   000004F0   ........           BL       l
   \   000004F4   F083BDE8           POP      {R4-R9,PC}
   2485                              break;
   2486          
   2487                          case 3: // '\003'
   2488                              N = j2;
   \                     ??xxf_44:
   \   000004F8   280A86E5           STR      R0,[R6, #+2600]
   2489                              l();
   \   000004FC   FBFFFFEA           B        ??xxf_41
   2490                              break;
   2491          
   2492                          case 4: // '\004'
   2493                              s_int_static_fld = j2;
   \                     ??xxf_45:
   \   00000500   2C0A86E5           STR      R0,[R6, #+2604]
   2494                              l();
   \   00000504   F9FFFFEA           B        ??xxf_41
   2495                              break;
   2496          
   2497                          case 5: // '\005'
   2498                              v_int_static_fld = j2;
   \                     ??xxf_46:
   \   00000508   300A86E5           STR      R0,[R6, #+2608]
   2499                              l();
   \   0000050C   F7FFFFEA           B        ??xxf_41
   2500                              break;
   2501          
   2502                          case 6: // '\006'
   2503                              G = j2;
   \                     ??xxf_47:
   \   00000510   380B86E5           STR      R0,[R6, #+2872]
   2504                              f();
   \   00000514   ........           BL       f
   \   00000518   F083BDE8           POP      {R4-R9,PC}
   2505                              break;
   2506          
   2507                          case 7: // '\007'
   2508                              J = j2;
   \                     ??xxf_48:
   \   0000051C   3C0B86E5           STR      R0,[R6, #+2876]
   2509                              f();
   \                     ??xxf_39:
   \   00000520   ........           BL       f
   \   00000524   F083BDE8           POP      {R4-R9,PC}
   2510                              break;
   2511                          }
   2512                          goto label0; //break label0;
   2513          
   2514                      case 40960: 
   2515                          d_int_array1d_static_fld[2] = j1;
   2516                          if(f_boolean_static_fld)
   \                     ??xxf_33:
   \   00000528   820CD6E5           LDRB     R0,[R6, #+3202]
   \   0000052C   064082E7           STR      R4,[R2, +R6]
   \   00000530   000050E3           CMP      R0,#+0
   \   00000534   F083BD18           POPNE    {R4-R9,PC}
   2517                              goto label0; //break label0;
   2518                          if((j1 & 1) != 0)
   \   00000538   010014E3           TST      R4,#0x1
   \   0000053C   0020A003           MOVEQ    R2,#+0
   \   00000540   0310A001           MOVEQ    R1,R3
   2519                              avoid4int(0, 0, 1, 1);
   \   00000544   0120A013           MOVNE    R2,#+1
   \   00000548   0710A011           MOVNE    R1,R7
   \   0000054C   BD0000EA           B        ??xxf_49
   2520                          else
   2521                              avoid4int(0, 1, 0, 1);
   2522                          break;
   2523          
   2524                      case 40961: 
   2525                          d_int_array1d_static_fld[3] = j1;
   \                     ??xxf_34:
   \   00000550   B44986E5           STR      R4,[R6, #+2484]
   2526                          q_boolean_static_fld = (j1 & 0x80) == 128;
   \   00000554   800014E3           TST      R4,#0x80
   \   00000558   0100A013           MOVNE    R0,#+1
   \   0000055C   0000A003           MOVEQ    R0,#+0
   \   00000560   7D0CC6E5           STRB     R0,[R6, #+3197]
   \   00000564   F083BDE8           POP      {R4-R9,PC}
   2527                          break;
   2528          
   2529                      case 49152: 
   2530                          d_int_array1d_static_fld[4] = j1;
   \                     ??xxf_35:
   \   00000568   0C0081E2           ADD      R0,R1,#+12
   \   0000056C   064080E7           STR      R4,[R0, +R6]
   2531                          I = d_int_array1d_static_fld[4];
   \   00000570   0400A0E1           MOV      R0,R4
   \   00000574   3C0A86E5           STR      R0,[R6, #+2620]
   \   00000578   F083BDE8           POP      {R4-R9,PC}
   2532                          break;
   2533          
   2534                      case 49153: 
   2535                          d_int_array1d_static_fld[5] = j1;
   \                     ??xxf_36:
   \   0000057C   100081E3           ORR      R0,R1,#0x10
   \   00000580   064080E7           STR      R4,[R0, +R6]
   2536                          F = d_int_array1d_static_fld[5];
   \   00000584   0400A0E1           MOV      R0,R4
   \   00000588   400A86E5           STR      R0,[R6, #+2624]
   \   0000058C   F083BDE8           POP      {R4-R9,PC}
   2537                          break;
   2538          
   2539                      case 57344: 
   2540                          d_int_array1d_static_fld[6] = j1;
   \                     ??xxf_37:
   \   00000590   C04986E5           STR      R4,[R6, #+2496]
   2541                          e_boolean_static_fld = false;
   \   00000594   807CC6E5           STRB     R7,[R6, #+3200]
   \   00000598   F083BDE8           POP      {R4-R9,PC}
   2542                          break;
   2543          
   2544                      case 57345: 
   2545                          d_int_array1d_static_fld[7] = j1;
   \                     ??xxf_38:
   \   0000059C   C44986E5           STR      R4,[R6, #+2500]
   2546                          e_boolean_static_fld = true;
   \   000005A0   803CC6E5           STRB     R3,[R6, #+3200]
   \   000005A4   F083BDE8           POP      {R4-R9,PC}
   2547                          break;
   2548                      }
   2549                      break;
   2550          
   2551                  case 6: // '\006'
   2552                      k2 = (j1 & 0x3c) >> 2;
   \                     ??xxf_50:
   \   000005A8   3C0004E2           AND      R0,R4,#0x3C
   \   000005AC   4051A0E1           ASR      R5,R0,#+2
   2553                      l2 = j1 & 3;
   \   000005B0   034004E2           AND      R4,R4,#0x3
   2554                      e(0, k2 * 2 + 0 << 13);
   \   000005B4   0517A0E1           LSL      R1,R5,#+14
   \   000005B8   0000A0E3           MOV      R0,#+0
   \   000005BC   ........           BL       e
   2555                      e(1, k2 * 2 + 1 << 13);
   \   000005C0   0100A0E3           MOV      R0,#+1
   \   000005C4   850080E0           ADD      R0,R0,R5, LSL #+1
   \   000005C8   8016A0E1           LSL      R1,R0,#+13
   \   000005CC   0100A0E3           MOV      R0,#+1
   \   000005D0   ........           BL       e
   2556                      bvoid2int(0, l2 * 8 + 0);
   \   000005D4   8441A0E1           LSL      R4,R4,#+3
   \   000005D8   0410A0E1           MOV      R1,R4
   \   000005DC   0700A0E1           MOV      R0,R7
   \   000005E0   ........           BL       bvoid2int
   2557                      bvoid2int(1, l2 * 8 + 1);
   \   000005E4   011084E2           ADD      R1,R4,#+1
   \   000005E8   0100A0E3           MOV      R0,#+1
   \   000005EC   ........           BL       bvoid2int
   2558                      bvoid2int(2, l2 * 8 + 2);
   \   000005F0   021084E2           ADD      R1,R4,#+2
   \   000005F4   0200A0E3           MOV      R0,#+2
   \   000005F8   ........           BL       bvoid2int
   2559                      bvoid2int(3, l2 * 8 + 3);
   \   000005FC   031084E2           ADD      R1,R4,#+3
   \   00000600   0300A0E3           MOV      R0,#+3
   \   00000604   ........           BL       bvoid2int
   2560                      bvoid2int(4, l2 * 8 + 4);
   \   00000608   041084E2           ADD      R1,R4,#+4
   \   0000060C   0400A0E3           MOV      R0,#+4
   \   00000610   ........           BL       bvoid2int
   2561                      bvoid2int(5, l2 * 8 + 5);
   \   00000614   051084E2           ADD      R1,R4,#+5
   \   00000618   0500A0E3           MOV      R0,#+5
   \   0000061C   ........           BL       bvoid2int
   2562                      bvoid2int(6, l2 * 8 + 6);
   \   00000620   061084E2           ADD      R1,R4,#+6
   \   00000624   0600A0E3           MOV      R0,#+6
   \   00000628   ........           BL       bvoid2int
   2563                      bvoid2int(7, l2 * 8 + 7);
   \   0000062C   071084E2           ADD      R1,R4,#+7
   \   00000630   0700A0E3           MOV      R0,#+7
   \   00000634   ........           BL       bvoid2int
   \   00000638   F083BDE8           POP      {R4-R9,PC}
   2564                      break;
   2565          
   2566                  case 7: // '\007'
   2567                      i3 = (j1 & 7) << 2;
   \                     ??xxf_51:
   \   0000063C   070004E2           AND      R0,R4,#0x7
   \   00000640   0001A0E1           LSL      R0,R0,#+2
   2568                      xxxxb(i3 + 0, i3 + 1, i3 + 2, i3 + 3);
   \   00000644   033080E2           ADD      R3,R0,#+3
   \   00000648   022080E2           ADD      R2,R0,#+2
   \   0000064C   011080E2           ADD      R1,R0,#+1
   \   00000650   ........           BL       xxxxb
   2569                      if((j1 & 0x10) != 0)
   \   00000654   100014E3           TST      R4,#0x10
   2570                          avoid4int(1, 1, 1, 1);
   \   00000658   0130A013           MOVNE    R3,#+1
   \   0000065C   0000001A           BNE      ??xxf_11
   2571                      else
   2572                          avoid4int(0, 0, 0, 0);
   \                     ??xxf_10:
   \   00000660   0030A0E3           MOV      R3,#+0
   \                     ??xxf_11:
   \   00000664   0320A0E1           MOV      R2,R3
   \   00000668   0210A0E1           MOV      R1,R2
   \                     ??xxf_8:
   \   0000066C   0100A0E1           MOV      R0,R1
   \   00000670   ........           BL       avoid4int
   \   00000674   F083BDE8           POP      {R4-R9,PC}
   2573                      break;
   2574          
   2575                  case 8: // '\b'
   2576                      j3 = (j1 & 0xf8) >> 3;
   \                     ??xxf_52:
   \   00000678   040CA0E1           LSL      R0,R4,#+24
   \   0000067C   A05DA0E1           LSR      R5,R0,#+27
   2577                      k3 = j1 & 7;
   \   00000680   074004E2           AND      R4,R4,#0x7
   2578                      e(0, j3 * 2 + 0 << 13);
   \   00000684   0517A0E1           LSL      R1,R5,#+14
   \   00000688   0000A0E3           MOV      R0,#+0
   \   0000068C   ........           BL       e
   2579                      e(1, j3 * 2 + 1 << 13);
   \   00000690   0100A0E3           MOV      R0,#+1
   \   00000694   850080E0           ADD      R0,R0,R5, LSL #+1
   \   00000698   8016A0E1           LSL      R1,R0,#+13
   \   0000069C   0100A0E3           MOV      R0,#+1
   \   000006A0   110000EA           B        ??xxf_53
   2580                      c(0, k3 * 8 + 0 << 10);
   2581                      c(1, k3 * 8 + 1 << 10);
   2582                      c(2, k3 * 8 + 2 << 10);
   2583                      c(3, k3 * 8 + 3 << 10);
   2584                      c(4, k3 * 8 + 4 << 10);
   2585                      c(5, k3 * 8 + 5 << 10);
   2586                      c(6, k3 * 8 + 6 << 10);
   2587                      c(7, k3 * 8 + 7 << 10);
   2588                      break;
   2589          
   2590                  case 11: // '\013'
   2591                      l3 = j1 & 1;
   \                     ??xxf_54:
   \   000006A4   015004E2           AND      R5,R4,#0x1
   2592                      i4 = (j1 & 0x70) >> 4;
   \   000006A8   700004E2           AND      R0,R4,#0x70
   \   000006AC   4042A0E1           ASR      R4,R0,#+4
   2593                      e(0, l3 * 4 + 0 << 13);
   \   000006B0   8517A0E1           LSL      R1,R5,#+15
   \   000006B4   0000A0E3           MOV      R0,#+0
   \   000006B8   ........           BL       e
   2594                      e(1, l3 * 4 + 1 << 13);
   \   000006BC   0551A0E1           LSL      R5,R5,#+2
   \   000006C0   010085E2           ADD      R0,R5,#+1
   \   000006C4   8016A0E1           LSL      R1,R0,#+13
   \   000006C8   0100A0E3           MOV      R0,#+1
   \   000006CC   ........           BL       e
   2595                      e(2, l3 * 4 + 2 << 13);
   \   000006D0   020085E2           ADD      R0,R5,#+2
   \   000006D4   8016A0E1           LSL      R1,R0,#+13
   \   000006D8   0200A0E3           MOV      R0,#+2
   \   000006DC   ........           BL       e
   2596                      e(3, l3 * 4 + 3 << 13);
   \   000006E0   030085E2           ADD      R0,R5,#+3
   \   000006E4   8016A0E1           LSL      R1,R0,#+13
   \   000006E8   0300A0E3           MOV      R0,#+3
   \                     ??xxf_53:
   \   000006EC   ........           BL       e
   2597                      c(0, i4 * 8 + 0 << 10);
   \   000006F0   8416A0E1           LSL      R1,R4,#+13
   \   000006F4   0000A0E3           MOV      R0,#+0
   \   000006F8   ........           BL       c
   2598                      c(1, i4 * 8 + 1 << 10);
   \   000006FC   8441A0E1           LSL      R4,R4,#+3
   \   00000700   010084E2           ADD      R0,R4,#+1
   \   00000704   0015A0E1           LSL      R1,R0,#+10
   \   00000708   0100A0E3           MOV      R0,#+1
   \   0000070C   ........           BL       c
   2599                      c(2, i4 * 8 + 2 << 10);
   \   00000710   020084E2           ADD      R0,R4,#+2
   \   00000714   0015A0E1           LSL      R1,R0,#+10
   \   00000718   0200A0E3           MOV      R0,#+2
   \   0000071C   ........           BL       c
   2600                      c(3, i4 * 8 + 3 << 10);
   \   00000720   030084E2           ADD      R0,R4,#+3
   \   00000724   0015A0E1           LSL      R1,R0,#+10
   \   00000728   0300A0E3           MOV      R0,#+3
   \   0000072C   ........           BL       c
   2601                      c(4, i4 * 8 + 4 << 10);
   \   00000730   040084E2           ADD      R0,R4,#+4
   \   00000734   0015A0E1           LSL      R1,R0,#+10
   \   00000738   0400A0E3           MOV      R0,#+4
   \   0000073C   ........           BL       c
   2602                      c(5, i4 * 8 + 5 << 10);
   \   00000740   050084E2           ADD      R0,R4,#+5
   \   00000744   0015A0E1           LSL      R1,R0,#+10
   \   00000748   0500A0E3           MOV      R0,#+5
   \   0000074C   ........           BL       c
   2603                      c(6, i4 * 8 + 6 << 10);
   \   00000750   060084E2           ADD      R0,R4,#+6
   \   00000754   0015A0E1           LSL      R1,R0,#+10
   \   00000758   0600A0E3           MOV      R0,#+6
   \   0000075C   ........           BL       c
   2604                      c(7, i4 * 8 + 7 << 10);
   \   00000760   070084E2           ADD      R0,R4,#+7
   \                     ??xxf_24:
   \   00000764   0015A0E1           LSL      R1,R0,#+10
   \   00000768   0700A0E3           MOV      R0,#+7
   \   0000076C   ........           BL       c
   \   00000770   F083BDE8           POP      {R4-R9,PC}
   2605                      break;
   2606          
   2607                  case 15: // '\017'
   2608                      switch(i1) {
   \                     ??xxf_55:
   \   00000774   3F1004E2           AND      R1,R4,#0x3F
   \   00000778   8110A0E1           LSL      R1,R1,#+1
   \   0000077C   012081E2           ADD      R2,R1,#+1
   \   00000780   8256A0E1           LSL      R5,R2,#+13
   \   00000784   3F2004E2           AND      R2,R4,#0x3F
   \   00000788   0267A0E1           LSL      R6,R2,#+14
   \   0000078C   800C50E2           SUBS     R0,R0,#+32768
   \   00000790   0600000A           BEQ      ??xxf_56
   \   00000794   010050E2           SUBS     R0,R0,#+1
   \   00000798   2C00000A           BEQ      ??xxf_57
   \   0000079C   010050E2           SUBS     R0,R0,#+1
   \   000007A0   2F00000A           BEQ      ??xxf_58
   \   000007A4   010050E2           SUBS     R0,R0,#+1
   \   000007A8   4900000A           BEQ      ??xxf_59
   \   000007AC   F083BDE8           POP      {R4-R9,PC}
   2609                      default:
   2610                          goto label0; //break label0;
   2611          
   2612                      case 32768: 
   2613                          if((j1 & 0x80) != 0) {
   \                     ??xxf_56:
   \   000007B0   030081E2           ADD      R0,R1,#+3
   \   000007B4   8076A0E1           LSL      R7,R0,#+13
   \   000007B8   3F0004E2           AND      R0,R4,#0x3F
   \   000007BC   010080E2           ADD      R0,R0,#+1
   \   000007C0   0087A0E1           LSL      R8,R0,#+14
   \   000007C4   800014E3           TST      R4,#0x80
   \   000007C8   0A00000A           BEQ      ??xxf_60
   2614                              e(0, (j1 & 0x3f) * 2 + 1 << 13);
   \   000007CC   0510A0E1           MOV      R1,R5
   \   000007D0   0000A0E3           MOV      R0,#+0
   \   000007D4   ........           BL       e
   2615                              e(1, (j1 & 0x3f) * 2 + 0 << 13);
   \   000007D8   0610A0E1           MOV      R1,R6
   \   000007DC   0100A0E3           MOV      R0,#+1
   \   000007E0   ........           BL       e
   2616                              e(2, (j1 & 0x3f) * 2 + 3 << 13);
   \   000007E4   0710A0E1           MOV      R1,R7
   \   000007E8   0200A0E3           MOV      R0,#+2
   \   000007EC   ........           BL       e
   2617                              e(3, (j1 & 0x3f) * 2 + 2 << 13);
   \   000007F0   0810A0E1           MOV      R1,R8
   \   000007F4   090000EA           B        ??xxf_61
   2618                          } else {
   2619                              e(0, (j1 & 0x3f) * 2 + 0 << 13);
   \                     ??xxf_60:
   \   000007F8   0610A0E1           MOV      R1,R6
   \   000007FC   0000A0E3           MOV      R0,#+0
   \   00000800   ........           BL       e
   2620                              e(1, (j1 & 0x3f) * 2 + 1 << 13);
   \   00000804   0510A0E1           MOV      R1,R5
   \   00000808   0100A0E3           MOV      R0,#+1
   \   0000080C   ........           BL       e
   2621                              e(2, (j1 & 0x3f) * 2 + 2 << 13);
   \   00000810   0810A0E1           MOV      R1,R8
   \   00000814   0200A0E3           MOV      R0,#+2
   \   00000818   ........           BL       e
   2622                              e(3, (j1 & 0x3f) * 2 + 3 << 13);
   \   0000081C   0710A0E1           MOV      R1,R7
   \                     ??xxf_61:
   \   00000820   0300A0E3           MOV      R0,#+3
   \   00000824   ........           BL       e
   2623                          }
   2624                          if((j1 & 0x40) != 0)
   \   00000828   400014E3           TST      R4,#0x40
   \   0000082C   0130A0E3           MOV      R3,#+1
   2625                              avoid4int(0, 0, 1, 1);
   \   00000830   0120A013           MOVNE    R2,#+1
   \   00000834   0010A013           MOVNE    R1,#+0
   \   00000838   8BFFFF1A           BNE      ??xxf_8
   2626                          else
   2627                              avoid4int(0, 1, 0, 1);
   \   0000083C   0020A0E3           MOV      R2,#+0
   \   00000840   0110A0E3           MOV      R1,#+1
   \                     ??xxf_9:
   \   00000844   0200A0E1           MOV      R0,R2
   \                     ??xxf_49:
   \   00000848   ........           BL       avoid4int
   \   0000084C   F083BDE8           POP      {R4-R9,PC}
   2628                          goto label0; //break label0;
   2629          
   2630                      case 32769: 
   2631                          if((j1 & 0x80) != 0) {
   \                     ??xxf_57:
   \   00000850   800014E3           TST      R4,#0x80
   2632                              e(2, (j1 & 0x3f) * 2 + 1 << 13);
   \   00000854   0510A011           MOVNE    R1,R5
   \   00000858   1700001A           BNE      ??xxf_62
   2633                              e(3, (j1 & 0x3f) * 2 + 0 << 13);
   2634                          } else {
   2635                              e(2, (j1 & 0x3f) * 2 + 0 << 13);
   \   0000085C   0610A0E1           MOV      R1,R6
   \   00000860   080000EA           B        ??xxf_63
   2636                              e(3, (j1 & 0x3f) * 2 + 1 << 13);
   2637                          }
   2638                          goto label0; //break label0;
   2639          
   2640                      case 32770: 
   2641                          if((j1 & 0x80) != 0) {
   \                     ??xxf_58:
   \   00000864   800014E3           TST      R4,#0x80
   \   00000868   0C00000A           BEQ      ??xxf_64
   2642                              e(0, (j1 & 0x3f) * 2 + 1 << 13);
   \   0000086C   0510A0E1           MOV      R1,R5
   \   00000870   0000A0E3           MOV      R0,#+0
   \   00000874   ........           BL       e
   2643                              e(1, (j1 & 0x3f) * 2 + 1 << 13);
   \   00000878   0510A0E1           MOV      R1,R5
   \   0000087C   0100A0E3           MOV      R0,#+1
   \   00000880   ........           BL       e
   2644                              e(2, (j1 & 0x3f) * 2 + 1 << 13);
   \   00000884   0510A0E1           MOV      R1,R5
   \                     ??xxf_63:
   \   00000888   0200A0E3           MOV      R0,#+2
   \   0000088C   ........           BL       e
   2645                              e(3, (j1 & 0x3f) * 2 + 1 << 13);
   \   00000890   0510A0E1           MOV      R1,R5
   \   00000894   0300A0E3           MOV      R0,#+3
   \   00000898   ........           BL       e
   \   0000089C   F083BDE8           POP      {R4-R9,PC}
   2646                          } else {
   2647                              e(0, (j1 & 0x3f) * 2 + 0 << 13);
   \                     ??xxf_64:
   \   000008A0   0610A0E1           MOV      R1,R6
   \   000008A4   0000A0E3           MOV      R0,#+0
   \   000008A8   ........           BL       e
   2648                              e(1, (j1 & 0x3f) * 2 + 0 << 13);
   \   000008AC   0610A0E1           MOV      R1,R6
   \   000008B0   0100A0E3           MOV      R0,#+1
   \   000008B4   ........           BL       e
   2649                              e(2, (j1 & 0x3f) * 2 + 0 << 13);
   \   000008B8   0610A0E1           MOV      R1,R6
   \                     ??xxf_62:
   \   000008BC   0200A0E3           MOV      R0,#+2
   \   000008C0   ........           BL       e
   2650                              e(3, (j1 & 0x3f) * 2 + 0 << 13);
   \   000008C4   0610A0E1           MOV      R1,R6
   \   000008C8   0300A0E3           MOV      R0,#+3
   \   000008CC   ........           BL       e
   \   000008D0   F083BDE8           POP      {R4-R9,PC}
   2651                          }
   2652                          goto label0; //break label0;
   2653          
   2654                      case 32771: 
   2655                          break;
   2656                      }
   2657                      if((j1 & 0x80) != 0) {
   \                     ??xxf_59:
   \   000008D4   800014E3           TST      R4,#0x80
   \   000008D8   0400000A           BEQ      ??xxf_65
   2658                          e(2, (j1 & 0x3f) * 2 + 1 << 13);
   \   000008DC   0510A0E1           MOV      R1,R5
   \   000008E0   0200A0E3           MOV      R0,#+2
   \   000008E4   ........           BL       e
   2659                          e(3, (j1 & 0x3f) * 2 + 0 << 13);
   \   000008E8   0610A0E1           MOV      R1,R6
   \   000008EC   030000EA           B        ??xxf_66
   2660                      } else {
   2661                          e(2, (j1 & 0x3f) * 2 + 0 << 13);
   \                     ??xxf_65:
   \   000008F0   0610A0E1           MOV      R1,R6
   \   000008F4   0200A0E3           MOV      R0,#+2
   \   000008F8   ........           BL       e
   2662                          e(3, (j1 & 0x3f) * 2 + 1 << 13);
   \   000008FC   0510A0E1           MOV      R1,R5
   \                     ??xxf_66:
   \   00000900   0300A0E3           MOV      R0,#+3
   \   00000904   ........           BL       e
   2663                      }
   2664                      if((j1 & 0x40) != 0)
   \   00000908   400014E3           TST      R4,#0x40
   \   0000090C   0130A0E3           MOV      R3,#+1
   2665                          avoid4int(0, 0, 1, 1);
   \   00000910   0120A013           MOVNE    R2,#+1
   \   00000914   0710A011           MOVNE    R1,R7
   \   00000918   53FFFF1A           BNE      ??xxf_8
   2666                      else
   2667                          avoid4int(0, 1, 0, 1);
   \   0000091C   0020A0E3           MOV      R2,#+0
   \   00000920   0310A0E1           MOV      R1,R3
   \   00000924   0200A0E1           MOV      R0,R2
   \   00000928   ........           BL       avoid4int
   \                     ??xxf_67:
   \   0000092C   F083BDE8           POP      {R4-R9,PC}       ;; return
   2668                      break;
   2669                  }
   2670          label0:;
   2671              }
   2672          
   2673              static void xxd(int i1, int j1) {
   2674                  switch(w) {
   2675                  case 6: // '\006'
   2676                      switch(i1) {
   2677                      default:
   2678                          break;
   2679          
   2680                      case 17150: 
   2681                          if((j1 & 0x10) != 0)
   2682                              avoid4int(1, 1, 1, 1);
   2683                          else
   2684                              avoid4int(0, 0, 0, 0);
   2685                          break;
   2686          
   2687                      case 17151: 
   2688                          if((j1 & 0x10) != 0)
   2689                              avoid4int(0, 0, 1, 1);
   2690                          else
   2691                              avoid4int(0, 1, 0, 1);
   2692                          break;
   2693          
   2694                      case 17665: 
   2695                          e_boolean_static_fld = false;
   2696                          break;
   2697          
   2698                      case 17666: 
   2699                          I = I & 0xff00 | j1 & 0xff;
   2700                          break;
   2701          
   2702                      case 17667: 
   2703                          I = I & 0xff | j1 << 8;
   2704                          e_boolean_static_fld = true;
   2705                          break;
   2706                      }
   2707                      break;
   2708                  }
   2709              }
   2710             
   2711              

   \                                 In segment CODE, align 4, keep-with-next
   2712              void keyPressed(int i1) {     
   2713              
   2714              if(keyindex<0){
   \                     keyPressed:
   \   00000000   ........           LDR      R1,??DataTable24  ;; j_int_array1d_static_fld
   \   00000004   F04F2DE9           PUSH     {R4-R11,LR}
   \   00000008   782C91E5           LDR      R2,[R1, #+3192]
   \   0000000C   000052E3           CMP      R2,#+0
   \   00000010   7500005A           BPL      ??keyPressed_0
   2715                  if(c_boolean_static_fld) {
   \   00000014   8BECD1E5           LDRB     LR,[R1, #+3211]
   \   00000018   44CA91E5           LDR      R12,[R1, #+2628]
   \   0000001C   3C4991E5           LDR      R4,[R1, #+2364]
   \   00000020   385991E5           LDR      R5,[R1, #+2360]
   \   00000024   346991E5           LDR      R6,[R1, #+2356]
   \   00000028   307991E5           LDR      R7,[R1, #+2352]
   \   0000002C   2C8991E5           LDR      R8,[R1, #+2348]
   \   00000030   289991E5           LDR      R9,[R1, #+2344]
   \   00000034   24A991E5           LDR      R10,[R1, #+2340]
   \   00000038   20B991E5           LDR      R11,[R1, #+2336]
   \   0000003C   0120A0E3           MOV      R2,#+1
   \   00000040   0030A0E3           MOV      R3,#+0
   \   00000044   00005EE3           CMP      LR,#+0
   \   00000048   2F00000A           BEQ      ??keyPressed_1
   2716                      if(i1 == key[0])
   \   0000004C   0B0050E1           CMP      R0,R11
   2717                          k_int_static_fld ^= 0x10;
   \   00000050   10002C02           EOREQ    R0,R12,#0x10
   \   00000054   0200000A           BEQ      ??keyPressed_2
   2718                      else
   2719                      if(i1 == key[1])
   \   00000058   0A0050E1           CMP      R0,R10
   \   0000005C   0200001A           BNE      ??keyPressed_3
   2720                          k_int_static_fld ^= 0x20;
   \   00000060   20002CE2           EOR      R0,R12,#0x20
   \                     ??keyPressed_2:
   \   00000064   440A81E5           STR      R0,[R1, #+2628]
   \   00000068   F08FBDE8           POP      {R4-R11,PC}
   2721                      else
   2722                      if(i1 == key[2])
   \                     ??keyPressed_3:
   \   0000006C   090050E1           CMP      R0,R9
   2723                          k_int_static_fld ^= 0x40;
   \   00000070   40002C02           EOREQ    R0,R12,#0x40
   \   00000074   FAFFFF0A           BEQ      ??keyPressed_2
   2724                      else
   2725                      if(i1 == key[3])
   \   00000078   080050E1           CMP      R0,R8
   2726                          k_int_static_fld ^= 0x80;
   \   0000007C   80002C02           EOREQ    R0,R12,#0x80
   \   00000080   F7FFFF0A           BEQ      ??keyPressed_2
   2727                      else
   2728                      if(i1 == key[4])
   \   00000084   070050E1           CMP      R0,R7
   2729                          k_int_static_fld ^= 1;
   \   00000088   01002C02           EOREQ    R0,R12,#0x1
   \   0000008C   F4FFFF0A           BEQ      ??keyPressed_2
   2730                      else
   2731                      if(i1 == key[5])
   \   00000090   060050E1           CMP      R0,R6
   2732                          k_int_static_fld ^= 2;
   \   00000094   02002C02           EOREQ    R0,R12,#0x2
   \   00000098   F1FFFF0A           BEQ      ??keyPressed_2
   2733                      else
   2734                      if(i1 == key[6])
   \   0000009C   050050E1           CMP      R0,R5
   2735                          k_int_static_fld ^= 8;
   \   000000A0   08002C02           EOREQ    R0,R12,#0x8
   \   000000A4   EEFFFF0A           BEQ      ??keyPressed_2
   2736                      else
   2737                      if(i1 == key[7])
   \   000000A8   040050E1           CMP      R0,R4
   2738                          k_int_static_fld ^= 4;
   \   000000AC   04002C02           EOREQ    R0,R12,#0x4
   \   000000B0   EBFFFF0A           BEQ      ??keyPressed_2
   2739                      else
   2740                      if(i1 == key[8]) {
   \   000000B4   404991E5           LDR      R4,[R1, #+2368]
   \   000000B8   040050E1           CMP      R0,R4
   \   000000BC   0700001A           BNE      ??keyPressed_4
   2741                          k_int_static_fld &= 0xfe;
   \   000000C0   FE000CE2           AND      R0,R12,#0xFE
   \   000000C4   440A81E5           STR      R0,[R1, #+2628]
   2742                          l_boolean_static_fld = !l_boolean_static_fld;
   \   000000C8   8C0CD1E5           LDRB     R0,[R1, #+3212]
   \   000000CC   000050E3           CMP      R0,#+0
   \   000000D0   2800000A           BEQ      ??keyPressed_5
   \   000000D4   0020A0E3           MOV      R2,#+0
   \   000000D8   8C2CC1E5           STRB     R2,[R1, #+3212]
   \   000000DC   F08FBDE8           POP      {R4-R11,PC}
   2743                      } else
   2744                      if(i1 == key[9]) {
   \                     ??keyPressed_4:
   \   000000E0   444991E5           LDR      R4,[R1, #+2372]
   \   000000E4   040050E1           CMP      R0,R4
   \   000000E8   F08FBD18           POPNE    {R4-R11,PC}
   2745                          k_int_static_fld &= 0xfd;
   \   000000EC   FD000CE2           AND      R0,R12,#0xFD
   \   000000F0   440A81E5           STR      R0,[R1, #+2628]
   2746                          j_boolean_static_fld = !j_boolean_static_fld;
   \   000000F4   8D0CD1E5           LDRB     R0,[R1, #+3213]
   \   000000F8   000050E3           CMP      R0,#+0
   \   000000FC   2200000A           BEQ      ??keyPressed_6
   \   00000100   0020A0E3           MOV      R2,#+0
   \   00000104   8D2CC1E5           STRB     R2,[R1, #+3213]
   \   00000108   F08FBDE8           POP      {R4-R11,PC}
   2747                      }
   2748                  } else
   2749                  if(i1 == key[0])
   \                     ??keyPressed_1:
   \   0000010C   0B0050E1           CMP      R0,R11
   2750                      k_int_static_fld |= 0x10;
   \   00000110   10008C03           ORREQ    R0,R12,#0x10
   \   00000114   D2FFFF0A           BEQ      ??keyPressed_2
   2751                  else
   2752                  if(i1 == key[1])
   \   00000118   0A0050E1           CMP      R0,R10
   2753                      k_int_static_fld |= 0x20;
   \   0000011C   20008C03           ORREQ    R0,R12,#0x20
   \   00000120   CFFFFF0A           BEQ      ??keyPressed_2
   2754                  else
   2755                  if(i1 == key[2])
   \   00000124   090050E1           CMP      R0,R9
   2756                      k_int_static_fld |= 0x40;
   \   00000128   40008C03           ORREQ    R0,R12,#0x40
   \   0000012C   CCFFFF0A           BEQ      ??keyPressed_2
   2757                  else
   2758                  if(i1 == key[3])
   \   00000130   080050E1           CMP      R0,R8
   2759                      k_int_static_fld |= 0x80;
   \   00000134   80008C03           ORREQ    R0,R12,#0x80
   \   00000138   C9FFFF0A           BEQ      ??keyPressed_2
   2760                  else
   2761                  if(i1 == key[4])
   \   0000013C   070050E1           CMP      R0,R7
   2762                      k_int_static_fld |= 1;
   \   00000140   01008C03           ORREQ    R0,R12,#0x1
   \   00000144   C6FFFF0A           BEQ      ??keyPressed_2
   2763                  else
   2764                  if(i1 == key[5])
   \   00000148   060050E1           CMP      R0,R6
   2765                      k_int_static_fld |= 2;
   \   0000014C   02008C03           ORREQ    R0,R12,#0x2
   \   00000150   C3FFFF0A           BEQ      ??keyPressed_2
   2766                  else
   2767                  if(i1 == key[6])
   \   00000154   050050E1           CMP      R0,R5
   2768                      k_int_static_fld |= 8;
   \   00000158   08008C03           ORREQ    R0,R12,#0x8
   \   0000015C   C0FFFF0A           BEQ      ??keyPressed_2
   2769                  else
   2770                  if(i1 == key[7])
   \   00000160   040050E1           CMP      R0,R4
   2771                      k_int_static_fld |= 4;
   \   00000164   04008C03           ORREQ    R0,R12,#0x4
   \   00000168   BDFFFF0A           BEQ      ??keyPressed_2
   2772                  else
   2773                  if(i1 == key[8])
   \   0000016C   404991E5           LDR      R4,[R1, #+2368]
   \   00000170   040050E1           CMP      R0,R4
   \   00000174   0100001A           BNE      ??keyPressed_7
   2774                      l_boolean_static_fld = true;
   \                     ??keyPressed_5:
   \   00000178   8C2CC1E5           STRB     R2,[R1, #+3212]
   \   0000017C   F08FBDE8           POP      {R4-R11,PC}
   2775                  else
   2776                  if(i1 == key[9])
   \                     ??keyPressed_7:
   \   00000180   444991E5           LDR      R4,[R1, #+2372]
   \   00000184   040050E1           CMP      R0,R4
   \   00000188   0100001A           BNE      ??keyPressed_8
   2777                      j_boolean_static_fld = true;
   \                     ??keyPressed_6:
   \   0000018C   8D2CC1E5           STRB     R2,[R1, #+3213]
   \   00000190   F08FBDE8           POP      {R4-R11,PC}
   2778                  else
   2779                  if(i1 == key[10]) {
   \                     ??keyPressed_8:
   \   00000194   484991E5           LDR      R4,[R1, #+2376]
   \   00000198   040050E1           CMP      R0,R4
   \   0000019C   0800001A           BNE      ??keyPressed_9
   2780                      long l1 = SystemcurrentTimeMillis();
   2781                      if(l1 - a_long_static_fld < 500L) {
   \   000001A0   540C91E5           LDR      R0,[R1, #+3156]
   2782                          k_int_static_fld = 0;
   2783                          l_boolean_static_fld = j_boolean_static_fld = false;
   2784                      }
   2785                      a_long_static_fld = l1;
   \   000001A4   543C81E5           STR      R3,[R1, #+3156]
   \   000001A8   000060E2           RSB      R0,R0,#+0
   \   000001AC   7D0F50E3           CMP      R0,#+500
   \   000001B0   443A81B5           STRLT    R3,[R1, #+2628]
   \   000001B4   8D3CC1B5           STRBLT   R3,[R1, #+3213]
   \   000001B8   8C3CC1B5           STRBLT   R3,[R1, #+3212]
   2786                      c_boolean_static_fld = true;
   \   000001BC   8B2CC1E5           STRB     R2,[R1, #+3211]
   \   000001C0   F08FBDE8           POP      {R4-R11,PC}
   2787                  } else
   2788                  if(i1 == key[11]) {
   \                     ??keyPressed_9:
   \   000001C4   4C3991E5           LDR      R3,[R1, #+2380]
   \   000001C8   030050E1           CMP      R0,R3
   2789                      z = 0;
   2790                      v_boolean_static_fld = d_boolean_static_fld = true;
   \   000001CC   892CC105           STRBEQ   R2,[R1, #+3209]
   \   000001D0   0300000A           BEQ      ??keyPressed_10
   2791                  } else
   2792                  if(i1 == key[12]) {
   \   000001D4   503991E5           LDR      R3,[R1, #+2384]
   \   000001D8   030050E1           CMP      R0,R3
   \   000001DC   F08FBD18           POPNE    {R4-R11,PC}
   2793                      z = 0;
   2794                      v_boolean_static_fld = o_boolean_static_fld = true;
   \   000001E0   812CC1E5           STRB     R2,[R1, #+3201]
   \                     ??keyPressed_10:
   \   000001E4   872CC1E5           STRB     R2,[R1, #+3207]
   \   000001E8   F08FBDE8           POP      {R4-R11,PC}
   2795                  }
   2796                  if(i1 == key[13]) {
   2797                      //main.d_boolean_static_fld = !main.d_boolean_static_fld;
   2798                      //setFullScreenMode(main.d_boolean_static_fld);
   2799                  }
   2800               }else{
   2801          		key[keyindex] = i1;
   \                     ??keyPressed_0:
   \   000001EC   022181E0           ADD      R2,R1,R2, LSL #+2
   \   000001F0   200982E5           STR      R0,[R2, #+2336]
   2802                  keyindex=-1;
   \   000001F4   0000E0E3           MVN      R0,#+0
   \   000001F8   780C81E5           STR      R0,[R1, #+3192]
   2803                  
   2804               }
   2805             }
   \   000001FC   F08FBDE8           POP      {R4-R11,PC}      ;; return
   2806          

   \                                 In segment CODE, align 4, keep-with-next
   2807          	void keyReleased(int i1) {
   2808                  if(c_boolean_static_fld) {
   \                     keyReleased:
   \   00000000   ........           LDR      R1,??DataTable24  ;; j_int_array1d_static_fld
   \   00000004   0030A0E3           MOV      R3,#+0
   \   00000008   8BCCD1E5           LDRB     R12,[R1, #+3211]
   \   0000000C   442A91E5           LDR      R2,[R1, #+2628]
   \   00000010   00005CE3           CMP      R12,#+0
   \   00000014   0400000A           BEQ      ??keyReleased_0
   2809                      if(i1 == key[10])
   \   00000018   48C991E5           LDR      R12,[R1, #+2376]
   \   0000001C   0C0050E1           CMP      R0,R12
   \   00000020   2A00001A           BNE      ??keyReleased_1
   2810                          c_boolean_static_fld = false;
   \   00000024   8B3CC1E5           STRB     R3,[R1, #+3211]
   \   00000028   280000EA           B        ??keyReleased_1
   2811                  } else
   2812                  if(i1 == key[0])
   \                     ??keyReleased_0:
   \   0000002C   20C991E5           LDR      R12,[R1, #+2336]
   \   00000030   0C0050E1           CMP      R0,R12
   2813                      k_int_static_fld &= 0xef;
   \   00000034   EF200202           ANDEQ    R2,R2,#0xEF
   \   00000038   2400000A           BEQ      ??keyReleased_1
   2814                  else
   2815                  if(i1 == key[1])
   \   0000003C   24C991E5           LDR      R12,[R1, #+2340]
   \   00000040   0C0050E1           CMP      R0,R12
   2816                      k_int_static_fld &= 0xdf;
   \   00000044   DF200202           ANDEQ    R2,R2,#0xDF
   \   00000048   2000000A           BEQ      ??keyReleased_1
   2817                  else
   2818                  if(i1 == key[2])
   \   0000004C   28C991E5           LDR      R12,[R1, #+2344]
   \   00000050   0C0050E1           CMP      R0,R12
   2819                      k_int_static_fld &= 0xbf;
   \   00000054   BF200202           ANDEQ    R2,R2,#0xBF
   \   00000058   1C00000A           BEQ      ??keyReleased_1
   2820                  else
   2821                  if(i1 == key[3])
   \   0000005C   2CC991E5           LDR      R12,[R1, #+2348]
   \   00000060   0C0050E1           CMP      R0,R12
   2822                      k_int_static_fld &= 0x7f;
   \   00000064   7F200202           ANDEQ    R2,R2,#0x7F
   \   00000068   1800000A           BEQ      ??keyReleased_1
   2823                  else
   2824                  if(i1 == key[4])
   \   0000006C   30C991E5           LDR      R12,[R1, #+2352]
   \   00000070   0C0050E1           CMP      R0,R12
   2825                      k_int_static_fld &= 0xfe;
   \   00000074   FE200202           ANDEQ    R2,R2,#0xFE
   \   00000078   1400000A           BEQ      ??keyReleased_1
   2826                  else
   2827                  if(i1 == key[5])
   \   0000007C   34C991E5           LDR      R12,[R1, #+2356]
   \   00000080   0C0050E1           CMP      R0,R12
   2828                      k_int_static_fld &= 0xfd;
   \   00000084   FD200202           ANDEQ    R2,R2,#0xFD
   \   00000088   1000000A           BEQ      ??keyReleased_1
   2829                  else
   2830                  if(i1 == key[6])
   \   0000008C   38C991E5           LDR      R12,[R1, #+2360]
   \   00000090   0C0050E1           CMP      R0,R12
   2831                      k_int_static_fld &= 0xf7;
   \   00000094   F7200202           ANDEQ    R2,R2,#0xF7
   \   00000098   0C00000A           BEQ      ??keyReleased_1
   2832                  else
   2833                  if(i1 == key[7])
   \   0000009C   3CC991E5           LDR      R12,[R1, #+2364]
   \   000000A0   0C0050E1           CMP      R0,R12
   2834                      k_int_static_fld &= 0xfb;
   \   000000A4   FB200202           ANDEQ    R2,R2,#0xFB
   \   000000A8   0800000A           BEQ      ??keyReleased_1
   2835                  else
   2836                  if(i1 == key[8]) {
   \   000000AC   40C991E5           LDR      R12,[R1, #+2368]
   \   000000B0   0C0050E1           CMP      R0,R12
   2837                      k_int_static_fld &= 0xfe;
   \   000000B4   FE200202           ANDEQ    R2,R2,#0xFE
   2838                      l_boolean_static_fld = false;
   \   000000B8   8C3CC105           STRBEQ   R3,[R1, #+3212]
   \   000000BC   0300000A           BEQ      ??keyReleased_1
   2839                  } else
   2840                  if(i1 == key[9]) {
   \   000000C0   44C991E5           LDR      R12,[R1, #+2372]
   \   000000C4   0C0050E1           CMP      R0,R12
   2841                      k_int_static_fld &= 0xfd;
   \   000000C8   FD200202           ANDEQ    R2,R2,#0xFD
   2842                      j_boolean_static_fld = false;
   \   000000CC   8D3CC105           STRBEQ   R3,[R1, #+3213]
   \                     ??keyReleased_1:
   \   000000D0   442A81E5           STR      R2,[R1, #+2628]
   2843                  }
   2844              }
   \   000000D4   1EFF2FE1           BX       LR               ;; return
   2845          

   \                                 In segment CODE, align 4, keep-with-next
   2846              static void j() {
   2847                  if(b_int_static_fld < 0)
   \                     j:
   \   00000000   ........           LDR      R0,??DataTable46  ;; j_int_array1d_static_fld
   \   00000004   F04F2DE9           PUSH     {R4-R11,LR}
   \   00000008   74D04DE2           SUB      SP,SP,#+116
   \   0000000C   E01990E5           LDR      R1,[R0, #+2528]
   \   00000010   FF20A0E3           MOV      R2,#+255
   \   00000014   0030A0E3           MOV      R3,#+0
   \   00000018   000051E3           CMP      R1,#+0
   2848                      b_int_static_fld = 0;
   \   0000001C   E0398045           STRMI    R3,[R0, #+2528]
   \   00000020   0100004A           BMI      ??j_1
   2849                  if(b_int_static_fld > 255)
   \   00000024   400F51E3           CMP      R1,#+256
   2850                      b_int_static_fld = 255;
   \   00000028   E02980A5           STRGE    R2,[R0, #+2528]
   2851                  if(L < 0)
   \                     ??j_1:
   \   0000002C   101A90E5           LDR      R1,[R0, #+2576]
   \   00000030   000051E3           CMP      R1,#+0
   2852                      L = 0;
   \   00000034   103A8045           STRMI    R3,[R0, #+2576]
   \   00000038   0100004A           BMI      ??j_2
   2853                  if(L > 255)
   \   0000003C   400F51E3           CMP      R1,#+256
   2854                      L = 255;
   \   00000040   102A80A5           STRGE    R2,[R0, #+2576]
   2855                  int i1 = 332 + ((b_int_static_fld - 128) * 40) / 256;
   \                     ??j_2:
   \   00000044   E01990E5           LDR      R1,[R0, #+2528]
   \   00000048   7F20E0E3           MVN      R2,#+127
   \   0000004C   011082E0           ADD      R1,R2,R1
   \   00000050   2820A0E3           MOV      R2,#+40
   \   00000054   920101E0           MUL      R1,R2,R1
   2856                  int ai[] = {
   2857                      0, 240, 210, 180, 150, 120, 90, 60, 30, 0, 
   2858                      330, 300, 270, 0, 0, 0
   2859                  };
   \   00000058   80259FE5           LDR      R2,??j_3         ;; `?<Constant {0, 240, 210, 180, 150, 120, 90, 60`
   \   0000005C   C133A0E1           ASR      R3,R1,#+7
   \   00000060   231C81E0           ADD      R1,R1,R3, LSR #+24
   \   00000064   533FA0E3           MOV      R3,#+332
   \   00000068   411483E0           ADD      R1,R3,R1, ASR #+8
   \   0000006C   00108DE5           STR      R1,[SP, #+0]
   \   00000070   F807B2E8           LDM      R2!,{R3-R10}
   \   00000074   34108DE2           ADD      R1,SP,#+52
   \   00000078   F807A1E8           STM      R1!,{R3-R10}
   \   0000007C   F80792E8           LDM      R2,{R3-R10}
   2860                  int ai1[] = {
   2861                      128, 192, 256, 256
   2862                  };
   \   00000080   5C259FE5           LDR      R2,??j_3+0x4     ;; `?<Constant {128, 192, 256, 256}>`
   \   00000084   F80781E8           STM      R1,{R3-R10}
   \   00000088   780092E8           LDM      R2,{R3-R6}
   2863                  int ai2[] = {
   2864                      74, 115, 187, 230
   2865                  };
   \   0000008C   54259FE5           LDR      R2,??j_3+0x8     ;; `?<Constant {74, 115, 187, 230}>`
   \   00000090   04108DE2           ADD      R1,SP,#+4
   \   00000094   780081E8           STM      R1,{R3-R6}
   \   00000098   780092E8           LDM      R2,{R3-R6}
   2866                  int ai3[] = {
   2867                      0, 61, 120, 197
   2868                  };
   \   0000009C   48259FE5           LDR      R2,??j_3+0xC     ;; `?<Constant {0, 61, 120, 197}>`
   \   000000A0   14108DE2           ADD      R1,SP,#+20
   \   000000A4   780081E8           STM      R1,{R3-R6}
   \   000000A8   780092E8           LDM      R2,{R3-R6}
   \   000000AC   24108DE2           ADD      R1,SP,#+36
   \   000000B0   780081E8           STM      R1,{R3-R6}
   2869                  for(int j1 = 0; j1 < 4; j1++) {
   \   000000B4   0010A0E3           MOV      R1,#+0
   2870                      for(int l1 = 0; l1 < 16; l1++) {
   \                     ??j_4:
   \   000000B8   0020A0E3           MOV      R2,#+0
   2871                          int i2 = 0;
   \                     ??j_5:
   \   000000BC   0030A0E3           MOV      R3,#+0
   2872                          int j2 = 0;
   \   000000C0   00C0A0E3           MOV      R12,#+0
   2873                          if(l1 == 0)
   \   000000C4   000052E3           CMP      R2,#+0
   2874                              j2 = ai1[j1];
   \   000000C8   04408D02           ADDEQ    R4,SP,#+4
   \   000000CC   0700000A           BEQ      ??j_6
   2875                          else
   2876                          if(l1 == 13)
   \   000000D0   0D0052E3           CMP      R2,#+13
   2877                              j2 = ai3[j1];
   \   000000D4   24408D02           ADDEQ    R4,SP,#+36
   \   000000D8   0400000A           BEQ      ??j_6
   2878                          else
   2879                          if(l1 != 14 && l1 != 15) {
   \   000000DC   0E0052E3           CMP      R2,#+14
   \   000000E0   0F005213           CMPNE    R2,#+15
   \   000000E4   0200000A           BEQ      ??j_7
   2880                              i2 = L;
   \   000000E8   103A90E5           LDR      R3,[R0, #+2576]
   2881                              j2 = ai2[j1];
   \   000000EC   14408DE2           ADD      R4,SP,#+20
   \                     ??j_6:
   \   000000F0   01C194E7           LDR      R12,[R4, +R1, LSL #+2]
   2882                          }
   2883                          int k2 = (ai[l1] + i1) % 360;
   \                     ??j_7:
   \   000000F4   00509DE5           LDR      R5,[SP, #+0]
   \   000000F8   34408DE2           ADD      R4,SP,#+52
   \   000000FC   024194E7           LDR      R4,[R4, +R2, LSL #+2]
   \   00000100   044085E0           ADD      R4,R5,R4
   \   00000104   E4549FE5           LDR      R5,??j_3+0x10    ;; 0xffffffffb60b60b7
   \   00000108   9465C7E0           SMULL    R6,R7,R4,R5
   \   0000010C   5A6FA0E3           MOV      R6,#+360
   \   00000110   047087E0           ADD      R7,R7,R4
   \   00000114   4774A0E1           ASR      R7,R7,#+8
   \   00000118   A47F87E0           ADD      R7,R7,R4, LSR #+31
   \   0000011C   960707E0           MUL      R7,R6,R7
   \   00000120   074044E0           SUB      R4,R4,R7
   \   00000124   C8749FE5           LDR      R7,??j_3+0x14    ;; a_short_array1d_static_fld
   \   00000128   5A0054E3           CMP      R4,#+90
   2884                          int l2 = j2 + aint2int(i2, k2);
   \   0000012C   845087B0           ADDLT    R5,R7,R4, LSL #+1
   \   00000130   B050D5B1           LDRHLT   R5,[R5, #+0]
   \   00000134   110000BA           BLT      ??j_8
   \   00000138   006064E2           RSB      R6,R4,#+0
   \   0000013C   866087E0           ADD      R6,R7,R6, LSL #+1
   \   00000140   B40054E3           CMP      R4,#+180
   \   00000144   B45086B2           ADDLT    R5,R6,#+180
   \   00000148   B45BD5B1           LDRHLT   R5,[R5, #+180]
   \   0000014C   0B0000BA           BLT      ??j_8
   \   00000150   0E50A0E3           MOV      R5,#+14
   \   00000154   405F85E3           ORR      R5,R5,#0x100
   \   00000158   050054E1           CMP      R4,R5
   \   0000015C   040000AA           BGE      ??j_9
   \   00000160   1B50E0E3           MVN      R5,#+27
   \   00000164   805FC5E3           BIC      R5,R5,#0x200
   \   00000168   846087E0           ADD      R6,R7,R4, LSL #+1
   \   0000016C   065085E0           ADD      R5,R5,R6
   \   00000170   000000EA           B        ??j_10
   \                     ??j_9:
   \   00000174   875F86E2           ADD      R5,R6,#+540
   \                     ??j_10:
   \   00000178   B45BD5E1           LDRH     R5,[R5, #+180]
   \   0000017C   005065E2           RSB      R5,R5,#+0
   \                     ??j_8:
   \   00000180   70649FE5           LDR      R6,??j_3+0x18    ;; 0x10624dd3
   \   00000184   930505E0           MUL      R5,R3,R5
   2885                          int i3 = j2 - (aint2int(i2, k2) * 27 + xxb(i2, k2) * 10) / 53;
   \   00000188   5A0054E3           CMP      R4,#+90
   \   0000018C   9685C9E0           SMULL    R8,R9,R6,R5
   \   00000190   0460A0E1           MOV      R6,R4
   \   00000194   4993A0E1           ASR      R9,R9,#+6
   \   00000198   A55F89E0           ADD      R5,R9,R5, LSR #+31
   \   0000019C   0C5085E0           ADD      R5,R5,R12
   \   000001A0   006066E2           RSB      R6,R6,#+0
   \   000001A4   866087E0           ADD      R6,R7,R6, LSL #+1
   \   000001A8   B4ABD6B1           LDRHLT   R10,[R6, #+180]
   \   000001AC   847087E0           ADD      R7,R7,R4, LSL #+1
   \   000001B0   B080D7B1           LDRHLT   R8,[R7, #+0]
   \   000001B4   190000BA           BLT      ??j_11
   \   000001B8   B40054E3           CMP      R4,#+180
   \   000001BC   050000AA           BGE      ??j_12
   \   000001C0   B48086E2           ADD      R8,R6,#+180
   \   000001C4   B48BD8E1           LDRH     R8,[R8, #+180]
   \   000001C8   B390E0E3           MVN      R9,#+179
   \   000001CC   B79099E1           LDRH     R9,[R9, +R7]
   \                     ??j_13:
   \   000001D0   00A069E2           RSB      R10,R9,#+0
   \   000001D4   110000EA           B        ??j_11
   \                     ??j_12:
   \   000001D8   0E80A0E3           MOV      R8,#+14
   \   000001DC   408F88E3           ORR      R8,R8,#0x100
   \   000001E0   080054E1           CMP      R4,R8
   \   000001E4   070000AA           BGE      ??j_14
   \   000001E8   1B80E0E3           MVN      R8,#+27
   \   000001EC   808FC8E3           BIC      R8,R8,#0x200
   \   000001F0   078088E0           ADD      R8,R8,R7
   \   000001F4   B48BD8E1           LDRH     R8,[R8, #+180]
   \   000001F8   879F86E2           ADD      R9,R6,#+540
   \   000001FC   B090D9E1           LDRH     R9,[R9, #+0]
   \   00000200   008068E2           RSB      R8,R8,#+0
   \   00000204   F1FFFFEA           B        ??j_13
   \                     ??j_14:
   \   00000208   878F86E2           ADD      R8,R6,#+540
   \   0000020C   B48BD8E1           LDRH     R8,[R8, #+180]
   \   00000210   1B90E0E3           MVN      R9,#+27
   \   00000214   809FC9E3           BIC      R9,R9,#0x200
   \   00000218   B7A099E1           LDRH     R10,[R9, +R7]
   \   0000021C   008068E2           RSB      R8,R8,#+0
   \                     ??j_11:
   \   00000220   D0939FE5           LDR      R9,??j_3+0x18    ;; 0x10624dd3
   \   00000224   930808E0           MUL      R8,R3,R8
   2886                          int j3 = j2 - xxb(i2, k2);
   \   00000228   5A0054E3           CMP      R4,#+90
   \   0000022C   99B8CEE0           SMULL    R11,LR,R9,R8
   \   00000230   4EE3A0E1           ASR      LR,LR,#+6
   \   00000234   A89F8EE0           ADD      R9,LR,R8, LSR #+31
   \   00000238   00022DE9           PUSH     {R9}
   \   0000023C   1B80A0E3           MOV      R8,#+27
   \   00000240   930A09E0           MUL      R9,R3,R10
   \   00000244   ACA39FE5           LDR      R10,??j_3+0x18   ;; 0x10624dd3
   \   00000248   9AB9CEE0           SMULL    R11,LR,R10,R9
   \   0000024C   0AB0A0E3           MOV      R11,#+10
   \   00000250   4EE3A0E1           ASR      LR,LR,#+6
   \   00000254   A99F8EE0           ADD      R9,LR,R9, LSR #+31
   \   00000258   9B090AE0           MUL      R10,R11,R9
   \   0000025C   0002BDE8           POP      {R9}
   \   00000260   B44BD6B1           LDRHLT   R4,[R6, #+180]
   \   00000264   98A929E0           MLA      R9,R8,R9,R10
   \   00000268   8C839FE5           LDR      R8,??j_3+0x1C    ;; 0x4d4873ed
   \   0000026C   98A9CBE0           SMULL    R10,R11,R8,R9
   \   00000270   4BB2A0E1           ASR      R11,R11,#+4
   \   00000274   A98F8BE0           ADD      R8,R11,R9, LSR #+31
   \   00000278   08804CE0           SUB      R8,R12,R8
   \   0000027C   0E0000BA           BLT      ??j_15
   \   00000280   B40054E3           CMP      R4,#+180
   \   00000284   030000AA           BGE      ??j_16
   \   00000288   B340E0E3           MVN      R4,#+179
   \   0000028C   B74094E1           LDRH     R4,[R4, +R7]
   \                     ??j_17:
   \   00000290   004064E2           RSB      R4,R4,#+0
   \   00000294   080000EA           B        ??j_15
   \                     ??j_16:
   \   00000298   0E90A0E3           MOV      R9,#+14
   \   0000029C   409F89E3           ORR      R9,R9,#0x100
   \   000002A0   090054E1           CMP      R4,R9
   \   000002A4   874F86B2           ADDLT    R4,R6,#+540
   \   000002A8   B040D4B1           LDRHLT   R4,[R4, #+0]
   \   000002AC   F7FFFFBA           BLT      ??j_17
   \   000002B0   1B40E0E3           MVN      R4,#+27
   \   000002B4   804FC4E3           BIC      R4,R4,#0x200
   \   000002B8   B74094E1           LDRH     R4,[R4, +R7]
   \                     ??j_15:
   \   000002BC   930404E0           MUL      R4,R3,R4
   \   000002C0   30339FE5           LDR      R3,??j_3+0x18    ;; 0x10624dd3
   \   000002C4   9364C7E0           SMULL    R6,R7,R3,R4
   \   000002C8   4773A0E1           ASR      R7,R7,#+6
   \   000002CC   A43F87E0           ADD      R3,R7,R4, LSR #+31
   2887                          if((R & 0xe0) != 0)
   \   000002D0   084A90E5           LDR      R4,[R0, #+2568]
   \   000002D4   03304CE0           SUB      R3,R12,R3
   \   000002D8   E00014E3           TST      R4,#0xE0
   \   000002DC   9700000A           BEQ      ??j_18
   2888                              switch(R & 0xe0) {
   \   000002E0   E04004E2           AND      R4,R4,#0xE0
   \   000002E4   204044E2           SUB      R4,R4,#+32
   \   000002E8   C00054E3           CMP      R4,#+192
   \   000002EC   9300008A           BHI      ??j_18
   \   000002F0   016F8FE2           ADR      R6,??j_0
   \   000002F4   0460D6E7           LDRB     R6,[R6, R4]
   \   000002F8   06F18FE0           ADD      PC,PC,R6, LSL #+2
   \                     ??j_0:
   \   000002FC   30909090           DC8      +48,+144,+144,+144
   \   00000300   90909090           DC8      +144,+144,+144,+144
   \   00000304   90909090           DC8      +144,+144,+144,+144
   \   00000308   90909090           DC8      +144,+144,+144,+144
   \   0000030C   90909090           DC8      +144,+144,+144,+144
   \   00000310   90909090           DC8      +144,+144,+144,+144
   \   00000314   90909090           DC8      +144,+144,+144,+144
   \   00000318   90909090           DC8      +144,+144,+144,+144
   \   0000031C   37909090           DC8      +55,+144,+144,+144
   \   00000320   90909090           DC8      +144,+144,+144,+144
   \   00000324   90909090           DC8      +144,+144,+144,+144
   \   00000328   90909090           DC8      +144,+144,+144,+144
   \   0000032C   90909090           DC8      +144,+144,+144,+144
   \   00000330   90909090           DC8      +144,+144,+144,+144
   \   00000334   90909090           DC8      +144,+144,+144,+144
   \   00000338   90909090           DC8      +144,+144,+144,+144
   \   0000033C   42909090           DC8      +66,+144,+144,+144
   \   00000340   90909090           DC8      +144,+144,+144,+144
   \   00000344   90909090           DC8      +144,+144,+144,+144
   \   00000348   90909090           DC8      +144,+144,+144,+144
   \   0000034C   90909090           DC8      +144,+144,+144,+144
   \   00000350   90909090           DC8      +144,+144,+144,+144
   \   00000354   90909090           DC8      +144,+144,+144,+144
   \   00000358   90909090           DC8      +144,+144,+144,+144
   \   0000035C   52909090           DC8      +82,+144,+144,+144
   \   00000360   90909090           DC8      +144,+144,+144,+144
   \   00000364   90909090           DC8      +144,+144,+144,+144
   \   00000368   90909090           DC8      +144,+144,+144,+144
   \   0000036C   90909090           DC8      +144,+144,+144,+144
   \   00000370   90909090           DC8      +144,+144,+144,+144
   \   00000374   90909090           DC8      +144,+144,+144,+144
   \   00000378   90909090           DC8      +144,+144,+144,+144
   \   0000037C   5E909090           DC8      +94,+144,+144,+144
   \   00000380   90909090           DC8      +144,+144,+144,+144
   \   00000384   90909090           DC8      +144,+144,+144,+144
   \   00000388   90909090           DC8      +144,+144,+144,+144
   \   0000038C   90909090           DC8      +144,+144,+144,+144
   \   00000390   90909090           DC8      +144,+144,+144,+144
   \   00000394   90909090           DC8      +144,+144,+144,+144
   \   00000398   90909090           DC8      +144,+144,+144,+144
   \   0000039C   6E909090           DC8      +110,+144,+144,+144
   \   000003A0   90909090           DC8      +144,+144,+144,+144
   \   000003A4   90909090           DC8      +144,+144,+144,+144
   \   000003A8   90909090           DC8      +144,+144,+144,+144
   \   000003AC   90909090           DC8      +144,+144,+144,+144
   \   000003B0   90909090           DC8      +144,+144,+144,+144
   \   000003B4   90909090           DC8      +144,+144,+144,+144
   \   000003B8   90909090           DC8      +144,+144,+144,+144
   \   000003BC   7E000000           DC8      +126,+0,+0,+0
   2889                              case 32: // ' '
   2890                                  i3 = (i3 * 8) / 10;
   \                     ??j_19:
   \   000003C0   ........           LDR      R6,??DataTable33  ;; 0x66666667
   \   000003C4   8841A0E1           LSL      R4,R8,#+3
   \   000003C8   9674C8E0           SMULL    R7,R8,R6,R4
   \   000003CC   4881A0E1           ASR      R8,R8,#+2
   \   000003D0   A48F88E0           ADD      R8,R8,R4, LSR #+31
   2891                                  j3 = (j3 * 73) / 100;
   \   000003D4   4940A0E3           MOV      R4,#+73
   \   000003D8   530000EA           B        ??j_20
   2892                                  break;
   2893          
   2894                              case 64: // '@'
   2895                                  l2 = (l2 * 73) / 100;
   \                     ??j_21:
   \   000003DC   4940A0E3           MOV      R4,#+73
   \   000003E0   940505E0           MUL      R5,R4,R5
   \   000003E4   ........           LDR      R4,??DataTable42  ;; 0x51eb851f
   2896                                  j3 = (j3 * 7) / 10;
   \   000003E8   833163E0           RSB      R3,R3,R3, LSL #+3
   \   000003EC   9465C7E0           SMULL    R6,R7,R4,R5
   \   000003F0   ........           LDR      R4,??DataTable33  ;; 0x66666667
   \   000003F4   C772A0E1           ASR      R7,R7,#+5
   \   000003F8   A55F87E0           ADD      R5,R7,R5, LSR #+31
   \   000003FC   9463C7E0           SMULL    R6,R7,R4,R3
   \   00000400   4771A0E1           ASR      R7,R7,#+2
   \   00000404   4C0000EA           B        ??j_22
   2897                                  break;
   2898          
   2899                              case 96: // '`'
   2900                                  l2 = (l2 * 76) / 100;
   \                     ??j_23:
   \   00000408   4C40A0E3           MOV      R4,#+76
   \   0000040C   940505E0           MUL      R5,R4,R5
   \   00000410   ........           LDR      R4,??DataTable42  ;; 0x51eb851f
   \   00000414   9465C7E0           SMULL    R6,R7,R4,R5
   2901                                  i3 = (i3 * 78) / 100;
   \   00000418   4E40A0E3           MOV      R4,#+78
   \   0000041C   940806E0           MUL      R6,R4,R8
   \   00000420   ........           LDR      R4,??DataTable42  ;; 0x51eb851f
   \   00000424   C772A0E1           ASR      R7,R7,#+5
   \   00000428   A55F87E0           ADD      R5,R7,R5, LSR #+31
   \   0000042C   9476C8E0           SMULL    R7,R8,R4,R6
   2902                                  j3 = (j3 * 58) / 100;
   \   00000430   3A40A0E3           MOV      R4,#+58
   \   00000434   940303E0           MUL      R3,R4,R3
   \   00000438   ........           LDR      R4,??DataTable42  ;; 0x51eb851f
   \   0000043C   C882A0E1           ASR      R8,R8,#+5
   \   00000440   A68F88E0           ADD      R8,R8,R6, LSR #+31
   \   00000444   3A0000EA           B        ??j_24
   2903                                  break;
   2904          
   2905                              case 128: 
   2906                                  l2 = (l2 * 86) / 100;
   \                     ??j_25:
   \   00000448   5640A0E3           MOV      R4,#+86
   \   0000044C   940505E0           MUL      R5,R4,R5
   \   00000450   ........           LDR      R4,??DataTable42  ;; 0x51eb851f
   \   00000454   9465C7E0           SMULL    R6,R7,R4,R5
   2907                                  i3 = (i3 * 8) / 10;
   \   00000458   ........           LDR      R6,??DataTable33  ;; 0x66666667
   \   0000045C   C772A0E1           ASR      R7,R7,#+5
   \   00000460   A55F87E0           ADD      R5,R7,R5, LSR #+31
   \   00000464   8841A0E1           LSL      R4,R8,#+3
   \   00000468   9674C8E0           SMULL    R7,R8,R6,R4
   \   0000046C   4881A0E1           ASR      R8,R8,#+2
   \   00000470   A48F88E0           ADD      R8,R8,R4, LSR #+31
   \   00000474   310000EA           B        ??j_18
   2908                                  break;
   2909          
   2910                              case 160: 
   2911                                  l2 = (l2 * 83) / 100;
   \                     ??j_26:
   \   00000478   5340A0E3           MOV      R4,#+83
   \   0000047C   940505E0           MUL      R5,R4,R5
   \   00000480   ........           LDR      R4,??DataTable42  ;; 0x51eb851f
   \   00000484   9465C7E0           SMULL    R6,R7,R4,R5
   2912                                  i3 = (i3 * 68) / 100;
   \   00000488   4440A0E3           MOV      R4,#+68
   \   0000048C   940806E0           MUL      R6,R4,R8
   \   00000490   ........           LDR      R4,??DataTable42  ;; 0x51eb851f
   \   00000494   C772A0E1           ASR      R7,R7,#+5
   \   00000498   A55F87E0           ADD      R5,R7,R5, LSR #+31
   \   0000049C   9476C8E0           SMULL    R7,R8,R4,R6
   2913                                  j3 = (j3 * 85) / 100;
   \   000004A0   5540A0E3           MOV      R4,#+85
   \   000004A4   940303E0           MUL      R3,R4,R3
   \   000004A8   ........           LDR      R4,??DataTable42  ;; 0x51eb851f
   \   000004AC   C882A0E1           ASR      R8,R8,#+5
   \   000004B0   A68F88E0           ADD      R8,R8,R6, LSR #+31
   \   000004B4   1E0000EA           B        ??j_24
   2914                                  break;
   2915          
   2916                              case 192: 
   2917                                  l2 = (l2 * 67) / 100;
   \                     ??j_27:
   \   000004B8   4340A0E3           MOV      R4,#+67
   \   000004BC   940505E0           MUL      R5,R4,R5
   \   000004C0   ........           LDR      R4,??DataTable42  ;; 0x51eb851f
   \   000004C4   9465C7E0           SMULL    R6,R7,R4,R5
   2918                                  i3 = (i3 * 77) / 100;
   \   000004C8   4D40A0E3           MOV      R4,#+77
   \   000004CC   940806E0           MUL      R6,R4,R8
   \   000004D0   ........           LDR      R4,??DataTable42  ;; 0x51eb851f
   \   000004D4   C772A0E1           ASR      R7,R7,#+5
   \   000004D8   A55F87E0           ADD      R5,R7,R5, LSR #+31
   \   000004DC   9476C8E0           SMULL    R7,R8,R4,R6
   2919                                  j3 = (j3 * 83) / 100;
   \   000004E0   5340A0E3           MOV      R4,#+83
   \   000004E4   940303E0           MUL      R3,R4,R3
   \   000004E8   ........           LDR      R4,??DataTable42  ;; 0x51eb851f
   \   000004EC   C882A0E1           ASR      R8,R8,#+5
   \   000004F0   A68F88E0           ADD      R8,R8,R6, LSR #+31
   \   000004F4   0E0000EA           B        ??j_24
   2920                                  break;
   2921          
   2922                              case 224: 
   2923                                  l2 = (l2 * 68) / 100;
   \                     ??j_28:
   \   000004F8   4440A0E3           MOV      R4,#+68
   \   000004FC   940505E0           MUL      R5,R4,R5
   \   00000500   ........           LDR      R4,??DataTable42  ;; 0x51eb851f
   \   00000504   9465C7E0           SMULL    R6,R7,R4,R5
   2924                                  i3 = (i3 * 68) / 100;
   \   00000508   4440A0E3           MOV      R4,#+68
   \   0000050C   940806E0           MUL      R6,R4,R8
   \   00000510   ........           LDR      R4,??DataTable42  ;; 0x51eb851f
   \   00000514   C772A0E1           ASR      R7,R7,#+5
   \   00000518   A55F87E0           ADD      R5,R7,R5, LSR #+31
   \   0000051C   9476C8E0           SMULL    R7,R8,R4,R6
   2925                                  j3 = (j3 * 68) / 100;
   \   00000520   4440A0E3           MOV      R4,#+68
   \   00000524   C882A0E1           ASR      R8,R8,#+5
   \   00000528   A68F88E0           ADD      R8,R8,R6, LSR #+31
   \                     ??j_20:
   \   0000052C   940303E0           MUL      R3,R4,R3
   \   00000530   ........           LDR      R4,??DataTable42  ;; 0x51eb851f
   \                     ??j_24:
   \   00000534   9463C7E0           SMULL    R6,R7,R4,R3
   \   00000538   C772A0E1           ASR      R7,R7,#+5
   \                     ??j_22:
   \   0000053C   A33F87E0           ADD      R3,R7,R3, LSR #+31
   2926                                  break;
   2927                              }
   2928                          if(l2 > 255)
   \                     ??j_18:
   \   00000540   400F55E3           CMP      R5,#+256
   2929                              l2 = 255;
   \   00000544   FF50A0A3           MOVGE    R5,#+255
   2930                          if(i3 > 255)
   \   00000548   400F58E3           CMP      R8,#+256
   2931                              i3 = 255;
   \   0000054C   FF80A0A3           MOVGE    R8,#+255
   2932                          if(j3 > 255)
   \   00000550   400F53E3           CMP      R3,#+256
   2933                              j3 = 255;
   \   00000554   FF30A0A3           MOVGE    R3,#+255
   2934                          if(l2 < 0)
   \   00000558   000055E3           CMP      R5,#+0
   2935                              l2 = 0;
   \   0000055C   0050A043           MOVMI    R5,#+0
   2936                          if(i3 < 0)
   \   00000560   000058E3           CMP      R8,#+0
   2937                              i3 = 0;
   \   00000564   0080A043           MOVMI    R8,#+0
   2938                          if(j3 < 0)
   \   00000568   000053E3           CMP      R3,#+0
   2939                              j3 = 0;
   \   0000056C   0030A043           MOVMI    R3,#+0
   2940                          int k3 = (j1 << 4) + l1;
   2941                          g_int_array1d_static_fld[k3] = (l2 & 0xf8)<<8 | (i3 & 0xfc)<<3 | (j3 & 0xf8)>>3;
   \   00000570   014282E0           ADD      R4,R2,R1, LSL #+4
   \   00000574   844080E0           ADD      R4,R0,R4, LSL #+1
   \   00000578   F85005E2           AND      R5,R5,#0xF8
   \   0000057C   FC6008E2           AND      R6,R8,#0xFC
   \   00000580   8661A0E1           LSL      R6,R6,#+3
   \   00000584   055486E1           ORR      R5,R6,R5, LSL #+8
   \   00000588   033CA0E1           LSL      R3,R3,#+24
   \   0000058C   A33DA0E1           LSR      R3,R3,#+27
   \   00000590   053083E1           ORR      R3,R3,R5
   \   00000594   B034C4E1           STRH     R3,[R4, #+64]
   2942                            //l2 << 16 | i3 << 8 | j3;
   2943                      }
   \   00000598   012082E2           ADD      R2,R2,#+1
   \   0000059C   100052E3           CMP      R2,#+16
   \   000005A0   C5FEFFBA           BLT      ??j_5
   2944          
   2945                  }
   \   000005A4   011081E2           ADD      R1,R1,#+1
   \   000005A8   040051E3           CMP      R1,#+4
   \   000005AC   C1FEFFBA           BLT      ??j_4
   2946          
   2947                  for(int k1 = 0; k1 < 32; k1++)
   \   000005B0   0010A0E3           MOV      R1,#+0
   2948                      j_int_array1d_static_fld[k1] = g_int_array1d_static_fld[e_int_array1d_static_fld[k1]] | (k1 & 3) << 24;
   \                     ??j_29:
   \   000005B4   013180E0           ADD      R3,R0,R1, LSL #+2
   \   000005B8   843A93E5           LDR      R3,[R3, #+2692]
   \   000005BC   812080E0           ADD      R2,R0,R1, LSL #+1
   \   000005C0   833080E0           ADD      R3,R0,R3, LSL #+1
   \   000005C4   B034D3E1           LDRH     R3,[R3, #+64]
   \   000005C8   011081E2           ADD      R1,R1,#+1
   \   000005CC   200051E3           CMP      R1,#+32
   \   000005D0   B030C2E1           STRH     R3,[R2, #+0]
   \   000005D4   F6FFFFBA           BLT      ??j_29
   2949          
   2950              }
   \   000005D8   74D08DE2           ADD      SP,SP,#+116      ;; stack cleaning
   \   000005DC   F08FBDE8           POP      {R4-R11,PC}      ;; return
   \                     ??j_3:
   \   000005E0   ........           DC32     `?<Constant {0, 240, 210, 180, 150, 120, 90, 60`
   \   000005E4   ........           DC32     `?<Constant {128, 192, 256, 256}>`
   \   000005E8   ........           DC32     `?<Constant {74, 115, 187, 230}>`
   \   000005EC   ........           DC32     `?<Constant {0, 61, 120, 197}>`
   \   000005F0   B7600BB6           DC32     0xffffffffb60b60b7
   \   000005F4   ........           DC32     a_short_array1d_static_fld
   \   000005F8   D34D6210           DC32     0x10624dd3
   \   000005FC   ED73484D           DC32     0x4d4873ed
   2951          

   \                                 In segment CODE, align 4, keep-with-next
   2952              static void xd(int i1) {
   2953                  byte byte0 = (byte)((S & 0x20) != 0 ? 16 : 8);
   \                     xd:
   \   00000000   ........           LDR      R1,??DataTable51  ;; j_int_array1d_static_fld
   \   00000004   10002DE9           PUSH     {R4}
   \   00000008   043A91E5           LDR      R3,[R1, #+2564]
   2954                  int j1 = i1 - ((d_byte_array1d_static_fld[0] & 0xff) + 1);
   \   0000000C   B5CE81E2           ADD      R12,R1,#+2896
   \   00000010   D0C0DCE1           LDRSB    R12,[R12, #+0]
   \   00000014   200013E3           TST      R3,#0x20
   \   00000018   1020A013           MOVNE    R2,#+16
   \   0000001C   0820A003           MOVEQ    R2,#+8
   \   00000020   FFC00CE2           AND      R12,R12,#0xFF
   \   00000024   0C0040E0           SUB      R0,R0,R12
   \   00000028   010050E2           SUBS     R0,R0,#+1
   2955                  if(j1 >= 0 && j1 < byte0) {
   \   0000002C   2000004A           BMI      ??xd_0
   \   00000030   020050E1           CMP      R0,R2
   \   00000034   1E0000AA           BGE      ??xd_0
   2956                      int k1 = d_byte_array1d_static_fld[1] & 0xff;
   \   00000038   51C0A0E3           MOV      R12,#+81
   \   0000003C   B0CE8CE3           ORR      R12,R12,#0xB00
   \   00000040   D1C09CE1           LDRSB    R12,[R12, +R1]
   2957                      int l1 = d_byte_array1d_static_fld[2] & 0xff;
   2958                      boolean flag = (l1 & 0x80) != 0;
   2959                      l1 = (l1 & 3) << 2 | 0x10;
   2960                      int i2;
   2961                      if((S & 0x20) != 0)
   \   00000044   200013E3           TST      R3,#0x20
   \   00000048   FFC00CE2           AND      R12,R12,#0xFF
   \   0000004C   0600000A           BEQ      ??xd_1
   2962                          i2 = l_int_array1d_static_fld[((k1 & 1) << 2) + (k1 >> 6)] + ((k1 & 0x3e) << 3);
   \   00000050   01300CE2           AND      R3,R12,#0x1
   \   00000054   4C43A0E1           ASR      R4,R12,#+6
   \   00000058   033184E0           ADD      R3,R4,R3, LSL #+2
   \   0000005C   033181E0           ADD      R3,R1,R3, LSL #+2
   \   00000060   083B93E5           LDR      R3,[R3, #+2824]
   \   00000064   3E400CE2           AND      R4,R12,#0x3E
   \   00000068   040000EA           B        ??xd_2
   2963                      else
   2964                          i2 = l_int_array1d_static_fld[V + (k1 >> 6)] + ((k1 & 0x3f) << 3);
   \                     ??xd_1:
   \   0000006C   483B91E5           LDR      R3,[R1, #+2888]
   \   00000070   3F400CE2           AND      R4,R12,#0x3F
   \   00000074   4C3383E0           ADD      R3,R3,R12, ASR #+6
   \   00000078   033181E0           ADD      R3,R1,R3, LSL #+2
   \   0000007C   083B93E5           LDR      R3,[R3, #+2824]
   2965                      ushort c1;
   2966                      if(flag)
   \                     ??xd_2:
   \   00000080   28CB91E5           LDR      R12,[R1, #+2856]
   \   00000084   843183E0           ADD      R3,R3,R4, LSL #+3
   \   00000088   524BD1E5           LDRB     R4,[R1, #+2898]
   \   0000008C   800014E3           TST      R4,#0x80
   2967                          c1 = a_char_array1d_static_fld[i2 | byte0 - 1 - j1];
   \   00000090   01204212           SUBNE    R2,R2,#+1
   \   00000094   00004210           SUBNE    R0,R2,R0
   2968                      else
   2969                          c1 = a_char_array1d_static_fld[i2 | j1];
   \   00000098   030080E1           ORR      R0,R0,R3
   \   0000009C   80008CE0           ADD      R0,R12,R0, LSL #+1
   \   000000A0   B000D0E1           LDRH     R0,[R0, #+0]
   2970                      if(c1 != 0)
   \   000000A4   000050E3           CMP      R0,#+0
   2971                          o_int_static_fld |= 0x40;
   \   000000A8   0C0A9115           LDRNE    R0,[R1, #+2572]
   \   000000AC   40008013           ORRNE    R0,R0,#0x40
   \   000000B0   0C0A8115           STRNE    R0,[R1, #+2572]
   2972                  }
   2973              }
   \                     ??xd_0:
   \   000000B4   1000BDE8           POP      {R4}
   \   000000B8   1EFF2FE1           BX       LR               ;; return
   2974          

   \                                 In segment CODE, align 4, keep-with-next
   2975              void h() {
   \                     h:
   \   00000000   70402DE9           PUSH     {R4-R6,LR}
   2976                  int i1 = getWidth;
   \   00000004   ........           LDR      R4,??DataTable51  ;; j_int_array1d_static_fld
   \   00000008   D05994E5           LDR      R5,[R4, #+2512]
   2977                  int j1 = getHeight;
   2978                  if(i1 != t_int_static_fld || j1 != K)
   \   0000000C   800A94E5           LDR      R0,[R4, #+2688]
   \   00000010   D46994E5           LDR      R6,[R4, #+2516]
   \   00000014   000055E1           CMP      R5,R0
   \   00000018   7C0A9405           LDREQ    R0,[R4, #+2684]
   \   0000001C   00005601           CMPEQ    R6,R0
   \   00000020   0000000A           BEQ      ??h_0
   2979                      i();
   \   00000024   ........           BL       i
   2980                  t_int_static_fld = i1;
   \                     ??h_0:
   \   00000028   805A84E5           STR      R5,[R4, #+2688]
   2981                  K = j1;
   \   0000002C   7C6A84E5           STR      R6,[R4, #+2684]
   2982              }
   \   00000030   7080BDE8           POP      {R4-R6,PC}       ;; return
   2983          
   2984              static boolean bbool() {
   2985                  return (d_int_array1d_static_fld[0] & 0x80) != 0;
   2986              }
   2987          
   2988              static void m() {
   2989                  memset(screens,0,screen_length<<1);
   2990          //        for(int i1 = 0; i1 < screen_length; i1++)
   2991          //            screen[i1] = 0;
   2992          
   2993              }
   2994          
   2995              static int xxb(int i1, int j1) {
   2996                  int k1;
   2997                  if(j1 < 90)
   2998                      k1 = a_short_array1d_static_fld[90 - j1];
   2999                  else
   3000                  if(j1 < 180)
   3001                      k1 = -a_short_array1d_static_fld[j1 - 90];
   3002                  else
   3003                  if(j1 < 270)
   3004                      k1 = -a_short_array1d_static_fld[270 - j1];
   3005                  else
   3006                      k1 = a_short_array1d_static_fld[j1 - 270];
   3007                  return (k1 * i1) / 1000;
   3008              }
   3009          

   \                                 In segment CODE, align 4, keep-with-next
   3010              boolean loadrom(char *s) {
   \                     loadrom:
   \   00000000   00402DE9           PUSH     {LR}
   3011                  int i1 = loadROM(s);      
   \   00000004   ........           BL       loadROM
   3012          
   3013            
   3014            //savedebug();        
   3015                  if(i1 != 0)
   \   00000008   000050E3           CMP      R0,#+0
   3016                      return i1;
   \   0000000C   FF000012           ANDNE    R0,R0,#0xFF
   \   00000010   0080BD18           POPNE    {PC}
   3017                  g();
   \   00000014   ........           BL       g
   3018                  for(int j1 = 0; j1 < b_int_array1d_static_fld_length; j1++)
   \   00000018   ........           LDR      R1,??DataTable51  ;; j_int_array1d_static_fld
   \   0000001C   0000A0E3           MOV      R0,#+0
   \   00000020   010000EA           B        ??loadrom_0
   3019                      if(j1 == 3)
   \                     ??loadrom_1:
   \   00000024   030050E3           CMP      R0,#+3
   \   00000028   0600000A           BEQ      ??loadrom_2
   3020                          b_int_array1d_static_fld[j1] = 2048 - (j1 << 13);
   3021                      else
   3022                          b_int_array1d_static_fld[j1] = -(j1 << 13);
   \                     ??loadrom_0:
   \   0000002C   002181E0           ADD      R2,R1,R0, LSL #+2
   \   00000030   8036A0E1           LSL      R3,R0,#+13
   \   00000034   003063E2           RSB      R3,R3,#+0
   \   00000038   883982E5           STR      R3,[R2, #+2440]
   \   0000003C   FF20E0E3           MVN      R2,#+255
   \   00000040   572CC2E3           BIC      R2,R2,#0x5700
   \   00000044   000000EA           B        ??loadrom_3
   \                     ??loadrom_2:
   \   00000048   942981E5           STR      R2,[R1, #+2452]
   \                     ??loadrom_3:
   \   0000004C   010080E2           ADD      R0,R0,#+1
   \   00000050   080050E3           CMP      R0,#+8
   \   00000054   F2FFFFBA           BLT      ??loadrom_1
   3023          
   3024                  avoid();
   \   00000058   400B91E5           LDR      R0,[R1, #+2880]
   \   0000005C   C006A0E1           ASR      R0,R0,#+13
   \   00000060   FC0981E5           STR      R0,[R1, #+2556]
   \   00000064   340B91E5           LDR      R0,[R1, #+2868]
   \   00000068   4005A0E1           ASR      R0,R0,#+10
   \   0000006C   F80981E5           STR      R0,[R1, #+2552]
   \   00000070   ........           BL       `b`
   3025                  b_java_lang_String_static_fld = s;
   3026          //savedebug(); 
   3027                  //savefile("1.out",vram,0x10810);
   3028                  return 0;//true;
   \   00000074   0000A0E3           MOV      R0,#+0
   \   00000078   0080BDE8           POP      {PC}             ;; return
   3029              }
   3030          
   3031              static void d() {
   3032                  if(s_boolean_static_fld) {
   3033                      v_boolean_static_fld = n_boolean_static_fld = true;
   3034               //       try {
   3035               //           Thread.yield();
   3036               //           Thread.sleep(100L);
   3037               //       }
   3038               //       catch(InterruptedException interruptedexception) { }
   3039                  }
   3040              }
   3041          /* repaint */

   \                                 In segment CODE, align 4, keep-with-next
   3042              void c0() {
   \                     `c0`:
   \   00000000   F04F2DE9           PUSH     {R4-R11,LR}
   \   00000004   3CD04DE2           SUB      SP,SP,#+60
   3043                  h();
   \   00000008   ........           BL       h
   3044                  int i1,i2,i3,i4,i5,i6,i7,i8,i9,i10;
   3045                  int j1,j2,j3,j4,j5,j6,j7,j8,j9,j10;
   3046                  int k1,k2,k3,k4,k5,k6,k7,k8,k9,k10;
   3047                  int l1,l2,l3,l4,l5,l6,l7,l8,l9,l10;
   3048          
   3049                  ushort *ai = screens;
   \   0000000C   ........           LDR      R0,??DataTable46  ;; j_int_array1d_static_fld
   \   00000010   5C2C90E5           LDR      R2,[R0, #+3164]
   \   00000014   28208DE5           STR      R2,[SP, #+40]
   3050                  byte *abyte0 = vram;
   \   00000018   5C2A90E5           LDR      R2,[R0, #+2652]
   \   0000001C   18208DE5           STR      R2,[SP, #+24]
   3051                  byte *abyte1 = d_byte_array1d_static_fld;
   3052                  boolean *aflag = a_boolean_array1d_static_fld;
   3053                  boolean *aflag1 = b_boolean_array1d_static_fld;
   3054                  ushort *ac1 = a_char_array1d_static_fld;
   \   00000020   282B90E5           LDR      R2,[R0, #+2856]
   \   00000024   1C208DE5           STR      R2,[SP, #+28]
   \   00000028   081A90E5           LDR      R1,[R0, #+2568]
   \   0000002C   020011E3           TST      R1,#0x2
   \   00000030   0110A013           MOVNE    R1,#+1
   \   00000034   0010A003           MOVEQ    R1,#+0
   \   00000038   34108DE5           STR      R1,[SP, #+52]
   3055                  ushort *ai1 = j_int_array1d_static_fld;
   3056                  boolean flag = (R & 2) != 0;
   3057                  boolean flag1 = (R & 4) != 0;
   \   0000003C   081A90E5           LDR      R1,[R0, #+2568]
   \   00000040   040011E3           TST      R1,#0x4
   \   00000044   0110A013           MOVNE    R1,#+1
   \   00000048   0010A003           MOVEQ    R1,#+0
   \   0000004C   0D10CDE5           STRB     R1,[SP, #+13]
   3058                  i1 = r_int_static_fld;
   3059                  j1 = h_int_static_fld;
   \   00000050   603C90E5           LDR      R3,[R0, #+3168]
   \   00000054   641C90E5           LDR      R1,[R0, #+3172]
   \   00000058   2C308DE5           STR      R3,[SP, #+44]
   3060                  D = y;
   \   0000005C   502A90E5           LDR      R2,[R0, #+2640]
   \   00000060   542A80E5           STR      R2,[R0, #+2644]
   \   00000064   082A90E5           LDR      R2,[R0, #+2568]
   \   00000068   080012E3           TST      R2,#0x8
   \   0000006C   0201000A           BEQ      ??c0_0
   3061                  if((R & 8) != 0) {
   3062                      for(k1 = 0; k1 < 240;) {
   \   00000070   0030A0E3           MOV      R3,#+0
   \   00000074   08308DE5           STR      R3,[SP, #+8]
   3063                          l1 = D;
   \                     ??c0_1:
   \   00000078   542A90E5           LDR      R2,[R0, #+2644]
   3064                          j2 = 0;
   3065                          l2 = 0;
   3066                          j3 = i_int_array1d_static_fld[8 + (l1 >> 10 & 3)];
   \   0000007C   0340A0E3           MOV      R4,#+3
   \   00000080   424504E0           AND      R4,R4,R2, ASR #+10
   \   00000084   044180E0           ADD      R4,R0,R4, LSL #+2
   \   00000088   784994E5           LDR      R4,[R4, #+2424]
   \   0000008C   025BA0E1           LSL      R5,R2,#+22
   \   00000090   10408DE5           STR      R4,[SP, #+16]
   \   00000094   254B84E0           ADD      R4,R4,R5, LSR #+22
   \   00000098   14408DE5           STR      R4,[SP, #+20]
   3067                          l3 = j3 + (l1 & 0x3ff);
   3068                          j4 = l1 >> 12 & 7;
   \   0000009C   0740A0E3           MOV      R4,#+7
   \   000000A0   424604E0           AND      R4,R4,R2, ASR #+12
   \   000000A4   20408DE5           STR      R4,[SP, #+32]
   3069                          l2 = abyte0[ram+(j3 + 960 + (l1 >> 4 & 0x38) + (l1 >> 2 & 7))] & 0xff;
   \   000000A8   705C90E5           LDR      R5,[R0, #+3184]
   \   000000AC   10609DE5           LDR      R6,[SP, #+16]
   \   000000B0   4232A0E1           ASR      R3,R2,#+4
   \   000000B4   055086E0           ADD      R5,R6,R5
   \   000000B8   386003E2           AND      R6,R3,#0x38
   \   000000BC   055086E0           ADD      R5,R6,R5
   \   000000C0   0760A0E3           MOV      R6,#+7
   \   000000C4   426106E0           AND      R6,R6,R2, ASR #+2
   \   000000C8   055086E0           ADD      R5,R6,R5
   \   000000CC   18609DE5           LDR      R6,[SP, #+24]
   3070                          k4 = l1 & 2 | l1 >> 4 & 4;
   \   000000D0   043003E2           AND      R3,R3,#0x4
   \   000000D4   065085E0           ADD      R5,R5,R6
   \   000000D8   F05F85E2           ADD      R5,R5,#+960
   \   000000DC   D050D5E1           LDRSB    R5,[R5, #+0]
   3071                          j2 = (l2 >> k4 & 3) << 2;
   3072                          l4 = -c_int_static_fld;
   \   000000E0   516E80E2           ADD      R6,R0,#+1296
   \   000000E4   FF5005E2           AND      R5,R5,#0xFF
   \   000000E8   24508DE5           STR      R5,[SP, #+36]
   \   000000EC   025002E2           AND      R5,R2,#0x2
   \   000000F0   053083E1           ORR      R3,R3,R5
   \   000000F4   00308DE5           STR      R3,[SP, #+0]
   \   000000F8   24309DE5           LDR      R3,[SP, #+36]
   \   000000FC   00409DE5           LDR      R4,[SP, #+0]
   \   00000100   0350A0E3           MOV      R5,#+3
   \   00000104   533405E0           AND      R3,R5,R3, ASR R4
   \   00000108   585A90E5           LDR      R5,[R0, #+2648]
   \   0000010C   0331A0E1           LSL      R3,R3,#+2
   \   00000110   005065E2           RSB      R5,R5,#+0
   \   00000114   04508DE5           STR      R5,[SP, #+4]
   \   00000118   08509DE5           LDR      R5,[SP, #+8]
   \   0000011C   055186E0           ADD      R5,R6,R5, LSL #+2
   \   00000120   38508DE5           STR      R5,[SP, #+56]
   \   00000124   070000EA           B        ??c0_2
   3073                          do {
   3074                              i5 = abyte0[ram+l3] & 0xff;
   3075                              l5 = l_int_array1d_static_fld[e_int_static_fld + (i5 >> 6)] + ((i5 & 0x3f) << 3) + j4;
   3076                              i6 = l4;
   3077                              k6 = (8 + k1) - j4;
   3078                              if(i6 < 0)
   3079                                  i6 = 0;
   3080                              i7 = c_int_array1d_static_fld[k1] + f_int_array1d_static_fld[l4 + 7];
   3081                              for(k7 = k1; k7 < k6;) {
   3082                                  if(!aflag1[k7]) {
   3083                                      i8 = ac1[l5];
   3084                                      l8 = i7;
   3085                                      for(k9 = l4 + 7; k9 >= i6; k9--) {
   3086                                          if(!aflag[k9]) {
   3087                                            if(flag || k9 >= 8){
   3088                                                //if(k9>4) //my add =    
   3089                                                  ai[l8] = ai1[j2 | i8 & 3];
   3090                                                  //if((j2 | i8 & 3)!=0) printf("%d ", j2 | i8 & 3);
   3091                                            }
   3092                                              l8 -= i1;
   3093                                          }
   3094                                          i8 >>= 2;
   3095                                      }
   3096          
   3097                                      i7 += j1;
   3098                                  }
   3099                                  k7++;
   3100                                  l5++;
   3101                              }
   3102          
   3103                              if((l1 & 0x20) == 0) {
   3104                                  j8 = abyte0[ram+(l3 | 0x20)] & 0xff;
   3105                                  i9 = l_int_array1d_static_fld[e_int_static_fld + (j8 >> 6)] + ((j8 & 0x3f) << 3);
   3106                                  for(k6 += 8; k7 < k6;) {
   3107                                      if(!aflag1[k7]) {
   3108                                          l9 = ac1[i9];
   3109                                          j10 = i7;
   3110                                          for(l10 = l4 + 7; l10 >= i6; l10--) {
   3111                                              if(!aflag[l10]) {
   3112                                                if(flag || l10 >= 8){
   3113                                                    //if(l10<=3)//my add = no thing
   3114                                                      ai[j10] = ai1[j2 | (l9 & 3)];
   3115                                                      //if(++nnn>2000000){
   3116                                                      // savescreen("out.bmp");
   3117                                                        //nnn=0;
   3118                                                      //}
   3119                                                }
   3120                                                  j10 -= i1;
   3121                                              }
   3122                                              l9 >>= 2;
   3123                                          }
   3124          
   3125                                          i7 += j1;
   3126                                      }
   3127                                      k7++;
   3128                                      i9++;
   3129                                  }
   3130          
   3131                              }
   3132                              if((l4 += 8) >= 256)
   3133                                  break;
   3134                              l1++;
   3135                              l3++;
   3136                              if((l1 & 1) == 0) {
   3137                                  if((l1 & 3) == 0) {
   3138                                      if((l1 & 0x1f) == 0) {
   3139                                          l1 = (l1 - 32) ^ 0x400;
   3140                                          j3 = i_int_array1d_static_fld[8 + (l1 >> 10 & 3)];
   3141                                          l3 = j3 + (l1 & 0x3ff);
   3142                                      }
   3143                                      l2 = abyte0[ram+(j3 + 960 + (l1 >> 4 & 0x38) + (l1 >> 2 & 7))] & 0xff;
   3144                                      k4 -= 2;
   3145                                  } else {
   3146                                      k4 += 2;
   \                     ??c0_3:
   \   00000128   00409DE5           LDR      R4,[SP, #+0]
   \   0000012C   024084E2           ADD      R4,R4,#+2
   \                     ??c0_4:
   \   00000130   00408DE5           STR      R4,[SP, #+0]
   3147                                  }
   3148                                  j2 = (l2 >> k4 & 3) << 2;
   \   00000134   24309DE5           LDR      R3,[SP, #+36]
   \   00000138   00409DE5           LDR      R4,[SP, #+0]
   \   0000013C   0350A0E3           MOV      R5,#+3
   \   00000140   533405E0           AND      R3,R5,R3, ASR R4
   \   00000144   0331A0E1           LSL      R3,R3,#+2
   \                     ??c0_2:
   \   00000148   704C90E5           LDR      R4,[R0, #+3184]
   \   0000014C   14509DE5           LDR      R5,[SP, #+20]
   \   00000150   ........           LDR      R9,??DataTable50  ;; f_int_array1d_static_fld + 28
   \   00000154   04A09DE5           LDR      R10,[SP, #+4]
   \   00000158   044085E0           ADD      R4,R5,R4
   \   0000015C   18509DE5           LDR      R5,[SP, #+24]
   \   00000160   07A08AE2           ADD      R10,R10,#+7
   \   00000164   D54094E1           LDRSB    R4,[R4, +R5]
   \   00000168   20509DE5           LDR      R5,[SP, #+32]
   \   0000016C   FF4004E2           AND      R4,R4,#0xFF
   \   00000170   3F6004E2           AND      R6,R4,#0x3F
   \   00000174   865185E0           ADD      R5,R5,R6, LSL #+3
   \   00000178   146A90E5           LDR      R6,[R0, #+2580]
   \   0000017C   444386E0           ADD      R4,R6,R4, ASR #+6
   \   00000180   20609DE5           LDR      R6,[SP, #+32]
   \   00000184   044180E0           ADD      R4,R0,R4, LSL #+2
   \   00000188   084B94E5           LDR      R4,[R4, #+2824]
   \   0000018C   058084E0           ADD      R8,R4,R5
   \   00000190   08509DE5           LDR      R5,[SP, #+8]
   \   00000194   04409DE5           LDR      R4,[SP, #+4]
   \   00000198   085085E2           ADD      R5,R5,#+8
   \   0000019C   067045E0           SUB      R7,R5,R6
   \   000001A0   38509DE5           LDR      R5,[SP, #+56]
   \   000001A4   04609DE5           LDR      R6,[SP, #+4]
   \   000001A8   005095E5           LDR      R5,[R5, #+0]
   \   000001AC   066199E7           LDR      R6,[R9, +R6, LSL #+2]
   \   000001B0   000054E3           CMP      R4,#+0
   \   000001B4   055086E0           ADD      R5,R6,R5
   \   000001B8   08609DE5           LDR      R6,[SP, #+8]
   \   000001BC   0040A043           MOVMI    R4,#+0
   \   000001C0   30A08DE5           STR      R10,[SP, #+48]
   \   000001C4   070056E1           CMP      R6,R7
   \   000001C8   250000AA           BGE      ??c0_5
   \                     ??c0_6:
   \   000001CC   009086E0           ADD      R9,R6,R0
   \   000001D0   909CD9E5           LDRB     R9,[R9, #+3216]
   \   000001D4   000059E3           CMP      R9,#+0
   \   000001D8   1D00001A           BNE      ??c0_7
   \   000001DC   1C909DE5           LDR      R9,[SP, #+28]
   \   000001E0   30B09DE5           LDR      R11,[SP, #+48]
   \   000001E4   889089E0           ADD      R9,R9,R8, LSL #+1
   \   000001E8   B090D9E1           LDRH     R9,[R9, #+0]
   \   000001EC   05A0A0E1           MOV      R10,R5
   \   000001F0   04005BE1           CMP      R11,R4
   \   000001F4   140000BA           BLT      ??c0_8
   \                     ??c0_9:
   \   000001F8   00C08BE0           ADD      R12,R11,R0
   \   000001FC   94CDDCE5           LDRB     R12,[R12, #+3476]
   \   00000200   00005CE3           CMP      R12,#+0
   \   00000204   0C00001A           BNE      ??c0_10
   \   00000208   34C09DE5           LDR      R12,[SP, #+52]
   \   0000020C   0CCCB0E1           LSLS     R12,R12,#+24
   \   00000210   0100001A           BNE      ??c0_11
   \   00000214   08005BE3           CMP      R11,#+8
   \   00000218   060000BA           BLT      ??c0_12
   \                     ??c0_11:
   \   0000021C   28C09DE5           LDR      R12,[SP, #+40]
   \   00000220   03E009E2           AND      LR,R9,#0x3
   \   00000224   03E08EE1           ORR      LR,LR,R3
   \   00000228   8EE080E0           ADD      LR,R0,LR, LSL #+1
   \   0000022C   B0E0DEE1           LDRH     LR,[LR, #+0]
   \   00000230   8AC08CE0           ADD      R12,R12,R10, LSL #+1
   \   00000234   B0E0CCE1           STRH     LR,[R12, #+0]
   \                     ??c0_12:
   \   00000238   01A04AE0           SUB      R10,R10,R1
   \                     ??c0_10:
   \   0000023C   4991A0E1           ASR      R9,R9,#+2
   \   00000240   01B04BE2           SUB      R11,R11,#+1
   \   00000244   04005BE1           CMP      R11,R4
   \   00000248   EAFFFFAA           BGE      ??c0_9
   \                     ??c0_8:
   \   0000024C   2C909DE5           LDR      R9,[SP, #+44]
   \   00000250   055089E0           ADD      R5,R9,R5
   \                     ??c0_7:
   \   00000254   016086E2           ADD      R6,R6,#+1
   \   00000258   018088E2           ADD      R8,R8,#+1
   \   0000025C   070056E1           CMP      R6,R7
   \   00000260   D9FFFFBA           BLT      ??c0_6
   \                     ??c0_5:
   \   00000264   209002E2           AND      R9,R2,#0x20
   \   00000268   0C90CDE5           STRB     R9,[SP, #+12]
   \   0000026C   000059E3           CMP      R9,#+0
   \   00000270   3500001A           BNE      ??c0_13
   \   00000274   708C90E5           LDR      R8,[R0, #+3184]
   \   00000278   14909DE5           LDR      R9,[SP, #+20]
   \   0000027C   087087E2           ADD      R7,R7,#+8
   \   00000280   209089E3           ORR      R9,R9,#0x20
   \   00000284   088089E0           ADD      R8,R9,R8
   \   00000288   18909DE5           LDR      R9,[SP, #+24]
   \   0000028C   070056E1           CMP      R6,R7
   \   00000290   D98098E1           LDRSB    R8,[R8, +R9]
   \   00000294   149A90E5           LDR      R9,[R0, #+2580]
   \   00000298   FF8008E2           AND      R8,R8,#0xFF
   \   0000029C   489389E0           ADD      R9,R9,R8, ASR #+6
   \   000002A0   099180E0           ADD      R9,R0,R9, LSL #+2
   \   000002A4   089B99E5           LDR      R9,[R9, #+2824]
   \   000002A8   3F8008E2           AND      R8,R8,#0x3F
   \   000002AC   888189E0           ADD      R8,R9,R8, LSL #+3
   \   000002B0   250000AA           BGE      ??c0_13
   \                     ??c0_14:
   \   000002B4   009086E0           ADD      R9,R6,R0
   \   000002B8   909CD9E5           LDRB     R9,[R9, #+3216]
   \   000002BC   000059E3           CMP      R9,#+0
   \   000002C0   1D00001A           BNE      ??c0_15
   \   000002C4   1C909DE5           LDR      R9,[SP, #+28]
   \   000002C8   30B09DE5           LDR      R11,[SP, #+48]
   \   000002CC   889089E0           ADD      R9,R9,R8, LSL #+1
   \   000002D0   B090D9E1           LDRH     R9,[R9, #+0]
   \   000002D4   05A0A0E1           MOV      R10,R5
   \   000002D8   04005BE1           CMP      R11,R4
   \   000002DC   140000BA           BLT      ??c0_16
   \                     ??c0_17:
   \   000002E0   00C08BE0           ADD      R12,R11,R0
   \   000002E4   94CDDCE5           LDRB     R12,[R12, #+3476]
   \   000002E8   00005CE3           CMP      R12,#+0
   \   000002EC   0C00001A           BNE      ??c0_18
   \   000002F0   34C09DE5           LDR      R12,[SP, #+52]
   \   000002F4   0CCCB0E1           LSLS     R12,R12,#+24
   \   000002F8   0100001A           BNE      ??c0_19
   \   000002FC   08005BE3           CMP      R11,#+8
   \   00000300   060000BA           BLT      ??c0_20
   \                     ??c0_19:
   \   00000304   28C09DE5           LDR      R12,[SP, #+40]
   \   00000308   03E009E2           AND      LR,R9,#0x3
   \   0000030C   03E08EE1           ORR      LR,LR,R3
   \   00000310   8EE080E0           ADD      LR,R0,LR, LSL #+1
   \   00000314   B0E0DEE1           LDRH     LR,[LR, #+0]
   \   00000318   8AC08CE0           ADD      R12,R12,R10, LSL #+1
   \   0000031C   B0E0CCE1           STRH     LR,[R12, #+0]
   \                     ??c0_20:
   \   00000320   01A04AE0           SUB      R10,R10,R1
   \                     ??c0_18:
   \   00000324   4991A0E1           ASR      R9,R9,#+2
   \   00000328   01B04BE2           SUB      R11,R11,#+1
   \   0000032C   04005BE1           CMP      R11,R4
   \   00000330   EAFFFFAA           BGE      ??c0_17
   \                     ??c0_16:
   \   00000334   2C909DE5           LDR      R9,[SP, #+44]
   \   00000338   055089E0           ADD      R5,R9,R5
   \                     ??c0_15:
   \   0000033C   016086E2           ADD      R6,R6,#+1
   \   00000340   018088E2           ADD      R8,R8,#+1
   \   00000344   070056E1           CMP      R6,R7
   \   00000348   D9FFFFBA           BLT      ??c0_14
   \                     ??c0_13:
   \   0000034C   04509DE5           LDR      R5,[SP, #+4]
   \   00000350   085085E2           ADD      R5,R5,#+8
   \   00000354   04508DE5           STR      R5,[SP, #+4]
   \   00000358   400F55E3           CMP      R5,#+256
   \   0000035C   180000BA           BLT      ??c0_21
   3149                              }
   3150                          } while(true);
   3151                          j5 = 8 - j4;
   3152                          if((l1 & 0x20) == 0)
   \   00000360   0C30DDE5           LDRB     R3,[SP, #+12]
   \   00000364   20209DE5           LDR      R2,[SP, #+32]
   3153                              j5 += 8;
   3154                          k1 += j5;
   \   00000368   08409DE5           LDR      R4,[SP, #+8]
   \   0000036C   082062E2           RSB      R2,R2,#+8
   \   00000370   000053E3           CMP      R3,#+0
   \   00000374   08208202           ADDEQ    R2,R2,#+8
   \   00000378   044082E0           ADD      R4,R2,R4
   \   0000037C   08408DE5           STR      R4,[SP, #+8]
   \   00000380   010052E3           CMP      R2,#+1
   \   00000384   390000BA           BLT      ??c0_22
   3155                          while(j5 > 0)  {
   3156                              if((D & 0x7000) == 28672) {
   \                     ??c0_23:
   \   00000388   543A90E5           LDR      R3,[R0, #+2644]
   \   0000038C   704C03E2           AND      R4,R3,#0x7000
   \   00000390   700C54E3           CMP      R4,#+28672
   \   00000394   3000001A           BNE      ??c0_24
   3157                                  D &= 0x8fff;
   \   00000398   FF40A0E3           MOV      R4,#+255
   \   0000039C   8F4C84E3           ORR      R4,R4,#0x8F00
   \   000003A0   033004E0           AND      R3,R4,R3
   3158                                  if((D & 0x3e0) == 928) {
   \   000003A4   1F40A0E3           MOV      R4,#+31
   \   000003A8   FC4C84E3           ORR      R4,R4,#0xFC00
   \   000003AC   F85F03E2           AND      R5,R3,#0x3E0
   \   000003B0   E80F55E3           CMP      R5,#+928
   \   000003B4   3800001A           BNE      ??c0_25
   3159                                      D ^= 0x800;
   3160                                      D &= 0xfc1f;
   \   000003B8   803E23E2           EOR      R3,R3,#0x800
   \                     ??c0_26:
   \   000003BC   033004E0           AND      R3,R4,R3
   \   000003C0   260000EA           B        ??c0_27
   3161                                  } else
   \                     ??c0_21:
   \   000003C4   14509DE5           LDR      R5,[SP, #+20]
   \   000003C8   012082E2           ADD      R2,R2,#+1
   \   000003CC   015085E2           ADD      R5,R5,#+1
   \   000003D0   14508DE5           STR      R5,[SP, #+20]
   \   000003D4   010012E3           TST      R2,#0x1
   \   000003D8   5AFFFF1A           BNE      ??c0_2
   \   000003DC   030012E3           TST      R2,#0x3
   \   000003E0   50FFFF1A           BNE      ??c0_3
   \   000003E4   1F0012E3           TST      R2,#0x1F
   \   000003E8   0900001A           BNE      ??c0_28
   \   000003EC   202042E2           SUB      R2,R2,#+32
   \   000003F0   402E22E2           EOR      R2,R2,#0x400
   \   000003F4   0340A0E3           MOV      R4,#+3
   \   000003F8   424504E0           AND      R4,R4,R2, ASR #+10
   \   000003FC   044180E0           ADD      R4,R0,R4, LSL #+2
   \   00000400   784994E5           LDR      R4,[R4, #+2424]
   \   00000404   025BA0E1           LSL      R5,R2,#+22
   \   00000408   10408DE5           STR      R4,[SP, #+16]
   \   0000040C   254B84E0           ADD      R4,R4,R5, LSR #+22
   \   00000410   14408DE5           STR      R4,[SP, #+20]
   \                     ??c0_28:
   \   00000414   704C90E5           LDR      R4,[R0, #+3184]
   \   00000418   10509DE5           LDR      R5,[SP, #+16]
   \   0000041C   044085E0           ADD      R4,R5,R4
   \   00000420   3850A0E3           MOV      R5,#+56
   \   00000424   425205E0           AND      R5,R5,R2, ASR #+4
   \   00000428   044085E0           ADD      R4,R5,R4
   \   0000042C   0750A0E3           MOV      R5,#+7
   \   00000430   425105E0           AND      R5,R5,R2, ASR #+2
   \   00000434   044085E0           ADD      R4,R5,R4
   \   00000438   18509DE5           LDR      R5,[SP, #+24]
   \   0000043C   054084E0           ADD      R4,R4,R5
   \   00000440   F04F84E2           ADD      R4,R4,#+960
   \   00000444   D040D4E1           LDRSB    R4,[R4, #+0]
   \   00000448   FF4004E2           AND      R4,R4,#0xFF
   \   0000044C   24408DE5           STR      R4,[SP, #+36]
   \   00000450   00409DE5           LDR      R4,[SP, #+0]
   \   00000454   024044E2           SUB      R4,R4,#+2
   \   00000458   34FFFFEA           B        ??c0_4
   3162                                  if((D & 0x3e0) == 992)
   3163                                      D &= 0xfc1f;
   3164                                  else
   3165                                      D += 32;
   3166                              } else {
   3167                                  D += 4096;
   \                     ??c0_24:
   \   0000045C   403D83E2           ADD      R3,R3,#+4096
   \                     ??c0_27:
   \   00000460   543A80E5           STR      R3,[R0, #+2644]
   3168                              }
   3169                              j5--;
   \   00000464   012042E2           SUB      R2,R2,#+1
   \   00000468   010052E3           CMP      R2,#+1
   \   0000046C   C5FFFFAA           BGE      ??c0_23
   \                     ??c0_22:
   \   00000470   08209DE5           LDR      R2,[SP, #+8]
   \   00000474   F00052E3           CMP      R2,#+240
   \   00000478   FEFEFFBA           BLT      ??c0_1
   3170                          }
   3171                      }
   3172          
   3173                  }
   3174                  if((R & 0x10) != 0) {
   \                     ??c0_0:
   \   0000047C   082A90E5           LDR      R2,[R0, #+2568]
   \   00000480   100012E3           TST      R2,#0x10
   \   00000484   7C00000A           BEQ      ??c0_29
   3175                      byte byte0 = (byte)((S & 0x20) != 0 ? 16 : 8);
   \   00000488   042A90E5           LDR      R2,[R0, #+2564]
   \   0000048C   200012E3           TST      R2,#0x20
   \   00000490   0830A003           MOVEQ    R3,#+8
   \   00000494   1030A013           MOVNE    R3,#+16
   \   00000498   030000EA           B        ??c0_30
   \                     ??c0_25:
   \   0000049C   F80F55E3           CMP      R5,#+992
   \   000004A0   C5FFFF0A           BEQ      ??c0_26
   \   000004A4   203083E2           ADD      R3,R3,#+32
   \   000004A8   ECFFFFEA           B        ??c0_27
   \                     ??c0_30:
   \   000004AC   00308DE5           STR      R3,[SP, #+0]
   3176          //label0:
   3177                      for(i2 = 252; i2 >= 0; i2 -= 4) {
   \   000004B0   FC20A0E3           MOV      R2,#+252
   3178                         k2 = (abyte1[i2] & 0xff) + 1;
   \                     ??c0_31:
   \   000004B4   003082E0           ADD      R3,R2,R0
   \   000004B8   B53E83E2           ADD      R3,R3,#+2896
   \   000004BC   D030D3E1           LDRSB    R3,[R3, #+0]
   3179                          i3 = abyte1[i2 + 1] & 0xff;
   \   000004C0   004082E0           ADD      R4,R2,R0
   3180                          k3 = abyte1[i2 + 2] & 0xff;
   3181                          i4 = abyte1[i2 + 3] & 0xff;
   \   000004C4   007082E0           ADD      R7,R2,R0
   \   000004C8   FF3003E2           AND      R3,R3,#0xFF
   \   000004CC   015083E2           ADD      R5,R3,#+1
   \   000004D0   5130A0E3           MOV      R3,#+81
   \   000004D4   B03E83E3           ORR      R3,R3,#0xB00
   \   000004D8   D43093E1           LDRSB    R3,[R3, +R4]
   3182                          if(k2 >= 240)
   \   000004DC   F00055E3           CMP      R5,#+240
   \   000004E0   FF6003E2           AND      R6,R3,#0xFF
   \   000004E4   5230A0E3           MOV      R3,#+82
   \   000004E8   B03E83E3           ORR      R3,R3,#0xB00
   \   000004EC   D43093E1           LDRSB    R3,[R3, +R4]
   \   000004F0   5340A0E3           MOV      R4,#+83
   \   000004F4   B04E84E3           ORR      R4,R4,#0xB00
   \   000004F8   D74094E1           LDRSB    R4,[R4, +R7]
   \   000004FC   FFC003E2           AND      R12,R3,#0xFF
   \   00000500   FF4004E2           AND      R4,R4,#0xFF
   \   00000504   08408DE5           STR      R4,[SP, #+8]
   \   00000508   590000AA           BGE      ??c0_32
   3183                              continue;
   3184                          boolean flag2 = (k3 & 0x80) != 0;
   \   0000050C   80001CE3           TST      R12,#0x80
   \   00000510   0130A013           MOVNE    R3,#+1
   \   00000514   0030A003           MOVEQ    R3,#+0
   \   00000518   0C30CDE5           STRB     R3,[SP, #+12]
   3185                          boolean flag3 = (k3 & 0x40) != 0;
   \   0000051C   40001CE3           TST      R12,#0x40
   3186                          boolean flag4 = (k3 & 0x20) != 0;
   3187                          k3 = (k3 & 3) << 2 | 0x10;
   \   00000520   03400CE2           AND      R4,R12,#0x3
   \   00000524   1070A0E3           MOV      R7,#+16
   \   00000528   04C187E1           ORR      R12,R7,R4, LSL #+2
   3188                          k5 = c_int_array1d_static_fld[k2];
   3189                          boolean flag5 = false;
   3190                          if(byte0 == 16)
   \   0000052C   00709DE5           LDR      R7,[SP, #+0]
   \   00000530   0130A013           MOVNE    R3,#+1
   \   00000534   0030A003           MOVEQ    R3,#+0
   \   00000538   054180E0           ADD      R4,R0,R5, LSL #+2
   \   0000053C   104594E5           LDR      R4,[R4, #+1296]
   \   00000540   4683A0E1           ASR      R8,R6,#+6
   \   00000544   100057E3           CMP      R7,#+16
   \   00000548   0500001A           BNE      ??c0_33
   3191                              j6 = l_int_array1d_static_fld[((i3 & 1) << 2) + (i3 >> 6)] + ((i3 & 0x3e) << 3);
   \   0000054C   019006E2           AND      R9,R6,#0x1
   \   00000550   098188E0           ADD      R8,R8,R9, LSL #+2
   \   00000554   088180E0           ADD      R8,R0,R8, LSL #+2
   \   00000558   088B98E5           LDR      R8,[R8, #+2824]
   \   0000055C   3E6006E2           AND      R6,R6,#0x3E
   \   00000560   040000EA           B        ??c0_34
   3192                          else
   3193                              j6 = l_int_array1d_static_fld[V + (i3 >> 6)] + ((i3 & 0x3f) << 3);
   \                     ??c0_33:
   \   00000564   489B90E5           LDR      R9,[R0, #+2888]
   \   00000568   3F6006E2           AND      R6,R6,#0x3F
   \   0000056C   098088E0           ADD      R8,R8,R9
   \   00000570   088180E0           ADD      R8,R0,R8, LSL #+2
   \   00000574   088B98E5           LDR      R8,[R8, #+2824]
   \                     ??c0_34:
   \   00000578   866188E0           ADD      R6,R8,R6, LSL #+3
   \   0000057C   04608DE5           STR      R6,[SP, #+4]
   3194                          l6 = byte0;
   3195                          j7 = k2;
   3196                          do {
   3197                              if(l6 <= 0)
   3198                                  goto label0;//continue label0;
   3199                              if(!aflag1[j7]) {
   \                     ??c0_35:
   \   00000580   008085E0           ADD      R8,R5,R0
   \   00000584   908CD8E5           LDRB     R8,[R8, #+3216]
   \   00000588   016047E2           SUB      R6,R7,#+1
   \   0000058C   000058E3           CMP      R8,#+0
   \   00000590   3300001A           BNE      ??c0_36
   3200                                  if(flag2)
   \   00000594   0C80DDE5           LDRB     R8,[SP, #+12]
   \   00000598   000058E3           CMP      R8,#+0
   3201                                      l7 = ac1[j6 | l6 - 1];
   \   0000059C   04709D15           LDRNE    R7,[SP, #+4]
   \   000005A0   07708611           ORRNE    R7,R6,R7
   \   000005A4   0300001A           BNE      ??c0_37
   3202                                  else
   3203                                      l7 = ac1[j6 | byte0 - l6];
   \   000005A8   04809DE5           LDR      R8,[SP, #+4]
   \   000005AC   00909DE5           LDR      R9,[SP, #+0]
   \   000005B0   077049E0           SUB      R7,R9,R7
   \   000005B4   087087E1           ORR      R7,R7,R8
   \                     ??c0_37:
   \   000005B8   1C809DE5           LDR      R8,[SP, #+28]
   3204                                  if(flag3)
   3205                                      k8 = i4;
   3206                                  else
   3207                                      k8 = i4 + 7;
   3208                                  if(flag3)
   3209                                      j9 = k5 + h_int_array1d_static_fld[k8];
   3210                                  else
   3211                                      j9 = k5 + f_int_array1d_static_fld[k8];
   3212                                  for(i10 = 0; i10 < 8; i10++) {
   \   000005BC   00A0A0E3           MOV      R10,#+0
   \   000005C0   877088E0           ADD      R7,R8,R7, LSL #+1
   \   000005C4   B070D7E1           LDRH     R7,[R7, #+0]
   \   000005C8   0380B0E1           MOVS     R8,R3
   \   000005CC   08809DE5           LDR      R8,[SP, #+8]
   \   000005D0   ........           LDREQ    R9,??DataTable48  ;; f_int_array1d_static_fld
   \   000005D4   07808802           ADDEQ    R8,R8,#+7
   \   000005D8   08919907           LDREQ    R9,[R9, +R8, LSL #+2]
   \   000005DC   08918010           ADDNE    R9,R0,R8, LSL #+2
   \   000005E0   C0909915           LDRNE    R9,[R9, #+192]
   \   000005E4   049089E0           ADD      R9,R9,R4
   3213                                      if(!aflag[k8]) {
   \                     ??c0_38:
   \   000005E8   00B088E0           ADD      R11,R8,R0
   \   000005EC   94BDDBE5           LDRB     R11,[R11, #+3476]
   \   000005F0   00005BE3           CMP      R11,#+0
   \   000005F4   1100001A           BNE      ??c0_39
   3214                                          k10 = l7 & 3;
   \   000005F8   03B017E2           ANDS     R11,R7,#0x3
   3215                                          if(k10 != 0 && (flag1 || k8 >= 8 && k8 < 248) && (!flag4 || ai[j9] >> 24 == 0))
   \   000005FC   0C00000A           BEQ      ??c0_40
   \   00000600   0DE0DDE5           LDRB     LR,[SP, #+13]
   \   00000604   00005EE3           CMP      LR,#+0
   \   00000608   0300001A           BNE      ??c0_41
   \   0000060C   080058E3           CMP      R8,#+8
   \   00000610   070000BA           BLT      ??c0_40
   \   00000614   F80058E3           CMP      R8,#+248
   \   00000618   050000AA           BGE      ??c0_40
   3216                                              ai[j9] = ai1[k10 | k3];
   \                     ??c0_41:
   \   0000061C   28E09DE5           LDR      LR,[SP, #+40]
   \   00000620   0BB08CE1           ORR      R11,R12,R11
   \   00000624   8BB080E0           ADD      R11,R0,R11, LSL #+1
   \   00000628   B0B0DBE1           LDRH     R11,[R11, #+0]
   \   0000062C   89E08EE0           ADD      LR,LR,R9, LSL #+1
   \   00000630   B0B0CEE1           STRH     R11,[LR, #+0]
   3217                                          if(flag3)
   \                     ??c0_40:
   \   00000634   03B0B0E1           MOVS     R11,R3
   3218                                              j9 += i1;
   \   00000638   09908110           ADDNE    R9,R1,R9
   3219                                          else
   3220                                              j9 -= i1;
   \   0000063C   01904900           SUBEQ    R9,R9,R1
   3221                                      }
   3222                                      l7 >>= 2;
   \                     ??c0_39:
   \   00000640   4771A0E1           ASR      R7,R7,#+2
   3223                                      if(flag3)
   \   00000644   03B0B0E1           MOVS     R11,R3
   3224                                          k8++;
   \   00000648   01808812           ADDNE    R8,R8,#+1
   3225                                      else
   3226                                          k8--;
   \   0000064C   01804802           SUBEQ    R8,R8,#+1
   3227                                  }
   \   00000650   01A08AE2           ADD      R10,R10,#+1
   \   00000654   08005AE3           CMP      R10,#+8
   \   00000658   E2FFFFBA           BLT      ??c0_38
   3228          
   3229                                  k5 += j1;
   \   0000065C   2C709DE5           LDR      R7,[SP, #+44]
   \   00000660   044087E0           ADD      R4,R7,R4
   3230                              }
   3231                              l6--;
   \                     ??c0_36:
   \   00000664   0670A0E1           MOV      R7,R6
   3232                              j7++;
   \   00000668   015085E2           ADD      R5,R5,#+1
   3233                          } while(true);
   \   0000066C   010057E3           CMP      R7,#+1
   \   00000670   C2FFFFAA           BGE      ??c0_35
   3234                        label0:;/////???
   3235                      }
   \                     ??c0_32:
   \   00000674   042052E2           SUBS     R2,R2,#+4
   \   00000678   8DFFFF5A           BPL      ??c0_31
   3236          
   3237                  }
   3238                  repaint();
   \                     ??c0_29:
   \   0000067C   ........           _BLF     repaint,??repaint??rA
   3239                  //serviceRepaints();
   3240                                                    
   3241              }
   \   00000680   3CD08DE2           ADD      SP,SP,#+60
   \   00000684   F08FBDE8           POP      {R4-R11,PC}      ;; return
   3242          

   \                                 In segment CODE, align 4, keep-with-next
   3243              void avoid1int(int i1) {
   \                     avoid1int:
   \   00000000   F14F2DE9           PUSH     {R0,R4-R11,LR}
   \   00000004   14D04DE2           SUB      SP,SP,#+20
   3244                  h();
   \   00000008   ........           BL       h
   3245                  int j1 = c_int_array1d_static_fld[i1];
   \   0000000C   ........           LDR      R2,??DataTable49  ;; j_int_array1d_static_fld
   \   00000010   14109DE5           LDR      R1,[SP, #+20]
   \   00000014   011182E0           ADD      R1,R2,R1, LSL #+2
   \   00000018   101591E5           LDR      R1,[R1, #+1296]
   \   0000001C   0C108DE5           STR      R1,[SP, #+12]
   3246                  ushort *ai = screens;
   3247                  byte *abyte0 = d_byte_array1d_static_fld;
   3248                  byte *abyte1 = vram;
   \   00000020   5C1A92E5           LDR      R1,[R2, #+2652]
   \   00000024   5C3C92E5           LDR      R3,[R2, #+3164]
   \   00000028   04108DE5           STR      R1,[SP, #+4]
   \   0000002C   080A92E5           LDR      R0,[R2, #+2568]
   \   00000030   020010E3           TST      R0,#0x2
   \   00000034   0100A013           MOVNE    R0,#+1
   \   00000038   0000A003           MOVEQ    R0,#+0
   \   0000003C   0000CDE5           STRB     R0,[SP, #+0]
   3249                  ushort *ai1 = j_int_array1d_static_fld;
   3250                  boolean flag = (R & 2) != 0;
   3251                  boolean flag1 = (R & 4) != 0;
   \   00000040   080A92E5           LDR      R0,[R2, #+2568]
   \   00000044   040010E3           TST      R0,#0x4
   \   00000048   0100A013           MOVNE    R0,#+1
   \   0000004C   0000A003           MOVEQ    R0,#+0
   \   00000050   0100CDE5           STRB     R0,[SP, #+1]
   3252                  if((R & 8) != 0) {
   \   00000054   080A92E5           LDR      R0,[R2, #+2568]
   \   00000058   64CC92E5           LDR      R12,[R2, #+3172]
   \   0000005C   080010E3           TST      R0,#0x8
   \   00000060   7500000A           BEQ      ??avoid1int_0
   3253                      int k1 = D;
   \   00000064   540A92E5           LDR      R0,[R2, #+2644]
   3254                      int l1 = 0;
   3255                      int j2 = 0;
   3256                      int l2 = i_int_array1d_static_fld[8 + (k1 >> 10 & 3)];
   \   00000068   0310A0E3           MOV      R1,#+3
   \   0000006C   401501E0           AND      R1,R1,R0, ASR #+10
   \   00000070   011182E0           ADD      R1,R2,R1, LSL #+2
   \   00000074   781991E5           LDR      R1,[R1, #+2424]
   3257                      int j3 = k1 >> 12 & 7;
   \   00000078   0750A0E3           MOV      R5,#+7
   \   0000007C   405605E0           AND      R5,R5,R0, ASR #+12
   \   00000080   10508DE5           STR      R5,[SP, #+16]
   \   00000084   706C92E5           LDR      R6,[R2, #+3184]
   \   00000088   4042A0E1           ASR      R4,R0,#+4
   \   0000008C   066081E0           ADD      R6,R1,R6
   \   00000090   387004E2           AND      R7,R4,#0x38
   \   00000094   066087E0           ADD      R6,R7,R6
   \   00000098   0770A0E3           MOV      R7,#+7
   \   0000009C   407107E0           AND      R7,R7,R0, ASR #+2
   \   000000A0   066087E0           ADD      R6,R7,R6
   \   000000A4   04709DE5           LDR      R7,[SP, #+4]
   3258                      j2 = abyte1[ram+(l2 + 960 + (k1 >> 4 & 0x38) + (k1 >> 2 & 7))] & 0xff;
   3259                      int l3 = k1 & 2 | k1 >> 4 & 4;
   \   000000A8   025000E2           AND      R5,R0,#0x2
   \   000000AC   076086E0           ADD      R6,R6,R7
   \   000000B0   F06F86E2           ADD      R6,R6,#+960
   \   000000B4   D060D6E1           LDRSB    R6,[R6, #+0]
   \   000000B8   044004E2           AND      R4,R4,#0x4
   \   000000BC   055084E1           ORR      R5,R4,R5
   \   000000C0   FF6006E2           AND      R6,R6,#0xFF
   \   000000C4   08608DE5           STR      R6,[SP, #+8]
   3260                      l1 = (j2 >> l3 & 3) << 2;
   \   000000C8   0640A0E1           MOV      R4,R6
   \   000000CC   0360A0E3           MOV      R6,#+3
   \   000000D0   544506E0           AND      R4,R6,R4, ASR R5
   \   000000D4   0461A0E1           LSL      R6,R4,#+2
   3261                      int j4 = -c_int_static_fld;
   \   000000D8   584A92E5           LDR      R4,[R2, #+2648]
   \   000000DC   004064E2           RSB      R4,R4,#+0
   \   000000E0   040000EA           B        ??avoid1int_1
   3262                      do {
   3263                          int k4 = abyte1[ram+l2 + (k1 & 0x3ff)] & 0xff;
   3264                          int l4 = l_int_array1d_static_fld[e_int_static_fld + (k4 >> 6)] + ((k4 & 0x3f) << 3) + j3;
   3265                          int i5 = j4;
   3266                          int k5 = (8 + i1) - j3;
   3267                          if(k5 > 240)
   3268                              k5 = 240;
   3269                          if(i5 < 0)
   3270                              i5 = 0;
   3271                          int i6 = a_char_array1d_static_fld[l4];
   3272                          int k6 = j1 + f_int_array1d_static_fld[j4 + 7];
   3273                          for(int i7 = j4 + 7; i7 >= i5; i7--) {
   3274                              if(!a_boolean_array1d_static_fld[i7]) {
   3275                                  if(i7 < 256 && (i7 >= 8 || flag))
   3276                                      ai[k6] = ai1[l1 | i6 & 3];
   3277                                  k6 -= r_int_static_fld;
   3278                              }
   3279                              i6 >>= 2;
   3280                          }
   3281          
   3282                          if((j4 += 8) >= 256)
   3283                              break;
   3284                          if((++k1 & 1) == 0) {
   3285                              if((k1 & 3) == 0) {
   3286                                  if((k1 & 0x1f) == 0) {
   3287                                      k1 = (k1 - 32) ^ 0x400;
   3288                                      l2 = i_int_array1d_static_fld[8 + (k1 >> 10 & 3)];
   3289                                  }
   3290                                  j2 = abyte1[ram+l2 + 960 + (k1 >> 4 & 0x38) + (k1 >> 2 & 7)] & 0xff;
   3291                                  l3 -= 2;
   3292                              } else {
   3293                                  l3 += 2;
   \                     ??avoid1int_2:
   \   000000E4   025085E2           ADD      R5,R5,#+2
   3294                              }
   3295                              l1 = (j2 >> l3 & 3) << 2;
   \                     ??avoid1int_3:
   \   000000E8   08609DE5           LDR      R6,[SP, #+8]
   \   000000EC   0370A0E3           MOV      R7,#+3
   \   000000F0   566507E0           AND      R6,R7,R6, ASR R5
   \   000000F4   0661A0E1           LSL      R6,R6,#+2
   \                     ??avoid1int_1:
   \   000000F8   707C92E5           LDR      R7,[R2, #+3184]
   \   000000FC   10909DE5           LDR      R9,[SP, #+16]
   \   00000100   077081E0           ADD      R7,R1,R7
   \   00000104   008BA0E1           LSL      R8,R0,#+22
   \   00000108   287B87E0           ADD      R7,R7,R8, LSR #+22
   \   0000010C   04809DE5           LDR      R8,[SP, #+4]
   \   00000110   D87097E1           LDRSB    R7,[R7, +R8]
   \   00000114   FF8007E2           AND      R8,R7,#0xFF
   \   00000118   3FA008E2           AND      R10,R8,#0x3F
   \   0000011C   8A9189E0           ADD      R9,R9,R10, LSL #+3
   \   00000120   14AA92E5           LDR      R10,[R2, #+2580]
   \   00000124   0470B0E1           MOVS     R7,R4
   \   00000128   48838AE0           ADD      R8,R10,R8, ASR #+6
   \   0000012C   ........           LDR      R10,??DataTable50  ;; f_int_array1d_static_fld + 28
   \   00000130   088182E0           ADD      R8,R2,R8, LSL #+2
   \   00000134   088B98E5           LDR      R8,[R8, #+2824]
   \   00000138   04A19AE7           LDR      R10,[R10, +R4, LSL #+2]
   \   0000013C   098088E0           ADD      R8,R8,R9
   \   00000140   289B92E5           LDR      R9,[R2, #+2856]
   \   00000144   0070A043           MOVMI    R7,#+0
   \   00000148   888089E0           ADD      R8,R9,R8, LSL #+1
   \   0000014C   0C909DE5           LDR      R9,[SP, #+12]
   \   00000150   B080D8E1           LDRH     R8,[R8, #+0]
   \   00000154   09908AE0           ADD      R9,R10,R9
   \   00000158   07A084E2           ADD      R10,R4,#+7
   \   0000015C   07005AE1           CMP      R10,R7
   \   00000160   150000BA           BLT      ??avoid1int_4
   \                     ??avoid1int_5:
   \   00000164   02B08AE0           ADD      R11,R10,R2
   \   00000168   94BDDBE5           LDRB     R11,[R11, #+3476]
   \   0000016C   00005BE3           CMP      R11,#+0
   \   00000170   0D00001A           BNE      ??avoid1int_6
   \   00000174   400F5AE3           CMP      R10,#+256
   \   00000178   0A0000AA           BGE      ??avoid1int_7
   \   0000017C   08005AE3           CMP      R10,#+8
   \   00000180   020000AA           BGE      ??avoid1int_8
   \   00000184   00B0DDE5           LDRB     R11,[SP, #+0]
   \   00000188   00005BE3           CMP      R11,#+0
   \   0000018C   0500000A           BEQ      ??avoid1int_7
   \                     ??avoid1int_8:
   \   00000190   03E008E2           AND      LR,R8,#0x3
   \   00000194   06E08EE1           ORR      LR,LR,R6
   \   00000198   8EE082E0           ADD      LR,R2,LR, LSL #+1
   \   0000019C   B0E0DEE1           LDRH     LR,[LR, #+0]
   \   000001A0   89B083E0           ADD      R11,R3,R9, LSL #+1
   \   000001A4   B0E0CBE1           STRH     LR,[R11, #+0]
   \                     ??avoid1int_7:
   \   000001A8   0C9049E0           SUB      R9,R9,R12
   \                     ??avoid1int_6:
   \   000001AC   4881A0E1           ASR      R8,R8,#+2
   \   000001B0   01A04AE2           SUB      R10,R10,#+1
   \   000001B4   07005AE1           CMP      R10,R7
   \   000001B8   E9FFFFAA           BGE      ??avoid1int_5
   \                     ??avoid1int_4:
   \   000001BC   084084E2           ADD      R4,R4,#+8
   \   000001C0   400F54E3           CMP      R4,#+256
   \   000001C4   1C0000AA           BGE      ??avoid1int_0
   \   000001C8   010080E2           ADD      R0,R0,#+1
   \   000001CC   010010E3           TST      R0,#0x1
   \   000001D0   C8FFFF1A           BNE      ??avoid1int_1
   \   000001D4   030010E3           TST      R0,#0x3
   \   000001D8   C1FFFF1A           BNE      ??avoid1int_2
   \   000001DC   1F0010E3           TST      R0,#0x1F
   \   000001E0   0500001A           BNE      ??avoid1int_9
   \   000001E4   200040E2           SUB      R0,R0,#+32
   \   000001E8   400E20E2           EOR      R0,R0,#0x400
   \   000001EC   0310A0E3           MOV      R1,#+3
   \   000001F0   401501E0           AND      R1,R1,R0, ASR #+10
   \   000001F4   011182E0           ADD      R1,R2,R1, LSL #+2
   \   000001F8   781991E5           LDR      R1,[R1, #+2424]
   \                     ??avoid1int_9:
   \   000001FC   707C92E5           LDR      R7,[R2, #+3184]
   \   00000200   3880A0E3           MOV      R8,#+56
   \   00000204   077081E0           ADD      R7,R1,R7
   \   00000208   408208E0           AND      R8,R8,R0, ASR #+4
   \   0000020C   077088E0           ADD      R7,R8,R7
   \   00000210   0780A0E3           MOV      R8,#+7
   \   00000214   408108E0           AND      R8,R8,R0, ASR #+2
   \   00000218   077088E0           ADD      R7,R8,R7
   \   0000021C   04809DE5           LDR      R8,[SP, #+4]
   \   00000220   025045E2           SUB      R5,R5,#+2
   \   00000224   087087E0           ADD      R7,R7,R8
   \   00000228   F07F87E2           ADD      R7,R7,#+960
   \   0000022C   D070D7E1           LDRSB    R7,[R7, #+0]
   \   00000230   FF7007E2           AND      R7,R7,#0xFF
   \   00000234   08708DE5           STR      R7,[SP, #+8]
   \   00000238   AAFFFFEA           B        ??avoid1int_3
   3296                          }
   3297                      } while(true);
   3298                  }
   3299                  if((R & 0x10) != 0) {
   \                     ??avoid1int_0:
   \   0000023C   080A92E5           LDR      R0,[R2, #+2568]
   \   00000240   100010E3           TST      R0,#0x10
   \   00000244   6900000A           BEQ      ??avoid1int_10
   3300                      byte byte0 = (byte)((S & 0x20) != 0 ? 16 : 8);
   \   00000248   040A92E5           LDR      R0,[R2, #+2564]
   3301                      for(int i2 = 0; i2 < 256; i2 += 4) {
   \   0000024C   0050A0E3           MOV      R5,#+0
   \   00000250   200010E3           TST      R0,#0x20
   \   00000254   1040A013           MOVNE    R4,#+16
   \   00000258   0840A003           MOVEQ    R4,#+8
   3302                          int k2 = i1 - ((abyte0[i2] & 0xff) + 1);
   \                     ??avoid1int_11:
   \   0000025C   14009DE5           LDR      R0,[SP, #+20]
   \   00000260   021085E0           ADD      R1,R5,R2
   \   00000264   B51E81E2           ADD      R1,R1,#+2896
   \   00000268   D010D1E1           LDRSB    R1,[R1, #+0]
   \   0000026C   FF1001E2           AND      R1,R1,#0xFF
   \   00000270   010040E0           SUB      R0,R0,R1
   \   00000274   017040E2           SUB      R7,R0,#+1
   3303                          int i3 = abyte0[i2 + 1] & 0xff;
   \   00000278   5100A0E3           MOV      R0,#+81
   \   0000027C   B00E80E3           ORR      R0,R0,#0xB00
   \   00000280   021085E0           ADD      R1,R5,R2
   \   00000284   D10090E1           LDRSB    R0,[R0, +R1]
   3304                          int k3 = abyte0[i2 + 2] & 0xff;
   3305                          int i4 = abyte0[i2 + 3] & 0xff;
   3306                          if(k2 < 0 || k2 >= byte0)
   \   00000288   000057E3           CMP      R7,#+0
   \   0000028C   FF8000E2           AND      R8,R0,#0xFF
   \   00000290   5200A0E3           MOV      R0,#+82
   \   00000294   B00E80E3           ORR      R0,R0,#0xB00
   \   00000298   D10090E1           LDRSB    R0,[R0, +R1]
   \   0000029C   FF6000E2           AND      R6,R0,#0xFF
   \   000002A0   5300A0E3           MOV      R0,#+83
   \   000002A4   B00E80E3           ORR      R0,R0,#0xB00
   \   000002A8   D10090E1           LDRSB    R0,[R0, +R1]
   \   000002AC   FF0000E2           AND      R0,R0,#0xFF
   \   000002B0   4B00004A           BMI      ??avoid1int_12
   \   000002B4   040057E1           CMP      R7,R4
   \   000002B8   490000AA           BGE      ??avoid1int_12
   3307                              continue;
   3308                          boolean flag2 = (k3 & 0x80) != 0;
   \   000002BC   800016E3           TST      R6,#0x80
   \   000002C0   0190A013           MOVNE    R9,#+1
   \   000002C4   0090A003           MOVEQ    R9,#+0
   3309                          boolean flag3 = (k3 & 0x40) != 0;
   \   000002C8   400016E3           TST      R6,#0x40
   \   000002CC   0110A013           MOVNE    R1,#+1
   \   000002D0   0010A003           MOVEQ    R1,#+0
   3310                          boolean flag4 = (k3 & 0x20) != 0;
   3311                          k3 = (k3 & 3) << 2 | 0x10;
   \   000002D4   036006E2           AND      R6,R6,#0x3
   \   000002D8   10A0A0E3           MOV      R10,#+16
   \   000002DC   06618AE1           ORR      R6,R10,R6, LSL #+2
   3312                          int j5;
   3313                          if(byte0 == 16)
   \   000002E0   48A3A0E1           ASR      R10,R8,#+6
   \   000002E4   100054E3           CMP      R4,#+16
   \   000002E8   0500001A           BNE      ??avoid1int_13
   3314                              j5 = l_int_array1d_static_fld[((i3 & 1) << 2) + (i3 >> 6)] + ((i3 & 0x3e) << 3);
   \   000002EC   01B008E2           AND      R11,R8,#0x1
   \   000002F0   0BA18AE0           ADD      R10,R10,R11, LSL #+2
   \   000002F4   0AA182E0           ADD      R10,R2,R10, LSL #+2
   \   000002F8   08AB9AE5           LDR      R10,[R10, #+2824]
   \   000002FC   3E8008E2           AND      R8,R8,#0x3E
   \   00000300   040000EA           B        ??avoid1int_14
   3315                          else
   3316                              j5 = l_int_array1d_static_fld[V + (i3 >> 6)] + ((i3 & 0x3f) << 3);
   \                     ??avoid1int_13:
   \   00000304   48BB92E5           LDR      R11,[R2, #+2888]
   \   00000308   3F8008E2           AND      R8,R8,#0x3F
   \   0000030C   0BA08AE0           ADD      R10,R10,R11
   \   00000310   0AA182E0           ADD      R10,R2,R10, LSL #+2
   \   00000314   08AB9AE5           LDR      R10,[R10, #+2824]
   3317                          int l5;
   3318                          if(flag2)
   \                     ??avoid1int_14:
   \   00000318   000059E3           CMP      R9,#+0
   \   0000031C   88818AE0           ADD      R8,R10,R8, LSL #+3
   3319                              l5 = a_char_array1d_static_fld[j5 | byte0 - 1 - k2];
   \   00000320   01904412           SUBNE    R9,R4,#+1
   \   00000324   07704910           SUBNE    R7,R9,R7
   3320                          else
   3321                              l5 = a_char_array1d_static_fld[j5 | k2];
   \   00000328   087087E1           ORR      R7,R7,R8
   \   0000032C   288B92E5           LDR      R8,[R2, #+2856]
   \   00000330   877088E0           ADD      R7,R8,R7, LSL #+1
   \   00000334   B070D7E1           LDRH     R7,[R7, #+0]
   3322                          int j6;
   3323                          if(flag3)
   \   00000338   0180B0E1           MOVS     R8,R1
   3324                              j6 = i4;
   3325                          else
   3326                              j6 = i4 + 7;
   3327                          int l6 = j1 + h_int_array1d_static_fld[j6];
   \   0000033C   0C809DE5           LDR      R8,[SP, #+12]
   \   00000340   07008002           ADDEQ    R0,R0,#+7
   \   00000344   009182E0           ADD      R9,R2,R0, LSL #+2
   \   00000348   C09099E5           LDR      R9,[R9, #+192]
   \   0000034C   088089E0           ADD      R8,R9,R8
   3328                          if(!flag3)
   \   00000350   0400001A           BNE      ??avoid1int_15
   3329                              l6 -= a_boolean_array1d_static_fld[j6] ? r_int_static_fld : 0;
   \   00000354   029080E0           ADD      R9,R0,R2
   \   00000358   949DD9E5           LDRB     R9,[R9, #+3476]
   \   0000035C   000059E3           CMP      R9,#+0
   \   00000360   0C90A011           MOVNE    R9,R12
   \   00000364   098048E0           SUB      R8,R8,R9
   3330                          for(int j7 = 0; j7 < 8; j7++) {
   \                     ??avoid1int_15:
   \   00000368   0090A0E3           MOV      R9,#+0
   3331                              if(!a_boolean_array1d_static_fld[j6]) {
   \                     ??avoid1int_16:
   \   0000036C   02A080E0           ADD      R10,R0,R2
   \   00000370   94ADDAE5           LDRB     R10,[R10, #+3476]
   \   00000374   00005AE3           CMP      R10,#+0
   \   00000378   1200001A           BNE      ??avoid1int_17
   3332                                  if(j6 < 256) {
   \   0000037C   400F50E3           CMP      R0,#+256
   \   00000380   0D0000AA           BGE      ??avoid1int_18
   3333                                      int k7 = ai[l6] >> 24;
   3334                                      if((k7 & 4) == 0) {
   3335                                          int l7 = l5 & 3;
   \   00000384   03A017E2           ANDS     R10,R7,#0x3
   3336                                          if(l7 != 0) {
   \   00000388   0B00000A           BEQ      ??avoid1int_18
   3337                                              if(i2 == 0 && k7 != 0)
   3338                                                  o_int_static_fld |= 0x40;
   3339                                              if(flag1 || j6 >= 8 && j6 < 248)
   \   0000038C   01B0DDE5           LDRB     R11,[SP, #+1]
   \   00000390   00005BE3           CMP      R11,#+0
   \   00000394   0300001A           BNE      ??avoid1int_19
   \   00000398   080050E3           CMP      R0,#+8
   \   0000039C   060000BA           BLT      ??avoid1int_18
   \   000003A0   F80050E3           CMP      R0,#+248
   \   000003A4   040000AA           BGE      ??avoid1int_18
   3340                                                  if(!flag4 || k7 == 0)
   3341                                                      ai[l6] = ai1[l7 | k3] | 0x4000000;
   \                     ??avoid1int_19:
   \   000003A8   0AA086E1           ORR      R10,R6,R10
   \   000003AC   8AA082E0           ADD      R10,R2,R10, LSL #+1
   \   000003B0   B0A0DAE1           LDRH     R10,[R10, #+0]
   \   000003B4   88B083E0           ADD      R11,R3,R8, LSL #+1
   \   000003B8   B0A0CBE1           STRH     R10,[R11, #+0]
   3342                                                  else
   3343                                                      ai[l6] |= 0x4000000;
   3344                                          }
   3345                                      }
   3346                                  }
   3347                                  if(flag3)
   \                     ??avoid1int_18:
   \   000003BC   01A0B0E1           MOVS     R10,R1
   3348                                      l6 += r_int_static_fld;
   \   000003C0   08808C10           ADDNE    R8,R12,R8
   3349                                  else
   3350                                      l6 -= r_int_static_fld;
   \   000003C4   0C804800           SUBEQ    R8,R8,R12
   3351                              }
   3352                              l5 >>= 2;
   \                     ??avoid1int_17:
   \   000003C8   4771A0E1           ASR      R7,R7,#+2
   3353                              if(flag3)
   \   000003CC   01A0B0E1           MOVS     R10,R1
   3354                                  j6++;
   \   000003D0   01008012           ADDNE    R0,R0,#+1
   3355                              else
   3356                                  j6--;
   \   000003D4   01004002           SUBEQ    R0,R0,#+1
   3357                          }
   \   000003D8   019089E2           ADD      R9,R9,#+1
   \   000003DC   080059E3           CMP      R9,#+8
   \   000003E0   E1FFFFBA           BLT      ??avoid1int_16
   3358          
   3359                      }
   \                     ??avoid1int_12:
   \   000003E4   045085E2           ADD      R5,R5,#+4
   \   000003E8   400F55E3           CMP      R5,#+256
   \   000003EC   9AFFFFBA           BLT      ??avoid1int_11
   3360          
   3361                  }
   3362              }
   \                     ??avoid1int_10:
   \   000003F0   18D08DE2           ADD      SP,SP,#+24       ;; stack cleaning
   \   000003F4   F08FBDE8           POP      {R4-R11,PC}      ;; return
   3363          /*
   3364              static String[] aStrings1bool(boolean flag) {
   3365                  char *as[] = new String[10];
   3366                  for(int i1 = 0; i1 < 10; i1++) {
   3367                      if(flag) {
   3368                          as[i1] = "Slot " + (i1 + 1) + " Unregistered";
   3369                          continue;
   3370                      }
   3371                      try {
   3372                          DataInputStream datainputstream = Connector.openDataInputStream(b_java_lang_String_static_fld + "save" + i1 + ".dat");
   3373                          if(datainputstream == null) {
   3374                              as[i1] = "Slot " + (i1 + 1) + "  Empty";
   3375                              continue;
   3376                          }
   3377                          long l1 = 0L;
   3378                          if(l1 >= 60L)
   3379                              as[i1] = "Slot " + (i1 + 1) + " saved " + l1 / 60L + "h" + l1 % 60L + "m before";
   3380                          else
   3381                              as[i1] = "Slot " + (i1 + 1) + " saved " + l1 + "m before";
   3382                      }
   3383                      catch(IOException ioexception) {
   3384                          as[i1] = "Slot " + (i1 + 1) + "  Empty";
   3385                      }
   3386                  }
   3387          
   3388                  return as;
   3389              }
   3390          */

   \                                 In segment CODE, align 4, keep-with-next
   3391              static void g() {
   \                     g:
   \   00000000   70402DE9           PUSH     {R4-R6,LR}
   3392                  S = 0;
   \   00000004   ........           LDR      R4,??DataTable51  ;; j_int_array1d_static_fld
   \   00000008   0050A0E3           MOV      R5,#+0
   \   0000000C   045A84E5           STR      R5,[R4, #+2564]
   3393                  R = 0;
   \   00000010   085A84E5           STR      R5,[R4, #+2568]
   3394                  o_int_static_fld = 0;
   \   00000014   0C5A84E5           STR      R5,[R4, #+2572]
   3395                  for(int i1 = 0; i1 < 8192; i1++)
   \   00000018   0000A0E3           MOV      R0,#+0
   3396                      vram[ram+i1] = 0;
   \                     ??g_0:
   \   0000001C   701C94E5           LDR      R1,[R4, #+3184]
   \   00000020   5C2A94E5           LDR      R2,[R4, #+2652]
   \   00000024   011080E0           ADD      R1,R0,R1
   \   00000028   0250C1E7           STRB     R5,[R1, +R2]
   \   0000002C   010080E2           ADD      R0,R0,#+1
   \   00000030   800D50E3           CMP      R0,#+8192
   \   00000034   F8FFFFBA           BLT      ??g_0
   3397          
   3398                  for(int j1 = 0; j1 < 12; j1++)
   \   00000038   0000A0E3           MOV      R0,#+0
   \   0000003C   010000EA           B        ??g_1
   3399                      if(j1 < 8) {
   \                     ??g_2:
   \   00000040   080050E3           CMP      R0,#+8
   \   00000044   060000AA           BGE      ??g_3
   3400                          i_int_array1d_static_fld[j1] = 8192 + 1024 * j1;
   \                     ??g_1:
   \   00000048   001184E0           ADD      R1,R4,R0, LSL #+2
   \   0000004C   802DA0E3           MOV      R2,#+8192
   \   00000050   002582E0           ADD      R2,R2,R0, LSL #+10
   \   00000054   582981E5           STR      R2,[R1, #+2392]
   3401                          l_int_array1d_static_fld[j1] = 512 * j1;
   \   00000058   8024A0E1           LSL      R2,R0,#+9
   \   0000005C   082B81E5           STR      R2,[R1, #+2824]
   \   00000060   010000EA           B        ??g_4
   3402                      } else {
   3403                          i_int_array1d_static_fld[j1] = 0;
   \                     ??g_3:
   \   00000064   001184E0           ADD      R1,R4,R0, LSL #+2
   \   00000068   585981E5           STR      R5,[R1, #+2392]
   3404                      }
   \                     ??g_4:
   \   0000006C   010080E2           ADD      R0,R0,#+1
   \   00000070   0C0050E3           CMP      R0,#+12
   \   00000074   F1FFFFBA           BLT      ??g_2
   3405          
   3406                  if(f_boolean_static_fld)
   \   00000078   820CD4E5           LDRB     R0,[R4, #+3202]
   \   0000007C   000050E3           CMP      R0,#+0
   \   00000080   0400000A           BEQ      ??g_5
   3407                      avoid4int(0, 1, 2, 3);
   \   00000084   0330A0E3           MOV      R3,#+3
   \   00000088   0220A0E3           MOV      R2,#+2
   \   0000008C   0110A0E3           MOV      R1,#+1
   \   00000090   0000A0E3           MOV      R0,#+0
   \   00000094   0A0000EA           B        ??g_6
   3408                  else
   3409                  if(!g_boolean_static_fld)
   \                     ??g_5:
   \   00000098   830CD4E5           LDRB     R0,[R4, #+3203]
   \   0000009C   0130A0E3           MOV      R3,#+1
   \   000000A0   000050E3           CMP      R0,#+0
   \   000000A4   0300001A           BNE      ??g_7
   3410                      avoid4int(0, 0, 1, 1);
   \   000000A8   0120A0E3           MOV      R2,#+1
   \   000000AC   0510A0E1           MOV      R1,R5
   \   000000B0   0100A0E1           MOV      R0,R1
   \   000000B4   020000EA           B        ??g_6
   3411                  else
   3412                  if(g_boolean_static_fld)
   3413                      avoid4int(0, 1, 0, 1);
   \                     ??g_7:
   \   000000B8   0020A0E3           MOV      R2,#+0
   \   000000BC   0310A0E1           MOV      R1,R3
   \   000000C0   0200A0E1           MOV      R0,R2
   \                     ??g_6:
   \   000000C4   ........           BL       avoid4int
   3414                  else
   3415                      avoid4int(0, 1, 2, 3);
   3416                  a_char_array1d_static_fld = (ushort*)malloc((ramsize / 2 - 4096)*2);
   \   000000C8   740C94E5           LDR      R0,[R4, #+3188]
   \   000000CC   A00F80E0           ADD      R0,R0,R0, LSR #+31
   \   000000D0   C000A0E1           ASR      R0,R0,#+1
   \   000000D4   400D40E2           SUB      R0,R0,#+4096
   \   000000D8   8000A0E1           LSL      R0,R0,#+1
   \   000000DC   140000EF           SWI      +20
   \   000000E0   280B84E5           STR      R0,[R4, #+2856]
   3417                  memset(a_char_array1d_static_fld,0,(ramsize / 2 - 4096)*2);//clr
   \   000000E4   740C94E5           LDR      R0,[R4, #+3188]
   \   000000E8   0010A0E3           MOV      R1,#+0
   \   000000EC   A00F80E0           ADD      R0,R0,R0, LSR #+31
   \   000000F0   C000A0E1           ASR      R0,R0,#+1
   \   000000F4   400D40E2           SUB      R0,R0,#+4096
   \   000000F8   8020A0E1           LSL      R2,R0,#+1
   \   000000FC   280B94E5           LDR      R0,[R4, #+2856]
   \   00000100   BB0000EF           SWI      +187
   3418                  for(int k1 = 8192; k1 < ramsize; k1++)
   \   00000104   741C94E5           LDR      R1,[R4, #+3188]
   \   00000108   800DA0E3           MOV      R0,#+8192
   \   0000010C   012080E3           ORR      R2,R0,#0x1
   \   00000110   020051E1           CMP      R1,R2
   \   00000114   320000AA           BGE      ??g_8
   \   00000118   330000EA           B        ??g_9
   3419                      if((k1 & 8) == 0) {
   \                     ??g_10:
   \   0000011C   080010E3           TST      R0,#0x8
   \   00000120   2E00001A           BNE      ??g_11
   3420                          int i2 = vram[ram+k1] & 0xff;
   \   00000124   703C94E5           LDR      R3,[R4, #+3184]
   \   00000128   5CCA94E5           LDR      R12,[R4, #+2652]
   \   0000012C   032080E0           ADD      R2,R0,R3
   \   00000130   DC2092E1           LDRSB    R2,[R2, +R12]
   3421                          int j2 = vram[ram+(k1 | 8)] & 0xff;
   \   00000134   08E080E3           ORR      LR,R0,#0x8
   \   00000138   03308EE0           ADD      R3,LR,R3
   \   0000013C   DC3093E1           LDRSB    R3,[R3, +R12]
   3422                          int k2 = ((k1 & 0xfffffff0) >> 1 | k1 & 7) - 4096;
   3423                          a_char_array1d_static_fld[k2] = (ushort)(i2 & 1 | (i2 & 2) << 1 | (i2 & 4) << 2 | (i2 & 8) << 3 | (i2 & 0x10) << 4 | (i2 & 0x20) << 5 | (i2 & 0x40) << 6 | (i2 & 0x80) << 7 | (j2 & 1) << 1 | (j2 & 2) << 2 | (j2 & 4) << 3 | (j2 & 8) << 4 | (j2 & 0x10) << 5 | (j2 & 0x20) << 6 | (j2 & 0x40) << 7 | (j2 & 0x80) << 8);
   \   00000140   0FC0C0E3           BIC      R12,R0,#0xF
   \   00000144   07E000E2           AND      LR,R0,#0x7
   \   00000148   ACC08EE1           ORR      R12,LR,R12, LSR #+1
   \   0000014C   28EB94E5           LDR      LR,[R4, #+2856]
   \   00000150   FF2002E2           AND      R2,R2,#0xFF
   \   00000154   FF3003E2           AND      R3,R3,#0xFF
   \   00000158   8CC08EE0           ADD      R12,LR,R12, LSL #+1
   \   0000015C   80CD4CE2           SUB      R12,R12,#+8192
   \   00000160   01E002E2           AND      LR,R2,#0x1
   \   00000164   026002E2           AND      R6,R2,#0x2
   \   00000168   86608EE1           ORR      R6,LR,R6, LSL #+1
   \   0000016C   04E002E2           AND      LR,R2,#0x4
   \   00000170   0E6186E1           ORR      R6,R6,LR, LSL #+2
   \   00000174   08E002E2           AND      LR,R2,#0x8
   \   00000178   8E6186E1           ORR      R6,R6,LR, LSL #+3
   \   0000017C   10E002E2           AND      LR,R2,#0x10
   \   00000180   0E6286E1           ORR      R6,R6,LR, LSL #+4
   \   00000184   20E002E2           AND      LR,R2,#0x20
   \   00000188   8E6286E1           ORR      R6,R6,LR, LSL #+5
   \   0000018C   40E002E2           AND      LR,R2,#0x40
   \   00000190   0E6386E1           ORR      R6,R6,LR, LSL #+6
   \   00000194   802002E2           AND      R2,R2,#0x80
   \   00000198   822386E1           ORR      R2,R6,R2, LSL #+7
   \   0000019C   016003E2           AND      R6,R3,#0x1
   \   000001A0   862082E1           ORR      R2,R2,R6, LSL #+1
   \   000001A4   026003E2           AND      R6,R3,#0x2
   \   000001A8   062182E1           ORR      R2,R2,R6, LSL #+2
   \   000001AC   046003E2           AND      R6,R3,#0x4
   \   000001B0   862182E1           ORR      R2,R2,R6, LSL #+3
   \   000001B4   086003E2           AND      R6,R3,#0x8
   \   000001B8   062282E1           ORR      R2,R2,R6, LSL #+4
   \   000001BC   106003E2           AND      R6,R3,#0x10
   \   000001C0   862282E1           ORR      R2,R2,R6, LSL #+5
   \   000001C4   206003E2           AND      R6,R3,#0x20
   \   000001C8   062382E1           ORR      R2,R2,R6, LSL #+6
   \   000001CC   406003E2           AND      R6,R3,#0x40
   \   000001D0   862382E1           ORR      R2,R2,R6, LSL #+7
   \   000001D4   803003E2           AND      R3,R3,#0x80
   \   000001D8   032482E1           ORR      R2,R2,R3, LSL #+8
   \   000001DC   B020CCE1           STRH     R2,[R12, #+0]
   3424                      }
   \                     ??g_11:
   \   000001E0   010080E2           ADD      R0,R0,#+1
   \                     ??g_8:
   \   000001E4   010050E1           CMP      R0,R1
   \   000001E8   CBFFFFBA           BLT      ??g_10
   3425          
   3426                  C = 0;
   \                     ??g_9:
   \   000001EC   505C84E5           STR      R5,[R4, #+3152]
   3427                  ab = 0;
   \   000001F0   005A84E5           STR      R5,[R4, #+2560]
   3428                  for(int l1 = 0; l1 < d_byte_array1d_static_fld_length; l1++)
   \   000001F4   0000A0E3           MOV      R0,#+0
   3429                      d_byte_array1d_static_fld[l1] = 0;
   \                     ??g_12:
   \   000001F8   041080E0           ADD      R1,R0,R4
   \   000001FC   505BC1E5           STRB     R5,[R1, #+2896]
   \   00000200   010080E2           ADD      R0,R0,#+1
   \   00000204   400F50E3           CMP      R0,#+256
   \   00000208   FAFFFFBA           BLT      ??g_12
   3430          
   3431                  e_int_static_fld = 0;
   \   0000020C   145A84E5           STR      R5,[R4, #+2580]
   3432                  V = 0;
   \   00000210   485B84E5           STR      R5,[R4, #+2888]
   3433                  b_boolean_static_fld = false;
   \   00000214   865CC4E5           STRB     R5,[R4, #+3206]
   3434                  D = 0;
   \   00000218   545A84E5           STR      R5,[R4, #+2644]
   3435                  y = 0;
   \   0000021C   505A84E5           STR      R5,[R4, #+2640]
   3436                  c_int_static_fld = 0;
   \   00000220   585A84E5           STR      R5,[R4, #+2648]
   3437                  q_int_static_fld = 0;
   \   00000224   305B84E5           STR      R5,[R4, #+2864]
   3438                  j_int_static_fld = 0;
   \   00000228   2C5B84E5           STR      R5,[R4, #+2860]
   3439                  x = 1;
   \   0000022C   0100A0E3           MOV      R0,#+1
   \   00000230   040B84E5           STR      R0,[R4, #+2820]
   3440                  j();
   \   00000234   ........           BL       j
   3441              }
   \   00000238   7080BDE8           POP      {R4-R6,PC}       ;; return
   3442          /*
   3443              byte[] abytes1String(char *s) throws IOException {
   3444                  InputStream inputstream = main.getClass().getResourceAsStream(s);
   3445                  ByteArrayOutputStream bytearrayoutputstream = new ByteArrayOutputStream();
   3446                  int i1;
   3447                  while((i1 = inputstream.read()) != -1) 
   3448                      bytearrayoutputstream.write(i1);
   3449                  byte abyte0[] = bytearrayoutputstream.toByteArray();
   3450                  inputstream.close();
   3451                  bytearrayoutputstream.close();
   3452                  return abyte0;
   3453              }
   3454          */

   \                                 In segment CODE, align 4, keep-with-next
   3455              int loadROM(char *s) {
   \                     loadROM:
   \   00000000   F0402DE9           PUSH     {R4-R7,LR}
   3456              	int i1=0, filesize, vramlength;
   3457                char *buf;
   3458                if(!(buf=loadfile(s))) return 3;
   \   00000004   ........           _BLF     loadfile,??loadfile??rA
   \   00000008   0060B0E1           MOVS     R6,R0
   \   0000000C   0A00000A           BEQ      ??loadROM_1
   3459                filesize=loadfilesize;
   \   00000010   40029FE5           LDR      R0,??loadROM_2   ;; loadfilesize
   3460                //int f;
   3461                //if((f=fopen(s,A_ReadOnly+A_BIN,P_READ,&err))==-1) return 3;
   3462                //filesize=lseek(f,0,2,&err,&err);
   3463                //lseek(f,0,0, &err,&err);
   3464                if(!(vram = (byte*)malloc(vramlength=filesize+10240+16384))){ mfree(buf); return 3;}
   \   00000014   ........           LDR      R4,??DataTable64  ;; j_int_array1d_static_fld
   \   00000018   007090E5           LDR      R7,[R0, #+0]
   \   0000001C   685C87E2           ADD      R5,R7,#+26624
   \   00000020   0500A0E1           MOV      R0,R5
   \   00000024   140000EF           SWI      +20
   \   00000028   5C0A84E5           STR      R0,[R4, #+2652]
   \   0000002C   000050E3           CMP      R0,#+0
   \   00000030   0300001A           BNE      ??loadROM_3
   \   00000034   0600A0E1           MOV      R0,R6
   \   00000038   150000EF           SWI      +21
   \                     ??loadROM_1:
   \   0000003C   0300A0E3           MOV      R0,#+3
   \   00000040   F080BDE8           POP      {R4-R7,PC}
   3465                memset(vram,0,vramlength);
   \                     ??loadROM_3:
   \   00000044   0520A0E1           MOV      R2,R5
   \   00000048   0010A0E3           MOV      R1,#+0
   \   0000004C   BB0000EF           SWI      +187
   3466                memcpy(vram,buf,filesize);
   \   00000050   5C0A94E5           LDR      R0,[R4, #+2652]
   \   00000054   0720A0E1           MOV      R2,R7
   \   00000058   0610A0E1           MOV      R1,R6
   \   0000005C   1E0100EF           SWI      +286
   3467                mfree(buf);
   \   00000060   0600A0E1           MOV      R0,R6
   \   00000064   150000EF           SWI      +21
   3468          //      fread(f, vram,filesize,&err);
   3469          //      fclose(f, &err);
   3470          
   3471                //        bytearrayinputstream = new ByteArrayInputStream(bbytes1String("file:///0:/Misc/" + s + ".nes"));
   3472                  if(vramlength<(10243+16384) || !(vram[0] == 78 && vram[1] == 69 && vram[2] == 83 && vram[3] == 26)){
   \   00000068   0300A0E3           MOV      R0,#+3
   \   0000006C   680C80E3           ORR      R0,R0,#0x6800
   \   00000070   000055E1           CMP      R5,R0
   \   00000074   090000BA           BLT      ??loadROM_4
   \   00000078   5C0A94E5           LDR      R0,[R4, #+2652]
   \   0000007C   D010D0E1           LDRSB    R1,[R0, #+0]
   \   00000080   4E0051E3           CMP      R1,#+78
   \   00000084   D110D001           LDRSBEQ  R1,[R0, #+1]
   \   00000088   45005103           CMPEQ    R1,#+69
   \   0000008C   D210D001           LDRSBEQ  R1,[R0, #+2]
   \   00000090   53005103           CMPEQ    R1,#+83
   \   00000094   D310D001           LDRSBEQ  R1,[R0, #+3]
   \   00000098   1A005103           CMPEQ    R1,#+26
   \   0000009C   0100000A           BEQ      ??loadROM_5
   3473                  //a_java_lang_String_static_fld = "rom header error";
   3474                  return 4;
   \                     ??loadROM_4:
   \   000000A0   0400A0E3           MOV      R0,#+4
   \   000000A4   F080BDE8           POP      {R4-R7,PC}
   3475                  }
   3476          //}catch(IOException ioes){return 0;}
   3477          //        try {
   3478                      u_int_static_fld = vram[4];
   3479                      i_int_static_fld = vram[5];
   \                     ??loadROM_5:
   \   000000A8   D520D0E1           LDRSB    R2,[R0, #+5]
   \   000000AC   D410D0E1           LDRSB    R1,[R0, #+4]
   \   000000B0   782A84E5           STR      R2,[R4, #+2680]
   3480                      i1 = vram[6];
   \   000000B4   D620D0E1           LDRSB    R2,[R0, #+6]
   3481                      g_boolean_static_fld = (i1 & 1) != 0;
   \   000000B8   013002E2           AND      R3,R2,#0x1
   \   000000BC   833CC4E5           STRB     R3,[R4, #+3203]
   3482                      a_boolean_static_fld = (i1 & 2) != 0;
   3483                      r_boolean_static_fld = (i1 & 4) != 0;
   \   000000C0   040012E3           TST      R2,#0x4
   \   000000C4   0130A013           MOVNE    R3,#+1
   \   000000C8   0030A003           MOVEQ    R3,#+0
   \   000000CC   7E3CC4E5           STRB     R3,[R4, #+3198]
   3484                      f_boolean_static_fld = (i1 & 8) != 0;
   \   000000D0   080012E3           TST      R2,#0x8
   \   000000D4   0130A013           MOVNE    R3,#+1
   \   000000D8   0030A003           MOVEQ    R3,#+0
   \   000000DC   823CC4E5           STRB     R3,[R4, #+3202]
   3485                      int k1 = i1 >> 4 & 0xf;
   3486                      int l2 = vram[7] & 0xf0;
   3487                      w = k1 | l2;
   \   000000E0   0F30A0E3           MOV      R3,#+15
   \   000000E4   422203E0           AND      R2,R3,R2, ASR #+4
   \   000000E8   D730D0E1           LDRSB    R3,[R0, #+7]
   \   000000EC   F03003E2           AND      R3,R3,#0xF0
   \   000000F0   022083E1           ORR      R2,R3,R2
   \   000000F4   F42984E5           STR      R2,[R4, #+2548]
   3488                      for(int i3 = 0; i3 < 8; i3++)
   \   000000F8   0020A0E3           MOV      R2,#+0
   3489                          if(vram[i3+8] != 0)
   \                     ??loadROM_6:
   \   000000FC   003082E0           ADD      R3,R2,R0
   \   00000100   D830D3E1           LDRSB    R3,[R3, #+8]
   3490                              w &= 0xf;
   \   00000104   012082E2           ADD      R2,R2,#+1
   \   00000108   000053E3           CMP      R3,#+0
   \   0000010C   F4399415           LDRNE    R3,[R4, #+2548]
   \   00000110   0F300312           ANDNE    R3,R3,#0xF
   \   00000114   F4398415           STRNE    R3,[R4, #+2548]
   \   00000118   080052E3           CMP      R2,#+8
   \   0000011C   F6FFFFBA           BLT      ??loadROM_6
   3491          
   3492                     // break MISSING_BLOCK_LABEL_232;
   3493          //        } catch(Exception exception) {
   3494          //            a_java_lang_String_static_fld = exception.toString();
   3495          //            return 20;
   3496          //        }
   3497                  
   3498                  switch(w){
   \   00000120   F42994E5           LDR      R2,[R4, #+2548]
   \   00000124   0F0052E3           CMP      R2,#+15
   \   00000128   0600008A           BHI      ??loadROM_7
   \   0000012C   013F8FE2           ADR      R3,??loadROM_0
   \   00000130   0230D3E7           LDRB     R3,[R3, R2]
   \   00000134   03F18FE0           ADD      PC,PC,R3, LSL #+2
   \                     ??loadROM_0:
   \   00000138   05050505           DC8      +5,+5,+5,+5
   \   0000013C   05030505           DC8      +5,+3,+5,+5
   \   00000140   05030305           DC8      +5,+3,+3,+5
   \   00000144   03030305           DC8      +3,+3,+3,+5
   3499                  case 5: // '\005'
   3500                  case 9: // '\t'
   3501                  case 10: // '\n'
   3502                  case 12: // '\f'
   3503                  case 13: // '\r'
   3504                  case 14: // '\016'
   3505                  default:
   3506                    //  a_java_lang_String_static_fld = "unsupported mapper " + w;
   3507                      return 5;
   \                     ??loadROM_7:
   \   00000148   0500A0E3           MOV      R0,#+5
   \   0000014C   F080BDE8           POP      {R4-R7,PC}
   3508          
   3509                  case 0: // '\0'
   3510                  case 1: // '\001'
   3511                  case 2: // '\002'
   3512                  case 3: // '\003'
   3513                  case 4: // '\004'
   3514                  case 6: // '\006'
   3515                  case 7: // '\007'
   3516                  case 8: // '\b'
   3517                  case 11: // '\013'
   3518                  case 15: // '\017'
   3519                      break;
   3520          		}
   3521          //try{//add		
   3522                  if(u_int_static_fld == 0){
   \                     ??loadROM_8:
   \   00000150   000051E3           CMP      R1,#+0
   3523          //	        a_java_lang_String_static_fld = "no program rom found";
   3524              	    return 6;
   \   00000154   0600A003           MOVEQ    R0,#+6
   \   00000158   F080BD08           POPEQ    {R4-R7,PC}
   3525              	}
   3526                  Y = 16384 * u_int_static_fld;
   \   0000015C   0117A0E1           LSL      R1,R1,#+14
   \   00000160   401B84E5           STR      R1,[R4, #+2880]
   3527                  int j1 = Y + 10240;
   3528                  //vram = new byte[j1];
   3529                  Systemarraycopy(vram,0,vram,10240,vramlength-10240);
   \   00000164   A06DA0E3           MOV      R6,#+10240
   \   00000168   A02D45E2           SUB      R2,R5,#+10240
   \   0000016C   0010A0E1           MOV      R1,R0
   \   00000170   000086E0           ADD      R0,R6,R0
   \   00000174   320100EF           SWI      +306
   3530                  ram=10256;
   \   00000178   100086E3           ORR      R0,R6,#0x10
   \   0000017C   700C84E5           STR      R0,[R4, #+3184]
   3531                  if(r_boolean_static_fld) {
   \   00000180   7E0CD4E5           LDRB     R0,[R4, #+3198]
   \   00000184   605DA0E3           MOV      R5,#+6144
   \   00000188   000050E3           CMP      R0,#+0
   \   0000018C   1000000A           BEQ      ??loadROM_9
   3532                      b_byte_array1d_static_fld = (byte*)malloc(512);
   \   00000190   800FA0E3           MOV      R0,#+512
   \   00000194   140000EF           SWI      +20
   \   00000198   580C84E5           STR      R0,[R4, #+3160]
   3533                      for(int l1 = 0; l1 < 512; l1++)
   \   0000019C   0000A0E3           MOV      R0,#+0
   3534                          b_byte_array1d_static_fld[l1] = vram[6144 + l1] = vram[ram++];
   \                     ??loadROM_10:
   \   000001A0   701C94E5           LDR      R1,[R4, #+3184]
   \   000001A4   5C2A94E5           LDR      R2,[R4, #+2652]
   \   000001A8   D23091E1           LDRSB    R3,[R1, +R2]
   \   000001AC   011081E2           ADD      R1,R1,#+1
   \   000001B0   701C84E5           STR      R1,[R4, #+3184]
   \   000001B4   021080E0           ADD      R1,R0,R2
   \   000001B8   0130C5E7           STRB     R3,[R5, +R1]
   \   000001BC   581C94E5           LDR      R1,[R4, #+3160]
   \   000001C0   0130C0E7           STRB     R3,[R0, +R1]
   \   000001C4   010080E2           ADD      R0,R0,#+1
   \   000001C8   800F50E3           CMP      R0,#+512
   \   000001CC   080000AA           BGE      ??loadROM_11
   \   000001D0   F2FFFFEA           B        ??loadROM_10
   3535                  } else {
   3536                      b_byte_array1d_static_fld = null;
   \                     ??loadROM_9:
   \   000001D4   580C84E5           STR      R0,[R4, #+3160]
   3537                      for(int i2 = 0; i2 < 512; i2++)
   \   000001D8   0010A0E3           MOV      R1,#+0
   3538                          vram[6144 + i2] = 0;
   \                     ??loadROM_12:
   \   000001DC   5C2A94E5           LDR      R2,[R4, #+2652]
   \   000001E0   022081E0           ADD      R2,R1,R2
   \   000001E4   0200C5E7           STRB     R0,[R5, +R2]
   \   000001E8   011081E2           ADD      R1,R1,#+1
   \   000001EC   800F51E3           CMP      R1,#+512
   \   000001F0   F9FFFFBA           BLT      ??loadROM_12
   3539          
   3540                  }
   3541                  //for(int j2 = 0; j2 < Y; j2++)
   3542                  //    vram[j2 + 10240] = (byte)bytearrayinputstream.read();
   3543                  Systemarraycopy(vram,ram,vram,10240,Y);
   \                     ??loadROM_11:
   \   000001F4   5C0A94E5           LDR      R0,[R4, #+2652]
   \   000001F8   701C94E5           LDR      R1,[R4, #+3184]
   \   000001FC   402B94E5           LDR      R2,[R4, #+2880]
   \   00000200   001081E0           ADD      R1,R1,R0
   \   00000204   000086E0           ADD      R0,R6,R0
   \   00000208   320100EF           SWI      +306
   3544                  ram+=Y;
   \   0000020C   700C94E5           LDR      R0,[R4, #+3184]
   \   00000210   401B94E5           LDR      R1,[R4, #+2880]
   \   00000214   000081E0           ADD      R0,R1,R0
   3545                  E = 8192 * i_int_static_fld;
   \   00000218   781A94E5           LDR      R1,[R4, #+2680]
   \   0000021C   700C84E5           STR      R0,[R4, #+3184]
   \   00000220   8126B0E1           LSLS     R2,R1,#+13
   \   00000224   342B84E5           STR      R2,[R4, #+2868]
   3546                  if(E == 0)
   3547                      ramsize = 16384;
   \   00000228   400CA003           MOVEQ    R0,#+16384
   \   0000022C   740C8405           STREQ    R0,[R4, #+3188]
   \   00000230   0600000A           BEQ      ??loadROM_13
   3548                  else{
   3549                      ramsize = E + 8192;
   \   00000234   801D82E2           ADD      R1,R2,#+8192
   \   00000238   741C84E5           STR      R1,[R4, #+3188]
   3550                  //a_byte_array1d_static_fld = new byte[ramsize];
   3551                  //for(int k2 = 0; k2 < E; k2++)
   3552                  //    a_byte_array1d_static_fld[k2 + 8192] = (byte)bytearrayinputstream.read();
   3553                  	Systemarraycopy(vram,ram,vram,ram+8192,E);
   \   0000023C   5C1A94E5           LDR      R1,[R4, #+2652]
   \   00000240   010080E0           ADD      R0,R0,R1
   \   00000244   0010A0E1           MOV      R1,R0
   \   00000248   800D80E2           ADD      R0,R0,#+8192
   \   0000024C   320100EF           SWI      +306
   3554                 	}
   3555          //}catch(Exception exception1){
   3556          //        a_java_lang_String_static_fld = exception1.toString();
   3557          //        return 20;
   3558          //        }
   3559                  a_java_lang_String_static_fld = null;
   3560                  return 0;
   \                     ??loadROM_13:
   \   00000250   0000A0E3           MOV      R0,#+0
   \   00000254   F080BDE8           POP      {R4-R7,PC}       ;; return
   \                     ??loadROM_2:
   \   00000258   ........           DC32     loadfilesize
   3561              }
   3562          /*
   3563              static void avoid1InputStream(InputStream inputstream) throws IOException {
   3564                  //c c1 = main;
   3565                  d_boolean_static_fld = inputstream.read() == 255;//c.??
   3566                  u_boolean_static_fld = inputstream.read() == 255;
   3567                  m_boolean_static_fld = inputstream.read() == 255;
   3568                  t_boolean_static_fld = inputstream.read() == 255;
   3569                  k_boolean_static_fld = inputstream.read() == 255;
   3570                  B = inputstream.read();
   3571                  A = inputstream.read();
   3572                  b_int_static_fld = inputstream.read();
   3573                  L = inputstream.read();
   3574                  //c c2 = main;
   3575                  f_boolean_static_fld = inputstream.read() == 255;//c.??
   3576                  inputstream.read();
   3577                  inputstream.read();
   3578                  inputstream.read();
   3579                  inputstream.read();
   3580                  main.b_int_fld = inputstream.read();
   3581                  main.b_int_fld |= inputstream.read() << 8;
   3582                  main.e_boolean_fld = inputstream.read() == 255;
   3583                  if(main.e_boolean_fld)
   3584                  ;
   3585          //            main.f_javax_microedition_lcdui_List_fld.set(3, "Help", null);
   3586                  int i1 = inputstream.read();
   3587                  main.c_java_lang_String_fld = "";
   3588                  for(int j1 = 0; j1 < i1; j1++)
   3589                      main.c_java_lang_String_fld += inputstream.read();
   3590          
   3591                  for(int k1 = 0; k1 < key.length; k1++)
   3592                      key[k1] = (byte)inputstream.read();
   3593          
   3594              }
   3595          */
   3596              static void avoid() {
   3597                  switch(w) {
   3598                  case 1: // '\001'
   3599                      //d_int_array1d_static_fld = new int[4];
   3600                      break;
   3601          
   3602                  case 4: // '\004'
   3603                      //d_int_array1d_static_fld = new int[8];
   3604                      break;
   3605                  }
   3606                  ad = Y >> 13;
   3607                  P = E >> 10;
   3608                  b();
   3609              }
   3610          

   \                                 In segment CODE, align 4, keep-with-next
   3611              static void b() {
   \                     `b`:
   \   00000000   70402DE9           PUSH     {R4-R6,LR}
   3612                  int i1,j1;
   3613                  switch(w) {
   \   00000004   ........           LDR      R4,??DataTable64  ;; j_int_array1d_static_fld
   \   00000008   FC0994E5           LDR      R0,[R4, #+2556]
   \   0000000C   F4C994E5           LDR      R12,[R4, #+2548]
   \   00000010   F86994E5           LDR      R6,[R4, #+2552]
   \   00000014   022040E2           SUB      R2,R0,#+2
   \   00000018   013040E2           SUB      R3,R0,#+1
   \   0000001C   0050A0E3           MOV      R5,#+0
   \   00000020   0110A0E3           MOV      R1,#+1
   \   00000024   0F005CE3           CMP      R12,#+15
   \   00000028   7080BD88           POPHI    {R4-R6,PC}
   \   0000002C   01EF8FE2           ADR      LR,??b_0
   \   00000030   0CE0DEE7           LDRB     LR,[LR, R12]
   \   00000034   0EF18FE0           ADD      PC,PC,LR, LSL #+2
   \                     ??b_0:
   \   00000038   03178430           DC8      +3,+23,+132,+48
   \   0000003C   3AAC5D7D           DC8      +58,+172,+93,+125
   \   00000040   82ACAC95           DC8      +130,+172,+172,+149
   \   00000044   ACACAC7D           DC8      +172,+172,+172,+125
   3614                  case 5: // '\005'
   3615                  case 9: // '\t'
   3616                  case 10: // '\n'
   3617                  case 12: // '\f'
   3618                  case 13: // '\r'
   3619                  case 14: // '\016'
   3620                  default:
   3621                      break;
   3622          
   3623                  case 0: // '\0'
   3624                      if(ad > 2)
   \                     ??b_1:
   \   00000048   030050E3           CMP      R0,#+3
   \   0000004C   030000BA           BLT      ??b_2
   3625                          xxxxb(0, 1, 2, 3);
   \   00000050   0330A0E3           MOV      R3,#+3
   \   00000054   0220A0E3           MOV      R2,#+2
   \   00000058   0000A0E3           MOV      R0,#+0
   \   0000005C   090000EA           B        ??b_3
   3626                      else
   3627                      if(ad > 1)
   \                     ??b_2:
   \   00000060   020050E3           CMP      R0,#+2
   \   00000064   030000BA           BLT      ??b_4
   3628                          xxxxb(0, 1, 0, 1);
   \   00000068   0130A0E3           MOV      R3,#+1
   \   0000006C   0520A0E1           MOV      R2,R5
   \   00000070   0200A0E1           MOV      R0,R2
   \   00000074   030000EA           B        ??b_3
   3629                      else
   3630                          xxxxb(0, 0, 0, 0);
   \                     ??b_4:
   \   00000078   0030A0E3           MOV      R3,#+0
   \   0000007C   0320A0E1           MOV      R2,R3
   \   00000080   0210A0E1           MOV      R1,R2
   \   00000084   0100A0E1           MOV      R0,R1
   \                     ??b_3:
   \   00000088   ........           BL       xxxxb
   3631                      if(P > 0)
   \   0000008C   010056E3           CMP      R6,#+1
   \   00000090   7080BDB8           POPLT    {R4-R6,PC}
   3632                          avoid8int(0, 1, 2, 3, 4, 5, 6, 7);
   \   00000094   6E0000EA           B        ??b_5
   3633                      break;
   3634          
   3635                  case 1: // '\001'
   3636                      M = 0;
   \                     ??b_6:
   \   00000098   6C5C84E5           STR      R5,[R4, #+3180]
   3637                      H = 0;
   \   0000009C   185A84E5           STR      R5,[R4, #+2584]
   3638                      d_int_array1d_static_fld[0] = 12;
   \   000000A0   0C60A0E3           MOV      R6,#+12
   \   000000A4   A86984E5           STR      R6,[R4, #+2472]
   3639                      d_int_array1d_static_fld[1] = 0;
   \   000000A8   AC5984E5           STR      R5,[R4, #+2476]
   3640                      d_int_array1d_static_fld[2] = 0;
   \   000000AC   B05984E5           STR      R5,[R4, #+2480]
   3641                      d_int_array1d_static_fld[3] = 0;
   \   000000B0   B45984E5           STR      R5,[R4, #+2484]
   3642                      i1 = ad * 8;
   \   000000B4   8001A0E1           LSL      R0,R0,#+3
   3643                      if(i1 == 1024)
   \   000000B8   400E50E3           CMP      R0,#+1024
   3644                          U = 1024;
   3645                      else
   3646                      if(i1 == 512)
   \   000000BC   800F5013           CMPNE    R0,#+512
   3647                          U = 512;
   3648                      else
   3649                          U = 1;
   \   000000C0   0100A013           MOVNE    R0,#+1
   \   000000C4   680A84E5           STR      R0,[R4, #+2664]
   3650                      m_int_static_fld = 0;
   \   000000C8   705A84E5           STR      R5,[R4, #+2672]
   3651                      d_int_static_fld = 0;
   \   000000CC   6C5A84E5           STR      R5,[R4, #+2668]
   3652                      if(U == 1) {
   \   000000D0   010050E3           CMP      R0,#+1
   3653                          T = ad - 2;
   3654                          W = ad - 1;
   3655                      } else {
   3656                          T = 30;
   \   000000D4   1E20A013           MOVNE    R2,#+30
   3657                          W = 31;
   \   000000D8   1F30A013           MOVNE    R3,#+31
   \   000000DC   643A84E5           STR      R3,[R4, #+2660]
   \   000000E0   602A84E5           STR      R2,[R4, #+2656]
   3658                      }
   3659                      Z = 0;
   \   000000E4   E45984E5           STR      R5,[R4, #+2532]
   3660                      f_int_static_fld = 1;
   \   000000E8   E81984E5           STR      R1,[R4, #+2536]
   3661                      n_int_static_fld = T;
   \   000000EC   EC2984E5           STR      R2,[R4, #+2540]
   3662                      Q = W;
   \   000000F0   F03984E5           STR      R3,[R4, #+2544]
   3663                      k();
   \   000000F4   ........           BL       k
   3664                      avoid8int(0, 1, 2, 3, 4, 5, 6, 7);
   \   000000F8   550000EA           B        ??b_5
   3665                      break;
   3666          
   3667                  case 2: // '\002'
   3668                      xxxxb(0, 1, ad - 2, ad - 1);
   3669                      avoid8int(0, 1, 2, 3, 4, 5, 6, 7);
   3670                      break;
   3671          
   3672                  case 3: // '\003'
   3673                      if(ad > 2)
   \                     ??b_7:
   \   000000FC   030050E3           CMP      R0,#+3
   \   00000100   030000BA           BLT      ??b_8
   3674                          xxxxb(0, 1, 2, 3);
   \   00000104   0330A0E3           MOV      R3,#+3
   \   00000108   0220A0E3           MOV      R2,#+2
   \   0000010C   0000A0E3           MOV      R0,#+0
   \   00000110   4E0000EA           B        ??b_9
   3675                      else
   3676                          xxxxb(0, 1, 0, 1);
   \                     ??b_8:
   \   00000114   0130A0E3           MOV      R3,#+1
   \   00000118   0520A0E1           MOV      R2,R5
   \   0000011C   0200A0E1           MOV      R0,R2
   \                     ??b_10:
   \   00000120   4A0000EA           B        ??b_9
   3677                      avoid8int(0, 1, 2, 3, 4, 5, 6, 7);
   3678                      break;
   3679          
   3680                  case 4: // '\004'
   3681                      i_boolean_static_fld = true;
   \                     ??b_11:
   \   00000124   7F1CC4E5           STRB     R1,[R4, #+3199]
   3682                      for(j1 = 0; j1 < 8; j1++)
   \   00000128   0000A0E3           MOV      R0,#+0
   3683                          d_int_array1d_static_fld[j1] = 0;
   \                     ??b_12:
   \   0000012C   002184E0           ADD      R2,R4,R0, LSL #+2
   \   00000130   A85982E5           STR      R5,[R2, #+2472]
   \   00000134   010080E2           ADD      R0,R0,#+1
   \   00000138   080050E3           CMP      R0,#+8
   \   0000013C   FAFFFFBA           BLT      ??b_12
   3684          
   3685                      G = 0;
   \   00000140   385B84E5           STR      R5,[R4, #+2872]
   3686                      J = 1;
   \   00000144   3C1B84E5           STR      R1,[R4, #+2876]
   3687                      f();
   \   00000148   ........           BL       f
   3688                      if(P > 0) {
   \   0000014C   010056E3           CMP      R6,#+1
   \   00000150   0C0000BA           BLT      ??b_13
   3689                          O = 0;
   \   00000154   1C5A84E5           STR      R5,[R4, #+2588]
   3690                          g_int_static_fld = 2;
   \   00000158   0200A0E3           MOV      R0,#+2
   \   0000015C   200A84E5           STR      R0,[R4, #+2592]
   3691                          ac = 4;
   \   00000160   0400A0E3           MOV      R0,#+4
   \   00000164   240A84E5           STR      R0,[R4, #+2596]
   3692                          N = 5;
   \   00000168   0500A0E3           MOV      R0,#+5
   \   0000016C   280A84E5           STR      R0,[R4, #+2600]
   3693                          s_int_static_fld = 6;
   \   00000170   0600A0E3           MOV      R0,#+6
   \   00000174   2C0A84E5           STR      R0,[R4, #+2604]
   3694                          v_int_static_fld = 7;
   \   00000178   0700A0E3           MOV      R0,#+7
   \   0000017C   300A84E5           STR      R0,[R4, #+2608]
   3695                          l();
   \   00000180   ........           BL       l
   \   00000184   050000EA           B        ??b_14
   3696                      } else {
   3697                          O = g_int_static_fld = ac = N = s_int_static_fld = v_int_static_fld = 0;
   \                     ??b_13:
   \   00000188   305A84E5           STR      R5,[R4, #+2608]
   \   0000018C   2C5A84E5           STR      R5,[R4, #+2604]
   \   00000190   285A84E5           STR      R5,[R4, #+2600]
   \   00000194   245A84E5           STR      R5,[R4, #+2596]
   \   00000198   205A84E5           STR      R5,[R4, #+2592]
   \   0000019C   1C5A84E5           STR      R5,[R4, #+2588]
   3698                      }
   3699                      e_boolean_static_fld = false;
   \                     ??b_14:
   \   000001A0   805CC4E5           STRB     R5,[R4, #+3200]
   3700                      I = 0;
   \   000001A4   3C5A84E5           STR      R5,[R4, #+2620]
   3701                      F = 0;
   \   000001A8   405A84E5           STR      R5,[R4, #+2624]
   3702                      avoid8int(0, 1, 2, 3, 4, 5, 6, 7);
   \   000001AC   280000EA           B        ??b_5
   3703                      break;
   3704          
   3705                  case 6: // '\006'
   3706                      i_boolean_static_fld = true;
   \                     ??b_15:
   \   000001B0   7F1CC4E5           STRB     R1,[R4, #+3199]
   3707                      xxxxb(0, 1, 14, 15);
   \   000001B4   0F30A0E3           MOV      R3,#+15
   \   000001B8   0E20A0E3           MOV      R2,#+14
   \   000001BC   0000A0E3           MOV      R0,#+0
   \   000001C0   ........           BL       xxxxb
   3708                      if(P > 0) {
   \   000001C4   010056E3           CMP      R6,#+1
   \   000001C8   210000AA           BGE      ??b_5
   3709                          avoid8int(0, 1, 2, 3, 4, 5, 6, 7);
   3710                      } else {
   3711                          bvoid2int(0, 0);
   \   000001CC   0010A0E3           MOV      R1,#+0
   \   000001D0   0100A0E1           MOV      R0,R1
   \   000001D4   ........           BL       bvoid2int
   3712                          bvoid2int(0, 1);
   \   000001D8   0110A0E3           MOV      R1,#+1
   \   000001DC   0500A0E1           MOV      R0,R5
   \   000001E0   ........           BL       bvoid2int
   3713                          bvoid2int(0, 2);
   \   000001E4   0210A0E3           MOV      R1,#+2
   \   000001E8   0500A0E1           MOV      R0,R5
   \   000001EC   ........           BL       bvoid2int
   3714                          bvoid2int(0, 3);
   \   000001F0   0310A0E3           MOV      R1,#+3
   \   000001F4   0500A0E1           MOV      R0,R5
   \   000001F8   ........           BL       bvoid2int
   3715                          bvoid2int(0, 4);
   \   000001FC   0410A0E3           MOV      R1,#+4
   \   00000200   0500A0E1           MOV      R0,R5
   \   00000204   ........           BL       bvoid2int
   3716                          bvoid2int(0, 5);
   \   00000208   0510A0E3           MOV      R1,#+5
   \   0000020C   0500A0E1           MOV      R0,R5
   \   00000210   ........           BL       bvoid2int
   3717                          bvoid2int(0, 6);
   \   00000214   0610A0E3           MOV      R1,#+6
   \   00000218   0500A0E1           MOV      R0,R5
   \   0000021C   ........           BL       bvoid2int
   3718                          bvoid2int(0, 7);
   \   00000220   0710A0E3           MOV      R1,#+7
   \   00000224   0500A0E1           MOV      R0,R5
   \   00000228   ........           BL       bvoid2int
   \   0000022C   7080BDE8           POP      {R4-R6,PC}
   3719                      }
   3720                      break;
   3721          
   3722                  case 7: // '\007'
   3723                      xxxxb(0, 1, 2, 3);
   \                     ??b_16:
   \   00000230   0330A0E3           MOV      R3,#+3
   \   00000234   0220A0E3           MOV      R2,#+2
   \   00000238   0000A0E3           MOV      R0,#+0
   \   0000023C   ........           BL       xxxxb
   \   00000240   7080BDE8           POP      {R4-R6,PC}
   3724                      break;
   3725          
   3726                  case 8: // '\b'
   3727                      xxxxb(0, 1, 2, 3);
   \                     ??b_17:
   \   00000244   0330A0E3           MOV      R3,#+3
   \   00000248   0220A0E3           MOV      R2,#+2
   \                     ??b_18:
   \   0000024C   0000A0E3           MOV      R0,#+0
   \                     ??b_9:
   \   00000250   ........           BL       xxxxb
   3728                      avoid8int(0, 1, 2, 3, 4, 5, 6, 7);
   \                     ??b_5:
   \   00000254   0700A0E3           MOV      R0,#+7
   \   00000258   01002DE9           PUSH     {R0}
   \   0000025C   0330A0E3           MOV      R3,#+3
   \   00000260   0220A0E3           MOV      R2,#+2
   \   00000264   0110A0E3           MOV      R1,#+1
   \   00000268   0600A0E3           MOV      R0,#+6
   \   0000026C   01002DE9           PUSH     {R0}
   \   00000270   0500A0E3           MOV      R0,#+5
   \   00000274   01002DE9           PUSH     {R0}
   \   00000278   0400A0E3           MOV      R0,#+4
   \   0000027C   01002DE9           PUSH     {R0}
   \   00000280   0000A0E3           MOV      R0,#+0
   \   00000284   ........           BL       avoid8int
   \   00000288   10D08DE2           ADD      SP,SP,#+16
   \   0000028C   7080BDE8           POP      {R4-R6,PC}
   3729                      break;
   3730          
   3731                  case 11: // '\013'
   3732                      xxxxb(0, 1, 2, 3);
   \                     ??b_19:
   \   00000290   0330A0E3           MOV      R3,#+3
   \   00000294   0220A0E3           MOV      R2,#+2
   \   00000298   0000A0E3           MOV      R0,#+0
   \   0000029C   ........           BL       xxxxb
   3733                      avoid8int(0, 1, 2, 3, 4, 5, 6, 7);
   \   000002A0   0700A0E3           MOV      R0,#+7
   \   000002A4   01002DE9           PUSH     {R0}
   \   000002A8   0330A0E3           MOV      R3,#+3
   \   000002AC   0220A0E3           MOV      R2,#+2
   \   000002B0   0110A0E3           MOV      R1,#+1
   \   000002B4   0600A0E3           MOV      R0,#+6
   \   000002B8   01002DE9           PUSH     {R0}
   \   000002BC   0500A0E3           MOV      R0,#+5
   \   000002C0   01002DE9           PUSH     {R0}
   \   000002C4   0400A0E3           MOV      R0,#+4
   \   000002C8   01002DE9           PUSH     {R0}
   \   000002CC   0500A0E1           MOV      R0,R5
   \   000002D0   ........           BL       avoid8int
   3734                      avoid4int(0, 1, 0, 1);
   \   000002D4   0130A0E3           MOV      R3,#+1
   \   000002D8   0520A0E1           MOV      R2,R5
   \   000002DC   0310A0E1           MOV      R1,R3
   \   000002E0   0200A0E1           MOV      R0,R2
   \   000002E4   ........           BL       avoid4int
   \   000002E8   10D08DE2           ADD      SP,SP,#+16
   3735                      break;
   3736          
   3737                  case 15: // '\017'
   3738                      xxxxb(0, 1, 2, 3);
   3739                      break;
   3740                  }
   3741              }
   \                     ??b_20:
   \   000002EC   7080BDE8           POP      {R4-R6,PC}       ;; return
   3742          

   \                                 In segment CODE, align 4, keep-with-next
   3743              static void c_in(){//(InputStream inputstream) throws IOException {
   \                     c_in:
   \   00000000   B0402DE9           PUSH     {R4,R5,R7,LR}
   3744                  switch(w) {
   \   00000004   ........           LDR      R4,??DataTable64  ;; j_int_array1d_static_fld
   \   00000008   0150A0E3           MOV      R5,#+1
   \   0000000C   F40994E5           LDR      R0,[R4, #+2548]
   \   00000010   010050E2           SUBS     R0,R0,#+1
   \   00000014   0400000A           BEQ      ??c_in_0
   \   00000018   030050E2           SUBS     R0,R0,#+3
   \   0000001C   3600000A           BEQ      ??c_in_1
   \   00000020   020050E2           SUBS     R0,R0,#+2
   \   00000024   5F00000A           BEQ      ??c_in_2
   \   00000028   B080BDE8           POP      {R4,R5,R7,PC}
   3745                  default:
   3746                      break;
   3747          
   3748                  case 1: // '\001'
   3749                      X = (inputstreamread() & 0xff) << 8;
   \                     ??c_in_0:
   \   0000002C   ........           BL       bytearrayinputstreamread
   \   00000030   FF0000E2           AND      R0,R0,#0xFF
   \   00000034   0004A0E1           LSL      R0,R0,#+8
   \   00000038   4C0A84E5           STR      R0,[R4, #+2636]
   3750                      X |= inputstreamread() & 0xff;
   \   0000003C   ........           BL       bytearrayinputstreamread
   \   00000040   4C1A94E5           LDR      R1,[R4, #+2636]
   \   00000044   FF0000E2           AND      R0,R0,#0xFF
   \   00000048   010080E1           ORR      R0,R0,R1
   \   0000004C   4C0A84E5           STR      R0,[R4, #+2636]
   3751                      M = inputstreamread() & 0xff;
   \   00000050   ........           BL       bytearrayinputstreamread
   \   00000054   FF0000E2           AND      R0,R0,#0xFF
   \   00000058   6C0C84E5           STR      R0,[R4, #+3180]
   3752                      H = inputstreamread() & 0xff;
   \   0000005C   ........           BL       bytearrayinputstreamread
   \   00000060   FF0000E2           AND      R0,R0,#0xFF
   \   00000064   180A84E5           STR      R0,[R4, #+2584]
   3753                      for(int i1 = 0; i1 < d_int_array1d_static_fld_length; i1++)
   \   00000068   0050A0E3           MOV      R5,#+0
   3754                          d_int_array1d_static_fld[i1] = inputstreamread() & 0xff;
   \                     ??c_in_3:
   \   0000006C   ........           BL       bytearrayinputstreamread
   \   00000070   FF0000E2           AND      R0,R0,#0xFF
   \   00000074   051184E0           ADD      R1,R4,R5, LSL #+2
   \   00000078   A80981E5           STR      R0,[R1, #+2472]
   \   0000007C   015085E2           ADD      R5,R5,#+1
   \   00000080   080055E3           CMP      R5,#+8
   \   00000084   F8FFFFBA           BLT      ??c_in_3
   3755          
   3756                      Z = inputstreamread() & 0xff;
   \   00000088   ........           BL       bytearrayinputstreamread
   \   0000008C   FF0000E2           AND      R0,R0,#0xFF
   \   00000090   E40984E5           STR      R0,[R4, #+2532]
   3757                      f_int_static_fld = inputstreamread() & 0xff;
   \   00000094   ........           BL       bytearrayinputstreamread
   \   00000098   FF0000E2           AND      R0,R0,#0xFF
   \   0000009C   E80984E5           STR      R0,[R4, #+2536]
   3758                      n_int_static_fld = inputstreamread() & 0xff;
   \   000000A0   ........           BL       bytearrayinputstreamread
   \   000000A4   FF0000E2           AND      R0,R0,#0xFF
   \   000000A8   EC0984E5           STR      R0,[R4, #+2540]
   3759                      Q = inputstreamread() & 0xff;
   \   000000AC   ........           BL       bytearrayinputstreamread
   \   000000B0   FF0000E2           AND      R0,R0,#0xFF
   \   000000B4   F00984E5           STR      R0,[R4, #+2544]
   3760                      U = inputstreamread() & 0xff;
   \   000000B8   ........           BL       bytearrayinputstreamread
   \   000000BC   FF0000E2           AND      R0,R0,#0xFF
   \   000000C0   680A84E5           STR      R0,[R4, #+2664]
   3761                      m_int_static_fld = inputstreamread() & 0xff;
   \   000000C4   ........           BL       bytearrayinputstreamread
   \   000000C8   FF0000E2           AND      R0,R0,#0xFF
   \   000000CC   700A84E5           STR      R0,[R4, #+2672]
   3762                      d_int_static_fld = inputstreamread() & 0xff;
   \   000000D0   ........           BL       bytearrayinputstreamread
   \   000000D4   FF0000E2           AND      R0,R0,#0xFF
   \   000000D8   6C0A84E5           STR      R0,[R4, #+2668]
   3763                      T = inputstreamread() & 0xff;
   \   000000DC   ........           BL       bytearrayinputstreamread
   \   000000E0   FF0000E2           AND      R0,R0,#0xFF
   \   000000E4   600A84E5           STR      R0,[R4, #+2656]
   3764                      W = inputstreamread() & 0xff;
   \   000000E8   ........           BL       bytearrayinputstreamread
   \   000000EC   FF0000E2           AND      R0,R0,#0xFF
   \   000000F0   640A84E5           STR      R0,[R4, #+2660]
   3765                      k();
   \   000000F4   ........           BL       k
   \   000000F8   B080BDE8           POP      {R4,R5,R7,PC}
   3766                      break;
   3767          
   3768                  case 4: // '\004'
   3769                      I = inputstreamread() & 0xff;
   \                     ??c_in_1:
   \   000000FC   ........           BL       bytearrayinputstreamread
   \   00000100   FF0000E2           AND      R0,R0,#0xFF
   \   00000104   3C0A84E5           STR      R0,[R4, #+2620]
   3770                      e_boolean_static_fld = inputstreamread() == 255;
   \   00000108   ........           BL       bytearrayinputstreamread
   \   0000010C   FF0050E3           CMP      R0,#+255
   \   00000110   0050A013           MOVNE    R5,#+0
   \   00000114   805CC4E5           STRB     R5,[R4, #+3200]
   3771                      F = inputstreamread() & 0xff;
   \   00000118   ........           BL       bytearrayinputstreamread
   \   0000011C   FF0000E2           AND      R0,R0,#0xFF
   \   00000120   400A84E5           STR      R0,[R4, #+2624]
   3772                      for(int j1 = 0; j1 < d_int_array1d_static_fld_length; j1++)
   \   00000124   0050A0E3           MOV      R5,#+0
   3773                          d_int_array1d_static_fld[j1] = inputstreamread() & 0xff;
   \                     ??c_in_4:
   \   00000128   ........           BL       bytearrayinputstreamread
   \   0000012C   FF0000E2           AND      R0,R0,#0xFF
   \   00000130   051184E0           ADD      R1,R4,R5, LSL #+2
   \   00000134   A80981E5           STR      R0,[R1, #+2472]
   \   00000138   015085E2           ADD      R5,R5,#+1
   \   0000013C   080055E3           CMP      R5,#+8
   \   00000140   F8FFFFBA           BLT      ??c_in_4
   3774          
   3775                      G = inputstreamread() & 0xff;
   \   00000144   ........           BL       bytearrayinputstreamread
   \   00000148   FF0000E2           AND      R0,R0,#0xFF
   \   0000014C   380B84E5           STR      R0,[R4, #+2872]
   3776                      J = inputstreamread() & 0xff;
   \   00000150   ........           BL       bytearrayinputstreamread
   \   00000154   FF0000E2           AND      R0,R0,#0xFF
   \   00000158   3C0B84E5           STR      R0,[R4, #+2876]
   3777                      O = inputstreamread() & 0xff;
   \   0000015C   ........           BL       bytearrayinputstreamread
   \   00000160   FF0000E2           AND      R0,R0,#0xFF
   \   00000164   1C0A84E5           STR      R0,[R4, #+2588]
   3778                      g_int_static_fld = inputstreamread() & 0xff;
   \   00000168   ........           BL       bytearrayinputstreamread
   \   0000016C   FF0000E2           AND      R0,R0,#0xFF
   \   00000170   200A84E5           STR      R0,[R4, #+2592]
   3779                      ac = inputstreamread() & 0xff;
   \   00000174   ........           BL       bytearrayinputstreamread
   \   00000178   FF0000E2           AND      R0,R0,#0xFF
   \   0000017C   240A84E5           STR      R0,[R4, #+2596]
   3780                      N = inputstreamread() & 0xff;
   \   00000180   ........           BL       bytearrayinputstreamread
   \   00000184   FF0000E2           AND      R0,R0,#0xFF
   \   00000188   280A84E5           STR      R0,[R4, #+2600]
   3781                      s_int_static_fld = inputstreamread() & 0xff;
   \   0000018C   ........           BL       bytearrayinputstreamread
   \   00000190   FF0000E2           AND      R0,R0,#0xFF
   \   00000194   2C0A84E5           STR      R0,[R4, #+2604]
   3782                      v_int_static_fld = inputstreamread() & 0xff;
   \   00000198   ........           BL       bytearrayinputstreamread
   \   0000019C   FF0000E2           AND      R0,R0,#0xFF
   \   000001A0   300A84E5           STR      R0,[R4, #+2608]
   \   000001A4   B080BDE8           POP      {R4,R5,R7,PC}
   3783                      break;
   3784          
   3785                  case 6: // '\006'
   3786                      I = (inputstreamread() << 8) + inputstreamread();
   \                     ??c_in_2:
   \   000001A8   ........           BL       bytearrayinputstreamread
   \   000001AC   0070A0E1           MOV      R7,R0
   \   000001B0   ........           BL       bytearrayinputstreamread
   \   000001B4   070480E0           ADD      R0,R0,R7, LSL #+8
   \   000001B8   3C0A84E5           STR      R0,[R4, #+2620]
   3787                      e_boolean_static_fld = inputstreamread() == 255;
   \   000001BC   ........           BL       bytearrayinputstreamread
   \   000001C0   FF0050E3           CMP      R0,#+255
   \   000001C4   0050A013           MOVNE    R5,#+0
   \   000001C8   805CC4E5           STRB     R5,[R4, #+3200]
   3788                      break;
   3789                  }
   3790              }
   \   000001CC   B080BDE8           POP      {R4,R5,R7,PC}
   3791          

   \                                 In segment CODE, align 4, keep-with-next
   3792              static void b_out(){//(OutputStream outputstream) throws IOException {
   \                     b_out:
   \   00000000   30402DE9           PUSH     {R4,R5,LR}
   3793                  switch(w) {
   \   00000004   ........           LDR      R4,??DataTable64  ;; j_int_array1d_static_fld
   \   00000008   3C0A94E5           LDR      R0,[R4, #+2620]
   \   0000000C   F41994E5           LDR      R1,[R4, #+2548]
   \   00000010   011051E2           SUBS     R1,R1,#+1
   \   00000014   0400000A           BEQ      ??b_out_0
   \   00000018   031051E2           SUBS     R1,R1,#+3
   \   0000001C   3100000A           BEQ      ??b_out_1
   \   00000020   021051E2           SUBS     R1,R1,#+2
   \   00000024   5900000A           BEQ      ??b_out_2
   \   00000028   3080BDE8           POP      {R4,R5,PC}
   3794                  default:
   3795                      break;
   3796          
   3797                  case 1: // '\001'
   3798                      outputstreamwrite(X >> 8 & 0xff);
   \                     ??b_out_0:
   \   0000002C   4C0A94E5           LDR      R0,[R4, #+2636]
   \   00000030   FF10A0E3           MOV      R1,#+255
   \   00000034   400401E0           AND      R0,R1,R0, ASR #+8
   \   00000038   ........           BL       bytearrayoutputstreamwrite
   3799                      outputstreamwrite(X & 0xff);
   \   0000003C   4C0A94E5           LDR      R0,[R4, #+2636]
   3800                      outputstreamwrite(M & 0xff);
   3801                      outputstreamwrite(H & 0xff);
   3802                      for(int i1 = 0; i1 < d_int_array1d_static_fld_length; i1++)
   \   00000040   0050A0E3           MOV      R5,#+0
   \   00000044   FF0000E2           AND      R0,R0,#0xFF
   \   00000048   ........           BL       bytearrayoutputstreamwrite
   \   0000004C   6C0C94E5           LDR      R0,[R4, #+3180]
   \   00000050   FF0000E2           AND      R0,R0,#0xFF
   \   00000054   ........           BL       bytearrayoutputstreamwrite
   \   00000058   180A94E5           LDR      R0,[R4, #+2584]
   \   0000005C   FF0000E2           AND      R0,R0,#0xFF
   \   00000060   ........           BL       bytearrayoutputstreamwrite
   3803                          outputstreamwrite(d_int_array1d_static_fld[i1] & 0xff);
   \                     ??b_out_3:
   \   00000064   050184E0           ADD      R0,R4,R5, LSL #+2
   \   00000068   A80990E5           LDR      R0,[R0, #+2472]
   \   0000006C   015085E2           ADD      R5,R5,#+1
   \   00000070   FF0000E2           AND      R0,R0,#0xFF
   \   00000074   ........           BL       bytearrayoutputstreamwrite
   \   00000078   080055E3           CMP      R5,#+8
   \   0000007C   F8FFFFBA           BLT      ??b_out_3
   3804          
   3805                      outputstreamwrite(Z & 0xff);
   \   00000080   E40994E5           LDR      R0,[R4, #+2532]
   \   00000084   FF0000E2           AND      R0,R0,#0xFF
   \   00000088   ........           BL       bytearrayoutputstreamwrite
   3806                      outputstreamwrite(f_int_static_fld & 0xff);
   \   0000008C   E80994E5           LDR      R0,[R4, #+2536]
   \   00000090   FF0000E2           AND      R0,R0,#0xFF
   \   00000094   ........           BL       bytearrayoutputstreamwrite
   3807                      outputstreamwrite(n_int_static_fld & 0xff);
   \   00000098   EC0994E5           LDR      R0,[R4, #+2540]
   \   0000009C   FF0000E2           AND      R0,R0,#0xFF
   \   000000A0   ........           BL       bytearrayoutputstreamwrite
   3808                      outputstreamwrite(Q & 0xff);
   \   000000A4   F00994E5           LDR      R0,[R4, #+2544]
   \   000000A8   FF0000E2           AND      R0,R0,#0xFF
   \   000000AC   ........           BL       bytearrayoutputstreamwrite
   3809                      outputstreamwrite(U & 0xff);
   \   000000B0   680A94E5           LDR      R0,[R4, #+2664]
   \   000000B4   FF0000E2           AND      R0,R0,#0xFF
   \   000000B8   ........           BL       bytearrayoutputstreamwrite
   3810                      outputstreamwrite(m_int_static_fld & 0xff);
   \   000000BC   700A94E5           LDR      R0,[R4, #+2672]
   \   000000C0   FF0000E2           AND      R0,R0,#0xFF
   \   000000C4   ........           BL       bytearrayoutputstreamwrite
   3811                      outputstreamwrite(d_int_static_fld & 0xff);
   \   000000C8   6C0A94E5           LDR      R0,[R4, #+2668]
   \   000000CC   FF0000E2           AND      R0,R0,#0xFF
   \   000000D0   ........           BL       bytearrayoutputstreamwrite
   3812                      outputstreamwrite(T & 0xff);
   \   000000D4   600A94E5           LDR      R0,[R4, #+2656]
   \   000000D8   FF0000E2           AND      R0,R0,#0xFF
   \   000000DC   ........           BL       bytearrayoutputstreamwrite
   3813                      outputstreamwrite(W & 0xff);
   \   000000E0   640A94E5           LDR      R0,[R4, #+2660]
   \   000000E4   260000EA           B        ??b_out_4
   3814                      break;
   3815          
   3816                  case 4: // '\004'
   3817                      outputstreamwrite(I & 0xff);
   \                     ??b_out_1:
   \   000000E8   FF0000E2           AND      R0,R0,#0xFF
   \   000000EC   ........           BL       bytearrayoutputstreamwrite
   3818                      outputstreamwrite(e_boolean_static_fld ? 255 : 0);
   \   000000F0   800CD4E5           LDRB     R0,[R4, #+3200]
   3819                      outputstreamwrite(F & 0xff);
   3820                      for(int j1 = 0; j1 < d_int_array1d_static_fld_length; j1++)
   \   000000F4   0050A0E3           MOV      R5,#+0
   \   000000F8   000050E3           CMP      R0,#+0
   \   000000FC   FF00A013           MOVNE    R0,#+255
   \   00000100   ........           BL       bytearrayoutputstreamwrite
   \   00000104   400A94E5           LDR      R0,[R4, #+2624]
   \   00000108   FF0000E2           AND      R0,R0,#0xFF
   \   0000010C   ........           BL       bytearrayoutputstreamwrite
   3821                          outputstreamwrite(d_int_array1d_static_fld[j1] & 0xff);
   \                     ??b_out_5:
   \   00000110   050184E0           ADD      R0,R4,R5, LSL #+2
   \   00000114   A80990E5           LDR      R0,[R0, #+2472]
   \   00000118   015085E2           ADD      R5,R5,#+1
   \   0000011C   FF0000E2           AND      R0,R0,#0xFF
   \   00000120   ........           BL       bytearrayoutputstreamwrite
   \   00000124   080055E3           CMP      R5,#+8
   \   00000128   F8FFFFBA           BLT      ??b_out_5
   3822          
   3823                      outputstreamwrite(G & 0xff);
   \   0000012C   380B94E5           LDR      R0,[R4, #+2872]
   \   00000130   FF0000E2           AND      R0,R0,#0xFF
   \   00000134   ........           BL       bytearrayoutputstreamwrite
   3824                      outputstreamwrite(J & 0xff);
   \   00000138   3C0B94E5           LDR      R0,[R4, #+2876]
   \   0000013C   FF0000E2           AND      R0,R0,#0xFF
   \   00000140   ........           BL       bytearrayoutputstreamwrite
   3825                      outputstreamwrite(O & 0xff);
   \   00000144   1C0A94E5           LDR      R0,[R4, #+2588]
   \   00000148   FF0000E2           AND      R0,R0,#0xFF
   \   0000014C   ........           BL       bytearrayoutputstreamwrite
   3826                      outputstreamwrite(g_int_static_fld & 0xff);
   \   00000150   200A94E5           LDR      R0,[R4, #+2592]
   \   00000154   FF0000E2           AND      R0,R0,#0xFF
   \   00000158   ........           BL       bytearrayoutputstreamwrite
   3827                      outputstreamwrite(ac & 0xff);
   \   0000015C   240A94E5           LDR      R0,[R4, #+2596]
   \   00000160   FF0000E2           AND      R0,R0,#0xFF
   \   00000164   ........           BL       bytearrayoutputstreamwrite
   3828                      outputstreamwrite(N & 0xff);
   \   00000168   280A94E5           LDR      R0,[R4, #+2600]
   \   0000016C   FF0000E2           AND      R0,R0,#0xFF
   \   00000170   ........           BL       bytearrayoutputstreamwrite
   3829                      outputstreamwrite(s_int_static_fld & 0xff);
   \   00000174   2C0A94E5           LDR      R0,[R4, #+2604]
   \   00000178   FF0000E2           AND      R0,R0,#0xFF
   \   0000017C   ........           BL       bytearrayoutputstreamwrite
   3830                      outputstreamwrite(v_int_static_fld & 0xff);
   \   00000180   300A94E5           LDR      R0,[R4, #+2608]
   \                     ??b_out_4:
   \   00000184   FF0000E2           AND      R0,R0,#0xFF
   \                     ??b_out_6:
   \   00000188   ........           BL       bytearrayoutputstreamwrite
   \   0000018C   3080BDE8           POP      {R4,R5,PC}
   3831                      break;
   3832          
   3833                  case 6: // '\006'
   3834                      outputstreamwrite((I & 0xff00) >> 8);
   \                     ??b_out_2:
   \   00000190   0008A0E1           LSL      R0,R0,#+16
   \   00000194   200CA0E1           LSR      R0,R0,#+24
   \   00000198   ........           BL       bytearrayoutputstreamwrite
   3835                      outputstreamwrite(I & 0xff);
   \   0000019C   3C0A94E5           LDR      R0,[R4, #+2620]
   \   000001A0   FF0000E2           AND      R0,R0,#0xFF
   \   000001A4   ........           BL       bytearrayoutputstreamwrite
   3836                      outputstreamwrite(e_boolean_static_fld ? 255 : 0);
   \   000001A8   800CD4E5           LDRB     R0,[R4, #+3200]
   \   000001AC   000050E3           CMP      R0,#+0
   \   000001B0   F4FFFF0A           BEQ      ??b_out_6
   \   000001B4   FF00A0E3           MOV      R0,#+255
   \   000001B8   ........           BL       bytearrayoutputstreamwrite
   \   000001BC   3080BDE8           POP      {R4,R5,PC}
   3837                      break;
   3838                  }
   3839              }
   3840          
   3841              static boolean abool() {
   3842                  return (d_int_array1d_static_fld[0] & 0x40) != 0;
   3843              }
   3844          

   \                                 In segment CODE, align 4, keep-with-next
   3845               int aint1int(int i1) {
   3846                  int j1,k1;
   3847                  switch(i1 >> 13) {
   \                     aint1int:
   \   00000000   ........           LDR      R2,??DataTable64  ;; j_int_array1d_static_fld
   \   00000004   10002DE9           PUSH     {R4}
   \   00000008   5C3A92E5           LDR      R3,[R2, #+2652]
   \   0000000C   C016B0E1           ASRS     R1,R0,#+13
   \   00000010   0600000A           BEQ      ??aint1int_0
   \   00000014   01C051E2           SUBS     R12,R1,#+1
   \   00000018   0700000A           BEQ      ??aint1int_1
   \   0000001C   01C05CE2           SUBS     R12,R12,#+1
   \   00000020   2F00000A           BEQ      ??aint1int_2
   \   00000024   01C05CE2           SUBS     R12,R12,#+1
   \   00000028   3D00000A           BEQ      ??aint1int_3
   \   0000002C   420000EA           B        ??aint1int_4
   3848                  case 0: // '\0'
   3849                      return vram[i1 & 0x7ff] & 0xff;
   \                     ??aint1int_0:
   \   00000030   800AA0E1           LSL      R0,R0,#+21
   \   00000034   A00A83E0           ADD      R0,R3,R0, LSR #+21
   \   00000038   3B0000EA           B        ??aint1int_5
   3850          
   3851                  case 1: // '\001'
   3852                      switch(i1 & 7) {
   \                     ??aint1int_1:
   \   0000003C   2C1B92E5           LDR      R1,[R2, #+2860]
   \   00000040   070000E2           AND      R0,R0,#0x7
   \   00000044   020050E2           SUBS     R0,R0,#+2
   \   00000048   0200000A           BEQ      ??aint1int_6
   \   0000004C   050050E2           SUBS     R0,R0,#+5
   \   00000050   0A00000A           BEQ      ??aint1int_7
   \   00000054   1F0000EA           B        ??aint1int_8
   3853                      case 2: // '\002'
   3854                          b_boolean_static_fld = false;
   \                     ??aint1int_6:
   \   00000058   0000A0E3           MOV      R0,#+0
   \   0000005C   860CC2E5           STRB     R0,[R2, #+3206]
   3855                          j1 = o_int_static_fld;
   \   00000060   0C0A92E5           LDR      R0,[R2, #+2572]
   3856           //debug("aint1",j1,j_int_static_fld);                
   3857                          o_int_static_fld &= 0x7f;
   3858                          j_int_static_fld = j1 & 0xe0 | j_int_static_fld & 0x1f;
   \   00000064   1F1001E2           AND      R1,R1,#0x1F
   \   00000068   7F3000E2           AND      R3,R0,#0x7F
   \   0000006C   0C3A82E5           STR      R3,[R2, #+2572]
   \   00000070   E00000E2           AND      R0,R0,#0xE0
   \   00000074   000081E1           ORR      R0,R1,R0
   \   00000078   2C0B82E5           STR      R0,[R2, #+2860]
   3859          //    debug("aint2",j1,j_int_static_fld);
   3860                          return j_int_static_fld;
   \   0000007C   200000EA           B        ??aint1int_9
   3861          
   3862                      case 7: // '\007'
   3863                          j_int_static_fld = q_int_static_fld;
   \                     ??aint1int_7:
   \   00000080   301B92E5           LDR      R1,[R2, #+2864]
   3864                          i1 = D & 0x3fff;
   \   00000084   54CA92E5           LDR      R12,[R2, #+2644]
   3865                          D += x;
   \   00000088   044B92E5           LDR      R4,[R2, #+2820]
   \   0000008C   2C1B82E5           STR      R1,[R2, #+2860]
   \   00000090   0C09A0E1           LSL      R0,R12,#+18
   \   00000094   2009A0E1           LSR      R0,R0,#+18
   \   00000098   0C4084E0           ADD      R4,R4,R12
   \   0000009C   544A82E5           STR      R4,[R2, #+2644]
   3866                          if(i1 >= 12288)
   \   000000A0   C00D50E3           CMP      R0,#+12288
   3867                              i1 &= 0xefff;
   \   000000A4   FF40A0A3           MOVGE    R4,#+255
   \   000000A8   EF4C84A3           ORRGE    R4,R4,#0xEF00
   \   000000AC   000004A0           ANDGE    R0,R4,R0
   3868                          q_int_static_fld = vram[ram+i_int_array1d_static_fld[i1 >> 10] + (i1 & 0x3ff)] & 0xff;
   \   000000B0   704C92E5           LDR      R4,[R2, #+3184]
   \   000000B4   40C5A0E1           ASR      R12,R0,#+10
   \   000000B8   0CC182E0           ADD      R12,R2,R12, LSL #+2
   \   000000BC   58C99CE5           LDR      R12,[R12, #+2392]
   \   000000C0   000BA0E1           LSL      R0,R0,#+22
   \   000000C4   04408CE0           ADD      R4,R12,R4
   \   000000C8   200B84E0           ADD      R0,R4,R0, LSR #+22
   \   000000CC   D30090E1           LDRSB    R0,[R0, +R3]
   \   000000D0   FF0000E2           AND      R0,R0,#0xFF
   \   000000D4   300B82E5           STR      R0,[R2, #+2864]
   3869                          return j_int_static_fld;
   \                     ??aint1int_8:
   \   000000D8   1000BDE8           POP      {R4}
   \   000000DC   0100A0E1           MOV      R0,R1
   \   000000E0   1EFF2FE1           BX       LR
   3870                      }
   3871                      return j_int_static_fld;
   3872          
   3873                  case 2: // '\002'
   3874                      if(i1 == 16406) {
   \                     ??aint1int_2:
   \   000000E4   1610A0E3           MOV      R1,#+22
   \   000000E8   401C81E3           ORR      R1,R1,#0x4000
   \   000000EC   010050E1           CMP      R0,R1
   \   000000F0   0500001A           BNE      ??aint1int_10
   3875                          k1 = a_int_static_fld & 1;
   \   000000F4   481A92E5           LDR      R1,[R2, #+2632]
   \   000000F8   010001E2           AND      R0,R1,#0x1
   3876                          a_int_static_fld >>= 1;
   \   000000FC   C110A0E1           ASR      R1,R1,#+1
   \   00000100   481A82E5           STR      R1,[R2, #+2632]
   3877                          return k1;
   \                     ??aint1int_9:
   \   00000104   1000BDE8           POP      {R4}
   \   00000108   1EFF2FE1           BX       LR
   3878                      }
   3879                      if(i1 < 16408)
   3880                                   return 0;
   \                     ??aint1int_10:
   \   0000010C   1000BDE8           POP      {R4}
   \   00000110   021081E2           ADD      R1,R1,#+2
   \   00000114   010050E1           CMP      R0,R1
   \   00000118   4004A0A1           ASRGE    R0,R0,#+8
   \   0000011C   0000A0B3           MOVLT    R0,#+0
   \   00000120   1EFF2FE1           BX       LR
   3881            
   3882                      else
   3883                          return i1 >> 8;
   3884          
   3885                  case 3: // '\003'
   3886                      return vram[i1 - 22528] & 0xff;
   \                     ??aint1int_3:
   \   00000124   030080E0           ADD      R0,R0,R3
   \   00000128   580C40E2           SUB      R0,R0,#+22528
   \                     ??aint1int_5:
   \   0000012C   D000D0E1           LDRSB    R0,[R0, #+0]
   \                     ??aint1int_11:
   \   00000130   1000BDE8           POP      {R4}
   \   00000134   FF0000E2           AND      R0,R0,#0xFF
   \   00000138   1EFF2FE1           BX       LR
   3887                  }
   3888                  return vram[b_int_array1d_static_fld[i1 >> 13] + i1] & 0xff;
   \                     ??aint1int_4:
   \   0000013C   011182E0           ADD      R1,R2,R1, LSL #+2
   \   00000140   881991E5           LDR      R1,[R1, #+2440]
   \   00000144   010080E0           ADD      R0,R0,R1
   \   00000148   D30090E1           LDRSB    R0,[R0, +R3]
   \   0000014C   F7FFFFEA           B        ??aint1int_11
   3889              }
   3890          /*
   3891              byte[] bbytes1String(char *s) throws IOException {
   3892          
   3893                  DataInputStream datainputstream = Connector.openDataInputStream(s);
   3894                  int i1 = datainputstream.available();
   3895                  if(i1 < 3) {
   3896                      throw new IOException();
   3897                  } else {
   3898                      byte abyte0[] = new byte[i1];
   3899                      datainputstream.read(abyte0);
   3900                      datainputstream.close();
   3901                      return abyte0;
   3902                  }
   3903            
   3904              InputStream in = getClass().getResourceAsStream("/1"); 
   3905              byte a[] = new byte[in.available()];
   3906              in.read(a);
   3907              in.close();
   3908          	return a;
   3909          	}
   3910          */

   \                                 In segment CODE, align 4, keep-with-next
   3911              void i() {
   3912                  if(m_boolean_static_fld) {
   3913                      aa = (getHeight * B) / 100;
   3914                      if(u_boolean_static_fld)
   3915                          l_int_static_fld = (aa * 240) / 256;
   3916                      else
   3917                          l_int_static_fld = (getWidth * B) / 100;
   3918                      if(aa > 256)
   3919                          aa = 256;
   3920                      if(l_int_static_fld > 240)
   3921                          l_int_static_fld = 240;
   3922                      if(aa < 64)
   3923                          aa = 64;
   3924                      if(l_int_static_fld < 60)
   3925                          l_int_static_fld = 60;
   3926                      //main_a_int_array1d_fld = 
   3927                      if(screens) mfree(screens);
   3928                      Systemgc();
   3929                      //main_a_int_array1d_fld = 
   3930                        screens = (ushort*)malloc(l_int_static_fld * aa*2);
   3931                      for(int i1 = 0; i1 < h_int_array1d_static_fld_length; i1++)
   3932                          h_int_array1d_static_fld[i1] = (((256 - i1 - 1) * aa) / 256) * l_int_static_fld;
   3933          
   3934                      for(int j1 = 0; j1 < c_int_array1d_static_fld_length; j1++)
   3935                          c_int_array1d_static_fld[j1] = (j1 * l_int_static_fld) / 240;
   3936          
   3937                      r_int_static_fld = -l_int_static_fld;
   3938                      h_int_static_fld = 1;
   3939                  } else {
   3940                      l_int_static_fld = (getWidth * B) / 100;
   \                     i:
   \   00000000   ........           LDR      R2,??DataTable59  ;; 0x51eb851f
   \   00000004   70402DE9           PUSH     {R4-R6,LR}
   \   00000008   ........           LDR      R4,??DataTable64  ;; j_int_array1d_static_fld
   \   0000000C   340A94E5           LDR      R0,[R4, #+2612]
   \   00000010   D01994E5           LDR      R1,[R4, #+2512]
   \   00000014   900101E0           MUL      R1,R0,R1
   \   00000018   9231CCE0           SMULL    R3,R12,R2,R1
   3941                      if(u_boolean_static_fld)
   3942                          aa = (l_int_static_fld * 240) / 256;
   3943                      else
   3944                          aa = (getHeight * B) / 100;
   \   0000001C   D42994E5           LDR      R2,[R4, #+2516]
   \   00000020   CCC2A0E1           ASR      R12,R12,#+5
   \   00000024   900202E0           MUL      R2,R0,R2
   \   00000028   ........           LDR      R0,??DataTable59  ;; 0x51eb851f
   \   0000002C   A11F8CE0           ADD      R1,R12,R1, LSR #+31
   \   00000030   9032CCE0           SMULL    R3,R12,R0,R2
   \   00000034   CCC2A0E1           ASR      R12,R12,#+5
   \   00000038   A20F8CE0           ADD      R0,R12,R2, LSR #+31
   3945                      if(l_int_static_fld > 256)
   \   0000003C   0120A0E3           MOV      R2,#+1
   \   00000040   402F82E3           ORR      R2,R2,#0x100
   \   00000044   020051E1           CMP      R1,R2
   3946                          l_int_static_fld = 256;
   \   00000048   401FA0A3           MOVGE    R1,#+256
   3947                      if(aa > 240)
   \   0000004C   F10050E3           CMP      R0,#+241
   3948                          aa = 240;
   \   00000050   F000A0A3           MOVGE    R0,#+240
   3949                      if(l_int_static_fld < 64)
   \   00000054   400051E3           CMP      R1,#+64
   3950                          l_int_static_fld = 64;
   \   00000058   4010A0B3           MOVLT    R1,#+64
   3951                      if(aa < 60)
   \   0000005C   3C0050E3           CMP      R0,#+60
   3952                          aa = 60;
   \   00000060   3C00A0B3           MOVLT    R0,#+60
   \   00000064   380A84E5           STR      R0,[R4, #+2616]
   3953                      //main_a_int_array1d_fld = 
   3954                        if(screens) mfree(screens);
   \   00000068   5C0C94E5           LDR      R0,[R4, #+3164]
   \   0000006C   681C84E5           STR      R1,[R4, #+3176]
   \   00000070   000050E3           CMP      R0,#+0
   \   00000074   0000000A           BEQ      ??i_0
   \   00000078   150000EF           SWI      +21
   3955                      Systemgc();
   3956                      //main_a_int_array1d_fld = 
   3957                        screens = (ushort*)malloc(l_int_static_fld * aa*2);
   \                     ??i_0:
   \   0000007C   680C94E5           LDR      R0,[R4, #+3176]
   \   00000080   381A94E5           LDR      R1,[R4, #+2616]
   \   00000084   910000E0           MUL      R0,R1,R0
   \   00000088   8000A0E1           LSL      R0,R0,#+1
   \   0000008C   140000EF           SWI      +20
   \   00000090   5C0C84E5           STR      R0,[R4, #+3164]
   3958                      for(int k1 = 0; k1 < h_int_array1d_static_fld_length; k1++)
   \   00000094   0010A0E3           MOV      R1,#+0
   3959                          h_int_array1d_static_fld[k1] = (k1 * l_int_static_fld) / 256;
   \                     ??i_1:
   \   00000098   680C94E5           LDR      R0,[R4, #+3176]
   \   0000009C   013184E0           ADD      R3,R4,R1, LSL #+2
   \   000000A0   900102E0           MUL      R2,R0,R1
   \   000000A4   011081E2           ADD      R1,R1,#+1
   \   000000A8   C2C3A0E1           ASR      R12,R2,#+7
   \   000000AC   2C2C82E0           ADD      R2,R2,R12, LSR #+24
   \   000000B0   4224A0E1           ASR      R2,R2,#+8
   \   000000B4   C02083E5           STR      R2,[R3, #+192]
   \   000000B8   450F51E3           CMP      R1,#+276
   \   000000BC   F5FFFFBA           BLT      ??i_1
   3960          
   3961                      for(int l1 = 0; l1 < c_int_array1d_static_fld_length; l1++)
   \   000000C0   0020A0E3           MOV      R2,#+0
   3962                          c_int_array1d_static_fld[l1] = ((l1 * aa) / 240) * l_int_static_fld;
   \                     ??i_2:
   \   000000C4   381A94E5           LDR      R1,[R4, #+2616]
   \   000000C8   30E19FE5           LDR      LR,??i_3         ;; 0xffffffff88888889
   \   000000CC   91020CE0           MUL      R12,R1,R2
   \   000000D0   023184E0           ADD      R3,R4,R2, LSL #+2
   \   000000D4   9E5CC6E0           SMULL    R5,R6,LR,R12
   \   000000D8   012082E2           ADD      R2,R2,#+1
   \   000000DC   0C6086E0           ADD      R6,R6,R12
   \   000000E0   C663A0E1           ASR      R6,R6,#+7
   \   000000E4   AC5F86E0           ADD      R5,R6,R12, LSR #+31
   \   000000E8   900505E0           MUL      R5,R0,R5
   \   000000EC   410F52E3           CMP      R2,#+260
   \   000000F0   105583E5           STR      R5,[R3, #+1296]
   \   000000F4   F2FFFFBA           BLT      ??i_2
   3963          
   3964                      r_int_static_fld = 1;
   \   000000F8   0120A0E3           MOV      R2,#+1
   \   000000FC   642C84E5           STR      R2,[R4, #+3172]
   3965                      h_int_static_fld = l_int_static_fld;
   \   00000100   600C84E5           STR      R0,[R4, #+3168]
   3966                  }
   3967                  for(int i2 = 256; i2 < h_int_array1d_static_fld_length; i2++)
   \   00000104   403FA0E3           MOV      R3,#+256
   3968                      h_int_array1d_static_fld[i2] = h_int_array1d_static_fld[255];
   \                     ??i_4:
   \   00000108   BC6494E5           LDR      R6,[R4, #+1212]
   \   0000010C   035184E0           ADD      R5,R4,R3, LSL #+2
   \   00000110   C06085E5           STR      R6,[R5, #+192]
   \   00000114   013083E2           ADD      R3,R3,#+1
   \   00000118   450F53E3           CMP      R3,#+276
   \   0000011C   F9FFFFBA           BLT      ??i_4
   3969          
   3970                  for(int j2 = 240; j2 < c_int_array1d_static_fld_length; j2++)
   \   00000120   F030A0E3           MOV      R3,#+240
   3971                      c_int_array1d_static_fld[j2] = c_int_array1d_static_fld[239];
   \                     ??i_5:
   \   00000124   CC6894E5           LDR      R6,[R4, #+2252]
   \   00000128   035184E0           ADD      R5,R4,R3, LSL #+2
   \   0000012C   106585E5           STR      R6,[R5, #+1296]
   \   00000130   013083E2           ADD      R3,R3,#+1
   \   00000134   410F53E3           CMP      R3,#+260
   \   00000138   F9FFFFBA           BLT      ??i_5
   3972          
   3973                  for(int k2 = 0; k2 < h_int_array1d_static_fld_length; k2++) {
   \   0000013C   00C0A0E3           MOV      R12,#+0
   \   00000140   030000EA           B        ??i_6
   3974                      a_boolean_array1d_static_fld[k2] = k2 < h_int_array1d_static_fld_length - 1 && h_int_array1d_static_fld[k2] == h_int_array1d_static_fld[k2 + 1];
   \                     ??i_7:
   \   00000144   1350A0E3           MOV      R5,#+19
   \   00000148   405F85E3           ORR      R5,R5,#0x100
   \   0000014C   05005CE1           CMP      R12,R5
   \   00000150   050000AA           BGE      ??i_8
   \                     ??i_6:
   \   00000154   0CE184E0           ADD      LR,R4,R12, LSL #+2
   \   00000158   C0509EE5           LDR      R5,[LR, #+192]
   \   0000015C   C4609EE5           LDR      R6,[LR, #+196]
   \   00000160   060055E1           CMP      R5,R6
   \   00000164   01E0A003           MOVEQ    LR,#+1
   \   00000168   0000000A           BEQ      ??i_9
   \                     ??i_8:
   \   0000016C   00E0A0E3           MOV      LR,#+0
   \                     ??i_9:
   \   00000170   04508CE0           ADD      R5,R12,R4
   \   00000174   94EDC5E5           STRB     LR,[R5, #+3476]
   3975                      f_int_array1d_static_fld[k2] = h_int_array1d_static_fld[k2] - (a_boolean_array1d_static_fld[k2] ? r_int_static_fld : 0);
   \   00000178   945DD5E5           LDRB     R5,[R5, #+3476]
   \   0000017C   0C6184E0           ADD      R6,R4,R12, LSL #+2
   \   00000180   C06096E5           LDR      R6,[R6, #+192]
   \   00000184   000055E3           CMP      R5,#+0
   \   00000188   ........           LDR      R5,??DataTable60  ;; f_int_array1d_static_fld
   \   0000018C   01E0A013           MOVNE    LR,#+1
   \   00000190   00E0A003           MOVEQ    LR,#+0
   \   00000194   0E6046E0           SUB      R6,R6,LR
   \   00000198   0C6185E7           STR      R6,[R5, +R12, LSL #+2]
   3976                  }
   \   0000019C   01C08CE2           ADD      R12,R12,#+1
   \   000001A0   450F5CE3           CMP      R12,#+276
   \   000001A4   E6FFFFBA           BLT      ??i_7
   3977          
   3978                  for(int l2 = 0; l2 < c_int_array1d_static_fld_length; l2++)
   \   000001A8   00C0A0E3           MOV      R12,#+0
   \   000001AC   030000EA           B        ??i_10
   3979                      b_boolean_array1d_static_fld[l2] = l2 < c_int_array1d_static_fld_length - 1 && c_int_array1d_static_fld[l2] == c_int_array1d_static_fld[l2 + 1];
   \                     ??i_11:
   \   000001B0   0350A0E3           MOV      R5,#+3
   \   000001B4   405F85E3           ORR      R5,R5,#0x100
   \   000001B8   05005CE1           CMP      R12,R5
   \   000001BC   050000AA           BGE      ??i_12
   \                     ??i_10:
   \   000001C0   0CE184E0           ADD      LR,R4,R12, LSL #+2
   \   000001C4   10559EE5           LDR      R5,[LR, #+1296]
   \   000001C8   14659EE5           LDR      R6,[LR, #+1300]
   \   000001CC   060055E1           CMP      R5,R6
   \   000001D0   01E0A003           MOVEQ    LR,#+1
   \   000001D4   0000000A           BEQ      ??i_13
   \                     ??i_12:
   \   000001D8   00E0A0E3           MOV      LR,#+0
   \                     ??i_13:
   \   000001DC   04508CE0           ADD      R5,R12,R4
   \   000001E0   90ECC5E5           STRB     LR,[R5, #+3216]
   \   000001E4   01C08CE2           ADD      R12,R12,#+1
   \   000001E8   410F5CE3           CMP      R12,#+260
   \   000001EC   EFFFFFBA           BLT      ??i_11
   3980          
   3981                  main_a_int_fld = l_int_static_fld;
   \   000001F0   C80984E5           STR      R0,[R4, #+2504]
   3982                  main_c_int_fld = aa;
   \   000001F4   CC1984E5           STR      R1,[R4, #+2508]
   3983                  main_b_boolean_fld = true;
   \   000001F8   7C2CC4E5           STRB     R2,[R4, #+3196]
   3984              }
   \   000001FC   7080BDE8           POP      {R4-R6,PC}       ;; return
   \                     ??i_3:
   \   00000200   89888888           DC32     0xffffffff88888889
   3985          
   3986          /*
   3987              static void avoid1OutputStream(OutputStream outputstream) throws IOException {
   3988                  //c c1 = main;
   3989                  outputstream.write(d_boolean_static_fld ? 255 : 0);//c.??
   3990                  outputstream.write(u_boolean_static_fld ? 255 : 0);
   3991                  outputstream.write(m_boolean_static_fld ? 255 : 0);
   3992                  outputstream.write(t_boolean_static_fld ? 255 : 0);
   3993                  outputstream.write(k_boolean_static_fld ? 255 : 0);
   3994                  outputstream.write(B);
   3995                  outputstream.write(A);
   3996                  outputstream.write(b_int_static_fld);
   3997                  outputstream.write(L);
   3998                  //c c2 = main;
   3999                  outputstream.write(f_boolean_static_fld ? 255 : 0);
   4000                  outputstream.write(0);
   4001                  outputstream.write(0);
   4002                  outputstream.write(0);
   4003                  outputstream.write(0);
   4004                  outputstream.write(main.b_int_fld & 0xff);
   4005                  outputstream.write(main.b_int_fld >> 8 & 0xff);
   4006                  outputstream.write(main.e_boolean_fld ? 255 : 0);
   4007                  outputstream.write(main.c_java_lang_String_fld.length());
   4008                  for(int i1 = 0; i1 < main.c_java_lang_String_fld.length(); i1++)
   4009                      outputstream.write(main.c_java_lang_String_fld.charAt(i1) - 48);
   4010          
   4011                  for(int j1 = 0; j1 < key.length; j1++)
   4012                      outputstream.write(key[j1]);
   4013          
   4014              }
   4015          */

   \                                 In segment CODE, align 4, keep-with-next
   4016              static void e(int i1, int j1) {
   \                     e:
   \   00000000   00402DE9           PUSH     {LR}
   \   00000004   0020A0E1           MOV      R2,R0
   \   00000008   0100A0E1           MOV      R0,R1
   4017                  j1 %= Y;
   4018                  b_int_array1d_static_fld[i1 + 4] = (j1 - (i1 + 4 << 13)) + 10240;
   \   0000000C   ........           LDR      R1,??DataTable64  ;; j_int_array1d_static_fld
   \   00000010   023181E0           ADD      R3,R1,R2, LSL #+2
   \   00000014   401B91E5           LDR      R1,[R1, #+2880]
   \   00000018   ........           _BLF     ??div32_a,??rA??div32_a
   \   0000001C   041082E2           ADD      R1,R2,#+4
   \   00000020   810640E0           SUB      R0,R0,R1, LSL #+13
   \   00000024   A00D80E2           ADD      R0,R0,#+10240
   \   00000028   980983E5           STR      R0,[R3, #+2456]
   4019              }
   \   0000002C   0080BDE8           POP      {PC}             ;; return
   4020          

   \                                 In segment CODE, align 4, keep-with-next
   4021              static void xxxxb(int i1, int j1, int k1, int l1) {
   \                     xxxxb:
   \   00000000   70402DE9           PUSH     {R4-R6,LR}
   \   00000004   0140A0E1           MOV      R4,R1
   \   00000008   0250A0E1           MOV      R5,R2
   \   0000000C   0360A0E1           MOV      R6,R3
   4022                  e(0, i1 << 13);
   \   00000010   8016A0E1           LSL      R1,R0,#+13
   \   00000014   0000A0E3           MOV      R0,#+0
   \   00000018   ........           BL       e
   4023                  e(1, j1 << 13);
   \   0000001C   8416A0E1           LSL      R1,R4,#+13
   \   00000020   0100A0E3           MOV      R0,#+1
   \   00000024   ........           BL       e
   4024                  e(2, k1 << 13);
   \   00000028   8516A0E1           LSL      R1,R5,#+13
   \   0000002C   0200A0E3           MOV      R0,#+2
   \   00000030   ........           BL       e
   4025                  e(3, l1 << 13);
   \   00000034   8616A0E1           LSL      R1,R6,#+13
   \   00000038   0300A0E3           MOV      R0,#+3
   \   0000003C   7040BDE8           POP      {R4-R6,LR}       ;; Pop
   \   00000040   ........           B        e                ;; tailcall
   4026              }
   4027          

   \                                 In segment CODE, align 4, keep-with-next
   4028              static void avoid4int(int i1, int j1, int k1, int l1) {
   4029                  i1 &= 3;
   4030                  j1 &= 3;
   4031                  k1 &= 3;
   4032                  l1 &= 3;
   4033                  i_int_array1d_static_fld[8] = 0 + (i1 << 10);
   \                     avoid4int:
   \   00000000   ........           LDR      R12,??DataTable64  ;; j_int_array1d_static_fld
   \   00000004   030000E2           AND      R0,R0,#0x3
   \   00000008   0005A0E1           LSL      R0,R0,#+10
   \   0000000C   78098CE5           STR      R0,[R12, #+2424]
   4034                  i_int_array1d_static_fld[9] = 0 + (j1 << 10);
   \   00000010   030001E2           AND      R0,R1,#0x3
   \   00000014   0005A0E1           LSL      R0,R0,#+10
   \   00000018   7C098CE5           STR      R0,[R12, #+2428]
   4035                  i_int_array1d_static_fld[10] = 0 + (k1 << 10);
   \   0000001C   030002E2           AND      R0,R2,#0x3
   \   00000020   0005A0E1           LSL      R0,R0,#+10
   \   00000024   80098CE5           STR      R0,[R12, #+2432]
   4036                  i_int_array1d_static_fld[11] = 0 + (l1 << 10);
   \   00000028   030003E2           AND      R0,R3,#0x3
   \   0000002C   0005A0E1           LSL      R0,R0,#+10
   \   00000030   84098CE5           STR      R0,[R12, #+2436]
   4037              }
   \   00000034   1EFF2FE1           BX       LR               ;; return
   4038          

   \                                 In segment CODE, align 4, keep-with-next
   4039              static void c(int i1, int j1) {
   4040                  if(E == 0) {
   \                     c:
   \   00000000   ........           LDR      R3,??DataTable64  ;; j_int_array1d_static_fld
   \   00000004   00402DE9           PUSH     {LR}
   \   00000008   0020A0E1           MOV      R2,R0
   \   0000000C   0100A0E1           MOV      R0,R1
   \   00000010   341B93E5           LDR      R1,[R3, #+2868]
   \   00000014   000051E3           CMP      R1,#+0
   \   00000018   0080BD08           POPEQ    {PC}
   4041                      return;
   4042                  } else {
   4043                      j1 %= E;
   \   0000001C   ........           _BLF     ??div32_a,??rA??div32_a
   4044                      i_int_array1d_static_fld[i1 & 7] = j1 + 8192;
   \   00000020   071002E2           AND      R1,R2,#0x7
   \   00000024   011183E0           ADD      R1,R3,R1, LSL #+2
   \   00000028   802D80E2           ADD      R2,R0,#+8192
   \   0000002C   582981E5           STR      R2,[R1, #+2392]
   4045                      l_int_array1d_static_fld[i1 & 7] = j1 >> 1;
   \   00000030   C000A0E1           ASR      R0,R0,#+1
   \   00000034   080B81E5           STR      R0,[R1, #+2824]
   4046                      return;
   \   00000038   0080BDE8           POP      {PC}             ;; return
   4047                  }
   4048              }
   4049          

   \                                 In segment CODE, align 4, keep-with-next
   4050              static void avoid8int(int i1, int j1, int k1, int l1, int i2, int j2, int k2, int l2) {
   \                     avoid8int:
   \   00000000   F0472DE9           PUSH     {R4-R10,LR}
   \   00000004   20709DE5           LDR      R7,[SP, #+32]
   \   00000008   24809DE5           LDR      R8,[SP, #+36]
   \   0000000C   28909DE5           LDR      R9,[SP, #+40]
   \   00000010   2CA09DE5           LDR      R10,[SP, #+44]
   \   00000014   0140A0E1           MOV      R4,R1
   \   00000018   0250A0E1           MOV      R5,R2
   \   0000001C   0360A0E1           MOV      R6,R3
   4051                  c(0, i1 << 10);
   \   00000020   0015A0E1           LSL      R1,R0,#+10
   \   00000024   0000A0E3           MOV      R0,#+0
   \   00000028   ........           BL       c
   4052                  c(1, j1 << 10);
   \   0000002C   0415A0E1           LSL      R1,R4,#+10
   \   00000030   0100A0E3           MOV      R0,#+1
   \   00000034   ........           BL       c
   4053                  c(2, k1 << 10);
   \   00000038   0515A0E1           LSL      R1,R5,#+10
   \   0000003C   0200A0E3           MOV      R0,#+2
   \   00000040   ........           BL       c
   4054                  c(3, l1 << 10);
   \   00000044   0615A0E1           LSL      R1,R6,#+10
   \   00000048   0300A0E3           MOV      R0,#+3
   \   0000004C   ........           BL       c
   4055                  c(4, i2 << 10);
   \   00000050   0715A0E1           LSL      R1,R7,#+10
   \   00000054   0400A0E3           MOV      R0,#+4
   \   00000058   ........           BL       c
   4056                  c(5, j2 << 10);
   \   0000005C   0815A0E1           LSL      R1,R8,#+10
   \   00000060   0500A0E3           MOV      R0,#+5
   \   00000064   ........           BL       c
   4057                  c(6, k2 << 10);
   \   00000068   0915A0E1           LSL      R1,R9,#+10
   \   0000006C   0600A0E3           MOV      R0,#+6
   \   00000070   ........           BL       c
   4058                  c(7, l2 << 10);
   \   00000074   0A15A0E1           LSL      R1,R10,#+10
   \   00000078   0700A0E3           MOV      R0,#+7
   \   0000007C   ........           BL       c
   4059              }
   \   00000080   F087BDE8           POP      {R4-R10,PC}      ;; return
   4060          

   \                                 In segment CODE, align 4, keep-with-next
   4061              static void bvoid2int(int i1, int j1) {
   4062                  if(i1 < 8) {
   \                     bvoid2int:
   \   00000000   ........           LDR      R2,??DataTable64  ;; j_int_array1d_static_fld
   \   00000004   080050E3           CMP      R0,#+8
   \   00000008   002182E0           ADD      R2,R2,R0, LSL #+2
   \   0000000C   070000AA           BGE      ??bvoid2int_0
   4063                      i_int_array1d_static_fld[i1] = 8192 + ((j1 & 0xf) << 10);
   \   00000010   0F0001E2           AND      R0,R1,#0xF
   \   00000014   803DA0E3           MOV      R3,#+8192
   \   00000018   000583E0           ADD      R0,R3,R0, LSL #+10
   \   0000001C   580982E5           STR      R0,[R2, #+2392]
   4064                      l_int_array1d_static_fld[i1] = (j1 & 0xf) << 9;
   \   00000020   0F0001E2           AND      R0,R1,#0xF
   \   00000024   8004A0E1           LSL      R0,R0,#+9
   \   00000028   080B82E5           STR      R0,[R2, #+2824]
   \   0000002C   1EFF2FE1           BX       LR
   4065                  } else
   4066                  if(i1 < 12)
   \                     ??bvoid2int_0:
   \   00000030   0C0050E3           CMP      R0,#+12
   4067                      i_int_array1d_static_fld[i1] = 0 + ((j1 & 3) << 10);
   \   00000034   030001B2           ANDLT    R0,R1,#0x3
   \   00000038   0005A0B1           LSLLT    R0,R0,#+10
   \   0000003C   580982B5           STRLT    R0,[R2, #+2392]
   4068              }
   \   00000040   1EFF2FE1           BX       LR               ;; return
   4069          
   4070              static int aint2int(int i1, int j1) {
   4071                  int k1;
   4072                  if(j1 < 90)
   4073                      k1 = a_short_array1d_static_fld[j1];
   4074                  else
   4075                  if(j1 < 180)
   4076                      k1 = a_short_array1d_static_fld[180 - j1];
   4077                  else
   4078                  if(j1 < 270)
   4079                      k1 = -a_short_array1d_static_fld[j1 - 180];
   4080                  else
   4081                      k1 = -a_short_array1d_static_fld[360 - j1];
   4082                  return (k1 * i1) / 1000;
   4083              }
   4084          

   \                                 In segment CODE, align 4, keep-with-next
   4085              static void b_in(){//(InputStream inputstream) throws IOException {
   \                     b_in:
   \   00000000   F0412DE9           PUSH     {R4-R8,LR}
   4086                  for(int i1 = 0; i1 < 10240; i1++)
   \   00000004   ........           LDR      R4,??DataTable66  ;; j_int_array1d_static_fld
   \   00000008   0050A0E3           MOV      R5,#+0
   4087                      vram[i1] = (byte)inputstreamread();
   \                     ??b_in_0:
   \   0000000C   ........           BL       bytearrayinputstreamread
   \   00000010   5C1A94E5           LDR      R1,[R4, #+2652]
   \   00000014   0100C5E7           STRB     R0,[R5, +R1]
   \   00000018   015085E2           ADD      R5,R5,#+1
   \   0000001C   A00D55E3           CMP      R5,#+10240
   \   00000020   F9FFFFBA           BLT      ??b_in_0
   4088          
   4089                  for(int j1 = 0; j1 < b_int_array1d_static_fld_length; j1++) {
   \   00000024   0050A0E3           MOV      R5,#+0
   4090                      b_int_array1d_static_fld[j1] = (inputstreamread() & 0xff) << 0;
   \                     ??b_in_1:
   \   00000028   056184E0           ADD      R6,R4,R5, LSL #+2
   \   0000002C   ........           BL       bytearrayinputstreamread
   \   00000030   FF0000E2           AND      R0,R0,#0xFF
   \   00000034   880986E5           STR      R0,[R6, #+2440]
   4091                      b_int_array1d_static_fld[j1] |= (inputstreamread() & 0xff) << 8;
   \   00000038   ........           BL       bytearrayinputstreamread
   \   0000003C   881996E5           LDR      R1,[R6, #+2440]
   \   00000040   FF0000E2           AND      R0,R0,#0xFF
   \   00000044   000481E1           ORR      R0,R1,R0, LSL #+8
   \   00000048   880986E5           STR      R0,[R6, #+2440]
   4092                      b_int_array1d_static_fld[j1] |= (inputstreamread() & 0xff) << 16;
   \   0000004C   ........           BL       bytearrayinputstreamread
   \   00000050   881996E5           LDR      R1,[R6, #+2440]
   \   00000054   FF0000E2           AND      R0,R0,#0xFF
   \   00000058   000881E1           ORR      R0,R1,R0, LSL #+16
   \   0000005C   880986E5           STR      R0,[R6, #+2440]
   4093                      b_int_array1d_static_fld[j1] |= (inputstreamread() & 0xff) << 24;
   \   00000060   ........           BL       bytearrayinputstreamread
   \   00000064   881996E5           LDR      R1,[R6, #+2440]
   4094                  }
   \   00000068   015085E2           ADD      R5,R5,#+1
   \   0000006C   000C81E1           ORR      R0,R1,R0, LSL #+24
   \   00000070   880986E5           STR      R0,[R6, #+2440]
   \   00000074   080055E3           CMP      R5,#+8
   \   00000078   EAFFFFBA           BLT      ??b_in_1
   4095          
   4096                  q_boolean_static_fld = inputstreamread() == 255;
   \   0000007C   0150A0E3           MOV      R5,#+1
   \   00000080   ........           BL       bytearrayinputstreamread
   \   00000084   FF0050E3           CMP      R0,#+255
   \   00000088   0100A003           MOVEQ    R0,#+1
   \   0000008C   0000A013           MOVNE    R0,#+0
   \   00000090   7D0CC4E5           STRB     R0,[R4, #+3197]
   4097                  a_int_static_fld = inputstreamread();
   \   00000094   ........           BL       bytearrayinputstreamread
   \   00000098   480A84E5           STR      R0,[R4, #+2632]
   4098                  for(int k1 = 0; k1 < e_int_array1d_static_fld_length; k1++)
   \   0000009C   0070A0E3           MOV      R7,#+0
   4099                      e_int_array1d_static_fld[k1] = inputstreamread() & 0xff;
   \                     ??b_in_2:
   \   000000A0   ........           BL       bytearrayinputstreamread
   \   000000A4   FF0000E2           AND      R0,R0,#0xFF
   \   000000A8   071184E0           ADD      R1,R4,R7, LSL #+2
   \   000000AC   840A81E5           STR      R0,[R1, #+2692]
   \   000000B0   017087E2           ADD      R7,R7,#+1
   \   000000B4   200057E3           CMP      R7,#+32
   \   000000B8   F8FFFFBA           BLT      ??b_in_2
   4100          
   4101                  S = inputstreamread() & 0xff;
   \   000000BC   ........           BL       bytearrayinputstreamread
   \   000000C0   FF0000E2           AND      R0,R0,#0xFF
   \   000000C4   040A84E5           STR      R0,[R4, #+2564]
   4102                  R = inputstreamread() & 0xff;
   \   000000C8   ........           BL       bytearrayinputstreamread
   \   000000CC   FF0000E2           AND      R0,R0,#0xFF
   \   000000D0   080A84E5           STR      R0,[R4, #+2568]
   4103                  o_int_static_fld = inputstreamread() & 0xff;
   \   000000D4   ........           BL       bytearrayinputstreamread
   \   000000D8   FF0000E2           AND      R0,R0,#0xFF
   \   000000DC   0C0A84E5           STR      R0,[R4, #+2572]
   4104                  e_int_static_fld = inputstreamread() & 0xff;
   \   000000E0   ........           BL       bytearrayinputstreamread
   \   000000E4   FF0000E2           AND      R0,R0,#0xFF
   \   000000E8   140A84E5           STR      R0,[R4, #+2580]
   4105                  V = inputstreamread() & 0xff;
   \   000000EC   ........           BL       bytearrayinputstreamread
   \   000000F0   FF0000E2           AND      R0,R0,#0xFF
   \   000000F4   480B84E5           STR      R0,[R4, #+2888]
   4106                  D = (inputstreamread() & 0xff) << 0;
   \   000000F8   ........           BL       bytearrayinputstreamread
   \   000000FC   FF0000E2           AND      R0,R0,#0xFF
   \   00000100   540A84E5           STR      R0,[R4, #+2644]
   4107                  D |= (inputstreamread() & 0xff) << 8;
   \   00000104   ........           BL       bytearrayinputstreamread
   \   00000108   541A94E5           LDR      R1,[R4, #+2644]
   \   0000010C   FF0000E2           AND      R0,R0,#0xFF
   \   00000110   000481E1           ORR      R0,R1,R0, LSL #+8
   \   00000114   540A84E5           STR      R0,[R4, #+2644]
   4108                  D |= (inputstreamread() & 0xff) << 16;
   \   00000118   ........           BL       bytearrayinputstreamread
   \   0000011C   541A94E5           LDR      R1,[R4, #+2644]
   \   00000120   FF0000E2           AND      R0,R0,#0xFF
   \   00000124   000881E1           ORR      R0,R1,R0, LSL #+16
   \   00000128   540A84E5           STR      R0,[R4, #+2644]
   4109                  D |= (inputstreamread() & 0xff) << 24;
   \   0000012C   ........           BL       bytearrayinputstreamread
   \   00000130   541A94E5           LDR      R1,[R4, #+2644]
   4110                  y = (inputstreamread() & 0xff) << 0;
   4111                  y |= (inputstreamread() & 0xff) << 8;
   4112                  y |= (inputstreamread() & 0xff) << 16;
   4113                  y |= (inputstreamread() & 0xff) << 24;
   4114                  c_int_static_fld = inputstreamread() & 0xff;
   4115                  ab = inputstreamread() & 0xff;
   4116                  q_int_static_fld = inputstreamread() & 0xff;
   4117                  j_int_static_fld = inputstreamread() & 0xff;
   4118                  for(int l1 = 0; l1 < i_int_array1d_static_fld_length; l1++) {
   \   00000134   0070A0E3           MOV      R7,#+0
   \   00000138   000C81E1           ORR      R0,R1,R0, LSL #+24
   \   0000013C   540A84E5           STR      R0,[R4, #+2644]
   \   00000140   ........           BL       bytearrayinputstreamread
   \   00000144   FF0000E2           AND      R0,R0,#0xFF
   \   00000148   500A84E5           STR      R0,[R4, #+2640]
   \   0000014C   ........           BL       bytearrayinputstreamread
   \   00000150   501A94E5           LDR      R1,[R4, #+2640]
   \   00000154   FF0000E2           AND      R0,R0,#0xFF
   \   00000158   000481E1           ORR      R0,R1,R0, LSL #+8
   \   0000015C   500A84E5           STR      R0,[R4, #+2640]
   \   00000160   ........           BL       bytearrayinputstreamread
   \   00000164   501A94E5           LDR      R1,[R4, #+2640]
   \   00000168   FF0000E2           AND      R0,R0,#0xFF
   \   0000016C   000881E1           ORR      R0,R1,R0, LSL #+16
   \   00000170   500A84E5           STR      R0,[R4, #+2640]
   \   00000174   ........           BL       bytearrayinputstreamread
   \   00000178   501A94E5           LDR      R1,[R4, #+2640]
   \   0000017C   000C81E1           ORR      R0,R1,R0, LSL #+24
   \   00000180   500A84E5           STR      R0,[R4, #+2640]
   \   00000184   ........           BL       bytearrayinputstreamread
   \   00000188   FF0000E2           AND      R0,R0,#0xFF
   \   0000018C   580A84E5           STR      R0,[R4, #+2648]
   \   00000190   ........           BL       bytearrayinputstreamread
   \   00000194   FF0000E2           AND      R0,R0,#0xFF
   \   00000198   000A84E5           STR      R0,[R4, #+2560]
   \   0000019C   ........           BL       bytearrayinputstreamread
   \   000001A0   FF0000E2           AND      R0,R0,#0xFF
   \   000001A4   300B84E5           STR      R0,[R4, #+2864]
   \   000001A8   ........           BL       bytearrayinputstreamread
   \   000001AC   FF0000E2           AND      R0,R0,#0xFF
   \   000001B0   2C0B84E5           STR      R0,[R4, #+2860]
   4119                      i_int_array1d_static_fld[l1] = (inputstreamread() & 0xff) << 0;
   \                     ??b_in_3:
   \   000001B4   078184E0           ADD      R8,R4,R7, LSL #+2
   \   000001B8   ........           BL       bytearrayinputstreamread
   \   000001BC   FF0000E2           AND      R0,R0,#0xFF
   \   000001C0   580988E5           STR      R0,[R8, #+2392]
   4120                      i_int_array1d_static_fld[l1] |= (inputstreamread() & 0xff) << 8;
   \   000001C4   ........           BL       bytearrayinputstreamread
   \   000001C8   581998E5           LDR      R1,[R8, #+2392]
   \   000001CC   FF0000E2           AND      R0,R0,#0xFF
   \   000001D0   000481E1           ORR      R0,R1,R0, LSL #+8
   \   000001D4   580988E5           STR      R0,[R8, #+2392]
   4121                      i_int_array1d_static_fld[l1] |= (inputstreamread() & 0xff) << 16;
   \   000001D8   ........           BL       bytearrayinputstreamread
   \   000001DC   581998E5           LDR      R1,[R8, #+2392]
   \   000001E0   FF0000E2           AND      R0,R0,#0xFF
   \   000001E4   000881E1           ORR      R0,R1,R0, LSL #+16
   \   000001E8   580988E5           STR      R0,[R8, #+2392]
   4122                      i_int_array1d_static_fld[l1] |= (inputstreamread() & 0xff) << 24;
   \   000001EC   ........           BL       bytearrayinputstreamread
   \   000001F0   581998E5           LDR      R1,[R8, #+2392]
   4123                  }
   \   000001F4   017087E2           ADD      R7,R7,#+1
   \   000001F8   000C81E1           ORR      R0,R1,R0, LSL #+24
   \   000001FC   580988E5           STR      R0,[R8, #+2392]
   \   00000200   0C0057E3           CMP      R7,#+12
   \   00000204   EAFFFFBA           BLT      ??b_in_3
   4124          
   4125                  for(int i2 = 0; i2 < l_int_array1d_static_fld_length; i2++) {
   \   00000208   0070A0E3           MOV      R7,#+0
   4126                      l_int_array1d_static_fld[i2] = (inputstreamread() & 0xff) << 0;
   \                     ??b_in_4:
   \   0000020C   078184E0           ADD      R8,R4,R7, LSL #+2
   \   00000210   ........           BL       bytearrayinputstreamread
   \   00000214   FF0000E2           AND      R0,R0,#0xFF
   \   00000218   080B88E5           STR      R0,[R8, #+2824]
   4127                      l_int_array1d_static_fld[i2] |= (inputstreamread() & 0xff) << 8;
   \   0000021C   ........           BL       bytearrayinputstreamread
   \   00000220   081B98E5           LDR      R1,[R8, #+2824]
   \   00000224   FF0000E2           AND      R0,R0,#0xFF
   \   00000228   000481E1           ORR      R0,R1,R0, LSL #+8
   \   0000022C   080B88E5           STR      R0,[R8, #+2824]
   4128                      l_int_array1d_static_fld[i2] |= (inputstreamread() & 0xff) << 16;
   \   00000230   ........           BL       bytearrayinputstreamread
   \   00000234   081B98E5           LDR      R1,[R8, #+2824]
   \   00000238   FF0000E2           AND      R0,R0,#0xFF
   \   0000023C   000881E1           ORR      R0,R1,R0, LSL #+16
   \   00000240   080B88E5           STR      R0,[R8, #+2824]
   4129                      l_int_array1d_static_fld[i2] |= (inputstreamread() & 0xff) << 24;
   \   00000244   ........           BL       bytearrayinputstreamread
   \   00000248   081B98E5           LDR      R1,[R8, #+2824]
   4130                  }
   \   0000024C   017087E2           ADD      R7,R7,#+1
   \   00000250   000C81E1           ORR      R0,R1,R0, LSL #+24
   \   00000254   080B88E5           STR      R0,[R8, #+2824]
   \   00000258   080057E3           CMP      R7,#+8
   \   0000025C   EAFFFFBA           BLT      ??b_in_4
   4131          
   4132                  short c1 = 0x2000;//'\u2000';
   4133                  if(E == 0)
   \   00000260   340B94E5           LDR      R0,[R4, #+2868]
   \   00000264   807DA0E3           MOV      R7,#+8192
   \   00000268   000050E3           CMP      R0,#+0
   4134                      c1 = 0x4000;//'\u4000';
   \   0000026C   407CA003           MOVEQ    R7,#+16384
   4135                  for(int j2 = 0; j2 < c1; j2++) {
   \   00000270   0080A0E3           MOV      R8,#+0
   \   00000274   360000EA           B        ??b_in_5
   4136                      vram[j2+ram] = (byte)inputstreamread();
   \                     ??b_in_6:
   \   00000278   ........           BL       bytearrayinputstreamread
   \   0000027C   701C94E5           LDR      R1,[R4, #+3184]
   \   00000280   5C2A94E5           LDR      R2,[R4, #+2652]
   \   00000284   083081E0           ADD      R3,R1,R8
   \   00000288   023083E0           ADD      R3,R3,R2
   \   0000028C   0000C3E5           STRB     R0,[R3, #+0]
   4137                      if((j2 & 8) != 0 && j2 >= 8192) {
   \   00000290   080018E3           TST      R8,#0x8
   \   00000294   2D00000A           BEQ      ??b_in_7
   \   00000298   800D58E3           CMP      R8,#+8192
   \   0000029C   2B0000BA           BLT      ??b_in_7
   4138                          int l2 = vram[ram+(j2 ^ 8)] & 0xff;
   \   000002A0   080028E2           EOR      R0,R8,#0x8
   \   000002A4   010080E0           ADD      R0,R0,R1
   \   000002A8   D20090E1           LDRSB    R0,[R0, +R2]
   4139                          int i3 = vram[ram+j2] & 0xff;
   \   000002AC   D010D3E1           LDRSB    R1,[R3, #+0]
   4140                          int j3 = ((j2 & 0xfffffff0) >> 1 | j2 & 7) - 4096;
   4141                          a_char_array1d_static_fld[j3] = (short)(l2 & 1 | (l2 & 2) << 1 | (l2 & 4) << 2 | (l2 & 8) << 3 | (l2 & 0x10) << 4 | (l2 & 0x20) << 5 | (l2 & 0x40) << 6 | (l2 & 0x80) << 7 | (i3 & 1) << 1 | (i3 & 2) << 2 | (i3 & 4) << 3 | (i3 & 8) << 4 | (i3 & 0x10) << 5 | (i3 & 0x20) << 6 | (i3 & 0x40) << 7 | (i3 & 0x80) << 8);
   \   000002B0   0F20C8E3           BIC      R2,R8,#0xF
   \   000002B4   073008E2           AND      R3,R8,#0x7
   \   000002B8   A22083E1           ORR      R2,R3,R2, LSR #+1
   \   000002BC   283B94E5           LDR      R3,[R4, #+2856]
   \   000002C0   FF0000E2           AND      R0,R0,#0xFF
   \   000002C4   FF1001E2           AND      R1,R1,#0xFF
   \   000002C8   822083E0           ADD      R2,R3,R2, LSL #+1
   \   000002CC   802D42E2           SUB      R2,R2,#+8192
   \   000002D0   013000E2           AND      R3,R0,#0x1
   \   000002D4   02C000E2           AND      R12,R0,#0x2
   \   000002D8   8C3083E1           ORR      R3,R3,R12, LSL #+1
   \   000002DC   04C000E2           AND      R12,R0,#0x4
   \   000002E0   0C3183E1           ORR      R3,R3,R12, LSL #+2
   \   000002E4   08C000E2           AND      R12,R0,#0x8
   \   000002E8   8C3183E1           ORR      R3,R3,R12, LSL #+3
   \   000002EC   10C000E2           AND      R12,R0,#0x10
   \   000002F0   0C3283E1           ORR      R3,R3,R12, LSL #+4
   \   000002F4   20C000E2           AND      R12,R0,#0x20
   \   000002F8   8C3283E1           ORR      R3,R3,R12, LSL #+5
   \   000002FC   40C000E2           AND      R12,R0,#0x40
   \   00000300   0C3383E1           ORR      R3,R3,R12, LSL #+6
   \   00000304   800000E2           AND      R0,R0,#0x80
   \   00000308   800383E1           ORR      R0,R3,R0, LSL #+7
   \   0000030C   013001E2           AND      R3,R1,#0x1
   \   00000310   830080E1           ORR      R0,R0,R3, LSL #+1
   \   00000314   023001E2           AND      R3,R1,#0x2
   \   00000318   030180E1           ORR      R0,R0,R3, LSL #+2
   \   0000031C   043001E2           AND      R3,R1,#0x4
   \   00000320   830180E1           ORR      R0,R0,R3, LSL #+3
   \   00000324   083001E2           AND      R3,R1,#0x8
   \   00000328   030280E1           ORR      R0,R0,R3, LSL #+4
   \   0000032C   103001E2           AND      R3,R1,#0x10
   \   00000330   830280E1           ORR      R0,R0,R3, LSL #+5
   \   00000334   203001E2           AND      R3,R1,#0x20
   \   00000338   030380E1           ORR      R0,R0,R3, LSL #+6
   \   0000033C   403001E2           AND      R3,R1,#0x40
   \   00000340   830380E1           ORR      R0,R0,R3, LSL #+7
   \   00000344   801001E2           AND      R1,R1,#0x80
   \   00000348   010480E1           ORR      R0,R0,R1, LSL #+8
   \   0000034C   B000C2E1           STRH     R0,[R2, #+0]
   4142                      }
   4143                  }
   \                     ??b_in_7:
   \   00000350   018088E2           ADD      R8,R8,#+1
   \                     ??b_in_5:
   \   00000354   070058E1           CMP      R8,R7
   \   00000358   C6FFFFBA           BLT      ??b_in_6
   4144          
   4145                  b_boolean_static_fld = inputstreamread() == 255;
   \   0000035C   ........           BL       bytearrayinputstreamread
   \   00000360   FF0050E3           CMP      R0,#+255
   \   00000364   0050A013           MOVNE    R5,#+0
   \   00000368   865CC4E5           STRB     R5,[R4, #+3206]
   4146                  x = inputstreamread() & 0xff;
   \   0000036C   ........           BL       bytearrayinputstreamread
   \   00000370   FF0000E2           AND      R0,R0,#0xFF
   \   00000374   040B84E5           STR      R0,[R4, #+2820]
   4147                  for(int k2 = 0; k2 < d_byte_array1d_static_fld_length; k2++)
   \   00000378   0050A0E3           MOV      R5,#+0
   \   0000037C   B56EA0E3           MOV      R6,#+2896
   4148                      d_byte_array1d_static_fld[k2] = (byte)inputstreamread();
   \                     ??b_in_8:
   \   00000380   ........           BL       bytearrayinputstreamread
   \   00000384   041085E0           ADD      R1,R5,R4
   \   00000388   0100C6E7           STRB     R0,[R6, +R1]
   \   0000038C   015085E2           ADD      R5,R5,#+1
   \   00000390   400F55E3           CMP      R5,#+256
   \   00000394   F9FFFFBA           BLT      ??b_in_8
   4149          
   4150                  p_int_static_fld = d_byte_array1d_static_fld[0] & 0xff;
   \   00000398   D40096E1           LDRSB    R0,[R6, +R4]
   \   0000039C   FF0000E2           AND      R0,R0,#0xFF
   \   000003A0   4C0B84E5           STR      R0,[R4, #+2892]
   4151                  C = inputstreamread() & 0xff;
   \   000003A4   ........           BL       bytearrayinputstreamread
   \   000003A8   FF0000E2           AND      R0,R0,#0xFF
   \   000003AC   500C84E5           STR      R0,[R4, #+3152]
   4152                  j();
   \   000003B0   ........           BL       j
   4153              }
   \   000003B4   F081BDE8           POP      {R4-R8,PC}       ;; return
   4154          

   \                                 In segment CODE, align 4, keep-with-next
   4155              static void c_out(){//(OutputStream outputstream) throws IOException {
   \                     c_out:
   \   00000000   70402DE9           PUSH     {R4-R6,LR}
   4156                  for(int i1 = 0; i1 < 10240; i1++)
   \   00000004   ........           LDR      R4,??DataTable66  ;; j_int_array1d_static_fld
   \   00000008   0050A0E3           MOV      R5,#+0
   4157                      outputstreamwrite(vram[i1] & 0xff);
   \                     ??c_out_0:
   \   0000000C   5C0A94E5           LDR      R0,[R4, #+2652]
   \   00000010   D00095E1           LDRSB    R0,[R5, +R0]
   \   00000014   015085E2           ADD      R5,R5,#+1
   \   00000018   FF0000E2           AND      R0,R0,#0xFF
   \   0000001C   ........           BL       bytearrayoutputstreamwrite
   \   00000020   A00D55E3           CMP      R5,#+10240
   \   00000024   F8FFFFBA           BLT      ??c_out_0
   4158          
   4159                  for(int j1 = 0; j1 < b_int_array1d_static_fld_length; j1++) {
   \   00000028   0050A0E3           MOV      R5,#+0
   4160                      outputstreamwrite(b_int_array1d_static_fld[j1] >> 0 & 0xff);
   \                     ??c_out_1:
   \   0000002C   056184E0           ADD      R6,R4,R5, LSL #+2
   \   00000030   880996E5           LDR      R0,[R6, #+2440]
   4161                      outputstreamwrite(b_int_array1d_static_fld[j1] >> 8 & 0xff);
   4162                      outputstreamwrite(b_int_array1d_static_fld[j1] >> 16 & 0xff);
   4163                      outputstreamwrite(b_int_array1d_static_fld[j1] >> 24 & 0xff);
   4164                  }
   \   00000034   015085E2           ADD      R5,R5,#+1
   \   00000038   FF0000E2           AND      R0,R0,#0xFF
   \   0000003C   ........           BL       bytearrayoutputstreamwrite
   \   00000040   880996E5           LDR      R0,[R6, #+2440]
   \   00000044   FF10A0E3           MOV      R1,#+255
   \   00000048   400401E0           AND      R0,R1,R0, ASR #+8
   \   0000004C   ........           BL       bytearrayoutputstreamwrite
   \   00000050   880996E5           LDR      R0,[R6, #+2440]
   \   00000054   FF10A0E3           MOV      R1,#+255
   \   00000058   400801E0           AND      R0,R1,R0, ASR #+16
   \   0000005C   ........           BL       bytearrayoutputstreamwrite
   \   00000060   880996E5           LDR      R0,[R6, #+2440]
   \   00000064   FF10A0E3           MOV      R1,#+255
   \   00000068   400C01E0           AND      R0,R1,R0, ASR #+24
   \   0000006C   ........           BL       bytearrayoutputstreamwrite
   \   00000070   080055E3           CMP      R5,#+8
   \   00000074   ECFFFFBA           BLT      ??c_out_1
   4165          
   4166                  outputstreamwrite(q_boolean_static_fld ? 255 : 0);
   \   00000078   7D0CD4E5           LDRB     R0,[R4, #+3197]
   4167                  outputstreamwrite(a_int_static_fld & 0xff);
   4168                  for(int k1 = 0; k1 < e_int_array1d_static_fld_length; k1++)
   \   0000007C   0050A0E3           MOV      R5,#+0
   \   00000080   000050E3           CMP      R0,#+0
   \   00000084   FF00A013           MOVNE    R0,#+255
   \   00000088   ........           BL       bytearrayoutputstreamwrite
   \   0000008C   480A94E5           LDR      R0,[R4, #+2632]
   \   00000090   FF0000E2           AND      R0,R0,#0xFF
   \   00000094   ........           BL       bytearrayoutputstreamwrite
   4169                      outputstreamwrite(e_int_array1d_static_fld[k1] & 0xff);
   \                     ??c_out_2:
   \   00000098   050184E0           ADD      R0,R4,R5, LSL #+2
   \   0000009C   840A90E5           LDR      R0,[R0, #+2692]
   \   000000A0   015085E2           ADD      R5,R5,#+1
   \   000000A4   FF0000E2           AND      R0,R0,#0xFF
   \   000000A8   ........           BL       bytearrayoutputstreamwrite
   \   000000AC   200055E3           CMP      R5,#+32
   \   000000B0   F8FFFFBA           BLT      ??c_out_2
   4170          
   4171                  outputstreamwrite(S & 0xff);
   \   000000B4   040A94E5           LDR      R0,[R4, #+2564]
   4172                  outputstreamwrite(R & 0xff);
   4173                  outputstreamwrite(o_int_static_fld & 0xff);
   4174                  outputstreamwrite(e_int_static_fld & 0xff);
   4175                  outputstreamwrite(V & 0xff);
   4176                  outputstreamwrite(D >> 0 & 0xff);
   4177                  outputstreamwrite(D >> 8 & 0xff);
   4178                  outputstreamwrite(D >> 16 & 0xff);
   4179                  outputstreamwrite(D >> 24 & 0xff);
   4180                  outputstreamwrite(y >> 0 & 0xff);
   4181                  outputstreamwrite(y >> 8 & 0xff);
   4182                  outputstreamwrite(y >> 16 & 0xff);
   4183                  outputstreamwrite(y >> 24 & 0xff);
   4184                  outputstreamwrite(c_int_static_fld & 0xff);
   4185                  outputstreamwrite(ab & 0xff);
   4186                  outputstreamwrite(q_int_static_fld & 0xff);
   4187                  outputstreamwrite(j_int_static_fld & 0xff);
   4188                  for(int l1 = 0; l1 < i_int_array1d_static_fld_length; l1++) {
   \   000000B8   0050A0E3           MOV      R5,#+0
   \   000000BC   FF0000E2           AND      R0,R0,#0xFF
   \   000000C0   ........           BL       bytearrayoutputstreamwrite
   \   000000C4   080A94E5           LDR      R0,[R4, #+2568]
   \   000000C8   FF0000E2           AND      R0,R0,#0xFF
   \   000000CC   ........           BL       bytearrayoutputstreamwrite
   \   000000D0   0C0A94E5           LDR      R0,[R4, #+2572]
   \   000000D4   FF0000E2           AND      R0,R0,#0xFF
   \   000000D8   ........           BL       bytearrayoutputstreamwrite
   \   000000DC   140A94E5           LDR      R0,[R4, #+2580]
   \   000000E0   FF0000E2           AND      R0,R0,#0xFF
   \   000000E4   ........           BL       bytearrayoutputstreamwrite
   \   000000E8   480B94E5           LDR      R0,[R4, #+2888]
   \   000000EC   FF0000E2           AND      R0,R0,#0xFF
   \   000000F0   ........           BL       bytearrayoutputstreamwrite
   \   000000F4   540A94E5           LDR      R0,[R4, #+2644]
   \   000000F8   FF0000E2           AND      R0,R0,#0xFF
   \   000000FC   ........           BL       bytearrayoutputstreamwrite
   \   00000100   540A94E5           LDR      R0,[R4, #+2644]
   \   00000104   FF10A0E3           MOV      R1,#+255
   \   00000108   400401E0           AND      R0,R1,R0, ASR #+8
   \   0000010C   ........           BL       bytearrayoutputstreamwrite
   \   00000110   540A94E5           LDR      R0,[R4, #+2644]
   \   00000114   FF10A0E3           MOV      R1,#+255
   \   00000118   400801E0           AND      R0,R1,R0, ASR #+16
   \   0000011C   ........           BL       bytearrayoutputstreamwrite
   \   00000120   540A94E5           LDR      R0,[R4, #+2644]
   \   00000124   FF10A0E3           MOV      R1,#+255
   \   00000128   400C01E0           AND      R0,R1,R0, ASR #+24
   \   0000012C   ........           BL       bytearrayoutputstreamwrite
   \   00000130   500A94E5           LDR      R0,[R4, #+2640]
   \   00000134   FF0000E2           AND      R0,R0,#0xFF
   \   00000138   ........           BL       bytearrayoutputstreamwrite
   \   0000013C   500A94E5           LDR      R0,[R4, #+2640]
   \   00000140   FF10A0E3           MOV      R1,#+255
   \   00000144   400401E0           AND      R0,R1,R0, ASR #+8
   \   00000148   ........           BL       bytearrayoutputstreamwrite
   \   0000014C   500A94E5           LDR      R0,[R4, #+2640]
   \   00000150   FF10A0E3           MOV      R1,#+255
   \   00000154   400801E0           AND      R0,R1,R0, ASR #+16
   \   00000158   ........           BL       bytearrayoutputstreamwrite
   \   0000015C   500A94E5           LDR      R0,[R4, #+2640]
   \   00000160   FF10A0E3           MOV      R1,#+255
   \   00000164   400C01E0           AND      R0,R1,R0, ASR #+24
   \   00000168   ........           BL       bytearrayoutputstreamwrite
   \   0000016C   580A94E5           LDR      R0,[R4, #+2648]
   \   00000170   FF0000E2           AND      R0,R0,#0xFF
   \   00000174   ........           BL       bytearrayoutputstreamwrite
   \   00000178   000A94E5           LDR      R0,[R4, #+2560]
   \   0000017C   FF0000E2           AND      R0,R0,#0xFF
   \   00000180   ........           BL       bytearrayoutputstreamwrite
   \   00000184   300B94E5           LDR      R0,[R4, #+2864]
   \   00000188   FF0000E2           AND      R0,R0,#0xFF
   \   0000018C   ........           BL       bytearrayoutputstreamwrite
   \   00000190   2C0B94E5           LDR      R0,[R4, #+2860]
   \   00000194   FF0000E2           AND      R0,R0,#0xFF
   \   00000198   ........           BL       bytearrayoutputstreamwrite
   4189                      outputstreamwrite(i_int_array1d_static_fld[l1] >> 0 & 0xff);
   \                     ??c_out_3:
   \   0000019C   056184E0           ADD      R6,R4,R5, LSL #+2
   \   000001A0   580996E5           LDR      R0,[R6, #+2392]
   4190                      outputstreamwrite(i_int_array1d_static_fld[l1] >> 8 & 0xff);
   4191                      outputstreamwrite(i_int_array1d_static_fld[l1] >> 16 & 0xff);
   4192                      outputstreamwrite(i_int_array1d_static_fld[l1] >> 24 & 0xff);
   4193                  }
   \   000001A4   015085E2           ADD      R5,R5,#+1
   \   000001A8   FF0000E2           AND      R0,R0,#0xFF
   \   000001AC   ........           BL       bytearrayoutputstreamwrite
   \   000001B0   580996E5           LDR      R0,[R6, #+2392]
   \   000001B4   FF10A0E3           MOV      R1,#+255
   \   000001B8   400401E0           AND      R0,R1,R0, ASR #+8
   \   000001BC   ........           BL       bytearrayoutputstreamwrite
   \   000001C0   580996E5           LDR      R0,[R6, #+2392]
   \   000001C4   FF10A0E3           MOV      R1,#+255
   \   000001C8   400801E0           AND      R0,R1,R0, ASR #+16
   \   000001CC   ........           BL       bytearrayoutputstreamwrite
   \   000001D0   580996E5           LDR      R0,[R6, #+2392]
   \   000001D4   FF10A0E3           MOV      R1,#+255
   \   000001D8   400C01E0           AND      R0,R1,R0, ASR #+24
   \   000001DC   ........           BL       bytearrayoutputstreamwrite
   \   000001E0   0C0055E3           CMP      R5,#+12
   \   000001E4   ECFFFFBA           BLT      ??c_out_3
   4194          
   4195                  for(int i2 = 0; i2 < l_int_array1d_static_fld_length; i2++) {
   \   000001E8   0050A0E3           MOV      R5,#+0
   4196                      outputstreamwrite(l_int_array1d_static_fld[i2] >> 0 & 0xff);
   \                     ??c_out_4:
   \   000001EC   056184E0           ADD      R6,R4,R5, LSL #+2
   \   000001F0   080B96E5           LDR      R0,[R6, #+2824]
   4197                      outputstreamwrite(l_int_array1d_static_fld[i2] >> 8 & 0xff);
   4198                      outputstreamwrite(l_int_array1d_static_fld[i2] >> 16 & 0xff);
   4199                      outputstreamwrite(l_int_array1d_static_fld[i2] >> 24 & 0xff);
   4200                  }
   \   000001F4   015085E2           ADD      R5,R5,#+1
   \   000001F8   FF0000E2           AND      R0,R0,#0xFF
   \   000001FC   ........           BL       bytearrayoutputstreamwrite
   \   00000200   080B96E5           LDR      R0,[R6, #+2824]
   \   00000204   FF10A0E3           MOV      R1,#+255
   \   00000208   400401E0           AND      R0,R1,R0, ASR #+8
   \   0000020C   ........           BL       bytearrayoutputstreamwrite
   \   00000210   080B96E5           LDR      R0,[R6, #+2824]
   \   00000214   FF10A0E3           MOV      R1,#+255
   \   00000218   400801E0           AND      R0,R1,R0, ASR #+16
   \   0000021C   ........           BL       bytearrayoutputstreamwrite
   \   00000220   080B96E5           LDR      R0,[R6, #+2824]
   \   00000224   FF10A0E3           MOV      R1,#+255
   \   00000228   400C01E0           AND      R0,R1,R0, ASR #+24
   \   0000022C   ........           BL       bytearrayoutputstreamwrite
   \   00000230   080055E3           CMP      R5,#+8
   \   00000234   ECFFFFBA           BLT      ??c_out_4
   4201          
   4202                  short c1 = 0x2000;//'\u2000';
   4203                  if(E == 0)
   \   00000238   340B94E5           LDR      R0,[R4, #+2868]
   \   0000023C   805DA0E3           MOV      R5,#+8192
   \   00000240   000050E3           CMP      R0,#+0
   4204                      c1 = 0x4000;//'\u4000';
   \   00000244   405CA003           MOVEQ    R5,#+16384
   4205                  for(int j2 = 0; j2 < c1; j2++)
   \   00000248   0060A0E3           MOV      R6,#+0
   \   0000024C   060000EA           B        ??c_out_5
   4206                      outputstreamwrite(vram[ram+j2] & 0xff);
   \                     ??c_out_6:
   \   00000250   700C94E5           LDR      R0,[R4, #+3184]
   \   00000254   5C1A94E5           LDR      R1,[R4, #+2652]
   \   00000258   000086E0           ADD      R0,R6,R0
   \   0000025C   D10090E1           LDRSB    R0,[R0, +R1]
   \   00000260   016086E2           ADD      R6,R6,#+1
   \   00000264   FF0000E2           AND      R0,R0,#0xFF
   \   00000268   ........           BL       bytearrayoutputstreamwrite
   \                     ??c_out_5:
   \   0000026C   050056E1           CMP      R6,R5
   \   00000270   F6FFFFBA           BLT      ??c_out_6
   4207          
   4208                  outputstreamwrite(b_boolean_static_fld ? 255 : 0);
   \   00000274   860CD4E5           LDRB     R0,[R4, #+3206]
   4209                  outputstreamwrite(x & 0xff);
   4210                  for(int k2 = 0; k2 < d_byte_array1d_static_fld_length; k2++)
   \   00000278   0050A0E3           MOV      R5,#+0
   \   0000027C   000050E3           CMP      R0,#+0
   \   00000280   FF00A013           MOVNE    R0,#+255
   \   00000284   ........           BL       bytearrayoutputstreamwrite
   \   00000288   040B94E5           LDR      R0,[R4, #+2820]
   \   0000028C   FF0000E2           AND      R0,R0,#0xFF
   \   00000290   ........           BL       bytearrayoutputstreamwrite
   4211                      outputstreamwrite(d_byte_array1d_static_fld[k2] & 0xff);
   \                     ??c_out_7:
   \   00000294   040085E0           ADD      R0,R5,R4
   \   00000298   B50E80E2           ADD      R0,R0,#+2896
   \   0000029C   D000D0E1           LDRSB    R0,[R0, #+0]
   \   000002A0   015085E2           ADD      R5,R5,#+1
   \   000002A4   FF0000E2           AND      R0,R0,#0xFF
   \   000002A8   ........           BL       bytearrayoutputstreamwrite
   \   000002AC   400F55E3           CMP      R5,#+256
   \   000002B0   F7FFFFBA           BLT      ??c_out_7
   4212          
   4213                  outputstreamwrite(C & 0xff);
   \   000002B4   500C94E5           LDR      R0,[R4, #+3152]
   \   000002B8   FF0000E2           AND      R0,R0,#0xFF
   \   000002BC   ........           BL       bytearrayoutputstreamwrite
   4214              }
   \   000002C0   7080BDE8           POP      {R4-R6,PC}       ;; return
   4215          
   4216              static int bint1int(int i1) {
   4217                  switch(w) {
   4218                  case 4: // '\004'
   4219                      if(e_boolean_static_fld && i1 >= 0 && i1 < 240 && (R & 0x18) != 0 && --I < 0) {
   4220                          I = F;
   4221                          return 3;
   4222                      } else {
   4223                          return 0;
   4224                      }
   4225          
   4226                  case 6: // '\006'
   4227                      if(e_boolean_static_fld) {
   4228                          I += 133;
   4229                          if(I >= 65535) {
   4230                              I = 0;
   4231                              return 3;
   4232                          }
   4233                      }
   4234                      return 0;
   4235                  }
   4236                  return 0;
   4237              }
   4238          

   \                                 In segment CODE, align 4, keep-with-next
   4239              static void avoid2int(int i1, int j1) {
   \                     avoid2int:
   \   00000000   F0432DE9           PUSH     {R4-R9,LR}
   4240                int k1,l1,i2,j2,k2;
   4241          //label0:
   4242                  switch(i1 >> 13) {
   \   00000004   ........           LDR      R6,??DataTable68  ;; j_int_array1d_static_fld
   \   00000008   0150A0E1           MOV      R5,R1
   \   0000000C   0090A0E1           MOV      R9,R0
   \   00000010   5C0A96E5           LDR      R0,[R6, #+2652]
   \   00000014   101005E2           AND      R1,R5,#0x10
   \   00000018   B57EA0E3           MOV      R7,#+2896
   \   0000001C   FF80A0E3           MOV      R8,#+255
   \   00000020   708E88E3           ORR      R8,R8,#0x700
   \   00000024   0020A0E3           MOV      R2,#+0
   \   00000028   0130A0E3           MOV      R3,#+1
   \   0000002C   C946B0E1           ASRS     R4,R9,#+13
   \   00000030   0600000A           BEQ      ??avoid2int_3
   \   00000034   014054E2           SUBS     R4,R4,#+1
   \   00000038   0700000A           BEQ      ??avoid2int_4
   \   0000003C   014054E2           SUBS     R4,R4,#+1
   \   00000040   CC00000A           BEQ      ??avoid2int_5
   \   00000044   014054E2           SUBS     R4,R4,#+1
   \   00000048   3002000A           BEQ      ??avoid2int_6
   \   0000004C   360200EA           B        ??avoid2int_7
   4243           
   4244                  case 0: // '\0'
   4245                      vram[i1 & 0x7ff] = (byte)j1;
   \                     ??avoid2int_3:
   \   00000050   091008E0           AND      R1,R8,R9
   \   00000054   0050C1E7           STRB     R5,[R1, +R0]
   \   00000058   F083BDE8           POP      {R4-R9,PC}
   4246                      break;
   4247          
   4248                  case 1: // '\001'
   4249                      j_int_static_fld = j1;
   4250                      switch(i1 & 7) {
   \                     ??avoid2int_4:
   \   0000005C   504A96E5           LDR      R4,[R6, #+2640]
   \   00000060   868CD6E5           LDRB     R8,[R6, #+3206]
   \   00000064   2C5B86E5           STR      R5,[R6, #+2860]
   \   00000068   079009E2           AND      R9,R9,#0x7
   \   0000006C   070059E3           CMP      R9,#+7
   \   00000070   F083BD88           POPHI    {R4-R9,PC}
   \   00000074   02CF8FE2           ADR      R12,??avoid2int_0
   \   00000078   8990A0E1           MOV      R9,R9, LSL #+1
   \   0000007C   B9C09CE1           LDRH     R12,[R12, R9]
   \   00000080   0CF18FE0           ADD      PC,PC,R12, LSL #+2
   \                     ??avoid2int_0:
   \   00000084   030016002C02       DC16     +3,+22,+556,+30
   \              1E00        
   \   0000008C   220036004D00       DC16     +34,+54,+77,+93
   \              5D00        
   4251                      case 2: // '\002'
   4252                      
   4253                      
   4254                      default:
   4255                          goto label0; //break label0;
   4256          
   4257                      case 0: // '\0'
   4258                          S = j1;
   \                     ??avoid2int_8:
   \   00000094   045A86E5           STR      R5,[R6, #+2564]
   4259                          e_int_static_fld = (j1 & 0x10) != 0 ? 4 : 0;
   \   00000098   000051E3           CMP      R1,#+0
   \   0000009C   0400A013           MOVNE    R0,#+4
   \   000000A0   0000A003           MOVEQ    R0,#+0
   \   000000A4   140A86E5           STR      R0,[R6, #+2580]
   4260                          V = (j1 & 8) != 0 ? 4 : 0;
   \   000000A8   080015E3           TST      R5,#0x8
   \   000000AC   0400A013           MOVNE    R0,#+4
   \   000000B0   0000A003           MOVEQ    R0,#+0
   \   000000B4   480B86E5           STR      R0,[R6, #+2888]
   4261                          x = (j1 & 4) != 0 ? 32 : 1;
   \   000000B8   040015E3           TST      R5,#0x4
   \   000000BC   2000A013           MOVNE    R0,#+32
   \   000000C0   0100A003           MOVEQ    R0,#+1
   \   000000C4   040B86E5           STR      R0,[R6, #+2820]
   4262                          y &= 0xf3ff;
   4263                          y |= (j1 & 3) << 10;
   \   000000C8   FF00A0E3           MOV      R0,#+255
   \   000000CC   F30C80E3           ORR      R0,R0,#0xF300
   \   000000D0   040000E0           AND      R0,R0,R4
   \   000000D4   031005E2           AND      R1,R5,#0x3
   \   000000D8   010580E1           ORR      R0,R0,R1, LSL #+10
   \   000000DC   3F0000EA           B        ??avoid2int_9
   4264                          goto label0; //break label0;
   4265          
   4266                      case 1: // '\001'
   4267                          k1 = R;
   \                     ??avoid2int_10:
   \   000000E0   080A96E5           LDR      R0,[R6, #+2568]
   4268                          R = j1;
   \   000000E4   085A86E5           STR      R5,[R6, #+2568]
   4269                          if((k1 & 0xe0) != (j1 & 0xe0))
   \   000000E8   E00000E2           AND      R0,R0,#0xE0
   \   000000EC   E01005E2           AND      R1,R5,#0xE0
   \   000000F0   010050E1           CMP      R0,R1
   \   000000F4   F083BD08           POPEQ    {R4-R9,PC}
   4270                              j();
   \   000000F8   ........           BL       j
   \   000000FC   F083BDE8           POP      {R4-R9,PC}
   4271                          goto label0; //break label0;
   4272          
   4273                      case 3: // '\003'
   4274                          C = j1;
   \                     ??avoid2int_11:
   \   00000100   505C86E5           STR      R5,[R6, #+3152]
   4275                          ab = j1 & 7;
   \   00000104   070005E2           AND      R0,R5,#0x7
   \   00000108   000A86E5           STR      R0,[R6, #+2560]
   \   0000010C   F083BDE8           POP      {R4-R9,PC}
   4276                          goto label0; //break label0;
   4277          
   4278                      case 4: // '\004'
   4279                          if(ab >= 8) {
   \                     ??avoid2int_12:
   \   00000110   001A96E5           LDR      R1,[R6, #+2560]
   \   00000114   500C96E5           LDR      R0,[R6, #+3152]
   \   00000118   080051E3           CMP      R1,#+8
   \   0000011C   040000BA           BLT      ??avoid2int_13
   4280                              if(C >= 8)
   \   00000120   080050E3           CMP      R0,#+8
   \   00000124   060000BA           BLT      ??avoid2int_14
   4281                                  d_byte_array1d_static_fld[C] = (byte)j1;
   \   00000128   062080E0           ADD      R2,R0,R6
   \   0000012C   0250C7E7           STRB     R5,[R7, +R2]
   \   00000130   030000EA           B        ??avoid2int_14
   4282                          } else {
   4283                              d_byte_array1d_static_fld[ab] = (byte)j1;
   \                     ??avoid2int_13:
   \   00000134   062081E0           ADD      R2,R1,R6
   \   00000138   0250C7E7           STRB     R5,[R7, +R2]
   4284                              if(ab == 0)
   \   0000013C   000051E3           CMP      R1,#+0
   4285                                  p_int_static_fld = j1;
   \   00000140   4C5B8605           STREQ    R5,[R6, #+2892]
   4286                          }
   4287                          C = C + 1 & 0xff;
   \                     ??avoid2int_14:
   \   00000144   010080E2           ADD      R0,R0,#+1
   \   00000148   FF0000E2           AND      R0,R0,#0xFF
   \   0000014C   500C86E5           STR      R0,[R6, #+3152]
   4288                          ab = ab + 1 & 0xff;
   \   00000150   010081E2           ADD      R0,R1,#+1
   \   00000154   FF0000E2           AND      R0,R0,#0xFF
   \   00000158   000A86E5           STR      R0,[R6, #+2560]
   4289                          goto label0; //break label0;
   \   0000015C   F083BDE8           POP      {R4-R9,PC}
   4290          
   4291                      case 5: // '\005'
   4292                          b_boolean_static_fld = !b_boolean_static_fld;
   \                     ??avoid2int_15:
   \   00000160   000058E3           CMP      R8,#+0
   \   00000164   0120A003           MOVEQ    R2,#+1
   \   00000168   862CC6E5           STRB     R2,[R6, #+3206]
   4293                          if(b_boolean_static_fld) {
   \   0000016C   860CD6E5           LDRB     R0,[R6, #+3206]
   \   00000170   000050E3           CMP      R0,#+0
   \   00000174   0700000A           BEQ      ??avoid2int_16
   4294                              y &= 0xffe0;
   4295                              y |= j1 >> 3;
   \   00000178   E000A0E3           MOV      R0,#+224
   \   0000017C   FF0C80E3           ORR      R0,R0,#0xFF00
   \   00000180   040000E0           AND      R0,R0,R4
   \   00000184   C50180E1           ORR      R0,R0,R5, ASR #+3
   \   00000188   500A86E5           STR      R0,[R6, #+2640]
   4296                              c_int_static_fld = j1 & 7;
   \   0000018C   070005E2           AND      R0,R5,#0x7
   \   00000190   580A86E5           STR      R0,[R6, #+2648]
   \   00000194   F083BDE8           POP      {R4-R9,PC}
   4297                          } else {
   4298                              y &= 0x8c1f;
   4299                              y |= (j1 & 0xf8) << 2;
   4300                              y &= 0x8fff;
   4301                              y |= (j1 & 7) << 12;
   \                     ??avoid2int_16:
   \   00000198   1F00A0E3           MOV      R0,#+31
   \   0000019C   8C0C80E3           ORR      R0,R0,#0x8C00
   \   000001A0   040000E0           AND      R0,R0,R4
   \   000001A4   F81005E2           AND      R1,R5,#0xF8
   \   000001A8   010180E1           ORR      R0,R0,R1, LSL #+2
   \   000001AC   071005E2           AND      R1,R5,#0x7
   \   000001B0   010680E1           ORR      R0,R0,R1, LSL #+12
   \   000001B4   500A86E5           STR      R0,[R6, #+2640]
   \   000001B8   F083BDE8           POP      {R4-R9,PC}
   4302                          }
   4303                          goto label0; //break label0;
   4304          
   4305                      case 6: // '\006'
   4306                          b_boolean_static_fld = !b_boolean_static_fld;
   \                     ??avoid2int_17:
   \   000001BC   000058E3           CMP      R8,#+0
   \   000001C0   0120A003           MOVEQ    R2,#+1
   \   000001C4   862CC6E5           STRB     R2,[R6, #+3206]
   4307                          if(b_boolean_static_fld) {
   \   000001C8   860CD6E5           LDRB     R0,[R6, #+3206]
   \   000001CC   000050E3           CMP      R0,#+0
   \   000001D0   0400000A           BEQ      ??avoid2int_18
   4308                              y &= 0xff;
   4309                              y |= (j1 & 0x3f) << 8;
   \   000001D4   FF0004E2           AND      R0,R4,#0xFF
   \   000001D8   3F1005E2           AND      R1,R5,#0x3F
   \   000001DC   010480E1           ORR      R0,R0,R1, LSL #+8
   \                     ??avoid2int_9:
   \   000001E0   500A86E5           STR      R0,[R6, #+2640]
   \   000001E4   F083BDE8           POP      {R4-R9,PC}
   4310                          } else {
   4311                              y &= 0xff00;
   4312                              y |= j1;
   \                     ??avoid2int_18:
   \   000001E8   FF0C04E2           AND      R0,R4,#0xFF00
   \   000001EC   000085E1           ORR      R0,R5,R0
   \   000001F0   500A86E5           STR      R0,[R6, #+2640]
   4313                              D = y;
   \   000001F4   540A86E5           STR      R0,[R6, #+2644]
   \   000001F8   F083BDE8           POP      {R4-R9,PC}
   4314                          }
   4315                          goto label0; //break label0;
   4316          
   4317                      case 7: // '\007'
   4318                          i1 = D & 0x3fff;
   \                     ??avoid2int_19:
   \   000001FC   541A96E5           LDR      R1,[R6, #+2644]
   4319                          D += x;
   \   00000200   043B96E5           LDR      R3,[R6, #+2820]
   \   00000204   0129A0E1           LSL      R2,R1,#+18
   \   00000208   2229A0E1           LSR      R2,R2,#+18
   \   0000020C   011083E0           ADD      R1,R3,R1
   \   00000210   541A86E5           STR      R1,[R6, #+2644]
   4320                          break;
   4321                      }
   4322                      if(i1 >= 16128) {
   \   00000214   FC0D52E3           CMP      R2,#+16128
   \   00000218   170000BA           BLT      ??avoid2int_20
   4323                          j1 &= 0x3f;
   \   0000021C   3F5005E2           AND      R5,R5,#0x3F
   4324                          i1 &= 0x1f;
   \   00000220   1F9002E2           AND      R9,R2,#0x1F
   4325                          if((i1 & 0xf) == 0) {
   \   00000224   0F0019E3           TST      R9,#0xF
   \   00000228   0A00001A           BNE      ??avoid2int_21
   4326                              for(i2 = 0; i2 < 5; i2++) {
   \   0000022C   0000A0E3           MOV      R0,#+0
   4327                                  e_int_array1d_static_fld[i2 << 2] = j1;
   \                     ??avoid2int_22:
   \   00000230   001286E0           ADD      R1,R6,R0, LSL #+4
   \   00000234   845A81E5           STR      R5,[R1, #+2692]
   4328                                  j_int_array1d_static_fld[i2 << 2] = g_int_array1d_static_fld[j1];
   \   00000238   852086E0           ADD      R2,R6,R5, LSL #+1
   \   0000023C   B024D2E1           LDRH     R2,[R2, #+64]
   \   00000240   801186E0           ADD      R1,R6,R0, LSL #+3
   4329                              }
   \   00000244   010080E2           ADD      R0,R0,#+1
   \   00000248   B020C1E1           STRH     R2,[R1, #+0]
   \   0000024C   050050E3           CMP      R0,#+5
   \   00000250   F083BDA8           POPGE    {R4-R9,PC}
   \   00000254   F5FFFFEA           B        ??avoid2int_22
   4330          
   4331                              break;
   4332                          }
   4333                          if((i1 & 3) != 0) {
   \                     ??avoid2int_21:
   \   00000258   030019E3           TST      R9,#0x3
   \   0000025C   F083BD08           POPEQ    {R4-R9,PC}
   4334                              e_int_array1d_static_fld[i1] = j1;
   \   00000260   090186E0           ADD      R0,R6,R9, LSL #+2
   \   00000264   845A80E5           STR      R5,[R0, #+2692]
   4335                              j_int_array1d_static_fld[i1] = g_int_array1d_static_fld[j1] | (i1 & 3) << 24;
   \   00000268   851086E0           ADD      R1,R6,R5, LSL #+1
   \   0000026C   B014D1E1           LDRH     R1,[R1, #+64]
   \   00000270   890086E0           ADD      R0,R6,R9, LSL #+1
   \   00000274   B010C0E1           STRH     R1,[R0, #+0]
   \   00000278   F083BDE8           POP      {R4-R9,PC}
   4336                          }
   4337                          break;
   4338                      }
   4339                      if(i1 >= 12288)
   \                     ??avoid2int_20:
   \   0000027C   C00D52E3           CMP      R2,#+12288
   4340                          i1 &= 0xefff;
   \   00000280   FF10A0A3           MOVGE    R1,#+255
   \   00000284   EF1C81A3           ORRGE    R1,R1,#0xEF00
   \   00000288   022001A0           ANDGE    R2,R1,R2
   4341                      i1 = i_int_array1d_static_fld[i1 >> 10] + (i1 & 0x3ff);
   \   0000028C   4215A0E1           ASR      R1,R2,#+10
   \   00000290   011186E0           ADD      R1,R6,R1, LSL #+2
   \   00000294   581991E5           LDR      R1,[R1, #+2392]
   \   00000298   022BA0E1           LSL      R2,R2,#+22
   \   0000029C   229B81E0           ADD      R9,R1,R2, LSR #+22
   4342                      if(i1 < 8192) {
   \   000002A0   701C96E5           LDR      R1,[R6, #+3184]
   \   000002A4   800D59E3           CMP      R9,#+8192
   4343                          vram[ram+i1] = (byte)j1;
   \   000002A8   011089B0           ADDLT    R1,R9,R1
   \   000002AC   0050C1B7           STRBLT   R5,[R1, +R0]
   4344                          break;
   \   000002B0   F083BDB8           POPLT    {R4-R9,PC}
   4345                      }
   4346                      if(E != 0)
   \   000002B4   342B96E5           LDR      R2,[R6, #+2868]
   \   000002B8   000052E3           CMP      R2,#+0
   \   000002BC   F083BD18           POPNE    {R4-R9,PC}
   4347                          break;
   4348                      vram[ram+i1] = (byte)j1;
   \   000002C0   012089E0           ADD      R2,R9,R1
   \   000002C4   0050C2E7           STRB     R5,[R2, +R0]
   4349                      if((i1 & 8) != 0) {
   \   000002C8   080019E3           TST      R9,#0x8
   \   000002CC   F083BD08           POPEQ    {R4-R9,PC}
   4350                          byte byte0 = vram[ram+(i1 ^ 8)];
   \   000002D0   082029E2           EOR      R2,R9,#0x8
   \   000002D4   011082E0           ADD      R1,R2,R1
   \   000002D8   D00091E1           LDRSB    R0,[R1, +R0]
   4351                          j2 = j1;
   4352                          k2 = ((i1 & 0xfffffff0) >> 1 | i1 & 7) - 4096;
   4353                          a_char_array1d_static_fld[k2] = (ushort)(byte0 & 1 | (byte0 & 2) << 1 | (byte0 & 4) << 2 | (byte0 & 8) << 3 | (byte0 & 0x10) << 4 | (byte0 & 0x20) << 5 | (byte0 & 0x40) << 6 | (byte0 & 0x80) << 7 | (j2 & 1) << 1 | (j2 & 2) << 2 | (j2 & 4) << 3 | (j2 & 8) << 4 | (j2 & 0x10) << 5 | (j2 & 0x20) << 6 | (j2 & 0x40) << 7 | (j2 & 0x80) << 8);
   \   000002DC   0F10C9E3           BIC      R1,R9,#0xF
   \   000002E0   072009E2           AND      R2,R9,#0x7
   \   000002E4   A11082E1           ORR      R1,R2,R1, LSR #+1
   \   000002E8   282B96E5           LDR      R2,[R6, #+2856]
   \   000002EC   023000E2           AND      R3,R0,#0x2
   \   000002F0   811082E0           ADD      R1,R2,R1, LSL #+1
   \   000002F4   801D41E2           SUB      R1,R1,#+8192
   \   000002F8   012000E2           AND      R2,R0,#0x1
   \   000002FC   832082E1           ORR      R2,R2,R3, LSL #+1
   \   00000300   043000E2           AND      R3,R0,#0x4
   \   00000304   032182E1           ORR      R2,R2,R3, LSL #+2
   \   00000308   083000E2           AND      R3,R0,#0x8
   \   0000030C   832182E1           ORR      R2,R2,R3, LSL #+3
   \   00000310   103000E2           AND      R3,R0,#0x10
   \   00000314   032282E1           ORR      R2,R2,R3, LSL #+4
   \   00000318   203000E2           AND      R3,R0,#0x20
   \   0000031C   832282E1           ORR      R2,R2,R3, LSL #+5
   \   00000320   403000E2           AND      R3,R0,#0x40
   \   00000324   032382E1           ORR      R2,R2,R3, LSL #+6
   \   00000328   800000E2           AND      R0,R0,#0x80
   \   0000032C   800382E1           ORR      R0,R2,R0, LSL #+7
   \   00000330   012005E2           AND      R2,R5,#0x1
   \   00000334   820080E1           ORR      R0,R0,R2, LSL #+1
   \   00000338   022005E2           AND      R2,R5,#0x2
   \   0000033C   020180E1           ORR      R0,R0,R2, LSL #+2
   \   00000340   042005E2           AND      R2,R5,#0x4
   \   00000344   820180E1           ORR      R0,R0,R2, LSL #+3
   \   00000348   082005E2           AND      R2,R5,#0x8
   \   0000034C   020280E1           ORR      R0,R0,R2, LSL #+4
   \   00000350   102005E2           AND      R2,R5,#0x10
   \   00000354   820280E1           ORR      R0,R0,R2, LSL #+5
   \   00000358   202005E2           AND      R2,R5,#0x20
   \   0000035C   020380E1           ORR      R0,R0,R2, LSL #+6
   \   00000360   402005E2           AND      R2,R5,#0x40
   \   00000364   820380E1           ORR      R0,R0,R2, LSL #+7
   \   00000368   802005E2           AND      R2,R5,#0x80
   \   0000036C   020480E1           ORR      R0,R0,R2, LSL #+8
   \   00000370   B000C1E1           STRH     R0,[R1, #+0]
   \   00000374   F083BDE8           POP      {R4-R9,PC}
   4354                      }//ERROR WAS HERE (char)
   4355                      break;
   4356          
   4357                  case 2: // '\002'
   4358                      if(i1 < 16408) {
   \                     ??avoid2int_5:
   \   00000378   0544A0E1           LSL      R4,R5,#+8
   \   0000037C   1800A0E3           MOV      R0,#+24
   \   00000380   400C80E3           ORR      R0,R0,#0x4000
   \   00000384   000059E1           CMP      R9,R0
   \   00000388   330000AA           BGE      ??avoid2int_23
   4359                        APUWrite(i1,(byte)j1);
   \   0000038C   FF1005E2           AND      R1,R5,#0xFF
   \   00000390   0908A0E1           MOV      R0,R9, LSL #+16
   \   00000394   2008A0E1           MOV      R0,R0, LSR #+16
   \   00000398   ........           _BLF     APUWrite,??APUWrite??rA
   4360                          switch(i1 & 0xff) {
   \   0000039C   FF9009E2           AND      R9,R9,#0xFF
   \   000003A0   149059E2           SUBS     R9,R9,#+20
   \   000003A4   0200000A           BEQ      ??avoid2int_24
   \   000003A8   029059E2           SUBS     R9,R9,#+2
   \   000003AC   1C00000A           BEQ      ??avoid2int_25
   \   000003B0   F083BDE8           POP      {R4-R9,PC}
   4361                          default:
   4362                              goto label0; //break label0;
   4363          
   4364                          case 20: // '\024'
   4365                              l1 = j1 << 8;
   4366                              switch(j1 >> 5) {
   \                     ??avoid2int_24:
   \   000003B4   C502A0E1           ASR      R0,R5,#+5
   \   000003B8   070050E3           CMP      R0,#+7
   \   000003BC   0F00008A           BHI      ??avoid2int_26
   \   000003C0   021F8FE2           ADR      R1,??avoid2int_1
   \   000003C4   8000A0E1           MOV      R0,R0, LSL #+1
   \   000003C8   B01091E1           LDRH     R1,[R1, R0]
   \   000003CC   01F18FE0           ADD      PC,PC,R1, LSL #+2
   \                     ??avoid2int_1:
   \   000003D0   030059015901       DC16     +3,+345,+345,+5
   \              0500        
   \   000003D8   070007000700       DC16     +7,+7,+7,+7
   \              0700        
   4367                              case 0: // '\0'
   4368                                  l1 &= 0x7ff;
   \                     ??avoid2int_27:
   \   000003E0   044008E0           AND      R4,R8,R4
   \   000003E4   050000EA           B        ??avoid2int_26
   4369                                  break;
   4370          
   4371                              case 1: // '\001'
   4372                              case 2: // '\002'
   4373                                  return;
   4374          
   4375                              case 3: // '\003'
   4376                                  l1 -= 22528;
   \                     ??avoid2int_28:
   \   000003E8   584C44E2           SUB      R4,R4,#+22528
   \   000003EC   030000EA           B        ??avoid2int_26
   4377                                  break;
   4378          
   4379                              case 4: // '\004'
   4380                              case 5: // '\005'
   4381                              case 6: // '\006'
   4382                              case 7: // '\007'
   4383                                  l1 += b_int_array1d_static_fld[l1 >> 13];
   \                     ??avoid2int_29:
   \   000003F0   C406A0E1           ASR      R0,R4,#+13
   \   000003F4   000186E0           ADD      R0,R6,R0, LSL #+2
   \   000003F8   880990E5           LDR      R0,[R0, #+2440]
   \   000003FC   044080E0           ADD      R4,R0,R4
   4384                                  break;
   4385                              }
   4386                              Systemarraycopy(vram, l1, d_byte_array1d_static_fld, 0, 256);
   \                     ??avoid2int_26:
   \   00000400   5C0A96E5           LDR      R0,[R6, #+2652]
   \   00000404   402FA0E3           MOV      R2,#+256
   \   00000408   001084E0           ADD      R1,R4,R0
   \   0000040C   060087E0           ADD      R0,R7,R6
   \   00000410   320100EF           SWI      +306
   4387                              p_int_static_fld = d_byte_array1d_static_fld[0] & 0xff;
   \   00000414   D60097E1           LDRSB    R0,[R7, +R6]
   \   00000418   FF0000E2           AND      R0,R0,#0xFF
   \   0000041C   4C0B86E5           STR      R0,[R6, #+2892]
   4388                              goto label0; //break label0;
   \   00000420   F083BDE8           POP      {R4-R9,PC}
   4389          
   4390                          case 22: // '\026'
   4391                              break;
   4392                          }
   4393                          if((j1 & 1) != 0)
   \                     ??avoid2int_25:
   \   00000424   010015E3           TST      R5,#0x1
   \   00000428   F083BD18           POPNE    {R4-R9,PC}
   4394                              break;
   4395                          
   4396                          
   4397                          a_int_static_fld = k_int_static_fld;
   \   0000042C   440A96E5           LDR      R0,[R6, #+2628]
   4398                          if((a_int_static_fld & 0x30) == 48)
   \   00000430   301000E2           AND      R1,R0,#0x30
   \   00000434   300051E3           CMP      R1,#+48
   4399                              a_int_static_fld &= 0xcf;
   \   00000438   CF000002           ANDEQ    R0,R0,#0xCF
   \   0000043C   480A86E5           STR      R0,[R6, #+2632]
   4400                          if((a_int_static_fld & 0xc0) == 192)
   \   00000440   C00000E2           AND      R0,R0,#0xC0
   \   00000444   C00050E3           CMP      R0,#+192
   \   00000448   F083BD18           POPNE    {R4-R9,PC}
   4401                              a_int_static_fld &= 0x3f;
   \   0000044C   480A96E5           LDR      R0,[R6, #+2632]
   \   00000450   3F0000E2           AND      R0,R0,#0x3F
   \   00000454   480A86E5           STR      R0,[R6, #+2632]
   \   00000458   F083BDE8           POP      {R4-R9,PC}
   4402                      } else {
   4403                          xxd(i1, j1);
   \                     ??avoid2int_23:
   \   0000045C   F40996E5           LDR      R0,[R6, #+2548]
   \   00000460   060050E3           CMP      R0,#+6
   \   00000464   F083BD18           POPNE    {R4-R9,PC}
   \   00000468   3C0A96E5           LDR      R0,[R6, #+2620]
   \   0000046C   FE9049E2           SUB      R9,R9,#+254
   \   00000470   429C49E2           SUB      R9,R9,#+16896
   \   00000474   817F83E3           ORR      R7,R3,#0x204
   \   00000478   070059E1           CMP      R9,R7
   \   0000047C   F083BD88           POPHI    {R4-R9,PC}
   \   00000480   027F8FE2           ADR      R7,??avoid2int_2
   \   00000484   8990A0E1           MOV      R9,R9, LSL #+1
   \   00000488   B97097E1           LDRH     R7,[R7, R9]
   \   0000048C   07F18FE0           ADD      PC,PC,R7, LSL #+2
   \                     ??avoid2int_2:
   \   00000490   020108012901       DC16     +258,+264,+297,+297
   \              2901        
   \   00000498   290129012901       DC16     +297,+297,+297,+297
   \              2901        
   \   000004A0   290129012901       DC16     +297,+297,+297,+297
   \              2901        
   \   000004A8   290129012901       DC16     +297,+297,+297,+297
   \              2901        
   \   000004B0   290129012901       DC16     +297,+297,+297,+297
   \              2901        
   \   000004B8   290129012901       DC16     +297,+297,+297,+297
   \              2901        
   \   000004C0   290129012901       DC16     +297,+297,+297,+297
   \              2901        
   \   000004C8   290129012901       DC16     +297,+297,+297,+297
   \              2901        
   \   000004D0   290129012901       DC16     +297,+297,+297,+297
   \              2901        
   \   000004D8   290129012901       DC16     +297,+297,+297,+297
   \              2901        
   \   000004E0   290129012901       DC16     +297,+297,+297,+297
   \              2901        
   \   000004E8   290129012901       DC16     +297,+297,+297,+297
   \              2901        
   \   000004F0   290129012901       DC16     +297,+297,+297,+297
   \              2901        
   \   000004F8   290129012901       DC16     +297,+297,+297,+297
   \              2901        
   \   00000500   290129012901       DC16     +297,+297,+297,+297
   \              2901        
   \   00000508   290129012901       DC16     +297,+297,+297,+297
   \              2901        
   \   00000510   290129012901       DC16     +297,+297,+297,+297
   \              2901        
   \   00000518   290129012901       DC16     +297,+297,+297,+297
   \              2901        
   \   00000520   290129012901       DC16     +297,+297,+297,+297
   \              2901        
   \   00000528   290129012901       DC16     +297,+297,+297,+297
   \              2901        
   \   00000530   290129012901       DC16     +297,+297,+297,+297
   \              2901        
   \   00000538   290129012901       DC16     +297,+297,+297,+297
   \              2901        
   \   00000540   290129012901       DC16     +297,+297,+297,+297
   \              2901        
   \   00000548   290129012901       DC16     +297,+297,+297,+297
   \              2901        
   \   00000550   290129012901       DC16     +297,+297,+297,+297
   \              2901        
   \   00000558   290129012901       DC16     +297,+297,+297,+297
   \              2901        
   \   00000560   290129012901       DC16     +297,+297,+297,+297
   \              2901        
   \   00000568   290129012901       DC16     +297,+297,+297,+297
   \              2901        
   \   00000570   290129012901       DC16     +297,+297,+297,+297
   \              2901        
   \   00000578   290129012901       DC16     +297,+297,+297,+297
   \              2901        
   \   00000580   290129012901       DC16     +297,+297,+297,+297
   \              2901        
   \   00000588   290129012901       DC16     +297,+297,+297,+297
   \              2901        
   \   00000590   290129012901       DC16     +297,+297,+297,+297
   \              2901        
   \   00000598   290129012901       DC16     +297,+297,+297,+297
   \              2901        
   \   000005A0   290129012901       DC16     +297,+297,+297,+297
   \              2901        
   \   000005A8   290129012901       DC16     +297,+297,+297,+297
   \              2901        
   \   000005B0   290129012901       DC16     +297,+297,+297,+297
   \              2901        
   \   000005B8   290129012901       DC16     +297,+297,+297,+297
   \              2901        
   \   000005C0   290129012901       DC16     +297,+297,+297,+297
   \              2901        
   \   000005C8   290129012901       DC16     +297,+297,+297,+297
   \              2901        
   \   000005D0   290129012901       DC16     +297,+297,+297,+297
   \              2901        
   \   000005D8   290129012901       DC16     +297,+297,+297,+297
   \              2901        
   \   000005E0   290129012901       DC16     +297,+297,+297,+297
   \              2901        
   \   000005E8   290129012901       DC16     +297,+297,+297,+297
   \              2901        
   \   000005F0   290129012901       DC16     +297,+297,+297,+297
   \              2901        
   \   000005F8   290129012901       DC16     +297,+297,+297,+297
   \              2901        
   \   00000600   290129012901       DC16     +297,+297,+297,+297
   \              2901        
   \   00000608   290129012901       DC16     +297,+297,+297,+297
   \              2901        
   \   00000610   290129012901       DC16     +297,+297,+297,+297
   \              2901        
   \   00000618   290129012901       DC16     +297,+297,+297,+297
   \              2901        
   \   00000620   290129012901       DC16     +297,+297,+297,+297
   \              2901        
   \   00000628   290129012901       DC16     +297,+297,+297,+297
   \              2901        
   \   00000630   290129012901       DC16     +297,+297,+297,+297
   \              2901        
   \   00000638   290129012901       DC16     +297,+297,+297,+297
   \              2901        
   \   00000640   290129012901       DC16     +297,+297,+297,+297
   \              2901        
   \   00000648   290129012901       DC16     +297,+297,+297,+297
   \              2901        
   \   00000650   290129012901       DC16     +297,+297,+297,+297
   \              2901        
   \   00000658   290129012901       DC16     +297,+297,+297,+297
   \              2901        
   \   00000660   290129012901       DC16     +297,+297,+297,+297
   \              2901        
   \   00000668   290129012901       DC16     +297,+297,+297,+297
   \              2901        
   \   00000670   290129012901       DC16     +297,+297,+297,+297
   \              2901        
   \   00000678   290129012901       DC16     +297,+297,+297,+297
   \              2901        
   \   00000680   290129012901       DC16     +297,+297,+297,+297
   \              2901        
   \   00000688   290129012901       DC16     +297,+297,+297,+297
   \              2901        
   \   00000690   290129012901       DC16     +297,+297,+297,+297
   \              2901        
   \   00000698   290129012901       DC16     +297,+297,+297,+297
   \              2901        
   \   000006A0   290129012901       DC16     +297,+297,+297,+297
   \              2901        
   \   000006A8   290129012901       DC16     +297,+297,+297,+297
   \              2901        
   \   000006B0   290129012901       DC16     +297,+297,+297,+297
   \              2901        
   \   000006B8   290129012901       DC16     +297,+297,+297,+297
   \              2901        
   \   000006C0   290129012901       DC16     +297,+297,+297,+297
   \              2901        
   \   000006C8   290129012901       DC16     +297,+297,+297,+297
   \              2901        
   \   000006D0   290129012901       DC16     +297,+297,+297,+297
   \              2901        
   \   000006D8   290129012901       DC16     +297,+297,+297,+297
   \              2901        
   \   000006E0   290129012901       DC16     +297,+297,+297,+297
   \              2901        
   \   000006E8   290129012901       DC16     +297,+297,+297,+297
   \              2901        
   \   000006F0   290129012901       DC16     +297,+297,+297,+297
   \              2901        
   \   000006F8   290129012901       DC16     +297,+297,+297,+297
   \              2901        
   \   00000700   290129012901       DC16     +297,+297,+297,+297
   \              2901        
   \   00000708   290129012901       DC16     +297,+297,+297,+297
   \              2901        
   \   00000710   290129012901       DC16     +297,+297,+297,+297
   \              2901        
   \   00000718   290129012901       DC16     +297,+297,+297,+297
   \              2901        
   \   00000720   290129012901       DC16     +297,+297,+297,+297
   \              2901        
   \   00000728   290129012901       DC16     +297,+297,+297,+297
   \              2901        
   \   00000730   290129012901       DC16     +297,+297,+297,+297
   \              2901        
   \   00000738   290129012901       DC16     +297,+297,+297,+297
   \              2901        
   \   00000740   290129012901       DC16     +297,+297,+297,+297
   \              2901        
   \   00000748   290129012901       DC16     +297,+297,+297,+297
   \              2901        
   \   00000750   290129012901       DC16     +297,+297,+297,+297
   \              2901        
   \   00000758   290129012901       DC16     +297,+297,+297,+297
   \              2901        
   \   00000760   290129012901       DC16     +297,+297,+297,+297
   \              2901        
   \   00000768   290129012901       DC16     +297,+297,+297,+297
   \              2901        
   \   00000770   290129012901       DC16     +297,+297,+297,+297
   \              2901        
   \   00000778   290129012901       DC16     +297,+297,+297,+297
   \              2901        
   \   00000780   290129012901       DC16     +297,+297,+297,+297
   \              2901        
   \   00000788   290129012901       DC16     +297,+297,+297,+297
   \              2901        
   \   00000790   290129012901       DC16     +297,+297,+297,+297
   \              2901        
   \   00000798   290129012901       DC16     +297,+297,+297,+297
   \              2901        
   \   000007A0   290129012901       DC16     +297,+297,+297,+297
   \              2901        
   \   000007A8   290129012901       DC16     +297,+297,+297,+297
   \              2901        
   \   000007B0   290129012901       DC16     +297,+297,+297,+297
   \              2901        
   \   000007B8   290129012901       DC16     +297,+297,+297,+297
   \              2901        
   \   000007C0   290129012901       DC16     +297,+297,+297,+297
   \              2901        
   \   000007C8   290129012901       DC16     +297,+297,+297,+297
   \              2901        
   \   000007D0   290129012901       DC16     +297,+297,+297,+297
   \              2901        
   \   000007D8   290129012901       DC16     +297,+297,+297,+297
   \              2901        
   \   000007E0   290129012901       DC16     +297,+297,+297,+297
   \              2901        
   \   000007E8   290129012901       DC16     +297,+297,+297,+297
   \              2901        
   \   000007F0   290129012901       DC16     +297,+297,+297,+297
   \              2901        
   \   000007F8   290129012901       DC16     +297,+297,+297,+297
   \              2901        
   \   00000800   290129012901       DC16     +297,+297,+297,+297
   \              2901        
   \   00000808   290129012901       DC16     +297,+297,+297,+297
   \              2901        
   \   00000810   290129012901       DC16     +297,+297,+297,+297
   \              2901        
   \   00000818   290129012901       DC16     +297,+297,+297,+297
   \              2901        
   \   00000820   290129012901       DC16     +297,+297,+297,+297
   \              2901        
   \   00000828   290129012901       DC16     +297,+297,+297,+297
   \              2901        
   \   00000830   290129012901       DC16     +297,+297,+297,+297
   \              2901        
   \   00000838   290129012901       DC16     +297,+297,+297,+297
   \              2901        
   \   00000840   290129012901       DC16     +297,+297,+297,+297
   \              2901        
   \   00000848   290129012901       DC16     +297,+297,+297,+297
   \              2901        
   \   00000850   290129012901       DC16     +297,+297,+297,+297
   \              2901        
   \   00000858   290129012901       DC16     +297,+297,+297,+297
   \              2901        
   \   00000860   290129012901       DC16     +297,+297,+297,+297
   \              2901        
   \   00000868   290129012901       DC16     +297,+297,+297,+297
   \              2901        
   \   00000870   290129012901       DC16     +297,+297,+297,+297
   \              2901        
   \   00000878   290129012901       DC16     +297,+297,+297,+297
   \              2901        
   \   00000880   290129012901       DC16     +297,+297,+297,+297
   \              2901        
   \   00000888   290129012901       DC16     +297,+297,+297,+297
   \              2901        
   \   00000890   290129012901       DC16     +297,+297,+297,+275
   \              1301        
   \   00000898   15011A01           DC16     +277,+282
   \                     ??avoid2int_30:
   \   0000089C   000051E3           CMP      R1,#+0
   \   000008A0   0120A013           MOVNE    R2,#+1
   \   000008A4   0210A011           MOVNE    R1,R2
   \   000008A8   0500001A           BNE      ??avoid2int_31
   \   000008AC   0030A0E3           MOV      R3,#+0
   \   000008B0   070000EA           B        ??avoid2int_32
   \                     ??avoid2int_33:
   \   000008B4   000051E3           CMP      R1,#+0
   \   000008B8   0400000A           BEQ      ??avoid2int_34
   \   000008BC   0120A0E3           MOV      R2,#+1
   \   000008C0   0010A0E3           MOV      R1,#+0
   \                     ??avoid2int_31:
   \   000008C4   0100A0E1           MOV      R0,R1
   \   000008C8   ........           BL       avoid4int
   \   000008CC   F083BDE8           POP      {R4-R9,PC}
   \                     ??avoid2int_34:
   \   000008D0   0110A0E3           MOV      R1,#+1
   \                     ??avoid2int_32:
   \   000008D4   0200A0E1           MOV      R0,R2
   \   000008D8   ........           BL       avoid4int
   \   000008DC   F083BDE8           POP      {R4-R9,PC}
   \                     ??avoid2int_35:
   \   000008E0   802CC6E5           STRB     R2,[R6, #+3200]
   \   000008E4   F083BDE8           POP      {R4-R9,PC}
   \                     ??avoid2int_36:
   \   000008E8   FF0C00E2           AND      R0,R0,#0xFF00
   \   000008EC   FF1005E2           AND      R1,R5,#0xFF
   \   000008F0   000081E1           ORR      R0,R1,R0
   \   000008F4   3C0A86E5           STR      R0,[R6, #+2620]
   \   000008F8   F083BDE8           POP      {R4-R9,PC}
   \                     ??avoid2int_37:
   \   000008FC   FF0000E2           AND      R0,R0,#0xFF
   \   00000900   000084E1           ORR      R0,R4,R0
   \   00000904   3C0A86E5           STR      R0,[R6, #+2620]
   \   00000908   803CC6E5           STRB     R3,[R6, #+3200]
   \   0000090C   F083BDE8           POP      {R4-R9,PC}
   4404                      }
   4405                      break;
   4406          
   4407                  case 3: // '\003'
   4408                      if(q_boolean_static_fld)
   \                     ??avoid2int_6:
   \   00000910   7D1CD6E5           LDRB     R1,[R6, #+3197]
   \   00000914   000051E3           CMP      R1,#+0
   \   00000918   F083BD08           POPEQ    {R4-R9,PC}
   4409                          vram[i1 - 22528] = (byte)j1;
   \   0000091C   000089E0           ADD      R0,R9,R0
   \   00000920   580C40E2           SUB      R0,R0,#+22528
   \   00000924   0050C0E5           STRB     R5,[R0, #+0]
   \   00000928   F083BDE8           POP      {R4-R9,PC}
   4410                      break;
   4411          
   4412                  default:
   4413                      xxf(i1, j1);
   \                     ??avoid2int_7:
   \   0000092C   0510A0E1           MOV      R1,R5
   \   00000930   0900A0E1           MOV      R0,R9
   \   00000934   ........           BL       xxf
   \                     ??avoid2int_38:
   \   00000938   F083BDE8           POP      {R4-R9,PC}       ;; return
   4414                      break;
   4415                  }
   4416          label0:;
   4417              }
   4418          /*
   4419          
   4420              static void avoid1String1bytes(char *s, byte abyte0[]) throws IOException {
   4421                  DataOutputStream dataoutputstream = Connector.openDataOutputStream(s);
   4422                  dataoutputstream.write(abyte0);
   4423                  dataoutputstream.flush();
   4424                  dataoutputstream.close();
   4425              }
   4426          
   4427              void paint(Graphics g) {
   4428                  //System.out.println("paint c");
   4429                  int i1 = getWidth();
   4430                  int j1 = getHeight();
   4431                  if(main.b_boolean_fld) {
   4432                      g.setColor(0x336666);
   4433                      g.fillRect(0, 0, i1, j1);
   4434                      main.b_boolean_fld = false;
   4435                  }
   4436                  if(fmessage!=null) {
   4437                    g.setColor(0xffffff);
   4438                    g.fillRect(0, 0, i1, j1);
   4439                    g.setColor(0);
   4440                    Font font = g.getFont();
   4441                    //g.drawString(s, i1 - font.stringWidth(s), j1 - font.getHeight(), 20);
   4442                    g.drawString(fmessage, 0, 0, 20);
   4443                    fmessage=null;
   4444                    return;
   4445                 }
   4446                      Image image = Image.createRGBImage(main.a_int_array1d_fld, main.a_int_fld, main.c_int_fld, false);
   4447                      g.drawImage(image, (i1 - main.a_int_fld)>>1, (j1 - main.c_int_fld)>>1, 20);
   4448                  if(main.f_boolean_static_fld && main.a_long_static_fld > 0L && c_long_static_fld > 0L && b_long_static_fld > 0L) {
   4449                      long l1 = (main.a_long_static_fld * 10000L) / (c_long_static_fld + b_long_static_fld);
   4450                      long l2 = (c_long_static_fld * 10L) / b_long_static_fld;
   4451                      g.setColor(0xffffff);
   4452                      g.drawString("FPS:" + l1 / 10L + "." + l1 % 10L + " R:" + l2 / 10L + "." + l2 % 10L, (i1 - main.a_int_fld) >>1, (j1 - main.c_int_fld) >>1, 20);
   4453                  }
   4454              }
   4455              
   4456          void debug(char *s, int a, int b){
   4457            new File().debugWrite("0:/vnes","\n"+s+"  "+Integer.toString(a)+" = "+Integer.toString(b));        
   4458          }
   4459          
   4460          void savedebug(){
   4461            File file=new File();
   4462            int handle;
   4463            try{
   4464            handle=file.open("0:/vnes2");
   4465            file.write(handle,vram,0,vram.length);
   4466            file.close(handle);
   4467            }catch(IOException ios){}
   4468          }
   4469          
   4470          }
   4471          */
   4472          
   4473          //////////38
   4474              /*
   4475          const char bmphead[]={
   4476          "\x42\x4D\xC6\xB5\x00\x00\x00\x00\x00\x00\x36\x00\x00\x00\x28\x00"
   4477          "\x00\x00\x84\x00\x00\x00\xB0\x00\x00\x00\x01\x00\x10\x00\x00\x00"
   4478          "\x00\x00\x00\x00\x00\x00\x12\x0B\x00\x00\x12\x0B\x00\x00\x00\x00"
   4479          "\x00\x00\x00\x00\x00\x00\x00\xF8\x00\x00\xE0\x07\x00\x00\x1F\x00"
   4480          "\x00\x00\x00\x00\x00\x00"};
   4481          
   4482          void savescreen(char *fname){
   4483            FILE *f;
   4484            int i,j,k;
   4485            int r,g,b;
   4486            short scr[132*176], *ss=scr+132*176;
   4487            int *s=main_a_int_array1d_fld;
   4488            for(j=0;j<176;j++){
   4489              for(i=0;i<132;i++){
   4490                k=*s++;
   4491                b=(k>>16)&0xff;
   4492                g=(k>>8)&0xff;
   4493                r=(k)&0xff;
   4494                *--ss=(r>>3<<10)|(g>>3<<5)|(b>>3);
   4495              }
   4496              s+=256-132;
   4497            }
   4498            f=fopen(fname,"wb");
   4499            fwrite(bmphead,sizeof(bmphead),1,f); 
   4500            fwrite(scr,132*176*2,1,f); 
   4501            fclose(f); 
   4502          }
   4503          */

   \                                 In segment DATA_Z, align 4, align-sorted
   4504          int nshow=0;
   \                     nshow:
   \   00000000                      DS8 4
   4505          /*
   4506          void repaint(){
   4507            if(++nshow==200){
   4508              printf("show ");
   4509              //nshow=0;
   4510              //savescreen("out.bmp");
   4511              //abort();
   4512            }
   4513           //Image image = Image.createRGBImage(main.a_int_array1d_fld, main.a_int_fld, main.c_int_fld, false);
   4514          }
   4515          
   4516          int main(int argc, char **argv){
   4517            int i;
   4518            if(argc<2){
   4519              printf("No ROM!\n");
   4520              return 1;
   4521            }
   4522            initnul();
   4523            h();
   4524            if(i=loadrom(*++argv)){
   4525              printf("Error %d\n",i);
   4526              return i;
   4527            }
   4528            run();
   4529            return 0;
   4530          }
   4531          */
   4532          

   \                                 In segment CODE, align 4, keep-with-next
   4533          void initnul(){
   \                     initnul:
   \   00000000   30402DE9           PUSH     {R4,R5,LR}
   4534            memset(d_byte_array1d_static_fld,0,256);
   \   00000004   ........           LDR      R5,??DataTable68  ;; j_int_array1d_static_fld
   \   00000008   B54EA0E3           MOV      R4,#+2896
   \   0000000C   402FA0E3           MOV      R2,#+256
   \   00000010   0010A0E3           MOV      R1,#+0
   \   00000014   050084E0           ADD      R0,R4,R5
   \   00000018   BB0000EF           SWI      +187
   4535            memset(b_int_array1d_static_fld,0,8*4);
   \   0000001C   2020A0E3           MOV      R2,#+32
   \   00000020   0010A0E3           MOV      R1,#+0
   \   00000024   720F44E2           SUB      R0,R4,#+456
   \   00000028   050080E0           ADD      R0,R0,R5
   \   0000002C   BB0000EF           SWI      +187
   4536            memset(j_int_array1d_static_fld,0,32*2);
   \   00000030   4020A0E3           MOV      R2,#+64
   \   00000034   0010A0E3           MOV      R1,#+0
   \   00000038   0500A0E1           MOV      R0,R5
   \   0000003C   BB0000EF           SWI      +187
   4537          memset(g_int_array1d_static_fld,0,64*2);
   \   00000040   8020A0E3           MOV      R2,#+128
   \   00000044   0010A0E3           MOV      R1,#+0
   \   00000048   400085E2           ADD      R0,R5,#+64
   \   0000004C   BB0000EF           SWI      +187
   4538          memset(e_int_array1d_static_fld,0,32*4);
   \   00000050   8020A0E3           MOV      R2,#+128
   \   00000054   0010A0E3           MOV      R1,#+0
   \   00000058   CC0044E2           SUB      R0,R4,#+204
   \   0000005C   050080E0           ADD      R0,R0,R5
   \   00000060   BB0000EF           SWI      +187
   4539          memset(i_int_array1d_static_fld,0,12*4);
   \   00000064   3020A0E3           MOV      R2,#+48
   \   00000068   0010A0E3           MOV      R1,#+0
   \   0000006C   7E0F44E2           SUB      R0,R4,#+504
   \   00000070   050080E0           ADD      R0,R0,R5
   \   00000074   BB0000EF           SWI      +187
   4540          memset(l_int_array1d_static_fld,0,8*4);
   \   00000078   2020A0E3           MOV      R2,#+32
   \   0000007C   0010A0E3           MOV      R1,#+0
   \   00000080   480044E2           SUB      R0,R4,#+72
   \   00000084   050080E0           ADD      R0,R0,R5
   \   00000088   BB0000EF           SWI      +187
   4541          memset(d_byte_array1d_static_fld,0,256);
   \   0000008C   402FA0E3           MOV      R2,#+256
   \   00000090   0010A0E3           MOV      R1,#+0
   \   00000094   050084E0           ADD      R0,R4,R5
   \   00000098   BB0000EF           SWI      +187
   4542          
   4543          memset(c_int_array1d_static_fld,0,260*4);
   \   0000009C   412EA0E3           MOV      R2,#+1040
   \   000000A0   0010A0E3           MOV      R1,#+0
   \   000000A4   510E85E2           ADD      R0,R5,#+1296
   \   000000A8   BB0000EF           SWI      +187
   4544          memset(h_int_array1d_static_fld,0,276*4);
   \   000000AC   452EA0E3           MOV      R2,#+1104
   \   000000B0   0010A0E3           MOV      R1,#+0
   \   000000B4   C00085E2           ADD      R0,R5,#+192
   \   000000B8   BB0000EF           SWI      +187
   4545          memset(f_int_array1d_static_fld,0,276*4);
   \   000000BC   ........           LDR      R0,??DataTable69  ;; f_int_array1d_static_fld
   \   000000C0   452EA0E3           MOV      R2,#+1104
   \   000000C4   0010A0E3           MOV      R1,#+0
   \   000000C8   BB0000EF           SWI      +187
   4546          memset(b_boolean_array1d_static_fld,0,260);
   \   000000CC   412FA0E3           MOV      R2,#+260
   \   000000D0   0010A0E3           MOV      R1,#+0
   \   000000D4   C90E85E2           ADD      R0,R5,#+3216
   \   000000D8   BB0000EF           SWI      +187
   4547          memset(a_boolean_array1d_static_fld,0,276);
   \   000000DC   452FA0E3           MOV      R2,#+276
   \   000000E0   0010A0E3           MOV      R1,#+0
   \   000000E4   C80E82E3           ORR      R0,R2,#0xC80
   \   000000E8   050080E0           ADD      R0,R0,R5
   \   000000EC   BB0000EF           SWI      +187
   4548            h();
   \   000000F0   ........           BL       h
   4549          }
   \   000000F4   3080BDE8           POP      {R4,R5,PC}       ;; return
   4550          /*
   4551          void savefile(char *fname, void *buf, int size){
   4552            FILE *f;
   4553            if(f=fopen(fname,"wb")){
   4554              fwrite(buf,size,1,f);
   4555              fclose(f);
   4556            }
   4557          }
   4558          */
   4559          void AudioTerminate();

   \                                 In segment CODE, align 4, keep-with-next
   4560          void freeall(){
   \                     freeall:
   \   00000000   10402DE9           PUSH     {R4,LR}
   4561            if(a_char_array1d_static_fld) mfree(a_char_array1d_static_fld);
   \   00000004   ........           LDR      R4,??DataTable70  ;; j_int_array1d_static_fld
   \   00000008   280B94E5           LDR      R0,[R4, #+2856]
   \   0000000C   000050E3           CMP      R0,#+0
   \   00000010   0000000A           BEQ      ??freeall_0
   \   00000014   150000EF           SWI      +21
   4562            if(b_byte_array1d_static_fld) mfree(b_byte_array1d_static_fld);
   \                     ??freeall_0:
   \   00000018   580C94E5           LDR      R0,[R4, #+3160]
   \   0000001C   000050E3           CMP      R0,#+0
   \   00000020   0000000A           BEQ      ??freeall_1
   \   00000024   150000EF           SWI      +21
   4563            if(vram) mfree(vram);
   \                     ??freeall_1:
   \   00000028   5C0A94E5           LDR      R0,[R4, #+2652]
   \   0000002C   000050E3           CMP      R0,#+0
   \   00000030   0000000A           BEQ      ??freeall_2
   \   00000034   150000EF           SWI      +21
   4564            if(screens) mfree(screens);
   \                     ??freeall_2:
   \   00000038   5C0C94E5           LDR      R0,[R4, #+3164]
   \   0000003C   000050E3           CMP      R0,#+0
   \   00000040   0000000A           BEQ      ??freeall_3
   \   00000044   150000EF           SWI      +21
   4565            AudioTerminate();
   \                     ??freeall_3:
   \   00000048   1040BDE8           POP      {R4,LR}          ;; Pop
   \   0000004C   ........           _BF      AudioTerminate,??AudioTerminate??rA  ;; tailcall
   4566          
   4567          }

   \                                 In segment CODE, align 4, keep-with-next
   \                     ??DataTable0:
   \   00000000   1800B0F4           DC32     0xfffffffff4b00018

   \                                 In segment CODE, align 4, keep-with-next
   \                     ??DataTable4:
   \   00000000   ........           DC32     ebuf

   \                                 In segment CODE, align 4, keep-with-next
   \                     ??DataTable7:
   \   00000000   ........           DC32     j_int_array1d_static_fld

   \                                 In segment CODE, align 4, keep-with-next
   \                     ??DataTable18:
   \   00000000   ........           DC32     j_int_array1d_static_fld

   \                                 In segment CODE, align 4, keep-with-next
   \                     ??DataTable21:
   \   00000000   1800B0F4           DC32     0xfffffffff4b00018

   \                                 In segment CODE, align 4, keep-with-next
   \                     ??DataTable24:
   \   00000000   ........           DC32     j_int_array1d_static_fld

   \                                 In segment CODE, align 4, keep-with-next
   \                     ??DataTable33:
   \   00000000   67666666           DC32     0x66666667

   \                                 In segment CODE, align 4, keep-with-next
   \                     ??DataTable42:
   \   00000000   1F85EB51           DC32     0x51eb851f

   \                                 In segment CODE, align 4, keep-with-next
   \                     ??DataTable46:
   \   00000000   ........           DC32     j_int_array1d_static_fld

   \                                 In segment CODE, align 4, keep-with-next
   \                     ??DataTable48:
   \   00000000   ........           DC32     f_int_array1d_static_fld

   \                                 In segment CODE, align 4, keep-with-next
   \                     ??DataTable49:
   \   00000000   ........           DC32     j_int_array1d_static_fld

   \                                 In segment CODE, align 4, keep-with-next
   \                     ??DataTable50:
   \   00000000   ........           DC32     f_int_array1d_static_fld + 28

   \                                 In segment CODE, align 4, keep-with-next
   \                     ??DataTable51:
   \   00000000   ........           DC32     j_int_array1d_static_fld

   \                                 In segment CODE, align 4, keep-with-next
   \                     ??DataTable59:
   \   00000000   1F85EB51           DC32     0x51eb851f

   \                                 In segment CODE, align 4, keep-with-next
   \                     ??DataTable60:
   \   00000000   ........           DC32     f_int_array1d_static_fld

   \                                 In segment CODE, align 4, keep-with-next
   \                     ??DataTable64:
   \   00000000   ........           DC32     j_int_array1d_static_fld

   \                                 In segment CODE, align 4, keep-with-next
   \                     ??DataTable66:
   \   00000000   ........           DC32     j_int_array1d_static_fld

   \                                 In segment CODE, align 4, keep-with-next
   \                     ??DataTable68:
   \   00000000   ........           DC32     j_int_array1d_static_fld

   \                                 In segment CODE, align 4, keep-with-next
   \                     ??DataTable69:
   \   00000000   ........           DC32     f_int_array1d_static_fld

   \                                 In segment CODE, align 4, keep-with-next
   \                     ??DataTable70:
   \   00000000   ........           DC32     j_int_array1d_static_fld

   \                                 In segment DATA_ID, align 4, align-sorted
   \                     `?<Initializer for j_int_array1d_static_fld>`:
   \   00000000   000000000000       DC8 0, 0, 0, 0, 0, 0, 0, 0, 0, 0, 0, 0, 0, 0, 0, 0
   \              000000000000
   \              00000000    
   \   00000010   000000000000       DC8 0, 0, 0, 0, 0, 0, 0, 0, 0, 0, 0, 0, 0, 0, 0, 0
   \              000000000000
   \              00000000    
   \   00000020   000000000000       DC8 0, 0, 0, 0, 0, 0, 0, 0, 0, 0, 0, 0, 0, 0, 0, 0
   \              000000000000
   \              00000000    
   \   00000030   000000000000       DC8 0, 0, 0, 0, 0, 0, 0, 0, 0, 0, 0, 0, 0, 0, 0, 0
   \              000000000000
   \              00000000    
   \                     `?<Initializer for g_int_array1d_static_fld>`:
   \   00000040   000000000000       DC8 0, 0, 0, 0, 0, 0, 0, 0, 0, 0, 0, 0, 0, 0, 0, 0
   \              000000000000
   \              00000000    
   \   00000050   000000000000       DC8 0, 0, 0, 0, 0, 0, 0, 0, 0, 0, 0, 0, 0, 0, 0, 0
   \              000000000000
   \              00000000    
   \   00000060   000000000000       DC8 0, 0, 0, 0, 0, 0, 0, 0, 0, 0, 0, 0, 0, 0, 0, 0
   \              000000000000
   \              00000000    
   \   00000070   000000000000       DC8 0, 0, 0, 0, 0, 0, 0, 0, 0, 0, 0, 0, 0, 0, 0, 0
   \              000000000000
   \              00000000    
   \   00000080   000000000000       DC8 0, 0, 0, 0, 0, 0, 0, 0, 0, 0, 0, 0, 0, 0, 0, 0
   \              000000000000
   \              00000000    
   \   00000090   000000000000       DC8 0, 0, 0, 0, 0, 0, 0, 0, 0, 0, 0, 0, 0, 0, 0, 0
   \              000000000000
   \              00000000    
   \   000000A0   000000000000       DC8 0, 0, 0, 0, 0, 0, 0, 0, 0, 0, 0, 0, 0, 0, 0, 0
   \              000000000000
   \              00000000    
   \   000000B0   000000000000       DC8 0, 0, 0, 0, 0, 0, 0, 0, 0, 0, 0, 0, 0, 0, 0, 0
   \              000000000000
   \              00000000    
   \                     `?<Initializer for h_int_array1d_static_fld>`:
   \   000000C0   000000000000       DC8 0, 0, 0, 0, 0, 0, 0, 0, 0, 0, 0, 0, 0, 0, 0, 0
   \              000000000000
   \              00000000    
   \   000000D0   000000000000       DC8 0, 0, 0, 0, 0, 0, 0, 0, 0, 0, 0, 0, 0, 0, 0, 0
   \              000000000000
   \              00000000    
   \   000000E0   000000000000       DC8 0, 0, 0, 0, 0, 0, 0, 0, 0, 0, 0, 0, 0, 0, 0, 0
   \              000000000000
   \              00000000    
   \   000000F0   000000000000       DC8 0, 0, 0, 0, 0, 0, 0, 0, 0, 0, 0, 0, 0, 0, 0, 0
   \              000000000000
   \              00000000    
   \   00000100   000000000000       DC8 0, 0, 0, 0, 0, 0, 0, 0, 0, 0, 0, 0, 0, 0, 0, 0
   \              000000000000
   \              00000000    
   \   00000110   000000000000       DC8 0, 0, 0, 0, 0, 0, 0, 0, 0, 0, 0, 0, 0, 0, 0, 0
   \              000000000000
   \              00000000    
   \   00000120   000000000000       DC8 0, 0, 0, 0, 0, 0, 0, 0, 0, 0, 0, 0, 0, 0, 0, 0
   \              000000000000
   \              00000000    
   \   00000130   000000000000       DC8 0, 0, 0, 0, 0, 0, 0, 0, 0, 0, 0, 0, 0, 0, 0, 0
   \              000000000000
   \              00000000    
   \   00000140   000000000000       DC8 0, 0, 0, 0, 0, 0, 0, 0, 0, 0, 0, 0, 0, 0, 0, 0
   \              000000000000
   \              00000000    
   \   00000150   000000000000       DC8 0, 0, 0, 0, 0, 0, 0, 0, 0, 0, 0, 0, 0, 0, 0, 0
   \              000000000000
   \              00000000    
   \   00000160   000000000000       DC8 0, 0, 0, 0, 0, 0, 0, 0, 0, 0, 0, 0, 0, 0, 0, 0
   \              000000000000
   \              00000000    
   \   00000170   000000000000       DC8 0, 0, 0, 0, 0, 0, 0, 0, 0, 0, 0, 0, 0, 0, 0, 0
   \              000000000000
   \              00000000    
   \   00000180   000000000000       DC8 0, 0, 0, 0, 0, 0, 0, 0, 0, 0, 0, 0, 0, 0, 0, 0
   \              000000000000
   \              00000000    
   \   00000190   000000000000       DC8 0, 0, 0, 0, 0, 0, 0, 0, 0, 0, 0, 0, 0, 0, 0, 0
   \              000000000000
   \              00000000    
   \   000001A0   000000000000       DC8 0, 0, 0, 0, 0, 0, 0, 0, 0, 0, 0, 0, 0, 0, 0, 0
   \              000000000000
   \              00000000    
   \   000001B0   000000000000       DC8 0, 0, 0, 0, 0, 0, 0, 0, 0, 0, 0, 0, 0, 0, 0, 0
   \              000000000000
   \              00000000    
   \   000001C0   000000000000       DC8 0, 0, 0, 0, 0, 0, 0, 0, 0, 0, 0, 0, 0, 0, 0, 0
   \              000000000000
   \              00000000    
   \   000001D0   000000000000       DC8 0, 0, 0, 0, 0, 0, 0, 0, 0, 0, 0, 0, 0, 0, 0, 0
   \              000000000000
   \              00000000    
   \   000001E0   000000000000       DC8 0, 0, 0, 0, 0, 0, 0, 0, 0, 0, 0, 0, 0, 0, 0, 0
   \              000000000000
   \              00000000    
   \   000001F0   000000000000       DC8 0, 0, 0, 0, 0, 0, 0, 0, 0, 0, 0, 0, 0, 0, 0, 0
   \              000000000000
   \              00000000    
   \   00000200   000000000000       DC8 0, 0, 0, 0, 0, 0, 0, 0, 0, 0, 0, 0, 0, 0, 0, 0
   \              000000000000
   \              00000000    
   \   00000210   000000000000       DC8 0, 0, 0, 0, 0, 0, 0, 0, 0, 0, 0, 0, 0, 0, 0, 0
   \              000000000000
   \              00000000    
   \   00000220   000000000000       DC8 0, 0, 0, 0, 0, 0, 0, 0, 0, 0, 0, 0, 0, 0, 0, 0
   \              000000000000
   \              00000000    
   \   00000230   000000000000       DC8 0, 0, 0, 0, 0, 0, 0, 0, 0, 0, 0, 0, 0, 0, 0, 0
   \              000000000000
   \              00000000    
   \   00000240   000000000000       DC8 0, 0, 0, 0, 0, 0, 0, 0, 0, 0, 0, 0, 0, 0, 0, 0
   \              000000000000
   \              00000000    
   \   00000250   000000000000       DC8 0, 0, 0, 0, 0, 0, 0, 0, 0, 0, 0, 0, 0, 0, 0, 0
   \              000000000000
   \              00000000    
   \   00000260   000000000000       DC8 0, 0, 0, 0, 0, 0, 0, 0, 0, 0, 0, 0, 0, 0, 0, 0
   \              000000000000
   \              00000000    
   \   00000270   000000000000       DC8 0, 0, 0, 0, 0, 0, 0, 0, 0, 0, 0, 0, 0, 0, 0, 0
   \              000000000000
   \              00000000    
   \   00000280   000000000000       DC8 0, 0, 0, 0, 0, 0, 0, 0, 0, 0, 0, 0, 0, 0, 0, 0
   \              000000000000
   \              00000000    
   \   00000290   000000000000       DC8 0, 0, 0, 0, 0, 0, 0, 0, 0, 0, 0, 0, 0, 0, 0, 0
   \              000000000000
   \              00000000    
   \   000002A0   000000000000       DC8 0, 0, 0, 0, 0, 0, 0, 0, 0, 0, 0, 0, 0, 0, 0, 0
   \              000000000000
   \              00000000    
   \   000002B0   000000000000       DC8 0, 0, 0, 0, 0, 0, 0, 0, 0, 0, 0, 0, 0, 0, 0, 0
   \              000000000000
   \              00000000    
   \   000002C0   000000000000       DC8 0, 0, 0, 0, 0, 0, 0, 0, 0, 0, 0, 0, 0, 0, 0, 0
   \              000000000000
   \              00000000    
   \   000002D0   000000000000       DC8 0, 0, 0, 0, 0, 0, 0, 0, 0, 0, 0, 0, 0, 0, 0, 0
   \              000000000000
   \              00000000    
   \   000002E0   000000000000       DC8 0, 0, 0, 0, 0, 0, 0, 0, 0, 0, 0, 0, 0, 0, 0, 0
   \              000000000000
   \              00000000    
   \   000002F0   000000000000       DC8 0, 0, 0, 0, 0, 0, 0, 0, 0, 0, 0, 0, 0, 0, 0, 0
   \              000000000000
   \              00000000    
   \   00000300   000000000000       DC8 0, 0, 0, 0, 0, 0, 0, 0, 0, 0, 0, 0, 0, 0, 0, 0
   \              000000000000
   \              00000000    
   \   00000310   000000000000       DC8 0, 0, 0, 0, 0, 0, 0, 0, 0, 0, 0, 0, 0, 0, 0, 0
   \              000000000000
   \              00000000    
   \   00000320   000000000000       DC8 0, 0, 0, 0, 0, 0, 0, 0, 0, 0, 0, 0, 0, 0, 0, 0
   \              000000000000
   \              00000000    
   \   00000330   000000000000       DC8 0, 0, 0, 0, 0, 0, 0, 0, 0, 0, 0, 0, 0, 0, 0, 0
   \              000000000000
   \              00000000    
   \   00000340   000000000000       DC8 0, 0, 0, 0, 0, 0, 0, 0, 0, 0, 0, 0, 0, 0, 0, 0
   \              000000000000
   \              00000000    
   \   00000350   000000000000       DC8 0, 0, 0, 0, 0, 0, 0, 0, 0, 0, 0, 0, 0, 0, 0, 0
   \              000000000000
   \              00000000    
   \   00000360   000000000000       DC8 0, 0, 0, 0, 0, 0, 0, 0, 0, 0, 0, 0, 0, 0, 0, 0
   \              000000000000
   \              00000000    
   \   00000370   000000000000       DC8 0, 0, 0, 0, 0, 0, 0, 0, 0, 0, 0, 0, 0, 0, 0, 0
   \              000000000000
   \              00000000    
   \   00000380   000000000000       DC8 0, 0, 0, 0, 0, 0, 0, 0, 0, 0, 0, 0, 0, 0, 0, 0
   \              000000000000
   \              00000000    
   \   00000390   000000000000       DC8 0, 0, 0, 0, 0, 0, 0, 0, 0, 0, 0, 0, 0, 0, 0, 0
   \              000000000000
   \              00000000    
   \   000003A0   000000000000       DC8 0, 0, 0, 0, 0, 0, 0, 0, 0, 0, 0, 0, 0, 0, 0, 0
   \              000000000000
   \              00000000    
   \   000003B0   000000000000       DC8 0, 0, 0, 0, 0, 0, 0, 0, 0, 0, 0, 0, 0, 0, 0, 0
   \              000000000000
   \              00000000    
   \   000003C0   000000000000       DC8 0, 0, 0, 0, 0, 0, 0, 0, 0, 0, 0, 0, 0, 0, 0, 0
   \              000000000000
   \              00000000    
   \   000003D0   000000000000       DC8 0, 0, 0, 0, 0, 0, 0, 0, 0, 0, 0, 0, 0, 0, 0, 0
   \              000000000000
   \              00000000    
   \   000003E0   000000000000       DC8 0, 0, 0, 0, 0, 0, 0, 0, 0, 0, 0, 0, 0, 0, 0, 0
   \              000000000000
   \              00000000    
   \   000003F0   000000000000       DC8 0, 0, 0, 0, 0, 0, 0, 0, 0, 0, 0, 0, 0, 0, 0, 0
   \              000000000000
   \              00000000    
   \   00000400   000000000000       DC8 0, 0, 0, 0, 0, 0, 0, 0, 0, 0, 0, 0, 0, 0, 0, 0
   \              000000000000
   \              00000000    
   \   00000410   000000000000       DC8 0, 0, 0, 0, 0, 0, 0, 0, 0, 0, 0, 0, 0, 0, 0, 0
   \              000000000000
   \              00000000    
   \   00000420   000000000000       DC8 0, 0, 0, 0, 0, 0, 0, 0, 0, 0, 0, 0, 0, 0, 0, 0
   \              000000000000
   \              00000000    
   \   00000430   000000000000       DC8 0, 0, 0, 0, 0, 0, 0, 0, 0, 0, 0, 0, 0, 0, 0, 0
   \              000000000000
   \              00000000    
   \   00000440   000000000000       DC8 0, 0, 0, 0, 0, 0, 0, 0, 0, 0, 0, 0, 0, 0, 0, 0
   \              000000000000
   \              00000000    
   \   00000450   000000000000       DC8 0, 0, 0, 0, 0, 0, 0, 0, 0, 0, 0, 0, 0, 0, 0, 0
   \              000000000000
   \              00000000    
   \   00000460   000000000000       DC8 0, 0, 0, 0, 0, 0, 0, 0, 0, 0, 0, 0, 0, 0, 0, 0
   \              000000000000
   \              00000000    
   \   00000470   000000000000       DC8 0, 0, 0, 0, 0, 0, 0, 0, 0, 0, 0, 0, 0, 0, 0, 0
   \              000000000000
   \              00000000    
   \   00000480   000000000000       DC8 0, 0, 0, 0, 0, 0, 0, 0, 0, 0, 0, 0, 0, 0, 0, 0
   \              000000000000
   \              00000000    
   \   00000490   000000000000       DC8 0, 0, 0, 0, 0, 0, 0, 0, 0, 0, 0, 0, 0, 0, 0, 0
   \              000000000000
   \              00000000    
   \   000004A0   000000000000       DC8 0, 0, 0, 0, 0, 0, 0, 0, 0, 0, 0, 0, 0, 0, 0, 0
   \              000000000000
   \              00000000    
   \   000004B0   000000000000       DC8 0, 0, 0, 0, 0, 0, 0, 0, 0, 0, 0, 0, 0, 0, 0, 0
   \              000000000000
   \              00000000    
   \   000004C0   000000000000       DC8 0, 0, 0, 0, 0, 0, 0, 0, 0, 0, 0, 0, 0, 0, 0, 0
   \              000000000000
   \              00000000    
   \   000004D0   000000000000       DC8 0, 0, 0, 0, 0, 0, 0, 0, 0, 0, 0, 0, 0, 0, 0, 0
   \              000000000000
   \              00000000    
   \   000004E0   000000000000       DC8 0, 0, 0, 0, 0, 0, 0, 0, 0, 0, 0, 0, 0, 0, 0, 0
   \              000000000000
   \              00000000    
   \   000004F0   000000000000       DC8 0, 0, 0, 0, 0, 0, 0, 0, 0, 0, 0, 0, 0, 0, 0, 0
   \              000000000000
   \              00000000    
   \   00000500   000000000000       DC8 0, 0, 0, 0, 0, 0, 0, 0, 0, 0, 0, 0, 0, 0, 0, 0
   \              000000000000
   \              00000000    
   \                     `?<Initializer for c_int_array1d_static_fld>`:
   \   00000510   000000000000       DC8 0, 0, 0, 0, 0, 0, 0, 0, 0, 0, 0, 0, 0, 0, 0, 0
   \              000000000000
   \              00000000    
   \   00000520   000000000000       DC8 0, 0, 0, 0, 0, 0, 0, 0, 0, 0, 0, 0, 0, 0, 0, 0
   \              000000000000
   \              00000000    
   \   00000530   000000000000       DC8 0, 0, 0, 0, 0, 0, 0, 0, 0, 0, 0, 0, 0, 0, 0, 0
   \              000000000000
   \              00000000    
   \   00000540   000000000000       DC8 0, 0, 0, 0, 0, 0, 0, 0, 0, 0, 0, 0, 0, 0, 0, 0
   \              000000000000
   \              00000000    
   \   00000550   000000000000       DC8 0, 0, 0, 0, 0, 0, 0, 0, 0, 0, 0, 0, 0, 0, 0, 0
   \              000000000000
   \              00000000    
   \   00000560   000000000000       DC8 0, 0, 0, 0, 0, 0, 0, 0, 0, 0, 0, 0, 0, 0, 0, 0
   \              000000000000
   \              00000000    
   \   00000570   000000000000       DC8 0, 0, 0, 0, 0, 0, 0, 0, 0, 0, 0, 0, 0, 0, 0, 0
   \              000000000000
   \              00000000    
   \   00000580   000000000000       DC8 0, 0, 0, 0, 0, 0, 0, 0, 0, 0, 0, 0, 0, 0, 0, 0
   \              000000000000
   \              00000000    
   \   00000590   000000000000       DC8 0, 0, 0, 0, 0, 0, 0, 0, 0, 0, 0, 0, 0, 0, 0, 0
   \              000000000000
   \              00000000    
   \   000005A0   000000000000       DC8 0, 0, 0, 0, 0, 0, 0, 0, 0, 0, 0, 0, 0, 0, 0, 0
   \              000000000000
   \              00000000    
   \   000005B0   000000000000       DC8 0, 0, 0, 0, 0, 0, 0, 0, 0, 0, 0, 0, 0, 0, 0, 0
   \              000000000000
   \              00000000    
   \   000005C0   000000000000       DC8 0, 0, 0, 0, 0, 0, 0, 0, 0, 0, 0, 0, 0, 0, 0, 0
   \              000000000000
   \              00000000    
   \   000005D0   000000000000       DC8 0, 0, 0, 0, 0, 0, 0, 0, 0, 0, 0, 0, 0, 0, 0, 0
   \              000000000000
   \              00000000    
   \   000005E0   000000000000       DC8 0, 0, 0, 0, 0, 0, 0, 0, 0, 0, 0, 0, 0, 0, 0, 0
   \              000000000000
   \              00000000    
   \   000005F0   000000000000       DC8 0, 0, 0, 0, 0, 0, 0, 0, 0, 0, 0, 0, 0, 0, 0, 0
   \              000000000000
   \              00000000    
   \   00000600   000000000000       DC8 0, 0, 0, 0, 0, 0, 0, 0, 0, 0, 0, 0, 0, 0, 0, 0
   \              000000000000
   \              00000000    
   \   00000610   000000000000       DC8 0, 0, 0, 0, 0, 0, 0, 0, 0, 0, 0, 0, 0, 0, 0, 0
   \              000000000000
   \              00000000    
   \   00000620   000000000000       DC8 0, 0, 0, 0, 0, 0, 0, 0, 0, 0, 0, 0, 0, 0, 0, 0
   \              000000000000
   \              00000000    
   \   00000630   000000000000       DC8 0, 0, 0, 0, 0, 0, 0, 0, 0, 0, 0, 0, 0, 0, 0, 0
   \              000000000000
   \              00000000    
   \   00000640   000000000000       DC8 0, 0, 0, 0, 0, 0, 0, 0, 0, 0, 0, 0, 0, 0, 0, 0
   \              000000000000
   \              00000000    
   \   00000650   000000000000       DC8 0, 0, 0, 0, 0, 0, 0, 0, 0, 0, 0, 0, 0, 0, 0, 0
   \              000000000000
   \              00000000    
   \   00000660   000000000000       DC8 0, 0, 0, 0, 0, 0, 0, 0, 0, 0, 0, 0, 0, 0, 0, 0
   \              000000000000
   \              00000000    
   \   00000670   000000000000       DC8 0, 0, 0, 0, 0, 0, 0, 0, 0, 0, 0, 0, 0, 0, 0, 0
   \              000000000000
   \              00000000    
   \   00000680   000000000000       DC8 0, 0, 0, 0, 0, 0, 0, 0, 0, 0, 0, 0, 0, 0, 0, 0
   \              000000000000
   \              00000000    
   \   00000690   000000000000       DC8 0, 0, 0, 0, 0, 0, 0, 0, 0, 0, 0, 0, 0, 0, 0, 0
   \              000000000000
   \              00000000    
   \   000006A0   000000000000       DC8 0, 0, 0, 0, 0, 0, 0, 0, 0, 0, 0, 0, 0, 0, 0, 0
   \              000000000000
   \              00000000    
   \   000006B0   000000000000       DC8 0, 0, 0, 0, 0, 0, 0, 0, 0, 0, 0, 0, 0, 0, 0, 0
   \              000000000000
   \              00000000    
   \   000006C0   000000000000       DC8 0, 0, 0, 0, 0, 0, 0, 0, 0, 0, 0, 0, 0, 0, 0, 0
   \              000000000000
   \              00000000    
   \   000006D0   000000000000       DC8 0, 0, 0, 0, 0, 0, 0, 0, 0, 0, 0, 0, 0, 0, 0, 0
   \              000000000000
   \              00000000    
   \   000006E0   000000000000       DC8 0, 0, 0, 0, 0, 0, 0, 0, 0, 0, 0, 0, 0, 0, 0, 0
   \              000000000000
   \              00000000    
   \   000006F0   000000000000       DC8 0, 0, 0, 0, 0, 0, 0, 0, 0, 0, 0, 0, 0, 0, 0, 0
   \              000000000000
   \              00000000    
   \   00000700   000000000000       DC8 0, 0, 0, 0, 0, 0, 0, 0, 0, 0, 0, 0, 0, 0, 0, 0
   \              000000000000
   \              00000000    
   \   00000710   000000000000       DC8 0, 0, 0, 0, 0, 0, 0, 0, 0, 0, 0, 0, 0, 0, 0, 0
   \              000000000000
   \              00000000    
   \   00000720   000000000000       DC8 0, 0, 0, 0, 0, 0, 0, 0, 0, 0, 0, 0, 0, 0, 0, 0
   \              000000000000
   \              00000000    
   \   00000730   000000000000       DC8 0, 0, 0, 0, 0, 0, 0, 0, 0, 0, 0, 0, 0, 0, 0, 0
   \              000000000000
   \              00000000    
   \   00000740   000000000000       DC8 0, 0, 0, 0, 0, 0, 0, 0, 0, 0, 0, 0, 0, 0, 0, 0
   \              000000000000
   \              00000000    
   \   00000750   000000000000       DC8 0, 0, 0, 0, 0, 0, 0, 0, 0, 0, 0, 0, 0, 0, 0, 0
   \              000000000000
   \              00000000    
   \   00000760   000000000000       DC8 0, 0, 0, 0, 0, 0, 0, 0, 0, 0, 0, 0, 0, 0, 0, 0
   \              000000000000
   \              00000000    
   \   00000770   000000000000       DC8 0, 0, 0, 0, 0, 0, 0, 0, 0, 0, 0, 0, 0, 0, 0, 0
   \              000000000000
   \              00000000    
   \   00000780   000000000000       DC8 0, 0, 0, 0, 0, 0, 0, 0, 0, 0, 0, 0, 0, 0, 0, 0
   \              000000000000
   \              00000000    
   \   00000790   000000000000       DC8 0, 0, 0, 0, 0, 0, 0, 0, 0, 0, 0, 0, 0, 0, 0, 0
   \              000000000000
   \              00000000    
   \   000007A0   000000000000       DC8 0, 0, 0, 0, 0, 0, 0, 0, 0, 0, 0, 0, 0, 0, 0, 0
   \              000000000000
   \              00000000    
   \   000007B0   000000000000       DC8 0, 0, 0, 0, 0, 0, 0, 0, 0, 0, 0, 0, 0, 0, 0, 0
   \              000000000000
   \              00000000    
   \   000007C0   000000000000       DC8 0, 0, 0, 0, 0, 0, 0, 0, 0, 0, 0, 0, 0, 0, 0, 0
   \              000000000000
   \              00000000    
   \   000007D0   000000000000       DC8 0, 0, 0, 0, 0, 0, 0, 0, 0, 0, 0, 0, 0, 0, 0, 0
   \              000000000000
   \              00000000    
   \   000007E0   000000000000       DC8 0, 0, 0, 0, 0, 0, 0, 0, 0, 0, 0, 0, 0, 0, 0, 0
   \              000000000000
   \              00000000    
   \   000007F0   000000000000       DC8 0, 0, 0, 0, 0, 0, 0, 0, 0, 0, 0, 0, 0, 0, 0, 0
   \              000000000000
   \              00000000    
   \   00000800   000000000000       DC8 0, 0, 0, 0, 0, 0, 0, 0, 0, 0, 0, 0, 0, 0, 0, 0
   \              000000000000
   \              00000000    
   \   00000810   000000000000       DC8 0, 0, 0, 0, 0, 0, 0, 0, 0, 0, 0, 0, 0, 0, 0, 0
   \              000000000000
   \              00000000    
   \   00000820   000000000000       DC8 0, 0, 0, 0, 0, 0, 0, 0, 0, 0, 0, 0, 0, 0, 0, 0
   \              000000000000
   \              00000000    
   \   00000830   000000000000       DC8 0, 0, 0, 0, 0, 0, 0, 0, 0, 0, 0, 0, 0, 0, 0, 0
   \              000000000000
   \              00000000    
   \   00000840   000000000000       DC8 0, 0, 0, 0, 0, 0, 0, 0, 0, 0, 0, 0, 0, 0, 0, 0
   \              000000000000
   \              00000000    
   \   00000850   000000000000       DC8 0, 0, 0, 0, 0, 0, 0, 0, 0, 0, 0, 0, 0, 0, 0, 0
   \              000000000000
   \              00000000    
   \   00000860   000000000000       DC8 0, 0, 0, 0, 0, 0, 0, 0, 0, 0, 0, 0, 0, 0, 0, 0
   \              000000000000
   \              00000000    
   \   00000870   000000000000       DC8 0, 0, 0, 0, 0, 0, 0, 0, 0, 0, 0, 0, 0, 0, 0, 0
   \              000000000000
   \              00000000    
   \   00000880   000000000000       DC8 0, 0, 0, 0, 0, 0, 0, 0, 0, 0, 0, 0, 0, 0, 0, 0
   \              000000000000
   \              00000000    
   \   00000890   000000000000       DC8 0, 0, 0, 0, 0, 0, 0, 0, 0, 0, 0, 0, 0, 0, 0, 0
   \              000000000000
   \              00000000    
   \   000008A0   000000000000       DC8 0, 0, 0, 0, 0, 0, 0, 0, 0, 0, 0, 0, 0, 0, 0, 0
   \              000000000000
   \              00000000    
   \   000008B0   000000000000       DC8 0, 0, 0, 0, 0, 0, 0, 0, 0, 0, 0, 0, 0, 0, 0, 0
   \              000000000000
   \              00000000    
   \   000008C0   000000000000       DC8 0, 0, 0, 0, 0, 0, 0, 0, 0, 0, 0, 0, 0, 0, 0, 0
   \              000000000000
   \              00000000    
   \   000008D0   000000000000       DC8 0, 0, 0, 0, 0, 0, 0, 0, 0, 0, 0, 0, 0, 0, 0, 0
   \              000000000000
   \              00000000    
   \   000008E0   000000000000       DC8 0, 0, 0, 0, 0, 0, 0, 0, 0, 0, 0, 0, 0, 0, 0, 0
   \              000000000000
   \              00000000    
   \   000008F0   000000000000       DC8 0, 0, 0, 0, 0, 0, 0, 0, 0, 0, 0, 0, 0, 0, 0, 0
   \              000000000000
   \              00000000    
   \   00000900   000000000000       DC8 0, 0, 0, 0, 0, 0, 0, 0, 0, 0, 0, 0, 0, 0, 0, 0
   \              000000000000
   \              00000000    
   \   00000910   000000000000       DC8 0, 0, 0, 0, 0, 0, 0, 0, 0, 0, 0, 0, 0, 0, 0, 0
   \              000000000000
   \              00000000    
   \                     `?<Initializer for key>`:
   \   00000920   320000003800       DC32 50, 56, 52, 54, 49, 51, 53, 48, 55, 57, 35, 0, 0, 42
   \              000034000000
   \              360000003100
   \              000033000000
   \              350000003000
   \              000037000000
   \              390000002300
   \              000000000000
   \              000000002A00
   \              0000        
   \                     `?<Initializer for i_int_array1d_static_fld>`:
   \   00000958   000000000000       DC8 0, 0, 0, 0, 0, 0, 0, 0, 0, 0, 0, 0, 0, 0, 0, 0
   \              000000000000
   \              00000000    
   \   00000968   000000000000       DC8 0, 0, 0, 0, 0, 0, 0, 0, 0, 0, 0, 0, 0, 0, 0, 0
   \              000000000000
   \              00000000    
   \   00000978   000000000000       DC8 0, 0, 0, 0, 0, 0, 0, 0, 0, 0, 0, 0, 0, 0, 0, 0
   \              000000000000
   \              00000000    
   \                     `?<Initializer for b_int_array1d_static_fld>`:
   \   00000988   000000000000       DC8 0, 0, 0, 0, 0, 0, 0, 0, 0, 0, 0, 0, 0, 0, 0, 0
   \              000000000000
   \              00000000    
   \   00000998   000000000000       DC8 0, 0, 0, 0, 0, 0, 0, 0, 0, 0, 0, 0, 0, 0, 0, 0
   \              000000000000
   \              00000000    
   \                     `?<Initializer for d_int_array1d_static_fld>`:
   \   000009A8   000000000000       DC8 0, 0, 0, 0, 0, 0, 0, 0, 0, 0, 0, 0, 0, 0, 0, 0
   \              000000000000
   \              00000000    
   \   000009B8   000000000000       DC8 0, 0, 0, 0, 0, 0, 0, 0, 0, 0, 0, 0, 0, 0, 0, 0
   \              000000000000
   \              00000000    
   \                     `?<Initializer for main_a_int_fld>`:
   \   000009C8   00000000           DC8 0, 0, 0, 0
   \                     `?<Initializer for main_c_int_fld>`:
   \   000009CC   00000000           DC8 0, 0, 0, 0
   \                     `?<Initializer for getWidth>`:
   \   000009D0   84000000           DC32 132
   \                     `?<Initializer for getHeight>`:
   \   000009D4   B0000000           DC32 176
   \                     `?<Initializer for screen_length>`:
   \   000009D8   C05A0000           DC32 23232
   \                     `?<Initializer for nn>`:
   \   000009DC   00000000           DC8 0, 0, 0, 0
   \                     `?<Initializer for b_int_static_fld>`:
   \   000009E0   80000000           DC32 128
   \                     `?<Initializer for Z>`:
   \   000009E4   00000000           DC32 0
   \                     `?<Initializer for f_int_static_fld>`:
   \   000009E8   00000000           DC32 0
   \                     `?<Initializer for n_int_static_fld>`:
   \   000009EC   00000000           DC32 0
   \                     `?<Initializer for Q>`:
   \   000009F0   00000000           DC32 0
   \                     `?<Initializer for w>`:
   \   000009F4   00000000           DC32 0
   \                     `?<Initializer for P>`:
   \   000009F8   00000000           DC8 0, 0, 0, 0
   \                     `?<Initializer for ad>`:
   \   000009FC   00000000           DC8 0, 0, 0, 0
   \                     `?<Initializer for ab>`:
   \   00000A00   00000000           DC32 0
   \                     `?<Initializer for S>`:
   \   00000A04   00000000           DC32 0
   \                     `?<Initializer for R>`:
   \   00000A08   00000000           DC32 0
   \                     `?<Initializer for o_int_static_fld>`:
   \   00000A0C   00000000           DC32 0
   \                     `?<Initializer for L>`:
   \   00000A10   80000000           DC32 128
   \                     `?<Initializer for e_int_static_fld>`:
   \   00000A14   00000000           DC32 0
   \                     `?<Initializer for H>`:
   \   00000A18   00000000           DC32 0
   \                     `?<Initializer for O>`:
   \   00000A1C   00000000           DC32 0
   \                     `?<Initializer for g_int_static_fld>`:
   \   00000A20   00000000           DC32 0
   \                     `?<Initializer for ac>`:
   \   00000A24   00000000           DC32 0
   \                     `?<Initializer for N>`:
   \   00000A28   00000000           DC32 0
   \                     `?<Initializer for s_int_static_fld>`:
   \   00000A2C   00000000           DC32 0
   \                     `?<Initializer for v_int_static_fld>`:
   \   00000A30   00000000           DC32 0
   \                     `?<Initializer for B>`:
   \   00000A34   64000000           DC32 100
   \                     `?<Initializer for aa>`:
   \   00000A38   FFFFFFFF           DC32 -1
   \                     `?<Initializer for I>`:
   \   00000A3C   00000000           DC32 0
   \                     `?<Initializer for F>`:
   \   00000A40   00000000           DC32 0
   \                     `?<Initializer for k_int_static_fld>`:
   \   00000A44   00000000           DC32 0
   \                     `?<Initializer for a_int_static_fld>`:
   \   00000A48   00000000           DC32 0
   \                     `?<Initializer for X>`:
   \   00000A4C   00000000           DC32 0
   \                     `?<Initializer for y>`:
   \   00000A50   00000000           DC32 0
   \                     `?<Initializer for D>`:
   \   00000A54   00000000           DC32 0
   \                     `?<Initializer for c_int_static_fld>`:
   \   00000A58   00000000           DC32 0
   \                     `?<Initializer for vram>`:
   \   00000A5C   00000000           DC32 0H
   \                     `?<Initializer for T>`:
   \   00000A60   00000000           DC32 0
   \                     `?<Initializer for W>`:
   \   00000A64   00000000           DC32 0
   \                     `?<Initializer for U>`:
   \   00000A68   00000000           DC32 0
   \                     `?<Initializer for d_int_static_fld>`:
   \   00000A6C   00000000           DC32 0
   \                     `?<Initializer for m_int_static_fld>`:
   \   00000A70   00000000           DC32 0
   \                     `?<Initializer for c_long_static_fld>`:
   \   00000A74   00000000           DC8 0, 0, 0, 0
   \                     `?<Initializer for i_int_static_fld>`:
   \   00000A78   00000000           DC32 0
   \                     `?<Initializer for K>`:
   \   00000A7C   FFFFFFFF           DC32 -1
   \                     `?<Initializer for t_int_static_fld>`:
   \   00000A80   FFFFFFFF           DC32 -1
   \                     `?<Initializer for e_int_array1d_static_fld>`:
   \   00000A84   000000000000       DC8 0, 0, 0, 0, 0, 0, 0, 0, 0, 0, 0, 0, 0, 0, 0, 0
   \              000000000000
   \              00000000    
   \   00000A94   000000000000       DC8 0, 0, 0, 0, 0, 0, 0, 0, 0, 0, 0, 0, 0, 0, 0, 0
   \              000000000000
   \              00000000    
   \   00000AA4   000000000000       DC8 0, 0, 0, 0, 0, 0, 0, 0, 0, 0, 0, 0, 0, 0, 0, 0
   \              000000000000
   \              00000000    
   \   00000AB4   000000000000       DC8 0, 0, 0, 0, 0, 0, 0, 0, 0, 0, 0, 0, 0, 0, 0, 0
   \              000000000000
   \              00000000    
   \   00000AC4   000000000000       DC8 0, 0, 0, 0, 0, 0, 0, 0, 0, 0, 0, 0, 0, 0, 0, 0
   \              000000000000
   \              00000000    
   \   00000AD4   000000000000       DC8 0, 0, 0, 0, 0, 0, 0, 0, 0, 0, 0, 0, 0, 0, 0, 0
   \              000000000000
   \              00000000    
   \   00000AE4   000000000000       DC8 0, 0, 0, 0, 0, 0, 0, 0, 0, 0, 0, 0, 0, 0, 0, 0
   \              000000000000
   \              00000000    
   \   00000AF4   000000000000       DC8 0, 0, 0, 0, 0, 0, 0, 0, 0, 0, 0, 0, 0, 0, 0, 0
   \              000000000000
   \              00000000    
   \                     `?<Initializer for x>`:
   \   00000B04   01000000           DC32 1
   \                     `?<Initializer for l_int_array1d_static_fld>`:
   \   00000B08   000000000000       DC8 0, 0, 0, 0, 0, 0, 0, 0, 0, 0, 0, 0, 0, 0, 0, 0
   \              000000000000
   \              00000000    
   \   00000B18   000000000000       DC8 0, 0, 0, 0, 0, 0, 0, 0, 0, 0, 0, 0, 0, 0, 0, 0
   \              000000000000
   \              00000000    
   \                     `?<Initializer for a_char_array1d_static_fld>`:
   \   00000B28   00000000           DC32 0H
   \                     `?<Initializer for j_int_static_fld>`:
   \   00000B2C   00000000           DC32 0
   \                     `?<Initializer for q_int_static_fld>`:
   \   00000B30   00000000           DC32 0
   \                     `?<Initializer for E>`:
   \   00000B34   00000000           DC32 0
   \                     `?<Initializer for G>`:
   \   00000B38   00000000           DC32 0
   \                     `?<Initializer for J>`:
   \   00000B3C   01000000           DC32 1
   \                     `?<Initializer for Y>`:
   \   00000B40   00000000           DC32 0
   \                     `?<Initializer for A>`:
   \   00000B44   05000000           DC32 5
   \                     `?<Initializer for V>`:
   \   00000B48   04000000           DC32 4
   \                     `?<Initializer for p_int_static_fld>`:
   \   00000B4C   00000000           DC32 0
   \                     `?<Initializer for d_byte_array1d_static_fld>`:
   \   00000B50   000000000000       DC8 0, 0, 0, 0, 0, 0, 0, 0, 0, 0, 0, 0, 0, 0, 0, 0
   \              000000000000
   \              00000000    
   \   00000B60   000000000000       DC8 0, 0, 0, 0, 0, 0, 0, 0, 0, 0, 0, 0, 0, 0, 0, 0
   \              000000000000
   \              00000000    
   \   00000B70   000000000000       DC8 0, 0, 0, 0, 0, 0, 0, 0, 0, 0, 0, 0, 0, 0, 0, 0
   \              000000000000
   \              00000000    
   \   00000B80   000000000000       DC8 0, 0, 0, 0, 0, 0, 0, 0, 0, 0, 0, 0, 0, 0, 0, 0
   \              000000000000
   \              00000000    
   \   00000B90   000000000000       DC8 0, 0, 0, 0, 0, 0, 0, 0, 0, 0, 0, 0, 0, 0, 0, 0
   \              000000000000
   \              00000000    
   \   00000BA0   000000000000       DC8 0, 0, 0, 0, 0, 0, 0, 0, 0, 0, 0, 0, 0, 0, 0, 0
   \              000000000000
   \              00000000    
   \   00000BB0   000000000000       DC8 0, 0, 0, 0, 0, 0, 0, 0, 0, 0, 0, 0, 0, 0, 0, 0
   \              000000000000
   \              00000000    
   \   00000BC0   000000000000       DC8 0, 0, 0, 0, 0, 0, 0, 0, 0, 0, 0, 0, 0, 0, 0, 0
   \              000000000000
   \              00000000    
   \   00000BD0   000000000000       DC8 0, 0, 0, 0, 0, 0, 0, 0, 0, 0, 0, 0, 0, 0, 0, 0
   \              000000000000
   \              00000000    
   \   00000BE0   000000000000       DC8 0, 0, 0, 0, 0, 0, 0, 0, 0, 0, 0, 0, 0, 0, 0, 0
   \              000000000000
   \              00000000    
   \   00000BF0   000000000000       DC8 0, 0, 0, 0, 0, 0, 0, 0, 0, 0, 0, 0, 0, 0, 0, 0
   \              000000000000
   \              00000000    
   \   00000C00   000000000000       DC8 0, 0, 0, 0, 0, 0, 0, 0, 0, 0, 0, 0, 0, 0, 0, 0
   \              000000000000
   \              00000000    
   \   00000C10   000000000000       DC8 0, 0, 0, 0, 0, 0, 0, 0, 0, 0, 0, 0, 0, 0, 0, 0
   \              000000000000
   \              00000000    
   \   00000C20   000000000000       DC8 0, 0, 0, 0, 0, 0, 0, 0, 0, 0, 0, 0, 0, 0, 0, 0
   \              000000000000
   \              00000000    
   \   00000C30   000000000000       DC8 0, 0, 0, 0, 0, 0, 0, 0, 0, 0, 0, 0, 0, 0, 0, 0
   \              000000000000
   \              00000000    
   \   00000C40   000000000000       DC8 0, 0, 0, 0, 0, 0, 0, 0, 0, 0, 0, 0, 0, 0, 0, 0
   \              000000000000
   \              00000000    
   \                     `?<Initializer for C>`:
   \   00000C50   00000000           DC32 0
   \                     `?<Initializer for a_long_static_fld>`:
   \   00000C54   00000000           DC32 0
   \                     `?<Initializer for b_byte_array1d_static_fld>`:
   \   00000C58   00000000           DC32 0H
   \                     `?<Initializer for screens>`:
   \   00000C5C   00000000           DC32 0H
   \                     `?<Initializer for h_int_static_fld>`:
   \   00000C60   00000000           DC8 0, 0, 0, 0
   \                     `?<Initializer for r_int_static_fld>`:
   \   00000C64   00000000           DC8 0, 0, 0, 0
   \                     `?<Initializer for l_int_static_fld>`:
   \   00000C68   FFFFFFFF           DC32 -1
   \                     `?<Initializer for M>`:
   \   00000C6C   00000000           DC32 0
   \                     `?<Initializer for ram>`:
   \   00000C70   00000000           DC32 0
   \                     `?<Initializer for ramsize>`:
   \   00000C74   00000000           DC32 0
   \                     `?<Initializer for keyindex>`:
   \   00000C78   FFFFFFFF           DC32 -1
   \                     `?<Initializer for main_b_boolean_fld>`:
   \   00000C7C   00                 DC8 0
   \                     `?<Initializer for q_boolean_static_fld>`:
   \   00000C7D   01                 DC8 1
   \                     `?<Initializer for r_boolean_static_fld>`:
   \   00000C7E   00                 DC8 0
   \                     `?<Initializer for i_boolean_static_fld>`:
   \   00000C7F   00                 DC8 0
   \                     `?<Initializer for e_boolean_static_fld>`:
   \   00000C80   00                 DC8 0
   \                     `?<Initializer for o_boolean_static_fld>`:
   \   00000C81   00                 DC8 0
   \                     `?<Initializer for f_boolean_static_fld>`:
   \   00000C82   00                 DC8 0
   \                     `?<Initializer for g_boolean_static_fld>`:
   \   00000C83   00                 DC8 0
   \                     `?<Initializer for t_boolean_static_fld>`:
   \   00000C84   01                 DC8 1
   \                     `?<Initializer for p_boolean_static_fld>`:
   \   00000C85   00                 DC8 0
   \                     `?<Initializer for b_boolean_static_fld>`:
   \   00000C86   00                 DC8 0
   \                     `?<Initializer for v_boolean_static_fld>`:
   \   00000C87   00                 DC8 0
   \                     `?<Initializer for h_boolean_static_fld>`:
   \   00000C88   00                 DC8 0
   \                     `?<Initializer for d_boolean_static_fld>`:
   \   00000C89   00                 DC8 0
   \                     `?<Initializer for n_boolean_static_fld>`:
   \   00000C8A   00                 DC8 0
   \                     `?<Initializer for c_boolean_static_fld>`:
   \   00000C8B   00                 DC8 0
   \                     `?<Initializer for l_boolean_static_fld>`:
   \   00000C8C   00                 DC8 0
   \                     `?<Initializer for j_boolean_static_fld>`:
   \   00000C8D   00                 DC8 0
   \   00000C8E   0000               DC8 0, 0
   \                     `?<Initializer for b_boolean_array1d_static_fld`:
   \   00000C90   000000000000       DC8 0, 0, 0, 0, 0, 0, 0, 0, 0, 0, 0, 0, 0, 0, 0, 0
   \              000000000000
   \              00000000    
   \   00000CA0   000000000000       DC8 0, 0, 0, 0, 0, 0, 0, 0, 0, 0, 0, 0, 0, 0, 0, 0
   \              000000000000
   \              00000000    
   \   00000CB0   000000000000       DC8 0, 0, 0, 0, 0, 0, 0, 0, 0, 0, 0, 0, 0, 0, 0, 0
   \              000000000000
   \              00000000    
   \   00000CC0   000000000000       DC8 0, 0, 0, 0, 0, 0, 0, 0, 0, 0, 0, 0, 0, 0, 0, 0
   \              000000000000
   \              00000000    
   \   00000CD0   000000000000       DC8 0, 0, 0, 0, 0, 0, 0, 0, 0, 0, 0, 0, 0, 0, 0, 0
   \              000000000000
   \              00000000    
   \   00000CE0   000000000000       DC8 0, 0, 0, 0, 0, 0, 0, 0, 0, 0, 0, 0, 0, 0, 0, 0
   \              000000000000
   \              00000000    
   \   00000CF0   000000000000       DC8 0, 0, 0, 0, 0, 0, 0, 0, 0, 0, 0, 0, 0, 0, 0, 0
   \              000000000000
   \              00000000    
   \   00000D00   000000000000       DC8 0, 0, 0, 0, 0, 0, 0, 0, 0, 0, 0, 0, 0, 0, 0, 0
   \              000000000000
   \              00000000    
   \   00000D10   000000000000       DC8 0, 0, 0, 0, 0, 0, 0, 0, 0, 0, 0, 0, 0, 0, 0, 0
   \              000000000000
   \              00000000    
   \   00000D20   000000000000       DC8 0, 0, 0, 0, 0, 0, 0, 0, 0, 0, 0, 0, 0, 0, 0, 0
   \              000000000000
   \              00000000    
   \   00000D30   000000000000       DC8 0, 0, 0, 0, 0, 0, 0, 0, 0, 0, 0, 0, 0, 0, 0, 0
   \              000000000000
   \              00000000    
   \   00000D40   000000000000       DC8 0, 0, 0, 0, 0, 0, 0, 0, 0, 0, 0, 0, 0, 0, 0, 0
   \              000000000000
   \              00000000    
   \   00000D50   000000000000       DC8 0, 0, 0, 0, 0, 0, 0, 0, 0, 0, 0, 0, 0, 0, 0, 0
   \              000000000000
   \              00000000    
   \   00000D60   000000000000       DC8 0, 0, 0, 0, 0, 0, 0, 0, 0, 0, 0, 0, 0, 0, 0, 0
   \              000000000000
   \              00000000    
   \   00000D70   000000000000       DC8 0, 0, 0, 0, 0, 0, 0, 0, 0, 0, 0, 0, 0, 0, 0, 0
   \              000000000000
   \              00000000    
   \   00000D80   000000000000       DC8 0, 0, 0, 0, 0, 0, 0, 0, 0, 0, 0, 0, 0, 0, 0, 0, 0, 0, 0, 0
   \              000000000000
   \              000000000000
   \              0000        
   \                     `?<Initializer for a_boolean_array1d_static_fld`:
   \   00000D94   000000000000       DC8 0, 0, 0, 0, 0, 0, 0, 0, 0, 0, 0, 0, 0, 0, 0, 0
   \              000000000000
   \              00000000    
   \   00000DA4   000000000000       DC8 0, 0, 0, 0, 0, 0, 0, 0, 0, 0, 0, 0, 0, 0, 0, 0
   \              000000000000
   \              00000000    
   \   00000DB4   000000000000       DC8 0, 0, 0, 0, 0, 0, 0, 0, 0, 0, 0, 0, 0, 0, 0, 0
   \              000000000000
   \              00000000    
   \   00000DC4   000000000000       DC8 0, 0, 0, 0, 0, 0, 0, 0, 0, 0, 0, 0, 0, 0, 0, 0
   \              000000000000
   \              00000000    
   \   00000DD4   000000000000       DC8 0, 0, 0, 0, 0, 0, 0, 0, 0, 0, 0, 0, 0, 0, 0, 0
   \              000000000000
   \              00000000    
   \   00000DE4   000000000000       DC8 0, 0, 0, 0, 0, 0, 0, 0, 0, 0, 0, 0, 0, 0, 0, 0
   \              000000000000
   \              00000000    
   \   00000DF4   000000000000       DC8 0, 0, 0, 0, 0, 0, 0, 0, 0, 0, 0, 0, 0, 0, 0, 0
   \              000000000000
   \              00000000    
   \   00000E04   000000000000       DC8 0, 0, 0, 0, 0, 0, 0, 0, 0, 0, 0, 0, 0, 0, 0, 0
   \              000000000000
   \              00000000    
   \   00000E14   000000000000       DC8 0, 0, 0, 0, 0, 0, 0, 0, 0, 0, 0, 0, 0, 0, 0, 0
   \              000000000000
   \              00000000    
   \   00000E24   000000000000       DC8 0, 0, 0, 0, 0, 0, 0, 0, 0, 0, 0, 0, 0, 0, 0, 0
   \              000000000000
   \              00000000    
   \   00000E34   000000000000       DC8 0, 0, 0, 0, 0, 0, 0, 0, 0, 0, 0, 0, 0, 0, 0, 0
   \              000000000000
   \              00000000    
   \   00000E44   000000000000       DC8 0, 0, 0, 0, 0, 0, 0, 0, 0, 0, 0, 0, 0, 0, 0, 0
   \              000000000000
   \              00000000    
   \   00000E54   000000000000       DC8 0, 0, 0, 0, 0, 0, 0, 0, 0, 0, 0, 0, 0, 0, 0, 0
   \              000000000000
   \              00000000    
   \   00000E64   000000000000       DC8 0, 0, 0, 0, 0, 0, 0, 0, 0, 0, 0, 0, 0, 0, 0, 0
   \              000000000000
   \              00000000    
   \   00000E74   000000000000       DC8 0, 0, 0, 0, 0, 0, 0, 0, 0, 0, 0, 0, 0, 0, 0, 0
   \              000000000000
   \              00000000    
   \   00000E84   000000000000       DC8 0, 0, 0, 0, 0, 0, 0, 0, 0, 0, 0, 0, 0, 0, 0, 0
   \              000000000000
   \              00000000    
   \   00000E94   000000000000       DC8 0, 0, 0, 0, 0, 0, 0, 0, 0, 0, 0, 0, 0, 0, 0, 0, 0, 0, 0, 0
   \              000000000000
   \              000000000000
   \              0000        

   \                                 In segment DATA_ID, align 4, align-sorted
   \                     `?<Initializer for ebuf>`:
   \   00000000   ........           DC32 sbuf
   \                     `?<Initializer for stream>`:
   \   00000004   00000000           DC8 0, 0, 0, 0
   \                     `?<Initializer for streammode>`:
   \   00000008   00000000           DC8 0, 0, 0, 0
   \                     `?<Initializer for sbuf>`:
   \   0000000C   000000000000       DC8 0, 0, 0, 0, 0, 0, 0, 0, 0, 0, 0, 0, 0, 0, 0, 0
   \              000000000000
   \              00000000    
   \   0000001C   000000000000       DC8 0, 0, 0, 0, 0, 0, 0, 0, 0, 0, 0, 0, 0, 0, 0, 0
   \              000000000000
   \              00000000    
   \   0000002C   000000000000       DC8 0, 0, 0, 0, 0, 0, 0, 0, 0, 0, 0, 0, 0, 0, 0, 0
   \              000000000000
   \              00000000    
   \   0000003C   000000000000       DC8 0, 0, 0, 0, 0, 0, 0, 0, 0, 0, 0, 0, 0, 0, 0, 0
   \              000000000000
   \              00000000    
   \   0000004C   000000000000       DC8 0, 0, 0, 0, 0, 0, 0, 0, 0, 0, 0, 0, 0, 0, 0, 0
   \              000000000000
   \              00000000    
   \   0000005C   000000000000       DC8 0, 0, 0, 0, 0, 0, 0, 0, 0, 0, 0, 0, 0, 0, 0, 0
   \              000000000000
   \              00000000    
   \   0000006C   000000000000       DC8 0, 0, 0, 0, 0, 0, 0, 0, 0, 0, 0, 0, 0, 0, 0, 0
   \              000000000000
   \              00000000    
   \   0000007C   000000000000       DC8 0, 0, 0, 0, 0, 0, 0, 0, 0, 0, 0, 0, 0, 0, 0, 0
   \              000000000000
   \              00000000    
   \   0000008C   000000000000       DC8 0, 0, 0, 0, 0, 0, 0, 0, 0, 0, 0, 0, 0, 0, 0, 0
   \              000000000000
   \              00000000    
   \   0000009C   000000000000       DC8 0, 0, 0, 0, 0, 0, 0, 0, 0, 0, 0, 0, 0, 0, 0, 0
   \              000000000000
   \              00000000    
   \   000000AC   000000000000       DC8 0, 0, 0, 0, 0, 0, 0, 0, 0, 0, 0, 0, 0, 0, 0, 0
   \              000000000000
   \              00000000    
   \   000000BC   000000000000       DC8 0, 0, 0, 0, 0, 0, 0, 0, 0, 0, 0, 0, 0, 0, 0, 0
   \              000000000000
   \              00000000    
   \   000000CC   000000000000       DC8 0, 0, 0, 0, 0, 0, 0, 0, 0, 0, 0, 0, 0, 0, 0, 0
   \              000000000000
   \              00000000    
   \   000000DC   000000000000       DC8 0, 0, 0, 0, 0, 0, 0, 0, 0, 0, 0, 0, 0, 0, 0, 0
   \              000000000000
   \              00000000    
   \   000000EC   000000000000       DC8 0, 0, 0, 0, 0, 0, 0, 0, 0, 0, 0, 0, 0, 0, 0, 0
   \              000000000000
   \              00000000    
   \   000000FC   000000000000       DC8 0, 0, 0, 0, 0, 0, 0, 0, 0, 0, 0, 0, 0, 0, 0, 0
   \              000000000000
   \              00000000    
   \   0000010C   000000000000       DC8 0, 0, 0, 0, 0, 0, 0, 0, 0, 0, 0, 0, 0, 0, 0, 0
   \              000000000000
   \              00000000    
   \   0000011C   000000000000       DC8 0, 0, 0, 0, 0, 0, 0, 0, 0, 0, 0, 0, 0, 0, 0, 0
   \              000000000000
   \              00000000    
   \   0000012C   000000000000       DC8 0, 0, 0, 0, 0, 0, 0, 0, 0, 0, 0, 0, 0, 0, 0, 0
   \              000000000000
   \              00000000    
   \   0000013C   000000000000       DC8 0, 0, 0, 0, 0, 0, 0, 0, 0, 0, 0, 0, 0, 0, 0, 0
   \              000000000000
   \              00000000    
   \   0000014C   000000000000       DC8 0, 0, 0, 0, 0, 0, 0, 0, 0, 0, 0, 0, 0, 0, 0, 0
   \              000000000000
   \              00000000    
   \   0000015C   000000000000       DC8 0, 0, 0, 0, 0, 0, 0, 0, 0, 0, 0, 0, 0, 0, 0, 0
   \              000000000000
   \              00000000    
   \   0000016C   000000000000       DC8 0, 0, 0, 0, 0, 0, 0, 0, 0, 0, 0, 0, 0, 0, 0, 0
   \              000000000000
   \              00000000    
   \   0000017C   000000000000       DC8 0, 0, 0, 0, 0, 0, 0, 0, 0, 0, 0, 0, 0, 0, 0, 0
   \              000000000000
   \              00000000    
   \   0000018C   000000000000       DC8 0, 0, 0, 0, 0, 0, 0, 0, 0, 0, 0, 0, 0, 0, 0, 0
   \              000000000000
   \              00000000    
   \   0000019C   000000000000       DC8 0, 0, 0, 0, 0, 0, 0, 0, 0, 0, 0, 0, 0, 0, 0, 0
   \              000000000000
   \              00000000    
   \   000001AC   000000000000       DC8 0, 0, 0, 0, 0, 0, 0, 0, 0, 0, 0, 0, 0, 0, 0, 0
   \              000000000000
   \              00000000    
   \   000001BC   000000000000       DC8 0, 0, 0, 0, 0, 0, 0, 0, 0, 0, 0, 0, 0, 0, 0, 0
   \              000000000000
   \              00000000    
   \   000001CC   000000000000       DC8 0, 0, 0, 0, 0, 0, 0, 0, 0, 0, 0, 0, 0, 0, 0, 0
   \              000000000000
   \              00000000    
   \   000001DC   000000000000       DC8 0, 0, 0, 0, 0, 0, 0, 0, 0, 0, 0, 0, 0, 0, 0, 0
   \              000000000000
   \              00000000    
   \   000001EC   000000000000       DC8 0, 0, 0, 0, 0, 0, 0, 0, 0, 0, 0, 0, 0, 0, 0, 0
   \              000000000000
   \              00000000    
   \   000001FC   000000000000       DC8 0, 0, 0, 0, 0, 0, 0, 0, 0, 0, 0, 0, 0, 0, 0, 0
   \              000000000000
   \              00000000    
   \   0000020C   000000000000       DC8 0, 0, 0, 0, 0, 0, 0, 0, 0, 0, 0, 0, 0, 0, 0, 0
   \              000000000000
   \              00000000    
   \   0000021C   000000000000       DC8 0, 0, 0, 0, 0, 0, 0, 0, 0, 0, 0, 0, 0, 0, 0, 0
   \              000000000000
   \              00000000    
   \   0000022C   000000000000       DC8 0, 0, 0, 0, 0, 0, 0, 0, 0, 0, 0, 0, 0, 0, 0, 0
   \              000000000000
   \              00000000    
   \   0000023C   000000000000       DC8 0, 0, 0, 0, 0, 0, 0, 0, 0, 0, 0, 0, 0, 0, 0, 0
   \              000000000000
   \              00000000    
   \   0000024C   000000000000       DC8 0, 0, 0, 0, 0, 0, 0, 0, 0, 0, 0, 0, 0, 0, 0, 0
   \              000000000000
   \              00000000    
   \   0000025C   000000000000       DC8 0, 0, 0, 0, 0, 0, 0, 0, 0, 0, 0, 0, 0, 0, 0, 0
   \              000000000000
   \              00000000    
   \   0000026C   000000000000       DC8 0, 0, 0, 0, 0, 0, 0, 0, 0, 0, 0, 0, 0, 0, 0, 0
   \              000000000000
   \              00000000    
   \   0000027C   000000000000       DC8 0, 0, 0, 0, 0, 0, 0, 0, 0, 0, 0, 0, 0, 0, 0, 0
   \              000000000000
   \              00000000    
   \   0000028C   000000000000       DC8 0, 0, 0, 0, 0, 0, 0, 0, 0, 0, 0, 0, 0, 0, 0, 0
   \              000000000000
   \              00000000    
   \   0000029C   000000000000       DC8 0, 0, 0, 0, 0, 0, 0, 0, 0, 0, 0, 0, 0, 0, 0, 0
   \              000000000000
   \              00000000    
   \   000002AC   000000000000       DC8 0, 0, 0, 0, 0, 0, 0, 0, 0, 0, 0, 0, 0, 0, 0, 0
   \              000000000000
   \              00000000    
   \   000002BC   000000000000       DC8 0, 0, 0, 0, 0, 0, 0, 0, 0, 0, 0, 0, 0, 0, 0, 0
   \              000000000000
   \              00000000    
   \   000002CC   000000000000       DC8 0, 0, 0, 0, 0, 0, 0, 0, 0, 0, 0, 0, 0, 0, 0, 0
   \              000000000000
   \              00000000    
   \   000002DC   000000000000       DC8 0, 0, 0, 0, 0, 0, 0, 0, 0, 0, 0, 0, 0, 0, 0, 0
   \              000000000000
   \              00000000    
   \   000002EC   000000000000       DC8 0, 0, 0, 0, 0, 0, 0, 0, 0, 0, 0, 0, 0, 0, 0, 0
   \              000000000000
   \              00000000    
   \   000002FC   000000000000       DC8 0, 0, 0, 0, 0, 0, 0, 0, 0, 0, 0, 0, 0, 0, 0, 0
   \              000000000000
   \              00000000    
   \   0000030C   000000000000       DC8 0, 0, 0, 0, 0, 0, 0, 0, 0, 0, 0, 0, 0, 0, 0, 0
   \              000000000000
   \              00000000    
   \   0000031C   000000000000       DC8 0, 0, 0, 0, 0, 0, 0, 0, 0, 0, 0, 0, 0, 0, 0, 0
   \              000000000000
   \              00000000    
   \   0000032C   000000000000       DC8 0, 0, 0, 0, 0, 0, 0, 0, 0, 0, 0, 0, 0, 0, 0, 0
   \              000000000000
   \              00000000    
   \   0000033C   000000000000       DC8 0, 0, 0, 0, 0, 0, 0, 0, 0, 0, 0, 0, 0, 0, 0, 0
   \              000000000000
   \              00000000    
   \   0000034C   000000000000       DC8 0, 0, 0, 0, 0, 0, 0, 0, 0, 0, 0, 0, 0, 0, 0, 0
   \              000000000000
   \              00000000    
   \   0000035C   000000000000       DC8 0, 0, 0, 0, 0, 0, 0, 0, 0, 0, 0, 0, 0, 0, 0, 0
   \              000000000000
   \              00000000    
   \   0000036C   000000000000       DC8 0, 0, 0, 0, 0, 0, 0, 0, 0, 0, 0, 0, 0, 0, 0, 0
   \              000000000000
   \              00000000    
   \   0000037C   000000000000       DC8 0, 0, 0, 0, 0, 0, 0, 0, 0, 0, 0, 0, 0, 0, 0, 0
   \              000000000000
   \              00000000    
   \   0000038C   000000000000       DC8 0, 0, 0, 0, 0, 0, 0, 0, 0, 0, 0, 0, 0, 0, 0, 0
   \              000000000000
   \              00000000    
   \   0000039C   000000000000       DC8 0, 0, 0, 0, 0, 0, 0, 0, 0, 0, 0, 0, 0, 0, 0, 0
   \              000000000000
   \              00000000    
   \   000003AC   000000000000       DC8 0, 0, 0, 0, 0, 0, 0, 0, 0, 0, 0, 0, 0, 0, 0, 0
   \              000000000000
   \              00000000    
   \   000003BC   000000000000       DC8 0, 0, 0, 0, 0, 0, 0, 0, 0, 0, 0, 0, 0, 0, 0, 0
   \              000000000000
   \              00000000    
   \   000003CC   000000000000       DC8 0, 0, 0, 0, 0, 0, 0, 0, 0, 0, 0, 0, 0, 0, 0, 0
   \              000000000000
   \              00000000    
   \   000003DC   000000000000       DC8 0, 0, 0, 0, 0, 0, 0, 0, 0, 0, 0, 0, 0, 0, 0, 0
   \              000000000000
   \              00000000    
   \   000003EC   000000000000       DC8 0, 0, 0, 0, 0, 0, 0, 0, 0, 0, 0, 0, 0, 0, 0, 0
   \              000000000000
   \              00000000    
   \   000003FC   000000000000       DC8 0, 0, 0, 0, 0, 0, 0, 0, 0, 0, 0, 0, 0, 0, 0, 0
   \              000000000000
   \              00000000    
   \   0000040C   000000000000       DC8 0, 0, 0, 0, 0, 0, 0, 0, 0, 0, 0, 0, 0, 0, 0, 0
   \              000000000000
   \              00000000    
   \   0000041C   000000000000       DC8 0, 0, 0, 0, 0, 0, 0, 0, 0, 0, 0, 0, 0, 0, 0, 0
   \              000000000000
   \              00000000    
   \   0000042C   000000000000       DC8 0, 0, 0, 0, 0, 0, 0, 0, 0, 0, 0, 0, 0, 0, 0, 0
   \              000000000000
   \              00000000    
   \   0000043C   000000000000       DC8 0, 0, 0, 0, 0, 0, 0, 0, 0, 0, 0, 0, 0, 0, 0, 0
   \              000000000000
   \              00000000    
   \   0000044C   000000000000       DC8 0, 0, 0, 0, 0, 0, 0, 0, 0, 0, 0, 0, 0, 0, 0, 0
   \              000000000000
   \              00000000    
   \   0000045C   000000000000       DC8 0, 0, 0, 0, 0, 0, 0, 0, 0, 0, 0, 0, 0, 0, 0, 0
   \              000000000000
   \              00000000    
   \   0000046C   000000000000       DC8 0, 0, 0, 0, 0, 0, 0, 0, 0, 0, 0, 0, 0, 0, 0, 0
   \              000000000000
   \              00000000    
   \   0000047C   000000000000       DC8 0, 0, 0, 0, 0, 0, 0, 0, 0, 0, 0, 0, 0, 0, 0, 0
   \              000000000000
   \              00000000    
   \   0000048C   000000000000       DC8 0, 0, 0, 0, 0, 0, 0, 0, 0, 0, 0, 0, 0, 0, 0, 0
   \              000000000000
   \              00000000    
   \   0000049C   000000000000       DC8 0, 0, 0, 0, 0, 0, 0, 0, 0, 0, 0, 0, 0, 0, 0, 0
   \              000000000000
   \              00000000    
   \   000004AC   000000000000       DC8 0, 0, 0, 0, 0, 0, 0, 0, 0, 0, 0, 0, 0, 0, 0, 0
   \              000000000000
   \              00000000    
   \   000004BC   000000000000       DC8 0, 0, 0, 0, 0, 0, 0, 0, 0, 0, 0, 0, 0, 0, 0, 0
   \              000000000000
   \              00000000    
   \   000004CC   000000000000       DC8 0, 0, 0, 0, 0, 0, 0, 0, 0, 0, 0, 0, 0, 0, 0, 0
   \              000000000000
   \              00000000    
   \   000004DC   000000000000       DC8 0, 0, 0, 0, 0, 0, 0, 0, 0, 0, 0, 0, 0, 0, 0, 0
   \              000000000000
   \              00000000    
   \   000004EC   000000000000       DC8 0, 0, 0, 0, 0, 0, 0, 0, 0, 0, 0, 0, 0, 0, 0, 0
   \              000000000000
   \              00000000    
   \   000004FC   000000000000       DC8 0, 0, 0, 0, 0, 0, 0, 0, 0, 0, 0, 0, 0, 0, 0, 0
   \              000000000000
   \              00000000    
   \   0000050C   000000000000       DC8 0, 0, 0, 0, 0, 0, 0, 0, 0, 0, 0, 0, 0, 0, 0, 0
   \              000000000000
   \              00000000    
   \   0000051C   000000000000       DC8 0, 0, 0, 0, 0, 0, 0, 0, 0, 0, 0, 0, 0, 0, 0, 0
   \              000000000000
   \              00000000    
   \   0000052C   000000000000       DC8 0, 0, 0, 0, 0, 0, 0, 0, 0, 0, 0, 0, 0, 0, 0, 0
   \              000000000000
   \              00000000    
   \   0000053C   000000000000       DC8 0, 0, 0, 0, 0, 0, 0, 0, 0, 0, 0, 0, 0, 0, 0, 0
   \              000000000000
   \              00000000    
   \   0000054C   000000000000       DC8 0, 0, 0, 0, 0, 0, 0, 0, 0, 0, 0, 0, 0, 0, 0, 0
   \              000000000000
   \              00000000    
   \   0000055C   000000000000       DC8 0, 0, 0, 0, 0, 0, 0, 0, 0, 0, 0, 0, 0, 0, 0, 0
   \              000000000000
   \              00000000    
   \   0000056C   000000000000       DC8 0, 0, 0, 0, 0, 0, 0, 0, 0, 0, 0, 0, 0, 0, 0, 0
   \              000000000000
   \              00000000    
   \   0000057C   000000000000       DC8 0, 0, 0, 0, 0, 0, 0, 0, 0, 0, 0, 0, 0, 0, 0, 0
   \              000000000000
   \              00000000    
   \   0000058C   000000000000       DC8 0, 0, 0, 0, 0, 0, 0, 0, 0, 0, 0, 0, 0, 0, 0, 0
   \              000000000000
   \              00000000    
   \   0000059C   000000000000       DC8 0, 0, 0, 0, 0, 0, 0, 0, 0, 0, 0, 0, 0, 0, 0, 0
   \              000000000000
   \              00000000    
   \   000005AC   000000000000       DC8 0, 0, 0, 0, 0, 0, 0, 0, 0, 0, 0, 0, 0, 0, 0, 0
   \              000000000000
   \              00000000    
   \   000005BC   000000000000       DC8 0, 0, 0, 0, 0, 0, 0, 0, 0, 0, 0, 0, 0, 0, 0, 0
   \              000000000000
   \              00000000    
   \   000005CC   000000000000       DC8 0, 0, 0, 0, 0, 0, 0, 0, 0, 0, 0, 0, 0, 0, 0, 0
   \              000000000000
   \              00000000    
   \   000005DC   000000000000       DC8 0, 0, 0, 0, 0, 0, 0, 0, 0, 0, 0, 0, 0, 0, 0, 0
   \              000000000000
   \              00000000    
   \   000005EC   000000000000       DC8 0, 0, 0, 0, 0, 0, 0, 0, 0, 0, 0, 0, 0, 0, 0, 0
   \              000000000000
   \              00000000    
   \   000005FC   000000000000       DC8 0, 0, 0, 0, 0, 0, 0, 0, 0, 0, 0, 0, 0, 0, 0, 0
   \              000000000000
   \              00000000    
   \   0000060C   000000000000       DC8 0, 0, 0, 0, 0, 0, 0, 0, 0, 0, 0, 0, 0, 0, 0, 0
   \              000000000000
   \              00000000    
   \   0000061C   000000000000       DC8 0, 0, 0, 0, 0, 0, 0, 0, 0, 0, 0, 0, 0, 0, 0, 0
   \              000000000000
   \              00000000    
   \   0000062C   000000000000       DC8 0, 0, 0, 0, 0, 0, 0, 0, 0, 0, 0, 0, 0, 0, 0, 0
   \              000000000000
   \              00000000    
   \   0000063C   000000000000       DC8 0, 0, 0, 0, 0, 0, 0, 0, 0, 0, 0, 0, 0, 0, 0, 0
   \              000000000000
   \              00000000    
   \   0000064C   000000000000       DC8 0, 0, 0, 0, 0, 0, 0, 0, 0, 0, 0, 0, 0, 0, 0, 0
   \              000000000000
   \              00000000    
   \   0000065C   000000000000       DC8 0, 0, 0, 0, 0, 0, 0, 0, 0, 0, 0, 0, 0, 0, 0, 0
   \              000000000000
   \              00000000    
   \   0000066C   000000000000       DC8 0, 0, 0, 0, 0, 0, 0, 0, 0, 0, 0, 0, 0, 0, 0, 0
   \              000000000000
   \              00000000    
   \   0000067C   000000000000       DC8 0, 0, 0, 0, 0, 0, 0, 0, 0, 0, 0, 0, 0, 0, 0, 0
   \              000000000000
   \              00000000    
   \   0000068C   000000000000       DC8 0, 0, 0, 0, 0, 0, 0, 0, 0, 0, 0, 0, 0, 0, 0, 0
   \              000000000000
   \              00000000    
   \   0000069C   000000000000       DC8 0, 0, 0, 0, 0, 0, 0, 0, 0, 0, 0, 0, 0, 0, 0, 0
   \              000000000000
   \              00000000    
   \   000006AC   000000000000       DC8 0, 0, 0, 0, 0, 0, 0, 0, 0, 0, 0, 0, 0, 0, 0, 0
   \              000000000000
   \              00000000    
   \   000006BC   000000000000       DC8 0, 0, 0, 0, 0, 0, 0, 0, 0, 0, 0, 0, 0, 0, 0, 0
   \              000000000000
   \              00000000    
   \   000006CC   000000000000       DC8 0, 0, 0, 0, 0, 0, 0, 0, 0, 0, 0, 0, 0, 0, 0, 0
   \              000000000000
   \              00000000    
   \   000006DC   000000000000       DC8 0, 0, 0, 0, 0, 0, 0, 0, 0, 0, 0, 0, 0, 0, 0, 0
   \              000000000000
   \              00000000    
   \   000006EC   000000000000       DC8 0, 0, 0, 0, 0, 0, 0, 0, 0, 0, 0, 0, 0, 0, 0, 0
   \              000000000000
   \              00000000    
   \   000006FC   000000000000       DC8 0, 0, 0, 0, 0, 0, 0, 0, 0, 0, 0, 0, 0, 0, 0, 0
   \              000000000000
   \              00000000    
   \   0000070C   000000000000       DC8 0, 0, 0, 0, 0, 0, 0, 0, 0, 0, 0, 0, 0, 0, 0, 0
   \              000000000000
   \              00000000    
   \   0000071C   000000000000       DC8 0, 0, 0, 0, 0, 0, 0, 0, 0, 0, 0, 0, 0, 0, 0, 0
   \              000000000000
   \              00000000    
   \   0000072C   000000000000       DC8 0, 0, 0, 0, 0, 0, 0, 0, 0, 0, 0, 0, 0, 0, 0, 0
   \              000000000000
   \              00000000    
   \   0000073C   000000000000       DC8 0, 0, 0, 0, 0, 0, 0, 0, 0, 0, 0, 0, 0, 0, 0, 0
   \              000000000000
   \              00000000    
   \   0000074C   000000000000       DC8 0, 0, 0, 0, 0, 0, 0, 0, 0, 0, 0, 0, 0, 0, 0, 0
   \              000000000000
   \              00000000    
   \   0000075C   000000000000       DC8 0, 0, 0, 0, 0, 0, 0, 0, 0, 0, 0, 0, 0, 0, 0, 0
   \              000000000000
   \              00000000    
   \   0000076C   000000000000       DC8 0, 0, 0, 0, 0, 0, 0, 0, 0, 0, 0, 0, 0, 0, 0, 0
   \              000000000000
   \              00000000    
   \   0000077C   000000000000       DC8 0, 0, 0, 0, 0, 0, 0, 0, 0, 0, 0, 0, 0, 0, 0, 0
   \              000000000000
   \              00000000    
   \   0000078C   000000000000       DC8 0, 0, 0, 0, 0, 0, 0, 0, 0, 0, 0, 0, 0, 0, 0, 0
   \              000000000000
   \              00000000    
   \   0000079C   000000000000       DC8 0, 0, 0, 0, 0, 0, 0, 0, 0, 0, 0, 0, 0, 0, 0, 0
   \              000000000000
   \              00000000    
   \   000007AC   000000000000       DC8 0, 0, 0, 0, 0, 0, 0, 0, 0, 0, 0, 0, 0, 0, 0, 0
   \              000000000000
   \              00000000    
   \   000007BC   000000000000       DC8 0, 0, 0, 0, 0, 0, 0, 0, 0, 0, 0, 0, 0, 0, 0, 0
   \              000000000000
   \              00000000    
   \   000007CC   000000000000       DC8 0, 0, 0, 0, 0, 0, 0, 0, 0, 0, 0, 0, 0, 0, 0, 0
   \              000000000000
   \              00000000    
   \   000007DC   000000000000       DC8 0, 0, 0, 0, 0, 0, 0, 0, 0, 0, 0, 0, 0, 0, 0, 0
   \              000000000000
   \              00000000    
   \   000007EC   000000000000       DC8 0, 0, 0, 0, 0, 0, 0, 0, 0, 0, 0, 0, 0, 0, 0, 0
   \              000000000000
   \              00000000    
   \   000007FC   000000000000       DC8 0, 0, 0, 0, 0, 0, 0, 0, 0, 0, 0, 0, 0, 0, 0, 0
   \              000000000000
   \              00000000    
   \   0000080C   000000000000       DC8 0, 0, 0, 0, 0, 0, 0, 0, 0, 0, 0, 0, 0, 0, 0, 0
   \              000000000000
   \              00000000    
   \   0000081C   000000000000       DC8 0, 0, 0, 0, 0, 0, 0, 0, 0, 0, 0, 0, 0, 0, 0, 0
   \              000000000000
   \              00000000    
   \   0000082C   000000000000       DC8 0, 0, 0, 0, 0, 0, 0, 0, 0, 0, 0, 0, 0, 0, 0, 0
   \              000000000000
   \              00000000    
   \   0000083C   000000000000       DC8 0, 0, 0, 0, 0, 0, 0, 0, 0, 0, 0, 0, 0, 0, 0, 0
   \              000000000000
   \              00000000    
   \   0000084C   000000000000       DC8 0, 0, 0, 0, 0, 0, 0, 0, 0, 0, 0, 0, 0, 0, 0, 0
   \              000000000000
   \              00000000    
   \   0000085C   000000000000       DC8 0, 0, 0, 0, 0, 0, 0, 0, 0, 0, 0, 0, 0, 0, 0, 0
   \              000000000000
   \              00000000    
   \   0000086C   000000000000       DC8 0, 0, 0, 0, 0, 0, 0, 0, 0, 0, 0, 0, 0, 0, 0, 0
   \              000000000000
   \              00000000    
   \   0000087C   000000000000       DC8 0, 0, 0, 0, 0, 0, 0, 0, 0, 0, 0, 0, 0, 0, 0, 0
   \              000000000000
   \              00000000    
   \   0000088C   000000000000       DC8 0, 0, 0, 0, 0, 0, 0, 0, 0, 0, 0, 0, 0, 0, 0, 0
   \              000000000000
   \              00000000    
   \   0000089C   000000000000       DC8 0, 0, 0, 0, 0, 0, 0, 0, 0, 0, 0, 0, 0, 0, 0, 0
   \              000000000000
   \              00000000    
   \   000008AC   000000000000       DC8 0, 0, 0, 0, 0, 0, 0, 0, 0, 0, 0, 0, 0, 0, 0, 0
   \              000000000000
   \              00000000    
   \   000008BC   000000000000       DC8 0, 0, 0, 0, 0, 0, 0, 0, 0, 0, 0, 0, 0, 0, 0, 0
   \              000000000000
   \              00000000    
   \   000008CC   000000000000       DC8 0, 0, 0, 0, 0, 0, 0, 0, 0, 0, 0, 0, 0, 0, 0, 0
   \              000000000000
   \              00000000    
   \   000008DC   000000000000       DC8 0, 0, 0, 0, 0, 0, 0, 0, 0, 0, 0, 0, 0, 0, 0, 0
   \              000000000000
   \              00000000    
   \   000008EC   000000000000       DC8 0, 0, 0, 0, 0, 0, 0, 0, 0, 0, 0, 0, 0, 0, 0, 0
   \              000000000000
   \              00000000    
   \   000008FC   000000000000       DC8 0, 0, 0, 0, 0, 0, 0, 0, 0, 0, 0, 0, 0, 0, 0, 0
   \              000000000000
   \              00000000    
   \   0000090C   000000000000       DC8 0, 0, 0, 0, 0, 0, 0, 0, 0, 0, 0, 0, 0, 0, 0, 0
   \              000000000000
   \              00000000    
   \   0000091C   000000000000       DC8 0, 0, 0, 0, 0, 0, 0, 0, 0, 0, 0, 0, 0, 0, 0, 0
   \              000000000000
   \              00000000    
   \   0000092C   000000000000       DC8 0, 0, 0, 0, 0, 0, 0, 0, 0, 0, 0, 0, 0, 0, 0, 0
   \              000000000000
   \              00000000    
   \   0000093C   000000000000       DC8 0, 0, 0, 0, 0, 0, 0, 0, 0, 0, 0, 0, 0, 0, 0, 0
   \              000000000000
   \              00000000    
   \   0000094C   000000000000       DC8 0, 0, 0, 0, 0, 0, 0, 0, 0, 0, 0, 0, 0, 0, 0, 0
   \              000000000000
   \              00000000    
   \   0000095C   000000000000       DC8 0, 0, 0, 0, 0, 0, 0, 0, 0, 0, 0, 0, 0, 0, 0, 0
   \              000000000000
   \              00000000    
   \   0000096C   000000000000       DC8 0, 0, 0, 0, 0, 0, 0, 0, 0, 0, 0, 0, 0, 0, 0, 0
   \              000000000000
   \              00000000    
   \   0000097C   000000000000       DC8 0, 0, 0, 0, 0, 0, 0, 0, 0, 0, 0, 0, 0, 0, 0, 0
   \              000000000000
   \              00000000    
   \   0000098C   000000000000       DC8 0, 0, 0, 0, 0, 0, 0, 0, 0, 0, 0, 0, 0, 0, 0, 0
   \              000000000000
   \              00000000    
   \   0000099C   000000000000       DC8 0, 0, 0, 0, 0, 0, 0, 0, 0, 0, 0, 0, 0, 0, 0, 0
   \              000000000000
   \              00000000    
   \   000009AC   000000000000       DC8 0, 0, 0, 0, 0, 0, 0, 0, 0, 0, 0, 0, 0, 0, 0, 0
   \              000000000000
   \              00000000    
   \   000009BC   000000000000       DC8 0, 0, 0, 0, 0, 0, 0, 0, 0, 0, 0, 0, 0, 0, 0, 0
   \              000000000000
   \              00000000    
   \   000009CC   000000000000       DC8 0, 0, 0, 0, 0, 0, 0, 0, 0, 0, 0, 0, 0, 0, 0, 0
   \              000000000000
   \              00000000    
   \   000009DC   000000000000       DC8 0, 0, 0, 0, 0, 0, 0, 0, 0, 0, 0, 0, 0, 0, 0, 0
   \              000000000000
   \              00000000    
   \   000009EC   000000000000       DC8 0, 0, 0, 0, 0, 0, 0, 0, 0, 0, 0, 0, 0, 0, 0, 0
   \              000000000000
   \              00000000    
   \   000009FC   000000000000       DC8 0, 0, 0, 0, 0, 0, 0, 0, 0, 0, 0, 0, 0, 0, 0, 0
   \              000000000000
   \              00000000    
   \   00000A0C   000000000000       DC8 0, 0, 0, 0, 0, 0, 0, 0, 0, 0, 0, 0, 0, 0, 0, 0
   \              000000000000
   \              00000000    
   \   00000A1C   000000000000       DC8 0, 0, 0, 0, 0, 0, 0, 0, 0, 0, 0, 0, 0, 0, 0, 0
   \              000000000000
   \              00000000    
   \   00000A2C   000000000000       DC8 0, 0, 0, 0, 0, 0, 0, 0, 0, 0, 0, 0, 0, 0, 0, 0
   \              000000000000
   \              00000000    
   \   00000A3C   000000000000       DC8 0, 0, 0, 0, 0, 0, 0, 0, 0, 0, 0, 0, 0, 0, 0, 0
   \              000000000000
   \              00000000    
   \   00000A4C   000000000000       DC8 0, 0, 0, 0, 0, 0, 0, 0, 0, 0, 0, 0, 0, 0, 0, 0
   \              000000000000
   \              00000000    
   \   00000A5C   000000000000       DC8 0, 0, 0, 0, 0, 0, 0, 0, 0, 0, 0, 0, 0, 0, 0, 0
   \              000000000000
   \              00000000    
   \   00000A6C   000000000000       DC8 0, 0, 0, 0, 0, 0, 0, 0, 0, 0, 0, 0, 0, 0, 0, 0
   \              000000000000
   \              00000000    
   \   00000A7C   000000000000       DC8 0, 0, 0, 0, 0, 0, 0, 0, 0, 0, 0, 0, 0, 0, 0, 0
   \              000000000000
   \              00000000    
   \   00000A8C   000000000000       DC8 0, 0, 0, 0, 0, 0, 0, 0, 0, 0, 0, 0, 0, 0, 0, 0
   \              000000000000
   \              00000000    
   \   00000A9C   000000000000       DC8 0, 0, 0, 0, 0, 0, 0, 0, 0, 0, 0, 0, 0, 0, 0, 0
   \              000000000000
   \              00000000    
   \   00000AAC   000000000000       DC8 0, 0, 0, 0, 0, 0, 0, 0, 0, 0, 0, 0, 0, 0, 0, 0
   \              000000000000
   \              00000000    
   \   00000ABC   000000000000       DC8 0, 0, 0, 0, 0, 0, 0, 0, 0, 0, 0, 0, 0, 0, 0, 0
   \              000000000000
   \              00000000    
   \   00000ACC   000000000000       DC8 0, 0, 0, 0, 0, 0, 0, 0, 0, 0, 0, 0, 0, 0, 0, 0
   \              000000000000
   \              00000000    
   \   00000ADC   000000000000       DC8 0, 0, 0, 0, 0, 0, 0, 0, 0, 0, 0, 0, 0, 0, 0, 0
   \              000000000000
   \              00000000    
   \   00000AEC   000000000000       DC8 0, 0, 0, 0, 0, 0, 0, 0, 0, 0, 0, 0, 0, 0, 0, 0
   \              000000000000
   \              00000000    
   \   00000AFC   000000000000       DC8 0, 0, 0, 0, 0, 0, 0, 0, 0, 0, 0, 0, 0, 0, 0, 0
   \              000000000000
   \              00000000    
   \   00000B0C   000000000000       DC8 0, 0, 0, 0, 0, 0, 0, 0, 0, 0, 0, 0, 0, 0, 0, 0
   \              000000000000
   \              00000000    
   \   00000B1C   000000000000       DC8 0, 0, 0, 0, 0, 0, 0, 0, 0, 0, 0, 0, 0, 0, 0, 0
   \              000000000000
   \              00000000    
   \   00000B2C   000000000000       DC8 0, 0, 0, 0, 0, 0, 0, 0, 0, 0, 0, 0, 0, 0, 0, 0
   \              000000000000
   \              00000000    
   \   00000B3C   000000000000       DC8 0, 0, 0, 0, 0, 0, 0, 0, 0, 0, 0, 0, 0, 0, 0, 0
   \              000000000000
   \              00000000    
   \   00000B4C   000000000000       DC8 0, 0, 0, 0, 0, 0, 0, 0, 0, 0, 0, 0, 0, 0, 0, 0
   \              000000000000
   \              00000000    
   \   00000B5C   000000000000       DC8 0, 0, 0, 0, 0, 0, 0, 0, 0, 0, 0, 0, 0, 0, 0, 0
   \              000000000000
   \              00000000    
   \   00000B6C   000000000000       DC8 0, 0, 0, 0, 0, 0, 0, 0, 0, 0, 0, 0, 0, 0, 0, 0
   \              000000000000
   \              00000000    
   \   00000B7C   000000000000       DC8 0, 0, 0, 0, 0, 0, 0, 0, 0, 0, 0, 0, 0, 0, 0, 0
   \              000000000000
   \              00000000    
   \   00000B8C   000000000000       DC8 0, 0, 0, 0, 0, 0, 0, 0, 0, 0, 0, 0, 0, 0, 0, 0
   \              000000000000
   \              00000000    
   \   00000B9C   000000000000       DC8 0, 0, 0, 0, 0, 0, 0, 0, 0, 0, 0, 0, 0, 0, 0, 0
   \              000000000000
   \              00000000    
   \   00000BAC   000000000000       DC8 0, 0, 0, 0, 0, 0, 0, 0, 0, 0, 0, 0, 0, 0, 0, 0
   \              000000000000
   \              00000000    
   \   00000BBC   000000000000       DC8 0, 0, 0, 0, 0, 0, 0, 0, 0, 0, 0, 0, 0, 0, 0, 0
   \              000000000000
   \              00000000    
   \   00000BCC   000000000000       DC8 0, 0, 0, 0, 0, 0, 0, 0, 0, 0, 0, 0, 0, 0, 0, 0
   \              000000000000
   \              00000000    
   \   00000BDC   000000000000       DC8 0, 0, 0, 0, 0, 0, 0, 0, 0, 0, 0, 0, 0, 0, 0, 0
   \              000000000000
   \              00000000    
   \   00000BEC   000000000000       DC8 0, 0, 0, 0, 0, 0, 0, 0, 0, 0, 0, 0, 0, 0, 0, 0
   \              000000000000
   \              00000000    
   \   00000BFC   000000000000       DC8 0, 0, 0, 0, 0, 0, 0, 0, 0, 0, 0, 0, 0, 0, 0, 0
   \              000000000000
   \              00000000    
   \   00000C0C   000000000000       DC8 0, 0, 0, 0, 0, 0, 0, 0, 0, 0, 0, 0, 0, 0, 0, 0
   \              000000000000
   \              00000000    
   \   00000C1C   000000000000       DC8 0, 0, 0, 0, 0, 0, 0, 0, 0, 0, 0, 0, 0, 0, 0, 0
   \              000000000000
   \              00000000    
   \   00000C2C   000000000000       DC8 0, 0, 0, 0, 0, 0, 0, 0, 0, 0, 0, 0, 0, 0, 0, 0
   \              000000000000
   \              00000000    
   \   00000C3C   000000000000       DC8 0, 0, 0, 0, 0, 0, 0, 0, 0, 0, 0, 0, 0, 0, 0, 0
   \              000000000000
   \              00000000    
   \   00000C4C   000000000000       DC8 0, 0, 0, 0, 0, 0, 0, 0, 0, 0, 0, 0, 0, 0, 0, 0
   \              000000000000
   \              00000000    
   \   00000C5C   000000000000       DC8 0, 0, 0, 0, 0, 0, 0, 0, 0, 0, 0, 0, 0, 0, 0, 0
   \              000000000000
   \              00000000    
   \   00000C6C   000000000000       DC8 0, 0, 0, 0, 0, 0, 0, 0, 0, 0, 0, 0, 0, 0, 0, 0
   \              000000000000
   \              00000000    
   \   00000C7C   000000000000       DC8 0, 0, 0, 0, 0, 0, 0, 0, 0, 0, 0, 0, 0, 0, 0, 0
   \              000000000000
   \              00000000    
   \   00000C8C   000000000000       DC8 0, 0, 0, 0, 0, 0, 0, 0, 0, 0, 0, 0, 0, 0, 0, 0
   \              000000000000
   \              00000000    
   \   00000C9C   000000000000       DC8 0, 0, 0, 0, 0, 0, 0, 0, 0, 0, 0, 0, 0, 0, 0, 0
   \              000000000000
   \              00000000    
   \   00000CAC   000000000000       DC8 0, 0, 0, 0, 0, 0, 0, 0, 0, 0, 0, 0, 0, 0, 0, 0
   \              000000000000
   \              00000000    
   \   00000CBC   000000000000       DC8 0, 0, 0, 0, 0, 0, 0, 0, 0, 0, 0, 0, 0, 0, 0, 0
   \              000000000000
   \              00000000    
   \   00000CCC   000000000000       DC8 0, 0, 0, 0, 0, 0, 0, 0, 0, 0, 0, 0, 0, 0, 0, 0
   \              000000000000
   \              00000000    
   \   00000CDC   000000000000       DC8 0, 0, 0, 0, 0, 0, 0, 0, 0, 0, 0, 0, 0, 0, 0, 0
   \              000000000000
   \              00000000    
   \   00000CEC   000000000000       DC8 0, 0, 0, 0, 0, 0, 0, 0, 0, 0, 0, 0, 0, 0, 0, 0
   \              000000000000
   \              00000000    
   \   00000CFC   000000000000       DC8 0, 0, 0, 0, 0, 0, 0, 0, 0, 0, 0, 0, 0, 0, 0, 0
   \              000000000000
   \              00000000    
   \   00000D0C   000000000000       DC8 0, 0, 0, 0, 0, 0, 0, 0, 0, 0, 0, 0, 0, 0, 0, 0
   \              000000000000
   \              00000000    
   \   00000D1C   000000000000       DC8 0, 0, 0, 0, 0, 0, 0, 0, 0, 0, 0, 0, 0, 0, 0, 0
   \              000000000000
   \              00000000    
   \   00000D2C   000000000000       DC8 0, 0, 0, 0, 0, 0, 0, 0, 0, 0, 0, 0, 0, 0, 0, 0
   \              000000000000
   \              00000000    
   \   00000D3C   000000000000       DC8 0, 0, 0, 0, 0, 0, 0, 0, 0, 0, 0, 0, 0, 0, 0, 0
   \              000000000000
   \              00000000    
   \   00000D4C   000000000000       DC8 0, 0, 0, 0, 0, 0, 0, 0, 0, 0, 0, 0, 0, 0, 0, 0
   \              000000000000
   \              00000000    
   \   00000D5C   000000000000       DC8 0, 0, 0, 0, 0, 0, 0, 0, 0, 0, 0, 0, 0, 0, 0, 0
   \              000000000000
   \              00000000    
   \   00000D6C   000000000000       DC8 0, 0, 0, 0, 0, 0, 0, 0, 0, 0, 0, 0, 0, 0, 0, 0
   \              000000000000
   \              00000000    
   \   00000D7C   000000000000       DC8 0, 0, 0, 0, 0, 0, 0, 0, 0, 0, 0, 0, 0, 0, 0, 0
   \              000000000000
   \              00000000    
   \   00000D8C   000000000000       DC8 0, 0, 0, 0, 0, 0, 0, 0, 0, 0, 0, 0, 0, 0, 0, 0
   \              000000000000
   \              00000000    
   \   00000D9C   000000000000       DC8 0, 0, 0, 0, 0, 0, 0, 0, 0, 0, 0, 0, 0, 0, 0, 0
   \              000000000000
   \              00000000    
   \   00000DAC   000000000000       DC8 0, 0, 0, 0, 0, 0, 0, 0, 0, 0, 0, 0, 0, 0, 0, 0
   \              000000000000
   \              00000000    
   \   00000DBC   000000000000       DC8 0, 0, 0, 0, 0, 0, 0, 0, 0, 0, 0, 0, 0, 0, 0, 0
   \              000000000000
   \              00000000    
   \   00000DCC   000000000000       DC8 0, 0, 0, 0, 0, 0, 0, 0, 0, 0, 0, 0, 0, 0, 0, 0
   \              000000000000
   \              00000000    
   \   00000DDC   000000000000       DC8 0, 0, 0, 0, 0, 0, 0, 0, 0, 0, 0, 0, 0, 0, 0, 0
   \              000000000000
   \              00000000    
   \   00000DEC   000000000000       DC8 0, 0, 0, 0, 0, 0, 0, 0, 0, 0, 0, 0, 0, 0, 0, 0
   \              000000000000
   \              00000000    
   \   00000DFC   000000000000       DC8 0, 0, 0, 0, 0, 0, 0, 0, 0, 0, 0, 0, 0, 0, 0, 0
   \              000000000000
   \              00000000    
   \   00000E0C   000000000000       DC8 0, 0, 0, 0, 0, 0, 0, 0, 0, 0, 0, 0, 0, 0, 0, 0
   \              000000000000
   \              00000000    
   \   00000E1C   000000000000       DC8 0, 0, 0, 0, 0, 0, 0, 0, 0, 0, 0, 0, 0, 0, 0, 0
   \              000000000000
   \              00000000    
   \   00000E2C   000000000000       DC8 0, 0, 0, 0, 0, 0, 0, 0, 0, 0, 0, 0, 0, 0, 0, 0
   \              000000000000
   \              00000000    
   \   00000E3C   000000000000       DC8 0, 0, 0, 0, 0, 0, 0, 0, 0, 0, 0, 0, 0, 0, 0, 0
   \              000000000000
   \              00000000    
   \   00000E4C   000000000000       DC8 0, 0, 0, 0, 0, 0, 0, 0, 0, 0, 0, 0, 0, 0, 0, 0
   \              000000000000
   \              00000000    
   \   00000E5C   000000000000       DC8 0, 0, 0, 0, 0, 0, 0, 0, 0, 0, 0, 0, 0, 0, 0, 0
   \              000000000000
   \              00000000    
   \   00000E6C   000000000000       DC8 0, 0, 0, 0, 0, 0, 0, 0, 0, 0, 0, 0, 0, 0, 0, 0
   \              000000000000
   \              00000000    
   \   00000E7C   000000000000       DC8 0, 0, 0, 0, 0, 0, 0, 0, 0, 0, 0, 0, 0, 0, 0, 0
   \              000000000000
   \              00000000    
   \   00000E8C   000000000000       DC8 0, 0, 0, 0, 0, 0, 0, 0, 0, 0, 0, 0, 0, 0, 0, 0
   \              000000000000
   \              00000000    
   \   00000E9C   000000000000       DC8 0, 0, 0, 0, 0, 0, 0, 0, 0, 0, 0, 0, 0, 0, 0, 0
   \              000000000000
   \              00000000    
   \   00000EAC   000000000000       DC8 0, 0, 0, 0, 0, 0, 0, 0, 0, 0, 0, 0, 0, 0, 0, 0
   \              000000000000
   \              00000000    
   \   00000EBC   000000000000       DC8 0, 0, 0, 0, 0, 0, 0, 0, 0, 0, 0, 0, 0, 0, 0, 0
   \              000000000000
   \              00000000    
   \   00000ECC   000000000000       DC8 0, 0, 0, 0, 0, 0, 0, 0, 0, 0, 0, 0, 0, 0, 0, 0
   \              000000000000
   \              00000000    
   \   00000EDC   000000000000       DC8 0, 0, 0, 0, 0, 0, 0, 0, 0, 0, 0, 0, 0, 0, 0, 0
   \              000000000000
   \              00000000    
   \   00000EEC   000000000000       DC8 0, 0, 0, 0, 0, 0, 0, 0, 0, 0, 0, 0, 0, 0, 0, 0
   \              000000000000
   \              00000000    
   \   00000EFC   000000000000       DC8 0, 0, 0, 0, 0, 0, 0, 0, 0, 0, 0, 0, 0, 0, 0, 0
   \              000000000000
   \              00000000    
   \   00000F0C   000000000000       DC8 0, 0, 0, 0, 0, 0, 0, 0, 0, 0, 0, 0, 0, 0, 0, 0
   \              000000000000
   \              00000000    
   \   00000F1C   000000000000       DC8 0, 0, 0, 0, 0, 0, 0, 0, 0, 0, 0, 0, 0, 0, 0, 0
   \              000000000000
   \              00000000    
   \   00000F2C   000000000000       DC8 0, 0, 0, 0, 0, 0, 0, 0, 0, 0, 0, 0, 0, 0, 0, 0
   \              000000000000
   \              00000000    
   \   00000F3C   000000000000       DC8 0, 0, 0, 0, 0, 0, 0, 0, 0, 0, 0, 0, 0, 0, 0, 0
   \              000000000000
   \              00000000    
   \   00000F4C   000000000000       DC8 0, 0, 0, 0, 0, 0, 0, 0, 0, 0, 0, 0, 0, 0, 0, 0
   \              000000000000
   \              00000000    
   \   00000F5C   000000000000       DC8 0, 0, 0, 0, 0, 0, 0, 0, 0, 0, 0, 0, 0, 0, 0, 0
   \              000000000000
   \              00000000    
   \   00000F6C   000000000000       DC8 0, 0, 0, 0, 0, 0, 0, 0, 0, 0, 0, 0, 0, 0, 0, 0
   \              000000000000
   \              00000000    
   \   00000F7C   000000000000       DC8 0, 0, 0, 0, 0, 0, 0, 0, 0, 0, 0, 0, 0, 0, 0, 0
   \              000000000000
   \              00000000    
   \   00000F8C   000000000000       DC8 0, 0, 0, 0, 0, 0, 0, 0, 0, 0, 0, 0, 0, 0, 0, 0
   \              000000000000
   \              00000000    
   \   00000F9C   000000000000       DC8 0, 0, 0, 0, 0, 0, 0, 0, 0, 0, 0, 0, 0, 0, 0, 0
   \              000000000000
   \              00000000    
   \   00000FAC   000000000000       DC8 0, 0, 0, 0, 0, 0, 0, 0, 0, 0, 0, 0, 0, 0, 0, 0
   \              000000000000
   \              00000000    
   \   00000FBC   000000000000       DC8 0, 0, 0, 0, 0, 0, 0, 0, 0, 0, 0, 0, 0, 0, 0, 0
   \              000000000000
   \              00000000    
   \   00000FCC   000000000000       DC8 0, 0, 0, 0, 0, 0, 0, 0, 0, 0, 0, 0, 0, 0, 0, 0
   \              000000000000
   \              00000000    
   \   00000FDC   000000000000       DC8 0, 0, 0, 0, 0, 0, 0, 0, 0, 0, 0, 0, 0, 0, 0, 0
   \              000000000000
   \              00000000    
   \   00000FEC   000000000000       DC8 0, 0, 0, 0, 0, 0, 0, 0, 0, 0, 0, 0, 0, 0, 0, 0
   \              000000000000
   \              00000000    
   \   00000FFC   000000000000       DC8 0, 0, 0, 0, 0, 0, 0, 0, 0, 0, 0, 0, 0, 0, 0, 0
   \              000000000000
   \              00000000    
   \   0000100C   000000000000       DC8 0, 0, 0, 0, 0, 0, 0, 0, 0, 0, 0, 0, 0, 0, 0, 0
   \              000000000000
   \              00000000    
   \   0000101C   000000000000       DC8 0, 0, 0, 0, 0, 0, 0, 0, 0, 0, 0, 0, 0, 0, 0, 0
   \              000000000000
   \              00000000    
   \   0000102C   000000000000       DC8 0, 0, 0, 0, 0, 0, 0, 0, 0, 0, 0, 0, 0, 0, 0, 0
   \              000000000000
   \              00000000    
   \   0000103C   000000000000       DC8 0, 0, 0, 0, 0, 0, 0, 0, 0, 0, 0, 0, 0, 0, 0, 0
   \              000000000000
   \              00000000    
   \   0000104C   000000000000       DC8 0, 0, 0, 0, 0, 0, 0, 0, 0, 0, 0, 0, 0, 0, 0, 0
   \              000000000000
   \              00000000    
   \   0000105C   000000000000       DC8 0, 0, 0, 0, 0, 0, 0, 0, 0, 0, 0, 0, 0, 0, 0, 0
   \              000000000000
   \              00000000    
   \   0000106C   000000000000       DC8 0, 0, 0, 0, 0, 0, 0, 0, 0, 0, 0, 0, 0, 0, 0, 0
   \              000000000000
   \              00000000    
   \   0000107C   000000000000       DC8 0, 0, 0, 0, 0, 0, 0, 0, 0, 0, 0, 0, 0, 0, 0, 0
   \              000000000000
   \              00000000    
   \   0000108C   000000000000       DC8 0, 0, 0, 0, 0, 0, 0, 0, 0, 0, 0, 0, 0, 0, 0, 0
   \              000000000000
   \              00000000    
   \   0000109C   000000000000       DC8 0, 0, 0, 0, 0, 0, 0, 0, 0, 0, 0, 0, 0, 0, 0, 0
   \              000000000000
   \              00000000    
   \   000010AC   000000000000       DC8 0, 0, 0, 0, 0, 0, 0, 0, 0, 0, 0, 0, 0, 0, 0, 0
   \              000000000000
   \              00000000    
   \   000010BC   000000000000       DC8 0, 0, 0, 0, 0, 0, 0, 0, 0, 0, 0, 0, 0, 0, 0, 0
   \              000000000000
   \              00000000    
   \   000010CC   000000000000       DC8 0, 0, 0, 0, 0, 0, 0, 0, 0, 0, 0, 0, 0, 0, 0, 0
   \              000000000000
   \              00000000    
   \   000010DC   000000000000       DC8 0, 0, 0, 0, 0, 0, 0, 0, 0, 0, 0, 0, 0, 0, 0, 0
   \              000000000000
   \              00000000    
   \   000010EC   000000000000       DC8 0, 0, 0, 0, 0, 0, 0, 0, 0, 0, 0, 0, 0, 0, 0, 0
   \              000000000000
   \              00000000    
   \   000010FC   000000000000       DC8 0, 0, 0, 0, 0, 0, 0, 0, 0, 0, 0, 0, 0, 0, 0, 0
   \              000000000000
   \              00000000    
   \   0000110C   000000000000       DC8 0, 0, 0, 0, 0, 0, 0, 0, 0, 0, 0, 0, 0, 0, 0, 0
   \              000000000000
   \              00000000    
   \   0000111C   000000000000       DC8 0, 0, 0, 0, 0, 0, 0, 0, 0, 0, 0, 0, 0, 0, 0, 0
   \              000000000000
   \              00000000    
   \   0000112C   000000000000       DC8 0, 0, 0, 0, 0, 0, 0, 0, 0, 0, 0, 0, 0, 0, 0, 0
   \              000000000000
   \              00000000    
   \   0000113C   000000000000       DC8 0, 0, 0, 0, 0, 0, 0, 0, 0, 0, 0, 0, 0, 0, 0, 0
   \              000000000000
   \              00000000    
   \   0000114C   000000000000       DC8 0, 0, 0, 0, 0, 0, 0, 0, 0, 0, 0, 0, 0, 0, 0, 0
   \              000000000000
   \              00000000    
   \   0000115C   000000000000       DC8 0, 0, 0, 0, 0, 0, 0, 0, 0, 0, 0, 0, 0, 0, 0, 0
   \              000000000000
   \              00000000    
   \   0000116C   000000000000       DC8 0, 0, 0, 0, 0, 0, 0, 0, 0, 0, 0, 0, 0, 0, 0, 0
   \              000000000000
   \              00000000    
   \   0000117C   000000000000       DC8 0, 0, 0, 0, 0, 0, 0, 0, 0, 0, 0, 0, 0, 0, 0, 0
   \              000000000000
   \              00000000    
   \   0000118C   000000000000       DC8 0, 0, 0, 0, 0, 0, 0, 0, 0, 0, 0, 0, 0, 0, 0, 0
   \              000000000000
   \              00000000    
   \   0000119C   000000000000       DC8 0, 0, 0, 0, 0, 0, 0, 0, 0, 0, 0, 0, 0, 0, 0, 0
   \              000000000000
   \              00000000    
   \   000011AC   000000000000       DC8 0, 0, 0, 0, 0, 0, 0, 0, 0, 0, 0, 0, 0, 0, 0, 0
   \              000000000000
   \              00000000    
   \   000011BC   000000000000       DC8 0, 0, 0, 0, 0, 0, 0, 0, 0, 0, 0, 0, 0, 0, 0, 0
   \              000000000000
   \              00000000    
   \   000011CC   000000000000       DC8 0, 0, 0, 0, 0, 0, 0, 0, 0, 0, 0, 0, 0, 0, 0, 0
   \              000000000000
   \              00000000    
   \   000011DC   000000000000       DC8 0, 0, 0, 0, 0, 0, 0, 0, 0, 0, 0, 0, 0, 0, 0, 0
   \              000000000000
   \              00000000    
   \   000011EC   000000000000       DC8 0, 0, 0, 0, 0, 0, 0, 0, 0, 0, 0, 0, 0, 0, 0, 0
   \              000000000000
   \              00000000    
   \   000011FC   000000000000       DC8 0, 0, 0, 0, 0, 0, 0, 0, 0, 0, 0, 0, 0, 0, 0, 0
   \              000000000000
   \              00000000    
   \   0000120C   000000000000       DC8 0, 0, 0, 0, 0, 0, 0, 0, 0, 0, 0, 0, 0, 0, 0, 0
   \              000000000000
   \              00000000    
   \   0000121C   000000000000       DC8 0, 0, 0, 0, 0, 0, 0, 0, 0, 0, 0, 0, 0, 0, 0, 0
   \              000000000000
   \              00000000    
   \   0000122C   000000000000       DC8 0, 0, 0, 0, 0, 0, 0, 0, 0, 0, 0, 0, 0, 0, 0, 0
   \              000000000000
   \              00000000    
   \   0000123C   000000000000       DC8 0, 0, 0, 0, 0, 0, 0, 0, 0, 0, 0, 0, 0, 0, 0, 0
   \              000000000000
   \              00000000    
   \   0000124C   000000000000       DC8 0, 0, 0, 0, 0, 0, 0, 0, 0, 0, 0, 0, 0, 0, 0, 0
   \              000000000000
   \              00000000    
   \   0000125C   000000000000       DC8 0, 0, 0, 0, 0, 0, 0, 0, 0, 0, 0, 0, 0, 0, 0, 0
   \              000000000000
   \              00000000    
   \   0000126C   000000000000       DC8 0, 0, 0, 0, 0, 0, 0, 0, 0, 0, 0, 0, 0, 0, 0, 0
   \              000000000000
   \              00000000    
   \   0000127C   000000000000       DC8 0, 0, 0, 0, 0, 0, 0, 0, 0, 0, 0, 0, 0, 0, 0, 0
   \              000000000000
   \              00000000    
   \   0000128C   000000000000       DC8 0, 0, 0, 0, 0, 0, 0, 0, 0, 0, 0, 0, 0, 0, 0, 0
   \              000000000000
   \              00000000    
   \   0000129C   000000000000       DC8 0, 0, 0, 0, 0, 0, 0, 0, 0, 0, 0, 0, 0, 0, 0, 0
   \              000000000000
   \              00000000    
   \   000012AC   000000000000       DC8 0, 0, 0, 0, 0, 0, 0, 0, 0, 0, 0, 0, 0, 0, 0, 0
   \              000000000000
   \              00000000    
   \   000012BC   000000000000       DC8 0, 0, 0, 0, 0, 0, 0, 0, 0, 0, 0, 0, 0, 0, 0, 0
   \              000000000000
   \              00000000    
   \   000012CC   000000000000       DC8 0, 0, 0, 0, 0, 0, 0, 0, 0, 0, 0, 0, 0, 0, 0, 0
   \              000000000000
   \              00000000    
   \   000012DC   000000000000       DC8 0, 0, 0, 0, 0, 0, 0, 0, 0, 0, 0, 0, 0, 0, 0, 0
   \              000000000000
   \              00000000    
   \   000012EC   000000000000       DC8 0, 0, 0, 0, 0, 0, 0, 0, 0, 0, 0, 0, 0, 0, 0, 0
   \              000000000000
   \              00000000    
   \   000012FC   000000000000       DC8 0, 0, 0, 0, 0, 0, 0, 0, 0, 0, 0, 0, 0, 0, 0, 0
   \              000000000000
   \              00000000    
   \   0000130C   000000000000       DC8 0, 0, 0, 0, 0, 0, 0, 0, 0, 0, 0, 0, 0, 0, 0, 0
   \              000000000000
   \              00000000    
   \   0000131C   000000000000       DC8 0, 0, 0, 0, 0, 0, 0, 0, 0, 0, 0, 0, 0, 0, 0, 0
   \              000000000000
   \              00000000    
   \   0000132C   000000000000       DC8 0, 0, 0, 0, 0, 0, 0, 0, 0, 0, 0, 0, 0, 0, 0, 0
   \              000000000000
   \              00000000    
   \   0000133C   000000000000       DC8 0, 0, 0, 0, 0, 0, 0, 0, 0, 0, 0, 0, 0, 0, 0, 0
   \              000000000000
   \              00000000    
   \   0000134C   000000000000       DC8 0, 0, 0, 0, 0, 0, 0, 0, 0, 0, 0, 0, 0, 0, 0, 0
   \              000000000000
   \              00000000    
   \   0000135C   000000000000       DC8 0, 0, 0, 0, 0, 0, 0, 0, 0, 0, 0, 0, 0, 0, 0, 0
   \              000000000000
   \              00000000    
   \   0000136C   000000000000       DC8 0, 0, 0, 0, 0, 0, 0, 0, 0, 0, 0, 0, 0, 0, 0, 0
   \              000000000000
   \              00000000    
   \   0000137C   000000000000       DC8 0, 0, 0, 0, 0, 0, 0, 0, 0, 0, 0, 0, 0, 0, 0, 0
   \              000000000000
   \              00000000    
   \   0000138C   000000000000       DC8 0, 0, 0, 0, 0, 0, 0, 0, 0, 0, 0, 0, 0, 0, 0, 0
   \              000000000000
   \              00000000    
   \   0000139C   000000000000       DC8 0, 0, 0, 0, 0, 0, 0, 0, 0, 0, 0, 0, 0, 0, 0, 0
   \              000000000000
   \              00000000    
   \   000013AC   000000000000       DC8 0, 0, 0, 0, 0, 0, 0, 0, 0, 0, 0, 0, 0, 0, 0, 0
   \              000000000000
   \              00000000    
   \   000013BC   000000000000       DC8 0, 0, 0, 0, 0, 0, 0, 0, 0, 0, 0, 0, 0, 0, 0, 0
   \              000000000000
   \              00000000    
   \   000013CC   000000000000       DC8 0, 0, 0, 0, 0, 0, 0, 0, 0, 0, 0, 0, 0, 0, 0, 0
   \              000000000000
   \              00000000    
   \   000013DC   000000000000       DC8 0, 0, 0, 0, 0, 0, 0, 0, 0, 0, 0, 0, 0, 0, 0, 0
   \              000000000000
   \              00000000    
   \   000013EC   000000000000       DC8 0, 0, 0, 0, 0, 0, 0, 0, 0, 0, 0, 0, 0, 0, 0, 0
   \              000000000000
   \              00000000    
   \   000013FC   000000000000       DC8 0, 0, 0, 0, 0, 0, 0, 0, 0, 0, 0, 0, 0, 0, 0, 0
   \              000000000000
   \              00000000    
   \   0000140C   000000000000       DC8 0, 0, 0, 0, 0, 0, 0, 0, 0, 0, 0, 0, 0, 0, 0, 0
   \              000000000000
   \              00000000    
   \   0000141C   000000000000       DC8 0, 0, 0, 0, 0, 0, 0, 0, 0, 0, 0, 0, 0, 0, 0, 0
   \              000000000000
   \              00000000    
   \   0000142C   000000000000       DC8 0, 0, 0, 0, 0, 0, 0, 0, 0, 0, 0, 0, 0, 0, 0, 0
   \              000000000000
   \              00000000    
   \   0000143C   000000000000       DC8 0, 0, 0, 0, 0, 0, 0, 0, 0, 0, 0, 0, 0, 0, 0, 0
   \              000000000000
   \              00000000    
   \   0000144C   000000000000       DC8 0, 0, 0, 0, 0, 0, 0, 0, 0, 0, 0, 0, 0, 0, 0, 0
   \              000000000000
   \              00000000    
   \   0000145C   000000000000       DC8 0, 0, 0, 0, 0, 0, 0, 0, 0, 0, 0, 0, 0, 0, 0, 0
   \              000000000000
   \              00000000    
   \   0000146C   000000000000       DC8 0, 0, 0, 0, 0, 0, 0, 0, 0, 0, 0, 0, 0, 0, 0, 0
   \              000000000000
   \              00000000    
   \   0000147C   000000000000       DC8 0, 0, 0, 0, 0, 0, 0, 0, 0, 0, 0, 0, 0, 0, 0, 0
   \              000000000000
   \              00000000    
   \   0000148C   000000000000       DC8 0, 0, 0, 0, 0, 0, 0, 0, 0, 0, 0, 0, 0, 0, 0, 0
   \              000000000000
   \              00000000    
   \   0000149C   000000000000       DC8 0, 0, 0, 0, 0, 0, 0, 0, 0, 0, 0, 0, 0, 0, 0, 0
   \              000000000000
   \              00000000    
   \   000014AC   000000000000       DC8 0, 0, 0, 0, 0, 0, 0, 0, 0, 0, 0, 0, 0, 0, 0, 0
   \              000000000000
   \              00000000    
   \   000014BC   000000000000       DC8 0, 0, 0, 0, 0, 0, 0, 0, 0, 0, 0, 0, 0, 0, 0, 0
   \              000000000000
   \              00000000    
   \   000014CC   000000000000       DC8 0, 0, 0, 0, 0, 0, 0, 0, 0, 0, 0, 0, 0, 0, 0, 0
   \              000000000000
   \              00000000    
   \   000014DC   000000000000       DC8 0, 0, 0, 0, 0, 0, 0, 0, 0, 0, 0, 0, 0, 0, 0, 0
   \              000000000000
   \              00000000    
   \   000014EC   000000000000       DC8 0, 0, 0, 0, 0, 0, 0, 0, 0, 0, 0, 0, 0, 0, 0, 0
   \              000000000000
   \              00000000    
   \   000014FC   000000000000       DC8 0, 0, 0, 0, 0, 0, 0, 0, 0, 0, 0, 0, 0, 0, 0, 0
   \              000000000000
   \              00000000    
   \   0000150C   000000000000       DC8 0, 0, 0, 0, 0, 0, 0, 0, 0, 0, 0, 0, 0, 0, 0, 0
   \              000000000000
   \              00000000    
   \   0000151C   000000000000       DC8 0, 0, 0, 0, 0, 0, 0, 0, 0, 0, 0, 0, 0, 0, 0, 0
   \              000000000000
   \              00000000    
   \   0000152C   000000000000       DC8 0, 0, 0, 0, 0, 0, 0, 0, 0, 0, 0, 0, 0, 0, 0, 0
   \              000000000000
   \              00000000    
   \   0000153C   000000000000       DC8 0, 0, 0, 0, 0, 0, 0, 0, 0, 0, 0, 0, 0, 0, 0, 0
   \              000000000000
   \              00000000    
   \   0000154C   000000000000       DC8 0, 0, 0, 0, 0, 0, 0, 0, 0, 0, 0, 0, 0, 0, 0, 0
   \              000000000000
   \              00000000    
   \   0000155C   000000000000       DC8 0, 0, 0, 0, 0, 0, 0, 0, 0, 0, 0, 0, 0, 0, 0, 0
   \              000000000000
   \              00000000    
   \   0000156C   000000000000       DC8 0, 0, 0, 0, 0, 0, 0, 0, 0, 0, 0, 0, 0, 0, 0, 0
   \              000000000000
   \              00000000    
   \   0000157C   000000000000       DC8 0, 0, 0, 0, 0, 0, 0, 0, 0, 0, 0, 0, 0, 0, 0, 0
   \              000000000000
   \              00000000    
   \   0000158C   000000000000       DC8 0, 0, 0, 0, 0, 0, 0, 0, 0, 0, 0, 0, 0, 0, 0, 0
   \              000000000000
   \              00000000    
   \   0000159C   000000000000       DC8 0, 0, 0, 0, 0, 0, 0, 0, 0, 0, 0, 0, 0, 0, 0, 0
   \              000000000000
   \              00000000    
   \   000015AC   000000000000       DC8 0, 0, 0, 0, 0, 0, 0, 0, 0, 0, 0, 0, 0, 0, 0, 0
   \              000000000000
   \              00000000    
   \   000015BC   000000000000       DC8 0, 0, 0, 0, 0, 0, 0, 0, 0, 0, 0, 0, 0, 0, 0, 0
   \              000000000000
   \              00000000    
   \   000015CC   000000000000       DC8 0, 0, 0, 0, 0, 0, 0, 0, 0, 0, 0, 0, 0, 0, 0, 0
   \              000000000000
   \              00000000    
   \   000015DC   000000000000       DC8 0, 0, 0, 0, 0, 0, 0, 0, 0, 0, 0, 0, 0, 0, 0, 0
   \              000000000000
   \              00000000    
   \   000015EC   000000000000       DC8 0, 0, 0, 0, 0, 0, 0, 0, 0, 0, 0, 0, 0, 0, 0, 0
   \              000000000000
   \              00000000    
   \   000015FC   000000000000       DC8 0, 0, 0, 0, 0, 0, 0, 0, 0, 0, 0, 0, 0, 0, 0, 0
   \              000000000000
   \              00000000    
   \   0000160C   000000000000       DC8 0, 0, 0, 0, 0, 0, 0, 0, 0, 0, 0, 0, 0, 0, 0, 0
   \              000000000000
   \              00000000    
   \   0000161C   000000000000       DC8 0, 0, 0, 0, 0, 0, 0, 0, 0, 0, 0, 0, 0, 0, 0, 0
   \              000000000000
   \              00000000    
   \   0000162C   000000000000       DC8 0, 0, 0, 0, 0, 0, 0, 0, 0, 0, 0, 0, 0, 0, 0, 0
   \              000000000000
   \              00000000    
   \   0000163C   000000000000       DC8 0, 0, 0, 0, 0, 0, 0, 0, 0, 0, 0, 0, 0, 0, 0, 0
   \              000000000000
   \              00000000    
   \   0000164C   000000000000       DC8 0, 0, 0, 0, 0, 0, 0, 0, 0, 0, 0, 0, 0, 0, 0, 0
   \              000000000000
   \              00000000    
   \   0000165C   000000000000       DC8 0, 0, 0, 0, 0, 0, 0, 0, 0, 0, 0, 0, 0, 0, 0, 0
   \              000000000000
   \              00000000    
   \   0000166C   000000000000       DC8 0, 0, 0, 0, 0, 0, 0, 0, 0, 0, 0, 0, 0, 0, 0, 0
   \              000000000000
   \              00000000    
   \   0000167C   000000000000       DC8 0, 0, 0, 0, 0, 0, 0, 0, 0, 0, 0, 0, 0, 0, 0, 0
   \              000000000000
   \              00000000    
   \   0000168C   000000000000       DC8 0, 0, 0, 0, 0, 0, 0, 0, 0, 0, 0, 0, 0, 0, 0, 0
   \              000000000000
   \              00000000    
   \   0000169C   000000000000       DC8 0, 0, 0, 0, 0, 0, 0, 0, 0, 0, 0, 0, 0, 0, 0, 0
   \              000000000000
   \              00000000    
   \   000016AC   000000000000       DC8 0, 0, 0, 0, 0, 0, 0, 0, 0, 0, 0, 0, 0, 0, 0, 0
   \              000000000000
   \              00000000    
   \   000016BC   000000000000       DC8 0, 0, 0, 0, 0, 0, 0, 0, 0, 0, 0, 0, 0, 0, 0, 0
   \              000000000000
   \              00000000    
   \   000016CC   000000000000       DC8 0, 0, 0, 0, 0, 0, 0, 0, 0, 0, 0, 0, 0, 0, 0, 0
   \              000000000000
   \              00000000    
   \   000016DC   000000000000       DC8 0, 0, 0, 0, 0, 0, 0, 0, 0, 0, 0, 0, 0, 0, 0, 0
   \              000000000000
   \              00000000    
   \   000016EC   000000000000       DC8 0, 0, 0, 0, 0, 0, 0, 0, 0, 0, 0, 0, 0, 0, 0, 0
   \              000000000000
   \              00000000    
   \   000016FC   000000000000       DC8 0, 0, 0, 0, 0, 0, 0, 0, 0, 0, 0, 0, 0, 0, 0, 0
   \              000000000000
   \              00000000    
   \   0000170C   000000000000       DC8 0, 0, 0, 0, 0, 0, 0, 0, 0, 0, 0, 0, 0, 0, 0, 0
   \              000000000000
   \              00000000    
   \   0000171C   000000000000       DC8 0, 0, 0, 0, 0, 0, 0, 0, 0, 0, 0, 0, 0, 0, 0, 0
   \              000000000000
   \              00000000    
   \   0000172C   000000000000       DC8 0, 0, 0, 0, 0, 0, 0, 0, 0, 0, 0, 0, 0, 0, 0, 0
   \              000000000000
   \              00000000    
   \   0000173C   000000000000       DC8 0, 0, 0, 0, 0, 0, 0, 0, 0, 0, 0, 0, 0, 0, 0, 0
   \              000000000000
   \              00000000    
   \   0000174C   000000000000       DC8 0, 0, 0, 0, 0, 0, 0, 0, 0, 0, 0, 0, 0, 0, 0, 0
   \              000000000000
   \              00000000    
   \   0000175C   000000000000       DC8 0, 0, 0, 0, 0, 0, 0, 0, 0, 0, 0, 0, 0, 0, 0, 0
   \              000000000000
   \              00000000    
   \   0000176C   000000000000       DC8 0, 0, 0, 0, 0, 0, 0, 0, 0, 0, 0, 0, 0, 0, 0, 0
   \              000000000000
   \              00000000    
   \   0000177C   000000000000       DC8 0, 0, 0, 0, 0, 0, 0, 0, 0, 0, 0, 0, 0, 0, 0, 0
   \              000000000000
   \              00000000    
   \   0000178C   000000000000       DC8 0, 0, 0, 0, 0, 0, 0, 0, 0, 0, 0, 0, 0, 0, 0, 0
   \              000000000000
   \              00000000    
   \   0000179C   000000000000       DC8 0, 0, 0, 0, 0, 0, 0, 0, 0, 0, 0, 0, 0, 0, 0, 0
   \              000000000000
   \              00000000    
   \   000017AC   000000000000       DC8 0, 0, 0, 0, 0, 0, 0, 0, 0, 0, 0, 0, 0, 0, 0, 0
   \              000000000000
   \              00000000    
   \   000017BC   000000000000       DC8 0, 0, 0, 0, 0, 0, 0, 0, 0, 0, 0, 0, 0, 0, 0, 0
   \              000000000000
   \              00000000    
   \   000017CC   000000000000       DC8 0, 0, 0, 0, 0, 0, 0, 0, 0, 0, 0, 0, 0, 0, 0, 0
   \              000000000000
   \              00000000    
   \   000017DC   000000000000       DC8 0, 0, 0, 0, 0, 0, 0, 0, 0, 0, 0, 0, 0, 0, 0, 0
   \              000000000000
   \              00000000    
   \   000017EC   000000000000       DC8 0, 0, 0, 0, 0, 0, 0, 0, 0, 0, 0, 0, 0, 0, 0, 0
   \              000000000000
   \              00000000    
   \   000017FC   000000000000       DC8 0, 0, 0, 0, 0, 0, 0, 0, 0, 0, 0, 0, 0, 0, 0, 0
   \              000000000000
   \              00000000    
   \   0000180C   000000000000       DC8 0, 0, 0, 0, 0, 0, 0, 0, 0, 0, 0, 0, 0, 0, 0, 0
   \              000000000000
   \              00000000    
   \   0000181C   000000000000       DC8 0, 0, 0, 0, 0, 0, 0, 0, 0, 0, 0, 0, 0, 0, 0, 0
   \              000000000000
   \              00000000    
   \   0000182C   000000000000       DC8 0, 0, 0, 0, 0, 0, 0, 0, 0, 0, 0, 0, 0, 0, 0, 0
   \              000000000000
   \              00000000    
   \   0000183C   000000000000       DC8 0, 0, 0, 0, 0, 0, 0, 0, 0, 0, 0, 0, 0, 0, 0, 0
   \              000000000000
   \              00000000    
   \   0000184C   000000000000       DC8 0, 0, 0, 0, 0, 0, 0, 0, 0, 0, 0, 0, 0, 0, 0, 0
   \              000000000000
   \              00000000    
   \   0000185C   000000000000       DC8 0, 0, 0, 0, 0, 0, 0, 0, 0, 0, 0, 0, 0, 0, 0, 0
   \              000000000000
   \              00000000    
   \   0000186C   000000000000       DC8 0, 0, 0, 0, 0, 0, 0, 0, 0, 0, 0, 0, 0, 0, 0, 0
   \              000000000000
   \              00000000    
   \   0000187C   000000000000       DC8 0, 0, 0, 0, 0, 0, 0, 0, 0, 0, 0, 0, 0, 0, 0, 0
   \              000000000000
   \              00000000    
   \   0000188C   000000000000       DC8 0, 0, 0, 0, 0, 0, 0, 0, 0, 0, 0, 0, 0, 0, 0, 0
   \              000000000000
   \              00000000    
   \   0000189C   000000000000       DC8 0, 0, 0, 0, 0, 0, 0, 0, 0, 0, 0, 0, 0, 0, 0, 0
   \              000000000000
   \              00000000    
   \   000018AC   000000000000       DC8 0, 0, 0, 0, 0, 0, 0, 0, 0, 0, 0, 0, 0, 0, 0, 0
   \              000000000000
   \              00000000    
   \   000018BC   000000000000       DC8 0, 0, 0, 0, 0, 0, 0, 0, 0, 0, 0, 0, 0, 0, 0, 0
   \              000000000000
   \              00000000    
   \   000018CC   000000000000       DC8 0, 0, 0, 0, 0, 0, 0, 0, 0, 0, 0, 0, 0, 0, 0, 0
   \              000000000000
   \              00000000    
   \   000018DC   000000000000       DC8 0, 0, 0, 0, 0, 0, 0, 0, 0, 0, 0, 0, 0, 0, 0, 0
   \              000000000000
   \              00000000    
   \   000018EC   000000000000       DC8 0, 0, 0, 0, 0, 0, 0, 0, 0, 0, 0, 0, 0, 0, 0, 0
   \              000000000000
   \              00000000    
   \   000018FC   000000000000       DC8 0, 0, 0, 0, 0, 0, 0, 0, 0, 0, 0, 0, 0, 0, 0, 0
   \              000000000000
   \              00000000    
   \   0000190C   000000000000       DC8 0, 0, 0, 0, 0, 0, 0, 0, 0, 0, 0, 0, 0, 0, 0, 0
   \              000000000000
   \              00000000    
   \   0000191C   000000000000       DC8 0, 0, 0, 0, 0, 0, 0, 0, 0, 0, 0, 0, 0, 0, 0, 0
   \              000000000000
   \              00000000    
   \   0000192C   000000000000       DC8 0, 0, 0, 0, 0, 0, 0, 0, 0, 0, 0, 0, 0, 0, 0, 0
   \              000000000000
   \              00000000    
   \   0000193C   000000000000       DC8 0, 0, 0, 0, 0, 0, 0, 0, 0, 0, 0, 0, 0, 0, 0, 0
   \              000000000000
   \              00000000    
   \   0000194C   000000000000       DC8 0, 0, 0, 0, 0, 0, 0, 0, 0, 0, 0, 0, 0, 0, 0, 0
   \              000000000000
   \              00000000    
   \   0000195C   000000000000       DC8 0, 0, 0, 0, 0, 0, 0, 0, 0, 0, 0, 0, 0, 0, 0, 0
   \              000000000000
   \              00000000    
   \   0000196C   000000000000       DC8 0, 0, 0, 0, 0, 0, 0, 0, 0, 0, 0, 0, 0, 0, 0, 0
   \              000000000000
   \              00000000    
   \   0000197C   000000000000       DC8 0, 0, 0, 0, 0, 0, 0, 0, 0, 0, 0, 0, 0, 0, 0, 0
   \              000000000000
   \              00000000    
   \   0000198C   000000000000       DC8 0, 0, 0, 0, 0, 0, 0, 0, 0, 0, 0, 0, 0, 0, 0, 0
   \              000000000000
   \              00000000    
   \   0000199C   000000000000       DC8 0, 0, 0, 0, 0, 0, 0, 0, 0, 0, 0, 0, 0, 0, 0, 0
   \              000000000000
   \              00000000    
   \   000019AC   000000000000       DC8 0, 0, 0, 0, 0, 0, 0, 0, 0, 0, 0, 0, 0, 0, 0, 0
   \              000000000000
   \              00000000    
   \   000019BC   000000000000       DC8 0, 0, 0, 0, 0, 0, 0, 0, 0, 0, 0, 0, 0, 0, 0, 0
   \              000000000000
   \              00000000    
   \   000019CC   000000000000       DC8 0, 0, 0, 0, 0, 0, 0, 0, 0, 0, 0, 0, 0, 0, 0, 0
   \              000000000000
   \              00000000    
   \   000019DC   000000000000       DC8 0, 0, 0, 0, 0, 0, 0, 0, 0, 0, 0, 0, 0, 0, 0, 0
   \              000000000000
   \              00000000    
   \   000019EC   000000000000       DC8 0, 0, 0, 0, 0, 0, 0, 0, 0, 0, 0, 0, 0, 0, 0, 0
   \              000000000000
   \              00000000    
   \   000019FC   000000000000       DC8 0, 0, 0, 0, 0, 0, 0, 0, 0, 0, 0, 0, 0, 0, 0, 0
   \              000000000000
   \              00000000    
   \   00001A0C   000000000000       DC8 0, 0, 0, 0, 0, 0, 0, 0, 0, 0, 0, 0, 0, 0, 0, 0
   \              000000000000
   \              00000000    
   \   00001A1C   000000000000       DC8 0, 0, 0, 0, 0, 0, 0, 0, 0, 0, 0, 0, 0, 0, 0, 0
   \              000000000000
   \              00000000    
   \   00001A2C   000000000000       DC8 0, 0, 0, 0, 0, 0, 0, 0, 0, 0, 0, 0, 0, 0, 0, 0
   \              000000000000
   \              00000000    
   \   00001A3C   000000000000       DC8 0, 0, 0, 0, 0, 0, 0, 0, 0, 0, 0, 0, 0, 0, 0, 0
   \              000000000000
   \              00000000    
   \   00001A4C   000000000000       DC8 0, 0, 0, 0, 0, 0, 0, 0, 0, 0, 0, 0, 0, 0, 0, 0
   \              000000000000
   \              00000000    
   \   00001A5C   000000000000       DC8 0, 0, 0, 0, 0, 0, 0, 0, 0, 0, 0, 0, 0, 0, 0, 0
   \              000000000000
   \              00000000    
   \   00001A6C   000000000000       DC8 0, 0, 0, 0, 0, 0, 0, 0, 0, 0, 0, 0, 0, 0, 0, 0
   \              000000000000
   \              00000000    
   \   00001A7C   000000000000       DC8 0, 0, 0, 0, 0, 0, 0, 0, 0, 0, 0, 0, 0, 0, 0, 0
   \              000000000000
   \              00000000    
   \   00001A8C   000000000000       DC8 0, 0, 0, 0, 0, 0, 0, 0, 0, 0, 0, 0, 0, 0, 0, 0
   \              000000000000
   \              00000000    
   \   00001A9C   000000000000       DC8 0, 0, 0, 0, 0, 0, 0, 0, 0, 0, 0, 0, 0, 0, 0, 0
   \              000000000000
   \              00000000    
   \   00001AAC   000000000000       DC8 0, 0, 0, 0, 0, 0, 0, 0, 0, 0, 0, 0, 0, 0, 0, 0
   \              000000000000
   \              00000000    
   \   00001ABC   000000000000       DC8 0, 0, 0, 0, 0, 0, 0, 0, 0, 0, 0, 0, 0, 0, 0, 0
   \              000000000000
   \              00000000    
   \   00001ACC   000000000000       DC8 0, 0, 0, 0, 0, 0, 0, 0, 0, 0, 0, 0, 0, 0, 0, 0
   \              000000000000
   \              00000000    
   \   00001ADC   000000000000       DC8 0, 0, 0, 0, 0, 0, 0, 0, 0, 0, 0, 0, 0, 0, 0, 0
   \              000000000000
   \              00000000    
   \   00001AEC   000000000000       DC8 0, 0, 0, 0, 0, 0, 0, 0, 0, 0, 0, 0, 0, 0, 0, 0
   \              000000000000
   \              00000000    
   \   00001AFC   000000000000       DC8 0, 0, 0, 0, 0, 0, 0, 0, 0, 0, 0, 0, 0, 0, 0, 0
   \              000000000000
   \              00000000    
   \   00001B0C   000000000000       DC8 0, 0, 0, 0, 0, 0, 0, 0, 0, 0, 0, 0, 0, 0, 0, 0
   \              000000000000
   \              00000000    
   \   00001B1C   000000000000       DC8 0, 0, 0, 0, 0, 0, 0, 0, 0, 0, 0, 0, 0, 0, 0, 0
   \              000000000000
   \              00000000    
   \   00001B2C   000000000000       DC8 0, 0, 0, 0, 0, 0, 0, 0, 0, 0, 0, 0, 0, 0, 0, 0
   \              000000000000
   \              00000000    
   \   00001B3C   000000000000       DC8 0, 0, 0, 0, 0, 0, 0, 0, 0, 0, 0, 0, 0, 0, 0, 0
   \              000000000000
   \              00000000    
   \   00001B4C   000000000000       DC8 0, 0, 0, 0, 0, 0, 0, 0, 0, 0, 0, 0, 0, 0, 0, 0
   \              000000000000
   \              00000000    
   \   00001B5C   000000000000       DC8 0, 0, 0, 0, 0, 0, 0, 0, 0, 0, 0, 0, 0, 0, 0, 0
   \              000000000000
   \              00000000    
   \   00001B6C   000000000000       DC8 0, 0, 0, 0, 0, 0, 0, 0, 0, 0, 0, 0, 0, 0, 0, 0
   \              000000000000
   \              00000000    
   \   00001B7C   000000000000       DC8 0, 0, 0, 0, 0, 0, 0, 0, 0, 0, 0, 0, 0, 0, 0, 0
   \              000000000000
   \              00000000    
   \   00001B8C   000000000000       DC8 0, 0, 0, 0, 0, 0, 0, 0, 0, 0, 0, 0, 0, 0, 0, 0
   \              000000000000
   \              00000000    
   \   00001B9C   000000000000       DC8 0, 0, 0, 0, 0, 0, 0, 0, 0, 0, 0, 0, 0, 0, 0, 0
   \              000000000000
   \              00000000    
   \   00001BAC   000000000000       DC8 0, 0, 0, 0, 0, 0, 0, 0, 0, 0, 0, 0, 0, 0, 0, 0
   \              000000000000
   \              00000000    
   \   00001BBC   000000000000       DC8 0, 0, 0, 0, 0, 0, 0, 0, 0, 0, 0, 0, 0, 0, 0, 0
   \              000000000000
   \              00000000    
   \   00001BCC   000000000000       DC8 0, 0, 0, 0, 0, 0, 0, 0, 0, 0, 0, 0, 0, 0, 0, 0
   \              000000000000
   \              00000000    
   \   00001BDC   000000000000       DC8 0, 0, 0, 0, 0, 0, 0, 0, 0, 0, 0, 0, 0, 0, 0, 0
   \              000000000000
   \              00000000    
   \   00001BEC   000000000000       DC8 0, 0, 0, 0, 0, 0, 0, 0, 0, 0, 0, 0, 0, 0, 0, 0
   \              000000000000
   \              00000000    
   \   00001BFC   000000000000       DC8 0, 0, 0, 0, 0, 0, 0, 0, 0, 0, 0, 0, 0, 0, 0, 0
   \              000000000000
   \              00000000    
   \   00001C0C   000000000000       DC8 0, 0, 0, 0, 0, 0, 0, 0, 0, 0, 0, 0, 0, 0, 0, 0
   \              000000000000
   \              00000000    
   \   00001C1C   000000000000       DC8 0, 0, 0, 0, 0, 0, 0, 0, 0, 0, 0, 0, 0, 0, 0, 0
   \              000000000000
   \              00000000    
   \   00001C2C   000000000000       DC8 0, 0, 0, 0, 0, 0, 0, 0, 0, 0, 0, 0, 0, 0, 0, 0
   \              000000000000
   \              00000000    
   \   00001C3C   000000000000       DC8 0, 0, 0, 0, 0, 0, 0, 0, 0, 0, 0, 0, 0, 0, 0, 0
   \              000000000000
   \              00000000    
   \   00001C4C   000000000000       DC8 0, 0, 0, 0, 0, 0, 0, 0, 0, 0, 0, 0, 0, 0, 0, 0
   \              000000000000
   \              00000000    
   \   00001C5C   000000000000       DC8 0, 0, 0, 0, 0, 0, 0, 0, 0, 0, 0, 0, 0, 0, 0, 0
   \              000000000000
   \              00000000    
   \   00001C6C   000000000000       DC8 0, 0, 0, 0, 0, 0, 0, 0, 0, 0, 0, 0, 0, 0, 0, 0
   \              000000000000
   \              00000000    
   \   00001C7C   000000000000       DC8 0, 0, 0, 0, 0, 0, 0, 0, 0, 0, 0, 0, 0, 0, 0, 0
   \              000000000000
   \              00000000    
   \   00001C8C   000000000000       DC8 0, 0, 0, 0, 0, 0, 0, 0, 0, 0, 0, 0, 0, 0, 0, 0
   \              000000000000
   \              00000000    
   \   00001C9C   000000000000       DC8 0, 0, 0, 0, 0, 0, 0, 0, 0, 0, 0, 0, 0, 0, 0, 0
   \              000000000000
   \              00000000    
   \   00001CAC   000000000000       DC8 0, 0, 0, 0, 0, 0, 0, 0, 0, 0, 0, 0, 0, 0, 0, 0
   \              000000000000
   \              00000000    
   \   00001CBC   000000000000       DC8 0, 0, 0, 0, 0, 0, 0, 0, 0, 0, 0, 0, 0, 0, 0, 0
   \              000000000000
   \              00000000    
   \   00001CCC   000000000000       DC8 0, 0, 0, 0, 0, 0, 0, 0, 0, 0, 0, 0, 0, 0, 0, 0
   \              000000000000
   \              00000000    
   \   00001CDC   000000000000       DC8 0, 0, 0, 0, 0, 0, 0, 0, 0, 0, 0, 0, 0, 0, 0, 0
   \              000000000000
   \              00000000    
   \   00001CEC   000000000000       DC8 0, 0, 0, 0, 0, 0, 0, 0, 0, 0, 0, 0, 0, 0, 0, 0
   \              000000000000
   \              00000000    
   \   00001CFC   000000000000       DC8 0, 0, 0, 0, 0, 0, 0, 0, 0, 0, 0, 0, 0, 0, 0, 0
   \              000000000000
   \              00000000    
   \   00001D0C   000000000000       DC8 0, 0, 0, 0, 0, 0, 0, 0, 0, 0, 0, 0, 0, 0, 0, 0
   \              000000000000
   \              00000000    
   \   00001D1C   000000000000       DC8 0, 0, 0, 0, 0, 0, 0, 0, 0, 0, 0, 0, 0, 0, 0, 0
   \              000000000000
   \              00000000    
   \   00001D2C   000000000000       DC8 0, 0, 0, 0, 0, 0, 0, 0, 0, 0, 0, 0, 0, 0, 0, 0
   \              000000000000
   \              00000000    
   \   00001D3C   000000000000       DC8 0, 0, 0, 0, 0, 0, 0, 0, 0, 0, 0, 0, 0, 0, 0, 0
   \              000000000000
   \              00000000    
   \   00001D4C   000000000000       DC8 0, 0, 0, 0, 0, 0, 0, 0, 0, 0, 0, 0, 0, 0, 0, 0
   \              000000000000
   \              00000000    
   \   00001D5C   000000000000       DC8 0, 0, 0, 0, 0, 0, 0, 0, 0, 0, 0, 0, 0, 0, 0, 0
   \              000000000000
   \              00000000    
   \   00001D6C   000000000000       DC8 0, 0, 0, 0, 0, 0, 0, 0, 0, 0, 0, 0, 0, 0, 0, 0
   \              000000000000
   \              00000000    
   \   00001D7C   000000000000       DC8 0, 0, 0, 0, 0, 0, 0, 0, 0, 0, 0, 0, 0, 0, 0, 0
   \              000000000000
   \              00000000    
   \   00001D8C   000000000000       DC8 0, 0, 0, 0, 0, 0, 0, 0, 0, 0, 0, 0, 0, 0, 0, 0
   \              000000000000
   \              00000000    
   \   00001D9C   000000000000       DC8 0, 0, 0, 0, 0, 0, 0, 0, 0, 0, 0, 0, 0, 0, 0, 0
   \              000000000000
   \              00000000    
   \   00001DAC   000000000000       DC8 0, 0, 0, 0, 0, 0, 0, 0, 0, 0, 0, 0, 0, 0, 0, 0
   \              000000000000
   \              00000000    
   \   00001DBC   000000000000       DC8 0, 0, 0, 0, 0, 0, 0, 0, 0, 0, 0, 0, 0, 0, 0, 0
   \              000000000000
   \              00000000    
   \   00001DCC   000000000000       DC8 0, 0, 0, 0, 0, 0, 0, 0, 0, 0, 0, 0, 0, 0, 0, 0
   \              000000000000
   \              00000000    
   \   00001DDC   000000000000       DC8 0, 0, 0, 0, 0, 0, 0, 0, 0, 0, 0, 0, 0, 0, 0, 0
   \              000000000000
   \              00000000    
   \   00001DEC   000000000000       DC8 0, 0, 0, 0, 0, 0, 0, 0, 0, 0, 0, 0, 0, 0, 0, 0
   \              000000000000
   \              00000000    
   \   00001DFC   000000000000       DC8 0, 0, 0, 0, 0, 0, 0, 0, 0, 0, 0, 0, 0, 0, 0, 0
   \              000000000000
   \              00000000    
   \   00001E0C   000000000000       DC8 0, 0, 0, 0, 0, 0, 0, 0, 0, 0, 0, 0, 0, 0, 0, 0
   \              000000000000
   \              00000000    
   \   00001E1C   000000000000       DC8 0, 0, 0, 0, 0, 0, 0, 0, 0, 0, 0, 0, 0, 0, 0, 0
   \              000000000000
   \              00000000    
   \   00001E2C   000000000000       DC8 0, 0, 0, 0, 0, 0, 0, 0, 0, 0, 0, 0, 0, 0, 0, 0
   \              000000000000
   \              00000000    
   \   00001E3C   000000000000       DC8 0, 0, 0, 0, 0, 0, 0, 0, 0, 0, 0, 0, 0, 0, 0, 0
   \              000000000000
   \              00000000    
   \   00001E4C   000000000000       DC8 0, 0, 0, 0, 0, 0, 0, 0, 0, 0, 0, 0, 0, 0, 0, 0
   \              000000000000
   \              00000000    
   \   00001E5C   000000000000       DC8 0, 0, 0, 0, 0, 0, 0, 0, 0, 0, 0, 0, 0, 0, 0, 0
   \              000000000000
   \              00000000    
   \   00001E6C   000000000000       DC8 0, 0, 0, 0, 0, 0, 0, 0, 0, 0, 0, 0, 0, 0, 0, 0
   \              000000000000
   \              00000000    
   \   00001E7C   000000000000       DC8 0, 0, 0, 0, 0, 0, 0, 0, 0, 0, 0, 0, 0, 0, 0, 0
   \              000000000000
   \              00000000    
   \   00001E8C   000000000000       DC8 0, 0, 0, 0, 0, 0, 0, 0, 0, 0, 0, 0, 0, 0, 0, 0
   \              000000000000
   \              00000000    
   \   00001E9C   000000000000       DC8 0, 0, 0, 0, 0, 0, 0, 0, 0, 0, 0, 0, 0, 0, 0, 0
   \              000000000000
   \              00000000    
   \   00001EAC   000000000000       DC8 0, 0, 0, 0, 0, 0, 0, 0, 0, 0, 0, 0, 0, 0, 0, 0
   \              000000000000
   \              00000000    
   \   00001EBC   000000000000       DC8 0, 0, 0, 0, 0, 0, 0, 0, 0, 0, 0, 0, 0, 0, 0, 0
   \              000000000000
   \              00000000    
   \   00001ECC   000000000000       DC8 0, 0, 0, 0, 0, 0, 0, 0, 0, 0, 0, 0, 0, 0, 0, 0
   \              000000000000
   \              00000000    
   \   00001EDC   000000000000       DC8 0, 0, 0, 0, 0, 0, 0, 0, 0, 0, 0, 0, 0, 0, 0, 0
   \              000000000000
   \              00000000    
   \   00001EEC   000000000000       DC8 0, 0, 0, 0, 0, 0, 0, 0, 0, 0, 0, 0, 0, 0, 0, 0
   \              000000000000
   \              00000000    
   \   00001EFC   000000000000       DC8 0, 0, 0, 0, 0, 0, 0, 0, 0, 0, 0, 0, 0, 0, 0, 0
   \              000000000000
   \              00000000    
   \   00001F0C   000000000000       DC8 0, 0, 0, 0, 0, 0, 0, 0, 0, 0, 0, 0, 0, 0, 0, 0
   \              000000000000
   \              00000000    
   \   00001F1C   000000000000       DC8 0, 0, 0, 0, 0, 0, 0, 0, 0, 0, 0, 0, 0, 0, 0, 0
   \              000000000000
   \              00000000    
   \   00001F2C   000000000000       DC8 0, 0, 0, 0, 0, 0, 0, 0, 0, 0, 0, 0, 0, 0, 0, 0
   \              000000000000
   \              00000000    
   \   00001F3C   000000000000       DC8 0, 0, 0, 0, 0, 0, 0, 0, 0, 0, 0, 0, 0, 0, 0, 0
   \              000000000000
   \              00000000    
   \   00001F4C   000000000000       DC8 0, 0, 0, 0, 0, 0, 0, 0, 0, 0, 0, 0, 0, 0, 0, 0
   \              000000000000
   \              00000000    
   \   00001F5C   000000000000       DC8 0, 0, 0, 0, 0, 0, 0, 0, 0, 0, 0, 0, 0, 0, 0, 0
   \              000000000000
   \              00000000    
   \   00001F6C   000000000000       DC8 0, 0, 0, 0, 0, 0, 0, 0, 0, 0, 0, 0, 0, 0, 0, 0
   \              000000000000
   \              00000000    
   \   00001F7C   000000000000       DC8 0, 0, 0, 0, 0, 0, 0, 0, 0, 0, 0, 0, 0, 0, 0, 0
   \              000000000000
   \              00000000    
   \   00001F8C   000000000000       DC8 0, 0, 0, 0, 0, 0, 0, 0, 0, 0, 0, 0, 0, 0, 0, 0
   \              000000000000
   \              00000000    
   \   00001F9C   000000000000       DC8 0, 0, 0, 0, 0, 0, 0, 0, 0, 0, 0, 0, 0, 0, 0, 0
   \              000000000000
   \              00000000    
   \   00001FAC   000000000000       DC8 0, 0, 0, 0, 0, 0, 0, 0, 0, 0, 0, 0, 0, 0, 0, 0
   \              000000000000
   \              00000000    
   \   00001FBC   000000000000       DC8 0, 0, 0, 0, 0, 0, 0, 0, 0, 0, 0, 0, 0, 0, 0, 0
   \              000000000000
   \              00000000    
   \   00001FCC   000000000000       DC8 0, 0, 0, 0, 0, 0, 0, 0, 0, 0, 0, 0, 0, 0, 0, 0
   \              000000000000
   \              00000000    
   \   00001FDC   000000000000       DC8 0, 0, 0, 0, 0, 0, 0, 0, 0, 0, 0, 0, 0, 0, 0, 0
   \              000000000000
   \              00000000    
   \   00001FEC   000000000000       DC8 0, 0, 0, 0, 0, 0, 0, 0, 0, 0, 0, 0, 0, 0, 0, 0
   \              000000000000
   \              00000000    
   \   00001FFC   000000000000       DC8 0, 0, 0, 0, 0, 0, 0, 0, 0, 0, 0, 0, 0, 0, 0, 0
   \              000000000000
   \              00000000    

   \                                 In segment DATA_C, align 4, align-sorted
   \                     `?<Constant {128, 192, 256, 256}>`:
   \   00000000   80000000C000       DC32 128, 192, 256, 256
   \              000000010000
   \              00010000    

   \                                 In segment DATA_C, align 4, align-sorted
   \                     `?<Constant {0, 61, 120, 197}>`:
   \   00000000   000000003D00       DC32 0, 61, 120, 197
   \              000078000000
   \              C5000000    

   \                                 In segment DATA_C, align 4, align-sorted
   \                     `?<Constant {74, 115, 187, 230}>`:
   \   00000000   4A0000007300       DC32 74, 115, 187, 230
   \              0000BB000000
   \              E6000000    

   \                                 In segment DATA_C, align 4, align-sorted
   \                     `?<Constant {0, 240, 210, 180, 150, 120, 90, 60`:
   \   00000000   00000000F000       DC32 0, 240, 210, 180, 150, 120, 90, 60, 30, 0, 330, 300, 270, 0, 0, 0
   \              0000D2000000
   \              B40000009600
   \              000078000000
   \              5A0000003C00
   \              00001E000000
   \              000000004A01
   \              00002C010000
   \              0E0100000000
   \              000000000000
   \              00000000    

   Maximum stack usage in bytes:

     Function                   CSTACK
     --------                   ------
     SysTimer                       0
     Systemarraycopy                4
     SystemcurrentTimeMillis        0
     Systemgc                       0
     aint1int                       4
     avoid1int                     60
     avoid2int                     28
     avoid4int                      0
     avoid8int                     32
     b                             32
     b_in                          24
     b_out                         12
     bvoid2int                      0
     bytearrayinputstreamread      12
     bytearrayoutputstreamwrite    12
     c                              4
     c0                            96
     c_in                          20
     c_out                         16
     closestream                   12
     e                              4
     f                              4
     flush                         12
     freeall                        8
     g                             16
     h                             16
     i                             16
     initnul                       12
     j                            156
     k                              4
     keyPressed                    36
     keyReleased                    0
     l                             52
     loadROM                       20
     loadrom                        4
     openstream                    16
     run                          908
     serviceRepaints                0
     xd                             4
     xxf                           44
     xxxxb                         16


   Segment part sizes:

     Function/Label                 Bytes
     --------------                 -----
     serviceRepaints                    4
     main_a_int_array1d_fld             4
     Systemgc                           4
     SystemcurrentTimeMillis            8
     SysTimer                          12
     Systemarraycopy                   28
     flush                             48
     bytearrayoutputstreamwrite        64
     bytearrayinputstreamread          84
     openstream                       148
     closestream                       48
     PSG                               28
     a_short_array1d_static_fld       184
     f_int_array1d_static_fld        1104
     j_int_array1d_static_fld        3752
     ebuf                            8204
     fmessage                           4
     k                                 64
     f                                 48
     l                                352
     run                            11600
     xxf                             2352
     keyPressed                       512
     keyReleased                      216
     j                               1536
     xd                               188
     h                                 52
     loadrom                          124
     c0                              1672
     avoid1int                       1016
     g                                572
     loadROM                          604
     b                                752
     c_in                             464
     b_out                            448
     aint1int                         336
     i                                516
     e                                 48
     xxxxb                             68
     avoid4int                         56
     c                                 60
     avoid8int                        132
     bvoid2int                         68
     b_in                             952
     c_out                            708
     avoid2int                       2364
     nshow                              4
     initnul                          248
     freeall                           80
     ??DataTable0                       4
     ??DataTable4                       4
     ??DataTable7                       4
     ??DataTable18                      4
     ??DataTable21                      4
     ??DataTable24                      4
     ??DataTable33                      4
     ??DataTable42                      4
     ??DataTable46                      4
     ??DataTable48                      4
     ??DataTable49                      4
     ??DataTable50                      4
     ??DataTable51                      4
     ??DataTable59                      4
     ??DataTable60                      4
     ??DataTable64                      4
     ??DataTable66                      4
     ??DataTable68                      4
     ??DataTable69                      4
     ??DataTable70                      4
     ?<Initializer for j_int_array1d_static_fld>
                                     3752
     ?<Initializer for ebuf>         8204
     ?<Constant {128, 192, 256, 256}>
                                       16
     ?<Constant {0, 61, 120, 197}>     16
     ?<Constant {74, 115, 187, 230}>
                                       16
     ?<Constant {0, 240, 210, 180, 150, 120, 90, 60
                                       64
      Others                          248

 
 28 960 bytes in segment CODE
    296 bytes in segment DATA_C
 11 956 bytes in segment DATA_I
 11 956 bytes in segment DATA_ID
  1 144 bytes in segment DATA_Z
     24 bytes in segment INITTAB
 
 28 736 bytes of CODE  memory (+ 248 bytes shared)
 12 252 bytes of CONST memory
 13 100 bytes of DATA  memory

Errors: none
Warnings: 62
