###############################################################################
#                                                                             #
#     IAR Systems ARM Assembler V4.42A/W32 30/Jan/2011  14:21:09              #
#     Copyright 1999-2007 IAR Systems. All rights reserved.                   #
#                                                                             #
#           Source file   =  C:\arm\mss3\Patches\entery.asm                   #
#           List file     =  C:\arm\mss3\Patches\S7Csw47\List\entery.lst      #
#           Object file   =  C:\arm\mss3\Patches\S7Csw47\Obj\entery.r79       #
#           Command line  =  C:\arm\mss3\Patches\entery.asm                   #
#                            -OC:\arm\mss3\Patches\S7Csw47\Obj\ -s+ -M<> -w+  #
#                            -DNEWSGOLD -LC:\arm\mss3\Patches\S7Csw47\List\   #
#                            -cAO -B -t8 --cpu ARM926EJ-S --fpu None          #
#                            -IC:\arm2\Embedded Workbench 4.0 Evaluation\ARM\INC\ #
#                                                                             #
###############################################################################

    1    00000000              #include "..\MySMSYS_ipc.h"
    2    00000000              
    3    00000000                      EXTERN  send_ipc
    4    00000000                      EXTERN  inbox_view
    5    00000000                      RSEG    MY_SMS_SYS_PBODY
    6    00000000              
    7    00000000                      CODE32
    8    00000000              
    9    00000000              AB_UPDATE_CODE
   10    00000000 FE402DE9             STMFD   SP!,{R1-R7, LR}
   11    00000004 400FA0E3             MOV     R0, #SMSYS_IPC_UPDATE_CLIST
   12    00000008 ........             BL      send_ipc
   13    0000000C 0100A0E3             MOV     R0, #1
   14    00000010 FE80BDE8             LDMFD   SP!,{R1-R7, PC}
   15    00000014                      
   16    00000000                      EXTERN  OpmsgIDSend
   17    00000014              INBOX_VIEW_CODE
   18    00000014 04E08EE2             ADD     LR, LR, #4
   19    00000018 78219DE5             LDR     R2, [SP, #0x178]
   20    0000001C 7C319DE5             LDR     R3, [SP, #0x17C]
   21    00000020 0C0096E5             LDR     R0, [R6, #0xC]
   22    00000024 101096E5             LDR     R1, [R6, #0x10] //r1, opmsg_id
   23    00000028              INBOX_V
   24    00000028 040050E3             CMP     R0, #0x4
   25    0000002C 04005213             CMPNE   R2, #0x4
   26    00000030 1EFF2F11             BXNE    LR
   27    00000034 04E08EE2             ADD     LR, LR, #4
   28    00000038 FE402DE9             STMFD   SP!,{R1-R7, LR}
   29    0000003C 8400A0E3             MOV     R0, #SMSYS_IPC_VIEW_OPMSG
   30    00000040 ........             BL      OpmsgIDSend
   31    00000044 FE80BDE8             LDMFD   SP!,{R1-R7, PC}
   32    00000048              
   33    00000048              INBOX_OPVIEW_CODE
   34    00000048 04E08EE2             ADD     LR, LR, #4
   35    0000004C 6C219DE5             LDR     R2, [SP,#0x16C]
   36    00000050 70319DE5             LDR     R3, [SP,#0x170]
   37    00000054 101090E5             LDR     R1, [R0,#0x10]
   38    00000058 0C0090E5             LDR     R0, [R0,#0xC]
   39    0000005C F1FFFFEA             B       INBOX_V
   40    00000060              
   41    00000060              
   42    00000060              INBOX_OTH_CODE
   43    00000060 04E08EE2             ADD     LR, LR, #4
   44    00000064 040090E5             LDR     R0, [R0, #4]
   45    00000068 000090E5             LDR     R0, [R0, #0]
   46    0000006C 0220D4E7             LDRB    R2, [R4, R2]
   47    00000070 0010A0E1             MOV     R1, R0 //opmsg_id
   48    00000074 0C0052E3             CMP     R2, #0xC
   49    00000078 8500A003             MOVEQ   R0, #SMSYS_IPC_REPLY_OPMSG
   50    0000007C 0500000A             BEQ     OPMSG_SEND
   51    00000080 0E0052E3             CMP     R2, #0xE
   52    00000084 8600A003             MOVEQ   R0, #SMSYS_IPC_QR_OPMSG
   53    00000088 0200000A             BEQ     OPMSG_SEND
   54    0000008C 120052E3             CMP     R2, #0x12
   55    00000090 1EFF2F11             BXNE    LR
   56    00000094 8700A0E3             MOV     R0, #SMSYS_IPC_QN_OPMSG
   57    00000098              OPMSG_SEND
   58    00000098 7BEF8EE2             ADD     LR, LR, #0x1EC  //A05277F0-A0527
                                                   604
   59    0000009C FE402DE9             STMFD   SP!,{R1-R7, LR}
   60    000000A0 ........             BL      OpmsgIDSend
   61    000000A4 FE80BDE8             LDMFD   SP!,{R1-R7, PC}
   62    000000A8              
   63    00000000                      EXTERN  getFileCount //CMP     R7,
                                                             #0
   64    000000A8              COUNT_IN_CODE //R0, [SP,#0x80] ; NEW SMS
   65    000000A8 04E08EE2             ADD     LR, LR, #4
   66    000000AC 68108DE2             ADD     R1, SP, #0x68
   67    000000B0 54008DE2             ADD     R0, SP, #0x54
   68    000000B4 98709DE5             LDR     R7, [SP,#0x98]
   69    000000B8 0620A0E3             MOV     R2, #6
   70    000000BC 7F402DE9             STMFD   SP!,{R0-R6, LR}
   71    000000C0 A0109DE5             LDR     R1, [SP, #0xA0]
   72    000000C4 B18200EF             SWI     0x82B1 //SMS_DATA_ROOT
                                                *SmsDataRoot();
   73    000000C8 0020A0E1             MOV     R2, R0
   74    000000CC 000051E3             CMP     R1, #0
   75    000000D0 0100001A             BNE     COUNT_READ
   76    000000D4 BE01D0E1             LDRH    R0, [R0, #0x1E]
   77    000000D8 A0008DE5             STR     R0, [SP, #0xA0]
   78    000000DC              COUNT_READ
   79    000000DC 0500A0E3             MOV     R0, #5 //TYPE_IN_ALL   
                                                    5
   80    000000E0 0710A0E1             MOV     R1, R7
   81    000000E4 ........             BLX     getFileCount
   82    000000E8 007087E0             ADD     R7, R7, R0
   83    000000EC 7F80BDE8             LDMFD   SP!,{R0-R6, PC}
   84    000000F0              /*
   85    000000F0              ROM:A0345B48 02 1C                       ADD    
                                R2, R0, #0
   86    000000F0              ROM:A0345B4A 23 1C                       ADD    
                                R3, R4, #0
   87    000000F0              ROM:A0345B4C 28 1C                       ADD    
                                R0, R5, #0
   88    000000F0              ROM:A0345B4E 60 A1                       ADR    
                                R1, s_DD_1      ; "%d/%d"*/
   89    000000F0              MMENU_INBOX_CNT_CODE
   90    000000F0 04E08EE2             ADD     LR, LR, #4
   91    000000F4 00402DE9             STMFD   SP!, {LR}
   92    000000F8 0070A0E1             MOV     R7, R0 //CNT NEW OLD
   93    000000FC B18200EF             SWI     0x82B1
   94    00000100 0020A0E1             MOV     R2, R0
   95    00000104 000057E3             CMP     R7, #0
   96    00000108 0000001A             BNE     CNT_IN_ALL
   97    0000010C BE71D2E1             LDRH    R7, [R2, #0x1E]
   98    00000110              CNT_IN_ALL
   99    00000110 0500A0E3             MOV     R0, #5 //TYPE_IN_ALL   
                                                    5
  100    00000114 0410A0E1             MOV     R1, R4
  101    00000118 ........             BLX     getFileCount
  102    0000011C 003084E0             ADD     R3, R4, R0
  103    00000120 0720A0E1             MOV     R2, R7
  104    00000124 0500A0E1             MOV     R0, R5
  105    00000128 7F10A0E3             MOV     R1, #0x7F
  106    0000012C 401F81E3             ORR     R1, R1, #0x100
  107    00000130 0040BDE8             LDMFD   SP!, {LR}
  108    00000134 0E1081E0             ADD     R1, R1, LR
  109    00000138 1EFF2FE1             BX      LR
  110    0000013C              
  111    00000000                      EXTERN  getOtherCount
  112    0000013C              OTHER_COUNT_CODE
  113    0000013C 04E08EE2             ADD     LR, LR, #4
  114    00000140 0350A0E1             MOV     R5, R3
  115    00000144 0620A0E3             MOV     R2, #6
  116    00000148 18108DE2             ADD     R1, SP, #0x18
  117    0000014C 04008DE2             ADD     R0, SP, #4
  118    00000150 020056E3             CMP     R6, #2 //DRAFT
  119    00000154 0430A003             MOVEQ   R3, #4 //TYPE_DRAFT    
                                                    4
  120    00000158 0200000A             BEQ     GO
  121    0000015C 03005613             CMPNE   R6, #3 //SENT
  122    00000160 0130A003             MOVEQ   R3, #1 //TYPE_OUT      
                                                    1
  123    00000164 1EFF2F11             BXNE    LR
  124    00000168              GO
  125    00000168 DF402DE9             STMFD   SP!, {R0-R4,R6,R7, LR}
  126    0000016C B18200EF             SWI     0x82B1 //SMS_DATA_ROOT
                                                *SmsDataRoot();
  127    00000170 0020A0E1             MOV     R2, R0
  128    00000174 0300A0E1             MOV     R0, R3
  129    00000178 0510A0E1             MOV     R1, R5
  130    0000017C ........             BLX     getFileCount
  131    00000180 005085E0             ADD     R5, R5, R0
  132    00000184 DF80BDE8             LDMFD   SP!, {R0-R4,R6,R7, PC}
  133    00000188              
  134    00000188              /*
  135    00000188              ROM:A0345BB0 28 1C                       ADD    
                                R0, R5, #0
  136    00000188              ROM:A0345BB2 4E A1                       ADR    
                                R1, s_D_16      ; "%d"
  137    00000188              ROM:A0345BB4 DC F0 78 EC                 BLX    
                                sub_A04224A8    ; void wsprintf(WSHDR *,const
                                char *format,...)
  138    00000188              */
  139    00000188              MMENU_DRAFT_CNT_CODE
  140    00000188 04E08EE2             ADD     LR, LR, #4
  141    0000018C 00402DE9             STMFD   SP!,{LR}
  142    00000190 0270A0E1             MOV     R7, R2
  143    00000194 B18200EF             SWI     0x82B1
  144    00000198 0020A0E1             MOV     R2, R0
  145    0000019C 0400A0E3             MOV     R0, #4
  146    000001A0 0710A0E1             MOV     R1, R7
  147    000001A4 ........             BLX     getFileCount
  148    000001A8 002087E0             ADD     R2, R7, R0
  149    000001AC 0500A0E1             MOV     R0, R5
  150    000001B0 3310A0E3             MOV     R1, #0x33
  151    000001B4 401F81E3             ORR     R1, R1, #0x100
  152    000001B8 00E09DE5             LDR     LR, [SP, #0]
  153    000001BC 0E1081E0             ADD     R1, R1, LR
  154    000001C0 A00000EF             SWI     0xA0
  155    000001C4 0080BDE8             LDMFD   SP!,{PC}
  156    000001C8              
  157    000001C8              MMENU_SENT_CNT_CODE
  158    000001C8 06E08EE2             ADD     LR, LR, #6
  159    000001CC 00402DE9             STMFD   SP!,{LR}
  160    000001D0 0170A0E1             MOV     R7, R1
  161    000001D4 B18200EF             SWI     0x82B1
  162    000001D8 0020A0E1             MOV     R2, R0
  163    000001DC 0100A0E3             MOV     R0, #1
  164    000001E0 0410A0E1             MOV     R1, R4
  165    000001E4 ........             BLX     getFileCount
  166    000001E8 002084E0             ADD     R2, R4, R0
  167    000001EC 301047E2             SUB     R1, R7, #0x30
  168    000001F0 0500A0E1             MOV     R0, R5
  169    000001F4 A00000EF             SWI     0xA0
  170    000001F8 0080BDE8             LDMFD   SP!,{PC}
  171    000001FC                      
  172    000001FC              NEW_IN_WIN_CODE
  173    000001FC 04E08EE2             ADD     LR, LR, #4
  174    00000200 866FA0E1             LSL     R6, R6, #0x1F
  175    00000204 0050A0E1             MOV     R5, R0
  176    00000208 0070A0E3             MOV     R7, #0
  177    0000020C 0400A0E1             MOV     R0, R4
  178    00000210 103090E5             LDR     R3, [R0, #0x10]
  179    00000214 4338A0E1             ASR     R3, R3, #0x10
  180    00000218 033CA0E1             LSL     R3, R3, #0x18
  181    0000021C 233CA0E1             LSR     R3, R3, #0x18
  182    00000220 200053E3             CMP     R3, #0x20
  183    00000224 1EFF2F11             BXNE    LR
  184    00000228                      //A0302A80-A03029F4
  185    00000228 8CE08EE2             ADD     LR, LR, #0x8C
  186    0000022C 00402DE9             STMFD   SP!,{LR}
  187    00000230 8100A0E3             MOV     R0, #SMSYS_IPC_NEW_IN_WIN
  188    00000234 ........             BL      send_ipc
  189    00000238 0000A0E3             MOV     R0, #0
  190    0000023C 0080BDE8             LDMFD   SP!,{PC}
  191    00000240                      
  192    00000000                      EXTERN  CreateSmsWithNum
  193    00000240              ADRBK_NUM_SMS_CODE
  194    00000240 48108DE2             ADD     R1, SP, #0x48
  195    00000244 000050E3             CMP     R0, #0 //MMS
  196    00000248 1EFF2F01             BXEQ    LR
  197    0000024C 10E08EE2             ADD     LR, LR, #0x10
  198    00000250 FE402DE9             STMFD   SP!,{R1-R7, LR}
  199    00000254 000091E5             LDR     R0, [R1, #0]
  200    00000258 ........             BL      CreateSmsWithNum
  201    0000025C FE80BDE8             LDMFD   SP!,{R1-R7, PC}
  202    00000260                      
  203    00000260                      
  204    00000000                      EXTERN  OrgSendText
  205    00000260              ORG_SEND_CODE
  206    00000260 06E08EE2             ADD     LR, LR, #6
  207    00000264 0500A0E1             MOV     R0, R5
  208    00000268 ........             B       OrgSendText
  209    0000026C              
  210    0000026C              
  211    0000026C              
  212    00000000                      EXTERN  CreateSmsWithNum_2
  213    0000026C              REC_SENDSMS_CODE
  214    0000026C 04E08EE2             ADD     LR, LR, #4
  215    00000270 14708DE5             STR     R7, [SP, #0x14]
  216    00000274 0D30A0E1             MOV     R3, SP
  217    00000278 1870C3E5             STRB    R7, [R3, #0x18]
  218    0000027C 080096E5             LDR     R0, [R6, #8]
  219    00000280 170050E3             CMP     R0, #0x17
  220    00000284 1EFF2F11             BXNE    LR
  221    00000288 16E08EE2             ADD     LR, LR, #0x16
  222    0000028C FE402DE9             STMFD   SP!, {R1-R7, LR}
  223    00000290 0500A0E1             MOV     R0, R5
  224    00000294 ........             BL      CreateSmsWithNum_2
  225    00000298 FE80BDE8             LDMFD   SP!, {R1-R7, PC}
  226    0000029C              
  227    0000029C              DIAL_SMS_CODE
  228    0000029C 04E08EE2             ADD     LR, LR, #4
  229    000002A0 FE402DE9             STMFD   SP!,{R1-R7, LR}
  230    000002A4 000094E5             LDR     R0, [R4, #0]
  231    000002A8 ........             BL      CreateSmsWithNum_2
  232    000002AC FE80BDE8             LDMFD   SP!,{R1-R7, PC}
  233    000002B0                      
  234    000002B0              INBOX_REC_CODE
  235    000002B0 A2E08EE2             ADD     LR, LR, #0xA2
  236    000002B4 0800D0E5             LDRB    R0, [R0,#8]
  237    000002B8 160050E3             CMP     R0, #0x16
  238    000002BC 1EFF2F11             BXNE    LR
  239    000002C0 54009DE5             LDR     R0, [SP, #0x54]
  240    000002C4 08E08EE2             ADD     LR, LR, #0x8
  241    000002C8 FE402DE9             STMFD   SP!, {R1-R7, LR}
  242    000002CC ........             BL      CreateSmsWithNum_2
  243    000002D0 FE80BDE8             LDMFD   SP!, {R1-R7, PC}
  244    000002D4                      
  245    000002D4              SHORTCUT_SAVED_CODE
  246    000002D4 04E08EE2             ADD     LR, LR, #4
  247    000002D8              NMENU_ARCHIVE_CODE
  248    000002D8 4000A0E3             MOV     R0, #SMSYS_IPC_ARCHIVE
  249    000002DC ........             B       send_ipc
  250    000002E0                      
  251    000002E0              
  252    000002E0              SMS_SENT_CODE
  253    000002E0 04E08EE2             ADD     LR, LR, #4
  254    000002E4              NMENU_SENT_CODE
  255    000002E4 0500A0E3             MOV     R0, #SMSYS_IPC_OUT
  256    000002E8 ........             B       send_ipc
  257    000002EC              
  258    000002EC              //      MOV     R0, #SMSYS_IPC_OUT
  259    000002EC              //      B       send_ipc
  260    000002EC              SMS_INBOX_CODE
  261    000002EC 04E08EE2             ADD     LR, LR, #4
  262    000002F0              NMENU_INBOX_CODE
  263    000002F0 0900A0E3             MOV     R0, #SMSYS_IPC_IN_ALL
  264    000002F4 ........             B       send_ipc
  265    000002F8                      
  266    000002F8              //      MOV     R0, #SMSYS_IPC_IN_ALL
  267    000002F8              //      B       send_ipc
  268    000002F8                      
  269    000002F8              SHORTCUT_DRAFT_CODE
  270    000002F8 04E08EE2             ADD     LR, LR, #4
  271    000002FC              NMENU_DRAFT_CODE
  272    000002FC 0600A0E3             MOV     R0, #SMSYS_IPC_DRAFT
  273    00000300 ........             B       send_ipc
  274    00000304              //      MOV     R0, #SMSYS_IPC_DRAFT
  275    00000304              //      B       send_ipc
  276    00000304                      
  277    00000304                      
  278    00000304              SHORTCUT_NEWMSG_CODE
  279    00000304 04E08EE2             ADD     LR, LR, #4
  280    00000308              NMENU_NEWSMG_CODE
  281    00000308 0200A0E3             MOV     R0, #SMSYS_IPC_NEWSMS
  282    0000030C ........             B       send_ipc
  283    00000310                      
  284    00000310              //      MOV     R0, #SMSYS_IPC_NEWSMS
  285    00000310              //      B       send_ipc
  286    00000310                      
  287    00000000                      RSEG    SMS_SENT_HOOK
  288    00000000                      CODE16
  289    00000000 0048                 LDR     R0, =SMS_SENT_CODE
  290    00000002 8047                 BLX     R0
  291    00000004                      
  292    00000004                      RSEG    SMS_INBOX_HOOK
  292.1  00000004                       TABLE
  292.2  00000004 ........             Reference on line 289 
  292.3  00000000                      RSEG (including table)
  292    00000000                      RSEG    SMS_INBOX_HOOK
  293    00000000                      CODE16
  294    00000000 0048                 LDR     R0, =SMS_INBOX_CODE
  295    00000002 8047                 BLX     R0
  296    00000004                      
  297    00000004                      RSEG    AB_UPDATE_HOOK
  297.1  00000004                       TABLE
  297.2  00000004 ........             Reference on line 294 
  297.3  00000000                      RSEG (including table)
  297    00000000                      RSEG    AB_UPDATE_HOOK
  298    00000000                      CODE32
  299    00000000 ........             BL      AB_UPDATE_CODE
  300    00000004                      
  301    00000000                      RSEG    INBOX_VIEW_HOOK
  302    00000000                      CODE16
  303    00000000 0048                 LDR     R0, =INBOX_VIEW_CODE
  304    00000002 8047                 BLX     R0
  305    00000004                      
  306    00000004                      RSEG    COUNT_IN_HOOK
  306.1  00000004                       TABLE
  306.2  00000004 ........             Reference on line 303 
  306.3  00000000                      RSEG (including table)
  306    00000000                      RSEG    COUNT_IN_HOOK
  307    00000000                      CODE16
  308    00000000 004F                 LDR     R7, =COUNT_IN_CODE
  309    00000002 B847                 BLX     R7
  310    00000004                      
  311    00000004                      RSEG    OTHER_COUNT_HOOK
  311.1  00000004                       TABLE
  311.2  00000004 ........             Reference on line 308 
  311.3  00000000                      RSEG (including table)
  311    00000000                      RSEG    OTHER_COUNT_HOOK
  312    00000000                      CODE16
  313    00000000 004A                 LDR     R2, =OTHER_COUNT_CODE
  314    00000002 9047                 BLX     R2
  315    00000004              
  316    00000004              
  317    00000004                      RSEG    NEW_IN_WIN_HOOK
  317.1  00000004                       TABLE
  317.2  00000004 ........             Reference on line 313 
  317.3  00000000                      RSEG (including table)
  317    00000000                      RSEG    NEW_IN_WIN_HOOK
  318    00000000                      CODE16
  319    00000000 004D                 LDR     R5, =NEW_IN_WIN_CODE
  320    00000002 A847                 BLX     R5
  321    00000004                      
  322    00000004                      RSEG    NMENU_INBOX_HOOK
  322.1  00000004                       TABLE
  322.2  00000004 ........             Reference on line 319 
  322.3  00000000                      RSEG (including table)
  322    00000000                      RSEG    NMENU_INBOX_HOOK
  323    00000000                      CODE16
  324    00000000 0048                 LDR     R0, =NMENU_INBOX_CODE
  325    00000002 0047                 BX      R0
  326    00000004                      
  327    00000004                      RSEG    NMENU_DRAFT_HOOK
  327.1  00000004                       TABLE
  327.2  00000004 ........             Reference on line 324 
  327.3  00000000                      RSEG (including table)
  327    00000000                      RSEG    NMENU_DRAFT_HOOK
  328    00000000                      CODE16
  329    00000000 0048                 LDR     R0, =NMENU_DRAFT_CODE
  330    00000002 0047                 BX      R0
  331    00000004                      
  332    00000004                      RSEG    NMENU_SENT_HOOK
  332.1  00000004                       TABLE
  332.2  00000004 ........             Reference on line 329 
  332.3  00000000                      RSEG (including table)
  332    00000000                      RSEG    NMENU_SENT_HOOK
  333    00000000                      CODE16
  334    00000000 0048                 LDR     R0, =NMENU_SENT_CODE
  335    00000002 0047                 BX      R0
  336    00000004                      
  337    00000004                      RSEG    SHORTCUT_NEWMSG_HOOK
  337.1  00000004                       TABLE
  337.2  00000004 ........             Reference on line 334 
  337.3  00000000                      RSEG (including table)
  337    00000000                      RSEG    SHORTCUT_NEWMSG_HOOK
  338    00000000                      CODE16
  339    00000000 0048                 LDR     R0, =SHORTCUT_NEWMSG_CODE
  340    00000002 8047                 BLX     R0
  341    00000004                      
  342    00000004                      RSEG    NMENU_NEWSMG_HOOK
  342.1  00000004                       TABLE
  342.2  00000004 ........             Reference on line 339 
  342.3  00000000                      RSEG (including table)
  342    00000000                      RSEG    NMENU_NEWSMG_HOOK
  343    00000000                      CODE16
  344    00000000 0048                 LDR     R0, =NMENU_NEWSMG_CODE
  345    00000002 0047                 BX      R0
  346    00000004                      
  347    00000004                      RSEG    ADRBK_NUM_SMS_HOOK
  347.1  00000004                       TABLE
  347.2  00000004 ........             Reference on line 344 
  347.3  00000000                      RSEG (including table)
  347    00000000                      RSEG    ADRBK_NUM_SMS_HOOK
  348    00000000                      CODE32
  349    00000000 ........             BL      ADRBK_NUM_SMS_CODE
  350    00000004                      
  351    00000000                      RSEG    SHORTCUT_DRAFT_HOOK
  352    00000000                      CODE16
  353    00000000 0048                 LDR     R0, =SHORTCUT_DRAFT_CODE
  354    00000002 8047                 BLX     R0
  355    00000004                      
  356    00000004                      RSEG    ORG_SEND_HOOK
  356.1  00000004                       TABLE
  356.2  00000004 ........             Reference on line 353 
  356.3  00000000                      RSEG (including table)
  356    00000000                      RSEG    ORG_SEND_HOOK
  357    00000000                      CODE16
  358    00000000 0048                 LDR     R0, =ORG_SEND_CODE
  359    00000002 8047                 BLX     R0
  360    00000004                      
  361    00000004                      RSEG    REC_SENDSMS_HOOK
  361.1  00000004                       TABLE
  361.2  00000004 ........             Reference on line 358 
  361.3  00000000                      RSEG (including table)
  361    00000000                      RSEG    REC_SENDSMS_HOOK
  362    00000000                      CODE16
  363    00000000 004B                 LDR     R3, =REC_SENDSMS_CODE
  364    00000002 9847                 BLX     R3
  365    00000004                      
  366    00000004                      RSEG    INBOX_OPVIEW_HOOK
  366.1  00000004                       TABLE
  366.2  00000004 ........             Reference on line 363 
  366.3  00000000                      RSEG (including table)
  366    00000000                      RSEG    INBOX_OPVIEW_HOOK
  367    00000000                      CODE16
  368    00000000 004A                 LDR     R2, =INBOX_OPVIEW_CODE
  369    00000002 9047                 BLX     R2
  370    00000004                      
  371    00000004                      RSEG    INBOX_OTH_HOOK
  371.1  00000004                       TABLE
  371.2  00000004 ........             Reference on line 368 
  371.3  00000000                      RSEG (including table)
  371    00000000                      RSEG    INBOX_OTH_HOOK
  372    00000000                      CODE16
  373    00000000 004B                 LDR     R3, =INBOX_OTH_CODE
  374    00000002 9847                 BLX     R3
  375    00000004                      
  376    00000004                      RSEG    DIAL_SMS_HOOK
  376.1  00000004                       TABLE
  376.2  00000004 ........             Reference on line 373 
  376.3  00000000                      RSEG (including table)
  376    00000000                      RSEG    DIAL_SMS_HOOK
  377    00000000                      CODE16
  378    00000000 0048                 LDR     R0, =DIAL_SMS_CODE
  379    00000002 8047                 BLX     R0
  380    00000004                      
  381    00000004                      RSEG    INBOX_REC_HOOK
  381.1  00000004                       TABLE
  381.2  00000004 ........             Reference on line 378 
  381.3  00000000                      RSEG (including table)
  381    00000000                      RSEG    INBOX_REC_HOOK
  382    00000000                      CODE16
  383    00000000 0049                 LDR     R1, =INBOX_REC_CODE
  384    00000002 8847                 BLX     R1
  385    00000004                      
  386    00000004                      RSEG    SHORTCUT_SAVED_HOOK
  386.1  00000004                       TABLE
  386.2  00000004 ........             Reference on line 383 
  386.3  00000000                      RSEG (including table)
  386    00000000                      RSEG    SHORTCUT_SAVED_HOOK
  387    00000000                      CODE16
  388    00000000 0048                 LDR     R0, =SHORTCUT_SAVED_CODE
  389    00000002 8047                 BLX     R0
  390    00000004                      
  391    00000004                      RSEG    NMENU_ARCHIVE_HOOK
  391.1  00000004                       TABLE
  391.2  00000004 ........             Reference on line 388 
  391.3  00000000                      RSEG (including table)
  391    00000000                      RSEG    NMENU_ARCHIVE_HOOK
  392    00000000                      CODE16
  393    00000000 0048                 LDR     R0, =NMENU_ARCHIVE_CODE
  394    00000002 0047                 BX      R0
  395    00000004                      
  396    00000004                      RSEG    MMENU_INBOX_CNT_HOOK
  396.1  00000004                       TABLE
  396.2  00000004 ........             Reference on line 393 
  396.3  00000000                      RSEG (including table)
  396    00000000                      RSEG    MMENU_INBOX_CNT_HOOK
  397    00000000                      CODE16
  398    00000000 004A                 LDR     R2, =MMENU_INBOX_CNT_CODE
  399    00000002 9047                 BLX     R2
  400    00000004                      
  401    00000004                      RSEG    MMENU_DRAFT_CNT_HOOK
  401.1  00000004                       TABLE
  401.2  00000004 ........             Reference on line 398 
  401.3  00000000                      RSEG (including table)
  401    00000000                      RSEG    MMENU_DRAFT_CNT_HOOK
  402    00000000                      CODE16
  403    00000000 0048                 LDR     R0, =MMENU_DRAFT_CNT_CODE
  404    00000002 8047                 BLX     R0
  405    00000004                      
  406    00000004                      RSEG    MMENU_SENT_CNT_HOOK
  406.1  00000004                       TABLE
  406.2  00000004 ........             Reference on line 403 
  406.3  00000000                      RSEG (including table)
  406    00000000                      RSEG    MMENU_SENT_CNT_HOOK
  407    00000000                      CODE16
  408    00000000 0048                 LDR     R0, pMMENU_SENT_CNT_CODE
  409    00000002 8047                 BLX     R0
  410    00000004                      DATA
  411    00000004              pMMENU_SENT_CNT_CODE
  412    00000004 ........             DCD     MMENU_SENT_CNT_CODE
  413    00000008                      CODE16
  414    00000008 C046                 NOP
  415    0000000A                      END
##############################
#          CRC:7ABD          #
#        Errors:   0         #
#        Warnings: 0         #
#         Bytes: 978         #
##############################



