################################################################################
#                                                                              #
#      IAR Universal Linker V4.60I/386                                         #
#                                                                              #
#           Link time     =  28/Aug/2008  19:54:19                             #
#           Target CPU    =  ARM                                               #
#           List file     =  D:\Pasha\elf\bashorg\Release_NEWSGOLD\List\bashor #
#                            g_nsg.map                                         #
#           Output file 1 =  D:\Pasha\elf\bashorg\Exe\bashorg_nsg.elf          #
#                            Format: elf, variant: -ynpra                      #
#           Command line  =  D:\Pasha\elf\bashorg\Release_NEWSGOLD\Obj\conf_lo #
#                            ader.r79                                          #
#                            D:\Pasha\elf\bashorg\Release_NEWSGOLD\Obj\config_ #
#                            data.r79                                          #
#                            D:\Pasha\elf\bashorg\Release_NEWSGOLD\Obj\func.r7 #
#                            9                                                 #
#                            D:\Pasha\elf\bashorg\Release_NEWSGOLD\Obj\main.r7 #
#                            9                                                 #
#                            -o D:\Pasha\elf\bashorg\Exe\bashorg_nsg.elf       #
#                            -Felf -l                                          #
#                            D:\Pasha\elf\bashorg\Release_NEWSGOLD\List\bashor #
#                            g_nsg.map                                         #
#                            -xms -f D:\Pasha\elf\test.xcl (-carm              #
#                            -V(CODE)CODE_AREA,12 -V(DATA)DATA_AREA,12         #
#                            -Z(CODE_AREA)ELFBEGIN,DATA_ID,START,CODE,DATA_C,I #
#                            NITTAB,DATA_Z,DATA_N,CONFIG_C=0-FFFFFFFF          #
#                            -Z(DATA_AREA)DATA_I=0-FFFFFFFF) -ynpra            #
#                            "D:\Pasha\Embedded Workbench 4.0 Evaluation2\ARM\ #
#                            LIB\dl5tpainl8n.r79"                              #
#                            -s main                                           #
#                                                                              #
#                        Copyright 1987-2007 IAR Systems. All rights reserved. #
################################################################################





                ****************************************
                *                                      *
                *           CROSS REFERENCE            *
                *                                      *
                ****************************************

       Program entry at : CODE_AREA 00001A7C  Relocatable, from module : main




                ****************************************
                *                                      *
                *            RUNTIME MODEL             *
                *                                      *
                ****************************************

  StackAlign4  = USED
  __cpu_mode   = __pcs__interwork
  __data_model = absolute
  __endian     = little
  __rt_version = 6



                ****************************************
                *                                      *
                *              MODULE MAP              *
                *                                      *
                ****************************************


  DEFINED ABSOLUTE ENTRIES
    *************************************************************************

  DEFINED ABSOLUTE ENTRIES
    *************************************************************************

  FILE NAME : D:\Pasha\elf\bashorg\Release_NEWSGOLD\Obj\conf_loader.r79
  PROGRAM MODULE, NAME : conf_loader

  SEGMENTS IN THE MODULE
  ======================
CODE
  Relative segment, address: CODE_AREA 00000020 - 0000010B (0xec bytes), align: 2
  Segment part 4.             Intra module refs:   InitConfig
           ENTRY                   ADDRESS         REF BY
           =====                   =======         ======
           LoadConfigData          00000020 
               stack 1 = 00000000 ( 00000024 )
    -------------------------------------------------------------------------
CODE
  Relative segment, address: CODE_AREA 0000010C - 00000133 (0x28 bytes), align: 2
  Segment part 6.
           ENTRY                   ADDRESS         REF BY
           =====                   =======         ======
           InitConfig              0000010C        main (main)
                                                   maincsm_onmessage (main)
               stack 1 = 00000000 ( 00000008 )
    -------------------------------------------------------------------------
DATA_C
  Relative segment, address: CODE_AREA 00001BC8 - 00001BFF (0x38 bytes), align: 2
  Segment part 2.             Intra module refs:   InitConfig

    *************************************************************************

  FILE NAME : D:\Pasha\elf\bashorg\Release_NEWSGOLD\Obj\config_data.r79
  PROGRAM MODULE, NAME : config_data

  SEGMENTS IN THE MODULE
  ======================
CONFIG_C
  Relative segment, address: CODE_AREA 00060E90 - 00060EBB (0x2c bytes), align: 2
  Segment part 2. ROOT.
           ENTRY                   ADDRESS         REF BY
           =====                   =======         ======
           cfghdr0                 00060E90        LoadConfigData (conf_loader)
    -------------------------------------------------------------------------
CONFIG_C
  Relative segment, address: CODE_AREA 00060EBC - 00060EBF (0x4 bytes), align: 2
  Segment part 3. ROOT.
           ENTRY                   ADDRESS         REF BY
           =====                   =======         ======
           limit                   00060EBC        Segment part 48 (main)
                                                   Segment part 78 (main)
    -------------------------------------------------------------------------
CONFIG_C
  Relative segment, address: CODE_AREA 00060EC0 - 00060EEB (0x2c bytes), align: 2
  Segment part 4. ROOT.
           ENTRY                   ADDRESS         REF BY
           =====                   =======         ======
           cfghdr1                 00060EC0 
    -------------------------------------------------------------------------
CONFIG_C
  Relative segment, address: CODE_AREA 00060EEC - 00060F2B (0x40 bytes), align: 2
  Segment part 5. ROOT.
           ENTRY                   ADDRESS         REF BY
           =====                   =======         ======
           hist_path               00060EEC        Segment part 111 (main)
                                                   Segment part 69 (main)
    -------------------------------------------------------------------------
CONFIG_C
  Relative segment, address: CODE_AREA 00060F2C - 00060F57 (0x2c bytes), align: 2
  Segment part 6. ROOT.
           ENTRY                   ADDRESS         REF BY
           =====                   =======         ======
           cfghdr2                 00060F2C 
    -------------------------------------------------------------------------
CONFIG_C
  Relative segment, address: CODE_AREA 00060F58 - 00060F97 (0x40 bytes), align: 2
  Segment part 7. ROOT.
           ENTRY                   ADDRESS         REF BY
           =====                   =======         ======
           ic_path                 00060F58        DrawMoodIcon (main)
    -------------------------------------------------------------------------
CONFIG_C
  Relative segment, address: CODE_AREA 00060F98 - 00060FC3 (0x2c bytes), align: 2
  Segment part 8. ROOT.
           ENTRY                   ADDRESS         REF BY
           =====                   =======         ======
           cfghdr3                 00060F98 
    -------------------------------------------------------------------------
CONFIG_C
  Relative segment, address: CODE_AREA 00060FC4 - 00060FC7 (0x4 bytes), align: 2
  Segment part 9. ROOT.
           ENTRY                   ADDRESS         REF BY
           =====                   =======         ======
           ic                      00060FC4        OnRedraw (main)
    -------------------------------------------------------------------------
CONFIG_C
  Relative segment, address: CODE_AREA 00060FC8 - 00060FF3 (0x2c bytes), align: 2
  Segment part 10. ROOT.
           ENTRY                   ADDRESS         REF BY
           =====                   =======         ======
           cfghdr4                 00060FC8 
    -------------------------------------------------------------------------
CONFIG_C
  Relative segment, address: CODE_AREA 00060FF4 - 00060FF7 (0x4 bytes), align: 2
  Segment part 11. ROOT.
           ENTRY                   ADDRESS         REF BY
           =====                   =======         ======
           ipp                     00060FF4        create_connect (main)

    *************************************************************************

  FILE NAME : D:\Pasha\elf\bashorg\Release_NEWSGOLD\Obj\func.r79
  PROGRAM MODULE, NAME : func

  SEGMENTS IN THE MODULE
  ======================
ELFBEGIN
  Relative segment, address: CODE_AREA 00000000, align: 0
  Segment part 0. ROOT.
           ENTRY                   ADDRESS         REF BY
           =====                   =======         ======
           ELF_BEGIN               00000000        ElfKiller (main)
    -------------------------------------------------------------------------
CODE
  Relative segment, address: CODE_AREA 00000134 - 0000013B (0x8 bytes), align: 2
  Segment part 1. ROOT.
           ENTRY                   ADDRESS         REF BY
           =====                   =======         ======
           kill_data               00000134        ElfKiller (main)
                                                   gui_methods (main)
           seqkill                 00000138 

    *************************************************************************

  FILE NAME : D:\Pasha\elf\bashorg\Release_NEWSGOLD\Obj\main.r79
  PROGRAM MODULE, NAME : main

  SEGMENTS IN THE MODULE
  ======================
CODE
  Relative segment, address: CODE_AREA 0000013C - 0000016B (0x30 bytes), align: 2
  Segment part 32.            Intra module refs:   CreateEC
           ENTRY                   ADDRESS         REF BY
           =====                   =======         ======
           patch_header            0000013C 
               stack 1 = 00000000 ( 00000008 )
    -------------------------------------------------------------------------
CODE
  Relative segment, address: CODE_AREA 0000016C - 000001AF (0x44 bytes), align: 2
  Segment part 33.            Intra module refs:   CreateEC
           ENTRY                   ADDRESS         REF BY
           =====                   =======         ======
           patch_input             0000016C 
               stack 1 = 00000000 ( 0000000C )
    -------------------------------------------------------------------------
DATA_Z
  Relative segment, address: CODE_AREA 00001F60 - 00002077 (0x118 bytes), align: 2
  Segment part 15.            Intra module refs:   Segment part 13
           ENTRY                   ADDRESS         REF BY
           =====                   =======         ======
           maincsm_name_body       00001F60 
    -------------------------------------------------------------------------
CODE
  Relative segment, address: CODE_AREA 000001B0 - 000001D7 (0x28 bytes), align: 2
  Segment part 35.            Intra module refs:   ascii2ws
           ENTRY                   ADDRESS         REF BY
           =====                   =======         ======
           char8to16               000001B0 
    -------------------------------------------------------------------------
CODE
  Relative segment, address: CODE_AREA 000001D8 - 00000217 (0x40 bytes), align: 2
  Segment part 37.            Intra module refs:   CreateEC
                                                   Info
                                                   OnRedraw
           ENTRY                   ADDRESS         REF BY
           =====                   =======         ======
           ascii2ws                000001D8 
               stack 1 = 00000000 ( 0000000C )
    -------------------------------------------------------------------------
CODE
  Relative segment, address: CODE_AREA 00000218 - 000002A7 (0x90 bytes), align: 2
  Segment part 39.            Intra module refs:   do_start_connection
           ENTRY                   ADDRESS         REF BY
           =====                   =======         ======
           create_connect          00000218 
               stack 1 = 00000000 ( 00000020 )
    -------------------------------------------------------------------------
CODE
  Relative segment, address: CODE_AREA 000002A8 - 000002CB (0x24 bytes), align: 2
  Segment part 41.            Intra module refs:   OnKey
                                                   maincsm_oncreate
           ENTRY                   ADDRESS         REF BY
           =====                   =======         ======
           do_start_connection     000002A8 
               stack 1 = 00000000 ( 00000004 )
    -------------------------------------------------------------------------
CODE
  Relative segment, address: CODE_AREA 000002CC - 00000317 (0x4c bytes), align: 2
  Segment part 43.            Intra module refs:   maincsm_onmessage
           ENTRY                   ADDRESS         REF BY
           =====                   =======         ======
           send_req                000002CC 
               stack 1 = 00000000 ( 0000000C )
    -------------------------------------------------------------------------
CODE
  Relative segment, address: CODE_AREA 00000318 - 0000033F (0x28 bytes), align: 2
  Segment part 45.            Intra module refs:   get_answer
                                                   maincsm_onmessage
           ENTRY                   ADDRESS         REF BY
           =====                   =======         ======
           end_socket              00000318 
               stack 1 = 00000000 ( 00000008 )
    -------------------------------------------------------------------------
CODE
  Relative segment, address: CODE_AREA 00000340 - 0000038F (0x50 bytes), align: 2
  Segment part 47.            Intra module refs:   maincsm_onmessage
           ENTRY                   ADDRESS         REF BY
           =====                   =======         ======
           get_answer              00000340 
               stack 1 = 00000000 ( 00000008 )
    -------------------------------------------------------------------------
CODE
  Relative segment, address: CODE_AREA 00000390 - 00000393 (0x4 bytes), align: 2
  Segment part 48.            Intra module refs:   get_answer
    -------------------------------------------------------------------------
CODE
  Relative segment, address: CODE_AREA 00000394 - 00000397 (0x4 bytes), align: 2
  Segment part 49.            Intra module refs:   create_connect
                                                   end_socket
                                                   get_answer
                                                   send_req
    -------------------------------------------------------------------------
CODE
  Relative segment, address: CODE_AREA 00000398 - 000003CF (0x38 bytes), align: 2
  Segment part 51.            Intra module refs:   GetMood
                                                   Parsing
                                                   Save
           ENTRY                   ADDRESS         REF BY
           =====                   =======         ======
           atoi                    00000398 
    -------------------------------------------------------------------------
CODE
  Relative segment, address: CODE_AREA 000003D0 - 0000070B (0x33c bytes), align: 2
  Segment part 53.            Intra module refs:   maincsm_onmessage
           ENTRY                   ADDRESS         REF BY
           =====                   =======         ======
           Parsing                 000003D0 
               stack 1 = 00000000 ( 00000028 )
    -------------------------------------------------------------------------
DATA_Z
  Relative segment, address: CODE_AREA 00002078 - 000122CB (0x10254 bytes), align: 2
  Segment part 21.            Intra module refs:   SaveAll
                                                   Segment part 106
                                                   Segment part 49
                                                   Segment part 74
                                                   Segment part 92
                                                   do_start_connection
           ENTRY                   ADDRESS         REF BY
           =====                   =======         ======
           _id                     000021C8 
           buf                     000021CC 
           connect_state           0000207C 
           item                    0000208C 
           length                  000021B8 
           loaded                  00002088 
           mode                    000021C4 
           pbuf                    00002080 
           receive                 00002084 
           req_buf                 000121CC 
           sock                    00002078 
           x                       000021BC 
           y                       000021C0 
    -------------------------------------------------------------------------
DATA_Z
  Relative segment, address: CODE_AREA 000122CC - 00060E8F (0x4ebc4 bytes), align: 2
  Segment part 22.            Intra module refs:   Segment part 75
                                                   Segment part 79
           ENTRY                   ADDRESS         REF BY
           =====                   =======         ======
           items                   000122CC 
    -------------------------------------------------------------------------
CODE
  Relative segment, address: CODE_AREA 0000070C - 00000727 (0x1c bytes), align: 2
  Segment part 55.            Intra module refs:   Segment part 24
           ENTRY                   ADDRESS         REF BY
           =====                   =======         ======
           _onkey                  0000070C 
    -------------------------------------------------------------------------
CODE
  Relative segment, address: CODE_AREA 00000728 - 0000074B (0x24 bytes), align: 2
  Segment part 57.            Intra module refs:   Segment part 24
           ENTRY                   ADDRESS         REF BY
           =====                   =======         ======
           _ghook                  00000728 
               stack 1 = 00000000 ( 00000004 )
    -------------------------------------------------------------------------
CODE
  Relative segment, address: CODE_AREA 0000074C - 0000074F (0x4 bytes), align: 2
  Segment part 59.            Intra module refs:   Segment part 24
           ENTRY                   ADDRESS         REF BY
           =====                   =======         ======
           _locret                 0000074C 
    -------------------------------------------------------------------------
DATA_I
  Relative segment, address: DATA_AREA 00000000 - 00000017 (0x18 bytes), align: 2
  Segment part 25.            Intra module refs:   Segment part 28
           ENTRY                   ADDRESS         REF BY
           =====                   =======         ======
           _sk                     00000000 
    -------------------------------------------------------------------------
DATA_I
  Relative segment, address: DATA_AREA 00000018 - 0000001F (0x8 bytes), align: 2
  Segment part 27.            Intra module refs:   Segment part 24
           ENTRY                   ADDRESS         REF BY
           =====                   =======         ======
           _skt                    00000018 
    -------------------------------------------------------------------------
CODE
  Relative segment, address: CODE_AREA 00000750 - 0000085B (0x10c bytes), align: 2
  Segment part 61.            Intra module refs:   OnKey
           ENTRY                   ADDRESS         REF BY
           =====                   =======         ======
           CreateEC                00000750 
               stack 1 = 00000000 ( 00000050 )
    -------------------------------------------------------------------------
DATA_C
  Relative segment, address: CODE_AREA 00001C00 - 00001C2F (0x30 bytes), align: 2
  Segment part 2.             Intra module refs:   OnRedraw
    -------------------------------------------------------------------------
DATA_C
  Relative segment, address: CODE_AREA 00001C30 - 00001C6B (0x3c bytes), align: 2
  Segment part 5.             Intra module refs:   Segment part 68
           ENTRY                   ADDRESS         REF BY
           =====                   =======         ======
           _oktotorp               00001C30 
    -------------------------------------------------------------------------
DATA_C
  Relative segment, address: CODE_AREA 00001C6C - 00001C77 (0xc bytes), align: 2
  Segment part 6.             Intra module refs:   DrawMoodIcon
    -------------------------------------------------------------------------
DATA_C
  Relative segment, address: CODE_AREA 00001C78 - 00001CBB (0x44 bytes), align: 2
  Segment part 7.             Intra module refs:   Parsing
    -------------------------------------------------------------------------
DATA_C
  Relative segment, address: CODE_AREA 00001CBC - 00001CEB (0x30 bytes), align: 2
  Segment part 9.             Intra module refs:   send_req
    -------------------------------------------------------------------------
DATA_C
  Relative segment, address: CODE_AREA 00001CEC - 00001CF3 (0x8 bytes), align: 2
  Segment part 10.            Intra module refs:   Segment part 26
    -------------------------------------------------------------------------
DATA_C
  Relative segment, address: CODE_AREA 00001F44 - 00001F46 (0x3 bytes), align: 0
  Segment part 11.            Intra module refs:   Segment part 26
    -------------------------------------------------------------------------
DATA_C
  Relative segment, address: CODE_AREA 00001CF4 - 00001CFF (0xc bytes), align: 2
  Segment part 12.            Intra module refs:   Segment part 24
    -------------------------------------------------------------------------
CODE
  Relative segment, address: CODE_AREA 0000085C - 0000094B (0xf0 bytes), align: 2
  Segment part 63.            Intra module refs:   OnRedraw
           ENTRY                   ADDRESS         REF BY
           =====                   =======         ======
           GetMood                 0000085C 
               stack 1 = 00000000 ( 000000A4 )
    -------------------------------------------------------------------------
CODE
  Relative segment, address: CODE_AREA 0000094C - 0000098F (0x44 bytes), align: 2
  Segment part 65.            Intra module refs:   OnRedraw
           ENTRY                   ADDRESS         REF BY
           =====                   =======         ======
           DrawMoodIcon            0000094C 
               stack 1 = 00000000 ( 0000006C )
    -------------------------------------------------------------------------
CODE
  Relative segment, address: CODE_AREA 00000990 - 00000A67 (0xd8 bytes), align: 2
  Segment part 67.            Intra module refs:   OnKey
                                                   SaveAll
           ENTRY                   ADDRESS         REF BY
           =====                   =======         ======
           Save                    00000990 
               stack 1 = 00000000 ( 00001074 )
    -------------------------------------------------------------------------
CODE
  Relative segment, address: CODE_AREA 00000A68 - 00000A6B (0x4 bytes), align: 2
  Segment part 68.            Intra module refs:   GetMood
                                                   Save
    -------------------------------------------------------------------------
CODE
  Relative segment, address: CODE_AREA 00000A6C - 00000A6F (0x4 bytes), align: 2
  Segment part 69.            Intra module refs:   GetMood
                                                   Save
    -------------------------------------------------------------------------
CODE
  Relative segment, address: CODE_AREA 00000A70 - 00000AA7 (0x38 bytes), align: 2
  Segment part 71.            Intra module refs:   OnKey
           ENTRY                   ADDRESS         REF BY
           =====                   =======         ======
           SaveAll                 00000A70 
               stack 1 = 00000000 ( 00000008 )
    -------------------------------------------------------------------------
CODE
  Relative segment, address: CODE_AREA 00000AA8 - 00000C1F (0x178 bytes), align: 2
  Segment part 73.            Intra module refs:   OnKey
           ENTRY                   ADDRESS         REF BY
           =====                   =======         ======
           Info                    00000AA8 
               stack 1 = 00000000 ( 00000044 )
    -------------------------------------------------------------------------
CODE
  Relative segment, address: CODE_AREA 00000C20 - 00000C23 (0x4 bytes), align: 2
  Segment part 74.            Intra module refs:   CreateEC
                                                   Info
                                                   Parsing
    -------------------------------------------------------------------------
CODE
  Relative segment, address: CODE_AREA 00000C24 - 00000C27 (0x4 bytes), align: 2
  Segment part 75.            Intra module refs:   CreateEC
                                                   GetMood
                                                   Info
                                                   Parsing
                                                   Save
    -------------------------------------------------------------------------
CODE
  Relative segment, address: CODE_AREA 00000C28 - 000015FF (0x9d8 bytes), align: 2
  Segment part 77.            Intra module refs:   gui_methods
           ENTRY                   ADDRESS         REF BY
           =====                   =======         ======
           OnRedraw                00000C28 
               stack 1 = 00000000 ( 00000050 )
    -------------------------------------------------------------------------
CODE
  Relative segment, address: CODE_AREA 00001600 - 00001603 (0x4 bytes), align: 2
  Segment part 78.            Intra module refs:   OnRedraw
    -------------------------------------------------------------------------
CODE
  Relative segment, address: CODE_AREA 00001604 - 00001607 (0x4 bytes), align: 2
  Segment part 79.            Intra module refs:   OnRedraw
    -------------------------------------------------------------------------
CODE
  Relative segment, address: CODE_AREA 00001608 - 0000160F (0x8 bytes), align: 2
  Segment part 81.            Intra module refs:   gui_methods
           ENTRY                   ADDRESS         REF BY
           =====                   =======         ======
           onCreate                00001608 
    -------------------------------------------------------------------------
CODE
  Relative segment, address: CODE_AREA 00001610 - 00001613 (0x4 bytes), align: 2
  Segment part 83.            Intra module refs:   gui_methods
           ENTRY                   ADDRESS         REF BY
           =====                   =======         ======
           onClose                 00001610 
    -------------------------------------------------------------------------
CODE
  Relative segment, address: CODE_AREA 00001614 - 0000161B (0x8 bytes), align: 2
  Segment part 84.            Intra module refs:   onClose
                                                   onCreate
    -------------------------------------------------------------------------
CODE
  Relative segment, address: CODE_AREA 0000161C - 00001627 (0xc bytes), align: 2
  Segment part 86.            Intra module refs:   gui_methods
           ENTRY                   ADDRESS         REF BY
           =====                   =======         ======
           onFocus                 0000161C 
               stack 1 = 00000000 ( 00000004 )
    -------------------------------------------------------------------------
CODE
  Relative segment, address: CODE_AREA 00001628 - 0000162F (0x8 bytes), align: 2
  Segment part 87.            Intra module refs:   _ghook
                                                   onFocus
    -------------------------------------------------------------------------
CODE
  Relative segment, address: CODE_AREA 00001630 - 00001643 (0x14 bytes), align: 2
  Segment part 89.            Intra module refs:   gui_methods
           ENTRY                   ADDRESS         REF BY
           =====                   =======         ======
           onUnfocus               00001630 
    -------------------------------------------------------------------------
CODE
  Relative segment, address: CODE_AREA 00001644 - 000018E3 (0x2a0 bytes), align: 2
  Segment part 91.            Intra module refs:   gui_methods
           ENTRY                   ADDRESS         REF BY
           =====                   =======         ======
           OnKey                   00001644 
               stack 1 = 00000000 ( 00000014 )
    -------------------------------------------------------------------------
CODE
  Relative segment, address: CODE_AREA 000018E4 - 000018E7 (0x4 bytes), align: 2
  Segment part 92.            Intra module refs:   OnKey
                                                   OnRedraw
    -------------------------------------------------------------------------
CODE
  Relative segment, address: CODE_AREA 000018E8, align: 2
  Segment part 94.            Intra module refs:   gui_methods
           ENTRY                   ADDRESS         REF BY
           =====                   =======         ======
           method8                 000018E8 
    -------------------------------------------------------------------------
CODE
  Relative segment, address: CODE_AREA 000018E8 - 000018EF (0x8 bytes), align: 2
  Segment part 95.            Intra module refs:   _onkey
                                                   method8
                                                   method9
    -------------------------------------------------------------------------
CODE
  Relative segment, address: CODE_AREA 000018F0 - 000018F3 (0x4 bytes), align: 2
  Segment part 97.            Intra module refs:   gui_methods
           ENTRY                   ADDRESS         REF BY
           =====                   =======         ======
           method9                 000018F0 
    -------------------------------------------------------------------------
CODE
  Relative segment, address: CODE_AREA 000018F4 - 00001943 (0x50 bytes), align: 2
  Segment part 99.            Intra module refs:   Segment part 13
           ENTRY                   ADDRESS         REF BY
           =====                   =======         ======
           maincsm_oncreate        000018F4 
               stack 1 = 00000000 ( 0000000C )
    -------------------------------------------------------------------------
CODE
  Relative segment, address: CODE_AREA 00001944 - 0000195F (0x1c bytes), align: 2
  Segment part 101.           Intra module refs:   maincsm_onclose
           ENTRY                   ADDRESS         REF BY
           =====                   =======         ======
           ElfKiller               00001944 
               stack 1 = 00000000 ( 00000004 )
    -------------------------------------------------------------------------
CODE
  Relative segment, address: CODE_AREA 00001960 - 00001973 (0x14 bytes), align: 2
  Segment part 103.           Intra module refs:   Segment part 13
           ENTRY                   ADDRESS         REF BY
           =====                   =======         ======
           maincsm_onclose         00001960 
               stack 1 = 00000000 ( 00000004 )
    -------------------------------------------------------------------------
CODE
  Relative segment, address: CODE_AREA 00001974 - 00001A5B (0xe8 bytes), align: 2
  Segment part 105.           Intra module refs:   Segment part 13
           ENTRY                   ADDRESS         REF BY
           =====                   =======         ======
           maincsm_onmessage       00001974 
               stack 1 = 00000000 ( 0000000C )
    -------------------------------------------------------------------------
CODE
  Relative segment, address: CODE_AREA 00001A5C - 00001A5F (0x4 bytes), align: 2
  Segment part 106.           Intra module refs:   maincsm_onmessage
    -------------------------------------------------------------------------
DATA_C
  Relative segment, address: CODE_AREA 00001D00 - 00001D47 (0x48 bytes), align: 2
  Segment part 13.            Intra module refs:   UpdateCSMname
                                                   main
    -------------------------------------------------------------------------
DATA_C
  Relative segment, address: CODE_AREA 00001D48 - 00001D4B (0x4 bytes), align: 2
  Segment part 14.            Intra module refs:   Segment part 13
           ENTRY                   ADDRESS         REF BY
           =====                   =======         ======
           minus11                 00001D48 
    -------------------------------------------------------------------------
DATA_C
  Relative segment, address: CODE_AREA 00001D4C - 00001ECB (0x180 bytes), align: 2
  Segment part 23.            Intra module refs:   char8to16
           ENTRY                   ADDRESS         REF BY
           =====                   =======         ======
           dos2unicode             00001D4C 
           wintranslation          00001E4C 
    -------------------------------------------------------------------------
DATA_C
  Relative segment, address: CODE_AREA 00001ECC - 00001F17 (0x4c bytes), align: 2
  Segment part 24.            Intra module refs:   CreateEC
           ENTRY                   ADDRESS         REF BY
           =====                   =======         ======
           _desc                   00001EE0 
           _hdr                    00001ECC 
    -------------------------------------------------------------------------
DATA_C
  Relative segment, address: CODE_AREA 00001F18 - 00001F43 (0x2c bytes), align: 2
  Segment part 30.            Intra module refs:   maincsm_oncreate
           ENTRY                   ADDRESS         REF BY
           =====                   =======         ======
           gui_methods             00001F18 
    -------------------------------------------------------------------------
CODE
  Relative segment, address: CODE_AREA 00001A60 - 00001A7B (0x1c bytes), align: 2
  Segment part 108.           Intra module refs:   main
           ENTRY                   ADDRESS         REF BY
           =====                   =======         ======
           UpdateCSMname           00001A60 
               stack 1 = 00000000 ( 00000004 )
    -------------------------------------------------------------------------
CODE
  Relative segment, address: CODE_AREA 00001A7C - 00001AC7 (0x4c bytes), align: 2
  Segment part 110.
           ENTRY                   ADDRESS         REF BY
           =====                   =======         ======
           main                    00001A7C        Absolute parts (?ABS_ENTRY_MOD)
               stack 1 = 00000000 ( 00000034 )
    -------------------------------------------------------------------------
CODE
  Relative segment, address: CODE_AREA 00001AC8 - 00001ACB (0x4 bytes), align: 2
  Segment part 111.           Intra module refs:   main
    -------------------------------------------------------------------------
DATA_ID
  Relative segment, address: CODE_AREA 00000000 - 00000017 (0x18 bytes), align: 2
  Segment part 26.            Intra module refs:   _sk
    -------------------------------------------------------------------------
DATA_ID
  Relative segment, address: CODE_AREA 00000018 - 0000001F (0x8 bytes), align: 2
  Segment part 28.            Intra module refs:   _skt
    -------------------------------------------------------------------------
INITTAB
  Relative segment, address: CODE_AREA 00001F48 - 00001F53 (0xc bytes), align: 2
  Segment part 119. ROOT.
           ENTRY                   ADDRESS         REF BY
           =====                   =======         ======
           ?init?tab?DATA_I        00001F48 
    -------------------------------------------------------------------------
INITTAB
  Relative segment, address: CODE_AREA 00001F54 - 00001F5F (0xc bytes), align: 2
  Segment part 120. ROOT.
           ENTRY                   ADDRESS         REF BY
           =====                   =======         ======
           ?init?tab?DATA_Z        00001F54 

    *************************************************************************

  FILE NAME : D:\Pasha\Embedded Workbench 4.0 Evaluation2\ARM\LIB\dl5tpainl8n.r79
  LIBRARY MODULE, NAME : ?div_module

  SEGMENTS IN THE MODULE
  ======================
CODE
  Relative segment, address: CODE_AREA 00001ACC - 00001AD7 (0xc bytes), align: 2
  Segment part 5.
           ENTRY                   ADDRESS         REF BY
           =====                   =======         ======
           ??divu32_a              00001ACC        OnRedraw (main)
    -------------------------------------------------------------------------
CODE
  Relative segment, address: CODE_AREA 00001AD8 - 00001AEF (0x18 bytes), align: 2
  Segment part 11.
           ENTRY                   ADDRESS         REF BY
           =====                   =======         ======
           ??div32_a               00001AD8        OnKey (main)
    -------------------------------------------------------------------------
CODE
  Relative segment, address: CODE_AREA 00001AF0 - 00001BC7 (0xd8 bytes), align: 2
  Segment part 12.            Intra module refs:   ??div32_a
                                                   ??divu32_a




                ****************************************
                *                                      *
                *      SEGMENTS IN ADDRESS ORDER       *
                *                                      *
                ****************************************


SEGMENT              SPACE    START ADDRESS   END ADDRESS     SIZE  TYPE  ALIGN
=======              =====    =============   ===========     ====  ====  =====
ELFBEGIN             CODE_AREA           00000000                     rel    0
DATA_ID              CODE_AREA      00000000 - 0000001F          20   rel    2
START                CODE_AREA           00000020                     dse    0
CODE                 CODE_AREA      00000020 - 00001BC7        1BA8   rel    2
DATA_C               CODE_AREA      00001BC8 - 00001F46         37F   rel    2
INITTAB              CODE_AREA      00001F48 - 00001F5F          18   rel    2
DATA_Z               CODE_AREA      00001F60 - 00060E8F       5EF30   rel    2
DATA_N               CODE_AREA           00060E90                     dse    0
CONFIG_C             CODE_AREA      00060E90 - 00060FF7         168   rel    2
DATA_I               DATA_AREA      00000000 - 0000001F          20   rel    2

                ****************************************
                *                                      *
                *        END OF CROSS REFERENCE        *
                *                                      *
                ****************************************

 397 303 bytes of CODE memory
      32 bytes of DATA memory

Errors: none
Warnings: none

