##############################################################################
#                                                                            #
# IAR ARM ANSI C/C++ Compiler V4.42A/W32 EVALUATION    15/Feb/2011  01:38:50 #
# Copyright 1999-2005 IAR Systems. All rights reserved.                      #
#                                                                            #
#    Cpu mode        =  interwork                                            #
#    Endian          =  little                                               #
#    Stack alignment =  4                                                    #
#    Source file     =  C:\arm\SieJC_BR\mainmenu.c                           #
#    Command line    =  C:\arm\SieJC_BR\mainmenu.c -D NEWSGOLD -D ELKA       #
#                       --preprocess C:\arm\SieJC_BR\Release_ELKA\List\ -lC  #
#                       C:\arm\SieJC_BR\Release_ELKA\List\ -o                #
#                       C:\arm\SieJC_BR\Release_ELKA\Obj\ -s9 --no_unroll    #
#                       --cpu_mode arm --endian little --cpu ARM926EJ-S      #
#                       --stack_align 4 --interwork -e --fpu None            #
#                       --dlib_config "C:\arm2\Embedded Workbench 4.0        #
#                       Evaluation\ARM\LIB\dl5tpainl8n.h" -I                 #
#                       "C:\arm2\Embedded Workbench 4.0                      #
#                       Evaluation\ARM\INC\" --inline_threshold=2            #
#    List file       =  C:\arm\SieJC_BR\Release_ELKA\List\mainmenu.lst       #
#    Object file     =  C:\arm\SieJC_BR\Release_ELKA\Obj\mainmenu.r79        #
#                                                                            #
#                                                                            #
##############################################################################

C:\arm\SieJC_BR\mainmenu.c
      1          #include "../inc/swilib.h"
      2          #include "main.h"
      3          #include "roster_icons.h"
      4          #include "mainmenu.h"
      5          #include "status_change.h"
      6          #include "bookmarks.h"
      7          #include "jabber_util.h"
      8          #include "MUC_Enter_UI.h"
      9          #include "JID_Enter_UI.h"
     10          #include "cont_menu.h"
     11          #include "revision.h"
     12          #include "lang.h"
     13          #include "clist_util.h"
     14          #include "string_util.h"
     15          #include "color.h"
     16          #include "rect_patcher.h"
     17          #include "moods.h"
     18          
     19          #define N_ITEMS 16
     20          
     21          extern int Is_Sounds_Enabled;
     22          extern int Is_Vibra_Enabled;
     23          extern char Display_Offline;
     24          extern int Is_Autostatus_Enabled;
     25          extern int Is_Playerstatus_Enabled;
     26          extern int Is_Smiles_Enabled;
     27          
     28          int MainMenu_ID;
     29          
     30          extern char My_Presence;
     31          
     32          extern const char VERSION_VERS[];
     33          

   \                                 In segment CODE, align 4, keep-with-next
     34          void AboutDlg(GUI *data)
     35          {
   \                     AboutDlg:
   \   00000000   70402DE9           PUSH     {R4-R6,LR}
     36            char msg_tpl[]=LG_COPYRIGHT;
   \   00000004   70409FE5           LDR      R4,??AboutDlg_0  ;; `?<Constant "Siemens natJabber Cli...">`
   \   00000008   44D04DE2           SUB      SP,SP,#+68
   \   0000000C   0D00A0E1           MOV      R0,SP
   \   00000010   4420A0E3           MOV      R2,#+68
   \                     ??AboutDlg_1:
   \   00000014   042052E2           SUBS     R2,R2,#+4
   \   00000018   021094E7           LDR      R1,[R4, R2]
   \   0000001C   021080E7           STR      R1,[R0, R2]
   \   00000020   FBFFFF1A           BNE      ??AboutDlg_1
     37            int l;
     38            char *msg = malloc(l=strlen(msg_tpl)+20+1);
   \   00000024   1B0000EF           SWI      +27
   \   00000028   155080E2           ADD      R5,R0,#+21
   \   0000002C   0500A0E1           MOV      R0,R5
   \   00000030   140000EF           SWI      +20
     39            snprintf(msg,l,msg_tpl, VERSION_VERS, __SVN_REVISION__, __DATE__);
   \   00000034   44309FE5           LDR      R3,??AboutDlg_0+0x4  ;; VERSION_VERS
   \   00000038   0060A0E1           MOV      R6,R0
   \   0000003C   440084E2           ADD      R0,R4,#+68
   \   00000040   01002DE9           PUSH     {R0}
   \   00000044   0510A0E1           MOV      R1,R5
   \   00000048   D600A0E3           MOV      R0,#+214
   \   0000004C   A00E80E3           ORR      R0,R0,#0xA00
   \   00000050   01002DE9           PUSH     {R0}
   \   00000054   08208DE2           ADD      R2,SP,#+8
   \   00000058   0600A0E1           MOV      R0,R6
   \   0000005C   1B0100EF           SWI      +283
     40            ShowMSG(0,(int)msg);
   \   00000060   0610A0E1           MOV      R1,R6
   \   00000064   0000A0E3           MOV      R0,#+0
   \   00000068   480100EF           SWI      +328
     41            mfree(msg);
   \   0000006C   0600A0E1           MOV      R0,R6
   \   00000070   150000EF           SWI      +21
     42          };
   \   00000074   4CD08DE2           ADD      SP,SP,#+76
   \   00000078   7080BDE8           POP      {R4-R6,PC}       ;; return
   \                     ??AboutDlg_0:
   \   0000007C   ........           DC32     `?<Constant "Siemens natJabber Cli...">`
   \   00000080   ........           DC32     VERSION_VERS
     43          

   \                                 In segment CODE, align 4, keep-with-next
     44          void Dummy(GUI *data)
     45          {
     46            ShowMSG(1,(int)"Раздел в разработке :)");
   \                     Dummy:
   \   00000000   0C109FE5           LDR      R1,??Dummy_0     ;; `?<Constant "\\320\\340\\347\\344\\345\\353 \\342 \\360`
   \   00000004   00402DE9           PUSH     {LR}
   \   00000008   0100A0E3           MOV      R0,#+1
   \   0000000C   480100EF           SWI      +328
     47          };
   \   00000010   0080BDE8           POP      {PC}             ;; return
   \                     ??Dummy_0:
   \   00000014   ........           DC32     `?<Constant "\\320\\340\\347\\344\\345\\353 \\342 \\360`
     48          
     49          // Ad, сюда напиши номера, которые сочтёшь нужным!
     50          int icon[]={0x3DB,0};
     51          int about_icon[]={0x4DB,0};
     52          int dummy_icon[] = {0x50E,0};
     53          
     54          HEADER_DESC menuhdr={0,0,131,21,NULL,(int)LG_MENU,LGP_NULL};
     55          
     56          int mmenusoftkeys[]={0,1,2};
     57          
     58          int icon_array[2];
     59          extern JABBER_STATE Jabber_state; 
     60          

   \                                 In segment CODE, align 4, keep-with-next
     61          void ChangeVibraMode(GUI *data)
     62          {
     63            Is_Vibra_Enabled=!(Is_Vibra_Enabled);
   \                     ChangeVibraMode:
   \   00000000   ........           LDR      R0,??DataTable8  ;; Is_Vibra_Enabled
   \   00000004   00402DE9           PUSH     {LR}
   \   00000008   001090E5           LDR      R1,[R0, #+0]
   \   0000000C   000051E3           CMP      R1,#+0
   \   00000010   0110A003           MOVEQ    R1,#+1
   \   00000014   0010A013           MOVNE    R1,#+0
   \   00000018   001080E5           STR      R1,[R0, #+0]
     64            RefreshGUI();
   \   0000001C   960100EF           SWI      +406
     65          }
   \   00000020   0080BDE8           POP      {PC}             ;; return
     66          

   \                                 In segment CODE, align 4, keep-with-next
     67          void ChangeSoundMode(GUI *data)
     68          {
     69            Is_Sounds_Enabled=!(Is_Sounds_Enabled);
   \                     ChangeSoundMode:
   \   00000000   ........           LDR      R0,??DataTable9  ;; Is_Sounds_Enabled
   \   00000004   00402DE9           PUSH     {LR}
   \   00000008   001090E5           LDR      R1,[R0, #+0]
   \   0000000C   000051E3           CMP      R1,#+0
   \   00000010   0110A003           MOVEQ    R1,#+1
   \   00000014   0010A013           MOVNE    R1,#+0
   \   00000018   001080E5           STR      R1,[R0, #+0]
     70            RefreshGUI();
   \   0000001C   960100EF           SWI      +406
     71          }
   \   00000020   0080BDE8           POP      {PC}             ;; return
     72          

   \                                 In segment CODE, align 4, keep-with-next
     73          void ChangeAutostatusMode(GUI *data)
     74          {
     75            Is_Autostatus_Enabled=!(Is_Autostatus_Enabled);
   \                     ChangeAutostatusMode:
   \   00000000   ........           LDR      R0,??DataTable10  ;; Is_Autostatus_Enabled
   \   00000004   00402DE9           PUSH     {LR}
   \   00000008   001090E5           LDR      R1,[R0, #+0]
   \   0000000C   000051E3           CMP      R1,#+0
   \   00000010   0110A003           MOVEQ    R1,#+1
   \   00000014   0010A013           MOVNE    R1,#+0
   \   00000018   001080E5           STR      R1,[R0, #+0]
     76            RefreshGUI();
   \   0000001C   960100EF           SWI      +406
     77          }
   \   00000020   0080BDE8           POP      {PC}             ;; return
     78          

   \                                 In segment CODE, align 4, keep-with-next
     79          void ChangePlayerstatusMode(GUI *data)
     80          {
     81            Is_Playerstatus_Enabled=!(Is_Playerstatus_Enabled);
   \                     ChangePlayerstatusMode:
   \   00000000   ........           LDR      R0,??DataTable11  ;; Is_Playerstatus_Enabled
   \   00000004   00402DE9           PUSH     {LR}
   \   00000008   001090E5           LDR      R1,[R0, #+0]
   \   0000000C   000051E3           CMP      R1,#+0
   \   00000010   0110A003           MOVEQ    R1,#+1
   \   00000014   0010A013           MOVNE    R1,#+0
   \   00000018   001080E5           STR      R1,[R0, #+0]
     82            RefreshGUI();
   \   0000001C   960100EF           SWI      +406
     83          }
   \   00000020   0080BDE8           POP      {PC}             ;; return
     84          

   \                                 In segment CODE, align 4, keep-with-next
     85          void ChangeSmilesMode(GUI *data)
     86          {
     87            Is_Smiles_Enabled=!(Is_Smiles_Enabled);
   \                     ChangeSmilesMode:
   \   00000000   ........           LDR      R0,??DataTable12  ;; Is_Smiles_Enabled
   \   00000004   00402DE9           PUSH     {LR}
   \   00000008   001090E5           LDR      R1,[R0, #+0]
   \   0000000C   000051E3           CMP      R1,#+0
   \   00000010   0110A003           MOVEQ    R1,#+1
   \   00000014   0010A013           MOVNE    R1,#+0
   \   00000018   001080E5           STR      R1,[R0, #+0]
     88            RefreshGUI();
   \   0000001C   960100EF           SWI      +406
     89          }
   \   00000020   0080BDE8           POP      {PC}             ;; return
     90          

   \                                 In segment CODE, align 4, keep-with-next
     91          void ChangeOffContMode(GUI *data)
     92          {
   \                     ChangeOffContMode:
   \   00000000   00402DE9           PUSH     {LR}
     93            CList_ToggleOfflineDisplay();
   \   00000004   ........           _BLF     CList_ToggleOfflineDisplay,??CList_ToggleOfflineDisplay??rA
     94            RefreshGUI();
   \   00000008   960100EF           SWI      +406
     95          }
   \   0000000C   0080BDE8           POP      {PC}             ;; return
     96          

   \                                 In segment CODE, align 4, keep-with-next
     97          void OpenSettings_(GUI *data)
     98          {
   \                     OpenSettings_:
   \   00000000   00402DE9           PUSH     {LR}
     99            OpenSettings();
   \   00000004   ........           _BLF     OpenSettings,??OpenSettings??rA
    100            GeneralFuncF1(1);
   \   00000008   0100A0E3           MOV      R0,#+1
   \   0000000C   3B0100EF           SWI      +315
    101          }
   \   00000010   0080BDE8           POP      {PC}             ;; return
    102          

   \                                 In segment CODE, align 4, keep-with-next
    103          void AddContact(GUI *data)
    104          {
    105           if(Jabber_state==JS_ONLINE)
   \                     AddContact:
   \   00000000   ........           LDR      R0,??DataTable7  ;; Jabber_state
   \   00000004   00402DE9           PUSH     {LR}
   \   00000008   0000D0E5           LDRB     R0,[R0, #+0]
   \   0000000C   0C0050E3           CMP      R0,#+12
   \   00000010   0080BD18           POPNE    {PC}
    106           {
    107            Disp_JID_Enter_Dialog(NULL);
   \   00000014   0000A0E3           MOV      R0,#+0
   \   00000018   ........           _BLF     Disp_JID_Enter_Dialog,??Disp_JID_Enter_Dialog??rA
    108           }
    109          }
   \   0000001C   0080BDE8           POP      {PC}             ;; return
    110          

   \                                 In segment CODE, align 4, keep-with-next
    111          void OpenBookmarks_List(GUI *data)
    112          {
    113            if(Jabber_state==JS_ONLINE)
   \                     OpenBookmarks_List:
   \   00000000   ........           LDR      R0,??DataTable7  ;; Jabber_state
   \   00000004   00402DE9           PUSH     {LR}
   \   00000008   0000D0E5           LDRB     R0,[R0, #+0]
   \   0000000C   0C0050E3           CMP      R0,#+12
   \   00000010   0080BD18           POPNE    {PC}
    114            {
    115            Get_Bookmarks_List();
   \   00000014   ........           _BLF     Get_Bookmarks_List,??Get_Bookmarks_List??rA
    116            }
    117          }
   \   00000018   0080BDE8           POP      {PC}             ;; return

   \                                 In segment CODE, align 4, keep-with-next
    118          void OpenDisp_MUC_Enter_Dialog(GUI *data)
    119          {
    120            if(Jabber_state==JS_ONLINE)
   \                     OpenDisp_MUC_Enter_Dialog:
   \   00000000   ........           LDR      R0,??DataTable7  ;; Jabber_state
   \   00000004   00402DE9           PUSH     {LR}
   \   00000008   0000D0E5           LDRB     R0,[R0, #+0]
   \   0000000C   0C0050E3           CMP      R0,#+12
   \   00000010   0080BD18           POPNE    {PC}
    121            {
    122              Disp_MUC_Enter_Dialog(NULL, NULL, NULL);
   \   00000014   0020A0E3           MOV      R2,#+0
   \   00000018   0010A0E3           MOV      R1,#+0
   \   0000001C   0100A0E1           MOV      R0,R1
   \   00000020   ........           _BLF     Disp_MUC_Enter_Dialog,??Disp_MUC_Enter_Dialog??rA
    123            }
    124          }
   \   00000024   0080BDE8           POP      {PC}             ;; return
    125          

   \                                 In segment CODE, align 4, keep-with-next
    126          void Exit_SieJC(GUI *data)
    127          {
   \                     Exit_SieJC:
   \   00000000   00402DE9           PUSH     {LR}
    128            QuitCallbackProc(0);
   \   00000004   0000A0E3           MOV      R0,#+0
   \   00000008   ........           _BLF     QuitCallbackProc,??QuitCallbackProc??rA
    129            GeneralFuncF1(1);
   \   0000000C   0100A0E3           MOV      R0,#+1
   \   00000010   3B0100EF           SWI      +315
    130          }
   \   00000014   0080BDE8           POP      {PC}             ;; return
    131          

   \                                 In segment DATA_C, align 4, align-sorted
    132          static const char * const menutexts[N_ITEMS]=
   \                     menutexts:
   \   00000000   ........           DC32 `?<Constant "\\312\\356\\355\\362\\340\\352\\362">`
   \   00000004   ........           DC32 `?<Constant "\\321\\362\\340\\362\\363\\361">`
   \   00000008   ........           DC32 `?<Constant "\\312\\356\\355\\364\\345\\360\\345\\355\\3`
   \   0000000C   ........           DC32 `?<Constant "\\307\\340\\352\\353\\340\\344\\352\\350">`
   \   00000010   ........           DC32 `?<Constant "\\304\\356\\341\\340\\342\\350\\362\\374 \\`
   \   00000014   ........           DC32 `?<Constant "\\320\\345\\346\\350\\354 \\342\\350\\341\\`
   \   00000018   ........           DC32 `?<Constant "\\320\\345\\346\\350\\354 \\347\\342\\363\\`
   \   0000001C   ........           DC32 `?<Constant "\\316\\364\\364. \\352\\356\\355\\362\\340`
   \   00000020   ........           DC32 `?<Constant "\\300\\342\\362\\356\\361\\362\\340\\362\\3`
   \   00000024   ........           DC32 `?<Constant "\\317\\353\\345\\345\\360-\\361\\362\\340\\`
   \   00000028   ........           DC32 `?<Constant "\\321\\354\\340\\351\\353\\373">`
   \   0000002C   ........           DC32 `?<Constant "\\315\\340\\361\\362\\360\\356\\351\\352\\3`
   \   00000030   ........           DC32 `?<Constant "\\315\\340\\361\\362\\360\\356\\345\\355\\3`
   \   00000034   ........           DC32 `?<Constant "\\326\\342\\345\\362\\340">`
   \   00000038   ........           DC32 `?<Constant "\\316\\341 \\375\\353\\374\\364\\345...">`
   \   0000003C   ........           DC32 `?<Constant "\\302\\373\\365\\356\\344">`
    133          {
    134            LG_CONTACT,
    135            LG_STATUS,
    136            LG_MUC,
    137            LG_BOOKMARK,
    138            LG_ADDCONTACT,
    139            LG_MVIBRA,
    140            LG_MSOUND,
    141            LG_MOFFLINE,
    142            LG_AUTOSTATUS,
    143            LG_PLAYER_STATUS,
    144            LG_SMILE,
    145            LG_SETTINGS,
    146            LG_MOODS,
    147            LG_COLOR,
    148            LG_ABOUT,
    149            LG_EXIT
    150          };
    151          
    152          
    153          //MENUITEM_DESC menuitems[N_ITEMS]=
    154          //{
    155          //  {dummy_icon,(int)"Контакт",LGP_NULL,0,NULL,MENU_FLAG3,MENU_FLAG2},
    156          //  {dummy_icon,(int)"Статус",LGP_NULL,0,NULL,MENU_FLAG3,MENU_FLAG2},
    157          //  {dummy_icon,(int)"Конференция",LGP_NULL,0,NULL,MENU_FLAG3,MENU_FLAG2},
    158          //  {dummy_icon,(int)"Закладки",LGP_NULL,0,NULL,MENU_FLAG3,MENU_FLAG2},
    159          //  {icon_array,(int)"Режим вибры",LGP_NULL,0,NULL,MENU_FLAG3,MENU_FLAG2},
    160          //  {icon_array,(int)"Режим звука",LGP_NULL,0,NULL,MENU_FLAG3,MENU_FLAG2},
    161          //  {dummy_icon,(int)"Об эльфе...",LGP_NULL,0,NULL,MENU_FLAG3,MENU_FLAG2},
    162          //  {dummy_icon,(int)"Выход",LGP_NULL,0,NULL,MENU_FLAG3,MENU_FLAG2},
    163          //};
    164          

   \                                 In segment DATA_C, align 4, align-sorted
    165          static const MENUPROCS_DESC menuprocs[N_ITEMS]={
   \                     menuprocs:
   \   00000000   ............       DC32 Disp_Contact_Menu, ShowStatusSelectMenu, OpenDisp_MUC_Enter_Dialog
   \              ............
   \   0000000C   ............       DC32 OpenBookmarks_List, AddContact, ChangeVibraMode, ChangeSoundMode
   \              ............
   \              ........    
   \   0000001C   ............       DC32 ChangeOffContMode, ChangeAutostatusMode, ChangePlayerstatusMode
   \              ............
   \   00000028   ............       DC32 ChangeSmilesMode, OpenSettings_, Show_Moods_Menu
   \              ............
   \   00000034   ............       DC32 ShowSelectColorMenu, AboutDlg, Exit_SieJC
   \              ............
    166                                    Disp_Contact_Menu,
    167                                    ShowStatusSelectMenu,
    168                                    OpenDisp_MUC_Enter_Dialog,
    169                                    OpenBookmarks_List,
    170                                    AddContact,
    171                                    ChangeVibraMode,
    172                                    ChangeSoundMode,
    173                                    ChangeOffContMode,
    174                                    ChangeAutostatusMode,
    175                                    ChangePlayerstatusMode,
    176                                    ChangeSmilesMode,
    177                                    OpenSettings_,
    178                                    Show_Moods_Menu,
    179                                    ShowSelectColorMenu,
    180                                    AboutDlg,
    181                                    Exit_SieJC
    182                                   };
    183          

   \                                 In segment DATA_C, align 4, align-sorted
    184          static const SOFTKEY_DESC mmenu_sk[]=
   \                     mmenu_sk:
   \   00000000   18000000           DC16 24, 0
   \   00000004   ........           DC32 `?<Constant "\\302\\373\\341\\356\\360">`
   \   00000008   01000000           DC16 1, 0
   \   0000000C   ........           DC32 `?<Constant "\\315\\340\\347\\340\\344">`
   \   00000010   3D000000           DC16 61, 0
   \   00000014   FBC0FF7F           DC32 2147467515
    185          {
    186            {0x0018,0x0000,(int)LG_SELECT},
    187            {0x0001,0x0000,(int)LG_BACK},
    188            {0x003D,0x0000,(int)LGP_DOIT_PIC}
    189          };
    190          

   \                                 In segment DATA_C, align 4, align-sorted
    191          static const SOFTKEYSTAB mmenu_skt=
   \                     mmenu_skt:
   \   00000000   ........0000       DC32 mmenu_sk, 0
   \              0000        
    192          {
    193            mmenu_sk,0
    194          };
    195          
    196          int S_ICONS[N_ITEMS];
    197          

   \                                 In segment CODE, align 4, keep-with-next
    198          void menuitemhandler(void *data, int curitem, void *unk)
    199          {
   \                     menuitemhandler:
   \   00000000   F0412DE9           PUSH     {R4-R8,LR}
   \   00000004   0040A0E1           MOV      R4,R0
   \   00000008   0150A0E1           MOV      R5,R1
    200            WSHDR *ws;
    201            void *item=AllocMenuItem(data);
   \   0000000C   970100EF           SWI      +407
   \   00000010   0060A0E1           MOV      R6,R0
   \   00000014   18019FE5           LDR      R0,??menuitemhandler_1  ;; menutexts
   \   00000018   058190E7           LDR      R8,[R0, +R5, LSL #+2]
   \   0000001C   0800A0E1           MOV      R0,R8
    202            ws=AllocMenuWS(data,strlen(menutexts[curitem]));
   \   00000020   1B0000EF           SWI      +27
   \   00000024   0010A0E1           MOV      R1,R0
   \   00000028   0400A0E1           MOV      R0,R4
   \   0000002C   980100EF           SWI      +408
   \   00000030   0070A0E1           MOV      R7,R0
    203            ascii2ws(ws, menutexts[curitem]);
   \   00000034   0810A0E1           MOV      R1,R8
   \   00000038   ........           _BLF     ascii2ws,??ascii2ws??rA
    204            switch(curitem)
   \   0000003C   F4009FE5           LDR      R0,??menuitemhandler_1+0x4  ;; menuhdr
   \   00000040   0510A0E1           MOV      R1,R5
   \   00000044   0F0051E3           CMP      R1,#+15
   \   00000048   3300008A           BHI      ??menuitemhandler_2
   \   0000004C   012F8FE2           ADR      R2,??menuitemhandler_0
   \   00000050   0120D2E7           LDRB     R2,[R2, R1]
   \   00000054   02F18FE0           ADD      PC,PC,R2, LSL #+2
   \                     ??menuitemhandler_0:
   \   00000058   03050709           DC8      +3,+5,+7,+9
   \   0000005C   0B0D1517           DC8      +11,+13,+21,+23
   \   00000060   1F212426           DC8      +31,+33,+36,+38
   \   00000064   05282A2C           DC8      +5,+40,+42,+44
    205            {
    206            case 0: SetMenuItemIconArray(data,item,S_ICONS+0); break;
   \                     ??menuitemhandler_3:
   \   00000068   142080E2           ADD      R2,R0,#+20
   \   0000006C   270000EA           B        ??menuitemhandler_4
    207            case 1: SetMenuItemIconArray(data,item,S_ICONS+1); break;
   \                     ??menuitemhandler_5:
   \   00000070   182080E2           ADD      R2,R0,#+24
   \   00000074   250000EA           B        ??menuitemhandler_4
    208            case 2: SetMenuItemIconArray(data,item,S_ICONS+2); break;
   \                     ??menuitemhandler_6:
   \   00000078   1C2080E2           ADD      R2,R0,#+28
   \   0000007C   230000EA           B        ??menuitemhandler_4
    209            case 3: SetMenuItemIconArray(data,item,S_ICONS+3); break;
   \                     ??menuitemhandler_7:
   \   00000080   202080E2           ADD      R2,R0,#+32
   \   00000084   210000EA           B        ??menuitemhandler_4
    210            case 4: SetMenuItemIconArray(data,item,S_ICONS+4); break;
   \                     ??menuitemhandler_8:
   \   00000088   242080E2           ADD      R2,R0,#+36
   \   0000008C   1F0000EA           B        ??menuitemhandler_4
    211            case 5: SetMenuItemIconArray(data,item,icon_array+(Is_Vibra_Enabled?0:1)); break;
   \                     ??menuitemhandler_9:
   \   00000090   ........           LDR      R1,??DataTable8  ;; Is_Vibra_Enabled
   \                     ??menuitemhandler_10:
   \   00000094   001091E5           LDR      R1,[R1, #+0]
   \   00000098   000051E3           CMP      R1,#+0
   \   0000009C   0010A013           MOVNE    R1,#+0
   \   000000A0   0110A003           MOVEQ    R1,#+1
   \   000000A4   010180E0           ADD      R0,R0,R1, LSL #+2
   \   000000A8   542080E2           ADD      R2,R0,#+84
   \   000000AC   170000EA           B        ??menuitemhandler_4
    212            case 6:
    213              SetMenuItemIconArray(data,item,icon_array+(Is_Sounds_Enabled?0:1));
   \                     ??menuitemhandler_11:
   \   000000B0   ........           LDR      R1,??DataTable9  ;; Is_Sounds_Enabled
   \   000000B4   F6FFFFEA           B        ??menuitemhandler_10
    214              break;
    215            case 7:
    216              SetMenuItemIconArray(data,item,icon_array+(Display_Offline?0:1));
   \                     ??menuitemhandler_12:
   \   000000B8   7C109FE5           LDR      R1,??menuitemhandler_1+0x8  ;; Display_Offline
   \   000000BC   0010D1E5           LDRB     R1,[R1, #+0]
   \                     ??menuitemhandler_13:
   \   000000C0   000051E3           CMP      R1,#+0
   \   000000C4   0010A013           MOVNE    R1,#+0
   \   000000C8   0110A003           MOVEQ    R1,#+1
   \   000000CC   010180E0           ADD      R0,R0,R1, LSL #+2
   \   000000D0   542080E2           ADD      R2,R0,#+84
   \   000000D4   0D0000EA           B        ??menuitemhandler_4
    217              break;
    218            case 8:
    219              SetMenuItemIconArray(data,item,icon_array+(Is_Autostatus_Enabled?0:1));
   \                     ??menuitemhandler_14:
   \   000000D8   ........           LDR      R1,??DataTable10  ;; Is_Autostatus_Enabled
   \   000000DC   ECFFFFEA           B        ??menuitemhandler_10
    220              break;
    221            case 9:
    222              SetMenuItemIconArray(data,item,icon_array+(Is_Playerstatus_Enabled?0:1));
   \                     ??menuitemhandler_15:
   \   000000E0   ........           LDR      R1,??DataTable11  ;; Is_Playerstatus_Enabled
   \   000000E4   001091E5           LDR      R1,[R1, #+0]
   \   000000E8   F4FFFFEA           B        ??menuitemhandler_13
    223              break;
    224            case 10:
    225              SetMenuItemIconArray(data,item,icon_array+(Is_Smiles_Enabled?0:1));
   \                     ??menuitemhandler_16:
   \   000000EC   ........           LDR      R1,??DataTable12  ;; Is_Smiles_Enabled
   \   000000F0   E7FFFFEA           B        ??menuitemhandler_10
    226              break;
    227            case 11:
    228              SetMenuItemIconArray(data,item,S_ICONS+6);
   \                     ??menuitemhandler_17:
   \   000000F4   2C2080E2           ADD      R2,R0,#+44
   \   000000F8   040000EA           B        ??menuitemhandler_4
    229              break;
    230            case 12:
    231              SetMenuItemIconArray(data, item, S_ICONS+1);
    232              break;
    233            case 13:
    234              SetMenuItemIconArray(data,item,S_ICONS+9);
   \                     ??menuitemhandler_18:
   \   000000FC   382080E2           ADD      R2,R0,#+56
   \   00000100   020000EA           B        ??menuitemhandler_4
    235              break;
    236            case 14:
    237              SetMenuItemIconArray(data,item,S_ICONS+7);
   \                     ??menuitemhandler_19:
   \   00000104   302080E2           ADD      R2,R0,#+48
   \   00000108   000000EA           B        ??menuitemhandler_4
    238              break;  
    239            case 15:
    240              SetMenuItemIconArray(data,item,S_ICONS+8);
   \                     ??menuitemhandler_20:
   \   0000010C   342080E2           ADD      R2,R0,#+52
   \                     ??menuitemhandler_4:
   \   00000110   0610A0E1           MOV      R1,R6
   \   00000114   0400A0E1           MOV      R0,R4
   \   00000118   990100EF           SWI      +409
    241              break;
    242            }
    243            SetMenuItemText(data, item, ws, curitem);
   \                     ??menuitemhandler_2:
   \   0000011C   0530A0E1           MOV      R3,R5
   \   00000120   0720A0E1           MOV      R2,R7
   \   00000124   0610A0E1           MOV      R1,R6
   \   00000128   0400A0E1           MOV      R0,R4
   \   0000012C   9A0100EF           SWI      +410
    244          }
   \   00000130   F081BDE8           POP      {R4-R8,PC}       ;; return
   \                     ??menuitemhandler_1:
   \   00000134   ........           DC32     menutexts
   \   00000138   ........           DC32     menuhdr
   \   0000013C   ........           DC32     Display_Offline
    245          

   \                                 In segment CODE, align 4, keep-with-next
    246          void mmenu_ghook(void *data, int cmd)
    247          {
   \                     mmenu_ghook:
   \   00000000   00402DE9           PUSH     {LR}
    248            if (cmd==TI_CMD_FOCUS)
   \   00000004   0A0051E3           CMP      R1,#+10
   \   00000008   0080BD18           POPNE    {PC}
    249            {
    250              DisableIDLETMR();
   \   0000000C   7F0100EF           SWI      +383
    251            }
    252          }
   \   00000010   0080BDE8           POP      {PC}             ;; return
    253          

   \                                 In segment CODE, align 4, keep-with-next
    254          static int mmenu_keyhook(void *data, GUI_MSG *msg)
    255          {
   \                     mmenu_keyhook:
   \   00000000   00402DE9           PUSH     {LR}
    256            if ((msg->keys==0x18)||(msg->keys==0x3D))
   \   00000004   F210D1E1           LDRSH    R1,[R1, #+2]
   \   00000008   180051E3           CMP      R1,#+24
   \   0000000C   3D005113           CMPNE    R1,#+61
   \   00000010   0300001A           BNE      ??mmenu_keyhook_0
    257            {
    258              ((void (*)(void))(menuprocs[GetCurMenuItem(data)]))();
   \   00000014   8F0100EF           SWI      +399
   \   00000018   0C109FE5           LDR      R1,??mmenu_keyhook_1  ;; menuprocs
   \   0000001C   000191E7           LDR      R0,[R1, +R0, LSL #+2]
   \   00000020   30FF2FE1           BLX      R0
    259            }
    260            return(0);
   \                     ??mmenu_keyhook_0:
   \   00000024   0000A0E3           MOV      R0,#+0
   \   00000028   0080BDE8           POP      {PC}             ;; return
   \                     ??mmenu_keyhook_1:
   \   0000002C   ........           DC32     menuprocs
    261          }

   \                                 In segment DATA_I, align 4, align-sorted
   \                     menuhdr:
   \   00000000                      DS8 20
   \   00000014                      REQUIRE `?<Initializer for menuhdr>`
   \                     S_ICONS:
   \   00000014                      DS8 64
   \   00000054                      REQUIRE `?<Initializer for S_ICONS>`
   \                     icon_array:
   \   00000054                      DS8 8
   \   0000005C                      REQUIRE `?<Initializer for icon_array>`
   \                     MainMenu_ID:
   \   0000005C                      DS8 4
   \   00000060                      REQUIRE `?<Initializer for MainMenu_ID>`
    262          
    263          static const MENU_DESC tmenu=
    264          {
    265            8,mmenu_keyhook,mmenu_ghook,NULL,
    266            mmenusoftkeys,
    267            &mmenu_skt,
    268            0x11,
    269            menuitemhandler,
    270            NULL, //menuitems,
    271            NULL, //menuprocs,
    272            N_ITEMS
    273          };
    274          extern const char PATH_TO_PIC[128], png_t[];
    275          char mypic[128];
   \                     mypic:
   \   00000060                      DS8 128
   \   000000E0                      REQUIRE `?<Initializer for mypic>`
    276          char confpic[128];
   \                     confpic:
   \   000000E0                      DS8 128
   \   00000160                      REQUIRE `?<Initializer for confpic>`
    277          char exitpic[128];
   \                     exitpic:
   \   00000160                      DS8 128
   \   000001E0                      REQUIRE `?<Initializer for exitpic>`
    278          char infopic[128];
   \                     infopic:
   \   000001E0                      DS8 128
   \   00000260                      REQUIRE `?<Initializer for infopic>`
    279          char settpic[128];
   \                     settpic:
   \   00000260                      DS8 128
   \   000002E0                      REQUIRE `?<Initializer for settpic>`
    280          char aboutpic[128];
   \                     aboutpic:
   \   000002E0                      DS8 128
   \   00000360                      REQUIRE `?<Initializer for aboutpic>`
    281          char color_icon[128];
   \                     color_icon:
   \   00000360                      DS8 128
   \   000003E0                      REQUIRE `?<Initializer for color_icon>`

   \                                 In segment DATA_I, align 4, align-sorted
   \                     icon:
   \   00000000                      DS8 8
   \   00000008                      REQUIRE `?<Initializer for icon>`

   \                                 In segment DATA_I, align 4, align-sorted
   \                     about_icon:
   \   00000000                      DS8 8
   \   00000008                      REQUIRE `?<Initializer for about_icon>`

   \                                 In segment DATA_I, align 4, align-sorted
   \                     dummy_icon:
   \   00000000                      DS8 8
   \   00000008                      REQUIRE `?<Initializer for dummy_icon>`

   \                                 In segment DATA_I, align 4, align-sorted
   \                     mmenusoftkeys:
   \   00000000                      DS8 12
   \   0000000C                      REQUIRE `?<Initializer for mmenusoftkeys>`

   \                                 In segment DATA_C, align 4, align-sorted
   \                     tmenu:
   \   00000000   08000000....       DC32 8, mmenu_keyhook, mmenu_ghook, 0H, mmenusoftkeys, mmenu_skt, 17
   \              ............
   \              00000000....
   \              ............
   \              11000000    
   \   0000001C   ........0000       DC32 menuitemhandler, 0H, 0H, 16
   \              000000000000
   \              10000000    
    282          extern const char conference_t[];
    283          const char exit_t[] = "exit";
   \                     exit_t:
   \   0000002C   6578697400         DC8 "exit"
   \   00000031   000000             DC8 0, 0, 0
    284          const char info_t[] = "info";
   \                     info_t:
   \   00000034   696E666F00         DC8 "info"
   \   00000039   000000             DC8 0, 0, 0
    285          const char about_t[] = "about";
   \                     about_t:
   \   0000003C   61626F757400       DC8 "about"
   \   00000042   0000               DC8 0, 0
    286          const char sett_t[] = "settings";
   \                     sett_t:
   \   00000044   73657474696E       DC8 "settings"
   \              677300      
   \   0000004D   000000             DC8 0, 0, 0
    287          const char coloricon[] = "coloricon";
   \                     coloricon:
   \   00000050   636F6C6F7269       DC8 "coloricon"
   \              636F6E00    
   \   0000005A   0000               DC8 0, 0
    288          
    289          

   \                                 In segment CODE, align 4, keep-with-next
    290          void MM_Show()
    291          {
   \                     MM_Show:
   \   00000000   F0412DE9           PUSH     {R4-R8,LR}
    292          #ifdef USE_PNG_EXT
    293            // Контакт
    294            strcpy(infopic, PATH_TO_PIC);
   \   00000004   C0419FE5           LDR      R4,??MM_Show_0   ;; menuhdr
   \   00000008   C0519FE5           LDR      R5,??MM_Show_0+0x4  ;; PATH_TO_PIC
    295            strcat(infopic,info_t);
   \   0000000C   C0619FE5           LDR      R6,??MM_Show_0+0x8  ;; tmenu
    296            strcat(infopic,png_t);
   \   00000010   C0719FE5           LDR      R7,??MM_Show_0+0xC  ;; png_t
   \   00000014   788FA0E3           MOV      R8,#+480
   \   00000018   0510A0E1           MOV      R1,R5
   \   0000001C   040088E0           ADD      R0,R8,R4
   \   00000020   1A0000EF           SWI      +26
   \   00000024   341086E2           ADD      R1,R6,#+52
   \   00000028   040088E0           ADD      R0,R8,R4
   \   0000002C   170000EF           SWI      +23
   \   00000030   0710A0E1           MOV      R1,R7
   \   00000034   040088E0           ADD      R0,R8,R4
   \   00000038   170000EF           SWI      +23
    297            S_ICONS[0] = (int)infopic;
   \   0000003C   040088E0           ADD      R0,R8,R4
   \   00000040   140084E5           STR      R0,[R4, #+20]
    298          
    299            // Статус
    300            Roster_getIconByStatus(mypic, My_Presence);
   \   00000044   90019FE5           LDR      R0,??MM_Show_0+0x10  ;; My_Presence
    301            S_ICONS[1] = (int)mypic;
    302          
    303            //Конференция...
    304            strcpy(confpic, PATH_TO_PIC);
    305            strcat(confpic,conference_t);
    306            strcat(confpic,png_t);
    307            S_ICONS[2] = (int)confpic;
    308          
    309            // Закладки
    310            S_ICONS[3] = (int)confpic;
    311          
    312            // Add Contact
    313            S_ICONS[4] = (int)confpic;
    314          
    315            // Режим звука
    316            // S_ICONS[5]
    317          
    318            // Настройки
    319            strcpy(settpic, PATH_TO_PIC);
   \   00000048   988FA0E3           MOV      R8,#+608
   \   0000004C   0010D0E5           LDRB     R1,[R0, #+0]
   \   00000050   600084E2           ADD      R0,R4,#+96
   \   00000054   ........           _BLF     Roster_getIconByStatus,??Roster_getIconByStatus??rA
   \   00000058   600084E2           ADD      R0,R4,#+96
   \   0000005C   180084E5           STR      R0,[R4, #+24]
   \   00000060   0510A0E1           MOV      R1,R5
   \   00000064   E00084E2           ADD      R0,R4,#+224
   \   00000068   1A0000EF           SWI      +26
   \   0000006C   6C119FE5           LDR      R1,??MM_Show_0+0x14  ;; conference_t
   \   00000070   E00084E2           ADD      R0,R4,#+224
   \   00000074   170000EF           SWI      +23
   \   00000078   0710A0E1           MOV      R1,R7
   \   0000007C   E00084E2           ADD      R0,R4,#+224
   \   00000080   170000EF           SWI      +23
   \   00000084   E00084E2           ADD      R0,R4,#+224
   \   00000088   1C0084E5           STR      R0,[R4, #+28]
   \   0000008C   200084E5           STR      R0,[R4, #+32]
   \   00000090   240084E5           STR      R0,[R4, #+36]
   \   00000094   0510A0E1           MOV      R1,R5
   \   00000098   040088E0           ADD      R0,R8,R4
   \   0000009C   1A0000EF           SWI      +26
    320            strcat(settpic,sett_t);
   \   000000A0   441086E2           ADD      R1,R6,#+68
   \   000000A4   040088E0           ADD      R0,R8,R4
   \   000000A8   170000EF           SWI      +23
    321            strcat(settpic,png_t);
   \   000000AC   0710A0E1           MOV      R1,R7
   \   000000B0   040088E0           ADD      R0,R8,R4
   \   000000B4   170000EF           SWI      +23
    322            S_ICONS[6] = (int)settpic;  
   \   000000B8   040088E0           ADD      R0,R8,R4
   \   000000BC   2C0084E5           STR      R0,[R4, #+44]
    323          
    324            //цвета
    325            strcpy(color_icon, PATH_TO_PIC);
   \   000000C0   D88FA0E3           MOV      R8,#+864
   \   000000C4   0510A0E1           MOV      R1,R5
   \   000000C8   040088E0           ADD      R0,R8,R4
   \   000000CC   1A0000EF           SWI      +26
    326            strcat(color_icon,coloricon);
   \   000000D0   501086E2           ADD      R1,R6,#+80
   \   000000D4   040088E0           ADD      R0,R8,R4
   \   000000D8   170000EF           SWI      +23
    327            strcat(color_icon,png_t);
   \   000000DC   0710A0E1           MOV      R1,R7
   \   000000E0   040088E0           ADD      R0,R8,R4
   \   000000E4   170000EF           SWI      +23
    328            S_ICONS[9] =(int)color_icon;
   \   000000E8   040088E0           ADD      R0,R8,R4
   \   000000EC   380084E5           STR      R0,[R4, #+56]
    329            // Об эльфе...
    330            strcpy(aboutpic, PATH_TO_PIC);
   \   000000F0   B88FA0E3           MOV      R8,#+736
   \   000000F4   0510A0E1           MOV      R1,R5
   \   000000F8   040088E0           ADD      R0,R8,R4
   \   000000FC   1A0000EF           SWI      +26
    331            strcat(aboutpic,about_t);
   \   00000100   3C1086E2           ADD      R1,R6,#+60
   \   00000104   040088E0           ADD      R0,R8,R4
   \   00000108   170000EF           SWI      +23
    332            strcat(aboutpic,png_t);
   \   0000010C   0710A0E1           MOV      R1,R7
   \   00000110   040088E0           ADD      R0,R8,R4
   \   00000114   170000EF           SWI      +23
    333            S_ICONS[7] = (int)aboutpic;
   \   00000118   040088E0           ADD      R0,R8,R4
   \   0000011C   300084E5           STR      R0,[R4, #+48]
    334          
    335            // Выход
    336            strcpy(exitpic, PATH_TO_PIC);
   \   00000120   588FA0E3           MOV      R8,#+352
   \   00000124   0510A0E1           MOV      R1,R5
   \   00000128   040088E0           ADD      R0,R8,R4
   \   0000012C   1A0000EF           SWI      +26
    337            strcat(exitpic,exit_t);
   \   00000130   2C1086E2           ADD      R1,R6,#+44
   \   00000134   040088E0           ADD      R0,R8,R4
   \   00000138   170000EF           SWI      +23
    338            strcat(exitpic,png_t);
   \   0000013C   0710A0E1           MOV      R1,R7
   \   00000140   040088E0           ADD      R0,R8,R4
   \   00000144   170000EF           SWI      +23
    339            S_ICONS[8] = (int)exitpic;
   \   00000148   040088E0           ADD      R0,R8,R4
   \   0000014C   340084E5           STR      R0,[R4, #+52]
    340          
    341          //  menuitems[0].icon = S_ICONS+0;
    342          //  menuitems[1].icon = S_ICONS+1;
    343          //  menuitems[2].icon = S_ICONS+2;
    344          //  menuitems[3].icon = S_ICONS+3;
    345          //  menuitems[6].icon = S_ICONS+6;
    346          //  menuitems[7].icon = S_ICONS+7;
    347          
    348          
    349          #else
    350            S_ICONS[0] = Roster_getIconByStatus(My_Presence);
    351          //  menuitems[1].icon = S_ICONS;
    352          #endif
    353          
    354            icon_array[0]=GetPicNByUnicodeSymbol(CBOX_CHECKED);
   \   00000150   1600A0E3           MOV      R0,#+22
   \   00000154   E10C80E3           ORR      R0,R0,#0xE100
   \   00000158   E40100EF           SWI      +484
   \   0000015C   540084E5           STR      R0,[R4, #+84]
    355            icon_array[1]=GetPicNByUnicodeSymbol(CBOX_UNCHECKED);
   \   00000160   1700A0E3           MOV      R0,#+23
   \   00000164   E10C80E3           ORR      R0,R0,#0xE100
   \   00000168   E40100EF           SWI      +484
   \   0000016C   580084E5           STR      R0,[R4, #+88]
    356          
    357            patch_header(&menuhdr);
   \   00000170   0000A0E3           MOV      R0,#+0
   \   00000174   B000C4E1           STRH     R0,[R4, #+0]
   \   00000178   1800A0E3           MOV      R0,#+24
   \   0000017C   B200C4E1           STRH     R0,[R4, #+2]
   \   00000180   888100EF           SWI      +33160
   \   00000184   010040E2           SUB      R0,R0,#+1
   \   00000188   B400C4E1           STRH     R0,[R4, #+4]
   \   0000018C   8A8100EF           SWI      +33162
   \   00000190   180080E2           ADD      R0,R0,#+24
   \   00000194   B600C4E1           STRH     R0,[R4, #+6]
    358            MainMenu_ID = CreateMenu(0,0,&tmenu,&menuhdr,0,N_ITEMS,0,0);
   \   00000198   0000A0E3           MOV      R0,#+0
   \   0000019C   01002DE9           PUSH     {R0}
   \   000001A0   01002DE9           PUSH     {R0}
   \   000001A4   0430A0E1           MOV      R3,R4
   \   000001A8   0620A0E1           MOV      R2,R6
   \   000001AC   0010A0E3           MOV      R1,#+0
   \   000001B0   1000A0E3           MOV      R0,#+16
   \   000001B4   01002DE9           PUSH     {R0}
   \   000001B8   0000A0E3           MOV      R0,#+0
   \   000001BC   01002DE9           PUSH     {R0}
   \   000001C0   520100EF           SWI      +338
   \   000001C4   5C0084E5           STR      R0,[R4, #+92]
    359          }
   \   000001C8   FF81BDE8           POP      {R0-R8,PC}       ;; return
   \                     ??MM_Show_0:
   \   000001CC   ........           DC32     menuhdr
   \   000001D0   ........           DC32     PATH_TO_PIC
   \   000001D4   ........           DC32     tmenu
   \   000001D8   ........           DC32     png_t
   \   000001DC   ........           DC32     My_Presence
   \   000001E0   ........           DC32     conference_t

   \                                 In segment CODE, align 4, keep-with-next
   \                     ??DataTable7:
   \   00000000   ........           DC32     Jabber_state

   \                                 In segment CODE, align 4, keep-with-next
   \                     ??DataTable8:
   \   00000000   ........           DC32     Is_Vibra_Enabled

   \                                 In segment CODE, align 4, keep-with-next
   \                     ??DataTable9:
   \   00000000   ........           DC32     Is_Sounds_Enabled

   \                                 In segment CODE, align 4, keep-with-next
   \                     ??DataTable10:
   \   00000000   ........           DC32     Is_Autostatus_Enabled

   \                                 In segment CODE, align 4, keep-with-next
   \                     ??DataTable11:
   \   00000000   ........           DC32     Is_Playerstatus_Enabled

   \                                 In segment CODE, align 4, keep-with-next
   \                     ??DataTable12:
   \   00000000   ........           DC32     Is_Smiles_Enabled

   \                                 In segment DATA_ID, align 4, align-sorted
   \                     `?<Initializer for menuhdr>`:
   \   00000000   000000008300       DC16 0, 0, 131, 21
   \              1500        
   \   00000008   00000000....       DC32 0H, `?<Constant "\\314\\345\\355\\376">`, 2147483647
   \              ....FFFFFF7F
   \                     `?<Initializer for S_ICONS>`:
   \   00000014   000000000000       DC8 0, 0, 0, 0, 0, 0, 0, 0, 0, 0, 0, 0, 0, 0, 0, 0
   \              000000000000
   \              00000000    
   \   00000024   000000000000       DC8 0, 0, 0, 0, 0, 0, 0, 0, 0, 0, 0, 0, 0, 0, 0, 0
   \              000000000000
   \              00000000    
   \   00000034   000000000000       DC8 0, 0, 0, 0, 0, 0, 0, 0, 0, 0, 0, 0, 0, 0, 0, 0
   \              000000000000
   \              00000000    
   \   00000044   000000000000       DC8 0, 0, 0, 0, 0, 0, 0, 0, 0, 0, 0, 0, 0, 0, 0, 0
   \              000000000000
   \              00000000    
   \                     `?<Initializer for icon_array>`:
   \   00000054   000000000000       DC8 0, 0, 0, 0, 0, 0, 0, 0
   \              0000        
   \                     `?<Initializer for MainMenu_ID>`:
   \   0000005C   00000000           DC8 0, 0, 0, 0
   \                     `?<Initializer for mypic>`:
   \   00000060   000000000000       DC8 0, 0, 0, 0, 0, 0, 0, 0, 0, 0, 0, 0, 0, 0, 0, 0
   \              000000000000
   \              00000000    
   \   00000070   000000000000       DC8 0, 0, 0, 0, 0, 0, 0, 0, 0, 0, 0, 0, 0, 0, 0, 0
   \              000000000000
   \              00000000    
   \   00000080   000000000000       DC8 0, 0, 0, 0, 0, 0, 0, 0, 0, 0, 0, 0, 0, 0, 0, 0
   \              000000000000
   \              00000000    
   \   00000090   000000000000       DC8 0, 0, 0, 0, 0, 0, 0, 0, 0, 0, 0, 0, 0, 0, 0, 0
   \              000000000000
   \              00000000    
   \   000000A0   000000000000       DC8 0, 0, 0, 0, 0, 0, 0, 0, 0, 0, 0, 0, 0, 0, 0, 0
   \              000000000000
   \              00000000    
   \   000000B0   000000000000       DC8 0, 0, 0, 0, 0, 0, 0, 0, 0, 0, 0, 0, 0, 0, 0, 0
   \              000000000000
   \              00000000    
   \   000000C0   000000000000       DC8 0, 0, 0, 0, 0, 0, 0, 0, 0, 0, 0, 0, 0, 0, 0, 0
   \              000000000000
   \              00000000    
   \   000000D0   000000000000       DC8 0, 0, 0, 0, 0, 0, 0, 0, 0, 0, 0, 0, 0, 0, 0, 0
   \              000000000000
   \              00000000    
   \                     `?<Initializer for confpic>`:
   \   000000E0   000000000000       DC8 0, 0, 0, 0, 0, 0, 0, 0, 0, 0, 0, 0, 0, 0, 0, 0
   \              000000000000
   \              00000000    
   \   000000F0   000000000000       DC8 0, 0, 0, 0, 0, 0, 0, 0, 0, 0, 0, 0, 0, 0, 0, 0
   \              000000000000
   \              00000000    
   \   00000100   000000000000       DC8 0, 0, 0, 0, 0, 0, 0, 0, 0, 0, 0, 0, 0, 0, 0, 0
   \              000000000000
   \              00000000    
   \   00000110   000000000000       DC8 0, 0, 0, 0, 0, 0, 0, 0, 0, 0, 0, 0, 0, 0, 0, 0
   \              000000000000
   \              00000000    
   \   00000120   000000000000       DC8 0, 0, 0, 0, 0, 0, 0, 0, 0, 0, 0, 0, 0, 0, 0, 0
   \              000000000000
   \              00000000    
   \   00000130   000000000000       DC8 0, 0, 0, 0, 0, 0, 0, 0, 0, 0, 0, 0, 0, 0, 0, 0
   \              000000000000
   \              00000000    
   \   00000140   000000000000       DC8 0, 0, 0, 0, 0, 0, 0, 0, 0, 0, 0, 0, 0, 0, 0, 0
   \              000000000000
   \              00000000    
   \   00000150   000000000000       DC8 0, 0, 0, 0, 0, 0, 0, 0, 0, 0, 0, 0, 0, 0, 0, 0
   \              000000000000
   \              00000000    
   \                     `?<Initializer for exitpic>`:
   \   00000160   000000000000       DC8 0, 0, 0, 0, 0, 0, 0, 0, 0, 0, 0, 0, 0, 0, 0, 0
   \              000000000000
   \              00000000    
   \   00000170   000000000000       DC8 0, 0, 0, 0, 0, 0, 0, 0, 0, 0, 0, 0, 0, 0, 0, 0
   \              000000000000
   \              00000000    
   \   00000180   000000000000       DC8 0, 0, 0, 0, 0, 0, 0, 0, 0, 0, 0, 0, 0, 0, 0, 0
   \              000000000000
   \              00000000    
   \   00000190   000000000000       DC8 0, 0, 0, 0, 0, 0, 0, 0, 0, 0, 0, 0, 0, 0, 0, 0
   \              000000000000
   \              00000000    
   \   000001A0   000000000000       DC8 0, 0, 0, 0, 0, 0, 0, 0, 0, 0, 0, 0, 0, 0, 0, 0
   \              000000000000
   \              00000000    
   \   000001B0   000000000000       DC8 0, 0, 0, 0, 0, 0, 0, 0, 0, 0, 0, 0, 0, 0, 0, 0
   \              000000000000
   \              00000000    
   \   000001C0   000000000000       DC8 0, 0, 0, 0, 0, 0, 0, 0, 0, 0, 0, 0, 0, 0, 0, 0
   \              000000000000
   \              00000000    
   \   000001D0   000000000000       DC8 0, 0, 0, 0, 0, 0, 0, 0, 0, 0, 0, 0, 0, 0, 0, 0
   \              000000000000
   \              00000000    
   \                     `?<Initializer for infopic>`:
   \   000001E0   000000000000       DC8 0, 0, 0, 0, 0, 0, 0, 0, 0, 0, 0, 0, 0, 0, 0, 0
   \              000000000000
   \              00000000    
   \   000001F0   000000000000       DC8 0, 0, 0, 0, 0, 0, 0, 0, 0, 0, 0, 0, 0, 0, 0, 0
   \              000000000000
   \              00000000    
   \   00000200   000000000000       DC8 0, 0, 0, 0, 0, 0, 0, 0, 0, 0, 0, 0, 0, 0, 0, 0
   \              000000000000
   \              00000000    
   \   00000210   000000000000       DC8 0, 0, 0, 0, 0, 0, 0, 0, 0, 0, 0, 0, 0, 0, 0, 0
   \              000000000000
   \              00000000    
   \   00000220   000000000000       DC8 0, 0, 0, 0, 0, 0, 0, 0, 0, 0, 0, 0, 0, 0, 0, 0
   \              000000000000
   \              00000000    
   \   00000230   000000000000       DC8 0, 0, 0, 0, 0, 0, 0, 0, 0, 0, 0, 0, 0, 0, 0, 0
   \              000000000000
   \              00000000    
   \   00000240   000000000000       DC8 0, 0, 0, 0, 0, 0, 0, 0, 0, 0, 0, 0, 0, 0, 0, 0
   \              000000000000
   \              00000000    
   \   00000250   000000000000       DC8 0, 0, 0, 0, 0, 0, 0, 0, 0, 0, 0, 0, 0, 0, 0, 0
   \              000000000000
   \              00000000    
   \                     `?<Initializer for settpic>`:
   \   00000260   000000000000       DC8 0, 0, 0, 0, 0, 0, 0, 0, 0, 0, 0, 0, 0, 0, 0, 0
   \              000000000000
   \              00000000    
   \   00000270   000000000000       DC8 0, 0, 0, 0, 0, 0, 0, 0, 0, 0, 0, 0, 0, 0, 0, 0
   \              000000000000
   \              00000000    
   \   00000280   000000000000       DC8 0, 0, 0, 0, 0, 0, 0, 0, 0, 0, 0, 0, 0, 0, 0, 0
   \              000000000000
   \              00000000    
   \   00000290   000000000000       DC8 0, 0, 0, 0, 0, 0, 0, 0, 0, 0, 0, 0, 0, 0, 0, 0
   \              000000000000
   \              00000000    
   \   000002A0   000000000000       DC8 0, 0, 0, 0, 0, 0, 0, 0, 0, 0, 0, 0, 0, 0, 0, 0
   \              000000000000
   \              00000000    
   \   000002B0   000000000000       DC8 0, 0, 0, 0, 0, 0, 0, 0, 0, 0, 0, 0, 0, 0, 0, 0
   \              000000000000
   \              00000000    
   \   000002C0   000000000000       DC8 0, 0, 0, 0, 0, 0, 0, 0, 0, 0, 0, 0, 0, 0, 0, 0
   \              000000000000
   \              00000000    
   \   000002D0   000000000000       DC8 0, 0, 0, 0, 0, 0, 0, 0, 0, 0, 0, 0, 0, 0, 0, 0
   \              000000000000
   \              00000000    
   \                     `?<Initializer for aboutpic>`:
   \   000002E0   000000000000       DC8 0, 0, 0, 0, 0, 0, 0, 0, 0, 0, 0, 0, 0, 0, 0, 0
   \              000000000000
   \              00000000    
   \   000002F0   000000000000       DC8 0, 0, 0, 0, 0, 0, 0, 0, 0, 0, 0, 0, 0, 0, 0, 0
   \              000000000000
   \              00000000    
   \   00000300   000000000000       DC8 0, 0, 0, 0, 0, 0, 0, 0, 0, 0, 0, 0, 0, 0, 0, 0
   \              000000000000
   \              00000000    
   \   00000310   000000000000       DC8 0, 0, 0, 0, 0, 0, 0, 0, 0, 0, 0, 0, 0, 0, 0, 0
   \              000000000000
   \              00000000    
   \   00000320   000000000000       DC8 0, 0, 0, 0, 0, 0, 0, 0, 0, 0, 0, 0, 0, 0, 0, 0
   \              000000000000
   \              00000000    
   \   00000330   000000000000       DC8 0, 0, 0, 0, 0, 0, 0, 0, 0, 0, 0, 0, 0, 0, 0, 0
   \              000000000000
   \              00000000    
   \   00000340   000000000000       DC8 0, 0, 0, 0, 0, 0, 0, 0, 0, 0, 0, 0, 0, 0, 0, 0
   \              000000000000
   \              00000000    
   \   00000350   000000000000       DC8 0, 0, 0, 0, 0, 0, 0, 0, 0, 0, 0, 0, 0, 0, 0, 0
   \              000000000000
   \              00000000    
   \                     `?<Initializer for color_icon>`:
   \   00000360   000000000000       DC8 0, 0, 0, 0, 0, 0, 0, 0, 0, 0, 0, 0, 0, 0, 0, 0
   \              000000000000
   \              00000000    
   \   00000370   000000000000       DC8 0, 0, 0, 0, 0, 0, 0, 0, 0, 0, 0, 0, 0, 0, 0, 0
   \              000000000000
   \              00000000    
   \   00000380   000000000000       DC8 0, 0, 0, 0, 0, 0, 0, 0, 0, 0, 0, 0, 0, 0, 0, 0
   \              000000000000
   \              00000000    
   \   00000390   000000000000       DC8 0, 0, 0, 0, 0, 0, 0, 0, 0, 0, 0, 0, 0, 0, 0, 0
   \              000000000000
   \              00000000    
   \   000003A0   000000000000       DC8 0, 0, 0, 0, 0, 0, 0, 0, 0, 0, 0, 0, 0, 0, 0, 0
   \              000000000000
   \              00000000    
   \   000003B0   000000000000       DC8 0, 0, 0, 0, 0, 0, 0, 0, 0, 0, 0, 0, 0, 0, 0, 0
   \              000000000000
   \              00000000    
   \   000003C0   000000000000       DC8 0, 0, 0, 0, 0, 0, 0, 0, 0, 0, 0, 0, 0, 0, 0, 0
   \              000000000000
   \              00000000    
   \   000003D0   000000000000       DC8 0, 0, 0, 0, 0, 0, 0, 0, 0, 0, 0, 0, 0, 0, 0, 0
   \              000000000000
   \              00000000    

   \                                 In segment DATA_ID, align 4, align-sorted
   \                     `?<Initializer for icon>`:
   \   00000000   DB0300000000       DC32 987, 0
   \              0000        

   \                                 In segment DATA_ID, align 4, align-sorted
   \                     `?<Initializer for about_icon>`:
   \   00000000   DB0400000000       DC32 1243, 0
   \              0000        

   \                                 In segment DATA_ID, align 4, align-sorted
   \                     `?<Initializer for dummy_icon>`:
   \   00000000   0E0500000000       DC32 1294, 0
   \              0000        

   \                                 In segment DATA_ID, align 4, align-sorted
   \                     `?<Initializer for mmenusoftkeys>`:
   \   00000000   000000000100       DC32 0, 1, 2
   \              000002000000

   \                                 In segment DATA_C, align 4, align-sorted
   \                     `?<Constant "\\302\\373\\365\\356\\344">`:
   \   00000000   C2FBF5EEE400       DC8 "\302\373\365\356\344"
   \   00000006   0000               DC8 0, 0

   \                                 In segment DATA_C, align 4, align-sorted
   \                     `?<Constant "\\302\\373\\341\\356\\360">`:
   \   00000000   C2FBE1EEF000       DC8 "\302\373\341\356\360"
   \   00000006   0000               DC8 0, 0

   \                                 In segment DATA_C, align 4, align-sorted
   \                     `?<Constant "\\316\\341 \\375\\353\\374\\364\\345...">`:
   \   00000000   CEE120FDEBFC       DC8 "\316\341 \375\353\374\364\345..."
   \              F4E52E2E2E00

   \                                 In segment DATA_C, align 4, align-sorted
   \                     `?<Constant "\\326\\342\\345\\362\\340">`:
   \   00000000   D6E2E5F2E000       DC8 "\326\342\345\362\340"
   \   00000006   0000               DC8 0, 0

   \                                 In segment DATA_C, align 4, align-sorted
   \                     `?<Constant "\\315\\340\\361\\362\\360\\356\\345\\355\\3`:
   \   00000000   CDE0F1F2F0EE       DC8 "\315\340\361\362\360\356\345\355\350\377"
   \              E5EDE8FF00  
   \   0000000B   00                 DC8 0

   \                                 In segment DATA_C, align 4, align-sorted
   \                     `?<Constant "\\315\\340\\361\\362\\360\\356\\351\\352\\3`:
   \   00000000   CDE0F1F2F0EE       DC8 "\315\340\361\362\360\356\351\352\350"
   \              E9EAE800    
   \   0000000A   0000               DC8 0, 0

   \                                 In segment DATA_C, align 4, align-sorted
   \                     `?<Constant "\\321\\354\\340\\351\\353\\373">`:
   \   00000000   D1ECE0E9EBFB       DC8 "\321\354\340\351\353\373"
   \              00          
   \   00000007   00                 DC8 0

   \                                 In segment DATA_C, align 4, align-sorted
   \                     `?<Constant "\\317\\353\\345\\345\\360-\\361\\362\\340\\`:
   \   00000000   CFEBE5E5F02D       DC8 "\317\353\345\345\360-\361\362\340\362\363\361"
   \              F1F2E0F2F3F1
   \              00          
   \   0000000D   000000             DC8 0, 0, 0

   \                                 In segment DATA_C, align 4, align-sorted
   \                     `?<Constant "\\300\\342\\362\\356\\361\\362\\340\\362\\3`:
   \   00000000   C0E2F2EEF1F2       DC8 "\300\342\362\356\361\362\340\362\363\361"
   \              E0F2F3F100  
   \   0000000B   00                 DC8 0

   \                                 In segment DATA_C, align 4, align-sorted
   \                     `?<Constant "\\316\\364\\364. \\352\\356\\355\\362\\340`:
   \   00000000   CEF4F42E20EA       DC8 "\316\364\364. \352\356\355\362\340\352\362\373"
   \              EEEDF2E0EAF2
   \              FB00        
   \   0000000E   0000               DC8 0, 0

   \                                 In segment DATA_C, align 4, align-sorted
   \                     `?<Constant "\\320\\345\\346\\350\\354 \\347\\342\\363\\`:
   \   00000000   D0E5E6E8EC20       DC8 "\320\345\346\350\354 \347\342\363\352\340"
   \              E7E2F3EAE000

   \                                 In segment DATA_C, align 4, align-sorted
   \                     `?<Constant "\\320\\345\\346\\350\\354 \\342\\350\\341\\`:
   \   00000000   D0E5E6E8EC20       DC8 "\320\345\346\350\354 \342\350\341\360\373"
   \              E2E8E1F0FB00

   \                                 In segment DATA_C, align 4, align-sorted
   \                     `?<Constant "\\304\\356\\341\\340\\342\\350\\362\\374 \\`:
   \   00000000   C4EEE1E0E2E8       DC8 "\304\356\341\340\342\350\362\374 \352\356\355\362\340\352\362"
   \              F2FC20EAEEED
   \              F2E0EAF200  
   \   00000011   000000             DC8 0, 0, 0

   \                                 In segment DATA_C, align 4, align-sorted
   \                     `?<Constant "\\312\\356\\355\\364\\345\\360\\345\\355\\3`:
   \   00000000   CAEEEDF4E5F0       DC8 "\312\356\355\364\345\360\345\355\366\350\377"
   \              E5EDF6E8FF00

   \                                 In segment DATA_C, align 4, align-sorted
   \                     `?<Constant "\\307\\340\\352\\353\\340\\344\\352\\350">`:
   \   00000000   C7E0EAEBE0E4       DC8 "\307\340\352\353\340\344\352\350"
   \              EAE800      
   \   00000009   000000             DC8 0, 0, 0

   \                                 In segment DATA_C, align 4, align-sorted
   \                     `?<Constant "\\321\\362\\340\\362\\363\\361">`:
   \   00000000   D1F2E0F2F3F1       DC8 "\321\362\340\362\363\361"
   \              00          
   \   00000007   00                 DC8 0

   \                                 In segment DATA_C, align 4, align-sorted
   \                     `?<Constant "\\312\\356\\355\\362\\340\\352\\362">`:
   \   00000000   CAEEEDF2E0EA       DC8 "\312\356\355\362\340\352\362"
   \              F200        

   \                                 In segment DATA_C, align 4, align-sorted
   \                     `?<Constant "\\314\\345\\355\\376">`:
   \   00000000   CCE5EDFE00         DC8 "\314\345\355\376"
   \   00000005   000000             DC8 0, 0, 0

   \                                 In segment DATA_C, align 4, align-sorted
   \                     `?<Constant "\\315\\340\\347\\340\\344">`:
   \   00000000   CDE0E7E0E400       DC8 "\315\340\347\340\344"
   \   00000006   0000               DC8 0, 0

   \                                 In segment DATA_C, align 4, align-sorted
   \                     `?<Constant "Siemens natJabber Cli...">`:
   \   00000000   5369656D656E       DC8 53H, 69H, 65H, 6DH, 65H, 6EH, 73H, 20H
   \              7320        
   \   00000008   6E61744A6162       DC8 6EH, 61H, 74H, 4AH, 61H, 62H, 62H, 65H
   \              6265        
   \   00000010   7220436C6965       DC8 72H, 20H, 43H, 6CH, 69H, 65H, 6EH, 74H
   \              6E74        
   \   00000018   0A2863294B69       DC8 0AH, 28H, 63H, 29H, 4BH, 69H, 62H, 61H
   \              6261        
   \   00000020   622C2041642C       DC8 62H, 2CH, 20H, 41H, 64H, 2CH, 20H, 42H
   \              2042        
   \   00000028   6F726D616E39       DC8 6FH, 72H, 6DH, 61H, 6EH, 39H, 39H, 0AH
   \              390A        
   \   00000030   257320722569       DC8 25H, 73H, 20H, 72H, 25H, 69H, 0AH, 43H
   \              0A43        
   \   00000038   6F6D70696C65       DC8 6FH, 6DH, 70H, 69H, 6CH, 65H, 64H, 20H
   \              6420        
   \   00000040   257300             DC8 25H, 73H, 0
   \   00000043   00                 DC8 0
   \   00000044   466562203135       DC8 "Feb 15 2011"
   \              203230313100

   \                                 In segment DATA_C, align 4, align-sorted
   \                     `?<Constant "\\320\\340\\347\\344\\345\\353 \\342 \\360`:
   \   00000000   D0E0E7E4E5EB       DC8 "\320\340\347\344\345\353 \342 \360\340\347\360\340\341\356\362\352\345 :)"
   \              20E220F0E0E7
   \              F0E0E1EEF2EA
   \              E5203A2900  
   \   00000017   00                 DC8 0
    360          //EOL,EOF

   Maximum stack usage in bytes:

     Function                  CSTACK
     --------                  ------
     AboutDlg                     92
     AddContact                    4
     ChangeAutostatusMode          4
     ChangeOffContMode             4
     ChangePlayerstatusMode        4
     ChangeSmilesMode              4
     ChangeSoundMode               4
     ChangeVibraMode               4
     Dummy                         4
     Exit_SieJC                    4
     MM_Show                      40
     OpenBookmarks_List            4
     OpenDisp_MUC_Enter_Dialog     4
     OpenSettings_                 4
     menuitemhandler              24
     mmenu_ghook                   4
     mmenu_keyhook                 4


   Segment part sizes:

     Function/Label                 Bytes
     --------------                 -----
     AboutDlg                        132
     Dummy                            24
     ChangeVibraMode                  36
     ChangeSoundMode                  36
     ChangeAutostatusMode             36
     ChangePlayerstatusMode           36
     ChangeSmilesMode                 36
     ChangeOffContMode                16
     OpenSettings_                    20
     AddContact                       32
     OpenBookmarks_List               28
     OpenDisp_MUC_Enter_Dialog        40
     Exit_SieJC                       24
     menutexts                        64
     menuprocs                        64
     mmenu_sk                         24
     mmenu_skt                         8
     menuitemhandler                 320
     mmenu_ghook                      20
     mmenu_keyhook                    48
     menuhdr                         992
     icon                              8
     about_icon                        8
     dummy_icon                        8
     mmenusoftkeys                    12
     tmenu                            92
     MM_Show                         484
     ??DataTable7                      4
     ??DataTable8                      4
     ??DataTable9                      4
     ??DataTable10                     4
     ??DataTable11                     4
     ??DataTable12                     4
     ?<Initializer for menuhdr>      992
     ?<Initializer for icon>           8
     ?<Initializer for about_icon>     8
     ?<Initializer for dummy_icon>     8
     ?<Initializer for mmenusoftkeys>
                                      12
     ?<Constant "\302\373\365\356\344">
                                       8
     ?<Constant "\302\373\341\356\360">
                                       8
     ?<Constant "\316\341 \375\353\374\364\345...">
                                      12
     ?<Constant "\326\342\345\362\340">
                                       8
     ?<Constant "\315\340\361\362\360\356\345\355\3
                                      12
     ?<Constant "\315\340\361\362\360\356\351\352\3
                                      12
     ?<Constant "\321\354\340\351\353\373">
                                       8
     ?<Constant "\317\353\345\345\360-\361\362\340\
                                      16
     ?<Constant "\300\342\362\356\361\362\340\362\3
                                      12
     ?<Constant "\316\364\364. \352\356\355\362\340
                                      16
     ?<Constant "\320\345\346\350\354 \347\342\363\
                                      12
     ?<Constant "\320\345\346\350\354 \342\350\341\
                                      12
     ?<Constant "\304\356\341\340\342\350\362\374 \
                                      20
     ?<Constant "\312\356\355\364\345\360\345\355\3
                                      12
     ?<Constant "\307\340\352\353\340\344\352\350">
                                      12
     ?<Constant "\321\362\340\362\363\361">
                                       8
     ?<Constant "\312\356\355\362\340\352\362">
                                       8
     ?<Constant "\314\345\355\376">    8
     ?<Constant "\315\340\347\340\344">
                                       8
     ?<Constant "Siemens natJabber Cli...">
                                      80
     ?<Constant "\320\340\347\344\345\353 \342 \360
                                      24
      Others                         176

 
 1 556 bytes in segment CODE
   568 bytes in segment DATA_C
 1 028 bytes in segment DATA_I
 1 028 bytes in segment DATA_ID
    12 bytes in segment INITTAB
 
 1 392 bytes of CODE  memory (+ 176 bytes shared)
 1 596 bytes of CONST memory
 1 028 bytes of DATA  memory

Errors: none
Warnings: none
