##############################################################################
#                                                                            #
# IAR ARM ANSI C/C++ Compiler V4.42A/W32 EVALUATION    15/Feb/2011  01:38:55 #
# Copyright 1999-2005 IAR Systems. All rights reserved.                      #
#                                                                            #
#    Cpu mode        =  interwork                                            #
#    Endian          =  little                                               #
#    Stack alignment =  4                                                    #
#    Source file     =  C:\arm\SieJC_BR\moods.c                              #
#    Command line    =  C:\arm\SieJC_BR\moods.c -D NEWSGOLD -D ELKA          #
#                       --preprocess C:\arm\SieJC_BR\Release_ELKA\List\ -lC  #
#                       C:\arm\SieJC_BR\Release_ELKA\List\ -o                #
#                       C:\arm\SieJC_BR\Release_ELKA\Obj\ -s9 --no_unroll    #
#                       --cpu_mode arm --endian little --cpu ARM926EJ-S      #
#                       --stack_align 4 --interwork -e --fpu None            #
#                       --dlib_config "C:\arm2\Embedded Workbench 4.0        #
#                       Evaluation\ARM\LIB\dl5tpainl8n.h" -I                 #
#                       "C:\arm2\Embedded Workbench 4.0                      #
#                       Evaluation\ARM\INC\" --inline_threshold=2            #
#    List file       =  C:\arm\SieJC_BR\Release_ELKA\List\moods.lst          #
#    Object file     =  C:\arm\SieJC_BR\Release_ELKA\Obj\moods.r79           #
#                                                                            #
#                                                                            #
##############################################################################

C:\arm\SieJC_BR\moods.c
      1          #include "../inc/swilib.h"
      2          #include "lang.h"
      3          #include "string_util.h"
      4          #include "rect_patcher.h"
      5          #include "moods.h"
      6          #include "main.h"
      7          #include "jabber_util.h"
      8          
      9          #define moods_items 62
     10          extern char My_Mood_Presence;
     11          extern const char PATH_TO_PIC[128];
     12          char PATH_TO_MOODS[256];
     13          int moodt_pos;
     14          char *smood;
     15          
     16          const char *moods_texts[moods_items] = 
     17          {
     18            LG_M_EMPTY,
     19            LG_M_AFRAID,
     20            LG_M_AMAZED,
     21            LG_M_ANGRY,
     22            LG_M_ANNOYED,
     23            LG_M_ANXIOUS,
     24            LG_M_AROUSED,
     25            LG_M_ASHAMED,
     26            LG_M_BORED,
     27            LG_M_BRAVE,
     28            LG_M_CALM,
     29            LG_M_COLD,
     30            LG_M_CONFUSED,
     31            LG_M_CONTENTED,
     32            LG_M_CRANKY,
     33            LG_M_CURIOUS,
     34            LG_M_DEPRESSED,
     35            LG_M_DISAPPOINTED,
     36            LG_M_DISGUSTED,
     37            LG_M_DISTRACTED,
     38            LG_M_EMBARRASSED,
     39            LG_M_EXCITED,
     40            LG_M_FLIRTATIOUS,
     41            LG_M_FRUSTRATED,
     42            LG_M_GRUMPY,
     43            LG_M_GUILTY,
     44            LG_M_HAPPY,
     45            LG_M_HOT,
     46            LG_M_HUMBLED,
     47            LG_M_HUMILIATED,
     48            LG_M_HUNGRY,
     49            LG_M_HURT,
     50            LG_M_IMPRESSED,
     51            LG_M_IN_AWE,
     52            LG_M_IN_LOVE,
     53            LG_M_INDIGNANT,
     54            LG_M_INTERESTED,
     55            LG_M_INTOXICATED,
     56            LG_M_INVINCIBLE,
     57            LG_M_JEALOUS,
     58            LG_M_LONELY,
     59            LG_M_MEAN,
     60            LG_M_MOODY,
     61            LG_M_NERVOUS,
     62            LG_M_NEUTRAL,
     63            LG_M_OFFENDED,
     64            LG_M_PLAYFUL,
     65            LG_M_PROUD,
     66            LG_M_RELIEVED,
     67            LG_M_REMORSEFUL,
     68            LG_M_RESTLESS,
     69            LG_M_SAD,
     70            LG_M_SARCASTIC,
     71            LG_M_SERIOUS,
     72            LG_M_SHOCKED,
     73            LG_M_SHY,
     74            LG_M_SICK,
     75            LG_M_SLEEPY,
     76            LG_M_STRESSED,
     77            LG_M_SURPRISED,
     78            LG_M_THIRSTY,
     79            LG_M_WORRIED
     80          };
     81          
     82          char *moods[moods_items] = 
     83          {
     84            "EMPTY",
     85            "afraid",
     86            "amazed",
     87            "angry",
     88            "annoyed",
     89            "anxious",
     90            "aroused",
     91            "ashamed",
     92            "bored",
     93            "brave",
     94            "calm",
     95            "cold",
     96            "confused",
     97            "contented",
     98            "cranky",
     99            "curious",
    100            "depressed",
    101            "disappointed",
    102            "disgusted",
    103            "distracted",
    104            "embarrassed",
    105            "excited",
    106            "flirtatious",
    107            "frustrated",
    108            "grumpy",
    109            "guilty",
    110            "happy",
    111            "hot",
    112            "humbled",
    113            "humiliated",
    114            "hungry",
    115            "hurt",
    116            "impressed",
    117            "in_awe",
    118            "in_love",
    119            "indignant",
    120            "interested",
    121            "intoxicated",
    122            "invincible",
    123            "jealous",
    124            "lonely",
    125            "mean",
    126            "moody",
    127            "nervous",
    128            "neutral",
    129            "offended",
    130            "playful",
    131            "proud",
    132            "relieved",
    133            "remorseful",
    134            "restless",
    135            "sad",
    136            "sarcastic",
    137            "serious",
    138            "shocked",
    139            "shy",
    140            "sick",
    141            "sleepy",
    142            "stressed",
    143            "surprised",
    144            "thirsty",
    145            "worried"
    146          };
    147          

   \                                 In segment CODE, align 4, keep-with-next
    148          void moodt_locret(void) {};
   \                     moodt_locret:
   \   00000000   1EFF2FE1           BX       LR               ;; return
    149          

   \                                 In segment CODE, align 4, keep-with-next
    150          int moodt_onkey(GUI *gui, GUI_MSG *msg)
    151          {
   \                     moodt_onkey:
   \   00000000   70402DE9           PUSH     {R4-R6,LR}
   \   00000004   30D04DE2           SUB      SP,SP,#+48
   \   00000008   0040A0E1           MOV      R4,R0
    152            if (msg->gbsmsg->msg == KEY_DOWN)
   \   0000000C   040091E5           LDR      R0,[R1, #+4]
   \   00000010   9330A0E3           MOV      R3,#+147
   \   00000014   042090E5           LDR      R2,[R0, #+4]
   \   00000018   403F83E3           ORR      R3,R3,#0x100
   \   0000001C   030052E1           CMP      R2,R3
   \   00000020   1800001A           BNE      ??moodt_onkey_0
    153            {
    154              if ((msg->gbsmsg->submess == GREEN_BUTTON) || (msg->keys == 0x0018))
   \   00000024   080090E5           LDR      R0,[R0, #+8]
   \   00000028   0B0050E3           CMP      R0,#+11
   \   0000002C   F200D111           LDRSHNE  R0,[R1, #+2]
   \   00000030   18005013           CMPNE    R0,#+24
   \   00000034   1300001A           BNE      ??moodt_onkey_0
    155              {
    156                EDITCONTROL ec;
    157                char *s = malloc(256);
    158                int len;
    159                ExtractEditControl(gui, moodt_pos, &ec);
   \   00000038   54609FE5           LDR      R6,??moodt_onkey_1  ;; moodt_desc
   \   0000003C   400FA0E3           MOV      R0,#+256
   \   00000040   140000EF           SWI      +20
   \   00000044   4C1096E5           LDR      R1,[R6, #+76]
   \   00000048   0050A0E1           MOV      R5,R0
   \   0000004C   04208DE2           ADD      R2,SP,#+4
   \   00000050   0400A0E1           MOV      R0,R4
   \   00000054   690100EF           SWI      +361
    160                ws_2utf8(ec.pWS, s, &len, 256);
   \   00000058   2C009DE5           LDR      R0,[SP, #+44]
   \   0000005C   403FA0E3           MOV      R3,#+256
   \   00000060   0D20A0E1           MOV      R2,SP
   \   00000064   0510A0E1           MOV      R1,R5
   \   00000068   E20100EF           SWI      +482
    161                SUBPROC((void *)Send_Mood, smood, s);
   \   0000006C   501096E5           LDR      R1,[R6, #+80]
   \   00000070   ........           LDR      R0,??DataTable1  ;; Send_Mood
   \   00000074   0520A0E1           MOV      R2,R5
   \   00000078   710100EF           SWI      +369
    162                return 1;
   \   0000007C   0100A0E3           MOV      R0,#+1
   \   00000080   30D08DE2           ADD      SP,SP,#+48
   \   00000084   7080BDE8           POP      {R4-R6,PC}
    163              }
    164            }
    165            return 0;
   \                     ??moodt_onkey_0:
   \   00000088   0000A0E3           MOV      R0,#+0
   \   0000008C   30D08DE2           ADD      SP,SP,#+48
   \   00000090   7080BDE8           POP      {R4-R6,PC}       ;; return
   \                     ??moodt_onkey_1:
   \   00000094   ........           DC32     moodt_desc
    166          }
    167          

   \                                 In segment CODE, align 4, keep-with-next
    168          void moodt_ghook(GUI *gui, int cmd)
    169          {
   \                     moodt_ghook:
   \   00000000   00402DE9           PUSH     {LR}
    170            if (cmd == TI_CMD_REDRAW)
   \   00000004   070051E3           CMP      R1,#+7
   \   00000008   0080BD18           POPNE    {PC}
    171            {
    172              static SOFTKEY_DESC sk = {0x0018, 0x0000, (int)LG_OK};
    173          #ifdef NEWSGOLD
    174              SetSoftKey(gui, &sk, 0);
   \   0000000C   08109FE5           LDR      R1,??moodt_ghook_0  ;; ??sk
   \   00000010   0020A0E3           MOV      R2,#+0
   \   00000014   680100EF           SWI      +360
    175          #else
    176              SetSoftKey(gui, &sk, 1);
    177          #endif
    178            }
    179          }
   \   00000018   0080BDE8           POP      {PC}             ;; return
   \                     ??moodt_ghook_0:
   \   0000001C   ........           DC32     ??sk
    180          
    181          SOFTKEY_DESC moodt_sk[]=
    182          {
    183            {0x0018,0x0000,(int)LG_OK},
    184            {0x0001,0x0000,(int)LG_CLOSE},
    185            {0x003D,0x0000,(int)LGP_DOIT_PIC}
    186          };
    187          
    188          SOFTKEYSTAB moodt_skt=
    189          {
    190            moodt_sk,0
    191          };
    192          
    193          HEADER_DESC moodt_hdr={0,0,0,0,NULL,(int)LG_MOOD_TEXT,LGP_NULL};
    194          
    195          INPUTDIA_DESC moodt_desc=
    196          {
    197            1,
    198            moodt_onkey,
    199            moodt_ghook,
    200            (void *)moodt_locret,
    201            0,
    202            &moodt_skt,
    203            {0,0,0,0},
    204            4,
    205            100,
    206            101,
    207            0,
    208            0,
    209            0x40000000
    210          };
    211          

   \                                 In segment CODE, align 4, keep-with-next
    212          void ShowMoodTextDialog(char *mood)
    213          {
    214            if (mood=="EMPTY")
   \                     ShowMoodTextDialog:
   \   00000000   28119FE5           LDR      R1,??ShowMoodTextDialog_0  ;; `?<Constant "EMPTY">`
   \   00000004   F0412DE9           PUSH     {R4-R8,LR}
   \   00000008   24419FE5           LDR      R4,??ShowMoodTextDialog_0+0x4  ;; moodt_desc
   \   0000000C   2CD04DE2           SUB      SP,SP,#+44
   \   00000010   0050A0E3           MOV      R5,#+0
   \   00000014   010050E1           CMP      R0,R1
   \   00000018   0600001A           BNE      ??ShowMoodTextDialog_1
    215            {
    216              smood=NULL;
    217              SUBPROC((void *)Send_Mood, NULL, NULL);
   \   0000001C   ........           LDR      R0,??DataTable1  ;; Send_Mood
   \   00000020   505084E5           STR      R5,[R4, #+80]
   \   00000024   0020A0E3           MOV      R2,#+0
   \   00000028   0210A0E1           MOV      R1,R2
   \   0000002C   710100EF           SWI      +369
    218              return;
   \   00000030   2CD08DE2           ADD      SP,SP,#+44
   \   00000034   F081BDE8           POP      {R4-R8,PC}
    219            } else smood = mood;
   \                     ??ShowMoodTextDialog_1:
   \   00000038   500084E5           STR      R0,[R4, #+80]
    220            
    221            WSHDR *ws = AllocWS(256);
   \   0000003C   400FA0E3           MOV      R0,#+256
   \   00000040   250100EF           SWI      +293
   \   00000044   0070A0E1           MOV      R7,R0
    222            EDITCONTROL ec;
    223            void *ma=malloc_adr();
   \   00000048   148000EF           SWI      +32788
   \   0000004C   0080A0E1           MOV      R8,R0
    224            void *eq=AllocEQueue(ma,mfree_adr());
   \   00000050   158000EF           SWI      +32789
   \   00000054   0010A0E1           MOV      R1,R0
   \   00000058   0800A0E1           MOV      R0,R8
   \   0000005C   630100EF           SWI      +355
    225            
    226            extern const char empty_t[];
    227          
    228            wsprintf(ws, empty_t);
   \   00000060   D0109FE5           LDR      R1,??ShowMoodTextDialog_0+0x8  ;; empty_t
   \   00000064   0060A0E1           MOV      R6,R0
   \   00000068   0700A0E1           MOV      R0,R7
   \   0000006C   240100EF           SWI      +292
    229            PrepareEditControl(&ec);
   \   00000070   0D00A0E1           MOV      R0,SP
   \   00000074   640100EF           SWI      +356
    230            ConstructEditControl(&ec, ECT_NORMAL_TEXT, ECF_APPEND_EOL, ws, 256);
   \   00000078   400FA0E3           MOV      R0,#+256
   \   0000007C   01002DE9           PUSH     {R0}
   \   00000080   0730A0E1           MOV      R3,R7
   \   00000084   4020A0E3           MOV      R2,#+64
   \   00000088   0310A0E3           MOV      R1,#+3
   \   0000008C   04008DE2           ADD      R0,SP,#+4
   \   00000090   650100EF           SWI      +357
    231            moodt_pos = AddEditControlToEditQend(eq,&ec,ma);
   \   00000094   0820A0E1           MOV      R2,R8
   \   00000098   04108DE2           ADD      R1,SP,#+4
   \   0000009C   0600A0E1           MOV      R0,R6
   \   000000A0   660100EF           SWI      +358
   \   000000A4   4C0084E5           STR      R0,[R4, #+76]
    232            FreeWS(ws);
   \   000000A8   0700A0E1           MOV      R0,R7
   \   000000AC   290100EF           SWI      +297
    233            patch_header(&moodt_hdr);
   \   000000B0   B853C4E1           STRH     R5,[R4, #+56]
   \   000000B4   1800A0E3           MOV      R0,#+24
   \   000000B8   BA03C4E1           STRH     R0,[R4, #+58]
   \   000000BC   888100EF           SWI      +33160
   \   000000C0   010040E2           SUB      R0,R0,#+1
   \   000000C4   BC03C4E1           STRH     R0,[R4, #+60]
   \   000000C8   8A8100EF           SWI      +33162
   \   000000CC   180080E2           ADD      R0,R0,#+24
   \   000000D0   BE03C4E1           STRH     R0,[R4, #+62]
    234            patch_input(&moodt_desc);
   \   000000D4   B851C4E1           STRH     R5,[R4, #+24]
   \   000000D8   8A8100EF           SWI      +33162
   \   000000DC   190080E2           ADD      R0,R0,#+25
   \   000000E0   BA01C4E1           STRH     R0,[R4, #+26]
   \   000000E4   888100EF           SWI      +33160
   \   000000E8   010040E2           SUB      R0,R0,#+1
   \   000000EC   BC01C4E1           STRH     R0,[R4, #+28]
   \   000000F0   898100EF           SWI      +33161
   \   000000F4   0050A0E1           MOV      R5,R0
   \   000000F8   8B8100EF           SWI      +33163
   \   000000FC   000045E0           SUB      R0,R5,R0
   \   00000100   010040E2           SUB      R0,R0,#+1
   \   00000104   BE01C4E1           STRH     R0,[R4, #+30]
    235            CreateInputTextDialog(&moodt_desc,&moodt_hdr,eq,1,NULL);
   \   00000108   0000A0E3           MOV      R0,#+0
   \   0000010C   01002DE9           PUSH     {R0}
   \   00000110   0130A0E3           MOV      R3,#+1
   \   00000114   0620A0E1           MOV      R2,R6
   \   00000118   381084E2           ADD      R1,R4,#+56
   \   0000011C   0400A0E1           MOV      R0,R4
   \   00000120   670100EF           SWI      +359
    236          }
   \   00000124   08D08DE2           ADD      SP,SP,#+8
   \   00000128   2CD08DE2           ADD      SP,SP,#+44
   \   0000012C   F081BDE8           POP      {R4-R8,PC}       ;; return
   \                     ??ShowMoodTextDialog_0:
   \   00000130   ........           DC32     `?<Constant "EMPTY">`
   \   00000134   ........           DC32     moodt_desc
   \   00000138   ........           DC32     empty_t
    237          

   \                                 In segment CODE, align 4, keep-with-next
    238          static int moodsmenu_keyhook(void *data, GUI_MSG *msg)
    239          {
   \                     moodsmenu_keyhook:
   \   00000000   10402DE9           PUSH     {R4,LR}
    240            if ((msg->keys==0x18)||(msg->keys==0x3D))
   \   00000004   F210D1E1           LDRSH    R1,[R1, #+2]
   \   00000008   180051E3           CMP      R1,#+24
   \   0000000C   3D005113           CMPNE    R1,#+61
   \   00000010   0900001A           BNE      ??moodsmenu_keyhook_0
    241            {
    242              My_Mood_Presence = GetCurMenuItem(data);
   \   00000014   ........           LDR      R4,??DataTable7  ;; My_Mood_Presence
   \   00000018   8F0100EF           SWI      +399
    243              ShowMoodTextDialog(moods[My_Mood_Presence]);
   \   0000001C   ........           LDR      R1,??DataTable6  ;; moods_menuhdr
   \   00000020   0000C4E5           STRB     R0,[R4, #+0]
   \   00000024   0000D4E5           LDRB     R0,[R4, #+0]
   \   00000028   000181E0           ADD      R0,R1,R0, LSL #+2
   \   0000002C   0C0190E5           LDR      R0,[R0, #+268]
   \   00000030   ........           BL       ShowMoodTextDialog
    244              return 1;
   \   00000034   0100A0E3           MOV      R0,#+1
   \   00000038   1080BDE8           POP      {R4,PC}
    245            }
    246            return 0;
   \                     ??moodsmenu_keyhook_0:
   \   0000003C   0000A0E3           MOV      R0,#+0
   \   00000040   1080BDE8           POP      {R4,PC}          ;; return
    247          }
    248          
    249          int moods_icons[moods_items];
    250          

   \                                 In segment CODE, align 4, keep-with-next
    251          void moodsmenu_ghook(void *data, int cmd)
    252          {
   \                     moodsmenu_ghook:
   \   00000000   10402DE9           PUSH     {R4,LR}
    253            if (cmd==TI_CMD_FOCUS)
   \   00000004   0A0051E3           CMP      R1,#+10
   \   00000008   0100001A           BNE      ??moodsmenu_ghook_0
    254            {
    255              DisableIDLETMR();
   \   0000000C   7F0100EF           SWI      +383
   \   00000010   1080BDE8           POP      {R4,PC}
    256            }
    257            if (cmd==TI_CMD_CREATE)
   \                     ??moodsmenu_ghook_0:
   \   00000014   020051E3           CMP      R1,#+2
   \   00000018   0300001A           BNE      ??moodsmenu_ghook_1
    258            {
    259              SetCursorToMenuItem(data,My_Mood_Presence);
   \   0000001C   ........           LDR      R1,??DataTable7  ;; My_Mood_Presence
   \   00000020   0010D1E5           LDRB     R1,[R1, #+0]
   \   00000024   C40100EF           SWI      +452
   \   00000028   1080BDE8           POP      {R4,PC}
    260            }
    261            if (cmd==TI_CMD_DESTROY)
   \                     ??moodsmenu_ghook_1:
   \   0000002C   030051E3           CMP      R1,#+3
   \   00000030   1080BD18           POPNE    {R4,PC}
    262            {
    263            for (int i = 0; i < moods_items; i++)
   \   00000034   0040A0E3           MOV      R4,#+0
    264             {
    265              mfree((void*)moods_icons[i]);
   \                     ??moodsmenu_ghook_2:
   \   00000038   ........           LDR      R0,??DataTable6  ;; moods_menuhdr
   \   0000003C   040180E0           ADD      R0,R0,R4, LSL #+2
   \   00000040   040290E5           LDR      R0,[R0, #+516]
    266             }
   \   00000044   014084E2           ADD      R4,R4,#+1
   \   00000048   150000EF           SWI      +21
   \   0000004C   3E0054E3           CMP      R4,#+62
   \   00000050   F8FFFFBA           BLT      ??moodsmenu_ghook_2
    267            }
    268          }
   \   00000054   1080BDE8           POP      {R4,PC}          ;; return
    269          
    270          int moodsmenusoftkeys[]={0,1,2};
    271          

   \                                 In segment DATA_C, align 4, align-sorted
    272          static const SOFTKEY_DESC moodsmenu_sk[]=
   \                     moodsmenu_sk:
   \   00000000   18000000           DC16 24, 0
   \   00000004   ........           DC32 `?<Constant "\\302\\373\\341\\356\\360">`
   \   00000008   01000000           DC16 1, 0
   \   0000000C   ........           DC32 `?<Constant "\\315\\340\\347\\340\\344">`
   \   00000010   3D000000           DC16 61, 0
   \   00000014   FBC0FF7F           DC32 2147467515
    273          {
    274            {0x0018,0x0000,(int)LG_SELECT},
    275            {0x0001,0x0000,(int)LG_BACK},
    276            {0x003D,0x0000,(int)LGP_DOIT_PIC}
    277          };
    278          

   \                                 In segment DATA_C, align 4, align-sorted
    279          static const SOFTKEYSTAB moodsmenu_skt=
   \                     moodsmenu_skt:
   \   00000000   ........0000       DC32 moodsmenu_sk, 0
   \              0000        
    280          {
    281            moodsmenu_sk,0
    282          };
    283          

   \                                 In segment CODE, align 4, keep-with-next
    284          void moodsmenuitemhandler(void *data, int curitem, void *unk)
    285          {
   \                     moodsmenuitemhandler:
   \   00000000   F0412DE9           PUSH     {R4-R8,LR}
   \   00000004   0040A0E1           MOV      R4,R0
   \   00000008   0150A0E1           MOV      R5,R1
    286            WSHDR *ws;
    287            void *item=AllocMenuItem(data);
   \   0000000C   970100EF           SWI      +407
   \   00000010   0060A0E1           MOV      R6,R0
    288            ws=AllocMenuWS(data,strlen(moods_texts[curitem]));
   \   00000014   ........           LDR      R0,??DataTable6  ;; moods_menuhdr
   \   00000018   057180E0           ADD      R7,R0,R5, LSL #+2
   \   0000001C   140097E5           LDR      R0,[R7, #+20]
   \   00000020   1B0000EF           SWI      +27
   \   00000024   0010A0E1           MOV      R1,R0
   \   00000028   0400A0E1           MOV      R0,R4
   \   0000002C   980100EF           SWI      +408
    289            ascii2ws(ws, moods_texts[curitem]);
   \   00000030   141097E5           LDR      R1,[R7, #+20]
   \   00000034   0080A0E1           MOV      R8,R0
   \   00000038   ........           _BLF     ascii2ws,??ascii2ws??rA
    290            SetMenuItemIconArray(data, item, moods_icons + curitem);
   \   0000003C   812F87E2           ADD      R2,R7,#+516
   \   00000040   0610A0E1           MOV      R1,R6
   \   00000044   0400A0E1           MOV      R0,R4
   \   00000048   990100EF           SWI      +409
    291            SetMenuItemText(data, item, ws, curitem);
   \   0000004C   0530A0E1           MOV      R3,R5
   \   00000050   0820A0E1           MOV      R2,R8
   \   00000054   0610A0E1           MOV      R1,R6
   \   00000058   0400A0E1           MOV      R0,R4
   \   0000005C   9A0100EF           SWI      +410
    292          }
   \   00000060   F081BDE8           POP      {R4-R8,PC}       ;; return
    293          

   \                                 In segment DATA_C, align 4, align-sorted
   \                     `?<Constant "%smoods\\\\">`:
   \   00000000   25736D6F6F64       DC8 "%smoods\\"
   \              735C00      
   \   00000009   000000             DC8 0, 0, 0
   \   0000000C   257325732E70       DC8 "%s%s.png"
   \              6E6700      
   \   00000015   000000             DC8 0, 0, 0
   \   00000018   08000000....       DC32 8, moodsmenu_keyhook, moodsmenu_ghook, 0H, moodsmenusoftkeys
   \              ............
   \              00000000....
   \              ....        
   \   0000002C   ........1100       DC32 moodsmenu_skt, 17, moodsmenuitemhandler, 0H, 0H, 62
   \              0000........
   \              000000000000
   \              00003E000000

   \                                 In segment DATA_I, align 4, align-sorted
    294          static const MENU_DESC moods_menu=
    295          {
    296            8,
    297            moodsmenu_keyhook,
    298            moodsmenu_ghook,
    299            NULL,
    300            moodsmenusoftkeys,
    301            &moodsmenu_skt,
    302            0x11,
    303            moodsmenuitemhandler,
    304            NULL,
    305            NULL,
    306            moods_items
    307          };
    308          
    309          HEADER_DESC moods_menuhdr={0,0,131,21,NULL,(int)LG_MOODS,LGP_NULL};
   \                     moods_menuhdr:
   \   00000000                      DS8 20
   \   00000014                      REQUIRE `?<Initializer for moods_menuhdr>`
   \                     moods_texts:
   \   00000014                      DS8 248
   \   0000010C                      REQUIRE `?<Initializer for moods_texts>`
   \                     moods:
   \   0000010C                      DS8 248
   \   00000204                      REQUIRE `?<Initializer for moods>`
   \                     moods_icons:
   \   00000204                      DS8 248
   \   000002FC                      REQUIRE `?<Initializer for moods_icons>`
   \                     PATH_TO_MOODS:
   \   000002FC                      DS8 256
   \   000003FC                      REQUIRE `?<Initializer for PATH_TO_MOODS>`

   \                                 In segment DATA_I, align 4, align-sorted
   \                     moodt_desc:
   \   00000000                      DS8 56
   \   00000038                      REQUIRE `?<Initializer for moodt_desc>`
   \                     moodt_hdr:
   \   00000038                      DS8 20
   \   0000004C                      REQUIRE `?<Initializer for moodt_hdr>`
   \                     moodt_pos:
   \   0000004C                      DS8 4
   \   00000050                      REQUIRE `?<Initializer for moodt_pos>`
   \                     smood:
   \   00000050                      DS8 4
   \   00000054                      REQUIRE `?<Initializer for smood>`

   \                                 In segment DATA_I, align 4, align-sorted
   \                     ??sk:
   \   00000000                      DS8 8
   \   00000008                      REQUIRE `?<Initializer for sk>`

   \                                 In segment DATA_I, align 4, align-sorted
   \                     moodt_sk:
   \   00000000                      DS8 24
   \   00000018                      REQUIRE `?<Initializer for moodt_sk>`

   \                                 In segment DATA_I, align 4, align-sorted
   \                     moodt_skt:
   \   00000000                      DS8 8
   \   00000008                      REQUIRE `?<Initializer for moodt_skt>`

   \                                 In segment DATA_I, align 4, align-sorted
   \                     moodsmenusoftkeys:
   \   00000000                      DS8 12
   \   0000000C                      REQUIRE `?<Initializer for moodsmenusoftkeys>`
    310          

   \                                 In segment CODE, align 4, keep-with-next
    311          void Show_Moods_Menu()
    312          {
    313            sprintf(PATH_TO_MOODS, "%smoods\\", PATH_TO_PIC);
   \                     Show_Moods_Menu:
   \   00000000   B8209FE5           LDR      R2,??Show_Moods_Menu_0  ;; PATH_TO_PIC
   \   00000004   F0432DE9           PUSH     {R4-R9,LR}
   \   00000008   B4409FE5           LDR      R4,??Show_Moods_Menu_0+0x4  ;; moods_menuhdr
   \   0000000C   B4509FE5           LDR      R5,??Show_Moods_Menu_0+0x8  ;; `?<Constant "%smoods\\\\">`
   \   00000010   BF6FA0E3           MOV      R6,#+764
   \   00000014   0510A0E1           MOV      R1,R5
   \   00000018   040086E0           ADD      R0,R6,R4
   \   0000001C   160000EF           SWI      +22
    314            for (int i = 0; i < moods_items; i++)
   \   00000020   0070A0E3           MOV      R7,#+0
    315            {
    316              char *text = malloc(256);
   \                     ??Show_Moods_Menu_1:
   \   00000024   400FA0E3           MOV      R0,#+256
   \   00000028   140000EF           SWI      +20
   \   0000002C   0080A0E1           MOV      R8,R0
    317              sprintf(text, "%s%s.png", PATH_TO_MOODS, moods[i]);
   \   00000030   079184E0           ADD      R9,R4,R7, LSL #+2
   \   00000034   0C3199E5           LDR      R3,[R9, #+268]
   \   00000038   042086E0           ADD      R2,R6,R4
   \   0000003C   0C1085E2           ADD      R1,R5,#+12
   \   00000040   160000EF           SWI      +22
    318              moods_icons[i] = (int)text;
   \   00000044   048289E5           STR      R8,[R9, #+516]
    319            }
   \   00000048   017087E2           ADD      R7,R7,#+1
   \   0000004C   3E0057E3           CMP      R7,#+62
   \   00000050   F3FFFFBA           BLT      ??Show_Moods_Menu_1
    320            patch_header(&moods_menuhdr);
   \   00000054   0000A0E3           MOV      R0,#+0
   \   00000058   B000C4E1           STRH     R0,[R4, #+0]
   \   0000005C   1800A0E3           MOV      R0,#+24
   \   00000060   B200C4E1           STRH     R0,[R4, #+2]
   \   00000064   888100EF           SWI      +33160
   \   00000068   010040E2           SUB      R0,R0,#+1
   \   0000006C   B400C4E1           STRH     R0,[R4, #+4]
   \   00000070   8A8100EF           SWI      +33162
   \   00000074   180080E2           ADD      R0,R0,#+24
   \   00000078   B600C4E1           STRH     R0,[R4, #+6]
    321            moods_menuhdr.icon = &moods_icons[My_Mood_Presence];
   \   0000007C   ........           LDR      R0,??DataTable7  ;; My_Mood_Presence
    322            CreateMenu(0,0,&moods_menu,&moods_menuhdr,0,moods_items,0,0);
   \   00000080   0430A0E1           MOV      R3,R4
   \   00000084   0000D0E5           LDRB     R0,[R0, #+0]
   \   00000088   182085E2           ADD      R2,R5,#+24
   \   0000008C   0010A0E3           MOV      R1,#+0
   \   00000090   000184E0           ADD      R0,R4,R0, LSL #+2
   \   00000094   810F80E2           ADD      R0,R0,#+516
   \   00000098   080084E5           STR      R0,[R4, #+8]
   \   0000009C   0000A0E3           MOV      R0,#+0
   \   000000A0   01002DE9           PUSH     {R0}
   \   000000A4   01002DE9           PUSH     {R0}
   \   000000A8   3E00A0E3           MOV      R0,#+62
   \   000000AC   01002DE9           PUSH     {R0}
   \   000000B0   0000A0E3           MOV      R0,#+0
   \   000000B4   01002DE9           PUSH     {R0}
   \   000000B8   520100EF           SWI      +338
    323          }
   \   000000BC   FF83BDE8           POP      {R0-R9,PC}       ;; return
   \                     ??Show_Moods_Menu_0:
   \   000000C0   ........           DC32     PATH_TO_PIC
   \   000000C4   ........           DC32     moods_menuhdr
   \   000000C8   ........           DC32     `?<Constant "%smoods\\\\">`

   \                                 In segment CODE, align 4, keep-with-next
   \                     ??DataTable1:
   \   00000000   ........           DC32     Send_Mood

   \                                 In segment CODE, align 4, keep-with-next
   \                     ??DataTable6:
   \   00000000   ........           DC32     moods_menuhdr

   \                                 In segment CODE, align 4, keep-with-next
   \                     ??DataTable7:
   \   00000000   ........           DC32     My_Mood_Presence

   \                                 In segment DATA_ID, align 4, align-sorted
   \                     `?<Initializer for moods_menuhdr>`:
   \   00000000   000000008300       DC16 0, 0, 131, 21
   \              1500        
   \   00000008   00000000....       DC32 0H, `?<Constant "\\315\\340\\361\\362\\360\\356\\345\\355\\3`
   \              ....        
   \   00000010   FFFFFF7F           DC32 2147483647
   \                     `?<Initializer for moods_texts>`:
   \   00000014   ........           DC32 `?<Constant "\\315\\345\\362">`
   \   00000018   ........           DC32 `?<Constant "\\301\\356\\377\\347\\355\\374">`
   \   0000001C   ........           DC32 `?<Constant "\\317\\356\\360\\340\\346\\345\\355\\350\\3`
   \   00000020   ........           DC32 `?<Constant "\\321\\345\\360\\344\\350\\362\\373\\351">`
   \   00000024   ........           DC32 `?<Constant "\\320\\340\\347\\344\\360\\340\\346\\345\\3`
   \   00000028   ........           DC32 `?<Constant "\\316\\341\\345\\361\\357\\356\\352\\356\\3`
   \   0000002C   ........           DC32 `?<Constant "\\320\\340\\347\\341\\363\\346\\345\\355">`
   \   00000030   ........           DC32 `?<Constant "\\321\\362\\373\\344">`
   \   00000034   ........           DC32 `?<Constant "\\321\\352\\363\\352\\356\\362\\340">`
   \   00000038   ........           DC32 `?<Constant "\\325\\360\\340\\341\\360\\356\\361\\362\\3`
   \   0000003C   ........           DC32 `?<Constant "\\321\\357\\356\\352\\356\\351\\355\\373\\3`
   \   00000040   ........           DC32 `?<Constant "\\307\\340\\354\\345\\360\\347">`
   \   00000044   ........           DC32 `?<Constant "\\321\\354\\363\\371\\345\\355">`
   \   00000048   ........           DC32 `?<Constant "\\304\\356\\342\\356\\353\\374\\355\\373\\3`
   \   0000004C   ........           DC32 `?<Constant "\\330\\340\\362\\340\\376\\361\\374">`
   \   00000050   ........           DC32 `?<Constant "\\313\\376\\341\\356\\357\\373\\362\\361\\3`
   \   00000054   ........           DC32 `?<Constant "\\304\\345\\357\\360\\345\\361\\361\\350\\3`
   \   00000058   ........           DC32 `?<Constant "\\320\\340\\347\\356\\367\\340\\360\\356\\3`
   \   0000005C   ........           DC32 `?<Constant "\\316\\362\\342\\360\\340\\371\\345\\355\\3`
   \   00000060   ........           DC32 `?<Constant "\\320\\340\\361\\362\\345\\360\\377\\355">`
   \   00000064   ........           DC32 `?<Constant "\\321\\362\\345\\361\\355\\350\\362\\345\\3`
   \   00000068   ........           DC32 `?<Constant "\\302\\347\\342\\356\\353\\355\\356\\342\\3`
   \   0000006C   ........           DC32 `?<Constant "\\312\\356\\352\\345\\362\\353\\350\\342\\3`
   \   00000070   ........           DC32 `?<Constant "\\320\\340\\347\\341\\350\\362\\373\\351">`
   \   00000074   ........           DC32 `?<Constant "\\321\\342\\340\\360\\353\\350\\342\\356\\3`
   \   00000078   ........           DC32 `?<Constant "\\302\\350\\355\\356\\342\\340\\362\\373\\3`
   \   0000007C   ........           DC32 `?<Constant "\\321\\367\\340\\361\\362\\353\\350\\342\\3`
   \   00000080   ........           DC32 `?<Constant "\\306\\340\\360\\352\\356">`
   \   00000084   ........           DC32 `?<Constant "\\323\\355\\350\\346\\345\\355">`
   \   00000088   ........           DC32 `?<Constant "\\316\\361\\352\\356\\360\\341\\353\\345\\3`
   \   0000008C   ........           DC32 `?<Constant "\\303\\356\\353\\356\\344\\345\\355">`
   \   00000090   ........           DC32 `?<Constant "\\302\\360\\345\\344\\355\\373\\351">`
   \   00000094   ........           DC32 `?<Constant "\\302\\357\\345\\367\\340\\362\\353\\345\\3`
   \   00000098   ........           DC32 `?<Constant "\\321\\362\\360\\340\\365">`
   \   0000009C   ........           DC32 `?<Constant "\\302\\353\\376\\341\\353\\345\\355">`
   \   000000A0   ........           DC32 `?<Constant "\\302\\356\\347\\354\\363\\371\\345\\355">`
   \   000000A4   ........           DC32 `?<Constant "\\307\\340\\350\\355\\362\\345\\360\\345\\3`
   \   000000A8   ........           DC32 `?<Constant "\\316\\357\\374\\377\\355\\345\\355">`
   \   000000AC   ........           DC32 `?<Constant "\\315\\345\\363\\352\\360\\356\\362\\350\\3`
   \   000000B0   ........           DC32 `?<Constant "\\320\\345\\342\\355\\356\\361\\362\\374">`
   \   000000B4   ........           DC32 `?<Constant "\\316\\344\\350\\355\\356\\367\\345\\361\\3`
   \   000000B8   ........           DC32 `?<Constant "\\306\\340\\344\\355\\356\\361\\362\\374">`
   \   000000BC   ........           DC32 `?<Constant "\\312\\340\\357\\360\\350\\347\\355\\373\\3`
   \   000000C0   ........           DC32 `?<Constant "\\302\\356\\347\\341\\363\\346\\344\\345\\3`
   \   000000C4   ........           DC32 `?<Constant "\\315\\345\\351\\362\\360\\340\\353\\374\\3`
   \   000000C8   ........           DC32 `?<Constant "\\316\\361\\352\\356\\360\\341\\353\\345\\3`
   \   000000CC   ........           DC32 `?<Constant "\\310\\343\\360\\350\\342\\373\\351">`
   \   000000D0   ........           DC32 `?<Constant "\\303\\356\\360\\344\\356\\361\\362\\374">`
   \   000000D4   ........           DC32 `?<Constant "\\321\\342\\356\\341\\356\\344\\340">`
   \   000000D8   ........           DC32 `?<Constant "\\320\\340\\361\\352\\340\\377\\355\\350\\3`
   \   000000DC   ........           DC32 `?<Constant "\\301\\345\\361\\357\\356\\352\\356\\351\\3`
   \   000000E0   ........           DC32 `?<Constant "\\303\\360\\363\\361\\362\\374">`
   \   000000E4   ........           DC32 `?<Constant "\\321\\340\\360\\352\\340\\347\\354">`
   \   000000E8   ........           DC32 `?<Constant "\\321\\345\\360\\374\\345\\347\\355\\373\\3`
   \   000000EC   ........           DC32 `?<Constant "\\330\\356\\352\\350\\360\\356\\342\\340\\3`
   \   000000F0   ........           DC32 `?<Constant "\\307\\340\\361\\362\\345\\355\\367\\350\\3`
   \   000000F4   ........           DC32 `?<Constant "\\301\\356\\353\\345\\376">`
   \   000000F8   ........           DC32 `?<Constant "\\321\\357\\353\\376">`
   \   000000FC   ........           DC32 `?<Constant "\\321\\362\\360\\345\\361\\361">`
   \   00000100   ........           DC32 `?<Constant "\\323\\344\\350\\342\\353\\345\\355">`
   \   00000104   ........           DC32 `?<Constant "\\306\\340\\346\\344\\340">`
   \   00000108   ........           DC32 `?<Constant "\\302\\356\\353\\355\\345\\355\\350\\345">`
   \                     `?<Initializer for moods>`:
   \   0000010C   ............       DC32 `?<Constant "EMPTY">`, `?<Constant "afraid">`
   \              ....        
   \   00000114   ............       DC32 `?<Constant "amazed">`, `?<Constant "angry">`
   \              ....        
   \   0000011C   ............       DC32 `?<Constant "annoyed">`, `?<Constant "anxious">`
   \              ....        
   \   00000124   ............       DC32 `?<Constant "aroused">`, `?<Constant "ashamed">`
   \              ....        
   \   0000012C   ............       DC32 `?<Constant "bored">`, `?<Constant "brave">`, `?<Constant "calm">`
   \              ............
   \   00000138   ............       DC32 `?<Constant "cold">`, `?<Constant "confused">`
   \              ....        
   \   00000140   ............       DC32 `?<Constant "contented">`, `?<Constant "cranky">`
   \              ....        
   \   00000148   ............       DC32 `?<Constant "curious">`, `?<Constant "depressed">`
   \              ....        
   \   00000150   ............       DC32 `?<Constant "disappointed">`, `?<Constant "disgusted">`
   \              ....        
   \   00000158   ............       DC32 `?<Constant "distracted">`, `?<Constant "embarrassed">`
   \              ....        
   \   00000160   ............       DC32 `?<Constant "excited">`, `?<Constant "flirtatious">`
   \              ....        
   \   00000168   ............       DC32 `?<Constant "frustrated">`, `?<Constant "grumpy">`
   \              ....        
   \   00000170   ............       DC32 `?<Constant "guilty">`, `?<Constant "happy">`, `?<Constant "hot">`
   \              ............
   \   0000017C   ............       DC32 `?<Constant "humbled">`, `?<Constant "humiliated">`
   \              ....        
   \   00000184   ............       DC32 `?<Constant "hungry">`, `?<Constant "hurt">`
   \              ....        
   \   0000018C   ............       DC32 `?<Constant "impressed">`, `?<Constant "in_awe">`
   \              ....        
   \   00000194   ............       DC32 `?<Constant "in_love">`, `?<Constant "indignant">`
   \              ....        
   \   0000019C   ............       DC32 `?<Constant "interested">`, `?<Constant "intoxicated">`
   \              ....        
   \   000001A4   ............       DC32 `?<Constant "invincible">`, `?<Constant "jealous">`
   \              ....        
   \   000001AC   ............       DC32 `?<Constant "lonely">`, `?<Constant "mean">`
   \              ....        
   \   000001B4   ............       DC32 `?<Constant "moody">`, `?<Constant "nervous">`
   \              ....        
   \   000001BC   ............       DC32 `?<Constant "neutral">`, `?<Constant "offended">`
   \              ....        
   \   000001C4   ............       DC32 `?<Constant "playful">`, `?<Constant "proud">`
   \              ....        
   \   000001CC   ............       DC32 `?<Constant "relieved">`, `?<Constant "remorseful">`
   \              ....        
   \   000001D4   ............       DC32 `?<Constant "restless">`, `?<Constant "sad">`
   \              ....        
   \   000001DC   ............       DC32 `?<Constant "sarcastic">`, `?<Constant "serious">`
   \              ....        
   \   000001E4   ............       DC32 `?<Constant "shocked">`, `?<Constant "shy">`, `?<Constant "sick">`
   \              ............
   \   000001F0   ............       DC32 `?<Constant "sleepy">`, `?<Constant "stressed">`
   \              ....        
   \   000001F8   ............       DC32 `?<Constant "surprised">`, `?<Constant "thirsty">`
   \              ....        
   \   00000200   ........           DC32 `?<Constant "worried">`
   \                     `?<Initializer for moods_icons>`:
   \   00000204   000000000000       DC8 0, 0, 0, 0, 0, 0, 0, 0, 0, 0, 0, 0, 0, 0, 0, 0
   \              000000000000
   \              00000000    
   \   00000214   000000000000       DC8 0, 0, 0, 0, 0, 0, 0, 0, 0, 0, 0, 0, 0, 0, 0, 0
   \              000000000000
   \              00000000    
   \   00000224   000000000000       DC8 0, 0, 0, 0, 0, 0, 0, 0, 0, 0, 0, 0, 0, 0, 0, 0
   \              000000000000
   \              00000000    
   \   00000234   000000000000       DC8 0, 0, 0, 0, 0, 0, 0, 0, 0, 0, 0, 0, 0, 0, 0, 0
   \              000000000000
   \              00000000    
   \   00000244   000000000000       DC8 0, 0, 0, 0, 0, 0, 0, 0, 0, 0, 0, 0, 0, 0, 0, 0
   \              000000000000
   \              00000000    
   \   00000254   000000000000       DC8 0, 0, 0, 0, 0, 0, 0, 0, 0, 0, 0, 0, 0, 0, 0, 0
   \              000000000000
   \              00000000    
   \   00000264   000000000000       DC8 0, 0, 0, 0, 0, 0, 0, 0, 0, 0, 0, 0, 0, 0, 0, 0
   \              000000000000
   \              00000000    
   \   00000274   000000000000       DC8 0, 0, 0, 0, 0, 0, 0, 0, 0, 0, 0, 0, 0, 0, 0, 0
   \              000000000000
   \              00000000    
   \   00000284   000000000000       DC8 0, 0, 0, 0, 0, 0, 0, 0, 0, 0, 0, 0, 0, 0, 0, 0
   \              000000000000
   \              00000000    
   \   00000294   000000000000       DC8 0, 0, 0, 0, 0, 0, 0, 0, 0, 0, 0, 0, 0, 0, 0, 0
   \              000000000000
   \              00000000    
   \   000002A4   000000000000       DC8 0, 0, 0, 0, 0, 0, 0, 0, 0, 0, 0, 0, 0, 0, 0, 0
   \              000000000000
   \              00000000    
   \   000002B4   000000000000       DC8 0, 0, 0, 0, 0, 0, 0, 0, 0, 0, 0, 0, 0, 0, 0, 0
   \              000000000000
   \              00000000    
   \   000002C4   000000000000       DC8 0, 0, 0, 0, 0, 0, 0, 0, 0, 0, 0, 0, 0, 0, 0, 0
   \              000000000000
   \              00000000    
   \   000002D4   000000000000       DC8 0, 0, 0, 0, 0, 0, 0, 0, 0, 0, 0, 0, 0, 0, 0, 0
   \              000000000000
   \              00000000    
   \   000002E4   000000000000       DC8 0, 0, 0, 0, 0, 0, 0, 0, 0, 0, 0, 0, 0, 0, 0, 0
   \              000000000000
   \              00000000    
   \   000002F4   000000000000       DC8 0, 0, 0, 0, 0, 0, 0, 0
   \              0000        
   \                     `?<Initializer for PATH_TO_MOODS>`:
   \   000002FC   000000000000       DC8 0, 0, 0, 0, 0, 0, 0, 0, 0, 0, 0, 0, 0, 0, 0, 0
   \              000000000000
   \              00000000    
   \   0000030C   000000000000       DC8 0, 0, 0, 0, 0, 0, 0, 0, 0, 0, 0, 0, 0, 0, 0, 0
   \              000000000000
   \              00000000    
   \   0000031C   000000000000       DC8 0, 0, 0, 0, 0, 0, 0, 0, 0, 0, 0, 0, 0, 0, 0, 0
   \              000000000000
   \              00000000    
   \   0000032C   000000000000       DC8 0, 0, 0, 0, 0, 0, 0, 0, 0, 0, 0, 0, 0, 0, 0, 0
   \              000000000000
   \              00000000    
   \   0000033C   000000000000       DC8 0, 0, 0, 0, 0, 0, 0, 0, 0, 0, 0, 0, 0, 0, 0, 0
   \              000000000000
   \              00000000    
   \   0000034C   000000000000       DC8 0, 0, 0, 0, 0, 0, 0, 0, 0, 0, 0, 0, 0, 0, 0, 0
   \              000000000000
   \              00000000    
   \   0000035C   000000000000       DC8 0, 0, 0, 0, 0, 0, 0, 0, 0, 0, 0, 0, 0, 0, 0, 0
   \              000000000000
   \              00000000    
   \   0000036C   000000000000       DC8 0, 0, 0, 0, 0, 0, 0, 0, 0, 0, 0, 0, 0, 0, 0, 0
   \              000000000000
   \              00000000    
   \   0000037C   000000000000       DC8 0, 0, 0, 0, 0, 0, 0, 0, 0, 0, 0, 0, 0, 0, 0, 0
   \              000000000000
   \              00000000    
   \   0000038C   000000000000       DC8 0, 0, 0, 0, 0, 0, 0, 0, 0, 0, 0, 0, 0, 0, 0, 0
   \              000000000000
   \              00000000    
   \   0000039C   000000000000       DC8 0, 0, 0, 0, 0, 0, 0, 0, 0, 0, 0, 0, 0, 0, 0, 0
   \              000000000000
   \              00000000    
   \   000003AC   000000000000       DC8 0, 0, 0, 0, 0, 0, 0, 0, 0, 0, 0, 0, 0, 0, 0, 0
   \              000000000000
   \              00000000    
   \   000003BC   000000000000       DC8 0, 0, 0, 0, 0, 0, 0, 0, 0, 0, 0, 0, 0, 0, 0, 0
   \              000000000000
   \              00000000    
   \   000003CC   000000000000       DC8 0, 0, 0, 0, 0, 0, 0, 0, 0, 0, 0, 0, 0, 0, 0, 0
   \              000000000000
   \              00000000    
   \   000003DC   000000000000       DC8 0, 0, 0, 0, 0, 0, 0, 0, 0, 0, 0, 0, 0, 0, 0, 0
   \              000000000000
   \              00000000    
   \   000003EC   000000000000       DC8 0, 0, 0, 0, 0, 0, 0, 0, 0, 0, 0, 0, 0, 0, 0, 0
   \              000000000000
   \              00000000    

   \                                 In segment DATA_ID, align 4, align-sorted
   \                     `?<Initializer for moodt_desc>`:
   \   00000000   01000000....       DC32 1, moodt_onkey, moodt_ghook, moodt_locret, 0, moodt_skt
   \              ............
   \              ........0000
   \              0000........
   \   00000018   000000000000       DC16 0, 0, 0, 0
   \              0000        
   \   00000020   040000006400       DC32 4, 100, 101, 0, 0, 1073741824
   \              000065000000
   \              000000000000
   \              000000000040
   \                     `?<Initializer for moodt_hdr>`:
   \   00000038   000000000000       DC16 0, 0, 0, 0
   \              0000        
   \   00000040   00000000....       DC32 0H, `?<Constant "\\322\\345\\352\\361\\362 \\355\\340\\361\\`
   \              ....        
   \   00000048   FFFFFF7F           DC32 2147483647
   \                     `?<Initializer for moodt_pos>`:
   \   0000004C   00000000           DC8 0, 0, 0, 0
   \                     `?<Initializer for smood>`:
   \   00000050   00000000           DC8 0, 0, 0, 0

   \                                 In segment DATA_ID, align 4, align-sorted
   \                     `?<Initializer for sk>`:
   \   00000000   18000000           DC16 24, 0
   \   00000004   ........           DC32 `?<Constant "OK">`

   \                                 In segment DATA_ID, align 4, align-sorted
   \                     `?<Initializer for moodt_sk>`:
   \   00000000   18000000           DC16 24, 0
   \   00000004   ........           DC32 `?<Constant "OK">`
   \   00000008   01000000           DC16 1, 0
   \   0000000C   ........           DC32 `?<Constant "\\307\\340\\352\\360\\373\\362\\374">`
   \   00000010   3D000000           DC16 61, 0
   \   00000014   FBC0FF7F           DC32 2147467515

   \                                 In segment DATA_ID, align 4, align-sorted
   \                     `?<Initializer for moodt_skt>`:
   \   00000000   ........0000       DC32 moodt_sk, 0
   \              0000        

   \                                 In segment DATA_ID, align 4, align-sorted
   \                     `?<Initializer for moodsmenusoftkeys>`:
   \   00000000   000000000100       DC32 0, 1, 2
   \              000002000000

   \                                 In segment DATA_C, align 4, align-sorted
   \                     `?<Constant "\\321\\345\\360\\344\\350\\362\\373\\351">`:
   \   00000000   D1E5F0E4E8F2       DC8 "\321\345\360\344\350\362\373\351"
   \              FBE900      
   \   00000009   000000             DC8 0, 0, 0

   \                                 In segment DATA_C, align 4, align-sorted
   \                     `?<Constant "shy">`:
   \   00000000   73687900           DC8 "shy"

   \                                 In segment DATA_C, align 4, align-sorted
   \                     `?<Constant "sick">`:
   \   00000000   7369636B00         DC8 "sick"
   \   00000005   000000             DC8 0, 0, 0

   \                                 In segment DATA_C, align 4, align-sorted
   \                     `?<Constant "sleepy">`:
   \   00000000   736C65657079       DC8 "sleepy"
   \              00          
   \   00000007   00                 DC8 0

   \                                 In segment DATA_C, align 4, align-sorted
   \                     `?<Constant "stressed">`:
   \   00000000   737472657373       DC8 "stressed"
   \              656400      
   \   00000009   000000             DC8 0, 0, 0

   \                                 In segment DATA_C, align 4, align-sorted
   \                     `?<Constant "surprised">`:
   \   00000000   737572707269       DC8 "surprised"
   \              73656400    
   \   0000000A   0000               DC8 0, 0

   \                                 In segment DATA_C, align 4, align-sorted
   \                     `?<Constant "thirsty">`:
   \   00000000   746869727374       DC8 "thirsty"
   \              7900        

   \                                 In segment DATA_C, align 4, align-sorted
   \                     `?<Constant "worried">`:
   \   00000000   776F72726965       DC8 "worried"
   \              6400        

   \                                 In segment DATA_C, align 1, align-sorted
   \                     `?<Constant "OK">`:
   \   00000000   4F4B00             DC8 "OK"

   \                                 In segment DATA_C, align 4, align-sorted
   \                     `?<Constant "\\307\\340\\352\\360\\373\\362\\374">`:
   \   00000000   C7E0EAF0FBF2       DC8 "\307\340\352\360\373\362\374"
   \              FC00        

   \                                 In segment DATA_C, align 4, align-sorted
   \                     `?<Constant "\\322\\345\\352\\361\\362 \\355\\340\\361\\`:
   \   00000000   D2E5EAF1F220       DC8 "\322\345\352\361\362 \355\340\361\362\360\356\345\355\350\377"
   \              EDE0F1F2F0EE
   \              E5EDE8FF00  
   \   00000011   000000             DC8 0, 0, 0

   \                                 In segment DATA_C, align 4, align-sorted
   \                     `?<Constant "\\302\\373\\341\\356\\360">`:
   \   00000000   C2FBE1EEF000       DC8 "\302\373\341\356\360"
   \   00000006   0000               DC8 0, 0

   \                                 In segment DATA_C, align 4, align-sorted
   \                     `?<Constant "\\315\\340\\347\\340\\344">`:
   \   00000000   CDE0E7E0E400       DC8 "\315\340\347\340\344"
   \   00000006   0000               DC8 0, 0

   \                                 In segment DATA_C, align 4, align-sorted
   \                     `?<Constant "\\315\\340\\361\\362\\360\\356\\345\\355\\3`:
   \   00000000   CDE0F1F2F0EE       DC8 "\315\340\361\362\360\356\345\355\350\377"
   \              E5EDE8FF00  
   \   0000000B   00                 DC8 0

   \                                 In segment DATA_C, align 4, align-sorted
   \                     `?<Constant "\\315\\345\\362">`:
   \   00000000   CDE5F200           DC8 "\315\345\362"

   \                                 In segment DATA_C, align 4, align-sorted
   \                     `?<Constant "\\301\\356\\377\\347\\355\\374">`:
   \   00000000   C1EEFFE7EDFC       DC8 "\301\356\377\347\355\374"
   \              00          
   \   00000007   00                 DC8 0

   \                                 In segment DATA_C, align 4, align-sorted
   \                     `?<Constant "\\317\\356\\360\\340\\346\\345\\355\\350\\3`:
   \   00000000   CFEEF0E0E6E5       DC8 "\317\356\360\340\346\345\355\350\345"
   \              EDE8E500    
   \   0000000A   0000               DC8 0, 0

   \                                 In segment DATA_C, align 4, align-sorted
   \                     `?<Constant "\\302\\347\\342\\356\\353\\355\\356\\342\\3`:
   \   00000000   C2E7E2EEEBED       DC8 "\302\347\342\356\353\355\356\342\340\355"
   \              EEE2E0ED00  
   \   0000000B   00                 DC8 0

   \                                 In segment DATA_C, align 4, align-sorted
   \                     `?<Constant "\\320\\340\\347\\344\\360\\340\\346\\345\\3`:
   \   00000000   D0E0E7E4F0E0       DC8 "\320\340\347\344\360\340\346\345\355\355\373\351"
   \              E6E5EDEDFBE9
   \              00          
   \   0000000D   000000             DC8 0, 0, 0

   \                                 In segment DATA_C, align 4, align-sorted
   \                     `?<Constant "\\316\\341\\345\\361\\357\\356\\352\\356\\3`:
   \   00000000   CEE1E5F1EFEE       DC8 "\316\341\345\361\357\356\352\356\345\355"
   \              EAEEE5ED00  
   \   0000000B   00                 DC8 0

   \                                 In segment DATA_C, align 4, align-sorted
   \                     `?<Constant "\\320\\340\\347\\341\\363\\346\\345\\355">`:
   \   00000000   D0E0E7E1F3E6       DC8 "\320\340\347\341\363\346\345\355"
   \              E5ED00      
   \   00000009   000000             DC8 0, 0, 0

   \                                 In segment DATA_C, align 4, align-sorted
   \                     `?<Constant "\\321\\362\\373\\344">`:
   \   00000000   D1F2FBE400         DC8 "\321\362\373\344"
   \   00000005   000000             DC8 0, 0, 0

   \                                 In segment DATA_C, align 4, align-sorted
   \                     `?<Constant "\\321\\352\\363\\352\\356\\362\\340">`:
   \   00000000   D1EAF3EAEEF2       DC8 "\321\352\363\352\356\362\340"
   \              E000        

   \                                 In segment DATA_C, align 4, align-sorted
   \                     `?<Constant "\\325\\360\\340\\341\\360\\356\\361\\362\\3`:
   \   00000000   D5F0E0E1F0EE       DC8 "\325\360\340\341\360\356\361\362\374"
   \              F1F2FC00    
   \   0000000A   0000               DC8 0, 0

   \                                 In segment DATA_C, align 4, align-sorted
   \                     `?<Constant "\\321\\357\\356\\352\\356\\351\\355\\373\\3`:
   \   00000000   D1EFEEEAEEE9       DC8 "\321\357\356\352\356\351\355\373\351"
   \              EDFBE900    
   \   0000000A   0000               DC8 0, 0

   \                                 In segment DATA_C, align 4, align-sorted
   \                     `?<Constant "\\307\\340\\354\\345\\360\\347">`:
   \   00000000   C7E0ECE5F0E7       DC8 "\307\340\354\345\360\347"
   \              00          
   \   00000007   00                 DC8 0

   \                                 In segment DATA_C, align 4, align-sorted
   \                     `?<Constant "\\321\\354\\363\\371\\345\\355">`:
   \   00000000   D1ECF3F9E5ED       DC8 "\321\354\363\371\345\355"
   \              00          
   \   00000007   00                 DC8 0

   \                                 In segment DATA_C, align 4, align-sorted
   \                     `?<Constant "\\304\\356\\342\\356\\353\\374\\355\\373\\3`:
   \   00000000   C4EEE2EEEBFC       DC8 "\304\356\342\356\353\374\355\373\351"
   \              EDFBE900    
   \   0000000A   0000               DC8 0, 0

   \                                 In segment DATA_C, align 4, align-sorted
   \                     `?<Constant "\\330\\340\\362\\340\\376\\361\\374">`:
   \   00000000   D8E0F2E0FEF1       DC8 "\330\340\362\340\376\361\374"
   \              FC00        

   \                                 In segment DATA_C, align 4, align-sorted
   \                     `?<Constant "\\313\\376\\341\\356\\357\\373\\362\\361\\3`:
   \   00000000   CBFEE1EEEFFB       DC8 "\313\376\341\356\357\373\362\361\362\342\356"
   \              F2F1F2E2EE00

   \                                 In segment DATA_C, align 4, align-sorted
   \                     `?<Constant "\\304\\345\\357\\360\\345\\361\\361\\350\\3`:
   \   00000000   C4E5EFF0E5F1       DC8 "\304\345\357\360\345\361\361\350\377"
   \              F1E8FF00    
   \   0000000A   0000               DC8 0, 0

   \                                 In segment DATA_C, align 4, align-sorted
   \                     `?<Constant "\\320\\340\\347\\356\\367\\340\\360\\356\\3`:
   \   00000000   D0E0E7EEF7E0       DC8 "\320\340\347\356\367\340\360\356\342\340\355\350\345"
   \              F0EEE2E0EDE8
   \              E500        
   \   0000000E   0000               DC8 0, 0

   \                                 In segment DATA_C, align 4, align-sorted
   \                     `?<Constant "\\316\\362\\342\\360\\340\\371\\345\\355\\3`:
   \   00000000   CEF2E2F0E0F9       DC8 "\316\362\342\360\340\371\345\355\350\345"
   \              E5EDE8E500  
   \   0000000B   00                 DC8 0

   \                                 In segment DATA_C, align 4, align-sorted
   \                     `?<Constant "\\320\\340\\361\\362\\345\\360\\377\\355">`:
   \   00000000   D0E0F1F2E5F0       DC8 "\320\340\361\362\345\360\377\355"
   \              FFED00      
   \   00000009   000000             DC8 0, 0, 0

   \                                 In segment DATA_C, align 4, align-sorted
   \                     `?<Constant "\\321\\362\\345\\361\\355\\350\\362\\345\\3`:
   \   00000000   D1F2E5F1EDE8       DC8 "\321\362\345\361\355\350\362\345\353\374\355\356\361\362\374"
   \              F2E5EBFCEDEE
   \              F1F2FC00    

   \                                 In segment DATA_C, align 4, align-sorted
   \                     `?<Constant "\\312\\356\\352\\345\\362\\353\\350\\342\\3`:
   \   00000000   CAEEEAE5F2EB       DC8 "\312\356\352\345\362\353\350\342\356\361\362\374"
   \              E8E2EEF1F2FC
   \              00          
   \   0000000D   000000             DC8 0, 0, 0

   \                                 In segment DATA_C, align 4, align-sorted
   \                     `?<Constant "\\320\\340\\347\\341\\350\\362\\373\\351">`:
   \   00000000   D0E0E7E1E8F2       DC8 "\320\340\347\341\350\362\373\351"
   \              FBE900      
   \   00000009   000000             DC8 0, 0, 0

   \                                 In segment DATA_C, align 4, align-sorted
   \                     `?<Constant "\\321\\342\\340\\360\\353\\350\\342\\356\\3`:
   \   00000000   D1E2E0F0EBE8       DC8 "\321\342\340\360\353\350\342\356\361\362\374"
   \              E2EEF1F2FC00

   \                                 In segment DATA_C, align 4, align-sorted
   \                     `?<Constant "\\302\\350\\355\\356\\342\\340\\362\\373\\3`:
   \   00000000   C2E8EDEEE2E0       DC8 "\302\350\355\356\342\340\362\373\351"
   \              F2FBE900    
   \   0000000A   0000               DC8 0, 0

   \                                 In segment DATA_C, align 4, align-sorted
   \                     `?<Constant "\\321\\367\\340\\361\\362\\353\\350\\342\\3`:
   \   00000000   D1F7E0F1F2EB       DC8 "\321\367\340\361\362\353\350\342\373\351"
   \              E8E2FBE900  
   \   0000000B   00                 DC8 0

   \                                 In segment DATA_C, align 4, align-sorted
   \                     `?<Constant "\\306\\340\\360\\352\\356">`:
   \   00000000   C6E0F0EAEE00       DC8 "\306\340\360\352\356"
   \   00000006   0000               DC8 0, 0

   \                                 In segment DATA_C, align 4, align-sorted
   \                     `?<Constant "\\323\\355\\350\\346\\345\\355">`:
   \   00000000   D3EDE8E6E5ED       DC8 "\323\355\350\346\345\355"
   \              00          
   \   00000007   00                 DC8 0

   \                                 In segment DATA_C, align 4, align-sorted
   \                     `?<Constant "\\316\\361\\352\\356\\360\\341\\353\\345\\3`:
   \   00000000   CEF1EAEEF0E1       DC8 "\316\361\352\356\360\341\353\345\355"
   \              EBE5ED00    
   \   0000000A   0000               DC8 0, 0

   \                                 In segment DATA_C, align 4, align-sorted
   \                     `?<Constant "\\303\\356\\353\\356\\344\\345\\355">`:
   \   00000000   C3EEEBEEE4E5       DC8 "\303\356\353\356\344\345\355"
   \              ED00        

   \                                 In segment DATA_C, align 4, align-sorted
   \                     `?<Constant "\\302\\360\\345\\344\\355\\373\\351">`:
   \   00000000   C2F0E5E4EDFB       DC8 "\302\360\345\344\355\373\351"
   \              E900        

   \                                 In segment DATA_C, align 4, align-sorted
   \                     `?<Constant "\\302\\357\\345\\367\\340\\362\\353\\345\\3`:
   \   00000000   C2EFE5F7E0F2       DC8 "\302\357\345\367\340\362\353\345\355"
   \              EBE5ED00    
   \   0000000A   0000               DC8 0, 0

   \                                 In segment DATA_C, align 4, align-sorted
   \                     `?<Constant "\\321\\362\\360\\340\\365">`:
   \   00000000   D1F2F0E0F500       DC8 "\321\362\360\340\365"
   \   00000006   0000               DC8 0, 0

   \                                 In segment DATA_C, align 4, align-sorted
   \                     `?<Constant "\\302\\353\\376\\341\\353\\345\\355">`:
   \   00000000   C2EBFEE1EBE5       DC8 "\302\353\376\341\353\345\355"
   \              ED00        

   \                                 In segment DATA_C, align 4, align-sorted
   \                     `?<Constant "\\302\\356\\347\\354\\363\\371\\345\\355">`:
   \   00000000   C2EEE7ECF3F9       DC8 "\302\356\347\354\363\371\345\355"
   \              E5ED00      
   \   00000009   000000             DC8 0, 0, 0

   \                                 In segment DATA_C, align 4, align-sorted
   \                     `?<Constant "\\307\\340\\350\\355\\362\\345\\360\\345\\3`:
   \   00000000   C7E0E8EDF2E5       DC8 "\307\340\350\355\362\345\360\345\361\356\342\340\355"
   \              F0E5F1EEE2E0
   \              ED00        
   \   0000000E   0000               DC8 0, 0

   \                                 In segment DATA_C, align 4, align-sorted
   \                     `?<Constant "\\316\\357\\374\\377\\355\\345\\355">`:
   \   00000000   CEEFFCFFEDE5       DC8 "\316\357\374\377\355\345\355"
   \              ED00        

   \                                 In segment DATA_C, align 4, align-sorted
   \                     `?<Constant "\\315\\345\\363\\352\\360\\356\\362\\350\\3`:
   \   00000000   CDE5F3EAF0EE       DC8 "\315\345\363\352\360\356\362\350\354"
   \              F2E8EC00    
   \   0000000A   0000               DC8 0, 0

   \                                 In segment DATA_C, align 4, align-sorted
   \                     `?<Constant "\\320\\345\\342\\355\\356\\361\\362\\374">`:
   \   00000000   D0E5E2EDEEF1       DC8 "\320\345\342\355\356\361\362\374"
   \              F2FC00      
   \   00000009   000000             DC8 0, 0, 0

   \                                 In segment DATA_C, align 4, align-sorted
   \                     `?<Constant "\\316\\344\\350\\355\\356\\367\\345\\361\\3`:
   \   00000000   CEE4E8EDEEF7       DC8 "\316\344\350\355\356\367\345\361\362\342\356"
   \              E5F1F2E2EE00

   \                                 In segment DATA_C, align 4, align-sorted
   \                     `?<Constant "\\306\\340\\344\\355\\356\\361\\362\\374">`:
   \   00000000   C6E0E4EDEEF1       DC8 "\306\340\344\355\356\361\362\374"
   \              F2FC00      
   \   00000009   000000             DC8 0, 0, 0

   \                                 In segment DATA_C, align 4, align-sorted
   \                     `?<Constant "\\312\\340\\357\\360\\350\\347\\355\\373\\3`:
   \   00000000   CAE0EFF0E8E7       DC8 "\312\340\357\360\350\347\355\373\351"
   \              EDFBE900    
   \   0000000A   0000               DC8 0, 0

   \                                 In segment DATA_C, align 4, align-sorted
   \                     `?<Constant "\\302\\356\\347\\341\\363\\346\\344\\345\\3`:
   \   00000000   C2EEE7E1F3E6       DC8 "\302\356\347\341\363\346\344\345\355"
   \              E4E5ED00    
   \   0000000A   0000               DC8 0, 0

   \                                 In segment DATA_C, align 4, align-sorted
   \                     `?<Constant "\\315\\345\\351\\362\\360\\340\\353\\374\\3`:
   \   00000000   CDE5E9F2F0E0       DC8 "\315\345\351\362\360\340\353\374\355\373\351"
   \              EBFCEDFBE900

   \                                 In segment DATA_C, align 4, align-sorted
   \                     `?<Constant "\\310\\343\\360\\350\\342\\373\\351">`:
   \   00000000   C8E3F0E8E2FB       DC8 "\310\343\360\350\342\373\351"
   \              E900        

   \                                 In segment DATA_C, align 4, align-sorted
   \                     `?<Constant "\\303\\356\\360\\344\\356\\361\\362\\374">`:
   \   00000000   C3EEF0E4EEF1       DC8 "\303\356\360\344\356\361\362\374"
   \              F2FC00      
   \   00000009   000000             DC8 0, 0, 0

   \                                 In segment DATA_C, align 4, align-sorted
   \                     `?<Constant "\\321\\342\\356\\341\\356\\344\\340">`:
   \   00000000   D1E2EEE1EEE4       DC8 "\321\342\356\341\356\344\340"
   \              E000        

   \                                 In segment DATA_C, align 4, align-sorted
   \                     `?<Constant "\\320\\340\\361\\352\\340\\377\\355\\350\\3`:
   \   00000000   D0E0F1EAE0FF       DC8 "\320\340\361\352\340\377\355\350\345"
   \              EDE8E500    
   \   0000000A   0000               DC8 0, 0

   \                                 In segment DATA_C, align 4, align-sorted
   \                     `?<Constant "\\301\\345\\361\\357\\356\\352\\356\\351\\3`:
   \   00000000   C1E5F1EFEEEA       DC8 "\301\345\361\357\356\352\356\351\361\362\342\356"
   \              EEE9F1F2E2EE
   \              00          
   \   0000000D   000000             DC8 0, 0, 0

   \                                 In segment DATA_C, align 4, align-sorted
   \                     `?<Constant "\\303\\360\\363\\361\\362\\374">`:
   \   00000000   C3F0F3F1F2FC       DC8 "\303\360\363\361\362\374"
   \              00          
   \   00000007   00                 DC8 0

   \                                 In segment DATA_C, align 4, align-sorted
   \                     `?<Constant "\\321\\340\\360\\352\\340\\347\\354">`:
   \   00000000   D1E0F0EAE0E7       DC8 "\321\340\360\352\340\347\354"
   \              EC00        

   \                                 In segment DATA_C, align 4, align-sorted
   \                     `?<Constant "\\321\\345\\360\\374\\345\\347\\355\\373\\3`:
   \   00000000   D1E5F0FCE5E7       DC8 "\321\345\360\374\345\347\355\373\351"
   \              EDFBE900    
   \   0000000A   0000               DC8 0, 0

   \                                 In segment DATA_C, align 4, align-sorted
   \                     `?<Constant "\\330\\356\\352\\350\\360\\356\\342\\340\\3`:
   \   00000000   D8EEEAE8F0EE       DC8 "\330\356\352\350\360\356\342\340\355"
   \              E2E0ED00    
   \   0000000A   0000               DC8 0, 0

   \                                 In segment DATA_C, align 4, align-sorted
   \                     `?<Constant "\\307\\340\\361\\362\\345\\355\\367\\350\\3`:
   \   00000000   C7E0F1F2E5ED       DC8 "\307\340\361\362\345\355\367\350\342\356\361\362\374"
   \              F7E8E2EEF1F2
   \              FC00        
   \   0000000E   0000               DC8 0, 0

   \                                 In segment DATA_C, align 4, align-sorted
   \                     `?<Constant "\\301\\356\\353\\345\\376">`:
   \   00000000   C1EEEBE5FE00       DC8 "\301\356\353\345\376"
   \   00000006   0000               DC8 0, 0

   \                                 In segment DATA_C, align 4, align-sorted
   \                     `?<Constant "\\321\\357\\353\\376">`:
   \   00000000   D1EFEBFE00         DC8 "\321\357\353\376"
   \   00000005   000000             DC8 0, 0, 0

   \                                 In segment DATA_C, align 4, align-sorted
   \                     `?<Constant "\\321\\362\\360\\345\\361\\361">`:
   \   00000000   D1F2F0E5F1F1       DC8 "\321\362\360\345\361\361"
   \              00          
   \   00000007   00                 DC8 0

   \                                 In segment DATA_C, align 4, align-sorted
   \                     `?<Constant "\\323\\344\\350\\342\\353\\345\\355">`:
   \   00000000   D3E4E8E2EBE5       DC8 "\323\344\350\342\353\345\355"
   \              ED00        

   \                                 In segment DATA_C, align 4, align-sorted
   \                     `?<Constant "\\306\\340\\346\\344\\340">`:
   \   00000000   C6E0E6E4E000       DC8 "\306\340\346\344\340"
   \   00000006   0000               DC8 0, 0

   \                                 In segment DATA_C, align 4, align-sorted
   \                     `?<Constant "\\302\\356\\353\\355\\345\\355\\350\\345">`:
   \   00000000   C2EEEBEDE5ED       DC8 "\302\356\353\355\345\355\350\345"
   \              E8E500      
   \   00000009   000000             DC8 0, 0, 0

   \                                 In segment DATA_C, align 4, align-sorted
   \                     `?<Constant "EMPTY">`:
   \   00000000   454D50545900       DC8 "EMPTY"
   \   00000006   0000               DC8 0, 0

   \                                 In segment DATA_C, align 4, align-sorted
   \                     `?<Constant "afraid">`:
   \   00000000   616672616964       DC8 "afraid"
   \              00          
   \   00000007   00                 DC8 0

   \                                 In segment DATA_C, align 4, align-sorted
   \                     `?<Constant "amazed">`:
   \   00000000   616D617A6564       DC8 "amazed"
   \              00          
   \   00000007   00                 DC8 0

   \                                 In segment DATA_C, align 4, align-sorted
   \                     `?<Constant "angry">`:
   \   00000000   616E67727900       DC8 "angry"
   \   00000006   0000               DC8 0, 0

   \                                 In segment DATA_C, align 4, align-sorted
   \                     `?<Constant "annoyed">`:
   \   00000000   616E6E6F7965       DC8 "annoyed"
   \              6400        

   \                                 In segment DATA_C, align 4, align-sorted
   \                     `?<Constant "anxious">`:
   \   00000000   616E78696F75       DC8 "anxious"
   \              7300        

   \                                 In segment DATA_C, align 4, align-sorted
   \                     `?<Constant "aroused">`:
   \   00000000   61726F757365       DC8 "aroused"
   \              6400        

   \                                 In segment DATA_C, align 4, align-sorted
   \                     `?<Constant "ashamed">`:
   \   00000000   617368616D65       DC8 "ashamed"
   \              6400        

   \                                 In segment DATA_C, align 4, align-sorted
   \                     `?<Constant "bored">`:
   \   00000000   626F72656400       DC8 "bored"
   \   00000006   0000               DC8 0, 0

   \                                 In segment DATA_C, align 4, align-sorted
   \                     `?<Constant "brave">`:
   \   00000000   627261766500       DC8 "brave"
   \   00000006   0000               DC8 0, 0

   \                                 In segment DATA_C, align 4, align-sorted
   \                     `?<Constant "calm">`:
   \   00000000   63616C6D00         DC8 "calm"
   \   00000005   000000             DC8 0, 0, 0

   \                                 In segment DATA_C, align 4, align-sorted
   \                     `?<Constant "cold">`:
   \   00000000   636F6C6400         DC8 "cold"
   \   00000005   000000             DC8 0, 0, 0

   \                                 In segment DATA_C, align 4, align-sorted
   \                     `?<Constant "confused">`:
   \   00000000   636F6E667573       DC8 "confused"
   \              656400      
   \   00000009   000000             DC8 0, 0, 0

   \                                 In segment DATA_C, align 4, align-sorted
   \                     `?<Constant "contented">`:
   \   00000000   636F6E74656E       DC8 "contented"
   \              74656400    
   \   0000000A   0000               DC8 0, 0

   \                                 In segment DATA_C, align 4, align-sorted
   \                     `?<Constant "cranky">`:
   \   00000000   6372616E6B79       DC8 "cranky"
   \              00          
   \   00000007   00                 DC8 0

   \                                 In segment DATA_C, align 4, align-sorted
   \                     `?<Constant "curious">`:
   \   00000000   637572696F75       DC8 "curious"
   \              7300        

   \                                 In segment DATA_C, align 4, align-sorted
   \                     `?<Constant "depressed">`:
   \   00000000   646570726573       DC8 "depressed"
   \              73656400    
   \   0000000A   0000               DC8 0, 0

   \                                 In segment DATA_C, align 4, align-sorted
   \                     `?<Constant "disappointed">`:
   \   00000000   646973617070       DC8 "disappointed"
   \              6F696E746564
   \              00          
   \   0000000D   000000             DC8 0, 0, 0

   \                                 In segment DATA_C, align 4, align-sorted
   \                     `?<Constant "disgusted">`:
   \   00000000   646973677573       DC8 "disgusted"
   \              74656400    
   \   0000000A   0000               DC8 0, 0

   \                                 In segment DATA_C, align 4, align-sorted
   \                     `?<Constant "distracted">`:
   \   00000000   646973747261       DC8 "distracted"
   \              6374656400  
   \   0000000B   00                 DC8 0

   \                                 In segment DATA_C, align 4, align-sorted
   \                     `?<Constant "embarrassed">`:
   \   00000000   656D62617272       DC8 "embarrassed"
   \              617373656400

   \                                 In segment DATA_C, align 4, align-sorted
   \                     `?<Constant "excited">`:
   \   00000000   657863697465       DC8 "excited"
   \              6400        

   \                                 In segment DATA_C, align 4, align-sorted
   \                     `?<Constant "flirtatious">`:
   \   00000000   666C69727461       DC8 "flirtatious"
   \              74696F757300

   \                                 In segment DATA_C, align 4, align-sorted
   \                     `?<Constant "frustrated">`:
   \   00000000   667275737472       DC8 "frustrated"
   \              6174656400  
   \   0000000B   00                 DC8 0

   \                                 In segment DATA_C, align 4, align-sorted
   \                     `?<Constant "grumpy">`:
   \   00000000   6772756D7079       DC8 "grumpy"
   \              00          
   \   00000007   00                 DC8 0

   \                                 In segment DATA_C, align 4, align-sorted
   \                     `?<Constant "guilty">`:
   \   00000000   6775696C7479       DC8 "guilty"
   \              00          
   \   00000007   00                 DC8 0

   \                                 In segment DATA_C, align 4, align-sorted
   \                     `?<Constant "happy">`:
   \   00000000   686170707900       DC8 "happy"
   \   00000006   0000               DC8 0, 0

   \                                 In segment DATA_C, align 4, align-sorted
   \                     `?<Constant "hot">`:
   \   00000000   686F7400           DC8 "hot"

   \                                 In segment DATA_C, align 4, align-sorted
   \                     `?<Constant "humbled">`:
   \   00000000   68756D626C65       DC8 "humbled"
   \              6400        

   \                                 In segment DATA_C, align 4, align-sorted
   \                     `?<Constant "humiliated">`:
   \   00000000   68756D696C69       DC8 "humiliated"
   \              6174656400  
   \   0000000B   00                 DC8 0

   \                                 In segment DATA_C, align 4, align-sorted
   \                     `?<Constant "hungry">`:
   \   00000000   68756E677279       DC8 "hungry"
   \              00          
   \   00000007   00                 DC8 0

   \                                 In segment DATA_C, align 4, align-sorted
   \                     `?<Constant "hurt">`:
   \   00000000   6875727400         DC8 "hurt"
   \   00000005   000000             DC8 0, 0, 0

   \                                 In segment DATA_C, align 4, align-sorted
   \                     `?<Constant "impressed">`:
   \   00000000   696D70726573       DC8 "impressed"
   \              73656400    
   \   0000000A   0000               DC8 0, 0

   \                                 In segment DATA_C, align 4, align-sorted
   \                     `?<Constant "in_awe">`:
   \   00000000   696E5F617765       DC8 "in_awe"
   \              00          
   \   00000007   00                 DC8 0

   \                                 In segment DATA_C, align 4, align-sorted
   \                     `?<Constant "in_love">`:
   \   00000000   696E5F6C6F76       DC8 "in_love"
   \              6500        

   \                                 In segment DATA_C, align 4, align-sorted
   \                     `?<Constant "indignant">`:
   \   00000000   696E6469676E       DC8 "indignant"
   \              616E7400    
   \   0000000A   0000               DC8 0, 0

   \                                 In segment DATA_C, align 4, align-sorted
   \                     `?<Constant "interested">`:
   \   00000000   696E74657265       DC8 "interested"
   \              7374656400  
   \   0000000B   00                 DC8 0

   \                                 In segment DATA_C, align 4, align-sorted
   \                     `?<Constant "intoxicated">`:
   \   00000000   696E746F7869       DC8 "intoxicated"
   \              636174656400

   \                                 In segment DATA_C, align 4, align-sorted
   \                     `?<Constant "invincible">`:
   \   00000000   696E76696E63       DC8 "invincible"
   \              69626C6500  
   \   0000000B   00                 DC8 0

   \                                 In segment DATA_C, align 4, align-sorted
   \                     `?<Constant "jealous">`:
   \   00000000   6A65616C6F75       DC8 "jealous"
   \              7300        

   \                                 In segment DATA_C, align 4, align-sorted
   \                     `?<Constant "lonely">`:
   \   00000000   6C6F6E656C79       DC8 "lonely"
   \              00          
   \   00000007   00                 DC8 0

   \                                 In segment DATA_C, align 4, align-sorted
   \                     `?<Constant "mean">`:
   \   00000000   6D65616E00         DC8 "mean"
   \   00000005   000000             DC8 0, 0, 0

   \                                 In segment DATA_C, align 4, align-sorted
   \                     `?<Constant "moody">`:
   \   00000000   6D6F6F647900       DC8 "moody"
   \   00000006   0000               DC8 0, 0

   \                                 In segment DATA_C, align 4, align-sorted
   \                     `?<Constant "nervous">`:
   \   00000000   6E6572766F75       DC8 "nervous"
   \              7300        

   \                                 In segment DATA_C, align 4, align-sorted
   \                     `?<Constant "neutral">`:
   \   00000000   6E6575747261       DC8 "neutral"
   \              6C00        

   \                                 In segment DATA_C, align 4, align-sorted
   \                     `?<Constant "offended">`:
   \   00000000   6F6666656E64       DC8 "offended"
   \              656400      
   \   00000009   000000             DC8 0, 0, 0

   \                                 In segment DATA_C, align 4, align-sorted
   \                     `?<Constant "playful">`:
   \   00000000   706C61796675       DC8 "playful"
   \              6C00        

   \                                 In segment DATA_C, align 4, align-sorted
   \                     `?<Constant "proud">`:
   \   00000000   70726F756400       DC8 "proud"
   \   00000006   0000               DC8 0, 0

   \                                 In segment DATA_C, align 4, align-sorted
   \                     `?<Constant "relieved">`:
   \   00000000   72656C696576       DC8 "relieved"
   \              656400      
   \   00000009   000000             DC8 0, 0, 0

   \                                 In segment DATA_C, align 4, align-sorted
   \                     `?<Constant "remorseful">`:
   \   00000000   72656D6F7273       DC8 "remorseful"
   \              6566756C00  
   \   0000000B   00                 DC8 0

   \                                 In segment DATA_C, align 4, align-sorted
   \                     `?<Constant "restless">`:
   \   00000000   726573746C65       DC8 "restless"
   \              737300      
   \   00000009   000000             DC8 0, 0, 0

   \                                 In segment DATA_C, align 4, align-sorted
   \                     `?<Constant "sad">`:
   \   00000000   73616400           DC8 "sad"

   \                                 In segment DATA_C, align 4, align-sorted
   \                     `?<Constant "sarcastic">`:
   \   00000000   736172636173       DC8 "sarcastic"
   \              74696300    
   \   0000000A   0000               DC8 0, 0

   \                                 In segment DATA_C, align 4, align-sorted
   \                     `?<Constant "serious">`:
   \   00000000   736572696F75       DC8 "serious"
   \              7300        

   \                                 In segment DATA_C, align 4, align-sorted
   \                     `?<Constant "shocked">`:
   \   00000000   73686F636B65       DC8 "shocked"
   \              6400        
    324          // EOL,EOF

   Maximum stack usage in bytes:

     Function             CSTACK
     --------             ------
     ShowMoodTextDialog      76
     Show_Moods_Menu         44
     moodsmenu_ghook          8
     moodsmenu_keyhook        8
     moodsmenuitemhandler    24
     moodt_ghook              4
     moodt_locret             0
     moodt_onkey             64


   Segment part sizes:

     Function/Label                 Bytes
     --------------                 -----
     moodt_locret                      4
     moodt_onkey                     152
     moodt_ghook                      32
     ShowMoodTextDialog              316
     moodsmenu_keyhook                68
     moodsmenu_ghook                  88
     moodsmenu_sk                     24
     moodsmenu_skt                     8
     moodsmenuitemhandler            100
     ?<Constant "%smoods\\">          68
     moods_menuhdr                  1020
     moodt_desc                       84
     sk                                8
     moodt_sk                         24
     moodt_skt                         8
     moodsmenusoftkeys                12
     Show_Moods_Menu                 204
     ??DataTable1                      4
     ??DataTable6                      4
     ??DataTable7                      4
     ?<Initializer for moods_menuhdr>
                                    1020
     ?<Initializer for moodt_desc>    84
     ?<Initializer for sk>             8
     ?<Initializer for moodt_sk>      24
     ?<Initializer for moodt_skt>      8
     ?<Initializer for moodsmenusoftkeys>
                                      12
     ?<Constant "\321\345\360\344\350\362\373\351">
                                      12
     ?<Constant "shy">                 4
     ?<Constant "sick">                8
     ?<Constant "sleepy">              8
     ?<Constant "stressed">           12
     ?<Constant "surprised">          12
     ?<Constant "thirsty">             8
     ?<Constant "worried">             8
     ?<Constant "OK">                  3
     ?<Constant "\307\340\352\360\373\362\374">
                                       8
     ?<Constant "\322\345\352\361\362 \355\340\361\
                                      20
     ?<Constant "\302\373\341\356\360">
                                       8
     ?<Constant "\315\340\347\340\344">
                                       8
     ?<Constant "\315\340\361\362\360\356\345\355\3
                                      12
     ?<Constant "\315\345\362">        4
     ?<Constant "\301\356\377\347\355\374">
                                       8
     ?<Constant "\317\356\360\340\346\345\355\350\3
                                      12
     ?<Constant "\302\347\342\356\353\355\356\342\3
                                      12
     ?<Constant "\320\340\347\344\360\340\346\345\3
                                      16
     ?<Constant "\316\341\345\361\357\356\352\356\3
                                      12
     ?<Constant "\320\340\347\341\363\346\345\355">
                                      12
     ?<Constant "\321\362\373\344">    8
     ?<Constant "\321\352\363\352\356\362\340">
                                       8
     ?<Constant "\325\360\340\341\360\356\361\362\3
                                      12
     ?<Constant "\321\357\356\352\356\351\355\373\3
                                      12
     ?<Constant "\307\340\354\345\360\347">
                                       8
     ?<Constant "\321\354\363\371\345\355">
                                       8
     ?<Constant "\304\356\342\356\353\374\355\373\3
                                      12
     ?<Constant "\330\340\362\340\376\361\374">
                                       8
     ?<Constant "\313\376\341\356\357\373\362\361\3
                                      12
     ?<Constant "\304\345\357\360\345\361\361\350\3
                                      12
     ?<Constant "\320\340\347\356\367\340\360\356\3
                                      16
     ?<Constant "\316\362\342\360\340\371\345\355\3
                                      12
     ?<Constant "\320\340\361\362\345\360\377\355">
                                      12
     ?<Constant "\321\362\345\361\355\350\362\345\3
                                      16
     ?<Constant "\312\356\352\345\362\353\350\342\3
                                      16
     ?<Constant "\320\340\347\341\350\362\373\351">
                                      12
     ?<Constant "\321\342\340\360\353\350\342\356\3
                                      12
     ?<Constant "\302\350\355\356\342\340\362\373\3
                                      12
     ?<Constant "\321\367\340\361\362\353\350\342\3
                                      12
     ?<Constant "\306\340\360\352\356">
                                       8
     ?<Constant "\323\355\350\346\345\355">
                                       8
     ?<Constant "\316\361\352\356\360\341\353\345\3
                                      12
     ?<Constant "\303\356\353\356\344\345\355">
                                       8
     ?<Constant "\302\360\345\344\355\373\351">
                                       8
     ?<Constant "\302\357\345\367\340\362\353\345\3
                                      12
     ?<Constant "\321\362\360\340\365">
                                       8
     ?<Constant "\302\353\376\341\353\345\355">
                                       8
     ?<Constant "\302\356\347\354\363\371\345\355">
                                      12
     ?<Constant "\307\340\350\355\362\345\360\345\3
                                      16
     ?<Constant "\316\357\374\377\355\345\355">
                                       8
     ?<Constant "\315\345\363\352\360\356\362\350\3
                                      12
     ?<Constant "\320\345\342\355\356\361\362\374">
                                      12
     ?<Constant "\316\344\350\355\356\367\345\361\3
                                      12
     ?<Constant "\306\340\344\355\356\361\362\374">
                                      12
     ?<Constant "\312\340\357\360\350\347\355\373\3
                                      12
     ?<Constant "\302\356\347\341\363\346\344\345\3
                                      12
     ?<Constant "\315\345\351\362\360\340\353\374\3
                                      12
     ?<Constant "\310\343\360\350\342\373\351">
                                       8
     ?<Constant "\303\356\360\344\356\361\362\374">
                                      12
     ?<Constant "\321\342\356\341\356\344\340">
                                       8
     ?<Constant "\320\340\361\352\340\377\355\350\3
                                      12
     ?<Constant "\301\345\361\357\356\352\356\351\3
                                      16
     ?<Constant "\303\360\363\361\362\374">
                                       8
     ?<Constant "\321\340\360\352\340\347\354">
                                       8
     ?<Constant "\321\345\360\374\345\347\355\373\3
                                      12
     ?<Constant "\330\356\352\350\360\356\342\340\3
                                      12
     ?<Constant "\307\340\361\362\345\355\367\350\3
                                      16
     ?<Constant "\301\356\353\345\376">
                                       8
     ?<Constant "\321\357\353\376">    8
     ?<Constant "\321\362\360\345\361\361">
                                       8
     ?<Constant "\323\344\350\342\353\345\355">
                                       8
     ?<Constant "\306\340\346\344\340">
                                       8
     ?<Constant "\302\356\353\355\345\355\350\345">
                                      12
     ?<Constant "EMPTY">               8
     ?<Constant "afraid">              8
     ?<Constant "amazed">              8
     ?<Constant "angry">               8
     ?<Constant "annoyed">             8
     ?<Constant "anxious">             8
     ?<Constant "aroused">             8
     ?<Constant "ashamed">             8
     ?<Constant "bored">               8
     ?<Constant "brave">               8
     ?<Constant "calm">                8
     ?<Constant "cold">                8
     ?<Constant "confused">           12
     ?<Constant "contented">          12
     ?<Constant "cranky">              8
     ?<Constant "curious">             8
     ?<Constant "depressed">          12
     ?<Constant "disappointed">       16
     ?<Constant "disgusted">          12
     ?<Constant "distracted">         12
     ?<Constant "embarrassed">        12
     ?<Constant "excited">             8
     ?<Constant "flirtatious">        12
     ?<Constant "frustrated">         12
     ?<Constant "grumpy">              8
     ?<Constant "guilty">              8
     ?<Constant "happy">               8
     ?<Constant "hot">                 4
     ?<Constant "humbled">             8
     ?<Constant "humiliated">         12
     ?<Constant "hungry">              8
     ?<Constant "hurt">                8
     ?<Constant "impressed">          12
     ?<Constant "in_awe">              8
     ?<Constant "in_love">             8
     ?<Constant "indignant">          12
     ?<Constant "interested">         12
     ?<Constant "intoxicated">        12
     ?<Constant "invincible">         12
     ?<Constant "jealous">             8
     ?<Constant "lonely">              8
     ?<Constant "mean">                8
     ?<Constant "moody">               8
     ?<Constant "nervous">             8
     ?<Constant "neutral">             8
     ?<Constant "offended">           12
     ?<Constant "playful">             8
     ?<Constant "proud">               8
     ?<Constant "relieved">           12
     ?<Constant "remorseful">         12
     ?<Constant "restless">           12
     ?<Constant "sad">                 4
     ?<Constant "sarcastic">          12
     ?<Constant "serious">             8
     ?<Constant "shocked">             8
      Others                          56

 
 1 020 bytes in segment CODE
 1 399 bytes in segment DATA_C
 1 156 bytes in segment DATA_I
 1 156 bytes in segment DATA_ID
    12 bytes in segment INITTAB
 
   976 bytes of CODE  memory (+ 56 bytes shared)
 2 555 bytes of CONST memory
 1 156 bytes of DATA  memory

Errors: none
Warnings: none
