##############################################################################
#                                                                            #
# IAR ARM ANSI C/C++ Compiler V4.42A/W32 EVALUATION    10/Feb/2011  20:48:48 #
# Copyright 1999-2005 IAR Systems. All rights reserved.                      #
#                                                                            #
#    Cpu mode        =  interwork                                            #
#    Endian          =  little                                               #
#    Stack alignment =  4                                                    #
#    Source file     =  C:\arm\naticq_off\mainmenu.c                         #
#    Command line    =  C:\arm\naticq_off\mainmenu.c -D NEWSGOLD -D ELKA     #
#                       --preprocess C:\arm\naticq_off\Release_ELKA\List\    #
#                       -lC C:\arm\naticq_off\Release_ELKA\List\ -o          #
#                       C:\arm\naticq_off\Release_ELKA\Obj\ -s9 --no_unroll  #
#                       --cpu_mode arm --endian little --cpu ARM926EJ-S      #
#                       --stack_align 4 --interwork                          #
#                       --separate_cluster_for_initialized_variables -e      #
#                       --fpu None --dlib_config "C:\arm2\Embedded           #
#                       Workbench 4.0 Evaluation\ARM\LIB\dl5tpainl8n.h" -I   #
#                       "C:\arm2\Embedded Workbench 4.0                      #
#                       Evaluation\ARM\INC\" --inline_threshold=2            #
#    List file       =  C:\arm\naticq_off\Release_ELKA\List\mainmenu.lst     #
#    Object file     =  C:\arm\naticq_off\Release_ELKA\Obj\mainmenu.r79      #
#                                                                            #
#                                                                            #
##############################################################################

C:\arm\naticq_off\mainmenu.c
      1          #include "../inc/swilib.h"
      2          #include "../inc/cfg_items.h"
      3          #include "../inc/pnglist.h"
      4          #include "NatICQ.h"
      5          #include "history.h"
      6          #include "mainmenu.h"
      7          #include "main.h"
      8          #include "conf_loader.h"
      9          #include "status_change.h"
     10          #include "language.h"
     11          #include "revision.h"
     12          #include "manage_cl.h"
     13          #include "rect_patcher.h"
     14          #include "cl_work.h"
     15          #include "lang.h"
     16          
     17          extern char *successed_config_filename;
     18          
     19          //==============================================================================
     20          int MainMenu_ID;
     21          
     22          extern int CurrentStatus;
     23          extern int CurrentXStatus;
     24          extern DYNPNGICONLIST *XStatusesImgList;
     25          extern int *XStatusesIconArray;
     26          extern  int S_ICONS[];
     27          extern const SOFTKEYSTAB menu_skt;
     28          
     29          extern int Is_Vibra_Enabled;
     30          extern int Is_Sounds_Enabled; 
     31          extern int Is_Show_Offline;
     32          extern int Is_Show_Groups;
     33          

   \                                 In segment CODE, align 4, keep-with-next
     34          static void ChangeVibraMode(void)
     35          {
     36            Is_Vibra_Enabled=!(Is_Vibra_Enabled);
   \                     ChangeVibraMode:
   \   00000000   ........           LDR      R0,??DataTable9  ;; Is_Vibra_Enabled
   \   00000004   00402DE9           PUSH     {LR}
   \   00000008   001090E5           LDR      R1,[R0, #+0]
   \   0000000C   000051E3           CMP      R1,#+0
   \   00000010   0110A003           MOVEQ    R1,#+1
   \   00000014   0010A013           MOVNE    R1,#+0
   \   00000018   001080E5           STR      R1,[R0, #+0]
     37            SUBPROC((void*)WriteDefSettings);
   \   0000001C   ........           LDR      R0,??DataTable7  ;; WriteDefSettings
   \   00000020   710100EF           SWI      +369
     38            RefreshGUI();
   \   00000024   960100EF           SWI      +406
     39          }
   \   00000028   0080BDE8           POP      {PC}             ;; return
     40            

   \                                 In segment CODE, align 4, keep-with-next
     41          static void ChangeSoundMode(void)
     42          {
     43            Is_Sounds_Enabled=!(Is_Sounds_Enabled);
   \                     ChangeSoundMode:
   \   00000000   ........           LDR      R0,??DataTable10  ;; Is_Sounds_Enabled
   \   00000004   00402DE9           PUSH     {LR}
   \   00000008   001090E5           LDR      R1,[R0, #+0]
   \   0000000C   000051E3           CMP      R1,#+0
   \   00000010   0110A003           MOVEQ    R1,#+1
   \   00000014   0010A013           MOVNE    R1,#+0
   \   00000018   001080E5           STR      R1,[R0, #+0]
     44            SUBPROC((void*)WriteDefSettings);
   \   0000001C   ........           LDR      R0,??DataTable7  ;; WriteDefSettings
   \   00000020   710100EF           SWI      +369
     45            RefreshGUI();
   \   00000024   960100EF           SWI      +406
     46          }
   \   00000028   0080BDE8           POP      {PC}             ;; return
     47          

   \                                 In segment CODE, align 4, keep-with-next
     48          static void ChangeShowOfflineMode(void)
     49          {
     50            void RecountMenu(CLIST *req, int needfocus);
     51            Is_Show_Offline=!(Is_Show_Offline);
   \                     ChangeShowOfflineMode:
   \   00000000   ........           LDR      R0,??DataTable11  ;; Is_Show_Offline
   \   00000004   00402DE9           PUSH     {LR}
   \   00000008   001090E5           LDR      R1,[R0, #+0]
   \   0000000C   000051E3           CMP      R1,#+0
   \   00000010   0110A003           MOVEQ    R1,#+1
   \   00000014   0010A013           MOVNE    R1,#+0
   \   00000018   001080E5           STR      R1,[R0, #+0]
     52            SUBPROC((void*)WriteDefSettings);
   \   0000001C   ........           LDR      R0,??DataTable7  ;; WriteDefSettings
   \   00000020   710100EF           SWI      +369
     53            RecountMenu(NULL, 1);
   \   00000024   0110A0E3           MOV      R1,#+1
   \   00000028   0000A0E3           MOV      R0,#+0
   \   0000002C   ........           _BLF     RecountMenu,??RecountMenu??rA
     54            RefreshGUI();
   \   00000030   960100EF           SWI      +406
     55          }
   \   00000034   0080BDE8           POP      {PC}             ;; return
     56          

   \                                 In segment CODE, align 4, keep-with-next
     57          static void ChangeShowGroupsMode(void)
     58          {
     59            void RecountMenu(CLIST *req, int needfocus);
     60            Is_Show_Groups=!(Is_Show_Groups);
   \                     ChangeShowGroupsMode:
   \   00000000   ........           LDR      R0,??DataTable12  ;; Is_Show_Groups
   \   00000004   00402DE9           PUSH     {LR}
   \   00000008   001090E5           LDR      R1,[R0, #+0]
   \   0000000C   000051E3           CMP      R1,#+0
   \   00000010   0110A003           MOVEQ    R1,#+1
   \   00000014   0010A013           MOVNE    R1,#+0
   \   00000018   001080E5           STR      R1,[R0, #+0]
     61            SUBPROC((void*)WriteDefSettings);
   \   0000001C   ........           LDR      R0,??DataTable7  ;; WriteDefSettings
   \   00000020   710100EF           SWI      +369
     62            ResortCL();
   \   00000024   ........           _BLF     ResortCL,??ResortCL??rA
     63            RecountMenu(NULL, 1);
   \   00000028   0110A0E3           MOV      R1,#+1
   \   0000002C   0000A0E3           MOV      R0,#+0
   \   00000030   ........           _BLF     RecountMenu,??RecountMenu??rA
     64            RefreshGUI();
   \   00000034   960100EF           SWI      +406
     65          }
   \   00000038   0080BDE8           POP      {PC}             ;; return
     66          

   \                                 In segment CODE, align 4, keep-with-next
     67          static void EditConfig(void)
     68          {
     69            OpenConfig();
   \                     EditConfig:
   \   00000000   ........           _BF      OpenConfig,??OpenConfig??rA  ;; tailcall
     70          }
     71          

   \                                 In segment CODE, align 4, keep-with-next
     72          static void Disconnect(void)
     73          {
     74            extern volatile int disautorecconect;
     75            disautorecconect=1;
   \                     Disconnect:
   \   00000000   1C009FE5           LDR      R0,??Disconnect_0  ;; disautorecconect
   \   00000004   00402DE9           PUSH     {LR}
   \   00000008   0110A0E3           MOV      R1,#+1
   \   0000000C   001080E5           STR      R1,[R0, #+0]
     76            extern void end_socket(void);
     77            SUBPROC((void*)end_socket);
   \   00000010   10009FE5           LDR      R0,??Disconnect_0+0x4  ;; end_socket
   \   00000014   710100EF           SWI      +369
     78            GeneralFuncF1(1);
   \   00000018   0100A0E3           MOV      R0,#+1
   \   0000001C   3B0100EF           SWI      +315
     79          }
   \   00000020   0080BDE8           POP      {PC}             ;; return
   \                     ??Disconnect_0:
   \   00000024   ........           DC32     disautorecconect
   \   00000028   ........           DC32     end_socket
     80          

   \                                 In segment CODE, align 4, keep-with-next
     81          static void PingToServer(void)
     82          {
   \                     PingToServer:
   \   00000000   10402DE9           PUSH     {R4,LR}
     83            TPKT *p;
     84            p=malloc(sizeof(PKT)+sizeof(TTime));
   \   00000004   1000A0E3           MOV      R0,#+16
   \   00000008   140000EF           SWI      +20
   \   0000000C   0040A0E1           MOV      R4,R0
     85            GetDateTime(NULL,(TTime *)p->data);
   \   00000010   081084E2           ADD      R1,R4,#+8
   \   00000014   0000A0E3           MOV      R0,#+0
   \   00000018   B40000EF           SWI      +180
     86            p->pkt.uin=0;
   \   0000001C   0000A0E3           MOV      R0,#+0
   \   00000020   000084E5           STR      R0,[R4, #+0]
     87            p->pkt.type=T_ECHO;
   \   00000024   1200A0E3           MOV      R0,#+18
   \   00000028   B400C4E1           STRH     R0,[R4, #+4]
     88            p->pkt.data_len=sizeof(TTime);
   \   0000002C   0800A0E3           MOV      R0,#+8
   \   00000030   B600C4E1           STRH     R0,[R4, #+6]
     89            SUBPROC((void *)SendAnswer,0,p);
   \   00000034   0C009FE5           LDR      R0,??PingToServer_0  ;; SendAnswer
   \   00000038   0420A0E1           MOV      R2,R4
   \   0000003C   0010A0E3           MOV      R1,#+0
   \   00000040   710100EF           SWI      +369
     90          }
   \   00000044   1080BDE8           POP      {R4,PC}          ;; return
   \                     ??PingToServer_0:
   \   00000048   ........           DC32     SendAnswer
     91          

   \                                 In segment CODE, align 4, keep-with-next
     92          static void AboutDlg()
     93          {
     94            char s[256];
     95            snprintf(s,255,LG_COPYRIGHT,__SVN_REVISION__);
   \                     AboutDlg:
   \   00000000   28209FE5           LDR      R2,??AboutDlg_0  ;; `?<Constant "NATICQ v2.1\\nRevision ...">`
   \   00000004   00402DE9           PUSH     {LR}
   \   00000008   40DF4DE2           SUB      SP,SP,#+256
   \   0000000C   443082E2           ADD      R3,R2,#+68
   \   00000010   FF10A0E3           MOV      R1,#+255
   \   00000014   0D00A0E1           MOV      R0,SP
   \   00000018   1B0100EF           SWI      +283
     96            ShowMSG(2, (int)s);
   \   0000001C   0D10A0E1           MOV      R1,SP
   \   00000020   0200A0E3           MOV      R0,#+2
   \   00000024   480100EF           SWI      +328
     97          }
   \   00000028   40DF8DE2           ADD      SP,SP,#+256
   \   0000002C   0080BDE8           POP      {PC}             ;; return
   \                     ??AboutDlg_0:
   \   00000030   ........           DC32     `?<Constant "NATICQ v2.1\\nRevision ...">`
     98          
     99          static HEADER_DESC menuhdr={0,0,0,0,NULL,NULL,LGP_NULL};
    100          

   \                                 In segment DATA_C, align 4, align-sorted
    101          static const int mmenusoftkeys[]={0,1,2};
   \                     mmenusoftkeys:
   \   00000000   000000000100       DC32 0, 1, 2
   \              000002000000

   \                                 In segment DATA_I, align 4, align-sorted
   \                     menuhdr:
   \   00000000                      DS8 20
   \   00000014                      REQUIRE `?<Initializer for menuhdr>`
   \   00000014                      DS8 44
   \   00000040                      REQUIRE `?<Initializer for menutexts>`
    102          
    103          static char * menutexts[11]=
    104          {
    105            NULL,
    106            NULL,
    107            NULL,
    108            NULL,
    109            NULL,
    110            NULL,
    111            NULL,
    112            NULL,
    113            NULL,
    114            NULL,
    115            NULL
    116          };
    117          
    118          /*MENUITEM_DESC menuitems[7]=
    119          {
    120            {S_ICONS,    (int)LG_MNUSTATUS,  LGP_NULL,0,NULL,MENU_FLAG3,MENU_FLAG2},
    121            {NULL,       (int)LG_MNUADDCONT, LGP_NULL,0,NULL,MENU_FLAG3,MENU_FLAG2},
    122            {icon_array, (int)LG_MNUVIBRA,   LGP_NULL,0,NULL,MENU_FLAG3,MENU_FLAG2},
    123            {icon_array, (int)LG_MNUSOUND,   LGP_NULL,0,NULL,MENU_FLAG3,MENU_FLAG2},
    124            {NULL,       (int)LG_MNUEDCFG,   LGP_NULL,0,NULL,MENU_FLAG3,MENU_FLAG2},
    125            {NULL,       (int)LG_MNUPING ,   LGP_NULL,0,NULL,MENU_FLAG3,MENU_FLAG2},
    126            {S_ICONS,    (int)LG_MNUABOUT,   LGP_NULL,0,NULL,MENU_FLAG3,MENU_FLAG2},
    127          };*/
    128          
    129          static const void *menuprocs[11]=
    130          {
    131            (void *)DispStatusChangeMenu,
    132            (void *)DispXStatusChangeMenu,
    133            (void *)CreateManageCLMenu,
    134            (void *)ChangeVibraMode,
    135            (void *)ChangeSoundMode,
    136            (void *)ChangeShowOfflineMode,
    137            (void *)ChangeShowGroupsMode,
    138            (void *)EditConfig,
    139            (void *)Disconnect,
    140            (void *)PingToServer,
    141            (void *)AboutDlg,
    142          };
    143          
    144          static SOFTKEY_DESC mmenu_sk[]=
   \                     mmenu_sk:
   \   00000040                      DS8 24
   \   00000058                      REQUIRE `?<Initializer for mmenu_sk>`

   \                                 In segment DATA_I, align 4, align-sorted
   \                     menuprocs:
   \   00000000                      DS8 44
   \   0000002C                      REQUIRE `?<Initializer for menuprocs>`
    145          {
    146            {0x0018,0x0000,NULL},
    147            {0x0001,0x0000,NULL},
    148            {0x003D,0x0000,(int)LGP_DOIT_PIC}
    149          };
    150          

   \                                 In segment DATA_I, align 4, align-sorted
    151          static SOFTKEYSTAB mmenu_skt=
   \                     mmenu_skt:
   \   00000000                      DS8 8
   \   00000008                      REQUIRE `?<Initializer for mmenu_skt>`
    152          {
    153            mmenu_sk,0
    154          };
    155          

   \                                 In segment CODE, align 4, keep-with-next
    156          void tmenu_ghook(void *data, int cmd)
    157          {
   \                     tmenu_ghook:
   \   00000000   10402DE9           PUSH     {R4,LR}
   \   00000004   0140A0E1           MOV      R4,R1
    158            PNGTOP_DESC *pltop=PNG_TOP();
   \   00000008   B98100EF           SWI      +33209
    159            if (cmd==9)
   \   0000000C   090054E3           CMP      R4,#+9
    160            {
    161              pltop->dyn_pltop=NULL;
   \   00000010   0010A003           MOVEQ    R1,#+0
   \   00000014   08108005           STREQ    R1,[R0, #+8]
   \   00000018   1080BD08           POPEQ    {R4,PC}
    162            }
    163            if (cmd==0x0A)
   \   0000001C   0A0054E3           CMP      R4,#+10
   \   00000020   1080BD18           POPNE    {R4,PC}
    164            {
    165              pltop->dyn_pltop=XStatusesImgList;
   \   00000024   0C109FE5           LDR      R1,??tmenu_ghook_0  ;; XStatusesImgList
   \   00000028   001091E5           LDR      R1,[R1, #+0]
   \   0000002C   081080E5           STR      R1,[R0, #+8]
    166              DisableIDLETMR();
   \   00000030   7F0100EF           SWI      +383
    167            }
    168          }
   \   00000034   1080BDE8           POP      {R4,PC}          ;; return
   \                     ??tmenu_ghook_0:
   \   00000038   ........           DC32     XStatusesImgList

   \                                 In segment DATA_Z, align 4, align-sorted
    169          
    170          static int icon_array[2];
   \                     icon_array:
   \   00000000                      DS8 8
   \                     MainMenu_ID:
   \   00000008                      DS8 4
    171          

   \                                 In segment CODE, align 4, keep-with-next
    172          static void menuitemhandler(void *data, int curitem, void *unk)
    173          {
   \                     menuitemhandler:
   \   00000000   F0412DE9           PUSH     {R4-R8,LR}
   \   00000004   0040A0E1           MOV      R4,R0
   \   00000008   0150A0E1           MOV      R5,R1
    174            WSHDR *ws;
    175            void *item=AllocMenuItem(data);
   \   0000000C   970100EF           SWI      +407
   \   00000010   0060A0E1           MOV      R6,R0
    176            extern const char percent_t[];
    177            ws=AllocMenuWS(data,strlen(menutexts[curitem]));
   \   00000014   00019FE5           LDR      R0,??menuitemhandler_1  ;; menuhdr
   \   00000018   058180E0           ADD      R8,R0,R5, LSL #+2
   \   0000001C   140098E5           LDR      R0,[R8, #+20]
   \   00000020   1B0000EF           SWI      +27
   \   00000024   0010A0E1           MOV      R1,R0
   \   00000028   0400A0E1           MOV      R0,R4
   \   0000002C   980100EF           SWI      +408
    178            wsprintf(ws,percent_t,menutexts[curitem]);
   \   00000030   E8109FE5           LDR      R1,??menuitemhandler_1+0x4  ;; percent_t
   \   00000034   142098E5           LDR      R2,[R8, #+20]
   \   00000038   0070A0E1           MOV      R7,R0
   \   0000003C   240100EF           SWI      +292
    179            switch(curitem)
   \   00000040   ........           LDR      R0,??DataTable13  ;; icon_array
   \   00000044   D8209FE5           LDR      R2,??menuitemhandler_1+0x8  ;; S_ICONS
   \   00000048   0510A0E1           MOV      R1,R5
   \   0000004C   0A0051E3           CMP      R1,#+10
   \   00000050   2B00008A           BHI      ??menuitemhandler_2
   \   00000054   013F8FE2           ADR      R3,??menuitemhandler_0
   \   00000058   0130D3E7           LDRB     R3,[R3, R1]
   \   0000005C   03F18FE0           ADD      PC,PC,R3, LSL #+2
   \                     ??menuitemhandler_0:
   \   00000060   02060C0E           DC8      +2,+6,+12,+14
   \   00000064   15171E20           DC8      +21,+23,+30,+32
   \   00000068   25222400           DC8      +37,+34,+36,+0
    180            {
    181            case 0:
    182              SetMenuItemIconArray(data,item,S_ICONS+CurrentStatus);
   \                     ??menuitemhandler_3:
   \   0000006C   B4009FE5           LDR      R0,??menuitemhandler_1+0xC  ;; CurrentStatus
   \   00000070   000090E5           LDR      R0,[R0, #+0]
   \   00000074   002182E0           ADD      R2,R2,R0, LSL #+2
   \   00000078   1E0000EA           B        ??menuitemhandler_4
    183              break;
    184            case 1:
    185              SetMenuItemIconArray(data,item,XStatusesIconArray+CurrentXStatus);
   \                     ??menuitemhandler_5:
   \   0000007C   A8009FE5           LDR      R0,??menuitemhandler_1+0x10  ;; CurrentXStatus
   \   00000080   A8109FE5           LDR      R1,??menuitemhandler_1+0x14  ;; XStatusesIconArray
   \   00000084   000090E5           LDR      R0,[R0, #+0]
   \   00000088   001091E5           LDR      R1,[R1, #+0]
   \   0000008C   002181E0           ADD      R2,R1,R0, LSL #+2
   \   00000090   180000EA           B        ??menuitemhandler_4
    186              break;
    187            case 2:
    188              SetMenuItemIconArray(data,item,S_ICONS+ICON_ADDCONTACT);
   \                     ??menuitemhandler_6:
   \   00000094   482082E2           ADD      R2,R2,#+72
   \   00000098   160000EA           B        ??menuitemhandler_4
    189              break;
    190            case 3:
    191              SetMenuItemIconArray(data,item,icon_array+(Is_Vibra_Enabled?0:1));
   \                     ??menuitemhandler_7:
   \   0000009C   ........           LDR      R1,??DataTable9  ;; Is_Vibra_Enabled
   \                     ??menuitemhandler_8:
   \   000000A0   001091E5           LDR      R1,[R1, #+0]
   \   000000A4   000051E3           CMP      R1,#+0
   \   000000A8   0010A013           MOVNE    R1,#+0
   \   000000AC   0110A003           MOVEQ    R1,#+1
   \   000000B0   012180E0           ADD      R2,R0,R1, LSL #+2
   \   000000B4   0F0000EA           B        ??menuitemhandler_4
    192              break;
    193            case 4:
    194              SetMenuItemIconArray(data,item,icon_array+(Is_Sounds_Enabled?0:1));
   \                     ??menuitemhandler_9:
   \   000000B8   ........           LDR      R1,??DataTable10  ;; Is_Sounds_Enabled
   \   000000BC   F7FFFFEA           B        ??menuitemhandler_8
    195              break;
    196            case 5:
    197              SetMenuItemIconArray(data,item,icon_array+(Is_Show_Offline?0:1));
   \                     ??menuitemhandler_10:
   \   000000C0   ........           LDR      R1,??DataTable11  ;; Is_Show_Offline
   \   000000C4   001091E5           LDR      R1,[R1, #+0]
   \   000000C8   000051E3           CMP      R1,#+0
   \   000000CC   0010A013           MOVNE    R1,#+0
   \   000000D0   0110A003           MOVEQ    R1,#+1
   \   000000D4   012180E0           ADD      R2,R0,R1, LSL #+2
   \   000000D8   060000EA           B        ??menuitemhandler_4
    198              break;
    199            case 6:
    200              SetMenuItemIconArray(data,item,icon_array+(Is_Show_Groups?0:1));
   \                     ??menuitemhandler_11:
   \   000000DC   ........           LDR      R1,??DataTable12  ;; Is_Show_Groups
   \   000000E0   EEFFFFEA           B        ??menuitemhandler_8
    201              break;    
    202            case 7:
    203              SetMenuItemIconArray(data,item,S_ICONS+ICON_SETTINGS);
   \                     ??menuitemhandler_12:
   \   000000E4   582082E2           ADD      R2,R2,#+88
   \   000000E8   020000EA           B        ??menuitemhandler_4
    204              break;
    205            case 8:
    206              SetMenuItemIconArray(data,item,S_ICONS+IS_OFFLINE);
    207              break;
    208            case 9:
    209              SetMenuItemIconArray(data,item,S_ICONS+ICON_PING);
   \                     ??menuitemhandler_13:
   \   000000EC   542082E2           ADD      R2,R2,#+84
   \   000000F0   000000EA           B        ??menuitemhandler_4
    210              break;
    211            case 10:
    212              SetMenuItemIconArray(data,item,S_ICONS+IS_UNKNOWN);
   \                     ??menuitemhandler_14:
   \   000000F4   382082E2           ADD      R2,R2,#+56
   \                     ??menuitemhandler_4:
   \   000000F8   0610A0E1           MOV      R1,R6
   \   000000FC   0400A0E1           MOV      R0,R4
   \   00000100   990100EF           SWI      +409
    213              break;
    214            }
    215            SetMenuItemText(data, item, ws, curitem);
   \                     ??menuitemhandler_2:
   \   00000104   0530A0E1           MOV      R3,R5
   \   00000108   0720A0E1           MOV      R2,R7
   \   0000010C   0610A0E1           MOV      R1,R6
   \   00000110   0400A0E1           MOV      R0,R4
   \   00000114   9A0100EF           SWI      +410
    216          }
   \   00000118   F081BDE8           POP      {R4-R8,PC}       ;; return
   \                     ??menuitemhandler_1:
   \   0000011C   ........           DC32     menuhdr
   \   00000120   ........           DC32     percent_t
   \   00000124   ........           DC32     S_ICONS
   \   00000128   ........           DC32     CurrentStatus
   \   0000012C   ........           DC32     CurrentXStatus
   \   00000130   ........           DC32     XStatusesIconArray
    217          

   \                                 In segment CODE, align 4, keep-with-next
    218          static int tmenu_keyhook(void *data, GUI_MSG *msg)
    219          {
   \                     tmenu_keyhook:
   \   00000000   00402DE9           PUSH     {LR}
    220            if ((msg->keys==0x18)||(msg->keys==0x3D))
   \   00000004   F210D1E1           LDRSH    R1,[R1, #+2]
   \   00000008   180051E3           CMP      R1,#+24
   \   0000000C   3D005113           CMPNE    R1,#+61
   \   00000010   0300001A           BNE      ??tmenu_keyhook_0
    221            {
    222              ((void (*)(void))(menuprocs[GetCurMenuItem(data)]))();
   \   00000014   8F0100EF           SWI      +399
   \   00000018   0C109FE5           LDR      R1,??tmenu_keyhook_1  ;; menuprocs
   \   0000001C   000191E7           LDR      R0,[R1, +R0, LSL #+2]
   \   00000020   30FF2FE1           BLX      R0
    223            }
    224            return(0);
   \                     ??tmenu_keyhook_0:
   \   00000024   0000A0E3           MOV      R0,#+0
   \   00000028   0080BDE8           POP      {PC}             ;; return
   \                     ??tmenu_keyhook_1:
   \   0000002C   ........           DC32     menuprocs
    225          }
    226          
    227          

   \                                 In segment DATA_C, align 4, align-sorted
    228          static const MENU_DESC tmenu=
   \                     tmenu:
   \   00000000   08000000....       DC32 8, tmenu_keyhook, tmenu_ghook, 0H, mmenusoftkeys, mmenu_skt, 17
   \              ............
   \              00000000....
   \              ............
   \              11000000    
   \   0000001C   ........0000       DC32 menuitemhandler, 0H, 0H, 11
   \              000000000000
   \              0B000000    
    229          {
    230            8,tmenu_keyhook,tmenu_ghook,NULL,
    231            mmenusoftkeys,
    232            &mmenu_skt,
    233            0x11,//MENU_FLAG,
    234            menuitemhandler,
    235            NULL,//menuitems,
    236            NULL,//menuprocs,
    237            11
    238          };
    239          

   \                                 In segment CODE, align 4, keep-with-next
    240          void ShowMainMenu()
    241          {
   \                     ShowMainMenu:
   \   00000000   30402DE9           PUSH     {R4,R5,LR}
    242            icon_array[0]=GetPicNByUnicodeSymbol(CBOX_CHECKED);
   \   00000004   ........           LDR      R4,??DataTable13  ;; icon_array
    243            icon_array[1]=GetPicNByUnicodeSymbol(CBOX_UNCHECKED);
    244          
    245            //Инициализация ленгпака
    246            menuhdr.lgp_id=(int)lgpData[LGP_Menu];
   \   00000008   F4509FE5           LDR      R5,??ShowMainMenu_0  ;; menuhdr
   \   0000000C   1600A0E3           MOV      R0,#+22
   \   00000010   E10C80E3           ORR      R0,R0,#0xE100
   \   00000014   E40100EF           SWI      +484
   \   00000018   000084E5           STR      R0,[R4, #+0]
   \   0000001C   1700A0E3           MOV      R0,#+23
   \   00000020   E10C80E3           ORR      R0,R0,#0xE100
   \   00000024   E40100EF           SWI      +484
   \   00000028   040084E5           STR      R0,[R4, #+4]
   \   0000002C   D4009FE5           LDR      R0,??ShowMainMenu_0+0x4  ;; lgpData
   \   00000030   181090E5           LDR      R1,[R0, #+24]
   \   00000034   0C1085E5           STR      R1,[R5, #+12]
    247            
    248            mmenu_sk[0].lgp_id=(int)lgpData[LGP_Select];
   \   00000038   301090E5           LDR      R1,[R0, #+48]
   \   0000003C   441085E5           STR      R1,[R5, #+68]
    249            mmenu_sk[1].lgp_id=(int)lgpData[LGP_Back];
   \   00000040   381090E5           LDR      R1,[R0, #+56]
   \   00000044   4C1085E5           STR      R1,[R5, #+76]
    250            
    251            menutexts[0]=(char *)lgpData[LGP_MnuStatus];
   \   00000048   5C1090E5           LDR      R1,[R0, #+92]
   \   0000004C   141085E5           STR      R1,[R5, #+20]
    252            menutexts[1]=(char *)lgpData[LGP_MnuXStatus];
   \   00000050   601090E5           LDR      R1,[R0, #+96]
   \   00000054   181085E5           STR      R1,[R5, #+24]
    253            menutexts[2]=(char *)lgpData[LGP_ManageList];
   \   00000058   141190E5           LDR      R1,[R0, #+276]
   \   0000005C   1C1085E5           STR      R1,[R5, #+28]
    254            menutexts[3]=(char *)lgpData[LGP_MnuVibra];
   \   00000060   681090E5           LDR      R1,[R0, #+104]
   \   00000064   201085E5           STR      R1,[R5, #+32]
    255            menutexts[4]=(char *)lgpData[LGP_MnuSound];
   \   00000068   6C1090E5           LDR      R1,[R0, #+108]
   \   0000006C   241085E5           STR      R1,[R5, #+36]
    256            menutexts[5]=(char *)lgpData[LGP_MnuShowOff];
   \   00000070   701090E5           LDR      R1,[R0, #+112]
   \   00000074   281085E5           STR      R1,[R5, #+40]
    257            menutexts[6]=(char *)lgpData[LGP_MnuShowGroup];
   \   00000078   741090E5           LDR      R1,[R0, #+116]
   \   0000007C   2C1085E5           STR      R1,[R5, #+44]
    258            menutexts[7]=(char *)lgpData[LGP_MnuEdCfg];
   \   00000080   781090E5           LDR      R1,[R0, #+120]
   \   00000084   301085E5           STR      R1,[R5, #+48]
    259            menutexts[8]=(char *)lgpData[LGP_MnuDisconnect];
   \   00000088   7C1090E5           LDR      R1,[R0, #+124]
   \   0000008C   341085E5           STR      R1,[R5, #+52]
    260            menutexts[9]=(char *)lgpData[LGP_MnuPing];
   \   00000090   801090E5           LDR      R1,[R0, #+128]
    261            menutexts[10]=(char *)lgpData[LGP_MnuAbout];
   \   00000094   840090E5           LDR      R0,[R0, #+132]
   \   00000098   381085E5           STR      R1,[R5, #+56]
   \   0000009C   3C0085E5           STR      R0,[R5, #+60]
    262            
    263            *((int **)(&menuhdr.icon))=S_ICONS+IS_ONLINE;
   \   000000A0   64009FE5           LDR      R0,??ShowMainMenu_0+0x8  ;; S_ICONS + 44
   \   000000A4   080085E5           STR      R0,[R5, #+8]
    264            patch_header(&menuhdr);
   \   000000A8   0000A0E3           MOV      R0,#+0
   \   000000AC   B000C5E1           STRH     R0,[R5, #+0]
   \   000000B0   1800A0E3           MOV      R0,#+24
   \   000000B4   B200C5E1           STRH     R0,[R5, #+2]
   \   000000B8   888100EF           SWI      +33160
   \   000000BC   010040E2           SUB      R0,R0,#+1
   \   000000C0   B400C5E1           STRH     R0,[R5, #+4]
   \   000000C4   8A8100EF           SWI      +33162
    265            MainMenu_ID=CreateMenu(0,0,&tmenu,&menuhdr,0,11,0,0);
   \   000000C8   40209FE5           LDR      R2,??ShowMainMenu_0+0xC  ;; tmenu
   \   000000CC   170080E2           ADD      R0,R0,#+23
   \   000000D0   B600C5E1           STRH     R0,[R5, #+6]
   \   000000D4   0000A0E3           MOV      R0,#+0
   \   000000D8   01002DE9           PUSH     {R0}
   \   000000DC   01002DE9           PUSH     {R0}
   \   000000E0   0530A0E1           MOV      R3,R5
   \   000000E4   0010A0E3           MOV      R1,#+0
   \   000000E8   0B00A0E3           MOV      R0,#+11
   \   000000EC   01002DE9           PUSH     {R0}
   \   000000F0   0000A0E3           MOV      R0,#+0
   \   000000F4   01002DE9           PUSH     {R0}
   \   000000F8   520100EF           SWI      +338
   \   000000FC   080084E5           STR      R0,[R4, #+8]
    266          }
   \   00000100   3F80BDE8           POP      {R0-R5,PC}       ;; return
   \                     ??ShowMainMenu_0:
   \   00000104   ........           DC32     menuhdr
   \   00000108   ........           DC32     lgpData
   \   0000010C   ........           DC32     S_ICONS + 44
   \   00000110   ........           DC32     tmenu

   \                                 In segment CODE, align 4, keep-with-next
   \                     ??DataTable7:
   \   00000000   ........           DC32     WriteDefSettings

   \                                 In segment CODE, align 4, keep-with-next
   \                     ??DataTable9:
   \   00000000   ........           DC32     Is_Vibra_Enabled

   \                                 In segment CODE, align 4, keep-with-next
   \                     ??DataTable10:
   \   00000000   ........           DC32     Is_Sounds_Enabled

   \                                 In segment CODE, align 4, keep-with-next
   \                     ??DataTable11:
   \   00000000   ........           DC32     Is_Show_Offline

   \                                 In segment CODE, align 4, keep-with-next
   \                     ??DataTable12:
   \   00000000   ........           DC32     Is_Show_Groups

   \                                 In segment CODE, align 4, keep-with-next
   \                     ??DataTable13:
   \   00000000   ........           DC32     icon_array

   \                                 In segment DATA_ID, align 4, align-sorted
   \                     `?<Initializer for menuhdr>`:
   \   00000000   000000000000       DC16 0, 0, 0, 0
   \              0000        
   \   00000008   000000000000       DC32 0H, 0, 2147483647
   \              0000FFFFFF7F
   \                     `?<Initializer for menutexts>`:
   \   00000014   000000000000       DC32 0H, 0H, 0H, 0H, 0H, 0H, 0H, 0H, 0H, 0H, 0H
   \              000000000000
   \              000000000000
   \              000000000000
   \              000000000000
   \              000000000000
   \              000000000000
   \              0000        
   \                     `?<Initializer for mmenu_sk>`:
   \   00000040   18000000           DC16 24, 0
   \   00000044   00000000           DC32 0
   \   00000048   01000000           DC16 1, 0
   \   0000004C   00000000           DC32 0
   \   00000050   3D000000           DC16 61, 0
   \   00000054   FBC0FF7F           DC32 2147467515

   \                                 In segment DATA_ID, align 4, align-sorted
   \                     `?<Initializer for menuprocs>`:
   \   00000000   ............       DC32 DispStatusChangeMenu, DispXStatusChangeMenu, CreateManageCLMenu
   \              ............
   \   0000000C   ............       DC32 ChangeVibraMode, ChangeSoundMode, ChangeShowOfflineMode
   \              ............
   \   00000018   ............       DC32 ChangeShowGroupsMode, EditConfig, Disconnect, PingToServer
   \              ............
   \              ........    
   \   00000028   ........           DC32 AboutDlg

   \                                 In segment DATA_ID, align 4, align-sorted
   \                     `?<Initializer for mmenu_skt>`:
   \   00000000   ........0000       DC32 mmenu_sk, 0
   \              0000        

   \                                 In segment DATA_C, align 4, align-sorted
   \                     `?<Constant "NATICQ v2.1\\nRevision ...">`:
   \   00000000   4E4154494351       DC8 4EH, 41H, 54H, 49H, 43H, 51H, 20H, 76H
   \              2076        
   \   00000008   322E310A5265       DC8 32H, 2EH, 31H, 0AH, 52H, 65H, 76H, 69H
   \              7669        
   \   00000010   73696F6E2025       DC8 73H, 69H, 6FH, 6EH, 20H, 25H, 64H, 0AH
   \              640A        
   \   00000018   284329206279       DC8 28H, 43H, 29H, 20H, 62H, 79H, 20H, 52H
   \              2052        
   \   00000020   7374372F4342       DC8 73H, 74H, 37H, 2FH, 43H, 42H, 53H, 49H
   \              5349        
   \   00000028   450A4B72656E       DC8 45H, 0AH, 4BH, 72H, 65H, 6EH, 0AH, 4BH
   \              0A4B        
   \   00000030   696261620A53       DC8 69H, 62H, 61H, 62H, 0AH, 53H, 68H, 61H
   \              6861        
   \   00000038   646F770A5365       DC8 64H, 6FH, 77H, 0AH, 53H, 65H, 6BH, 6CH
   \              6B6C        
   \   00000040   746800             DC8 74H, 68H, 0
   \   00000043   00                 DC8 0
   \   00000044   3336323400         DC8 "3624"
   \   00000049   000000             DC8 0, 0, 0

   Maximum stack usage in bytes:

     Function              CSTACK
     --------              ------
     AboutDlg                260
     ChangeShowGroupsMode      4
     ChangeShowOfflineMode     4
     ChangeSoundMode           4
     ChangeVibraMode           4
     Disconnect                4
     EditConfig                4
     PingToServer              8
     ShowMainMenu             28
     menuitemhandler          24
     tmenu_ghook               8
     tmenu_keyhook             4


   Segment part sizes:

     Function/Label                 Bytes
     --------------                 -----
     ChangeVibraMode                  44
     ChangeSoundMode                  44
     ChangeShowOfflineMode            56
     ChangeShowGroupsMode             60
     EditConfig                        4
     Disconnect                       44
     PingToServer                     76
     AboutDlg                         52
     mmenusoftkeys                    12
     menuhdr                          88
     menuprocs                        44
     mmenu_skt                         8
     tmenu_ghook                      60
     icon_array                       12
     menuitemhandler                 308
     tmenu_keyhook                    48
     tmenu                            44
     ShowMainMenu                    276
     ??DataTable7                      4
     ??DataTable9                      4
     ??DataTable10                     4
     ??DataTable11                     4
     ??DataTable12                     4
     ??DataTable13                     4
     ?<Initializer for menuhdr>       88
     ?<Initializer for menuprocs>     44
     ?<Initializer for mmenu_skt>      8
     ?<Constant "NATICQ v2.1\nRevision ...">
                                      76
      Others                         108

 
 1 180 bytes in segment CODE
   132 bytes in segment DATA_C
   140 bytes in segment DATA_I
   140 bytes in segment DATA_ID
    12 bytes in segment DATA_Z
    24 bytes in segment INITTAB
 
 1 096 bytes of CODE  memory (+ 108 bytes shared)
   272 bytes of CONST memory
   152 bytes of DATA  memory

Errors: none
Warnings: none
