##############################################################################
#                                                                            #
# IAR ARM ANSI C/C++ Compiler V4.41A/W32 EVALUATION    06/Sep/2007  16:46:17 #
# Copyright 1999-2005 IAR Systems. All rights reserved.                      #
#                                                                            #
#    Cpu mode        =  interwork                                            #
#    Endian          =  little                                               #
#    Stack alignment =  4                                                    #
#    Source file     =  C:\Documents and Settings\User\Рабочий               #
#                       стол\184013_weath__s-c.ru\main.c                     #
#    Command line    =  "C:\Documents and Settings\User\Рабочий              #
#                       стол\184013_weath__s-c.ru\main.c" --preprocess       #
#                       "C:\Documents and Settings\User\Рабочий              #
#                       стол\184013_weath__s-c.ru\Release\List\" -lC         #
#                       "C:\Documents and Settings\User\Рабочий              #
#                       стол\184013_weath__s-c.ru\Release\List\" -o          #
#                       "C:\Documents and Settings\User\Рабочий              #
#                       стол\184013_weath__s-c.ru\Release\Obj\" -s9          #
#                       --no_unroll --no_clustering --cpu_mode arm --endian  #
#                       little --cpu ARM926EJ-S --stack_align 4 --interwork  #
#                       -e --fpu None --dlib_config                          #
#                       "D:\Pasha\ARM_Embedded_Workbench\Embedded Workbench  #
#                       4.0 Evaluation\ARM\LIB\dl5tpainl8n.h" -I             #
#                       "D:\Pasha\ARM_Embedded_Workbench\Embedded Workbench  #
#                       4.0 Evaluation\ARM\INC\" --inline_threshold=2        #
#    List file       =  C:\Documents and Settings\User\Рабочий               #
#                       стол\184013_weath__s-c.ru\Release\List\main.lst      #
#    Object file     =  C:\Documents and Settings\User\Рабочий               #
#                       стол\184013_weath__s-c.ru\Release\Obj\main.r79       #
#                                                                            #
#                                                                            #
##############################################################################

C:\Documents and Settings\User\Рабочий стол\184013_weath__s-c.ru\main.c
      1          #include "..\inc\swilib.h"
      2          #include "..\inc\cfg_items.h"
      3          #include "conf_loader.h"
      4          
      5          /*
      6          //#define NEWSGOLD
      7          #ifdef NEWSGOLD
      8           #define FONT 12
      9           char DEFAULT_DISC[]"4";
     10          #else
     11           #define  FONT 7
     12           char DEFAULT_DISC[]="0";
     13          #endif*/

   \                                 In segment DATA_I, align 4, align-sorted
     14           int FONT=11;// for NSG
   \                     FONT:
   \   00000000                      DS8 4
   \   00000004                      REQUIRE `?<Initializer for FONT>`
     15          // char DEFAULT_DISC[]="0";
     16          
     17          #include "menu"

   \                                 In segment DATA_Z, align 4, align-sorted
   \   struct <unnamed> *__data ews
   \                     ews:
   \   00000000                      DS8 4

   \                                 In segment DATA_C, align 1, align-sorted
   \   char const __data p_t[2]
   \                     p_t:
   \   00000000   2574               DC8 25H, 74H

   \                                 In segment DATA_C, align 4, align-sorted
   \   int const __data S_ICONS[11]
   \                     S_ICONS:
   \   00000000   620100003202       DC32 354, 562, 559, 378, 405, 561, 389, 556, 588, 389, 0
   \              00002F020000
   \              7A0100009501
   \              000031020000
   \              850100002C02
   \              00004C020000
   \              850100000000
   \              0000        

   \                                 In segment DATA_Z, align 4, align-sorted
   \   char __data hdrtxt[32]
   \                     hdrtxt:
   \   00000000                      DS8 32

   \                                 In segment DATA_I, align 4, align-sorted
   \   int __data menusoftkeys[3]
   \                     menusoftkeys:
   \   00000000                      DS8 12
   \   0000000C                      REQUIRE `?<Initializer for menusoftkeys>`

   \                                 In segment DATA_I, align 4, align-sorted
   \   SOFTKEY_DESC __data menu_sk[3]
   \                     menu_sk:
   \   00000000                      DS8 24
   \   00000018                      REQUIRE `?<Initializer for menu_sk>`

   \                                 In segment DATA_I, align 4, align-sorted
   \   SOFTKEYSTAB __data menu_skt
   \                     menu_skt:
   \   00000000                      DS8 8
   \   00000008                      REQUIRE `?<Initializer for menu_skt>`

   \                                 In segment CODE, align 4, keep-with-next
   \   __??Code32?? __code __interwork __atpcs void City()
   \                     City:
   \   00000000   ........           LDR      R0,??DataTable1  ;; mode
   \   00000004   0110A0E3           MOV      R1,#+1
   \   00000008   001080E5           STR      R1,[R0, #+0]
   \   0000000C   1EFF2FE1           BX       LR               ;; return

   \                                 In segment CODE, align 4, keep-with-next
   \   __??Code32?? __code __interwork __atpcs void Weath()
   \                     Weath:
   \   00000000   ........           LDR      R0,??DataTable1  ;; mode
   \   00000004   0010A0E3           MOV      R1,#+0
   \   00000008   001080E5           STR      R1,[R0, #+0]
   \   0000000C   1EFF2FE1           BX       LR               ;; return

   \                                 In segment CODE, align 4, keep-with-next
   \   __??Code32?? __code __interwork __atpcs void Conf()
   \                     Conf:
   \   00000000   10402DE9           PUSH     {R4,LR}
   \   00000004   400FA0E3           MOV      R0,#+256
   \   00000008   250100EF           SWI      +293
   \   0000000C   20109FE5           LDR      R1,??Conf_0      ;; `?<Constant "0:\\\\Zbin\\\\etc\\\\weath.bcfg">`
   \   00000010   0040A0E1           MOV      R4,R0
   \   00000014   240100EF           SWI      +292
   \   00000018   0020A0E3           MOV      R2,#+0
   \   0000001C   0010A0E3           MOV      R1,#+0
   \   00000020   0400A0E1           MOV      R0,R4
   \   00000024   940000EF           SWI      +148
   \   00000028   0400A0E1           MOV      R0,R4
   \   0000002C   290100EF           SWI      +297
   \   00000030   1080BDE8           POP      {R4,PC}          ;; return
   \                     ??Conf_0:
   \   00000034   ........           DC32     `?<Constant "0:\\\\Zbin\\\\etc\\\\weath.bcfg">`

   \                                 In segment DATA_I, align 4, align-sorted
   \   MENUITEM_DESC __data menuitems[3]
   \                     menuitems:
   \   00000000                      DS8 84
   \   00000054                      REQUIRE `?<Initializer for menuitems>`

   \                                 In segment DATA_I, align 4, align-sorted
   \   MENU_DESC __data contactlist_menu
   \                     contactlist_menu:
   \   00000000                      DS8 44
   \   0000002C                      REQUIRE `?<Initializer for contactlist_menu>`

   \                                 In segment DATA_I, align 4, align-sorted
   \   HEADER_DESC __data menuhdr
   \                     menuhdr:
   \   00000000                      DS8 20
   \   00000014                      REQUIRE `?<Initializer for menuhdr>`

   \                                 In segment CODE, align 4, keep-with-next
   \   __??Code32?? __code __interwork __atpcs int create_menu(void)
   \                     create_menu:
   \   00000000   00402DE9           PUSH     {LR}
   \   00000004   2C309FE5           LDR      R3,??create_menu_0  ;; menuhdr
   \   00000008   2C209FE5           LDR      R2,??create_menu_0+0x4  ;; contactlist_menu
   \   0000000C   0000A0E3           MOV      R0,#+0
   \   00000010   01002DE9           PUSH     {R0}
   \   00000014   01002DE9           PUSH     {R0}
   \   00000018   0010A0E3           MOV      R1,#+0
   \   0000001C   0500A0E3           MOV      R0,#+5
   \   00000020   01002DE9           PUSH     {R0}
   \   00000024   0000A0E3           MOV      R0,#+0
   \   00000028   01002DE9           PUSH     {R0}
   \   0000002C   520100EF           SWI      +338
   \   00000030   10D08DE2           ADD      SP,SP,#+16
   \   00000034   0080BDE8           POP      {PC}             ;; return
   \                     ??create_menu_0:
   \   00000038   ........           DC32     menuhdr
   \   0000003C   ........           DC32     contactlist_menu

   \                                 In segment CODE, align 4, keep-with-next
   \   __??Code32?? __code __interwork __atpcs void contactlist_menu_iconhndl(void *, int, void *)
   \                     contactlist_menu_iconhndl:
   \   00000000   F0402DE9           PUSH     {R4-R7,LR}
   \   00000004   0040A0E1           MOV      R4,R0
   \   00000008   0150A0E1           MOV      R5,R1
   \   0000000C   970100EF           SWI      +407
   \   00000010   0060A0E1           MOV      R6,R0
   \   00000014   0A10A0E3           MOV      R1,#+10
   \   00000018   0400A0E1           MOV      R0,R4
   \   0000001C   980100EF           SWI      +408
   \   00000020   70109FE5           LDR      R1,??contactlist_menu_iconhndl_0  ;; p_t
   \   00000024   0070A0E1           MOV      R7,R0
   \   00000028   0500B0E1           MOVS     R0,R5
   \   0000002C   0400000A           BEQ      ??contactlist_menu_iconhndl_1
   \   00000030   010055E2           SUBS     R0,R5,#+1
   \   00000034   0400000A           BEQ      ??contactlist_menu_iconhndl_2
   \   00000038   010050E2           SUBS     R0,R0,#+1
   \   0000003C   0400000A           BEQ      ??contactlist_menu_iconhndl_3
   \   00000040   060000EA           B        ??contactlist_menu_iconhndl_4
   \                     ??contactlist_menu_iconhndl_1:
   \   00000044   50209FE5           LDR      R2,??contactlist_menu_iconhndl_0+0x4  ;; `?<Constant "\\303\\356\\360\\356\\344">`
   \   00000048   020000EA           B        ??contactlist_menu_iconhndl_5
   \                     ??contactlist_menu_iconhndl_2:
   \   0000004C   4C209FE5           LDR      R2,??contactlist_menu_iconhndl_0+0x8  ;; `?<Constant "\\317\\356\\343\\356\\344\\340">`
   \   00000050   000000EA           B        ??contactlist_menu_iconhndl_5
   \                     ??contactlist_menu_iconhndl_3:
   \   00000054   48209FE5           LDR      R2,??contactlist_menu_iconhndl_0+0xC  ;; `?<Constant "\\315\\340\\361\\362\\360\\356\\351\\352\\3`
   \                     ??contactlist_menu_iconhndl_5:
   \   00000058   0700A0E1           MOV      R0,R7
   \   0000005C   240100EF           SWI      +292
   \                     ??contactlist_menu_iconhndl_4:
   \   00000060   40209FE5           LDR      R2,??contactlist_menu_iconhndl_0+0x10  ;; S_ICONS
   \   00000064   0610A0E1           MOV      R1,R6
   \   00000068   0400A0E1           MOV      R0,R4
   \   0000006C   990100EF           SWI      +409
   \   00000070   0530A0E1           MOV      R3,R5
   \   00000074   0720A0E1           MOV      R2,R7
   \   00000078   0610A0E1           MOV      R1,R6
   \   0000007C   0400A0E1           MOV      R0,R4
   \   00000080   9A0100EF           SWI      +410
   \   00000084   072005E2           AND      R2,R5,#0x7
   \   00000088   0510A0E1           MOV      R1,R5
   \   0000008C   0400A0E1           MOV      R0,R4
   \   00000090   950100EF           SWI      +405
   \   00000094   F080BDE8           POP      {R4-R7,PC}       ;; return
   \                     ??contactlist_menu_iconhndl_0:
   \   00000098   ........           DC32     p_t
   \   0000009C   ........           DC32     `?<Constant "\\303\\356\\360\\356\\344">`
   \   000000A0   ........           DC32     `?<Constant "\\317\\356\\343\\356\\344\\340">`
   \   000000A4   ........           DC32     `?<Constant "\\315\\340\\361\\362\\360\\356\\351\\352\\3`
   \   000000A8   ........           DC32     S_ICONS

   \                                 In segment CODE, align 4, keep-with-next
   \   __??Code32?? __code __interwork __atpcs void contactlist_menu_ghook(void *, int)
   \                     contactlist_menu_ghook:
   \   00000000   1EFF2FE1           BX       LR               ;; return

   \                                 In segment CODE, align 4, keep-with-next
   \   __??Code32?? __code __interwork __atpcs int contactlist_menu_onkey(void *, GUI_MSG *)
   \                     contactlist_menu_onkey:
   \   00000000   30402DE9           PUSH     {R4,R5,LR}
   \   00000004   040091E5           LDR      R0,[R1, #+4]
   \   00000008   9330A0E3           MOV      R3,#+147
   \   0000000C   F220D0E1           LDRSH    R2,[R0, #+2]
   \   00000010   403F83E3           ORR      R3,R3,#0x100
   \   00000014   030052E1           CMP      R2,R3
   \   00000018   0C00001A           BNE      ??contactlist_menu_onkey_0
   \   0000001C   044090E5           LDR      R4,[R0, #+4]
   \   00000020   300054E3           CMP      R4,#+48
   \   00000024   090000BA           BLT      ??contactlist_menu_onkey_0
   \   00000028   3A0054E3           CMP      R4,#+58
   \   0000002C   070000AA           BGE      ??contactlist_menu_onkey_0
   \   00000030   48509FE5           LDR      R5,??contactlist_menu_onkey_1  ;; hdrtxt
   \   00000034   0500A0E1           MOV      R0,R5
   \   00000038   1B0000EF           SWI      +27
   \   0000003C   1F0050E3           CMP      R0,#+31
   \   00000040   0540C0B7           STRBLT   R4,[R0, +R5]
   \   00000044   960100EF           SWI      +406
   \   00000048   0000E0E3           MVN      R0,#+0
   \   0000004C   3080BDE8           POP      {R4,R5,PC}
   \                     ??contactlist_menu_onkey_0:
   \   00000050   F200D1E1           LDRSH    R0,[R1, #+2]
   \   00000054   180050E3           CMP      R0,#+24
   \   00000058   0400001A           BNE      ??contactlist_menu_onkey_2
   \   0000005C   20109FE5           LDR      R1,??contactlist_menu_onkey_1+0x4  ;; `?<Constant "Under construction!">`
   \   00000060   0100A0E3           MOV      R0,#+1
   \   00000064   480100EF           SWI      +328
   \                     ??contactlist_menu_onkey_3:
   \   00000068   0000E0E3           MVN      R0,#+0
   \   0000006C   3080BDE8           POP      {R4,R5,PC}
   \                     ??contactlist_menu_onkey_2:
   \   00000070   3D0050E3           CMP      R0,#+61
   \   00000074   FBFFFF0A           BEQ      ??contactlist_menu_onkey_3
   \   00000078   0000A0E3           MOV      R0,#+0
   \   0000007C   3080BDE8           POP      {R4,R5,PC}       ;; return
   \                     ??contactlist_menu_onkey_1:
   \   00000080   ........           DC32     hdrtxt
   \   00000084   ........           DC32     `?<Constant "Under construction!">`
     18          
     19          

   \                                 In segment DATA_C, align 4, align-sorted
     20          const int minus11=-11;
   \                     minus11:
   \   00000000   F5FFFFFF           DC32 -11
     21          

   \                                 In segment DATA_Z, align 4, align-sorted
     22          unsigned short maincsm_name_body[140];
   \                     maincsm_name_body:
   \   00000000                      DS8 280
     23          

   \                                 In segment DATA_Z, align 4, align-sorted
     24          unsigned int MAINCSM_ID = 0;
   \                     MAINCSM_ID:
   \   00000000                      DS8 4

   \                                 In segment DATA_Z, align 4, align-sorted
     25          unsigned int MAINGUI_ID = 0;
   \                     MAINGUI_ID:
   \   00000000                      DS8 4
     26          
     27          
     28          

   \                                 In segment DATA_Z, align 4, align-sorted
     29          int y=0;
   \                     y:
   \   00000000                      DS8 4

   \                                 In segment DATA_Z, align 4, align-sorted
     30          int x=0;
   \                     x:
   \   00000000                      DS8 4

   \                                 In segment DATA_Z, align 4, align-sorted
     31          int ok=0;
   \                     ok:
   \   00000000                      DS8 4

   \                                 In segment DATA_Z, align 4, align-sorted
     32          int succ=0;
   \                     succ:
   \   00000000                      DS8 4

   \                                 In segment DATA_Z, align 4, align-sorted
     33          int mode;
   \                     mode:
   \   00000000                      DS8 4

   \                                 In segment DATA_Z, align 4, align-sorted
     34          long int traff;
   \                     traff:
   \   00000000                      DS8 4
     35          
     36          

   \                                 In segment DATA_Z, align 4, align-sorted
     37          CSM_DESC icsmd;
   \                     icsmd:
   \   00000000                      DS8 24

   \                                 In segment DATA_Z, align 4, align-sorted
     38          int (*old_icsm_onMessage)(CSM_RAM*,GBS_MSG*);
   \                     old_icsm_onMessage:
   \   00000000                      DS8 4

   \                                 In segment DATA_Z, align 4, align-sorted
     39          void (*old_icsm_onClose)(CSM_RAM*);
   \                     old_icsm_onClose:
   \   00000000                      DS8 4

   \                                 In segment DATA_Z, align 4, align-sorted
     40          int sock;
   \                     sock:
   \   00000000                      DS8 4

   \                                 In segment DATA_Z, align 4, align-sorted
     41          int connect_state;
   \                     connect_state:
   \   00000000                      DS8 4

   \                                 In segment DATA_Z, align 4, align-sorted
     42          char buf[16384];
   \                     buf:
   \   00000000                      DS8 16384

   \                                 In segment DATA_Z, align 4, align-sorted
     43          char logbuf[16384];
   \                     logbuf:
   \   00000000                      DS8 16384

   \                                 In segment DATA_Z, align 4, align-sorted
     44          int pbuf;
   \                     pbuf:
   \   00000000                      DS8 4

   \                                 In segment DATA_Z, align 4, align-sorted
     45          GBSTMR mytmr;
   \                     mytmr:
   \   00000000                      DS8 16
     46          
     47          extern const unsigned int TID;
     48          
     49          
     50          
     51          
     52          #define IPC_XTASK_NAME "XTask"
     53          #define IPC_XTASK_IDLE 1
     54          #define IPC_XTASK_SHOW_CSM 2
     55          

   \                                 In segment DATA_C, align 1, align-sorted
     56          const char ipc_my_name[1]=" ";
   \                     ipc_my_name:
   \   00000000   20                 DC8 20H

   \                                 In segment DATA_C, align 4, align-sorted
     57          const char ipc_xtask_name[]=IPC_XTASK_NAME;
   \                     ipc_xtask_name:
   \   00000000   585461736B00       DC8 "XTask"
   \   00000006   0000               DC8 0, 0

   \                                 In segment DATA_Z, align 4, align-sorted
     58          IPC_REQ gipc;
   \                     gipc:
   \   00000000                      DS8 12
     59          
     60          
     61          
     62          
     63          extern const unsigned int CLOUD_ICON_X;
     64          extern const unsigned int CLOUD_ICON_Y;
     65          
     66          extern const unsigned int FALL_ICON_X;
     67          extern const unsigned int FALL_ICON_Y;
     68          
     69          extern const unsigned int TEMP_ICON_X;
     70          extern const unsigned int TEMP_ICON_Y;
     71          
     72          
     73          typedef struct
     74          {
     75            CSM_RAM csm;
     76            int gui_id;
     77          }MAIN_CSM;
     78          
     79          typedef struct
     80          {
     81            GUI gui;
     82            WSHDR *ws1;
     83            WSHDR *ws2;
     84            int i1;
     85          }MAIN_GUI;
     86          
     87          typedef struct
     88          {
     89            int tid;
     90            char name[40];
     91            int lat;
     92            int lon;
     93          }TOWN_ID;
     94          
     95          typedef struct
     96          {
     97            int day;
     98            int month;
     99            int year;
    100            int hour;
    101          short tod;
    102            int wday;
    103            int predict;
    104            
    105          short cloudiness;
    106          short fallout;
    107          short rpower;
    108          short spower;
    109            
    110            int pressure;
    111            int temp;
    112            int wind_min;
    113            int wind_max;
    114          short wind_dir;
    115            
    116            int relwet;
    117            //int relvet_max;
    118            
    119            int heat;
    120          }WEATHER;
    121          
    122          

   \                                 In segment DATA_Z, align 4, align-sorted
    123          WSHDR *dst;
   \                     dst:
   \   00000000                      DS8 4
    124          

   \                                 In segment DATA_Z, align 4, align-sorted
    125          WEATHER weath[4];
   \                     weath:
   \   00000000                      DS8 256

   \                                 In segment DATA_Z, align 4, align-sorted
    126          TOWN_ID town;
   \                     town:
   \   00000000                      DS8 52
    127          
    128          
    129          
    130          
    131          

   \                                 In segment CODE, align 4, keep-with-next
    132          void url_decode(char* dest,char* src)
    133          {
   \                     url_decode:
   \   00000000   0030D1E5           LDRB     R3,[R1, #+0]
   \   00000004   0020A0E3           MOV      R2,#+0
   \   00000008   220053E3           CMP      R3,#+34
   \   0000000C   2600000A           BEQ      ??url_decode_0
    134          while(*src!='"')
    135          {
    136          if(*src=='%')
   \                     ??url_decode_1:
   \   00000010   0030D1E5           LDRB     R3,[R1, #+0]
   \   00000014   250053E3           CMP      R3,#+37
   \   00000018   2000001A           BNE      ??url_decode_2
    137          {
    138          src++;
    139          *dest=0;
   \   0000001C   0020C0E5           STRB     R2,[R0, #+0]
    140          if(*src>='0' && *src<='9')
   \   00000020   0130F1E5           LDRB     R3,[R1, #+1]!
   \   00000024   300053E3           CMP      R3,#+48
   \   00000028   0200003A           BCC      ??url_decode_3
   \   0000002C   3A0053E3           CMP      R3,#+58
    141          {
    142          *dest=(*src)-'0';
    143          *dest<<=4;
   \   00000030   0332A031           LSLCC    R3,R3,#+4
   \   00000034   0030C035           STRBCC   R3,[R0, #+0]
    144          }
    145          if(*src>='A' && *src<='F')
   \                     ??url_decode_3:
   \   00000038   0030D1E5           LDRB     R3,[R1, #+0]
   \   0000003C   410053E3           CMP      R3,#+65
   \   00000040   0300003A           BCC      ??url_decode_4
   \   00000044   470053E3           CMP      R3,#+71
    146          {
    147           *dest=(*src)-('A'-0xA);
    148           *dest<<=4;
   \   00000048   C9308332           ADDCC    R3,R3,#+201
   \   0000004C   0332A031           LSLCC    R3,R3,#+4
   \   00000050   0030C035           STRBCC   R3,[R0, #+0]
    149          }
    150           src++;
    151          if(*src>='0' && *src<='9')
   \                     ??url_decode_4:
   \   00000054   0130F1E5           LDRB     R3,[R1, #+1]!
   \   00000058   300053E3           CMP      R3,#+48
   \   0000005C   0500003A           BCC      ??url_decode_5
   \   00000060   3A0053E3           CMP      R3,#+58
   \   00000064   0300002A           BCS      ??url_decode_5
    152          *dest+=((*src)-'0');
   \   00000068   00C0D0E5           LDRB     R12,[R0, #+0]
   \   0000006C   D03083E2           ADD      R3,R3,#+208
   \   00000070   0C3083E0           ADD      R3,R3,R12
   \   00000074   0030C0E5           STRB     R3,[R0, #+0]
    153          if(*src>='A' && *src<='F')
   \                     ??url_decode_5:
   \   00000078   0030D1E5           LDRB     R3,[R1, #+0]
   \   0000007C   410053E3           CMP      R3,#+65
   \   00000080   0500003A           BCC      ??url_decode_6
   \   00000084   470053E3           CMP      R3,#+71
   \   00000088   0300002A           BCS      ??url_decode_6
    154           *dest+=((*src)-('A'-0xA));
   \   0000008C   00C0D0E5           LDRB     R12,[R0, #+0]
   \   00000090   C93083E2           ADD      R3,R3,#+201
   \   00000094   0C3083E0           ADD      R3,R3,R12
   \   00000098   0030C0E5           STRB     R3,[R0, #+0]
    155           dest++;
   \                     ??url_decode_6:
   \   0000009C   010080E2           ADD      R0,R0,#+1
    156          
    157          }
    158          src++;
    159          }
   \                     ??url_decode_2:
   \   000000A0   0130F1E5           LDRB     R3,[R1, #+1]!
   \   000000A4   220053E3           CMP      R3,#+34
   \   000000A8   D8FFFF1A           BNE      ??url_decode_1
    160          *(dest)=0;
   \                     ??url_decode_0:
   \   000000AC   0020C0E5           STRB     R2,[R0, #+0]
    161          }
   \   000000B0   1EFF2FE1           BX       LR               ;; return
    162          

   \                                 In segment CODE, align 4, keep-with-next
    163          int atoi(char *attr)
    164          {
    165            int ret=0;
   \                     atoi:
   \   00000000   0010A0E3           MOV      R1,#+0
    166            int neg=1;
   \   00000004   0120A0E3           MOV      R2,#+1
    167            for (int k=0; ; k++)
   \   00000008   0AC0A0E3           MOV      R12,#+10
   \   0000000C   040000EA           B        ??atoi_0
    168            {
    169              if ( attr[k]>0x2F && attr[k]<0x3A) {ret=ret*10+attr[k]-0x30;} else { if ( attr[k]=='-') {neg=-1;} else {return(ret*neg);}}
   \                     ??atoi_1:
   \   00000010   3A0053E3           CMP      R3,#+58
   \   00000014   0800002A           BCS      ??atoi_2
   \   00000018   9C3121E0           MLA      R1,R12,R1,R3
   \   0000001C   301041E2           SUB      R1,R1,#+48
   \                     ??atoi_3:
   \   00000020   010080E2           ADD      R0,R0,#+1
   \                     ??atoi_0:
   \   00000024   0030D0E5           LDRB     R3,[R0, #+0]
   \   00000028   300053E3           CMP      R3,#+48
   \   0000002C   F7FFFF2A           BCS      ??atoi_1
   \   00000030   2D0053E3           CMP      R3,#+45
   \   00000034   0020E003           MVNEQ    R2,#+0
   \   00000038   F8FFFF0A           BEQ      ??atoi_3
   \                     ??atoi_2:
   \   0000003C   920100E0           MUL      R0,R2,R1
   \   00000040   1EFF2FE1           BX       LR               ;; return
    170            }
    171            
    172          }
    173          
    174          
    175          
    176          

   \                                 In segment CODE, align 4, keep-with-next
    177          void create_connect(void)
    178          {
    179            SOCK_ADDR sa;
    180            //Устанавливаем соединение
    181            connect_state=0;
    182            pbuf=0;
   \                     create_connect:
   \   00000000   ........           LDR      R1,??DataTable9  ;; pbuf
   \   00000004   F0402DE9           PUSH     {R4-R7,LR}
   \   00000008   ........           LDR      R4,??DataTable7  ;; connect_state
    183            sock=socket(1,1,0);
   \   0000000C   ........           LDR      R5,??DataTable11  ;; sock
   \   00000010   10D04DE2           SUB      SP,SP,#+16
   \   00000014   0000A0E3           MOV      R0,#+0
   \   00000018   000084E5           STR      R0,[R4, #+0]
   \   0000001C   000081E5           STR      R0,[R1, #+0]
   \   00000020   0020A0E3           MOV      R2,#+0
   \   00000024   0110A0E3           MOV      R1,#+1
   \   00000028   0100A0E1           MOV      R0,R1
   \   0000002C   730100EF           SWI      +371
   \   00000030   000085E5           STR      R0,[R5, #+0]
    184            if (sock!=-1)
   \   00000034   0060E0E3           MVN      R6,#+0
   \   00000038   060050E1           CMP      R0,R6
   \   0000003C   FF80BD08           POPEQ    {R0-R7,PC}
    185            {
    186              sa.family=1;
   \   00000040   0170A0E3           MOV      R7,#+1
   \   00000044   B070CDE1           STRH     R7,[SP, #+0]
    187              sa.port=htons(80);
   \   00000048   5000A0E3           MOV      R0,#+80
   \   0000004C   7A0100EF           SWI      +378
   \   00000050   B200CDE1           STRH     R0,[SP, #+2]
    188              sa.ip=htonl(IP_ADDR(212,48,138,18));
   \   00000054   34009FE5           LDR      R0,??create_connect_0  ;; 0xffffffffd4308a12
   \   00000058   7B0100EF           SWI      +379
   \   0000005C   04008DE5           STR      R0,[SP, #+4]
    189              if (connect(sock,&sa,sizeof(sa))!=-1)
   \   00000060   000095E5           LDR      R0,[R5, #+0]
   \   00000064   1020A0E3           MOV      R2,#+16
   \   00000068   0D10A0E1           MOV      R1,SP
   \   0000006C   740100EF           SWI      +372
   \   00000070   060050E1           CMP      R0,R6
   \   00000074   0200000A           BEQ      ??create_connect_1
    190              {
    191                connect_state=1;
   \   00000078   007084E5           STR      R7,[R4, #+0]
    192                REDRAW();
   \   0000007C   720100EF           SWI      +370
   \   00000080   FF80BDE8           POP      {R0-R7,PC}
    193              }
    194              else
    195                closesocket(sock);
   \                     ??create_connect_1:
   \   00000084   000095E5           LDR      R0,[R5, #+0]
   \   00000088   760100EF           SWI      +374
    196            }
    197          }
   \   0000008C   FF80BDE8           POP      {R0-R7,PC}       ;; return
   \                     ??create_connect_0:
   \   00000090   128A30D4           DC32     0xffffffffd4308a12
    198          
    199          

   \                                 In segment DATA_Z, align 4, align-sorted
    200          char req_buf[256];
   \                     req_buf:
   \   00000000                      DS8 256
    201          

   \                                 In segment CODE, align 4, keep-with-next
    202          void send_req(void)
    203          {
    204            sprintf(req_buf,"GET /xml/%i_1.xml"
    205                    " HTTP/1.0\r\nHost: informer.gismeteo.ru\r\n\r\n",TID);
   \                     send_req:
   \   00000000   ........           LDR      R0,??DataTable30  ;; TID
   \   00000004   40109FE5           LDR      R1,??send_req_0  ;; `?<Constant "GET /xml/%i_1.xml HTT...">`
   \   00000008   10402DE9           PUSH     {R4,LR}
   \   0000000C   002090E5           LDR      R2,[R0, #+0]
   \   00000010   38409FE5           LDR      R4,??send_req_0+0x4  ;; req_buf
   \   00000014   0400A0E1           MOV      R0,R4
   \   00000018   160000EF           SWI      +22
    206            send(sock,req_buf,strlen(req_buf),0);
   \   0000001C   0400A0E1           MOV      R0,R4
   \   00000020   1B0000EF           SWI      +27
   \   00000024   0020A0E1           MOV      R2,R0
   \   00000028   ........           LDR      R0,??DataTable11  ;; sock
   \   0000002C   0030A0E3           MOV      R3,#+0
   \   00000030   000090E5           LDR      R0,[R0, #+0]
   \   00000034   0410A0E1           MOV      R1,R4
   \   00000038   790100EF           SWI      +377
    207            connect_state=2;
   \   0000003C   ........           LDR      R0,??DataTable7  ;; connect_state
   \   00000040   0210A0E3           MOV      R1,#+2
   \   00000044   001080E5           STR      R1,[R0, #+0]
    208          }
   \   00000048   1080BDE8           POP      {R4,PC}          ;; return
   \                     ??send_req_0:
   \   0000004C   ........           DC32     `?<Constant "GET /xml/%i_1.xml HTT...">`
   \   00000050   ........           DC32     req_buf
    209          

   \                                 In segment CODE, align 4, keep-with-next
    210          void end_socket(void)
    211          {
   \                     end_socket:
   \   00000000   10402DE9           PUSH     {R4,LR}
    212            if (sock>=0)
   \   00000004   ........           LDR      R4,??DataTable11  ;; sock
   \   00000008   000094E5           LDR      R0,[R4, #+0]
   \   0000000C   000050E3           CMP      R0,#+0
   \   00000010   1080BD48           POPMI    {R4,PC}
    213            {
    214              shutdown(sock,2);
   \   00000014   0210A0E3           MOV      R1,#+2
   \   00000018   770100EF           SWI      +375
    215              closesocket(sock);
   \   0000001C   000094E5           LDR      R0,[R4, #+0]
   \   00000020   760100EF           SWI      +374
    216            }
    217          }
   \   00000024   1080BDE8           POP      {R4,PC}          ;; return
    218          

   \                                 In segment CODE, align 4, keep-with-next
    219          void get_answer(void)
    220          {
   \                     get_answer:
   \   00000000   10402DE9           PUSH     {R4,LR}
    221            int i=pbuf;
   \   00000004   ........           LDR      R4,??DataTable9  ;; pbuf
    222            if (i==16383)
   \   00000008   FF10A0E3           MOV      R1,#+255
   \   0000000C   000094E5           LDR      R0,[R4, #+0]
   \   00000010   FC1D81E3           ORR      R1,R1,#0x3F00
   \   00000014   010050E1           CMP      R0,R1
   \   00000018   0C00000A           BEQ      ??get_answer_0
    223              end_socket();
    224            else
    225            {
    226              i=recv(sock,buf+i,16383-i,0);
   \   0000001C   002041E0           SUB      R2,R1,R0
   \   00000020   ........           LDR      R1,??DataTable13  ;; buf
   \   00000024   0030A0E3           MOV      R3,#+0
   \   00000028   011080E0           ADD      R1,R0,R1
   \   0000002C   ........           LDR      R0,??DataTable11  ;; sock
   \   00000030   000090E5           LDR      R0,[R0, #+0]
   \   00000034   780100EF           SWI      +376
    227              if (i>=0)
   \   00000038   000050E3           CMP      R0,#+0
   \   0000003C   0300004A           BMI      ??get_answer_0
    228              {
    229                pbuf+=i;
   \   00000040   001094E5           LDR      R1,[R4, #+0]
   \   00000044   010080E0           ADD      R0,R0,R1
   \   00000048   000084E5           STR      R0,[R4, #+0]
   \   0000004C   1080BDE8           POP      {R4,PC}
    230              }
    231              else
    232              {
    233                end_socket();
   \                     ??get_answer_0:
   \   00000050   1040BDE8           POP      {R4,LR}          ;; Pop
   \   00000054   ........           B        end_socket       ;; tailcall
    234              }
    235            }
    236          }
    237          
    238          

   \                                 In segment CODE, align 4, keep-with-next
    239          void Parsing()
    240          {
    241            strcat(logbuf,"Parsing\n"); REDRAW();
   \                     Parsing:
   \   00000000   98129FE5           LDR      R1,??Parsing_0   ;; `?<Constant "Parsing\\n">`
   \   00000004   ........           LDR      R0,??DataTable23  ;; logbuf
   \   00000008   F04F2DE9           PUSH     {R4-R11,LR}
    242            char *fcstr[4];    
    243            char *pre;
    244            
    245                   pre=strstr(buf,"latitude=")+10;        
   \   0000000C   ........           LDR      R4,??DataTable13  ;; buf
    246                   town.lat=atoi(pre);
   \   00000010   ........           LDR      R5,??DataTable28  ;; town
    247                   
    248                   pre=strstr(buf,"longitude=")+11;
    249                   town.lon=atoi(pre);
    250                   
    251                   pre=strstr(buf,"index=")+7;
    252                   town.tid=atoi(pre);
    253               
    254                   
    255                     
    256            fcstr[0]=strstr(buf," <FORE");
   \   00000014   88629FE5           LDR      R6,??Parsing_0+0x4  ;; `?<Constant " <FORE">`
    257            fcstr[1]=strstr(fcstr[0]+1," <FORE");
    258            fcstr[2]=strstr(fcstr[1]+1," <FORE");
    259            fcstr[3]=strstr(fcstr[2]+1," <FORE");
    260              
    261            for (int j=0; j<4; j++)
   \   00000018   ........           LDR      R7,??DataTable18  ;; weath
   \   0000001C   84929FE5           LDR      R9,??Parsing_0+0x8  ;; `?<Constant "WIND min=">`
   \   00000020   84A29FE5           LDR      R10,??Parsing_0+0xC  ;; `?<Constant "day=">`
   \   00000024   10D04DE2           SUB      SP,SP,#+16
   \   00000028   170000EF           SWI      +23
   \   0000002C   720100EF           SWI      +370
   \   00000030   78129FE5           LDR      R1,??Parsing_0+0x10  ;; `?<Constant "latitude=">`
   \   00000034   0400A0E1           MOV      R0,R4
   \   00000038   180100EF           SWI      +280
   \   0000003C   0A0080E2           ADD      R0,R0,#+10
   \   00000040   ........           BL       atoi
   \   00000044   68129FE5           LDR      R1,??Parsing_0+0x14  ;; `?<Constant "longitude=">`
   \   00000048   2C0085E5           STR      R0,[R5, #+44]
   \   0000004C   0400A0E1           MOV      R0,R4
   \   00000050   180100EF           SWI      +280
   \   00000054   0B0080E2           ADD      R0,R0,#+11
   \   00000058   ........           BL       atoi
   \   0000005C   54129FE5           LDR      R1,??Parsing_0+0x18  ;; `?<Constant "index=">`
   \   00000060   300085E5           STR      R0,[R5, #+48]
   \   00000064   0400A0E1           MOV      R0,R4
   \   00000068   180100EF           SWI      +280
   \   0000006C   070080E2           ADD      R0,R0,#+7
   \   00000070   ........           BL       atoi
   \   00000074   000085E5           STR      R0,[R5, #+0]
   \   00000078   0610A0E1           MOV      R1,R6
   \   0000007C   0400A0E1           MOV      R0,R4
   \   00000080   180100EF           SWI      +280
   \   00000084   00008DE5           STR      R0,[SP, #+0]
   \   00000088   0610A0E1           MOV      R1,R6
   \   0000008C   010080E2           ADD      R0,R0,#+1
   \   00000090   180100EF           SWI      +280
   \   00000094   04008DE5           STR      R0,[SP, #+4]
   \   00000098   0610A0E1           MOV      R1,R6
   \   0000009C   010080E2           ADD      R0,R0,#+1
   \   000000A0   180100EF           SWI      +280
   \   000000A4   08008DE5           STR      R0,[SP, #+8]
   \   000000A8   0610A0E1           MOV      R1,R6
   \   000000AC   010080E2           ADD      R0,R0,#+1
   \   000000B0   180100EF           SWI      +280
   \   000000B4   0C008DE5           STR      R0,[SP, #+12]
   \   000000B8   0D60A0E1           MOV      R6,SP
   \   000000BC   0480A0E3           MOV      R8,#+4
    262            {
    263              pre=strstr(fcstr[j],"day=")+5;
   \                     ??Parsing_1:
   \   000000C0   00B096E5           LDR      R11,[R6, #+0]
   \   000000C4   0A10A0E1           MOV      R1,R10
   \   000000C8   0B00A0E1           MOV      R0,R11
   \   000000CC   180100EF           SWI      +280
   \   000000D0   050080E2           ADD      R0,R0,#+5
    264              weath[j].day=atoi(pre);
   \   000000D4   ........           BL       atoi
    265              
    266              pre=strstr(fcstr[j],"month=")+7;
   \   000000D8   DC119FE5           LDR      R1,??Parsing_0+0x1C  ;; `?<Constant "month=">`
   \   000000DC   ........           STR      R0,[R7], #+4
   \   000000E0   0B00A0E1           MOV      R0,R11
   \   000000E4   180100EF           SWI      +280
   \   000000E8   070080E2           ADD      R0,R0,#+7
    267              weath[j].month=atoi(pre);
   \   000000EC   ........           BL       atoi
    268              
    269              pre=strstr(fcstr[j],"hour=")+6;
   \   000000F0   C8119FE5           LDR      R1,??Parsing_0+0x20  ;; `?<Constant "hour=">`
   \   000000F4   ........           STR      R0,[R7], #+8
   \   000000F8   0B00A0E1           MOV      R0,R11
   \   000000FC   180100EF           SWI      +280
   \   00000100   060080E2           ADD      R0,R0,#+6
    270              weath[j].hour=atoi(pre);
   \   00000104   ........           BL       atoi
    271              
    272              pre=strstr(fcstr[j],"tod=")+5;
   \   00000108   B4119FE5           LDR      R1,??Parsing_0+0x24  ;; `?<Constant "tod=">`
   \   0000010C   ........           STR      R0,[R7], #+4
   \   00000110   0B00A0E1           MOV      R0,R11
   \   00000114   180100EF           SWI      +280
   \   00000118   050080E2           ADD      R0,R0,#+5
    273              weath[j].tod=atoi(pre);
   \   0000011C   ........           BL       atoi
    274              
    275              pre=strstr(fcstr[j],"predict=")+9;
   \   00000120   A0119FE5           LDR      R1,??Parsing_0+0x28  ;; `?<Constant "predict=">`
   \   00000124   ........           STRH     R0,[R7], #+8
   \   00000128   0B00A0E1           MOV      R0,R11
   \   0000012C   180100EF           SWI      +280
   \   00000130   090080E2           ADD      R0,R0,#+9
    276              weath[j].predict=atoi(pre);
   \   00000134   ........           BL       atoi
    277              
    278              pre=strstr(fcstr[j],"weekday=")+9;
   \   00000138   8C119FE5           LDR      R1,??Parsing_0+0x2C  ;; `?<Constant "weekday=">`
   \   0000013C   ........           STR      R0,[R7], #-4
   \   00000140   0B00A0E1           MOV      R0,R11
   \   00000144   180100EF           SWI      +280
   \   00000148   090080E2           ADD      R0,R0,#+9
    279              weath[j].wday=atoi(pre);
   \   0000014C   ........           BL       atoi
    280              
    281              pre=strstr(fcstr[j],"cloudiness=")+12;
   \   00000150   78119FE5           LDR      R1,??Parsing_0+0x30  ;; `?<Constant "cloudiness=">`
   \   00000154   ........           STR      R0,[R7], #+8
   \   00000158   0B00A0E1           MOV      R0,R11
   \   0000015C   180100EF           SWI      +280
   \   00000160   0C0080E2           ADD      R0,R0,#+12
    282              weath[j].cloudiness=atoi(pre);
   \   00000164   ........           BL       atoi
    283              
    284              pre=strstr(fcstr[j],"precipitation=")+15;
   \   00000168   64119FE5           LDR      R1,??Parsing_0+0x34  ;; `?<Constant "precipitation=">`
   \   0000016C   ........           STRH     R0,[R7], #+2
   \   00000170   0B00A0E1           MOV      R0,R11
   \   00000174   180100EF           SWI      +280
   \   00000178   0F0080E2           ADD      R0,R0,#+15
    285              weath[j].fallout=atoi(pre);
   \   0000017C   ........           BL       atoi
    286              
    287              pre=strstr(fcstr[j],"rpower=")+7;
   \   00000180   50119FE5           LDR      R1,??Parsing_0+0x38  ;; `?<Constant "rpower=">`
   \   00000184   ........           STRH     R0,[R7], #+2
   \   00000188   0B00A0E1           MOV      R0,R11
   \   0000018C   180100EF           SWI      +280
   \   00000190   070080E2           ADD      R0,R0,#+7
    288              weath[j].rpower=atoi(pre);
   \   00000194   ........           BL       atoi
    289              
    290              pre=strstr(fcstr[j],"spower=")+7;
   \   00000198   3C119FE5           LDR      R1,??Parsing_0+0x3C  ;; `?<Constant "spower=">`
   \   0000019C   ........           STRH     R0,[R7], #+2
   \   000001A0   0B00A0E1           MOV      R0,R11
   \   000001A4   180100EF           SWI      +280
   \   000001A8   070080E2           ADD      R0,R0,#+7
    291              weath[j].spower=atoi(pre);
   \   000001AC   ........           BL       atoi
    292              
    293              pre=strstr(fcstr[j],"PRESSURE max=")+14;
   \   000001B0   28119FE5           LDR      R1,??Parsing_0+0x40  ;; `?<Constant "PRESSURE max=">`
   \   000001B4   ........           STRH     R0,[R7], #+2
   \   000001B8   0B00A0E1           MOV      R0,R11
   \   000001BC   180100EF           SWI      +280
   \   000001C0   0E0080E2           ADD      R0,R0,#+14
    294              weath[j].pressure=atoi(pre);
   \   000001C4   ........           BL       atoi
    295              
    296              pre=strstr(fcstr[j],"TEMPERATURE max=")+17;
   \   000001C8   14119FE5           LDR      R1,??Parsing_0+0x44  ;; `?<Constant "TEMPERATURE max=">`
   \   000001CC   ........           STR      R0,[R7], #+4
   \   000001D0   0B00A0E1           MOV      R0,R11
   \   000001D4   180100EF           SWI      +280
   \   000001D8   110080E2           ADD      R0,R0,#+17
    297              weath[j].temp=atoi(pre);
   \   000001DC   ........           BL       atoi
   \   000001E0   ........           STR      R0,[R7], #+4
    298              
    299              pre=strstr(fcstr[j],"WIND min=")+10;
   \   000001E4   0910A0E1           MOV      R1,R9
   \   000001E8   0B00A0E1           MOV      R0,R11
   \   000001EC   180100EF           SWI      +280
   \   000001F0   0A0080E2           ADD      R0,R0,#+10
    300              weath[j].wind_min=atoi(pre);
   \   000001F4   ........           BL       atoi
   \   000001F8   ........           STR      R0,[R7], #+4
    301              
    302              pre=strstr(strstr(fcstr[j],"WIND min="),"max=")+5;
   \   000001FC   0910A0E1           MOV      R1,R9
   \   00000200   0B00A0E1           MOV      R0,R11
   \   00000204   180100EF           SWI      +280
   \   00000208   D8109FE5           LDR      R1,??Parsing_0+0x48  ;; `?<Constant "max=">`
   \   0000020C   180100EF           SWI      +280
   \   00000210   050080E2           ADD      R0,R0,#+5
    303              weath[j].wind_max=atoi(pre);
   \   00000214   ........           BL       atoi
    304              
    305              pre=strstr(fcstr[j],"direction=")+10;
   \   00000218   CC109FE5           LDR      R1,??Parsing_0+0x4C  ;; `?<Constant "direction=">`
   \   0000021C   ........           STR      R0,[R7], #+4
   \   00000220   0B00A0E1           MOV      R0,R11
   \   00000224   180100EF           SWI      +280
   \   00000228   0A0080E2           ADD      R0,R0,#+10
    306              weath[j].wind_dir=atoi(pre);
   \   0000022C   ........           BL       atoi
    307              
    308              pre=strstr(fcstr[j],"RELWET max=")+12;
   \   00000230   B8109FE5           LDR      R1,??Parsing_0+0x50  ;; `?<Constant "RELWET max=">`
   \   00000234   ........           STRH     R0,[R7], #+4
   \   00000238   0B00A0E1           MOV      R0,R11
   \   0000023C   180100EF           SWI      +280
   \   00000240   0C0080E2           ADD      R0,R0,#+12
    309              weath[j].relwet=atoi(pre);
   \   00000244   ........           BL       atoi
    310              
    311              pre=strstr(fcstr[j],"HEAT min=")+10;
   \   00000248   A4109FE5           LDR      R1,??Parsing_0+0x54  ;; `?<Constant "HEAT min=">`
   \   0000024C   ........           STR      R0,[R7], #+4
   \   00000250   ........           LDR      R0,[R6], #+4
   \   00000254   180100EF           SWI      +280
   \   00000258   0A0080E2           ADD      R0,R0,#+10
    312              weath[j].heat=atoi(pre);
   \   0000025C   ........           BL       atoi
   \   00000260   ........           STR      R0,[R7], #+4
    313              
    314              
    315              
    316              
    317          
    318            }
   \   00000264   018058E2           SUBS     R8,R8,#+1
   \   00000268   94FFFF1A           BNE      ??Parsing_1
    319                   
    320                   
    321           traff=*GetGPRSTrafficPointer()-traff;        
   \   0000026C   700000EF           SWI      +112
   \   00000270   ........           LDR      R1,??DataTable16  ;; traff
   \   00000274   000090E5           LDR      R0,[R0, #+0]
   \   00000278   002091E5           LDR      R2,[R1, #+0]
   \   0000027C   020040E0           SUB      R0,R0,R2
   \   00000280   000081E5           STR      R0,[R1, #+0]
    322          url_decode(town.name,strstr(buf,"sname=")+7);
   \   00000284   6C109FE5           LDR      R1,??Parsing_0+0x58  ;; `?<Constant "sname=">`
   \   00000288   0400A0E1           MOV      R0,R4
   \   0000028C   180100EF           SWI      +280
   \   00000290   071080E2           ADD      R1,R0,#+7
   \   00000294   040085E2           ADD      R0,R5,#+4
   \   00000298   ........           BL       url_decode
    323          }
   \   0000029C   FF8FBDE8           POP      {R0-R11,PC}      ;; return
   \                     ??Parsing_0:
   \   000002A0   ........           DC32     `?<Constant "Parsing\\n">`
   \   000002A4   ........           DC32     `?<Constant " <FORE">`
   \   000002A8   ........           DC32     `?<Constant "WIND min=">`
   \   000002AC   ........           DC32     `?<Constant "day=">`
   \   000002B0   ........           DC32     `?<Constant "latitude=">`
   \   000002B4   ........           DC32     `?<Constant "longitude=">`
   \   000002B8   ........           DC32     `?<Constant "index=">`
   \   000002BC   ........           DC32     `?<Constant "month=">`
   \   000002C0   ........           DC32     `?<Constant "hour=">`
   \   000002C4   ........           DC32     `?<Constant "tod=">`
   \   000002C8   ........           DC32     `?<Constant "predict=">`
   \   000002CC   ........           DC32     `?<Constant "weekday=">`
   \   000002D0   ........           DC32     `?<Constant "cloudiness=">`
   \   000002D4   ........           DC32     `?<Constant "precipitation=">`
   \   000002D8   ........           DC32     `?<Constant "rpower=">`
   \   000002DC   ........           DC32     `?<Constant "spower=">`
   \   000002E0   ........           DC32     `?<Constant "PRESSURE max=">`
   \   000002E4   ........           DC32     `?<Constant "TEMPERATURE max=">`
   \   000002E8   ........           DC32     `?<Constant "max=">`
   \   000002EC   ........           DC32     `?<Constant "direction=">`
   \   000002F0   ........           DC32     `?<Constant "RELWET max=">`
   \   000002F4   ........           DC32     `?<Constant "HEAT min=">`
   \   000002F8   ........           DC32     `?<Constant "sname=">`
    324          
    325          
    326          

   \                                 In segment CODE, align 4, keep-with-next
    327          void DrawWeather()
    328          { 
   \                     DrawWeather:
   \   00000000   F04F2DE9           PUSH     {R4-R11,LR}
   \   00000004   7CD04DE2           SUB      SP,SP,#+124
    329            //char cl_1[4]={128,128,128,25};
    330            //char cl_2[4]={128,128,128,65};
    331           
    332           // DrawRoundedFrame(0,0,131,175,3,3,0,GetPaletteAdrByColorIndex(0),GetPaletteAdrByColorIndex(0));
    333            DrawImg(0,ScreenH()-105,(int)"4:\\Zbin\\img\\weather\\bg.png");
   \   00000008   898100EF           SWI      +33161
   \   0000000C   E0259FE5           LDR      R2,??DrawWeather_0+0x8  ;; `?<Constant "4:\\\\Zbin\\\\img\\\\weather\\\\b...">`
   \   00000010   691040E2           SUB      R1,R0,#+105
   \   00000014   0000A0E3           MOV      R0,#+0
   \   00000018   230000EF           SWI      +35
    334            
    335            
    336            
    337            
    338            //DrawRoundedFrame(ScreenW()-40,ScreenH()-90,ScreenW()-5,ScreenH()-10,0,0,0,cl_2,cl_1);
    339            
    340            //DrawRoundedFrame(ScreenW()-23,ScreenH()-55-weath[y].temp,ScreenW()-21,ScreenH()-12,5,5,5,GetPaletteAdrByColorIndex(2),GetPaletteAdrByColorIndex(2));
    341            
    342            WSHDR *ws = AllocWS(1024);
   \   0000001C   400EA0E3           MOV      R0,#+1024
   \   00000020   250100EF           SWI      +293
    343            char *todlist[4]=
    344            {
    345              "ночью",
    346              "утром",
    347              "днем",
    348              "вечером"
    349            };
   \   00000024   CC159FE5           LDR      R1,??DrawWeather_0+0xC  ;; `?<Constant {&"\\355\\356\\367\\374\\376", &"\\363\\36`
   \   00000028   0040A0E1           MOV      R4,R0
   \   0000002C   6C0091E8           LDM      R1,{R2,R3,R5,R6}
    350            
    351            char *cloudness[4]=
    352            {
    353              "Ясно",
    354              "Малооблачно",
    355              "0блачно",
    356              "Пасмурно"
    357            };
   \   00000030   C4159FE5           LDR      R1,??DrawWeather_0+0x10  ;; `?<Constant {&"\\337\\361\\355\\356", &"\\314\\340\\35`
   \   00000034   10008DE2           ADD      R0,SP,#+16
   \   00000038   6C0080E8           STM      R0,{R2,R3,R5,R6}
   \   0000003C   6C0091E8           LDM      R1,{R2,R3,R5,R6}
    358            
    359            char *wind[8]=
    360            {
    361              "сев.",
    362              "сев.-вост.",
    363              "вост.",
    364              "юго-вост.",
    365              "южный",
    366              "юго-зап.",
    367              "зап.",
    368              "сев.-зап."
    369            };
   \   00000040   B8159FE5           LDR      R1,??DrawWeather_0+0x14  ;; `?<Constant {&"\\361\\345\\342.", &"\\361\\345\\342.-`
   \   00000044   20008DE2           ADD      R0,SP,#+32
   \   00000048   6C0080E8           STM      R0,{R2,R3,R5,R6}
   \   0000004C   EC0791E8           LDM      R1,{R2,R3,R5-R10}
    370            
    371            /*char *pics[11]=
    372            {
    373              "0:\\Zbin\\img\\weather\\clear.png",
    374              "0:\\Zbin\\img\\weather\\some_clouds.png",
    375              "0:\\Zbin\\img\\weather\\clouds.png",
    376              "0:\\Zbin\\img\\weather\\gloom.png",
    377              
    378              "0:\\Zbin\\img\\weather\\rain.png",
    379              "0:\\Zbin\\img\\weather\\heavy_rain.png",
    380              "0:\\Zbin\\img\\weather\\snow.png",
    381              "0:\\Zbin\\img\\weather\\snow_2.png",
    382              "0:\\Zbin\\img\\weather\\storm.png",
    383              "0:\\Zbin\\img\\weather\\n-a.png"
    384              "0:\\Zbin\\img\\weather\\null.png" 
    385            };*/
    386            
    387            char *pics[11]=
    388            {
    389              "4:\\Zbin\\netutils\\weather\\00.png",
    390              "4:\\Zbin\\netutils\\weather\\01.png",
    391              "4:\\Zbin\\netutils\\weather\\02.png",
    392              "4:\\Zbin\\netutils\\weather\\03.png",
    393              
    394              "4:\\Zbin\\netutils\\weather\\04.png",
    395              "4:\\Zbin\\netutils\\weather\\05.png",
    396              "4:\\Zbin\\netutils\\weather\\06.png",
    397              "4:\\Zbin\\netutils\\weather\\07.png",
    398              "4:\\Zbin\\netutils\\weather\\08.png",
    399              "4:\\Zbin\\netutils\\weather\\09.png",
    400              "4:\\Zbin\\netutils\\weather\\10.png" 
    401            };
   \   00000050   AC159FE5           LDR      R1,??DrawWeather_0+0x18  ;; `?<Constant {&"4:\\\\Zbin\\\\netutils\\\\weat...", &"_1`
   \   00000054   5C008DE2           ADD      R0,SP,#+92
   \   00000058   EC0780E8           STM      R0,{R2,R3,R5-R10}
   \   0000005C   EC01B1E8           LDM      R1!,{R2,R3,R5-R8}
   \   00000060   30008DE2           ADD      R0,SP,#+48
   \   00000064   EC01A0E8           STM      R0!,{R2,R3,R5-R8}
   \   00000068   EC0091E8           LDM      R1,{R2,R3,R5-R7}
   \   0000006C   EC0080E8           STM      R0,{R2,R3,R5-R7}
    402          
    403            
    404            
    405            DrawImg(3,ScreenH()-123,(int)pics[weath[y].fallout]);
   \   00000070   ........           LDR      R5,??DataTable42  ;; y
   \   00000074   ........           LDR      R6,??DataTable18  ;; weath
    406            DrawImg(22,ScreenH()-123,(int)pics[weath[y].cloudiness]);
    407            
    408            char *l="ожидается апокалипсис"; 
   \   00000078   88759FE5           LDR      R7,??DrawWeather_0+0x1C  ;; `?<Constant "\\356\\346\\350\\344\\340\\345\\362\\361\\3`
   \   0000007C   898100EF           SWI      +33161
   \   00000080   001095E5           LDR      R1,[R5, #+0]
   \   00000084   30208DE2           ADD      R2,SP,#+48
   \   00000088   011386E0           ADD      R1,R6,R1, LSL #+6
   \   0000008C   FE11D1E1           LDRSH    R1,[R1, #+30]
   \   00000090   012192E7           LDR      R2,[R2, +R1, LSL #+2]
   \   00000094   7B1040E2           SUB      R1,R0,#+123
   \   00000098   0300A0E3           MOV      R0,#+3
   \   0000009C   230000EF           SWI      +35
   \   000000A0   898100EF           SWI      +33161
   \   000000A4   001095E5           LDR      R1,[R5, #+0]
   \   000000A8   30208DE2           ADD      R2,SP,#+48
   \   000000AC   011386E0           ADD      R1,R6,R1, LSL #+6
   \   000000B0   FC11D1E1           LDRSH    R1,[R1, #+28]
   \   000000B4   012192E7           LDR      R2,[R2, +R1, LSL #+2]
   \   000000B8   7B1040E2           SUB      R1,R0,#+123
   \   000000BC   1600A0E3           MOV      R0,#+22
   \   000000C0   230000EF           SWI      +35
   \   000000C4   000095E5           LDR      R0,[R5, #+0]
   \   000000C8   000386E0           ADD      R0,R6,R0, LSL #+6
   \   000000CC   FE11D0E1           LDRSH    R1,[R0, #+30]
   \   000000D0   040051E3           CMP      R1,#+4
   \   000000D4   F022D001           LDRSHEQ  R2,[R0, #+32]
   \   000000D8   00005203           CMPEQ    R2,#+0
    409            
    410            /*if( y!=0) {DrawRoundedFrame(0,0,16,16,1,1,0,GetPaletteAdrByColorIndex(0),GetPaletteAdrByColorIndex(1));}
    411            if( y!=1) {DrawRoundedFrame(16,0,32,16,1,1,0,GetPaletteAdrByColorIndex(0),GetPaletteAdrByColorIndex(1));}
    412            if( y!=2) {DrawRoundedFrame(32,0,48,16,1,1,0,GetPaletteAdrByColorIndex(0),GetPaletteAdrByColorIndex(1));}
    413            if( y!=3) {DrawRoundedFrame(48,0,64,16,1,1,0,GetPaletteAdrByColorIndex(0),GetPaletteAdrByColorIndex(1));}
    414            DrawRoundedFrame(64,0,131,16,1,1,0,GetPaletteAdrByColorIndex(0),GetPaletteAdrByColorIndex(1));*/
    415               
    416              if(weath[y].fallout==4 && weath[y].rpower==0) l="Возможен дождь";
   \   000000DC   28759F05           LDREQ    R7,??DrawWeather_0+0x20  ;; `?<Constant "\\302\\356\\347\\354\\356\\346\\345\\355 \\`
    417              if(weath[y].fallout==4 && weath[y].rpower==1) l="Дождь";
   \   000000E0   040051E3           CMP      R1,#+4
   \   000000E4   F022D001           LDRSHEQ  R2,[R0, #+32]
   \   000000E8   01005203           CMPEQ    R2,#+1
   \   000000EC   1C759F05           LDREQ    R7,??DrawWeather_0+0x24  ;; `?<Constant "\\304\\356\\346\\344\\374">`
    418              
    419              if(weath[y].fallout==5 && weath[y].rpower==0) l="Возможен ливень";
   \   000000F0   050051E3           CMP      R1,#+5
   \   000000F4   F022D001           LDRSHEQ  R2,[R0, #+32]
   \   000000F8   00005203           CMPEQ    R2,#+0
   \   000000FC   10759F05           LDREQ    R7,??DrawWeather_0+0x28  ;; `?<Constant "\\302\\356\\347\\354\\356\\346\\345\\355 \\_1`
    420              if(weath[y].fallout==5 && weath[y].rpower==0) l="Ливень";
   \   00000100   050051E3           CMP      R1,#+5
   \   00000104   F022D001           LDRSHEQ  R2,[R0, #+32]
   \   00000108   00005203           CMPEQ    R2,#+0
   \   0000010C   04759F05           LDREQ    R7,??DrawWeather_0+0x2C  ;; `?<Constant "\\313\\350\\342\\345\\355\\374">`
    421              
    422              if(weath[y].fallout==6 && weath[y].rpower==0) l="Возможен снег";
   \   00000110   04259FE5           LDR      R2,??DrawWeather_0+0x30  ;; `?<Constant "\\302\\356\\347\\354\\356\\346\\345\\355 \\_2`
   \   00000114   060051E3           CMP      R1,#+6
   \   00000118   F032D001           LDRSHEQ  R3,[R0, #+32]
   \   0000011C   00005303           CMPEQ    R3,#+0
    423              if(weath[y].fallout==6 && weath[y].rpower==0) l="Снег";
   \   00000120   F8349FE5           LDR      R3,??DrawWeather_0+0x34  ;; `?<Constant "\\321\\355\\345\\343">`
   \   00000124   0270A001           MOVEQ    R7,R2
   \   00000128   060051E3           CMP      R1,#+6
   \   0000012C   F082D001           LDRSHEQ  R8,[R0, #+32]
   \   00000130   00005803           CMPEQ    R8,#+0
   \   00000134   0370A001           MOVEQ    R7,R3
    424              
    425              if(weath[y].fallout==7 && weath[y].rpower==0) l="Возможен снег";
   \   00000138   070051E3           CMP      R1,#+7
   \   0000013C   F082D001           LDRSHEQ  R8,[R0, #+32]
   \   00000140   00005803           CMPEQ    R8,#+0
   \   00000144   0270A001           MOVEQ    R7,R2
    426              if(weath[y].fallout==7 && weath[y].rpower==0) l="Снег";
   \   00000148   070051E3           CMP      R1,#+7
   \   0000014C   F022D001           LDRSHEQ  R2,[R0, #+32]
   \   00000150   00005203           CMPEQ    R2,#+0
   \   00000154   0370A001           MOVEQ    R7,R3
    427              
    428              if(weath[y].fallout==8 && weath[y].spower==0) l="Возможна гроза";
   \   00000158   080051E3           CMP      R1,#+8
   \   0000015C   F222D001           LDRSHEQ  R2,[R0, #+34]
    429              if(weath[y].fallout==8 && weath[y].spower==0) l="Гроза";
    430              
    431              if(weath[y].fallout==9 && weath[y].rpower==0) l="N/A";
    432              if(weath[y].fallout==10 && weath[y].rpower==0) l="Без осадков";
    433              
    434             
    435            
    436            wsprintf(ws,"%.2d\xB0%t,%.2d\xB0%t",town.lat,"Ш.",town.lon,"Д.");
   \   00000160   F23F8FE2           ADR      R3,??DrawWeather_1  ;; "Ш."
   \   00000164   00005203           CMPEQ    R2,#+0
   \   00000168   B4749F05           LDREQ    R7,??DrawWeather_0+0x38  ;; `?<Constant "\\302\\356\\347\\354\\356\\346\\355\\340 \\`
   \   0000016C   080051E3           CMP      R1,#+8
   \   00000170   F222D001           LDRSHEQ  R2,[R0, #+34]
   \   00000174   00005203           CMPEQ    R2,#+0
   \   00000178   A8749F05           LDREQ    R7,??DrawWeather_0+0x3C  ;; `?<Constant "\\303\\360\\356\\347\\340">`
   \   0000017C   090051E3           CMP      R1,#+9
   \   00000180   F022D001           LDRSHEQ  R2,[R0, #+32]
   \   00000184   00005203           CMPEQ    R2,#+0
   \   00000188   E97F8F02           ADREQ    R7,??DrawWeather_1+0x4  ;; "N/A"
   \   0000018C   0A0051E3           CMP      R1,#+10
   \   00000190   F002D001           LDRSHEQ  R0,[R0, #+32]
   \   00000194   E71F8FE2           ADR      R1,??DrawWeather_1+0x8  ;; "Д."
   \   00000198   02002DE9           PUSH     {R1}
   \   0000019C   00005003           CMPEQ    R0,#+0
   \   000001A0   ........           LDR      R0,??DataTable28  ;; town
   \   000001A4   80749F05           LDREQ    R7,??DrawWeather_0+0x40  ;; `?<Constant "\\301\\345\\347 \\356\\361\\340\\344\\352\\`
   \   000001A8   301090E5           LDR      R1,[R0, #+48]
   \   000001AC   02002DE9           PUSH     {R1}
   \   000001B0   2C2090E5           LDR      R2,[R0, #+44]
   \   000001B4   74149FE5           LDR      R1,??DrawWeather_0+0x44  ;; `?<Constant "%.2d\\260%t,%.2d\\260%t">`
   \   000001B8   0400A0E1           MOV      R0,R4
   \   000001BC   240100EF           SWI      +292
    437            DrawString(ws,66,2,600,172,7,0,GetPaletteAdrByColorIndex(0),GetPaletteAdrByColorIndex(23)); 
   \   000001C0   1700A0E3           MOV      R0,#+23
   \   000001C4   2E0100EF           SWI      +302
   \   000001C8   0080A0E1           MOV      R8,R0
   \   000001CC   0000A0E3           MOV      R0,#+0
   \   000001D0   2E0100EF           SWI      +302
   \   000001D4   00012DE9           PUSH     {R8}
   \   000001D8   01002DE9           PUSH     {R0}
   \   000001DC   963FA0E3           MOV      R3,#+600
   \   000001E0   0220A0E3           MOV      R2,#+2
   \   000001E4   4210A0E3           MOV      R1,#+66
   \   000001E8   0000A0E3           MOV      R0,#+0
   \   000001EC   01002DE9           PUSH     {R0}
   \   000001F0   0700A0E3           MOV      R0,#+7
   \   000001F4   01002DE9           PUSH     {R0}
   \   000001F8   AC00A0E3           MOV      R0,#+172
   \   000001FC   01002DE9           PUSH     {R0}
    438            
    439          TDate date; TTime time; 
    440          GetDateTime(&date,&time); 
    441            wsprintf(ws,"< %i/4 %i.%02i, %t >",y+1,weath[y].day,weath[y].month,todlist[weath[y].tod]);
    442            //wsprintf(ws,"< %i/4 %t %t >",y+1,((weath[y].day!=date.day)?"Сегодня":"Завтра"),todlist[weath[y].tod]);
    443            DrawString(ws,2,5,129,172,FONT+1,34,GetPaletteAdrByColorIndex(0),GetPaletteAdrByColorIndex(1)); 
   \   00000200   ........           LDR      R8,??DataTable29  ;; FONT
   \   00000204   0400A0E1           MOV      R0,R4
   \   00000208   4C0100EF           SWI      +332
   \   0000020C   24108DE2           ADD      R1,SP,#+36
   \   00000210   1C008DE2           ADD      R0,SP,#+28
   \   00000214   B40000EF           SWI      +180
   \   00000218   000095E5           LDR      R0,[R5, #+0]
   \   0000021C   2C308DE2           ADD      R3,SP,#+44
   \   00000220   001386E0           ADD      R1,R6,R0, LSL #+6
   \   00000224   F021D1E1           LDRSH    R2,[R1, #+16]
   \   00000228   022193E7           LDR      R2,[R3, +R2, LSL #+2]
   \   0000022C   04002DE9           PUSH     {R2}
   \   00000230   042091E5           LDR      R2,[R1, #+4]
   \   00000234   04002DE9           PUSH     {R2}
   \   00000238   003091E5           LDR      R3,[R1, #+0]
   \   0000023C   F0139FE5           LDR      R1,??DrawWeather_0+0x48  ;; `?<Constant "< %i/4 %i.%02i, %t >">`
   \   00000240   012080E2           ADD      R2,R0,#+1
   \   00000244   0400A0E1           MOV      R0,R4
   \   00000248   240100EF           SWI      +292
   \   0000024C   24D08DE2           ADD      SP,SP,#+36
   \   00000250   0100A0E3           MOV      R0,#+1
   \   00000254   2E0100EF           SWI      +302
   \   00000258   0090A0E1           MOV      R9,R0
   \   0000025C   0000A0E3           MOV      R0,#+0
   \   00000260   2E0100EF           SWI      +302
   \   00000264   00022DE9           PUSH     {R9}
    444            
    445           // wsprintf(ws," %i-%i\xB0\x43\r%i-%i %t \r%t\r%t\r%t%t %i-%i %t\n%t: %i-%i%%\n%t:%i\xB0",weath[y].temp,weath[y].temp+2,weath[y].pressure,weath[y].pressure+2,"мм.рт.ст",cloudness[weath[y].cloudiness],l, "Ветер:", wind[weath[y].wind_dir],weath[y].wind_min,weath[y].wind_min,"м/с","Влажность",weath[y].relwet,weath[y].relwet+5,"Комфорт",weath[y].heat);
    446           // DrawString(ws,20,ScreenH()-100,131,172,7,32,GetPaletteAdrByColorIndex(0),GetPaletteAdrByColorIndex(1)); 
    447            
    448            wsprintf(ws,"%i-%i\xB0\x43 %t:%i\xB0",weath[y].temp,weath[y].temp+2,"Комфорт",weath[y].heat);
    449            DrawString(ws,20,ScreenH()-100,131,172,FONT,32,GetPaletteAdrByColorIndex(0),GetPaletteAdrByColorIndex((x==0)?3:1)); 
   \   00000268   ........           LDR      R9,??DataTable34  ;; x
   \   0000026C   01002DE9           PUSH     {R0}
   \   00000270   8130A0E3           MOV      R3,#+129
   \   00000274   0520A0E3           MOV      R2,#+5
   \   00000278   0210A0E3           MOV      R1,#+2
   \   0000027C   2200A0E3           MOV      R0,#+34
   \   00000280   01002DE9           PUSH     {R0}
   \   00000284   000098E5           LDR      R0,[R8, #+0]
   \   00000288   010080E2           ADD      R0,R0,#+1
   \   0000028C   01002DE9           PUSH     {R0}
   \   00000290   AC00A0E3           MOV      R0,#+172
   \   00000294   01002DE9           PUSH     {R0}
   \   00000298   0400A0E1           MOV      R0,R4
   \   0000029C   4C0100EF           SWI      +332
   \   000002A0   000095E5           LDR      R0,[R5, #+0]
   \   000002A4   8C139FE5           LDR      R1,??DrawWeather_0+0x4C  ;; `?<Constant "%i-%i\\260C %t:%i\\260">`
   \   000002A8   000386E0           ADD      R0,R6,R0, LSL #+6
   \   000002AC   282090E5           LDR      R2,[R0, #+40]
   \   000002B0   3C0090E5           LDR      R0,[R0, #+60]
   \   000002B4   023082E2           ADD      R3,R2,#+2
   \   000002B8   01002DE9           PUSH     {R0}
   \   000002BC   78039FE5           LDR      R0,??DrawWeather_0+0x50  ;; `?<Constant "\\312\\356\\354\\364\\356\\360\\362">`
   \   000002C0   01002DE9           PUSH     {R0}
   \   000002C4   0400A0E1           MOV      R0,R4
   \   000002C8   240100EF           SWI      +292
   \   000002CC   000099E5           LDR      R0,[R9, #+0]
   \   000002D0   1CD08DE2           ADD      SP,SP,#+28
   \   000002D4   000050E3           CMP      R0,#+0
   \   000002D8   0300A003           MOVEQ    R0,#+3
   \   000002DC   0100A013           MOVNE    R0,#+1
   \   000002E0   2E0100EF           SWI      +302
   \   000002E4   00A0A0E1           MOV      R10,R0
   \   000002E8   0000A0E3           MOV      R0,#+0
   \   000002EC   2E0100EF           SWI      +302
   \   000002F0   00B0A0E1           MOV      R11,R0
   \   000002F4   898100EF           SWI      +33161
   \   000002F8   00042DE9           PUSH     {R10}
   \   000002FC   00082DE9           PUSH     {R11}
   \   00000300   2010A0E3           MOV      R1,#+32
   \   00000304   02002DE9           PUSH     {R1}
   \   00000308   001098E5           LDR      R1,[R8, #+0]
   \   0000030C   8330A0E3           MOV      R3,#+131
   \   00000310   02002DE9           PUSH     {R1}
   \   00000314   642040E2           SUB      R2,R0,#+100
   \   00000318   0400A0E1           MOV      R0,R4
   \   0000031C   AC10A0E3           MOV      R1,#+172
   \   00000320   02002DE9           PUSH     {R1}
   \   00000324   1410A0E3           MOV      R1,#+20
   \   00000328   4C0100EF           SWI      +332
   \   0000032C   000095E5           LDR      R0,[R5, #+0]
   \   00000330   08139FE5           LDR      R1,??DrawWeather_0+0x54  ;; `?<Constant "%i-%i %t">`
   \   00000334   000386E0           ADD      R0,R6,R0, LSL #+6
   \   00000338   242090E5           LDR      R2,[R0, #+36]
   \   0000033C   00039FE5           LDR      R0,??DrawWeather_0+0x58  ;; `?<Constant "\\354\\354.\\360\\362.\\361\\362">`
   \   00000340   023082E2           ADD      R3,R2,#+2
   \   00000344   01002DE9           PUSH     {R0}
   \   00000348   0400A0E1           MOV      R0,R4
    450            
    451            wsprintf(ws,"%i-%i %t",weath[y].pressure,weath[y].pressure+2,"мм.рт.ст");
   \   0000034C   240100EF           SWI      +292
    452            DrawString(ws,20,ScreenH()-85,131,172,FONT,32,GetPaletteAdrByColorIndex(0),GetPaletteAdrByColorIndex((x==1)?3:1)); 
   \   00000350   000099E5           LDR      R0,[R9, #+0]
   \   00000354   18D08DE2           ADD      SP,SP,#+24
   \   00000358   010050E3           CMP      R0,#+1
   \   0000035C   0300A003           MOVEQ    R0,#+3
   \   00000360   0100A013           MOVNE    R0,#+1
   \   00000364   2E0100EF           SWI      +302
   \   00000368   00A0A0E1           MOV      R10,R0
   \   0000036C   0000A0E3           MOV      R0,#+0
   \   00000370   2E0100EF           SWI      +302
   \   00000374   00B0A0E1           MOV      R11,R0
   \   00000378   898100EF           SWI      +33161
   \   0000037C   00042DE9           PUSH     {R10}
   \   00000380   00082DE9           PUSH     {R11}
   \   00000384   2010A0E3           MOV      R1,#+32
   \   00000388   02002DE9           PUSH     {R1}
   \   0000038C   001098E5           LDR      R1,[R8, #+0]
   \   00000390   8330A0E3           MOV      R3,#+131
   \   00000394   02002DE9           PUSH     {R1}
   \   00000398   552040E2           SUB      R2,R0,#+85
   \   0000039C   0400A0E1           MOV      R0,R4
   \   000003A0   AC10A0E3           MOV      R1,#+172
   \   000003A4   02002DE9           PUSH     {R1}
   \   000003A8   1410A0E3           MOV      R1,#+20
   \   000003AC   4C0100EF           SWI      +332
    453            
    454            wsprintf(ws,"%t ",cloudness[weath[y].cloudiness]);
   \   000003B0   000095E5           LDR      R0,[R5, #+0]
   \   000003B4   34108DE2           ADD      R1,SP,#+52
   \   000003B8   000386E0           ADD      R0,R6,R0, LSL #+6
   \   000003BC   FC01D0E1           LDRSH    R0,[R0, #+28]
   \   000003C0   002191E7           LDR      R2,[R1, +R0, LSL #+2]
   \   000003C4   881F8FE2           ADR      R1,??DrawWeather_0  ;; "%t "
   \   000003C8   0400A0E1           MOV      R0,R4
   \   000003CC   240100EF           SWI      +292
    455            DrawString(ws,20,ScreenH()-70,131,172,FONT,32,GetPaletteAdrByColorIndex(0),GetPaletteAdrByColorIndex((x==2)?3:1)); 
   \   000003D0   000099E5           LDR      R0,[R9, #+0]
   \   000003D4   14D08DE2           ADD      SP,SP,#+20
   \   000003D8   020050E3           CMP      R0,#+2
   \   000003DC   0300A003           MOVEQ    R0,#+3
   \   000003E0   0100A013           MOVNE    R0,#+1
   \   000003E4   2E0100EF           SWI      +302
   \   000003E8   00A0A0E1           MOV      R10,R0
   \   000003EC   0000A0E3           MOV      R0,#+0
   \   000003F0   2E0100EF           SWI      +302
   \   000003F4   00B0A0E1           MOV      R11,R0
   \   000003F8   898100EF           SWI      +33161
   \   000003FC   00042DE9           PUSH     {R10}
   \   00000400   00082DE9           PUSH     {R11}
   \   00000404   2010A0E3           MOV      R1,#+32
   \   00000408   02002DE9           PUSH     {R1}
   \   0000040C   001098E5           LDR      R1,[R8, #+0]
   \   00000410   8330A0E3           MOV      R3,#+131
   \   00000414   02002DE9           PUSH     {R1}
   \   00000418   462040E2           SUB      R2,R0,#+70
   \   0000041C   0400A0E1           MOV      R0,R4
   \   00000420   AC10A0E3           MOV      R1,#+172
   \   00000424   02002DE9           PUSH     {R1}
   \   00000428   1410A0E3           MOV      R1,#+20
   \   0000042C   4C0100EF           SWI      +332
    456            
    457            wsprintf(ws,"%t  ",l);
   \   00000430   10129FE5           LDR      R1,??DrawWeather_0+0x5C  ;; `?<Constant "%t  ">`
   \   00000434   0720A0E1           MOV      R2,R7
   \   00000438   0400A0E1           MOV      R0,R4
   \   0000043C   240100EF           SWI      +292
    458            DrawString(ws,20,ScreenH()-55,131,172,FONT,32,GetPaletteAdrByColorIndex(0),GetPaletteAdrByColorIndex((x==3)?3:1)); 
   \   00000440   000099E5           LDR      R0,[R9, #+0]
   \   00000444   14D08DE2           ADD      SP,SP,#+20
   \   00000448   030050E3           CMP      R0,#+3
   \   0000044C   0300A003           MOVEQ    R0,#+3
   \   00000450   0100A013           MOVNE    R0,#+1
   \   00000454   2E0100EF           SWI      +302
   \   00000458   0070A0E1           MOV      R7,R0
   \   0000045C   0000A0E3           MOV      R0,#+0
   \   00000460   2E0100EF           SWI      +302
   \   00000464   00A0A0E1           MOV      R10,R0
   \   00000468   898100EF           SWI      +33161
   \   0000046C   80002DE9           PUSH     {R7}
   \   00000470   00042DE9           PUSH     {R10}
   \   00000474   2010A0E3           MOV      R1,#+32
   \   00000478   02002DE9           PUSH     {R1}
   \   0000047C   001098E5           LDR      R1,[R8, #+0]
   \   00000480   8330A0E3           MOV      R3,#+131
   \   00000484   02002DE9           PUSH     {R1}
   \   00000488   372040E2           SUB      R2,R0,#+55
   \   0000048C   0400A0E1           MOV      R0,R4
   \   00000490   AC10A0E3           MOV      R1,#+172
   \   00000494   02002DE9           PUSH     {R1}
   \   00000498   1410A0E3           MOV      R1,#+20
   \   0000049C   4C0100EF           SWI      +332
   \   000004A0   000095E5           LDR      R0,[R5, #+0]
   \   000004A4   A0219FE5           LDR      R2,??DrawWeather_0+0x60  ;; `?<Constant "\\302\\345\\362\\345\\360:">`
   \   000004A8   501F8FE2           ADR      R1,??DrawWeather_0+0x4  ;; "м/с"
   \   000004AC   02002DE9           PUSH     {R1}
   \   000004B0   000386E0           ADD      R0,R6,R0, LSL #+6
   \   000004B4   301090E5           LDR      R1,[R0, #+48]
   \   000004B8   02002DE9           PUSH     {R1}
   \   000004BC   2C1090E5           LDR      R1,[R0, #+44]
   \   000004C0   02002DE9           PUSH     {R1}
   \   000004C4   F403D0E1           LDRSH    R0,[R0, #+52]
   \   000004C8   7C108DE2           ADD      R1,SP,#+124
   \   000004CC   003191E7           LDR      R3,[R1, +R0, LSL #+2]
   \   000004D0   78119FE5           LDR      R1,??DrawWeather_0+0x64  ;; `?<Constant "%t%t %i-%i %t">`
   \   000004D4   0400A0E1           MOV      R0,R4
    459            
    460            wsprintf(ws,"%t%t %i-%i %t","Ветер:", wind[weath[y].wind_dir],weath[y].wind_min,weath[y].wind_max,"м/с");
   \   000004D8   240100EF           SWI      +292
    461            DrawString(ws,20,ScreenH()-40,131,172,FONT,32,GetPaletteAdrByColorIndex(0),GetPaletteAdrByColorIndex((x==4)?3:1)); 
   \   000004DC   000099E5           LDR      R0,[R9, #+0]
   \   000004E0   20D08DE2           ADD      SP,SP,#+32
   \   000004E4   040050E3           CMP      R0,#+4
   \   000004E8   0300A003           MOVEQ    R0,#+3
   \   000004EC   0100A013           MOVNE    R0,#+1
   \   000004F0   2E0100EF           SWI      +302
   \   000004F4   0070A0E1           MOV      R7,R0
   \   000004F8   0000A0E3           MOV      R0,#+0
   \   000004FC   2E0100EF           SWI      +302
   \   00000500   00A0A0E1           MOV      R10,R0
   \   00000504   898100EF           SWI      +33161
   \   00000508   80002DE9           PUSH     {R7}
   \   0000050C   00042DE9           PUSH     {R10}
   \   00000510   2010A0E3           MOV      R1,#+32
   \   00000514   02002DE9           PUSH     {R1}
   \   00000518   001098E5           LDR      R1,[R8, #+0]
   \   0000051C   8330A0E3           MOV      R3,#+131
   \   00000520   02002DE9           PUSH     {R1}
   \   00000524   282040E2           SUB      R2,R0,#+40
   \   00000528   0400A0E1           MOV      R0,R4
   \   0000052C   020000EA           B        ??DrawWeather_2
   \                     ??DrawWeather_1:
   \   00000530   D82E0000           DC8      "Ш.",+0
   \   00000534   4E2F4100           DC8      "N/A"
   \   00000538   C42E0000           DC8      "Д.",+0
   \                     ??DrawWeather_2:
   \   0000053C   AC10A0E3           MOV      R1,#+172
   \   00000540   02002DE9           PUSH     {R1}
   \   00000544   1410A0E3           MOV      R1,#+20
   \   00000548   4C0100EF           SWI      +332
   \   0000054C   000095E5           LDR      R0,[R5, #+0]
   \   00000550   FC209FE5           LDR      R2,??DrawWeather_0+0x68  ;; `?<Constant "\\302\\353\\340\\346\\355\\356\\361\\362\\3`
   \   00000554   FC109FE5           LDR      R1,??DrawWeather_0+0x6C  ;; `?<Constant "%t: %i-%i%%">`
   \   00000558   000386E0           ADD      R0,R6,R0, LSL #+6
   \   0000055C   383090E5           LDR      R3,[R0, #+56]
   \   00000560   14D08DE2           ADD      SP,SP,#+20
   \   00000564   050083E2           ADD      R0,R3,#+5
   \   00000568   650050E3           CMP      R0,#+101
   \   0000056C   6400A0A3           MOVGE    R0,#+100
   \   00000570   01002DE9           PUSH     {R0}
   \   00000574   0400A0E1           MOV      R0,R4
    462            
    463            wsprintf(ws,"%t: %i-%i%%","Влажность",weath[y].relwet,(weath[y].relwet+5>100)?100:weath[y].relwet+5);
   \   00000578   240100EF           SWI      +292
    464            DrawString(ws,20,ScreenH()-25,131,172,FONT,32,GetPaletteAdrByColorIndex(0),GetPaletteAdrByColorIndex((x==5)?3:1)); 
   \   0000057C   000099E5           LDR      R0,[R9, #+0]
   \   00000580   04D08DE2           ADD      SP,SP,#+4
   \   00000584   050050E3           CMP      R0,#+5
   \   00000588   0300A003           MOVEQ    R0,#+3
   \   0000058C   0100A013           MOVNE    R0,#+1
   \   00000590   2E0100EF           SWI      +302
   \   00000594   0050A0E1           MOV      R5,R0
   \   00000598   0000A0E3           MOV      R0,#+0
   \   0000059C   2E0100EF           SWI      +302
   \   000005A0   0060A0E1           MOV      R6,R0
   \   000005A4   898100EF           SWI      +33161
   \   000005A8   20002DE9           PUSH     {R5}
   \   000005AC   40002DE9           PUSH     {R6}
   \   000005B0   2010A0E3           MOV      R1,#+32
   \   000005B4   02002DE9           PUSH     {R1}
   \   000005B8   001098E5           LDR      R1,[R8, #+0]
   \   000005BC   8330A0E3           MOV      R3,#+131
   \   000005C0   02002DE9           PUSH     {R1}
   \   000005C4   192040E2           SUB      R2,R0,#+25
   \   000005C8   0400A0E1           MOV      R0,R4
   \   000005CC   AC10A0E3           MOV      R1,#+172
   \   000005D0   02002DE9           PUSH     {R1}
   \   000005D4   1410A0E3           MOV      R1,#+20
   \   000005D8   4C0100EF           SWI      +332
    465            
    466            //wsprintf(ws,"-%s",town.name);
    467            //DrawString(ws,20,30,131,172,7,32,GetPaletteAdrByColorIndex(0),GetPaletteAdrByColorIndex(1)); 
    468           
    469            
    470            FreeWS(ws);
   \   000005DC   0400A0E1           MOV      R0,R4
   \   000005E0   290100EF           SWI      +297
    471            
    472            
    473          }
   \   000005E4   90D08DE2           ADD      SP,SP,#+144
   \   000005E8   F08FBDE8           POP      {R4-R11,PC}      ;; return
   \                     ??DrawWeather_0:
   \   000005EC   25742000           DC8      "%t "
   \   000005F0   EC2FF100           DC8      "м/с"
   \   000005F4   ........           DC32     `?<Constant "4:\\\\Zbin\\\\img\\\\weather\\\\b...">`
   \   000005F8   ........           DC32     `?<Constant {&"\\355\\356\\367\\374\\376", &"\\363\\36`
   \   000005FC   ........           DC32     `?<Constant {&"\\337\\361\\355\\356", &"\\314\\340\\35`
   \   00000600   ........           DC32     `?<Constant {&"\\361\\345\\342.", &"\\361\\345\\342.-`
   \   00000604   ........           DC32     `?<Constant {&"4:\\\\Zbin\\\\netutils\\\\weat...", &"_1`
   \   00000608   ........           DC32     `?<Constant "\\356\\346\\350\\344\\340\\345\\362\\361\\3`
   \   0000060C   ........           DC32     `?<Constant "\\302\\356\\347\\354\\356\\346\\345\\355 \\`
   \   00000610   ........           DC32     `?<Constant "\\304\\356\\346\\344\\374">`
   \   00000614   ........           DC32     `?<Constant "\\302\\356\\347\\354\\356\\346\\345\\355 \\_1`
   \   00000618   ........           DC32     `?<Constant "\\313\\350\\342\\345\\355\\374">`
   \   0000061C   ........           DC32     `?<Constant "\\302\\356\\347\\354\\356\\346\\345\\355 \\_2`
   \   00000620   ........           DC32     `?<Constant "\\321\\355\\345\\343">`
   \   00000624   ........           DC32     `?<Constant "\\302\\356\\347\\354\\356\\346\\355\\340 \\`
   \   00000628   ........           DC32     `?<Constant "\\303\\360\\356\\347\\340">`
   \   0000062C   ........           DC32     `?<Constant "\\301\\345\\347 \\356\\361\\340\\344\\352\\`
   \   00000630   ........           DC32     `?<Constant "%.2d\\260%t,%.2d\\260%t">`
   \   00000634   ........           DC32     `?<Constant "< %i/4 %i.%02i, %t >">`
   \   00000638   ........           DC32     `?<Constant "%i-%i\\260C %t:%i\\260">`
   \   0000063C   ........           DC32     `?<Constant "\\312\\356\\354\\364\\356\\360\\362">`
   \   00000640   ........           DC32     `?<Constant "%i-%i %t">`
   \   00000644   ........           DC32     `?<Constant "\\354\\354.\\360\\362.\\361\\362">`
   \   00000648   ........           DC32     `?<Constant "%t  ">`
   \   0000064C   ........           DC32     `?<Constant "\\302\\345\\362\\345\\360:">`
   \   00000650   ........           DC32     `?<Constant "%t%t %i-%i %t">`
   \   00000654   ........           DC32     `?<Constant "\\302\\353\\340\\346\\355\\356\\361\\362\\3`
   \   00000658   ........           DC32     `?<Constant "%t: %i-%i%%">`
    474          
    475          
    476          

   \                                 In segment CODE, align 4, keep-with-next
    477          void DrawWait()
    478          {
    479            DrawImg(0,0,(int)"4:\\Zbin\\netutils\\weather\\wait.png");
   \                     DrawWait:
   \   00000000   ........           LDR      R2,??DataTable27  ;; `?<Constant "4:\\\\Zbin\\\\netutils\\\\weat...">`
   \   00000004   30402DE9           PUSH     {R4,R5,LR}
   \   00000008   0010A0E3           MOV      R1,#+0
   \   0000000C   0000A0E3           MOV      R0,#+0
   \   00000010   230000EF           SWI      +35
    480            WSHDR *ws = AllocWS(1024);
   \   00000014   400EA0E3           MOV      R0,#+1024
   \   00000018   250100EF           SWI      +293
    481              wsprintf(ws,"%s",logbuf);
   \   0000001C   ........           LDR      R2,??DataTable23  ;; logbuf
   \   00000020   0040A0E1           MOV      R4,R0
   \   00000024   171F8FE2           ADR      R1,??DrawWait_0  ;; "%s"
   \   00000028   240100EF           SWI      +292
    482              DrawString(ws,2,5,127,172,FONT,4,GetPaletteAdrByColorIndex(0),GetPaletteAdrByColorIndex(23));
   \   0000002C   1700A0E3           MOV      R0,#+23
   \   00000030   2E0100EF           SWI      +302
   \   00000034   0050A0E1           MOV      R5,R0
   \   00000038   0000A0E3           MOV      R0,#+0
   \   0000003C   2E0100EF           SWI      +302
   \   00000040   20002DE9           PUSH     {R5}
   \   00000044   01002DE9           PUSH     {R0}
   \   00000048   7F30A0E3           MOV      R3,#+127
   \   0000004C   0520A0E3           MOV      R2,#+5
   \   00000050   0210A0E3           MOV      R1,#+2
   \   00000054   0400A0E3           MOV      R0,#+4
   \   00000058   01002DE9           PUSH     {R0}
   \   0000005C   ........           LDR      R0,??DataTable29  ;; FONT
   \   00000060   000090E5           LDR      R0,[R0, #+0]
   \   00000064   01002DE9           PUSH     {R0}
   \   00000068   AC00A0E3           MOV      R0,#+172
   \   0000006C   01002DE9           PUSH     {R0}
   \   00000070   0400A0E1           MOV      R0,R4
   \   00000074   4C0100EF           SWI      +332
    483            FreeWS(ws);
   \   00000078   0400A0E1           MOV      R0,R4
   \   0000007C   290100EF           SWI      +297
    484          }
   \   00000080   14D08DE2           ADD      SP,SP,#+20
   \   00000084   3080BDE8           POP      {R4,R5,PC}       ;; return
   \                     ??DrawWait_0:
   \   00000088   25730000           DC8      "%s",+0
    485          

   \                                 In segment CODE, align 4, keep-with-next
    486          void WrongTID()
    487          {
    488            
    489            DrawImg(0,0,(int)"4:\\Zbin\\netutils\\weather\\wait.png"); 
   \                     WrongTID:
   \   00000000   ........           LDR      R2,??DataTable27  ;; `?<Constant "4:\\\\Zbin\\\\netutils\\\\weat...">`
   \   00000004   30402DE9           PUSH     {R4,R5,LR}
   \   00000008   0010A0E3           MOV      R1,#+0
   \   0000000C   0000A0E3           MOV      R0,#+0
   \   00000010   230000EF           SWI      +35
    490            WSHDR *ws = AllocWS(1024);
   \   00000014   400EA0E3           MOV      R0,#+1024
   \   00000018   250100EF           SWI      +293
    491              wsprintf(ws,"%t","Нулевой ID города");
   \   0000001C   68209FE5           LDR      R2,??WrongTID_0+0x4  ;; `?<Constant "\\315\\363\\353\\345\\342\\356\\351 ID \\3`
   \   00000020   0040A0E1           MOV      R4,R0
   \   00000024   171F8FE2           ADR      R1,??WrongTID_0  ;; "%t"
   \   00000028   240100EF           SWI      +292
    492              DrawString(ws,2,5,127,172,FONT,4,GetPaletteAdrByColorIndex(0),GetPaletteAdrByColorIndex(23)); 
   \   0000002C   1700A0E3           MOV      R0,#+23
   \   00000030   2E0100EF           SWI      +302
   \   00000034   0050A0E1           MOV      R5,R0
   \   00000038   0000A0E3           MOV      R0,#+0
   \   0000003C   2E0100EF           SWI      +302
   \   00000040   20002DE9           PUSH     {R5}
   \   00000044   01002DE9           PUSH     {R0}
   \   00000048   7F30A0E3           MOV      R3,#+127
   \   0000004C   0520A0E3           MOV      R2,#+5
   \   00000050   0210A0E3           MOV      R1,#+2
   \   00000054   0400A0E3           MOV      R0,#+4
   \   00000058   01002DE9           PUSH     {R0}
   \   0000005C   ........           LDR      R0,??DataTable29  ;; FONT
   \   00000060   000090E5           LDR      R0,[R0, #+0]
   \   00000064   01002DE9           PUSH     {R0}
   \   00000068   AC00A0E3           MOV      R0,#+172
   \   0000006C   01002DE9           PUSH     {R0}
   \   00000070   0400A0E1           MOV      R0,R4
   \   00000074   4C0100EF           SWI      +332
    493            FreeWS(ws);
   \   00000078   0400A0E1           MOV      R0,R4
   \   0000007C   290100EF           SWI      +297
    494          }
   \   00000080   14D08DE2           ADD      SP,SP,#+20
   \   00000084   3080BDE8           POP      {R4,R5,PC}       ;; return
   \                     ??WrongTID_0:
   \   00000088   25740000           DC8      "%t",+0
   \   0000008C   ........           DC32     `?<Constant "\\315\\363\\353\\345\\342\\356\\351 ID \\3`
    495          

   \                                 In segment CODE, align 4, keep-with-next
    496          void DrawCity()
    497          {
    498            //DrawRoundedFrame(0,0,131,175,3,3,0,GetPaletteAdrByColorIndex(0),GetPaletteAdrByColorIndex(0));
    499            //DrawImg(0,ScreenH()-105,(int)"0:\\Zbin\\img\\weather\\bg.png");
    500             DrawImg(0,0,(int)"4:\\Zbin\\netutils\\weather\\wait.png");
   \                     DrawCity:
   \   00000000   ........           LDR      R2,??DataTable27  ;; `?<Constant "4:\\\\Zbin\\\\netutils\\\\weat...">`
   \   00000004   30402DE9           PUSH     {R4,R5,LR}
   \   00000008   0010A0E3           MOV      R1,#+0
   \   0000000C   0000A0E3           MOV      R0,#+0
   \   00000010   230000EF           SWI      +35
    501           WSHDR *ws = AllocWS(1024); 
   \   00000014   400EA0E3           MOV      R0,#+1024
   \   00000018   250100EF           SWI      +293
    502           
    503            wsprintf(ws,"%t\n%t:%i\n %t:%i\xB0\x43\n %t:%i\xB0\x43\n",town.name,"ID города",town.tid,"Долгота",town.lon,"Широта",town.lat);
   \   0000001C   98309FE5           LDR      R3,??DrawCity_0  ;; `?<Constant "ID \\343\\356\\360\\356\\344\\340">`
   \   00000020   0040A0E1           MOV      R4,R0
   \   00000024   ........           LDR      R0,??DataTable28  ;; town
   \   00000028   2C1090E5           LDR      R1,[R0, #+44]
   \   0000002C   042080E2           ADD      R2,R0,#+4
   \   00000030   02002DE9           PUSH     {R1}
   \   00000034   84109FE5           LDR      R1,??DrawCity_0+0x4  ;; `?<Constant "\\330\\350\\360\\356\\362\\340">`
   \   00000038   02002DE9           PUSH     {R1}
   \   0000003C   301090E5           LDR      R1,[R0, #+48]
   \   00000040   02002DE9           PUSH     {R1}
   \   00000044   78109FE5           LDR      R1,??DrawCity_0+0x8  ;; `?<Constant "\\304\\356\\353\\343\\356\\362\\340">`
   \   00000048   02002DE9           PUSH     {R1}
   \   0000004C   001090E5           LDR      R1,[R0, #+0]
   \   00000050   0400A0E1           MOV      R0,R4
   \   00000054   02002DE9           PUSH     {R1}
   \   00000058   68109FE5           LDR      R1,??DrawCity_0+0xC  ;; `?<Constant "%t\\n%t:%i\\n %t:%i\\260C\\n %t...">`
   \   0000005C   240100EF           SWI      +292
    504            DrawString(ws,2,5,127,172,FONT,4,GetPaletteAdrByColorIndex(0),GetPaletteAdrByColorIndex(23));
   \   00000060   1700A0E3           MOV      R0,#+23
   \   00000064   2E0100EF           SWI      +302
   \   00000068   0050A0E1           MOV      R5,R0
   \   0000006C   0000A0E3           MOV      R0,#+0
   \   00000070   2E0100EF           SWI      +302
   \   00000074   20002DE9           PUSH     {R5}
   \   00000078   01002DE9           PUSH     {R0}
   \   0000007C   7F30A0E3           MOV      R3,#+127
   \   00000080   0520A0E3           MOV      R2,#+5
   \   00000084   0210A0E3           MOV      R1,#+2
   \   00000088   0400A0E3           MOV      R0,#+4
   \   0000008C   01002DE9           PUSH     {R0}
   \   00000090   ........           LDR      R0,??DataTable29  ;; FONT
   \   00000094   000090E5           LDR      R0,[R0, #+0]
   \   00000098   01002DE9           PUSH     {R0}
   \   0000009C   AC00A0E3           MOV      R0,#+172
   \   000000A0   01002DE9           PUSH     {R0}
   \   000000A4   0400A0E1           MOV      R0,R4
   \   000000A8   4C0100EF           SWI      +332
   \   000000AC   28D08DE2           ADD      SP,SP,#+40
    505            
    506           FreeWS(ws);
   \   000000B0   0400A0E1           MOV      R0,R4
   \   000000B4   290100EF           SWI      +297
    507          }
   \   000000B8   3080BDE8           POP      {R4,R5,PC}       ;; return
   \                     ??DrawCity_0:
   \   000000BC   ........           DC32     `?<Constant "ID \\343\\356\\360\\356\\344\\340">`
   \   000000C0   ........           DC32     `?<Constant "\\330\\350\\360\\356\\362\\340">`
   \   000000C4   ........           DC32     `?<Constant "\\304\\356\\353\\343\\356\\362\\340">`
   \   000000C8   ........           DC32     `?<Constant "%t\\n%t:%i\\n %t:%i\\260C\\n %t...">`
    508          

   \                                 In segment CODE, align 4, keep-with-next
    509          void OnRedraw(MAIN_GUI *data)
    510          {       
   \                     OnRedraw:
   \   00000000   70402DE9           PUSH     {R4-R6,LR}
    511             DrawRoundedFrame(0,0,131,175,0,0,0,GetPaletteAdrByColorIndex(0),GetPaletteAdrByColorIndex(1));
   \   00000004   0100A0E3           MOV      R0,#+1
   \   00000008   2E0100EF           SWI      +302
   \   0000000C   0040A0E1           MOV      R4,R0
   \   00000010   0000A0E3           MOV      R0,#+0
   \   00000014   2E0100EF           SWI      +302
   \   00000018   10002DE9           PUSH     {R4}
   \   0000001C   01002DE9           PUSH     {R0}
   \   00000020   AF30A0E3           MOV      R3,#+175
   \   00000024   8320A0E3           MOV      R2,#+131
   \   00000028   0010A0E3           MOV      R1,#+0
   \   0000002C   0000A0E3           MOV      R0,#+0
   \   00000030   01002DE9           PUSH     {R0}
   \   00000034   01002DE9           PUSH     {R0}
   \   00000038   01002DE9           PUSH     {R0}
   \   0000003C   500100EF           SWI      +336
    512            
    513             if(TID==0) {WrongTID();}
   \   00000040   ........           LDR      R0,??DataTable30  ;; TID
   \   00000044   004090E5           LDR      R4,[R0, #+0]
   \   00000048   14D08DE2           ADD      SP,SP,#+20
   \   0000004C   000054E3           CMP      R4,#+0
   \   00000050   0000001A           BNE      ??OnRedraw_0
   \   00000054   ........           BL       WrongTID
    514          
    515             if(succ==0 && TID!=0) {  DrawWait();    }
   \                     ??OnRedraw_0:
   \   00000058   ........           LDR      R5,??DataTable37  ;; succ
   \   0000005C   000095E5           LDR      R0,[R5, #+0]
   \   00000060   000050E3           CMP      R0,#+0
   \   00000064   0200001A           BNE      ??OnRedraw_1
   \   00000068   000054E3           CMP      R4,#+0
   \   0000006C   7080BD08           POPEQ    {R4-R6,PC}
   \   00000070   ........           BL       DrawWait
    516             if(succ==1 && TID!=0 && mode==0) {  DrawWeather(); }
   \                     ??OnRedraw_1:
   \   00000074   000095E5           LDR      R0,[R5, #+0]
   \   00000078   ........           LDR      R6,??DataTable32  ;; mode
   \   0000007C   010050E3           CMP      R0,#+1
   \   00000080   0500001A           BNE      ??OnRedraw_2
   \   00000084   000054E3           CMP      R4,#+0
   \   00000088   0600000A           BEQ      ??OnRedraw_3
   \   0000008C   000096E5           LDR      R0,[R6, #+0]
   \   00000090   000050E3           CMP      R0,#+0
   \   00000094   0500001A           BNE      ??OnRedraw_4
   \   00000098   ........           BL       DrawWeather
    517             if(succ==1 && TID!=0 && mode==1) {  DrawCity(); } 
   \                     ??OnRedraw_2:
   \   0000009C   000095E5           LDR      R0,[R5, #+0]
   \   000000A0   010050E3           CMP      R0,#+1
   \   000000A4   7080BD18           POPNE    {R4-R6,PC}
   \                     ??OnRedraw_3:
   \   000000A8   000054E3           CMP      R4,#+0
   \   000000AC   7080BD08           POPEQ    {R4-R6,PC}
   \                     ??OnRedraw_4:
   \   000000B0   000096E5           LDR      R0,[R6, #+0]
   \   000000B4   010050E3           CMP      R0,#+1
   \   000000B8   7080BD18           POPNE    {R4-R6,PC}
   \   000000BC   ........           BL       DrawCity
    518          }
   \   000000C0   7080BDE8           POP      {R4-R6,PC}       ;; return
    519          

   \                                 In segment CODE, align 4, keep-with-next
    520          void onCreate(MAIN_GUI *data, void *(*malloc_adr)(int))
    521          {
    522            data->gui.state=1;
   \                     onCreate:
   \   00000000   0110A0E3           MOV      R1,#+1
   \   00000004   0C10C0E5           STRB     R1,[R0, #+12]
    523          }
   \   00000008   1EFF2FE1           BX       LR               ;; return
    524          

   \                                 In segment CODE, align 4, keep-with-next
    525          void onClose(MAIN_GUI *data, void (*mfree_adr)(void *))
    526          {
    527            data->gui.state=0;
   \                     onClose:
   \   00000000   0010A0E3           MOV      R1,#+0
   \   00000004   0C10C0E5           STRB     R1,[R0, #+12]
    528          }
   \   00000008   1EFF2FE1           BX       LR               ;; return
    529          

   \                                 In segment CODE, align 4, keep-with-next
    530          void onFocus(MAIN_GUI *data, void *(*malloc_adr)(int), void (*mfree_adr)(void *))
    531          {
   \                     onFocus:
   \   00000000   00402DE9           PUSH     {LR}
    532            data->gui.state=2;
   \   00000004   0210A0E3           MOV      R1,#+2
   \   00000008   0C10C0E5           STRB     R1,[R0, #+12]
    533            DisableIDLETMR();
   \   0000000C   7F0100EF           SWI      +383
    534          }
   \   00000010   0080BDE8           POP      {PC}             ;; return
    535          

   \                                 In segment CODE, align 4, keep-with-next
    536          void onUnfocus(MAIN_GUI *data, void (*mfree_adr)(void *))
    537          {
    538            if (data->gui.state!=2) return;
   \                     onUnfocus:
   \   00000000   0C10D0E5           LDRB     R1,[R0, #+12]
   \   00000004   020051E3           CMP      R1,#+2
    539            data->gui.state=1;
   \   00000008   0110A003           MOVEQ    R1,#+1
   \   0000000C   0C10C005           STRBEQ   R1,[R0, #+12]
    540          }
   \   00000010   1EFF2FE1           BX       LR               ;; return
    541          

   \                                 In segment CODE, align 4, keep-with-next
    542          int OnKey(MAIN_GUI *data, GUI_MSG *msg)
    543          {
   \                     OnKey:
   \   00000000   10402DE9           PUSH     {R4,LR}
    544            if (msg->gbsmsg->msg==KEY_DOWN)
   \   00000004   042091E5           LDR      R2,[R1, #+4]
   \   00000008   9310A0E3           MOV      R1,#+147
   \   0000000C   F200D2E1           LDRSH    R0,[R2, #+2]
   \   00000010   401F81E3           ORR      R1,R1,#0x100
   \   00000014   010050E1           CMP      R0,R1
   \   00000018   4500001A           BNE      ??OnKey_1
    545            {
    546              switch(msg->gbsmsg->submess)
   \   0000001C   ........           LDR      R0,??DataTable42  ;; y
   \   00000020   ........           LDR      R1,??DataTable34  ;; x
   \   00000024   042092E5           LDR      R2,[R2, #+4]
   \   00000028   003090E5           LDR      R3,[R0, #+0]
   \   0000002C   00C091E5           LDR      R12,[R1, #+0]
   \   00000030   0B2042E2           SUB      R2,R2,#+11
   \   00000034   330052E3           CMP      R2,#+51
   \   00000038   3C00008A           BHI      ??OnKey_2
   \   0000003C   014F8FE2           ADR      R4,??OnKey_0
   \   00000040   0240D4E7           LDRB     R4,[R4, R2]
   \   00000044   04F18FE0           ADD      PC,PC,R4, LSL #+2
   \                     ??OnKey_0:
   \   00000048   360C3939           DC8      +54,+12,+57,+57
   \   0000004C   39393939           DC8      +57,+57,+57,+57
   \   00000050   39393939           DC8      +57,+57,+57,+57
   \   00000054   39393939           DC8      +57,+57,+57,+57
   \   00000058   39393939           DC8      +57,+57,+57,+57
   \   0000005C   39393939           DC8      +57,+57,+57,+57
   \   00000060   27393939           DC8      +39,+57,+57,+57
   \   00000064   39393925           DC8      +57,+57,+57,+37
   \   00000068   39393939           DC8      +57,+57,+57,+57
   \   0000006C   3939390E           DC8      +57,+57,+57,+14
   \   00000070   39193920           DC8      +57,+25,+57,+32
   \   00000074   39223939           DC8      +57,+34,+57,+57
   \   00000078   0E221920           DC8      +14,+34,+25,+32
    547              {
    548              case RED_BUTTON: return(1);
   \                     ??OnKey_3:
   \   0000007C   0100A0E3           MOV      R0,#+1
   \   00000080   1080BDE8           POP      {R4,PC}
    549                
    550              //case 1:  /*csm->gui_id=*/create_menu(); REDRAW(); break;
    551              //case 1: mode=!mode; REDRAW(); break;
    552              case '2': case UP_BUTTON:    x=(x+6)%7; REDRAW(); break;
   \                     ??OnKey_4:
   \   00000084   B0209FE5           LDR      R2,??OnKey_5     ;; 0xffffffff92492493
   \   00000088   06008CE2           ADD      R0,R12,#+6
   \                     ??OnKey_6:
   \   0000008C   9032C4E0           SMULL    R3,R4,R0,R2
   \   00000090   0730A0E3           MOV      R3,#+7
   \   00000094   004084E0           ADD      R4,R4,R0
   \   00000098   4441A0E1           ASR      R4,R4,#+2
   \   0000009C   A04F84E0           ADD      R4,R4,R0, LSR #+31
   \   000000A0   930404E0           MUL      R4,R3,R4
   \   000000A4   040040E0           SUB      R0,R0,R4
   \   000000A8   000081E5           STR      R0,[R1, #+0]
   \   000000AC   1F0000EA           B        ??OnKey_2
    553              case '4': case LEFT_BUTTON:  y=(y+3)%4; REDRAW(); break;
   \                     ??OnKey_7:
   \   000000B0   031083E2           ADD      R1,R3,#+3
   \                     ??OnKey_8:
   \   000000B4   C120A0E1           ASR      R2,R1,#+1
   \   000000B8   222F81E0           ADD      R2,R1,R2, LSR #+30
   \   000000BC   4221A0E1           ASR      R2,R2,#+2
   \   000000C0   021141E0           SUB      R1,R1,R2, LSL #+2
   \   000000C4   001080E5           STR      R1,[R0, #+0]
   \   000000C8   180000EA           B        ??OnKey_2
    554              case '6': case RIGHT_BUTTON: y=(y+1)%4; REDRAW(); break;
   \                     ??OnKey_9:
   \   000000CC   011083E2           ADD      R1,R3,#+1
   \   000000D0   F7FFFFEA           B        ??OnKey_8
    555              case '8': case DOWN_BUTTON:  x=(x+1)%7; REDRAW(); break;
   \                     ??OnKey_10:
   \   000000D4   60209FE5           LDR      R2,??OnKey_5     ;; 0xffffffff92492493
   \   000000D8   01008CE2           ADD      R0,R12,#+1
   \   000000DC   EAFFFFEA           B        ??OnKey_6
    556          
    557              case '*': DrawCity(); break;
   \                     ??OnKey_11:
   \   000000E0   ........           BL       DrawCity
   \   000000E4   0C0000EA           B        ??OnKey_12
    558              
    559              
    560              case '#':{  gipc.name_to=ipc_xtask_name;
   \                     ??OnKey_13:
   \   000000E8   50309FE5           LDR      R3,??OnKey_5+0x4  ;; gipc
   \   000000EC   50009FE5           LDR      R0,??OnKey_5+0x8  ;; ipc_xtask_name
    561                          gipc.name_from=ipc_my_name;
    562                          gipc.data=0;
    563                          GBS_SendMessage(MMI_CEPID,MSG_IPC,IPC_XTASK_IDLE,&gipc);} break;
   \   000000F0   0120A0E3           MOV      R2,#+1
   \   000000F4   000083E5           STR      R0,[R3, #+0]
   \   000000F8   48009FE5           LDR      R0,??OnKey_5+0xC  ;; ipc_my_name
   \   000000FC   F210A0E3           MOV      R1,#+242
   \   00000100   040083E5           STR      R0,[R3, #+4]
   \   00000104   0000A0E3           MOV      R0,#+0
   \   00000108   080083E5           STR      R0,[R3, #+8]
   \   0000010C   C01F81E3           ORR      R1,R1,#0x300
   \   00000110   0900A0E3           MOV      R0,#+9
   \   00000114   420C80E3           ORR      R0,R0,#0x4200
   \   00000118   000100EF           SWI      +256
   \                     ??OnKey_12:
   \   0000011C   0000A0E3           MOV      R0,#+0
   \   00000120   1080BDE8           POP      {R4,PC}
    564              
    565              case GREEN_BUTTON:  SUBPROC((void *)create_connect); break;
   \                     ??OnKey_14:
   \   00000124   ........           LDR      R0,??DataTable41  ;; create_connect
   \   00000128   710100EF           SWI      +369
   \   0000012C   FAFFFFEA           B        ??OnKey_12
    566              
    567              default: REDRAW(); break;
   \                     ??OnKey_2:
   \   00000130   720100EF           SWI      +370
    568              }
    569              
    570            }
    571            return(0);
   \                     ??OnKey_1:
   \   00000134   0000A0E3           MOV      R0,#+0
   \   00000138   1080BDE8           POP      {R4,PC}          ;; return
   \                     ??OnKey_5:
   \   0000013C   93244992           DC32     0xffffffff92492493
   \   00000140   ........           DC32     gipc
   \   00000144   ........           DC32     ipc_xtask_name
   \   00000148   ........           DC32     ipc_my_name
    572          }
    573          #ifdef NEWSGOLD
    574          void onDestroy(MAIN_GUI *data, void (*mfree_adr)(void *))
    575          {
    576            mfree_adr(data);
    577          }
    578          #else
    579          extern void kill_data(void *p, void (*func_p)(void *));
    580          

   \                                 In segment CODE, align 4, keep-with-next
    581          void method7(MAIN_GUI *data, void (*mfree_adr)(void *))
    582          {
   \                     method7:
   \   00000000   30402DE9           PUSH     {R4,R5,LR}
   \   00000004   0040A0E1           MOV      R4,R0
   \   00000008   0150A0E1           MOV      R5,R1
    583            kill_data(data,mfree_adr);
   \   0000000C   ........           _BLF     kill_data,??kill_data??rA
    584            mfree_adr(data);
   \   00000010   0400A0E1           MOV      R0,R4
   \   00000014   35FF2FE1           BLX      R5
    585          }
   \   00000018   3080BDE8           POP      {R4,R5,PC}       ;; return
    586          #endif
    587          

   \                                 In segment CODE, align 4, keep-with-next
    588          int method8(void){return(0);}
   \                     method8:
   \   00000000   0000A0E3           MOV      R0,#+0
   \   00000004   1EFF2FE1           BX       LR               ;; return

   \                                 In segment CODE, align 4, keep-with-next
    589          int method9(void){return(0);}
   \                     method9:
   \   00000000   0000A0E3           MOV      R0,#+0
   \   00000004   1EFF2FE1           BX       LR               ;; return

   \                                 In segment DATA_C, align 4, align-sorted
    590          const void * const gui_methods[11]={
   \                     gui_methods:
   \   00000000   ............       DC32 OnRedraw, onCreate, onClose, onFocus, onUnfocus, OnKey, 0H
   \              ............
   \              ............
   \              ............
   \              00000000    
   \   0000001C   ............       DC32 kill_data, method8, method9, 0H
   \              ............
   \              00000000    
    591            (void *)OnRedraw,	
    592            (void *)onCreate,	
    593            (void *)onClose,	
    594            (void *)onFocus,	
    595            (void *)onUnfocus,
    596            (void *)OnKey,	
    597            0,
    598            #ifdef NEWSGOLD
    599            (void *)onDestroy,
    600            #else
    601            (void *)kill_data,	
    602            #endif
    603            (void *)method8,
    604            (void *)method9,
    605            0
    606          };
    607          

   \                                 In segment DATA_C, align 4, align-sorted
    608          const RECT Canvas={0,0,129,129};
   \                     Canvas:
   \   00000000   000000008100       DC16 0, 0, 129, 129
   \              8100        

   \                                 In segment CODE, align 4, keep-with-next
    609          void maincsm_oncreate(CSM_RAM *data)
    610          {
   \                     maincsm_oncreate:
   \   00000000   30402DE9           PUSH     {R4,R5,LR}
   \   00000004   0040A0E1           MOV      R4,R0
    611            MAIN_GUI *main_gui=malloc(sizeof(MAIN_GUI));
   \   00000008   3C00A0E3           MOV      R0,#+60
   \   0000000C   140000EF           SWI      +20
   \   00000010   0050A0E1           MOV      R5,R0
    612            MAIN_CSM*csm=(MAIN_CSM*)data;
    613            zeromem(main_gui,sizeof(MAIN_GUI));
   \   00000014   3C10A0E3           MOV      R1,#+60
   \   00000018   1D0100EF           SWI      +285
    614            main_gui->gui.canvas=(void *)(&Canvas);
   \   0000001C   48009FE5           LDR      R0,??maincsm_oncreate_0  ;; Canvas
   \   00000020   000085E5           STR      R0,[R5, #+0]
    615            main_gui->gui.flag30=2;
   \   00000024   0200A0E3           MOV      R0,#+2
   \   00000028   2C0085E5           STR      R0,[R5, #+44]
    616            main_gui->gui.methods=(void *)gui_methods;
   \   0000002C   3C009FE5           LDR      R0,??maincsm_oncreate_0+0x4  ;; gui_methods
   \   00000030   040085E5           STR      R0,[R5, #+4]
    617            main_gui->gui.item_ll.data_mfree=(void (*)(void *))mfree_adr();
   \   00000034   158000EF           SWI      +32789
   \   00000038   1C0085E5           STR      R0,[R5, #+28]
    618            csm->csm.state=0;
   \   0000003C   0000A0E3           MOV      R0,#+0
   \   00000040   100084E5           STR      R0,[R4, #+16]
    619            csm->csm.unk1=0;
   \   00000044   140084E5           STR      R0,[R4, #+20]
    620            csm->gui_id=CreateGUI(main_gui);
   \   00000048   0500A0E1           MOV      R0,R5
   \   0000004C   370100EF           SWI      +311
   \   00000050   280084E5           STR      R0,[R4, #+40]
    621            MAINGUI_ID=csm->gui_id;
   \   00000054   18009FE5           LDR      R0,??maincsm_oncreate_0+0x8  ;; MAINGUI_ID
   \   00000058   281094E5           LDR      R1,[R4, #+40]
   \   0000005C   001080E5           STR      R1,[R0, #+0]
    622            
    623              //GBS_StartTimerProc(&mytmr,ONE_SECOND,do_start_connection);
    624            SUBPROC((void *)create_connect);
   \   00000060   ........           LDR      R0,??DataTable41  ;; create_connect
   \   00000064   710100EF           SWI      +369
    625          }
   \   00000068   3080BDE8           POP      {R4,R5,PC}       ;; return
   \                     ??maincsm_oncreate_0:
   \   0000006C   ........           DC32     Canvas
   \   00000070   ........           DC32     gui_methods
   \   00000074   ........           DC32     MAINGUI_ID
    626          

   \                                 In segment CODE, align 4, keep-with-next
    627          void ElfKiller(void)
    628          {
   \                     ElfKiller:
   \   00000000   00402DE9           PUSH     {LR}
    629            extern void kill_data(void *p, void (*func_p)(void *));
    630            extern void *ELF_BEGIN;
    631            kill_data(&ELF_BEGIN,(void (*)(void *))mfree_adr());
   \   00000004   158000EF           SWI      +32789
   \   00000008   0010A0E1           MOV      R1,R0
   \   0000000C   04009FE5           LDR      R0,??ElfKiller_0  ;; ELF_BEGIN
   \   00000010   0040BDE8           POP      {LR}             ;; Pop
   \   00000014   ........           _BF      kill_data,??kill_data??rA  ;; tailcall
   \                     ??ElfKiller_0:
   \   00000018   ........           DC32     ELF_BEGIN
    632          }
    633          

   \                                 In segment CODE, align 4, keep-with-next
    634          void maincsm_onclose(CSM_RAM *csm)
    635          {
    636            SUBPROC((void *)ElfKiller);
   \                     maincsm_onclose:
   \   00000000   1C009FE5           LDR      R0,??maincsm_onclose_0  ;; ElfKiller
   \   00000004   00402DE9           PUSH     {LR}
   \   00000008   710100EF           SWI      +369
    637            GBS_DelTimer(&mytmr);
   \   0000000C   14009FE5           LDR      R0,??maincsm_onclose_0+0x4  ;; mytmr
   \   00000010   8C0100EF           SWI      +396
    638              FreeWS(dst);
   \   00000014   10009FE5           LDR      R0,??maincsm_onclose_0+0x8  ;; dst
   \   00000018   000090E5           LDR      R0,[R0, #+0]
   \   0000001C   290100EF           SWI      +297
    639          }
   \   00000020   0080BDE8           POP      {PC}             ;; return
   \                     ??maincsm_onclose_0:
   \   00000024   ........           DC32     ElfKiller
   \   00000028   ........           DC32     mytmr
   \   0000002C   ........           DC32     dst
    640          
    641          
    642          
    643          
    644          
    645          

   \                                 In segment CODE, align 4, keep-with-next
    646          int maincsm_onmessage(CSM_RAM *data, GBS_MSG *msg)
    647          {
   \                     maincsm_onmessage:
   \   00000000   70402DE9           PUSH     {R4-R6,LR}
    648            MAIN_CSM *csm=(MAIN_CSM*)data;
    649            if ((msg->msg==MSG_GUI_DESTROYED)&&((int)msg->data0==csm->gui_id))
   \   00000004   ........           LDR      R4,??DataTable37  ;; succ
   \   00000008   2CD04DE2           SUB      SP,SP,#+44
   \   0000000C   F220D1E1           LDRSH    R2,[R1, #+2]
   \   00000010   980052E3           CMP      R2,#+152
   \   00000014   0500001A           BNE      ??maincsm_onmessage_0
   \   00000018   082091E5           LDR      R2,[R1, #+8]
   \   0000001C   283090E5           LDR      R3,[R0, #+40]
   \   00000020   030052E1           CMP      R2,R3
   \   00000024   3900001A           BNE      ??maincsm_onmessage_1
    650            {
    651              csm->csm.state=-3;
   \   00000028   0220E0E3           MVN      R2,#+2
   \   0000002C   102080E5           STR      R2,[R0, #+16]
    652            }
    653            
    654            if (msg->msg==MSG_HELPER_TRANSLATOR)
   \                     ??maincsm_onmessage_0:
   \   00000030   F200D1E1           LDRSH    R0,[R1, #+2]
   \   00000034   FC0F50E3           CMP      R0,#+1008
   \   00000038   3400001A           BNE      ??maincsm_onmessage_1
    655            {
    656              if ((int)msg->data1==sock)
   \   0000003C   ........           LDR      R5,??DataTable38  ;; sock
   \   00000040   0C0091E5           LDR      R0,[R1, #+12]
   \   00000044   002095E5           LDR      R2,[R5, #+0]
   \   00000048   020050E1           CMP      R0,R2
   \   0000004C   2F00001A           BNE      ??maincsm_onmessage_1
    657              {
    658                //Если наш сокет
    659                switch((int)msg->data0)
   \   00000050   ........           LDR      R6,??DataTable39  ;; connect_state
   \   00000054   081091E5           LDR      R1,[R1, #+8]
   \   00000058   002096E5           LDR      R2,[R6, #+0]
   \   0000005C   ........           LDR      R0,??DataTable40  ;; logbuf
   \   00000060   8C1051E2           SUBS     R1,R1,#+140
   \   00000064   1300000A           BEQ      ??maincsm_onmessage_2
   \   00000068   011051E2           SUBS     R1,R1,#+1
   \   0000006C   0400000A           BEQ      ??maincsm_onmessage_3
   \   00000070   011051E2           SUBS     R1,R1,#+1
   \   00000074   1B00000A           BEQ      ??maincsm_onmessage_4
   \   00000078   011051E2           SUBS     R1,R1,#+1
   \   0000007C   1400000A           BEQ      ??maincsm_onmessage_5
   \   00000080   220000EA           B        ??maincsm_onmessage_1
    660                {
    661                case ENIP_SOCK_CONNECTED:
    662                  if (connect_state==1)
   \                     ??maincsm_onmessage_3:
   \   00000084   010052E3           CMP      R2,#+1
   \   00000088   0600001A           BNE      ??maincsm_onmessage_6
    663                  {
    664                    strcat(logbuf,"Connected\n"); REDRAW();
   \   0000008C   C0119FE5           LDR      R1,??maincsm_onmessage_7  ;; `?<Constant "Connected\\n">`
   \   00000090   170000EF           SWI      +23
   \   00000094   720100EF           SWI      +370
    665                    //Если посылали запрос
    666                    SUBPROC((void *)send_req);
   \   00000098   B8019FE5           LDR      R0,??maincsm_onmessage_7+0x4  ;; send_req
   \                     ??maincsm_onmessage_8:
   \   0000009C   710100EF           SWI      +369
    667                    REDRAW();
   \   000000A0   720100EF           SWI      +370
   \   000000A4   190000EA           B        ??maincsm_onmessage_1
    668                  }
    669                  else
    670                  {
    671                    strcat(logbuf,"Error, try again..\n"); SUBPROC((void *)create_connect); REDRAW();
   \                     ??maincsm_onmessage_6:
   \   000000A8   AC119FE5           LDR      R1,??maincsm_onmessage_7+0x8  ;; `?<Constant "Error, try again..\\n">`
   \   000000AC   170000EF           SWI      +23
   \   000000B0   ........           LDR      R0,??DataTable41  ;; create_connect
   \   000000B4   F8FFFFEA           B        ??maincsm_onmessage_8
    672                  }
    673                  break;
    674                case ENIP_SOCK_DATA_READ:
    675                  if (connect_state==2)
   \                     ??maincsm_onmessage_2:
   \   000000B8   020052E3           CMP      R2,#+2
   \   000000BC   F9FFFF1A           BNE      ??maincsm_onmessage_6
    676                  {
    677                    strcat(logbuf,"Reading\n"); REDRAW();
   \   000000C0   98119FE5           LDR      R1,??maincsm_onmessage_7+0xC  ;; `?<Constant "Reading\\n">`
   \   000000C4   170000EF           SWI      +23
   \   000000C8   720100EF           SWI      +370
    678                    //Если посылали send
    679                    SUBPROC((void *)get_answer);
   \   000000CC   90019FE5           LDR      R0,??maincsm_onmessage_7+0x10  ;; get_answer
   \   000000D0   F1FFFFEA           B        ??maincsm_onmessage_8
    680                    REDRAW();
    681                  }
    682                  else
    683                  {
    684                    strcat(logbuf,"Error, try again..\n"); SUBPROC((void *)create_connect); REDRAW();
    685                  }
    686                  break;
    687                case ENIP_SOCK_REMOTE_CLOSED:
    688                  //Закрыт со стороны сервера
    689                  if (connect_state) SUBPROC((void *)end_socket);
   \                     ??maincsm_onmessage_5:
   \   000000D4   000052E3           CMP      R2,#+0
   \   000000D8   0C00000A           BEQ      ??maincsm_onmessage_1
   \   000000DC   84019FE5           LDR      R0,??maincsm_onmessage_7+0x14  ;; end_socket
   \   000000E0   710100EF           SWI      +369
   \   000000E4   090000EA           B        ??maincsm_onmessage_1
    690                  break;
    691                case ENIP_SOCK_CLOSED:
    692                  //Закрыт вызовом closesocket
    693                  strcat(logbuf,"Receiving\n"); REDRAW();
   \                     ??maincsm_onmessage_4:
   \   000000E8   7C119FE5           LDR      R1,??maincsm_onmessage_7+0x18  ;; `?<Constant "Receiving\\n">`
   \   000000EC   170000EF           SWI      +23
   \   000000F0   720100EF           SWI      +370
    694                  succ=1;
   \   000000F4   0100A0E3           MOV      R0,#+1
   \   000000F8   000084E5           STR      R0,[R4, #+0]
    695                  //SaveXML();
    696                  //ProcessXML();
    697                  Parsing();
   \   000000FC   ........           BL       Parsing
    698                  connect_state=0;
   \   00000100   0000A0E3           MOV      R0,#+0
   \   00000104   000086E5           STR      R0,[R6, #+0]
    699                  sock=-1;
   \   00000108   0000E0E1           MVN      R0,R0
   \   0000010C   000085E5           STR      R0,[R5, #+0]
    700                  break;
    701                }
    702              }
    703              
    704            }
    705            
    706              char *pics[11]=
    707            {
    708              "4:\\Zbin\\netutils\\weather\\00.png",
    709              "4:\\Zbin\\netutils\\weather\\01.png",
    710              "4:\\Zbin\\netutils\\weather\\02.png",
    711              "4:\\Zbin\\netutils\\weather\\03.png",
    712              
    713              "4:\\Zbin\\netutils\\weather\\04.png",
    714              "4:\\Zbin\\netutils\\weather\\05.png",
    715              "4:\\Zbin\\netutils\\weather\\06.png",
    716              "4:\\Zbin\\netutils\\weather\\07.png",
    717              "4:\\Zbin\\netutils\\weather\\08.png",
    718              "4:\\Zbin\\netutils\\weather\\09.png",
    719              "4:\\Zbin\\netutils\\weather\\10.png" 
    720            };
   \                     ??maincsm_onmessage_1:
   \   00000110   58119FE5           LDR      R1,??maincsm_onmessage_7+0x1C  ;; `?<Constant {&"4:\\\\Zbin\\\\netutils\\\\weat...", &"`
   \   00000114   0D00A0E1           MOV      R0,SP
   \   00000118   6C50B1E8           LDM      R1!,{R2,R3,R5,R6,R12,LR}
   \   0000011C   6C50A0E8           STM      R0!,{R2,R3,R5,R6,R12,LR}
   \   00000120   6C1091E8           LDM      R1,{R2,R3,R5,R6,R12}
   \   00000124   6C1080E8           STM      R0,{R2,R3,R5,R6,R12}
    721          
    722            
    723            
    724          
    725            
    726           
    727            {
    728          
    729              //Нарисуем иконочку моего статуса
    730          #define idlegui_id (((int *)icsm)[DISPLACE_OF_IDLEGUI_ID/4])
    731              CSM_RAM *icsm=FindCSMbyID(CSM_root()->idle_id);
   \   00000128   068100EF           SWI      +33030
   \   0000012C   040090E5           LDR      R0,[R0, #+4]
   \   00000130   080100EF           SWI      +264
    732              if (IsGuiOnTop(idlegui_id)) //Если IdleGui на самом верху
   \   00000134   280090E5           LDR      R0,[R0, #+40]
   \   00000138   350100EF           SWI      +309
   \   0000013C   000050E3           CMP      R0,#+0
   \   00000140   4000000A           BEQ      ??maincsm_onmessage_9
    733              {
    734                GUI *igui=GetTopGUI();
   \   00000144   4D0100EF           SWI      +333
    735                if (igui && succ==1) //И он существует
   \   00000148   000050E3           CMP      R0,#+0
   \   0000014C   3D00000A           BEQ      ??maincsm_onmessage_9
   \   00000150   001094E5           LDR      R1,[R4, #+0]
   \   00000154   010051E3           CMP      R1,#+1
   \   00000158   3A00001A           BNE      ??maincsm_onmessage_9
    736                {
    737                  
    738          
    739                  
    740          #ifdef ELKA
    741          	//	{
    742          	void *canvasdata=BuildCanvas();
    743          #else
    744          	void *idata=GetDataOfItemByID(igui,2);
    745          	if (idata)
   \   0000015C   0210A0E3           MOV      R1,#+2
   \   00000160   4F0100EF           SWI      +335
   \   00000164   000050E3           CMP      R0,#+0
   \   00000168   3600000A           BEQ      ??maincsm_onmessage_9
    746          	{
    747          	  void *canvasdata=((void **)idata)[DISPLACE_OF_IDLECANVAS/4];
                 	        ^
Warning[Pe177]: variable "canvasdata" was declared but never referenced
    748          #endif
    749          	
    750                    //DrawCanvas(canvasdata,idle_x,idle_y,idle_x+(GetImgWidth(gps_icon)),idle_y+(GetImgHeight(gps_icon)),1); 
    751          //DrawRoundedFrame(IDLEICON_X,IDLEICON_Y,IDLEICON_X+70,IDLEICON_Y+20,4,4,0,GetPaletteAdrByColorIndex(1),GetPaletteAdrByColorIndex(0));
    752          
    753            DrawImg(FALL_ICON_X,FALL_ICON_Y,(int)pics[weath[y].fallout]);
   \   0000016C   ........           LDR      R4,??DataTable42  ;; y
   \   00000170   ........           LDR      R5,??DataTable43  ;; weath
   \   00000174   000094E5           LDR      R0,[R4, #+0]
   \   00000178   0D10A0E1           MOV      R1,SP
   \   0000017C   000385E0           ADD      R0,R5,R0, LSL #+6
   \   00000180   FE01D0E1           LDRSH    R0,[R0, #+30]
   \   00000184   002191E7           LDR      R2,[R1, +R0, LSL #+2]
   \   00000188   E4009FE5           LDR      R0,??maincsm_onmessage_7+0x20  ;; FALL_ICON_Y
   \   0000018C   001090E5           LDR      R1,[R0, #+0]
   \   00000190   E0009FE5           LDR      R0,??maincsm_onmessage_7+0x24  ;; FALL_ICON_X
   \   00000194   000090E5           LDR      R0,[R0, #+0]
   \   00000198   230000EF           SWI      +35
    754            DrawImg(CLOUD_ICON_X,CLOUD_ICON_Y,(int)pics[weath[y].cloudiness]);
   \   0000019C   000094E5           LDR      R0,[R4, #+0]
   \   000001A0   0D10A0E1           MOV      R1,SP
   \   000001A4   000385E0           ADD      R0,R5,R0, LSL #+6
   \   000001A8   FC01D0E1           LDRSH    R0,[R0, #+28]
   \   000001AC   002191E7           LDR      R2,[R1, +R0, LSL #+2]
   \   000001B0   C4009FE5           LDR      R0,??maincsm_onmessage_7+0x28  ;; CLOUD_ICON_Y
   \   000001B4   001090E5           LDR      R1,[R0, #+0]
   \   000001B8   C0009FE5           LDR      R0,??maincsm_onmessage_7+0x2C  ;; CLOUD_ICON_X
   \   000001BC   000090E5           LDR      R0,[R0, #+0]
   \   000001C0   230000EF           SWI      +35
    755            
    756                    WSHDR *wsx = AllocWS(64);
   \   000001C4   4000A0E3           MOV      R0,#+64
   \   000001C8   250100EF           SWI      +293
    757                    wsprintf(wsx,"%i\xB0\x43",weath[y].temp+1);
   \   000001CC   B0109FE5           LDR      R1,??maincsm_onmessage_7+0x30  ;; `?<Constant "%i\\260C">`
   \   000001D0   0060A0E1           MOV      R6,R0
   \   000001D4   000094E5           LDR      R0,[R4, #+0]
   \   000001D8   000385E0           ADD      R0,R5,R0, LSL #+6
   \   000001DC   280090E5           LDR      R0,[R0, #+40]
   \   000001E0   012080E2           ADD      R2,R0,#+1
   \   000001E4   0600A0E1           MOV      R0,R6
   \   000001E8   240100EF           SWI      +292
    758                    DrawString(wsx,TEMP_ICON_X,TEMP_ICON_Y,TEMP_ICON_X+100,TEMP_ICON_Y+20,11,2,GetPaletteAdrByColorIndex(1),GetPaletteAdrByColorIndex(23));
   \   000001EC   1700A0E3           MOV      R0,#+23
   \   000001F0   2E0100EF           SWI      +302
   \   000001F4   0040A0E1           MOV      R4,R0
   \   000001F8   0100A0E3           MOV      R0,#+1
   \   000001FC   2E0100EF           SWI      +302
   \   00000200   80109FE5           LDR      R1,??maincsm_onmessage_7+0x34  ;; TEMP_ICON_X
   \   00000204   80209FE5           LDR      R2,??maincsm_onmessage_7+0x38  ;; TEMP_ICON_Y
   \   00000208   001091E5           LDR      R1,[R1, #+0]
   \   0000020C   002092E5           LDR      R2,[R2, #+0]
   \   00000210   10002DE9           PUSH     {R4}
   \   00000214   01002DE9           PUSH     {R0}
   \   00000218   643081E2           ADD      R3,R1,#+100
   \   0000021C   0200A0E3           MOV      R0,#+2
   \   00000220   01002DE9           PUSH     {R0}
   \   00000224   0B00A0E3           MOV      R0,#+11
   \   00000228   01002DE9           PUSH     {R0}
   \   0000022C   140082E2           ADD      R0,R2,#+20
   \   00000230   01002DE9           PUSH     {R0}
   \   00000234   0600A0E1           MOV      R0,R6
   \   00000238   4C0100EF           SWI      +332
    759          	  FreeWS (wsx);
   \   0000023C   0600A0E1           MOV      R0,R6
   \   00000240   290100EF           SWI      +297
   \   00000244   14D08DE2           ADD      SP,SP,#+20
    760                  } }
    761                }
    762              }
    763            
    764          
    765            return(1);
   \                     ??maincsm_onmessage_9:
   \   00000248   0100A0E3           MOV      R0,#+1
   \   0000024C   2CD08DE2           ADD      SP,SP,#+44
   \   00000250   7080BDE8           POP      {R4-R6,PC}       ;; return
   \                     ??maincsm_onmessage_7:
   \   00000254   ........           DC32     `?<Constant "Connected\\n">`
   \   00000258   ........           DC32     send_req
   \   0000025C   ........           DC32     `?<Constant "Error, try again..\\n">`
   \   00000260   ........           DC32     `?<Constant "Reading\\n">`
   \   00000264   ........           DC32     get_answer
   \   00000268   ........           DC32     end_socket
   \   0000026C   ........           DC32     `?<Constant "Receiving\\n">`
   \   00000270   ........           DC32     `?<Constant {&"4:\\\\Zbin\\\\netutils\\\\weat...", &"`
   \   00000274   ........           DC32     FALL_ICON_Y
   \   00000278   ........           DC32     FALL_ICON_X
   \   0000027C   ........           DC32     CLOUD_ICON_Y
   \   00000280   ........           DC32     CLOUD_ICON_X
   \   00000284   ........           DC32     `?<Constant "%i\\260C">`
   \   00000288   ........           DC32     TEMP_ICON_X
   \   0000028C   ........           DC32     TEMP_ICON_Y
    766          }
    767          
    768          const struct
    769          {
    770            CSM_DESC maincsm;
    771            WSHDR maincsm_name;

   \                                 In segment DATA_C, align 4, align-sorted
    772          }MAINCSM =
   \                     MAINCSM:
   \   00000000   ............       DC32 maincsm_onmessage, maincsm_oncreate, maincsm_onclose, 44, 1
   \              ............
   \              2C0000000100
   \              0000        
   \   00000014   ............       DC32 minus11, maincsm_name_body, 55AACCCCH, 3333AA55H, 0, 139
   \              ....CCCCAA55
   \              55AA33330000
   \              00008B000000
    773          {
    774            {
    775            maincsm_onmessage,
    776            maincsm_oncreate,
    777          #ifdef NEWSGOLD
    778            0,
    779            0,
    780            0,
    781            0,
    782          #endif
    783          
    784            maincsm_onclose,
    785            sizeof(MAIN_CSM),
    786            1,
    787            &minus11
    788            },
    789          
    790            {
    791              maincsm_name_body,
    792              NAMECSM_MAGIC1,
    793              NAMECSM_MAGIC2,
    794              0x0,
    795              139
    796            }
    797          };
    798          

   \                                 In segment CODE, align 4, keep-with-next
    799          void UpdateCSMname(void)
    800          {
   \                     UpdateCSMname:
   \   00000000   10402DE9           PUSH     {R4,LR}
    801            WSHDR *ws=AllocWS(256);
   \   00000004   400FA0E3           MOV      R0,#+256
   \   00000008   250100EF           SWI      +293
    802            wsprintf((WSHDR *)(&MAINCSM.maincsm_name),"Weather Forecast");
   \   0000000C   14109FE5           LDR      R1,??UpdateCSMname_0  ;; `?<Constant "Weather Forecast">`
   \   00000010   0040A0E1           MOV      R4,R0
   \   00000014   10009FE5           LDR      R0,??UpdateCSMname_0+0x4  ;; MAINCSM + 24
   \   00000018   240100EF           SWI      +292
    803            FreeWS(ws);
   \   0000001C   0400A0E1           MOV      R0,R4
   \   00000020   290100EF           SWI      +297
    804          }
   \   00000024   1080BDE8           POP      {R4,PC}          ;; return
   \                     ??UpdateCSMname_0:
   \   00000028   ........           DC32     `?<Constant "Weather Forecast">`
   \   0000002C   ........           DC32     MAINCSM + 24
    805          
    806          

   \                                 In segment CODE, align 4, keep-with-next
    807          int main(char *exename, char *fname)
    808          {
   \                     main:
   \   00000000   00402DE9           PUSH     {LR}
   \   00000004   2CD04DE2           SUB      SP,SP,#+44
    809            traff=*GetGPRSTrafficPointer();
   \   00000008   700000EF           SWI      +112
   \   0000000C   000090E5           LDR      R0,[R0, #+0]
   \   00000010   ........           LDR      R1,??DataTable44  ;; traff
   \   00000014   000081E5           STR      R0,[R1, #+0]
    810            InitConfig();
   \   00000018   ........           _BLF     InitConfig,??InitConfig??rA
    811            char dummy[sizeof(MAIN_CSM)];
    812            MAINCSM_ID = CreateCSM(&MAINCSM.maincsm,dummy,0);
   \   0000001C   20009FE5           LDR      R0,??main_0      ;; MAINCSM
   \   00000020   0020A0E3           MOV      R2,#+0
   \   00000024   0D10A0E1           MOV      R1,SP
   \   00000028   070100EF           SWI      +263
   \   0000002C   14109FE5           LDR      R1,??main_0+0x4  ;; MAINCSM_ID
   \   00000030   000081E5           STR      R0,[R1, #+0]
    813            UpdateCSMname();
   \   00000034   ........           BL       UpdateCSMname
    814          
    815            
    816            return 0;
   \   00000038   0000A0E3           MOV      R0,#+0
   \   0000003C   2CD08DE2           ADD      SP,SP,#+44
   \   00000040   0080BDE8           POP      {PC}             ;; return
   \                     ??main_0:
   \   00000044   ........           DC32     MAINCSM
   \   00000048   ........           DC32     MAINCSM_ID
    817          }

   \                                 In segment CODE, align 4, keep-with-next
   \                     ??DataTable1:
   \   00000000   ........           DC32     mode

   \                                 In segment CODE, align 4, keep-with-next
   \                     ??DataTable7:
   \   00000000   ........           DC32     connect_state

   \                                 In segment CODE, align 4, keep-with-next
   \                     ??DataTable9:
   \   00000000   ........           DC32     pbuf

   \                                 In segment CODE, align 4, keep-with-next
   \                     ??DataTable11:
   \   00000000   ........           DC32     sock

   \                                 In segment CODE, align 4, keep-with-next
   \                     ??DataTable13:
   \   00000000   ........           DC32     buf

   \                                 In segment CODE, align 4, keep-with-next
   \                     ??DataTable16:
   \   00000000   ........           DC32     traff

   \                                 In segment CODE, align 4, keep-with-next
   \                     ??DataTable18:
   \   00000000   ........           DC32     weath

   \                                 In segment CODE, align 4, keep-with-next
   \                     ??DataTable23:
   \   00000000   ........           DC32     logbuf

   \                                 In segment CODE, align 4, keep-with-next
   \                     ??DataTable27:
   \   00000000   ........           DC32     `?<Constant "4:\\\\Zbin\\\\netutils\\\\weat...">`

   \                                 In segment CODE, align 4, keep-with-next
   \                     ??DataTable28:
   \   00000000   ........           DC32     town

   \                                 In segment CODE, align 4, keep-with-next
   \                     ??DataTable29:
   \   00000000   ........           DC32     FONT

   \                                 In segment CODE, align 4, keep-with-next
   \                     ??DataTable30:
   \   00000000   ........           DC32     TID

   \                                 In segment CODE, align 4, keep-with-next
   \                     ??DataTable32:
   \   00000000   ........           DC32     mode

   \                                 In segment CODE, align 4, keep-with-next
   \                     ??DataTable34:
   \   00000000   ........           DC32     x

   \                                 In segment CODE, align 4, keep-with-next
   \                     ??DataTable37:
   \   00000000   ........           DC32     succ

   \                                 In segment CODE, align 4, keep-with-next
   \                     ??DataTable38:
   \   00000000   ........           DC32     sock

   \                                 In segment CODE, align 4, keep-with-next
   \                     ??DataTable39:
   \   00000000   ........           DC32     connect_state

   \                                 In segment CODE, align 4, keep-with-next
   \                     ??DataTable40:
   \   00000000   ........           DC32     logbuf

   \                                 In segment CODE, align 4, keep-with-next
   \                     ??DataTable41:
   \   00000000   ........           DC32     create_connect

   \                                 In segment CODE, align 4, keep-with-next
   \                     ??DataTable42:
   \   00000000   ........           DC32     y

   \                                 In segment CODE, align 4, keep-with-next
   \                     ??DataTable43:
   \   00000000   ........           DC32     weath

   \                                 In segment CODE, align 4, keep-with-next
   \                     ??DataTable44:
   \   00000000   ........           DC32     traff

   \                                 In segment DATA_ID, align 4, align-sorted
   \                     `?<Initializer for FONT>`:
   \   00000000   0B000000           DC32 11

   \                                 In segment DATA_ID, align 4, align-sorted
   \                     `?<Initializer for menusoftkeys>`:
   \   00000000   000000000100       DC32 0, 1, 2
   \              000002000000

   \                                 In segment DATA_ID, align 4, align-sorted
   \                     `?<Initializer for menu_sk>`:
   \   00000000   18000000           DC16 24, 0
   \   00000004   ........           DC32 `?<Constant "Options">`
   \   00000008   01000000           DC16 1, 0
   \   0000000C   ........           DC32 `?<Constant "\\307\\340\\352\\360\\373\\362\\374">`
   \   00000010   3D000000           DC16 61, 0
   \   00000014   ........           DC32 `?<Constant "-">`

   \                                 In segment DATA_ID, align 4, align-sorted
   \                     `?<Initializer for menu_skt>`:
   \   00000000   ........0000       DC32 menu_sk, 0
   \              0000        

   \                                 In segment DATA_ID, align 4, align-sorted
   \                     `?<Initializer for menuitems>`:
   \   00000000   00030000....       DC32 300H, `?<Constant "\\302\\373\\365\\356\\344">`, 2147483647, 0, 0H
   \              ....FFFFFF7F
   \              000000000000
   \              0000        
   \   00000014   000000009D05       DC32 0, 1437, 301H
   \              000001030000
   \   00000020   ........           DC32 `?<Constant "\\316\\341 \\375\\353\\374\\364\\345...">`
   \   00000024   FFFFFF7F0000       DC32 2147483647, 0, 0H, 0, 1437, 315H
   \              000000000000
   \              000000009D05
   \              000015030000
   \   0000003C   ........           DC32 `?<Constant "\\316\\341 \\375\\353\\374\\364\\345...">`
   \   00000040   FFFFFF7F0000       DC32 2147483647, 0, 0H, 0, 1437
   \              000000000000
   \              000000009D05
   \              0000        

   \                                 In segment DATA_ID, align 4, align-sorted
   \                     `?<Initializer for contactlist_menu>`:
   \   00000000   08000000....       DC32 8, contactlist_menu_onkey, contactlist_menu_ghook, 0H
   \              ............
   \              00000000    
   \   00000010   ............       DC32 menusoftkeys, menu_skt, 17, contactlist_menu_iconhndl, menuitems
   \              ....11000000
   \              ............
   \              ....        
   \   00000024   000000000000       DC32 0H, 0
   \              0000        

   \                                 In segment DATA_ID, align 4, align-sorted
   \                     `?<Initializer for menuhdr>`:
   \   00000000   000000008300       DC16 0, 0, 131, 21
   \              1500        
   \   00000008   00000000....       DC32 0H, `?<Constant "\\316\\357\\366\\350\\350">`, 2147483647
   \              ....FFFFFF7F

   \                                 In segment DATA_C, align 4, align-sorted
   \                     `?<Constant "\\302\\356\\347\\354\\356\\346\\345\\355 \\`:
   \   00000000   C2EEE7ECEEE6       DC8 "\302\356\347\354\356\346\345\355 \344\356\346\344\374"
   \              E5ED20E4EEE6
   \              E4FC00      
   \   0000000F   00                 DC8 0

   \                                 In segment DATA_C, align 4, align-sorted
   \                     `?<Constant "\\304\\356\\346\\344\\374">`:
   \   00000000   C4EEE6E4FC00       DC8 "\304\356\346\344\374"
   \   00000006   0000               DC8 0, 0

   \                                 In segment DATA_C, align 4, align-sorted
   \                     `?<Constant "\\302\\356\\347\\354\\356\\346\\345\\355 \\_1`:
   \   00000000   C2EEE7ECEEE6       DC8 "\302\356\347\354\356\346\345\355 \353\350\342\345\355\374"
   \              E5ED20EBE8E2
   \              E5EDFC00    

   \                                 In segment DATA_C, align 4, align-sorted
   \                     `?<Constant "\\313\\350\\342\\345\\355\\374">`:
   \   00000000   CBE8E2E5EDFC       DC8 "\313\350\342\345\355\374"
   \              00          
   \   00000007   00                 DC8 0

   \                                 In segment DATA_C, align 4, align-sorted
   \                     `?<Constant "\\302\\356\\347\\354\\356\\346\\345\\355 \\_2`:
   \   00000000   C2EEE7ECEEE6       DC8 "\302\356\347\354\356\346\345\355 \361\355\345\343"
   \              E5ED20F1EDE5
   \              E300        
   \   0000000E   0000               DC8 0, 0

   \                                 In segment DATA_C, align 4, align-sorted
   \                     `?<Constant "\\321\\355\\345\\343">`:
   \   00000000   D1EDE5E300         DC8 "\321\355\345\343"
   \   00000005   000000             DC8 0, 0, 0

   \                                 In segment DATA_C, align 4, align-sorted
   \                     `?<Constant "\\302\\356\\347\\354\\356\\346\\355\\340 \\`:
   \   00000000   C2EEE7ECEEE6       DC8 "\302\356\347\354\356\346\355\340 \343\360\356\347\340"
   \              EDE020E3F0EE
   \              E7E000      
   \   0000000F   00                 DC8 0

   \                                 In segment DATA_C, align 4, align-sorted
   \                     `?<Constant "\\303\\360\\356\\347\\340">`:
   \   00000000   C3F0EEE7E000       DC8 "\303\360\356\347\340"
   \   00000006   0000               DC8 0, 0

   \                                 In segment DATA_C, align 4, align-sorted
   \   00000000   4E2F4100           DC8 "N/A"

   \                                 In segment DATA_C, align 4, align-sorted
   \                     `?<Constant "\\301\\345\\347 \\356\\361\\340\\344\\352\\`:
   \   00000000   C1E5E720EEF1       DC8 "\301\345\347 \356\361\340\344\352\356\342"
   \              E0E4EAEEE200

   \                                 In segment DATA_C, align 4, align-sorted
   \                     `?<Constant "%.2d\\260%t,%.2d\\260%t">`:
   \   00000000   252E3264B025       DC8 "%.2d\260%t,%.2d\260%t"
   \              742C252E3264
   \              B0257400    

   \                                 In segment DATA_C, align 1, align-sorted
   \   00000000   D82E00             DC8 "\330."

   \                                 In segment DATA_C, align 1, align-sorted
   \   00000000   C42E00             DC8 "\304."

   \                                 In segment DATA_C, align 4, align-sorted
   \                     `?<Constant "< %i/4 %i.%02i, %t >">`:
   \   00000000   3C2025692F34       DC8 "< %i/4 %i.%02i, %t >"
   \              2025692E2530
   \              32692C202574
   \              203E00      
   \   00000015   000000             DC8 0, 0, 0

   \                                 In segment DATA_C, align 4, align-sorted
   \                     `?<Constant "%i-%i\\260C %t:%i\\260">`:
   \   00000000   25692D2569B0       DC8 "%i-%i\260C %t:%i\260"
   \              432025743A25
   \              69B000      
   \   0000000F   00                 DC8 0

   \                                 In segment DATA_C, align 4, align-sorted
   \                     `?<Constant "\\312\\356\\354\\364\\356\\360\\362">`:
   \   00000000   CAEEECF4EEF0       DC8 "\312\356\354\364\356\360\362"
   \              F200        

   \                                 In segment DATA_C, align 4, align-sorted
   \                     `?<Constant "%i-%i %t">`:
   \   00000000   25692D256920       DC8 "%i-%i %t"
   \              257400      
   \   00000009   000000             DC8 0, 0, 0

   \                                 In segment DATA_C, align 4, align-sorted
   \                     `?<Constant "\\354\\354.\\360\\362.\\361\\362">`:
   \   00000000   ECEC2EF0F22E       DC8 "\354\354.\360\362.\361\362"
   \              F1F200      
   \   00000009   000000             DC8 0, 0, 0

   \                                 In segment DATA_C, align 4, align-sorted
   \                     `?<Constant "sname=">`:
   \   00000000   736E616D653D       DC8 "sname="
   \              00          
   \   00000007   00                 DC8 0

   \                                 In segment DATA_C, align 4, align-sorted
   \   00000000   25742000           DC8 "%t "

   \                                 In segment DATA_C, align 4, align-sorted
   \                     `?<Constant "%t  ">`:
   \   00000000   2574202000         DC8 "%t  "
   \   00000005   000000             DC8 0, 0, 0

   \                                 In segment DATA_C, align 4, align-sorted
   \                     `?<Constant "%t%t %i-%i %t">`:
   \   00000000   257425742025       DC8 "%t%t %i-%i %t"
   \              692D25692025
   \              7400        
   \   0000000E   0000               DC8 0, 0

   \                                 In segment DATA_C, align 4, align-sorted
   \   00000000   EC2FF100           DC8 "\354/\361"

   \                                 In segment DATA_C, align 4, align-sorted
   \                     `?<Constant "%t: %i-%i%%">`:
   \   00000000   25743A202569       DC8 "%t: %i-%i%%"
   \              2D2569252500

   \                                 In segment DATA_C, align 4, align-sorted
   \                     `?<Constant "\\302\\353\\340\\346\\355\\356\\361\\362\\3`:
   \   00000000   C2EBE0E6EDEE       DC8 "\302\353\340\346\355\356\361\362\374"
   \              F1F2FC00    
   \   0000000A   0000               DC8 0, 0

   \                                 In segment DATA_C, align 4, align-sorted
   \                     `?<Constant "4:\\\\Zbin\\\\netutils\\\\weat...">`:
   \   00000000   343A5C5A6269       DC8 "4:\\Zbin\\netutils\\weather\\wait.png"
   \              6E5C6E657475
   \              74696C735C77
   \              656174686572
   \              5C776169742E
   \              706E6700    
   \   00000022   0000               DC8 0, 0

   \                                 In segment DATA_C, align 1, align-sorted
   \   00000000   257300             DC8 "%s"

   \                                 In segment DATA_C, align 1, align-sorted
   \   00000000   257400             DC8 "%t"

   \                                 In segment DATA_C, align 4, align-sorted
   \                     `?<Constant "\\315\\363\\353\\345\\342\\356\\351 ID \\3`:
   \   00000000   CDF3EBE5E2EE       DC8 "\315\363\353\345\342\356\351 ID \343\356\360\356\344\340"
   \              E920494420E3
   \              EEF0EEE4E000
   \   00000012   0000               DC8 0, 0

   \                                 In segment DATA_C, align 4, align-sorted
   \                     `?<Constant "%t\\n%t:%i\\n %t:%i\\260C\\n %t...">`:
   \   00000000   25740A25743A       DC8 "%t\012%t:%i\012 %t:%i\260C\012 %t:%i\260C\012"
   \              25690A202574
   \              3A2569B0430A
   \              2025743A2569
   \              B0430A00    

   \                                 In segment DATA_C, align 4, align-sorted
   \                     `?<Constant "ID \\343\\356\\360\\356\\344\\340">`:
   \   00000000   494420E3EEF0       DC8 "ID \343\356\360\356\344\340"
   \              EEE4E000    
   \   0000000A   0000               DC8 0, 0

   \                                 In segment DATA_C, align 4, align-sorted
   \                     `?<Constant "\\304\\356\\353\\343\\356\\362\\340">`:
   \   00000000   C4EEEBE3EEF2       DC8 "\304\356\353\343\356\362\340"
   \              E000        

   \                                 In segment DATA_C, align 4, align-sorted
   \                     `?<Constant "\\330\\350\\360\\356\\362\\340">`:
   \   00000000   D8E8F0EEF2E0       DC8 "\330\350\360\356\362\340"
   \              00          
   \   00000007   00                 DC8 0

   \                                 In segment DATA_C, align 4, align-sorted
   \                     `?<Constant "Connected\\n">`:
   \   00000000   436F6E6E6563       DC8 "Connected\012"
   \              7465640A00  
   \   0000000B   00                 DC8 0

   \                                 In segment DATA_C, align 4, align-sorted
   \                     `?<Constant "Error, try again..\\n">`:
   \   00000000   4572726F722C       DC8 "Error, try again..\012"
   \              207472792061
   \              6761696E2E2E
   \              0A00        

   \                                 In segment DATA_C, align 4, align-sorted
   \                     `?<Constant "Reading\\n">`:
   \   00000000   52656164696E       DC8 "Reading\012"
   \              670A00      
   \   00000009   000000             DC8 0, 0, 0

   \                                 In segment DATA_C, align 4, align-sorted
   \                     `?<Constant "Receiving\\n">`:
   \   00000000   526563656976       DC8 "Receiving\012"
   \              696E670A00  
   \   0000000B   00                 DC8 0

   \                                 In segment DATA_C, align 4, align-sorted
   \                     `?<Constant {&"4:\\\\Zbin\\\\netutils\\\\weat...", &"`:
   \   00000000   ........           DC32 `?<Constant "4:\\\\Zbin\\\\netutils\\\\weat...">_1`
   \   00000004   ........           DC32 `?<Constant "4:\\\\Zbin\\\\netutils\\\\weat...">_2`
   \   00000008   ........           DC32 `?<Constant "4:\\\\Zbin\\\\netutils\\\\weat...">_3`
   \   0000000C   ........           DC32 `?<Constant "4:\\\\Zbin\\\\netutils\\\\weat...">_4`
   \   00000010   ........           DC32 `?<Constant "4:\\\\Zbin\\\\netutils\\\\weat...">_5`
   \   00000014   ........           DC32 `?<Constant "4:\\\\Zbin\\\\netutils\\\\weat...">_6`
   \   00000018   ........           DC32 `?<Constant "4:\\\\Zbin\\\\netutils\\\\weat...">_7`
   \   0000001C   ........           DC32 `?<Constant "4:\\\\Zbin\\\\netutils\\\\weat...">_8`
   \   00000020   ........           DC32 `?<Constant "4:\\\\Zbin\\\\netutils\\\\weat...">_9`
   \   00000024   ........           DC32 `?<Constant "4:\\\\Zbin\\\\netutils\\\\weat...">_10`
   \   00000028   ........           DC32 `?<Constant "4:\\\\Zbin\\\\netutils\\\\weat...">_11`

   \                                 In segment DATA_C, align 4, align-sorted
   \                     `?<Constant "%i\\260C">`:
   \   00000000   2569B04300         DC8 "%i\260C"
   \   00000005   000000             DC8 0, 0, 0

   \                                 In segment DATA_C, align 4, align-sorted
   \                     `?<Constant "Weather Forecast">`:
   \   00000000   576561746865       DC8 "Weather Forecast"
   \              7220466F7265
   \              6361737400  
   \   00000011   000000             DC8 0, 0, 0

   \                                 In segment DATA_C, align 4, align-sorted
   \                     `?<Constant "Options">`:
   \   00000000   4F7074696F6E       DC8 "Options"
   \              7300        

   \                                 In segment DATA_C, align 4, align-sorted
   \                     `?<Constant "\\307\\340\\352\\360\\373\\362\\374">`:
   \   00000000   C7E0EAF0FBF2       DC8 "\307\340\352\360\373\362\374"
   \              FC00        

   \                                 In segment DATA_C, align 1, align-sorted
   \                     `?<Constant "-">`:
   \   00000000   2D00               DC8 "-"

   \                                 In segment DATA_C, align 4, align-sorted
   \                     `?<Constant "\\302\\373\\365\\356\\344">`:
   \   00000000   C2FBF5EEE400       DC8 "\302\373\365\356\344"
   \   00000006   0000               DC8 0, 0

   \                                 In segment DATA_C, align 4, align-sorted
   \                     `?<Constant "\\316\\341 \\375\\353\\374\\364\\345...">`:
   \   00000000   CEE120FDEBFC       DC8 "\316\341 \375\353\374\364\345..."
   \              F4E52E2E2E00

   \                                 In segment DATA_C, align 4, align-sorted
   \                     `?<Constant "\\316\\357\\366\\350\\350">`:
   \   00000000   CEEFF6E8E800       DC8 "\316\357\366\350\350"
   \   00000006   0000               DC8 0, 0

   \                                 In segment DATA_C, align 4, align-sorted
   \                     `?<Constant "0:\\\\Zbin\\\\etc\\\\weath.bcfg">`:
   \   00000000   303A5C5A6269       DC8 "0:\\Zbin\\etc\\weath.bcfg"
   \              6E5C6574635C
   \              77656174682E
   \              6263666700  
   \   00000017   00                 DC8 0

   \                                 In segment DATA_C, align 4, align-sorted
   \                     `?<Constant "\\303\\356\\360\\356\\344">`:
   \   00000000   C3EEF0EEE400       DC8 "\303\356\360\356\344"
   \   00000006   0000               DC8 0, 0

   \                                 In segment DATA_C, align 4, align-sorted
   \                     `?<Constant "\\317\\356\\343\\356\\344\\340">`:
   \   00000000   CFEEE3EEE4E0       DC8 "\317\356\343\356\344\340"
   \              00          
   \   00000007   00                 DC8 0

   \                                 In segment DATA_C, align 4, align-sorted
   \                     `?<Constant "\\315\\340\\361\\362\\360\\356\\351\\352\\3`:
   \   00000000   CDE0F1F2F0EE       DC8 "\315\340\361\362\360\356\351\352\350"
   \              E9EAE800    
   \   0000000A   0000               DC8 0, 0

   \                                 In segment DATA_C, align 4, align-sorted
   \                     `?<Constant "Under construction!">`:
   \   00000000   556E64657220       DC8 "Under construction!"
   \              636F6E737472
   \              756374696F6E
   \              2100        

   \                                 In segment DATA_C, align 4, align-sorted
   \                     `?<Constant "GET /xml/%i_1.xml HTT...">`:
   \   00000000   474554202F78       DC8 47H, 45H, 54H, 20H, 2FH, 78H, 6DH, 6CH
   \              6D6C        
   \   00000008   2F25695F312E       DC8 2FH, 25H, 69H, 5FH, 31H, 2EH, 78H, 6DH
   \              786D        
   \   00000010   6C2048545450       DC8 6CH, 20H, 48H, 54H, 54H, 50H, 2FH, 31H
   \              2F31        
   \   00000018   2E300D0A486F       DC8 2EH, 30H, 0DH, 0AH, 48H, 6FH, 73H, 74H
   \              7374        
   \   00000020   3A20696E666F       DC8 3AH, 20H, 69H, 6EH, 66H, 6FH, 72H, 6DH
   \              726D        
   \   00000028   65722E676973       DC8 65H, 72H, 2EH, 67H, 69H, 73H, 6DH, 65H
   \              6D65        
   \   00000030   74656F2E7275       DC8 74H, 65H, 6FH, 2EH, 72H, 75H, 0DH, 0AH
   \              0D0A        
   \   00000038   0D0A00             DC8 0DH, 0AH, 0
   \   0000003B   00                 DC8 0

   \                                 In segment DATA_C, align 4, align-sorted
   \                     `?<Constant "Parsing\\n">`:
   \   00000000   50617273696E       DC8 "Parsing\012"
   \              670A00      
   \   00000009   000000             DC8 0, 0, 0

   \                                 In segment DATA_C, align 4, align-sorted
   \                     `?<Constant "latitude=">`:
   \   00000000   6C6174697475       DC8 "latitude="
   \              64653D00    
   \   0000000A   0000               DC8 0, 0

   \                                 In segment DATA_C, align 4, align-sorted
   \                     `?<Constant "longitude=">`:
   \   00000000   6C6F6E676974       DC8 "longitude="
   \              7564653D00  
   \   0000000B   00                 DC8 0

   \                                 In segment DATA_C, align 4, align-sorted
   \                     `?<Constant "index=">`:
   \   00000000   696E6465783D       DC8 "index="
   \              00          
   \   00000007   00                 DC8 0

   \                                 In segment DATA_C, align 4, align-sorted
   \                     `?<Constant " <FORE">`:
   \   00000000   203C464F5245       DC8 " <FORE"
   \              00          
   \   00000007   00                 DC8 0

   \                                 In segment DATA_C, align 4, align-sorted
   \                     `?<Constant "day=">`:
   \   00000000   6461793D00         DC8 "day="
   \   00000005   000000             DC8 0, 0, 0

   \                                 In segment DATA_C, align 4, align-sorted
   \                     `?<Constant "month=">`:
   \   00000000   6D6F6E74683D       DC8 "month="
   \              00          
   \   00000007   00                 DC8 0

   \                                 In segment DATA_C, align 4, align-sorted
   \                     `?<Constant "hour=">`:
   \   00000000   686F75723D00       DC8 "hour="
   \   00000006   0000               DC8 0, 0

   \                                 In segment DATA_C, align 4, align-sorted
   \                     `?<Constant "tod=">`:
   \   00000000   746F643D00         DC8 "tod="
   \   00000005   000000             DC8 0, 0, 0

   \                                 In segment DATA_C, align 4, align-sorted
   \                     `?<Constant "predict=">`:
   \   00000000   707265646963       DC8 "predict="
   \              743D00      
   \   00000009   000000             DC8 0, 0, 0

   \                                 In segment DATA_C, align 4, align-sorted
   \                     `?<Constant "weekday=">`:
   \   00000000   7765656B6461       DC8 "weekday="
   \              793D00      
   \   00000009   000000             DC8 0, 0, 0

   \                                 In segment DATA_C, align 4, align-sorted
   \                     `?<Constant "cloudiness=">`:
   \   00000000   636C6F756469       DC8 "cloudiness="
   \              6E6573733D00

   \                                 In segment DATA_C, align 4, align-sorted
   \                     `?<Constant "precipitation=">`:
   \   00000000   707265636970       DC8 "precipitation="
   \              69746174696F
   \              6E3D00      
   \   0000000F   00                 DC8 0

   \                                 In segment DATA_C, align 4, align-sorted
   \                     `?<Constant "rpower=">`:
   \   00000000   72706F776572       DC8 "rpower="
   \              3D00        

   \                                 In segment DATA_C, align 4, align-sorted
   \                     `?<Constant "spower=">`:
   \   00000000   73706F776572       DC8 "spower="
   \              3D00        

   \                                 In segment DATA_C, align 4, align-sorted
   \                     `?<Constant "PRESSURE max=">`:
   \   00000000   505245535355       DC8 "PRESSURE max="
   \              5245206D6178
   \              3D00        
   \   0000000E   0000               DC8 0, 0

   \                                 In segment DATA_C, align 4, align-sorted
   \                     `?<Constant "TEMPERATURE max=">`:
   \   00000000   54454D504552       DC8 "TEMPERATURE max="
   \              415455524520
   \              6D61783D00  
   \   00000011   000000             DC8 0, 0, 0

   \                                 In segment DATA_C, align 4, align-sorted
   \                     `?<Constant "WIND min=">`:
   \   00000000   57494E44206D       DC8 "WIND min="
   \              696E3D00    
   \   0000000A   0000               DC8 0, 0

   \                                 In segment DATA_C, align 4, align-sorted
   \                     `?<Constant "max=">`:
   \   00000000   6D61783D00         DC8 "max="
   \   00000005   000000             DC8 0, 0, 0

   \                                 In segment DATA_C, align 4, align-sorted
   \                     `?<Constant "direction=">`:
   \   00000000   646972656374       DC8 "direction="
   \              696F6E3D00  
   \   0000000B   00                 DC8 0

   \                                 In segment DATA_C, align 4, align-sorted
   \                     `?<Constant "RELWET max=">`:
   \   00000000   52454C574554       DC8 "RELWET max="
   \              206D61783D00

   \                                 In segment DATA_C, align 4, align-sorted
   \                     `?<Constant "HEAT min=">`:
   \   00000000   48454154206D       DC8 "HEAT min="
   \              696E3D00    
   \   0000000A   0000               DC8 0, 0

   \                                 In segment DATA_C, align 4, align-sorted
   \                     `?<Constant "\\302\\345\\362\\345\\360:">`:
   \   00000000   C2E5F2E5F03A       DC8 "\302\345\362\345\360:"
   \              00          
   \   00000007   00                 DC8 0

   \                                 In segment DATA_C, align 4, align-sorted
   \                     `?<Constant "4:\\\\Zbin\\\\img\\\\weather\\\\b...">`:
   \   00000000   343A5C5A6269       DC8 "4:\\Zbin\\img\\weather\\bg.png"
   \              6E5C696D675C
   \              776561746865
   \              725C62672E70
   \              6E6700      
   \   0000001B   00                 DC8 0

   \                                 In segment DATA_C, align 4, align-sorted
   \                     `?<Constant "\\355\\356\\367\\374\\376">`:
   \   00000000   EDEEF7FCFE00       DC8 "\355\356\367\374\376"
   \   00000006   0000               DC8 0, 0

   \                                 In segment DATA_C, align 4, align-sorted
   \                     `?<Constant "\\363\\362\\360\\356\\354">`:
   \   00000000   F3F2F0EEEC00       DC8 "\363\362\360\356\354"
   \   00000006   0000               DC8 0, 0

   \                                 In segment DATA_C, align 4, align-sorted
   \                     `?<Constant "\\344\\355\\345\\354">`:
   \   00000000   E4EDE5EC00         DC8 "\344\355\345\354"
   \   00000005   000000             DC8 0, 0, 0

   \                                 In segment DATA_C, align 4, align-sorted
   \                     `?<Constant "\\342\\345\\367\\345\\360\\356\\354">`:
   \   00000000   E2E5F7E5F0EE       DC8 "\342\345\367\345\360\356\354"
   \              EC00        

   \                                 In segment DATA_C, align 4, align-sorted
   \                     `?<Constant {&"\\355\\356\\367\\374\\376", &"\\363\\36`:
   \   00000000   ........           DC32 `?<Constant "\\355\\356\\367\\374\\376">`
   \   00000004   ........           DC32 `?<Constant "\\363\\362\\360\\356\\354">`
   \   00000008   ........           DC32 `?<Constant "\\344\\355\\345\\354">`
   \   0000000C   ........           DC32 `?<Constant "\\342\\345\\367\\345\\360\\356\\354">`

   \                                 In segment DATA_C, align 4, align-sorted
   \                     `?<Constant "\\337\\361\\355\\356">`:
   \   00000000   DFF1EDEE00         DC8 "\337\361\355\356"
   \   00000005   000000             DC8 0, 0, 0

   \                                 In segment DATA_C, align 4, align-sorted
   \                     `?<Constant "\\314\\340\\353\\356\\356\\341\\353\\340\\3`:
   \   00000000   CCE0EBEEEEE1       DC8 "\314\340\353\356\356\341\353\340\367\355\356"
   \              EBE0F7EDEE00

   \                                 In segment DATA_C, align 4, align-sorted
   \                     `?<Constant "0\\341\\353\\340\\367\\355\\356">`:
   \   00000000   30E1EBE0F7ED       DC8 "0\341\353\340\367\355\356"
   \              EE00        

   \                                 In segment DATA_C, align 4, align-sorted
   \                     `?<Constant "\\317\\340\\361\\354\\363\\360\\355\\356">`:
   \   00000000   CFE0F1ECF3F0       DC8 "\317\340\361\354\363\360\355\356"
   \              EDEE00      
   \   00000009   000000             DC8 0, 0, 0

   \                                 In segment DATA_C, align 4, align-sorted
   \                     `?<Constant {&"\\337\\361\\355\\356", &"\\314\\340\\35`:
   \   00000000   ........           DC32 `?<Constant "\\337\\361\\355\\356">`
   \   00000004   ........           DC32 `?<Constant "\\314\\340\\353\\356\\356\\341\\353\\340\\3`
   \   00000008   ........           DC32 `?<Constant "0\\341\\353\\340\\367\\355\\356">`
   \   0000000C   ........           DC32 `?<Constant "\\317\\340\\361\\354\\363\\360\\355\\356">`

   \                                 In segment DATA_C, align 4, align-sorted
   \                     `?<Constant "\\361\\345\\342.">`:
   \   00000000   F1E5E22E00         DC8 "\361\345\342."
   \   00000005   000000             DC8 0, 0, 0

   \                                 In segment DATA_C, align 4, align-sorted
   \                     `?<Constant "\\361\\345\\342.-\\342\\356\\361\\362.">`:
   \   00000000   F1E5E22E2DE2       DC8 "\361\345\342.-\342\356\361\362."
   \              EEF1F22E00  
   \   0000000B   00                 DC8 0

   \                                 In segment DATA_C, align 4, align-sorted
   \                     `?<Constant "\\342\\356\\361\\362.">`:
   \   00000000   E2EEF1F22E00       DC8 "\342\356\361\362."
   \   00000006   0000               DC8 0, 0

   \                                 In segment DATA_C, align 4, align-sorted
   \                     `?<Constant "\\376\\343\\356-\\342\\356\\361\\362.">`:
   \   00000000   FEE3EE2DE2EE       DC8 "\376\343\356-\342\356\361\362."
   \              F1F22E00    
   \   0000000A   0000               DC8 0, 0

   \                                 In segment DATA_C, align 4, align-sorted
   \                     `?<Constant "\\376\\346\\355\\373\\351">`:
   \   00000000   FEE6EDFBE900       DC8 "\376\346\355\373\351"
   \   00000006   0000               DC8 0, 0

   \                                 In segment DATA_C, align 4, align-sorted
   \                     `?<Constant "\\376\\343\\356-\\347\\340\\357.">`:
   \   00000000   FEE3EE2DE7E0       DC8 "\376\343\356-\347\340\357."
   \              EF2E00      
   \   00000009   000000             DC8 0, 0, 0

   \                                 In segment DATA_C, align 4, align-sorted
   \                     `?<Constant "\\347\\340\\357.">`:
   \   00000000   E7E0EF2E00         DC8 "\347\340\357."
   \   00000005   000000             DC8 0, 0, 0

   \                                 In segment DATA_C, align 4, align-sorted
   \                     `?<Constant "\\361\\345\\342.-\\347\\340\\357.">`:
   \   00000000   F1E5E22E2DE7       DC8 "\361\345\342.-\347\340\357."
   \              E0EF2E00    
   \   0000000A   0000               DC8 0, 0

   \                                 In segment DATA_C, align 4, align-sorted
   \                     `?<Constant {&"\\361\\345\\342.", &"\\361\\345\\342.-`:
   \   00000000   ........           DC32 `?<Constant "\\361\\345\\342.">`
   \   00000004   ........           DC32 `?<Constant "\\361\\345\\342.-\\342\\356\\361\\362.">`
   \   00000008   ........           DC32 `?<Constant "\\342\\356\\361\\362.">`
   \   0000000C   ........           DC32 `?<Constant "\\376\\343\\356-\\342\\356\\361\\362.">`
   \   00000010   ........           DC32 `?<Constant "\\376\\346\\355\\373\\351">`
   \   00000014   ........           DC32 `?<Constant "\\376\\343\\356-\\347\\340\\357.">`
   \   00000018   ........           DC32 `?<Constant "\\347\\340\\357.">`
   \   0000001C   ........           DC32 `?<Constant "\\361\\345\\342.-\\347\\340\\357.">`

   \                                 In segment DATA_C, align 4, align-sorted
   \                     `?<Constant "4:\\\\Zbin\\\\netutils\\\\weat...">_1`:
   \   00000000   343A5C5A6269       DC8 "4:\\Zbin\\netutils\\weather\\00.png"
   \              6E5C6E657475
   \              74696C735C77
   \              656174686572
   \              5C30302E706E
   \              6700        

   \                                 In segment DATA_C, align 4, align-sorted
   \                     `?<Constant "4:\\\\Zbin\\\\netutils\\\\weat...">_2`:
   \   00000000   343A5C5A6269       DC8 "4:\\Zbin\\netutils\\weather\\01.png"
   \              6E5C6E657475
   \              74696C735C77
   \              656174686572
   \              5C30312E706E
   \              6700        

   \                                 In segment DATA_C, align 4, align-sorted
   \                     `?<Constant "4:\\\\Zbin\\\\netutils\\\\weat...">_3`:
   \   00000000   343A5C5A6269       DC8 "4:\\Zbin\\netutils\\weather\\02.png"
   \              6E5C6E657475
   \              74696C735C77
   \              656174686572
   \              5C30322E706E
   \              6700        

   \                                 In segment DATA_C, align 4, align-sorted
   \                     `?<Constant "4:\\\\Zbin\\\\netutils\\\\weat...">_4`:
   \   00000000   343A5C5A6269       DC8 "4:\\Zbin\\netutils\\weather\\03.png"
   \              6E5C6E657475
   \              74696C735C77
   \              656174686572
   \              5C30332E706E
   \              6700        

   \                                 In segment DATA_C, align 4, align-sorted
   \                     `?<Constant "4:\\\\Zbin\\\\netutils\\\\weat...">_5`:
   \   00000000   343A5C5A6269       DC8 "4:\\Zbin\\netutils\\weather\\04.png"
   \              6E5C6E657475
   \              74696C735C77
   \              656174686572
   \              5C30342E706E
   \              6700        

   \                                 In segment DATA_C, align 4, align-sorted
   \                     `?<Constant "4:\\\\Zbin\\\\netutils\\\\weat...">_6`:
   \   00000000   343A5C5A6269       DC8 "4:\\Zbin\\netutils\\weather\\05.png"
   \              6E5C6E657475
   \              74696C735C77
   \              656174686572
   \              5C30352E706E
   \              6700        

   \                                 In segment DATA_C, align 4, align-sorted
   \                     `?<Constant "4:\\\\Zbin\\\\netutils\\\\weat...">_7`:
   \   00000000   343A5C5A6269       DC8 "4:\\Zbin\\netutils\\weather\\06.png"
   \              6E5C6E657475
   \              74696C735C77
   \              656174686572
   \              5C30362E706E
   \              6700        

   \                                 In segment DATA_C, align 4, align-sorted
   \                     `?<Constant "4:\\\\Zbin\\\\netutils\\\\weat...">_8`:
   \   00000000   343A5C5A6269       DC8 "4:\\Zbin\\netutils\\weather\\07.png"
   \              6E5C6E657475
   \              74696C735C77
   \              656174686572
   \              5C30372E706E
   \              6700        

   \                                 In segment DATA_C, align 4, align-sorted
   \                     `?<Constant "4:\\\\Zbin\\\\netutils\\\\weat...">_9`:
   \   00000000   343A5C5A6269       DC8 "4:\\Zbin\\netutils\\weather\\08.png"
   \              6E5C6E657475
   \              74696C735C77
   \              656174686572
   \              5C30382E706E
   \              6700        

   \                                 In segment DATA_C, align 4, align-sorted
   \                     `?<Constant "4:\\\\Zbin\\\\netutils\\\\weat...">_10`:
   \   00000000   343A5C5A6269       DC8 "4:\\Zbin\\netutils\\weather\\09.png"
   \              6E5C6E657475
   \              74696C735C77
   \              656174686572
   \              5C30392E706E
   \              6700        

   \                                 In segment DATA_C, align 4, align-sorted
   \                     `?<Constant "4:\\\\Zbin\\\\netutils\\\\weat...">_11`:
   \   00000000   343A5C5A6269       DC8 "4:\\Zbin\\netutils\\weather\\10.png"
   \              6E5C6E657475
   \              74696C735C77
   \              656174686572
   \              5C31302E706E
   \              6700        

   \                                 In segment DATA_C, align 4, align-sorted
   \                     `?<Constant {&"4:\\\\Zbin\\\\netutils\\\\weat...", &"_1`:
   \   00000000   ........           DC32 `?<Constant "4:\\\\Zbin\\\\netutils\\\\weat...">_1`
   \   00000004   ........           DC32 `?<Constant "4:\\\\Zbin\\\\netutils\\\\weat...">_2`
   \   00000008   ........           DC32 `?<Constant "4:\\\\Zbin\\\\netutils\\\\weat...">_3`
   \   0000000C   ........           DC32 `?<Constant "4:\\\\Zbin\\\\netutils\\\\weat...">_4`
   \   00000010   ........           DC32 `?<Constant "4:\\\\Zbin\\\\netutils\\\\weat...">_5`
   \   00000014   ........           DC32 `?<Constant "4:\\\\Zbin\\\\netutils\\\\weat...">_6`
   \   00000018   ........           DC32 `?<Constant "4:\\\\Zbin\\\\netutils\\\\weat...">_7`
   \   0000001C   ........           DC32 `?<Constant "4:\\\\Zbin\\\\netutils\\\\weat...">_8`
   \   00000020   ........           DC32 `?<Constant "4:\\\\Zbin\\\\netutils\\\\weat...">_9`
   \   00000024   ........           DC32 `?<Constant "4:\\\\Zbin\\\\netutils\\\\weat...">_10`
   \   00000028   ........           DC32 `?<Constant "4:\\\\Zbin\\\\netutils\\\\weat...">_11`

   \                                 In segment DATA_C, align 4, align-sorted
   \                     `?<Constant "\\356\\346\\350\\344\\340\\345\\362\\361\\3`:
   \   00000000   EEE6E8E4E0E5       DC8 "\356\346\350\344\340\345\362\361\377 \340\357\356\352\340\353\350\357\361\350\361"
   \              F2F1FF20E0EF
   \              EEEAE0EBE8EF
   \              F1E8F100    
   \   00000016   0000               DC8 0, 0
    818          

   Maximum stack usage in bytes:

     Function                  CSTACK
     --------                  ------
     City                          0
     Conf                          8
     DrawCity                     52
     DrawWait                     32
     DrawWeather                 196
     ElfKiller                     4
     OnKey                         8
     OnRedraw                     36
     Parsing                      52
     UpdateCSMname                 8
     Weath                         0
     WrongTID                     32
     atoi                          0
     contactlist_menu_ghook        0
     contactlist_menu_iconhndl    20
     contactlist_menu_onkey       12
     create_connect               36
     create_menu                  20
     end_socket                    8
     get_answer                    8
     main                         48
     maincsm_onclose               4
     maincsm_oncreate             12
     maincsm_onmessage            80
     method7                      12
     method8                       0
     method9                       0
     onClose                       0
     onCreate                      0
     onFocus                       4
     onUnfocus                     0
     send_req                      8
     url_decode                    0


   Segment part sizes:

     Function/Label                 Bytes
     --------------                 -----
     FONT                               4
     ews                                4
     p_t                                2
     S_ICONS                           44
     hdrtxt                            32
     menusoftkeys                      12
     menu_sk                           24
     menu_skt                           8
     City                              16
     Weath                             16
     Conf                              56
     menuitems                         84
     contactlist_menu                  44
     menuhdr                           20
     create_menu                       64
     contactlist_menu_iconhndl        172
     contactlist_menu_ghook             4
     contactlist_menu_onkey           136
     minus11                            4
     maincsm_name_body                280
     MAINCSM_ID                         4
     MAINGUI_ID                         4
     y                                  4
     x                                  4
     ok                                 4
     succ                               4
     mode                               4
     traff                              4
     icsmd                             24
     old_icsm_onMessage                 4
     old_icsm_onClose                   4
     sock                               4
     connect_state                      4
     buf                            16384
     logbuf                         16384
     pbuf                               4
     mytmr                             16
     ipc_my_name                        1
     ipc_xtask_name                     8
     gipc                              12
     dst                                4
     weath                            256
     town                              52
     url_decode                       180
     atoi                              68
     create_connect                   148
     req_buf                          256
     send_req                          84
     end_socket                        40
     get_answer                        88
     Parsing                          764
     DrawWeather                     1628
     DrawWait                         140
     WrongTID                         144
     DrawCity                         204
     OnRedraw                         196
     onCreate                          12
     onClose                           12
     onFocus                           20
     onUnfocus                         20
     OnKey                            332
     method7                           28
     method8                            8
     method9                            8
     gui_methods                       44
     Canvas                             8
     maincsm_oncreate                 120
     ElfKiller                         28
     maincsm_onclose                   48
     maincsm_onmessage                656
     MAINCSM                           44
     UpdateCSMname                     48
     main                              76
     ??DataTable1                       4
     ??DataTable7                       4
     ??DataTable9                       4
     ??DataTable11                      4
     ??DataTable13                      4
     ??DataTable16                      4
     ??DataTable18                      4
     ??DataTable23                      4
     ??DataTable27                      4
     ??DataTable28                      4
     ??DataTable29                      4
     ??DataTable30                      4
     ??DataTable32                      4
     ??DataTable34                      4
     ??DataTable37                      4
     ??DataTable38                      4
     ??DataTable39                      4
     ??DataTable40                      4
     ??DataTable41                      4
     ??DataTable42                      4
     ??DataTable43                      4
     ??DataTable44                      4
     ?<Initializer for FONT>            4
     ?<Initializer for menusoftkeys>
                                       12
     ?<Initializer for menu_sk>        24
     ?<Initializer for menu_skt>        8
     ?<Initializer for menuitems>      84
     ?<Initializer for contactlist_menu>
                                       44
     ?<Initializer for menuhdr>        20
     ?<Constant "\302\356\347\354\356\346\345\355 \
                                       16
     ?<Constant "\304\356\346\344\374">
                                        8
     ?<Constant "\302\356\347\354\356\346\345\355 \_1
                                       16
     ?<Constant "\313\350\342\345\355\374">
                                        8
     ?<Constant "\302\356\347\354\356\346\345\355 \_2
                                       16
     ?<Constant "\321\355\345\343">     8
     ?<Constant "\302\356\347\354\356\346\355\340 \
                                       16
     ?<Constant "\303\360\356\347\340">
                                        8
     ?<Constant "N/A">                  4
     ?<Constant "\301\345\347 \356\361\340\344\352\
                                       12
     ?<Constant "%.2d\260%t,%.2d\260%t">
                                       16
     ?<Constant "\330.">                3
     ?<Constant "\304.">                3
     ?<Constant "< %i/4 %i.%02i, %t >">
                                       24
     ?<Constant "%i-%i\260C %t:%i\260">
                                       16
     ?<Constant "\312\356\354\364\356\360\362">
                                        8
     ?<Constant "%i-%i %t">            12
     ?<Constant "\354\354.\360\362.\361\362">
                                       12
     ?<Constant "sname=">               8
     ?<Constant "%t ">                  4
     ?<Constant "%t  ">                 8
     ?<Constant "%t%t %i-%i %t">       16
     ?<Constant "\354/\361">            4
     ?<Constant "%t: %i-%i%%">         12
     ?<Constant "\302\353\340\346\355\356\361\362\3
                                       12
     ?<Constant "4:\\Zbin\\netutils\\weat...">
                                       36
     ?<Constant "%s">                   3
     ?<Constant "%t">                   3
     ?<Constant "\315\363\353\345\342\356\351 ID \3
                                       20
     ?<Constant "%t\n%t:%i\n %t:%i\260C\n %t...">
                                       28
     ?<Constant "ID \343\356\360\356\344\340">
                                       12
     ?<Constant "\304\356\353\343\356\362\340">
                                        8
     ?<Constant "\330\350\360\356\362\340">
                                        8
     ?<Constant "Connected\n">         12
     ?<Constant "Error, try again..\n">
                                       20
     ?<Constant "Reading\n">           12
     ?<Constant "Receiving\n">         12
     ?<Constant {&"4:\\Zbin\\netutils\\weat...", &"
                                       44
     ?<Constant "%i\260C">              8
     ?<Constant "Weather Forecast">    20
     ?<Constant "Options">              8
     ?<Constant "\307\340\352\360\373\362\374">
                                        8
     ?<Constant "-">                    2
     ?<Constant "\302\373\365\356\344">
                                        8
     ?<Constant "\316\341 \375\353\374\364\345...">
                                       12
     ?<Constant "\316\357\366\350\350">
                                        8
     ?<Constant "0:\\Zbin\\etc\\weath.bcfg">
                                       24
     ?<Constant "\303\356\360\356\344">
                                        8
     ?<Constant "\317\356\343\356\344\340">
                                        8
     ?<Constant "\315\340\361\362\360\356\351\352\3
                                       12
     ?<Constant "Under construction!">
                                       20
     ?<Constant "GET /xml/%i_1.xml HTT...">
                                       60
     ?<Constant "Parsing\n">           12
     ?<Constant "latitude=">           12
     ?<Constant "longitude=">          12
     ?<Constant "index=">               8
     ?<Constant " <FORE">               8
     ?<Constant "day=">                 8
     ?<Constant "month=">               8
     ?<Constant "hour=">                8
     ?<Constant "tod=">                 8
     ?<Constant "predict=">            12
     ?<Constant "weekday=">            12
     ?<Constant "cloudiness=">         12
     ?<Constant "precipitation=">      16
     ?<Constant "rpower=">              8
     ?<Constant "spower=">              8
     ?<Constant "PRESSURE max=">       16
     ?<Constant "TEMPERATURE max=">    20
     ?<Constant "WIND min=">           12
     ?<Constant "max=">                 8
     ?<Constant "direction=">          12
     ?<Constant "RELWET max=">         12
     ?<Constant "HEAT min=">           12
     ?<Constant "\302\345\362\345\360:">
                                        8
     ?<Constant "4:\\Zbin\\img\\weather\\b...">
                                       28
     ?<Constant "\355\356\367\374\376">
                                        8
     ?<Constant "\363\362\360\356\354">
                                        8
     ?<Constant "\344\355\345\354">     8
     ?<Constant "\342\345\367\345\360\356\354">
                                        8
     ?<Constant {&"\355\356\367\374\376", &"\363\36
                                       16
     ?<Constant "\337\361\355\356">     8
     ?<Constant "\314\340\353\356\356\341\353\340\3
                                       12
     ?<Constant "0\341\353\340\367\355\356">
                                        8
     ?<Constant "\317\340\361\354\363\360\355\356">
                                       12
     ?<Constant {&"\337\361\355\356", &"\314\340\35
                                       16
     ?<Constant "\361\345\342.">        8
     ?<Constant "\361\345\342.-\342\356\361\362.">
                                       12
     ?<Constant "\342\356\361\362.">
                                        8
     ?<Constant "\376\343\356-\342\356\361\362.">
                                       12
     ?<Constant "\376\346\355\373\351">
                                        8
     ?<Constant "\376\343\356-\347\340\357.">
                                       12
     ?<Constant "\347\340\357.">        8
     ?<Constant "\361\345\342.-\347\340\357.">
                                       12
     ?<Constant {&"\361\345\342.", &"\361\345\342.-
                                       32
     ?<Constant "4:\\Zbin\\netutils\\weat...">_1
                                       32
     ?<Constant "4:\\Zbin\\netutils\\weat...">_2
                                       32
     ?<Constant "4:\\Zbin\\netutils\\weat...">_3
                                       32
     ?<Constant "4:\\Zbin\\netutils\\weat...">_4
                                       32
     ?<Constant "4:\\Zbin\\netutils\\weat...">_5
                                       32
     ?<Constant "4:\\Zbin\\netutils\\weat...">_6
                                       32
     ?<Constant "4:\\Zbin\\netutils\\weat...">_7
                                       32
     ?<Constant "4:\\Zbin\\netutils\\weat...">_8
                                       32
     ?<Constant "4:\\Zbin\\netutils\\weat...">_9
                                       32
     ?<Constant "4:\\Zbin\\netutils\\weat...">_10
                                       32
     ?<Constant "4:\\Zbin\\netutils\\weat...">_11
                                       32
     ?<Constant {&"4:\\Zbin\\netutils\\weat...", &"_1
                                       44
     ?<Constant "\356\346\350\344\340\345\362\361\3
                                       24
      Others                          180

 
  5 808 bytes in segment CODE
  1 765 bytes in segment DATA_C
    196 bytes in segment DATA_I
    196 bytes in segment DATA_ID
 33 756 bytes in segment DATA_Z
     24 bytes in segment INITTAB
 
  5 652 bytes of CODE  memory (+ 180 bytes shared)
  1 961 bytes of CONST memory
 33 952 bytes of DATA  memory

Errors: none
Warnings: 1
