//////////////////////////////////////////////////////////////////////////////
//                                                                           /
// IAR ARM ANSI C/C++ Compiler V4.42A/W32 EVALUATION   12/Feb/2010  22:10:45 /
// Copyright 1999-2005 IAR Systems. All rights reserved.                     /
//                                                                           /
//    Cpu mode        =  interwork                                           /
//    Endian          =  little                                              /
//    Stack alignment =  4                                                   /
//    Source file     =  C:\arm\miosd elka\main.c                            /
//    Command line    =  "C:\arm\miosd elka\main.c" -D NEWSGOLD -D ELKA -D   /
//                       EVILFOX -lC "C:\arm\miosd elka\Release_ELKA\List\"  /
//                       -lA "C:\arm\miosd elka\Release_ELKA\List\" -o       /
//                       "C:\arm\miosd elka\Release_ELKA\Obj\" -s9           /
//                       --no_unroll --cpu_mode arm --endian little --cpu    /
//                       ARM926EJ-S --stack_align 4 --interwork -e --fpu     /
//                       None --dlib_config "C:\arm2\Embedded Workbench 4.0  /
//                       Evaluation\ARM\LIB\dl5tpainl8n.h" -I                /
//                       "C:\arm2\Embedded Workbench 4.0                     /
//                       Evaluation\ARM\INC\" --inline_threshold=2           /
//    List file       =  C:\arm\miosd elka\Release_ELKA\List\main.s79        /
//                                                                           /
//                                                                           /
//////////////////////////////////////////////////////////////////////////////

        NAME main

        RTMODEL "StackAlign4", "USED"
        RTMODEL "__cpu_mode", "__pcs__interwork"
        RTMODEL "__data_model", "absolute"
        RTMODEL "__endian", "little"
        RTMODEL "__rt_version", "6"

        RSEG CSTACK:DATA:NOROOT(2)

        PUBWEAK `?*?DATA_ID`
        MULTWEAK ??Count_GPRS??rT
??DataTable1 EQU 0
??DataTable10 EQU 0
??DataTable11 EQU 0
??DataTable13 EQU 0
??DataTable14 EQU 0
??DataTable15 EQU 0
??DataTable17 EQU 0
??DataTable18 EQU 0
??DataTable19 EQU 0
??DataTable2 EQU 0
??DataTable20 EQU 0
??DataTable21 EQU 0
??DataTable22 EQU 0
??DataTable24 EQU 0
??DataTable25 EQU 0
??DataTable26 EQU 0
??DataTable27 EQU 0
??DataTable28 EQU 0
??DataTable29 EQU 0
??DataTable3 EQU 0
??DataTable32 EQU 0
??DataTable34 EQU 0
??DataTable36 EQU 0
??DataTable37 EQU 0
??DataTable4 EQU 0
??DataTable5 EQU 0
??DataTable6 EQU 0
??DataTable9 EQU 0
        MULTWEAK ??DoScreen??rT
        MULTWEAK ??DoShowIt??rT
        MULTWEAK ??DrawAppLog??rT
        MULTWEAK ??DrawBatteryLog??rT
        MULTWEAK ??DrawGPRSLog??rT
        MULTWEAK ??DrawSystemLog??rT
        MULTWEAK ??DrawWeatherLog??rT
        MULTWEAK ??DrwImg2??rT
        MULTWEAK ??ElfKiller??rT
        MULTWEAK ??EngadeClock??rA
        MULTWEAK ??Execute??rT
        MULTWEAK ??GetMissedEventCount??rA
        MULTWEAK ??MyIDLECSM_onClose??rT
        MULTWEAK ??MyIDLECSM_onMessage??rT
        MULTWEAK ??OnKey??rT
        MULTWEAK ??OnRedraw??rT
        MULTWEAK ??Parsing??rT
        MULTWEAK ??UpdateCSMname??rT
        MULTWEAK ??ascii2ws??rA
        MULTWEAK ??charger_c??rT
        MULTWEAK ??check_battery??rT
        MULTWEAK ??check_gprs??rT
        MULTWEAK ??create_connect??rT
        MULTWEAK ??end_socket??rT
        MULTWEAK ??get_answer??rT
        MULTWEAK ??get_month??rT
        MULTWEAK ??kill_data??rA
        MULTWEAK ??main??rT
        MULTWEAK ??maincsm_onclose??rT
        MULTWEAK ??maincsm_oncreate??rT
        MULTWEAK ??maincsm_onmessage??rT
        MULTWEAK ??method8??rT
        MULTWEAK ??method9??rT
        MULTWEAK ??my_keyhook??rT
        MULTWEAK ??onClose??rT
        MULTWEAK ??onCreate??rT
        MULTWEAK ??onFocus??rT
        MULTWEAK ??onUnfocus??rT
        MULTWEAK ??reboot_ref??rT
        MULTWEAK ??runtime_count??rT
        MULTWEAK ??send_req??rT
        MULTWEAK ??seqkill??rA
        MULTWEAK ??start_again??rT
        MULTWEAK ??write_log??rT
        MULTWEAK ??write_total??rA
        PUBWEAK ?init?tab?DATA_I
        PUBWEAK ?init?tab?DATA_Z
        PUBLIC CALL_BUTTON
        PUBLIC Canvas
        PUBLIC Count_GPRS
        FUNCTION Count_GPRS,0601H
        LOCFRAME CSTACK, 12, STACK
        PUBLIC DoScreen
        FUNCTION DoScreen,0201H
        LOCFRAME CSTACK, 20, STACK
        PUBLIC DoShowIt
        FUNCTION DoShowIt,0601H
        LOCFRAME CSTACK, 36, STACK
        PUBLIC DrawAppLog
        FUNCTION DrawAppLog,0201H
        LOCFRAME CSTACK, 44, STACK
        PUBLIC DrawBatteryLog
        FUNCTION DrawBatteryLog,0201H
        LOCFRAME CSTACK, 68, STACK
        PUBLIC DrawGPRSLog
        FUNCTION DrawGPRSLog,0201H
        LOCFRAME CSTACK, 76, STACK
        PUBLIC DrawSystemLog
        FUNCTION DrawSystemLog,0201H
        LOCFRAME CSTACK, 100, STACK
        PUBLIC DrawWeatherLog
        FUNCTION DrawWeatherLog,0201H
        LOCFRAME CSTACK, 68, STACK
        PUBLIC DrwImg2
        FUNCTION DrwImg2,0203H
        LOCFRAME CSTACK, 64, STACK
        PUBLIC ElfKiller
        FUNCTION ElfKiller,0203H
        LOCFRAME CSTACK, 4, STACK
        PUBLIC Execute
        FUNCTION Execute,0201H
        LOCFRAME CSTACK, 52, STACK
        PUBLIC MAINCSM
        PUBLIC MAINCSM_ID
        PUBLIC MyIDLECSM_onClose
        FUNCTION MyIDLECSM_onClose,0603H
        LOCFRAME CSTACK, 8, STACK
        PUBLIC MyIDLECSM_onMessage
        FUNCTION MyIDLECSM_onMessage,0603H
        LOCFRAME CSTACK, 112, STACK
        PUBLIC OnKey
        FUNCTION OnKey,0603H
        LOCFRAME CSTACK, 20, STACK
        PUBLIC OnRedraw
        FUNCTION OnRedraw,0603H
        LOCFRAME CSTACK, 48, STACK
        PUBLIC Parsing
        FUNCTION Parsing,0201H
        LOCFRAME CSTACK, 132, STACK
        PUBLIC UpdateCSMname
        FUNCTION UpdateCSMname,0203H
        LOCFRAME CSTACK, 4, STACK
        PUBLIC app_pos
        PUBLIC battery
        PUBLIC buf
        PUBLIC charge_m
        PUBLIC charge_s
        PUBLIC charger
        PUBLIC charger_c
        FUNCTION charger_c,0601H
        LOCFRAME CSTACK, 4, STACK
        PUBLIC check_battery
        FUNCTION check_battery,0201H
        LOCFRAME CSTACK, 72, STACK
        PUBLIC check_gprs
        FUNCTION check_gprs,0201H
        LOCFRAME CSTACK, 76, STACK
        PUBLIC chinfo
        PUBLIC con
        PUBLIC connect_state
        PUBLIC create_connect
        FUNCTION create_connect,0603H
        LOCFRAME CSTACK, 40, STACK
        PUBLIC do_st
        PUBLIC end_socket
        FUNCTION end_socket,0603H
        LOCFRAME CSTACK, 8, STACK
        PUBLIC engade_weather
        PUBLIC ffq
        PUBLIC first_con
        PUBLIC g_hour
        PUBLIC g_min
        PUBLIC g_sec
        PUBLIC get_answer
        FUNCTION get_answer,0603H
        LOCFRAME CSTACK, 8, STACK
        PUBLIC get_month
        FUNCTION get_month,0201H
        LOCFRAME CSTACK, 20, STACK
        PUBLIC ggg
        PUBLIC gipi
        PUBLIC gpinfo
        PUBLIC gui_methods
        PUBLIC hmm
        PUBLIC icsmd
        PUBLIC isfile
        PUBLIC ker_state
        PUBLIC key_mode
        PUBLIC lock_keys
        PUBLIC main
        FUNCTION main,0a03H
        LOCFRAME CSTACK, 12, STACK
        PUBLIC main_clock
        PUBLIC maincsm_name_body
        PUBLIC maincsm_onclose
        FUNCTION maincsm_onclose,0603H
        PUBLIC maincsm_oncreate
        FUNCTION maincsm_oncreate,0603H
        LOCFRAME CSTACK, 20, STACK
        PUBLIC maincsm_onmessage
        FUNCTION maincsm_onmessage,0603H
        PUBLIC method8
        FUNCTION method8,0603H
        PUBLIC method9
        FUNCTION method9,0603H
        PUBLIC minus11
        PUBLIC mode
        PUBLIC mode_enter
        PUBLIC month
        PUBLIC monthc
        PUBLIC my_keyhook
        FUNCTION my_keyhook,0603H
        LOCFRAME CSTACK, 16, STACK
        PUBLIC mytmr
        PUBLIC mytmr2
        PUBLIC mytmr3
        PUBLIC old_icsm_onClose
        PUBLIC old_icsm_onMessage
        PUBLIC onClose
        FUNCTION onClose,0603H
        LOCFRAME CSTACK, 12, STACK
        PUBLIC onCreate
        FUNCTION onCreate,0603H
        PUBLIC onFocus
        FUNCTION onFocus,0603H
        PUBLIC onUnfocus
        FUNCTION onUnfocus,0603H
        LOCFRAME CSTACK, 8, STACK
        PUBLIC pbuf
        PUBLIC phase
        PUBLIC pos
        PUBLIC pos_link2_x
        PUBLIC pos_link2_y
        PUBLIC pos_link_x
        PUBLIC pos_link_y
        PUBLIC pos_main_x
        PUBLIC pos_main_y
        PUBLIC pos_msg_x
        PUBLIC pos_msg_y
        PUBLIC r_h
        PUBLIC r_m
        PUBLIC r_s
        PUBLIC reboot_ref
        FUNCTION reboot_ref,0601H
        LOCFRAME CSTACK, 4, STACK
        PUBLIC rem_mis
        PUBLIC rewriter
        PUBLIC rs_tmr
        PUBLIC runtime_count
        FUNCTION runtime_count,0601H
        LOCFRAME CSTACK, 4, STACK
        PUBLIC s_icon1
        PUBLIC screen
        PUBLIC send_req
        FUNCTION send_req,0603H
        LOCFRAME CSTACK, 12, STACK
        PUBLIC sock
        PUBLIC start_again
        FUNCTION start_again,0603H
        LOCFRAME CSTACK, 4, STACK
        PUBLIC start_g
        PUBLIC start_g2
        PUBLIC start_traffic
        PUBLIC switch_gprs_info
        PUBLIC temp
        PUBLIC temp2
        PUBLIC traf
        PUBLIC trafiks
        PUBLIC vejsh
        PUBLIC vejsh2
        PUBLIC weather_time
        PUBLIC write_log
        FUNCTION write_log,0603H
        LOCFRAME CSTACK, 64, STACK
        
        CFI Names cfiNames0
        CFI StackFrame CFA R13 HUGEDATA
        CFI Resource R0:32, R1:32, R2:32, R3:32, R4:32, R5:32, R6:32, R7:32
        CFI Resource R8:32, R9:32, R10:32, R11:32, R12:32, CPSR:32, R13:32
        CFI Resource R14:32, SPSR:32
        CFI VirtualResource ?RET:32
        CFI EndNames cfiNames0
        
        CFI Common cfiCommon0 Using cfiNames0
        CFI CodeAlign 2
        CFI DataAlign 4
        CFI ReturnAddress ?RET CODE
        CFI CFA R13+0
        CFI R0 Undefined
        CFI R1 Undefined
        CFI R2 Undefined
        CFI R3 Undefined
        CFI R4 SameValue
        CFI R5 SameValue
        CFI R6 SameValue
        CFI R7 SameValue
        CFI R8 SameValue
        CFI R9 SameValue
        CFI R10 SameValue
        CFI R11 SameValue
        CFI R12 Undefined
        CFI CPSR SameValue
        CFI R14 Undefined
        CFI SPSR SameValue
        CFI ?RET R14
        CFI EndCommon cfiCommon0
        
        
        CFI Common cfiCommon1 Using cfiNames0
        CFI CodeAlign 4
        CFI DataAlign 4
        CFI ReturnAddress ?RET CODE
        CFI CFA R13+0
        CFI R0 Undefined
        CFI R1 Undefined
        CFI R2 Undefined
        CFI R3 Undefined
        CFI R4 SameValue
        CFI R5 SameValue
        CFI R6 SameValue
        CFI R7 SameValue
        CFI R8 SameValue
        CFI R9 SameValue
        CFI R10 SameValue
        CFI R11 SameValue
        CFI R12 Undefined
        CFI CPSR SameValue
        CFI R14 Undefined
        CFI SPSR SameValue
        CFI ?RET R14
        CFI EndCommon cfiCommon1
        
EngadeClock         SYMBOL "EngadeClock"
GetMissedEventCount SYMBOL "GetMissedEventCount"
ascii2ws            SYMBOL "ascii2ws"
kill_data           SYMBOL "kill_data"
seqkill             SYMBOL "seqkill"
write_total         SYMBOL "write_total"
Count_GPRS          SYMBOL "Count_GPRS"
??Count_GPRS??rT    SYMBOL "??rT", Count_GPRS
DoScreen            SYMBOL "DoScreen"
??DoScreen??rT      SYMBOL "??rT", DoScreen
DoShowIt            SYMBOL "DoShowIt"
??DoShowIt??rT      SYMBOL "??rT", DoShowIt
DrawAppLog          SYMBOL "DrawAppLog"
??DrawAppLog??rT    SYMBOL "??rT", DrawAppLog
DrawBatteryLog      SYMBOL "DrawBatteryLog"
??DrawBatteryLog??rT SYMBOL "??rT", DrawBatteryLog
DrawGPRSLog         SYMBOL "DrawGPRSLog"
??DrawGPRSLog??rT   SYMBOL "??rT", DrawGPRSLog
DrawSystemLog       SYMBOL "DrawSystemLog"
??DrawSystemLog??rT SYMBOL "??rT", DrawSystemLog
DrawWeatherLog      SYMBOL "DrawWeatherLog"
??DrawWeatherLog??rT SYMBOL "??rT", DrawWeatherLog
DrwImg2             SYMBOL "DrwImg2"
??DrwImg2??rT       SYMBOL "??rT", DrwImg2
ElfKiller           SYMBOL "ElfKiller"
??ElfKiller??rT     SYMBOL "??rT", ElfKiller
??EngadeClock??rA   SYMBOL "??rA", EngadeClock
Execute             SYMBOL "Execute"
??Execute??rT       SYMBOL "??rT", Execute
??GetMissedEventCount??rA SYMBOL "??rA", GetMissedEventCount
MyIDLECSM_onClose   SYMBOL "MyIDLECSM_onClose"
??MyIDLECSM_onClose??rT SYMBOL "??rT", MyIDLECSM_onClose
MyIDLECSM_onMessage SYMBOL "MyIDLECSM_onMessage"
??MyIDLECSM_onMessage??rT SYMBOL "??rT", MyIDLECSM_onMessage
OnKey               SYMBOL "OnKey"
??OnKey??rT         SYMBOL "??rT", OnKey
OnRedraw            SYMBOL "OnRedraw"
??OnRedraw??rT      SYMBOL "??rT", OnRedraw
Parsing             SYMBOL "Parsing"
??Parsing??rT       SYMBOL "??rT", Parsing
UpdateCSMname       SYMBOL "UpdateCSMname"
??UpdateCSMname??rT SYMBOL "??rT", UpdateCSMname
??ascii2ws??rA      SYMBOL "??rA", ascii2ws
charger_c           SYMBOL "charger_c"
??charger_c??rT     SYMBOL "??rT", charger_c
check_battery       SYMBOL "check_battery"
??check_battery??rT SYMBOL "??rT", check_battery
check_gprs          SYMBOL "check_gprs"
??check_gprs??rT    SYMBOL "??rT", check_gprs
create_connect      SYMBOL "create_connect"
??create_connect??rT SYMBOL "??rT", create_connect
end_socket          SYMBOL "end_socket"
??end_socket??rT    SYMBOL "??rT", end_socket
get_answer          SYMBOL "get_answer"
??get_answer??rT    SYMBOL "??rT", get_answer
get_month           SYMBOL "get_month"
??get_month??rT     SYMBOL "??rT", get_month
??kill_data??rA     SYMBOL "??rA", kill_data
main                SYMBOL "main"
??main??rT          SYMBOL "??rT", main
maincsm_onclose     SYMBOL "maincsm_onclose"
??maincsm_onclose??rT SYMBOL "??rT", maincsm_onclose
maincsm_oncreate    SYMBOL "maincsm_oncreate"
??maincsm_oncreate??rT SYMBOL "??rT", maincsm_oncreate
maincsm_onmessage   SYMBOL "maincsm_onmessage"
??maincsm_onmessage??rT SYMBOL "??rT", maincsm_onmessage
method8             SYMBOL "method8"
??method8??rT       SYMBOL "??rT", method8
method9             SYMBOL "method9"
??method9??rT       SYMBOL "??rT", method9
my_keyhook          SYMBOL "my_keyhook"
??my_keyhook??rT    SYMBOL "??rT", my_keyhook
onClose             SYMBOL "onClose"
??onClose??rT       SYMBOL "??rT", onClose
onCreate            SYMBOL "onCreate"
??onCreate??rT      SYMBOL "??rT", onCreate
onFocus             SYMBOL "onFocus"
??onFocus??rT       SYMBOL "??rT", onFocus
onUnfocus           SYMBOL "onUnfocus"
??onUnfocus??rT     SYMBOL "??rT", onUnfocus
reboot_ref          SYMBOL "reboot_ref"
??reboot_ref??rT    SYMBOL "??rT", reboot_ref
runtime_count       SYMBOL "runtime_count"
??runtime_count??rT SYMBOL "??rT", runtime_count
send_req            SYMBOL "send_req"
??send_req??rT      SYMBOL "??rT", send_req
??seqkill??rA       SYMBOL "??rA", seqkill
start_again         SYMBOL "start_again"
??start_again??rT   SYMBOL "??rT", start_again
write_log           SYMBOL "write_log"
??write_log??rT     SYMBOL "??rT", write_log
??write_total??rA   SYMBOL "??rA", write_total

        EXTERN ELF_BEGIN
        EXTERN EngadeClock
        FUNCTION EngadeClock,0200H
        EXTERN GetMissedEventCount
        FUNCTION GetMissedEventCount,0200H
        EXTERN ascii2ws
        FUNCTION ascii2ws,0202H
        EXTERN kill_data
        FUNCTION kill_data,0602H
        EXTERN missedt
        EXTERN result3
        EXTERN seqkill
        FUNCTION seqkill,0202H
        EXTERN start_timerize
        FUNCTION start_timerize,0602H
        EXTERN successed_config_filename
        EXTERN write_total
        FUNCTION write_total,0200H

// C:\arm\miosd elka\main.c
//    1 #include "..\inc\swilib.h"
//    2 //#include "..\inc\cfg_items.h"
//    3 #ifdef EVILFOX
//    4 #else
//    5 #include "conf_loader.h"
//    6 #endif
//    7 //#include "IdleLinks.h"
//    8 #include "gprs_write.h"
//    9 #include "string_works.h"
//   10 #include "missed_events.h"
//   11 #include "language.h"
//   12 #ifdef EVILFOX
//   13 #include "clock.h"
//   14 int main_clock;
//   15 #endif
//   16 
//   17 #ifdef EVILFOX
//   18 #define BUFSIZE 5000
//   19 #else
//   20 #define BUFSIZE 10000
//   21 #endif
//   22 
//   23 #ifdef NATICQ
//   24 #ifdef EVILFOX
//   25 #else
//   26 extern const int use_plugin;
//   27 #endif
//   28 int naticq_plugin;
//   29 char naticq_time[16];
//   30 char naticq_ping[16]="none";
//   31 #endif
//   32 
//   33 extern unsigned long  strtoul (const char *nptr,char **endptr,int base);
//   34 
//   35 CSM_DESC icsmd;
//   36 int ker_state;
//   37 
//   38 int r_s=20;
//   39 int r_m;
//   40 int r_h;
//   41 //int r_d;
//   42 
//   43 
//   44 int (*old_icsm_onMessage)(CSM_RAM*,GBS_MSG*);
//   45 void (*old_icsm_onClose)(CSM_RAM*);
//   46 

        RSEG DATA_Z:DATA:SORT:NOROOT(2)
//   47 unsigned short maincsm_name_body[140];
maincsm_name_body:
        DS8 280
//   48 const int minus11=-11;
//   49 int MAINCSM_ID;
//   50 int first_con;
//   51 int key_mode;
//   52 
//   53 typedef struct
//   54 {
//   55   CSM_RAM csm;
//   56   int gui_id;
//   57 }MAIN_CSM;
//   58 
//   59 typedef struct
//   60 {
//   61   GUI gui;
//   62   WSHDR *ws1;
//   63   WSHDR *ws2;
//   64   int i1;
//   65 }MAIN_GUI;
//   66 
//   67 int pos;
//   68 int phase;
//   69 int pos_main_x;
//   70 int pos_main_y;
//   71 int lock_keys;
//   72 GBSTMR mytmr;
//   73 int pos_link_x;
//   74 int pos_link_y;
//   75 int pos_msg_x;
//   76 int pos_msg_y;
//   77 char chinfo[32];

        RSEG DATA_Z:DATA:SORT:NOROOT(2)
//   78 char start_g[32];
start_g:
        DS8 32

        RSEG CODE:CODE:NOROOT(2)
        CFI Block cfiBlock0 Using cfiCommon0
        CFI NoFunction
        THUMB
??DrwImg2??rT:
        BX       PC
        Nop      
        CFI EndBlock cfiBlock0
        REQUIRE DrwImg2
//   79 char start_g2[32];
//   80 
//   81 //=================weather
//   82 char temp[32];
//   83 #ifdef EVILFOX
//   84 char vejsh[32];
//   85 #endif
//   86 char temp2[32];
//   87 char vejsh2[32];
//   88 char weather_time[32];
//   89 #ifdef EVILFOX
//   90 char s_icon1[32];
//   91 #else
//   92 extern const char city_name[64];
//   93 extern const unsigned int TID;
//   94 char pressure[64];
//   95 char pressure2[64];
//   96 char wind[64];
//   97 #endif
//   98 int engade_weather;
//   99 //================weather
//  100 
//  101 IMGHDR screen={0,0,8,""};
//  102 

        RSEG CODE:CODE:NOROOT(2)
        CFI Block cfiBlock1 Using cfiCommon1
        CFI Function DrwImg2
        ARM
//  103 void DrwImg2(IMGHDR *img, int x, int y, char *pen, char *brush)
//  104 {
DrwImg2:
        PUSH     {R4-R6,LR}
        CFI ?RET Frame(CFA, -4)
        CFI R6 Frame(CFA, -8)
        CFI R5 Frame(CFA, -12)
        CFI R4 Frame(CFA, -16)
        CFI CFA R13+16
        SUB      SP,SP,#+44
        CFI CFA R13+60
        LDR      R6,[SP, #+60]
        MOV      R4,R0
//  105   RECT rc;
//  106   DRWOBJ drwobj;
//  107   StoreXYWHtoRECT(&rc,x,y,img->w,img->h);
        LDRH     R0,[R4, #+2]
        MOV      R5,R3
        PUSH     {R0}
        CFI CFA R13+64
        LDRH     R3,[R4, #+0]
        ADD      R0,SP,#+4
        SWI      +307
//  108   SetPropTo_Obj5(&drwobj,&rc,0,img);
        MOV      R3,R4
        MOV      R2,#+0
        ADD      R1,SP,#+4
        ADD      R0,SP,#+12
        SWI      +337
//  109   SetColor(&drwobj,pen,brush);
        MOV      R2,R6
        MOV      R1,R5
        ADD      R0,SP,#+12
        SWI      +331
//  110   DrawObject(&drwobj);
        ADD      R0,SP,#+12
        SWI      +298
//  111 }
        ADD      SP,SP,#+48
        CFI CFA R13+16
        POP      {R4-R6,PC}       ;; return
        CFI EndBlock cfiBlock1

        RSEG CODE:CODE:NOROOT(2)
        CFI Block cfiBlock2 Using cfiCommon0
        CFI NoFunction
        THUMB
??DoScreen??rT:
        BX       PC
        Nop      
        CFI EndBlock cfiBlock2
        REQUIRE DoScreen
//  112 

        RSEG CODE:CODE:NOROOT(2)
        CFI Block cfiBlock3 Using cfiCommon1
        CFI Function DoScreen
        ARM
//  113 void DoScreen()
//  114 {
DoScreen:
        PUSH     {R4-R7,LR}
        CFI ?RET Frame(CFA, -4)
        CFI R7 Frame(CFA, -8)
        CFI R6 Frame(CFA, -12)
        CFI R5 Frame(CFA, -16)
        CFI R4 Frame(CFA, -20)
        CFI CFA R13+20
//  115     int ScrH=ScreenH();
//  116     int ScrW=ScreenW();
//  117     char *ms=RamScreenBuffer();
//  118     screen.w=ScrW;
        LDR      R7,??DataTable0  ;; screen
        SWI      +33161
        MOV      R4,R0
        SWI      +33160
        MOV      R5,R0
        SWI      +32992
        MOV      R6,R0
//  119     screen.h=ScrH;
//  120     screen.bitmap=malloc(ScrW*ScrH*2);
        MUL      R0,R4,R5
        STRH     R5,[R7, #+0]
        STRH     R4,[R7, #+2]
        LSL      R4,R0,#+1
        MOV      R0,R4
        SWI      +20
        STR      R0,[R7, #+8]
//  121     memcpy(screen.bitmap, ms, ScrW*ScrH*2);
        MOV      R2,R4
        MOV      R1,R6
        SWI      +286
//  122 }
        POP      {R4-R7,PC}       ;; return
        CFI EndBlock cfiBlock3

        RSEG CODE:CODE:NOROOT(2)
        DATA
??DataTable0:
        DC32     screen

        RSEG CODE:CODE:NOROOT(2)
        CFI Block cfiBlock4 Using cfiCommon0
        CFI NoFunction
        THUMB
??DoShowIt??rT:
        BX       PC
        Nop      
        CFI EndBlock cfiBlock4
        REQUIRE DoShowIt
//  123 
//  124 int app_pos=1;
//  125 int pos_link2_x;
//  126 int pos_link2_y;
//  127 

        RSEG CODE:CODE:NOROOT(2)
        CFI Block cfiBlock5 Using cfiCommon1
        CFI Function DoShowIt
        ARM
//  128 void DoShowIt()
//  129 {
DoShowIt:
        PUSH     {R4-R11,LR}
        CFI ?RET Frame(CFA, -4)
        CFI R11 Frame(CFA, -8)
        CFI R10 Frame(CFA, -12)
        CFI R9 Frame(CFA, -16)
        CFI R8 Frame(CFA, -20)
        CFI R7 Frame(CFA, -24)
        CFI R6 Frame(CFA, -28)
        CFI R5 Frame(CFA, -32)
        CFI R4 Frame(CFA, -36)
        CFI CFA R13+36
//  130   switch(phase)
        LDR      R4,??DataTable7  ;; screen
        LDR      R0,[R4, #+112]
        LDR      R10,[R4, #+96]
        LDR      R2,[R4, #+92]
        LDR      LR,[R4, #+100]
        LDR      R3,[R4, #+88]
        LDR      R9,[R4, #+124]
        LDR      R12,[R4, #+140]
        LDR      R7,??DoShowIt_1  ;; DoShowIt
        SUB      R1,R0,#+1
        MOV      R5,#+2
        MOV      R6,#+392
        MOV      R8,#+7
        SUB      R10,R10,#+1
        CMP      R10,#+7
        POPHI    {R4-R11,PC}
        ADR      R11,??DoShowIt_0
        LDRB     R11,[R11, R10]
        ADD      PC,PC,R11, LSL #+2
        DATA
??DoShowIt_0:
        DC8      +1,+27,+87,+96
        DC8      +128,+146,+177,+191
        ARM
//  131   {
//  132 case 1:
//  133   {
//  134     if(key_mode==1)
??DoShowIt_2:
        CMP      R3,#+1
        BNE      ??DoShowIt_3
//  135     {
//  136     if(pos_main_x<0)
        CMP      LR,#+0
//  137     {
//  138       pos_main_x++;
        ADDMI    R0,LR,#+1
        STRMI    R0,[R4, #+100]
//  139     }
//  140     else
//  141       phase=2;
        STRPL    R5,[R4, #+96]
//  142     DirectRedrawGUI();
        SWI      +319
//  143     GBS_StartTimerProc(&mytmr, 5, DoShowIt);
        MOV      R2,R7
        MOV      R1,#+5
        ADD      R0,R6,R4
        SWI      +77
//  144     }
//  145     if(key_mode==2)
??DoShowIt_3:
        LDR      R0,[R4, #+88]
        CMP      R0,#+2
        POPNE    {R4-R11,PC}
//  146     {
//  147     if(pos_main_x>112)
        LDR      R0,[R4, #+100]
        CMP      R0,#+113
//  148     {
//  149       pos_main_x--;
        SUBGE    R0,R0,#+1
        STRGE    R0,[R4, #+100]
        BGE      ??DoShowIt_4
//  150     }
//  151     else
//  152       phase=2;
??DoShowIt_5:
        STR      R5,[R4, #+96]
//  153     DirectRedrawGUI();
??DoShowIt_4:
        SWI      +319
//  154     GBS_StartTimerProc(&mytmr, 5, DoShowIt);
        MOV      R2,R7
        MOV      R1,#+5
        ADD      R0,R6,R4
        SWI      +77
//  155     }
//  156   }
//  157   break;
//  158 case 2:
//  159   {
//  160     if(key_mode==1)
//  161     {
//  162     if(pos_link_x<20)
//  163     {
//  164       pos_link_x++;
//  165       DirectRedrawGUI();
//  166     }
//  167     else
//  168     {
//  169       DirectRedrawGUI();
//  170       if(pos==5)
//  171       {
//  172         pos_msg_y=pos_link_y-34; //elka
//  173         pos_link2_y=pos_msg_y+24;
//  174         pos_link2_x=pos_msg_x-12+(app_pos*20);
//  175         phase=7;
//  176       }
//  177       else
//  178       phase=3;
//  179     }
//  180     GBS_StartTimerProc(&mytmr, 5, DoShowIt);
//  181     }
//  182     if(key_mode==2)
//  183     {
//  184     if(pos_link_x>102)
//  185     {
//  186       pos_link_x--;
//  187       DirectRedrawGUI();
//  188     }
//  189     else
//  190     {
//  191       DirectRedrawGUI();
//  192       if(pos==5)
//  193       {
//  194         pos_msg_y=pos_link_y-34; //elka
//  195         pos_link2_y=pos_msg_y+24;
//  196         pos_link2_x=pos_msg_x-12+(app_pos*20);
//  197         phase=7;
//  198       }
//  199       else
//  200       phase=3;
//  201     }
//  202     GBS_StartTimerProc(&mytmr, 5, DoShowIt);
//  203     }
//  204   }
//  205   break;
//  206 case 3:
//  207   {
//  208     if(pos==5)
//  209     {
//  210       pos_msg_y=pos_link_y-34; //elak
//  211     }
//  212     else
//  213     pos_msg_y=pos_link_y-56; //elak
//  214     lock_keys=1;
//  215     DirectRedrawGUI();
//  216   }
//  217   break;
//  218 case 4:
//  219   {
//  220     if(key_mode==1)
//  221     {
//  222     if(pos_link_x>10)
//  223     {
//  224       pos_link_x--;
//  225     }
//  226     else
//  227     {
//  228       pos_link_y=pos_main_y-12+(pos*20);
//  229       phase=2;
//  230     }
//  231     DirectRedrawGUI();
//  232     GBS_StartTimerProc(&mytmr, 5, DoShowIt);
//  233     }
//  234     if(key_mode==2)
//  235     {
//  236     if(pos_link_x<112)
//  237     {
//  238       pos_link_x++;
//  239     }
//  240     else
//  241     {
//  242       pos_link_y=pos_main_y-12+(pos*20);
//  243       phase=2;
//  244     }
//  245     DirectRedrawGUI();
//  246     GBS_StartTimerProc(&mytmr, 5, DoShowIt);
//  247     }
//  248   }
//  249   break;
//  250 case 5:
//  251   {
//  252     if(key_mode==1)
//  253     {
//  254     if(pos_link_x>10)
//  255       pos_link_x--;
//  256     else
//  257       phase=6;
//  258     DirectRedrawGUI();
//  259     GBS_StartTimerProc(&mytmr, 5, DoShowIt);
//  260     }
//  261     if(key_mode==2)
//  262     {
//  263     if(pos_link_x<112)
//  264       pos_link_x++;
//  265     else
//  266       phase=6;
//  267     DirectRedrawGUI();
//  268     GBS_StartTimerProc(&mytmr, 5, DoShowIt);
//  269     }
//  270   }
//  271   break;
//  272 case 6:
//  273   {
//  274     if(key_mode==1)
//  275     {
//  276     if(pos_main_x>-20)
//  277     {
//  278       pos_main_x--;
//  279       DirectRedrawGUI();
//  280       GBS_StartTimerProc(&mytmr, 5, DoShowIt);
//  281     }
//  282     else
//  283       CloseCSM(MAINCSM_ID);
//  284     }
//  285     if(key_mode==2)
//  286     {
//  287     if(pos_main_x<132)
//  288     {
//  289       pos_main_x++;
//  290       DirectRedrawGUI();
//  291       GBS_StartTimerProc(&mytmr, 5, DoShowIt);
//  292     }
//  293     else
//  294       CloseCSM(MAINCSM_ID);
//  295     }
//  296   }
//  297   break;
//  298 case 7:
//  299   {
//  300     if(pos_link2_y>(pos_msg_y+14))
//  301     {
//  302       pos_link2_y--;
//  303     }
//  304     else
//  305       phase=3;
//  306     DirectRedrawGUI();
//  307     GBS_StartTimerProc(&mytmr, 3, DoShowIt);
//  308   }
//  309   break;
//  310 case 8:
//  311   {
//  312     {
//  313     if(pos_link2_y<pos_msg_y+24)
//  314     {
//  315       pos_link2_y++;
//  316     }
//  317     else
//  318     {
//  319       phase=7;
//  320       pos_link2_x=pos_msg_x-12+(app_pos*20);
//  321     }
//  322     DirectRedrawGUI();
//  323     GBS_StartTimerProc(&mytmr, 3, DoShowIt);
//  324   }
//  325   }
//  326   break;
//  327   }
//  328 }
??DoShowIt_6:
        POP      {R4-R11,PC}      ;; return
??DoShowIt_7:
        CMP      R3,#+1
        BNE      ??DoShowIt_8
        CMP      R0,#+20
        BGE      ??DoShowIt_9
        ADD      R0,R0,#+1
        STR      R0,[R4, #+112]
        SWI      +319
        B        ??DoShowIt_10
??DoShowIt_9:
        SWI      +319
        LDR      R0,[R4, #+92]
        CMP      R0,#+5
        BNE      ??DoShowIt_11
        LDR      R0,[R4, #+116]
        LDR      R1,[R4, #+132]
        SUB      R0,R0,#+34
        STR      R0,[R4, #+124]
        ADD      R0,R0,#+24
        STR      R0,[R4, #+140]
        LDR      R0,[R4, #+120]
        MOV      R2,#+20
        MLA      R0,R2,R1,R0
        STR      R8,[R4, #+96]
        SUB      R0,R0,#+12
        STR      R0,[R4, #+136]
        B        ??DoShowIt_10
??DoShowIt_11:
        MOV      R0,#+3
        STR      R0,[R4, #+96]
??DoShowIt_10:
        MOV      R2,R7
        MOV      R1,#+5
        ADD      R0,R6,R4
        SWI      +77
??DoShowIt_8:
        LDR      R0,[R4, #+88]
        CMP      R0,#+2
        POPNE    {R4-R11,PC}
        LDR      R0,[R4, #+112]
        CMP      R0,#+103
        BLT      ??DoShowIt_12
        SUB      R0,R0,#+1
        STR      R0,[R4, #+112]
        B        ??DoShowIt_13
??DoShowIt_12:
        SWI      +319
        LDR      R0,[R4, #+92]
        CMP      R0,#+5
        BNE      ??DoShowIt_14
        LDR      R0,[R4, #+116]
        LDR      R1,[R4, #+132]
        SUB      R0,R0,#+34
        STR      R0,[R4, #+124]
        ADD      R0,R0,#+24
        STR      R0,[R4, #+140]
        LDR      R0,[R4, #+120]
        MOV      R2,#+20
        MLA      R0,R2,R1,R0
        STR      R8,[R4, #+96]
        SUB      R0,R0,#+12
        STR      R0,[R4, #+136]
        B        ??DoShowIt_15
??DoShowIt_14:
        MOV      R0,#+3
        STR      R0,[R4, #+96]
        B        ??DoShowIt_15
??DoShowIt_16:
        LDR      R0,[R4, #+116]
        CMP      R2,#+5
        SUBEQ    R0,R0,#+34
        SUBNE    R0,R0,#+56
        STR      R0,[R4, #+124]
        MOV      R0,#+1
        STR      R0,[R4, #+108]
        SWI      +319
        POP      {R4-R11,PC}
??DoShowIt_17:
        CMP      R3,#+1
        BNE      ??DoShowIt_18
        CMP      R0,#+11
        STRGE    R1,[R4, #+112]
        BGE      ??DoShowIt_19
        LDR      R0,[R4, #+104]
        MOV      R1,#+20
        MLA      R0,R1,R2,R0
        STR      R5,[R4, #+96]
        SUB      R0,R0,#+12
        STR      R0,[R4, #+116]
??DoShowIt_19:
        SWI      +319
        MOV      R2,R7
        MOV      R1,#+5
        ADD      R0,R6,R4
        SWI      +77
??DoShowIt_18:
        LDR      R0,[R4, #+88]
        CMP      R0,#+2
        POPNE    {R4-R11,PC}
        LDR      R0,[R4, #+112]
        CMP      R0,#+112
        BGE      ??DoShowIt_20
??DoShowIt_21:
        ADD      R0,R0,#+1
        STR      R0,[R4, #+112]
        B        ??DoShowIt_4
??DoShowIt_20:
        LDR      R1,[R4, #+92]
        LDR      R0,[R4, #+104]
        MOV      R2,#+20
        MLA      R0,R2,R1,R0
        SUB      R0,R0,#+12
        STR      R0,[R4, #+116]
        B        ??DoShowIt_5
??DoShowIt_22:
        MOV      R5,#+6
        CMP      R3,#+1
        BNE      ??DoShowIt_23
        CMP      R0,#+11
        STRGE    R1,[R4, #+112]
        STRLT    R5,[R4, #+96]
        SWI      +319
        MOV      R2,R7
        MOV      R1,#+5
        ADD      R0,R6,R4
        SWI      +77
??DoShowIt_23:
        LDR      R0,[R4, #+88]
        CMP      R0,#+2
        POPNE    {R4-R11,PC}
        LDR      R0,[R4, #+112]
        CMP      R0,#+112
        BGE      ??DoShowIt_5
        B        ??DoShowIt_21
??DoShowIt_24:
        CMP      R3,#+1
        BNE      ??DoShowIt_25
        CMN      LR,#+19
        BLT      ??DoShowIt_26
        SUB      R0,LR,#+1
        STR      R0,[R4, #+100]
        SWI      +319
        MOV      R2,R7
        MOV      R1,#+5
        ADD      R0,R6,R4
        SWI      +77
        B        ??DoShowIt_25
??DoShowIt_26:
        LDR      R0,[R4, #+80]
        SWI      +508
??DoShowIt_25:
        LDR      R0,[R4, #+88]
        CMP      R0,#+2
        POPNE    {R4-R11,PC}
        LDR      R0,[R4, #+100]
        CMP      R0,#+132
        BGE      ??DoShowIt_27
        ADD      R0,R0,#+1
        STR      R0,[R4, #+100]
??DoShowIt_13:
        SWI      +319
??DoShowIt_15:
        MOV      R2,R7
        MOV      R1,#+5
        ADD      R0,R6,R4
        SWI      +77
        POP      {R4-R11,PC}
??DoShowIt_27:
        LDR      R0,[R4, #+80]
        SWI      +508
        POP      {R4-R11,PC}
??DoShowIt_28:
        ADD      R0,R9,#+14
        CMP      R0,R12
        BGE      ??DoShowIt_29
        SUB      R0,R12,#+1
??DoShowIt_30:
        STR      R0,[R4, #+140]
        B        ??DoShowIt_31
??DoShowIt_29:
        MOV      R0,#+3
        STR      R0,[R4, #+96]
??DoShowIt_31:
        SWI      +319
        MOV      R2,R7
        MOV      R1,#+3
        ADD      R0,R6,R4
        SWI      +77
        POP      {R4-R11,PC}
??DoShowIt_32:
        ADD      R0,R9,#+24
        CMP      R12,R0
        ADDLT    R0,R12,#+1
        BLT      ??DoShowIt_30
        LDR      R1,[R4, #+132]
        LDR      R0,[R4, #+120]
        MOV      R2,#+20
        MLA      R0,R2,R1,R0
        STR      R8,[R4, #+96]
        SUB      R0,R0,#+12
        STR      R0,[R4, #+136]
        B        ??DoShowIt_31
        DATA
??DoShowIt_1:
        DC32     DoShowIt
        CFI EndBlock cfiBlock5

        RSEG CODE:CODE:NOROOT(2)
        CFI Block cfiBlock6 Using cfiCommon0
        CFI NoFunction
        THUMB
??DrawWeatherLog??rT:
        BX       PC
        Nop      
        CFI EndBlock cfiBlock6
        REQUIRE DrawWeatherLog
//  329 
//  330 #ifdef EVILFOX

        RSEG CODE:CODE:NOROOT(2)
        CFI Block cfiBlock7 Using cfiCommon1
        CFI Function DrawWeatherLog
        ARM
//  331 void DrawWeatherLog()
//  332 {
DrawWeatherLog:
        PUSH     {R4-R9,LR}
        CFI ?RET Frame(CFA, -4)
        CFI R9 Frame(CFA, -8)
        CFI R8 Frame(CFA, -12)
        CFI R7 Frame(CFA, -16)
        CFI R6 Frame(CFA, -20)
        CFI R5 Frame(CFA, -24)
        CFI R4 Frame(CFA, -28)
        CFI CFA R13+28
//  333   WSHDR *ws=AllocWS(64);
//  334   wsprintf(ws, "Weather: Ventspils");
        LDR      R6,??DrawWeatherLog_0  ;; `?<Constant "No Data Yet">`
//  335   DrawString(ws,pos_msg_x+5,pos_msg_y+8,pos_msg_x+Get_WS_width(ws,9)+5,pos_msg_y+GetFontYSIZE(9)+8,9,0,GetPaletteAdrByColorIndex(2),GetPaletteAdrByColorIndex(23));
        LDR      R5,??DataTable7  ;; screen
        MOV      R0,#+64
        SWI      +293
        MOV      R4,R0
        ADD      R1,R6,#+12
        SWI      +292
        MOV      R0,#+23
        SWI      +302
        MOV      R7,R0
        MOV      R0,#+2
        SWI      +302
        MOV      R8,R0
        MOV      R0,#+9
        SWI      +453
        MOV      R9,R0
        MOV      R1,#+9
        MOV      R0,R4
        SWI      +520
        LDR      R1,[R5, #+120]
        LDR      R2,[R5, #+124]
        PUSH     {R7}
        CFI CFA R13+32
        PUSH     {R8}
        CFI CFA R13+36
        MOV      R3,#+0
        PUSH     {R3}
        CFI CFA R13+40
        ADD      R0,R0,R1
        ADD      R1,R1,#+5
        MOV      R3,#+9
        PUSH     {R3}
        CFI CFA R13+44
        ADD      R3,R9,R2
        ADD      R2,R2,#+8
        ADD      R3,R3,#+8
        PUSH     {R3}
        CFI CFA R13+48
        ADD      R3,R0,#+5
        MOV      R0,R4
        SWI      +332
//  336   if(engade_weather)
        LDR      R0,[R5, #+128]
        ADD      SP,SP,#+20
        CFI CFA R13+28
        CMP      R0,#+0
        BEQ      ??DrawWeatherLog_1
//  337   {
//  338     wsprintf(ws, "On: %s", weather_time);
        ADD      R2,R5,#+504
        ADD      R1,R6,#+32
        MOV      R0,R4
        SWI      +292
//  339     DrawString(ws,pos_msg_x+5,pos_msg_y+35,pos_msg_x+Get_WS_width(ws,9)+5,pos_msg_y+GetFontYSIZE(9)+35,9,0,GetPaletteAdrByColorIndex(4),GetPaletteAdrByColorIndex(23));
        MOV      R0,#+23
        SWI      +302
        MOV      R7,R0
        MOV      R0,#+4
        SWI      +302
        MOV      R8,R0
        MOV      R0,#+9
        SWI      +453
        MOV      R6,R0
        MOV      R1,#+9
        MOV      R0,R4
        SWI      +520
        LDR      R1,[R5, #+120]
        LDR      R2,[R5, #+124]
        PUSH     {R7}
        CFI CFA R13+32
        PUSH     {R8}
        CFI CFA R13+36
        MOV      R3,#+0
        PUSH     {R3}
        CFI CFA R13+40
        ADD      R0,R0,R1
        ADD      R1,R1,#+5
        MOV      R3,#+9
        PUSH     {R3}
        CFI CFA R13+44
        ADD      R3,R6,R2
        ADD      R2,R2,#+35
        ADD      R3,R3,#+35
        PUSH     {R3}
        CFI CFA R13+48
        ADD      R3,R0,#+5
        MOV      R0,R4
        SWI      +332
//  340     wsprintf(ws, temp2);
        ADD      R1,R5,#+440
        MOV      R0,R4
        SWI      +292
//  341     DrawString(ws,pos_msg_x+5,pos_msg_y+53,pos_msg_x+Get_WS_width(ws,9)+5,pos_msg_y+GetFontYSIZE(9)+53,9,0,GetPaletteAdrByColorIndex(4),GetPaletteAdrByColorIndex(23));
        MOV      R0,#+23
        SWI      +302
        MOV      R7,R0
        MOV      R0,#+4
        SWI      +302
        MOV      R8,R0
        MOV      R0,#+9
        SWI      +453
        MOV      R6,R0
        MOV      R1,#+9
        MOV      R0,R4
        SWI      +520
        LDR      R1,[R5, #+120]
        LDR      R2,[R5, #+124]
        PUSH     {R7}
        CFI CFA R13+52
        PUSH     {R8}
        CFI CFA R13+56
        MOV      R3,#+0
        PUSH     {R3}
        CFI CFA R13+60
        ADD      R0,R0,R1
        ADD      R1,R1,#+5
        MOV      R3,#+9
        PUSH     {R3}
        CFI CFA R13+64
        ADD      R3,R6,R2
        ADD      R2,R2,#+53
        ADD      R3,R3,#+53
        PUSH     {R3}
        CFI CFA R13+68
        ADD      R3,R0,#+5
        MOV      R0,R4
        SWI      +332
        ADD      SP,SP,#+40
        CFI CFA R13+28
//  342     wsprintf(ws, vejsh2);
        ADD      R1,R5,#+472
        MOV      R0,R4
        SWI      +292
//  343     DrawString(ws,pos_msg_x+5,pos_msg_y+71,pos_msg_x+Get_WS_width(ws,9)+5,pos_msg_y+GetFontYSIZE(9)+71,9,0,GetPaletteAdrByColorIndex(4),GetPaletteAdrByColorIndex(23));
        MOV      R0,#+23
        SWI      +302
        MOV      R7,R0
        MOV      R0,#+4
        SWI      +302
        MOV      R8,R0
        MOV      R0,#+9
        SWI      +453
        MOV      R6,R0
        MOV      R1,#+9
        MOV      R0,R4
        SWI      +520
        LDR      R1,[R5, #+120]
        LDR      R2,[R5, #+124]
        PUSH     {R7}
        CFI CFA R13+32
        PUSH     {R8}
        CFI CFA R13+36
        MOV      R3,#+0
        PUSH     {R3}
        CFI CFA R13+40
        ADD      R0,R0,R1
        ADD      R1,R1,#+5
        MOV      R3,#+9
        PUSH     {R3}
        CFI CFA R13+44
        ADD      R3,R6,R2
        ADD      R2,R2,#+71
        ADD      R3,R3,#+71
        PUSH     {R3}
        CFI CFA R13+48
        ADD      R3,R0,#+5
        MOV      R0,R4
        SWI      +332
//  344     wsprintf(ws, s_icon1);
        ADD      R1,R5,#+328
        MOV      R0,R4
        SWI      +292
//  345     DrawString(ws,pos_msg_x+5,pos_msg_y+89,pos_msg_x+Get_WS_width(ws,9)+5,pos_msg_y+GetFontYSIZE(9)+89,9,0,GetPaletteAdrByColorIndex(4),GetPaletteAdrByColorIndex(23));
        MOV      R0,#+23
        SWI      +302
        MOV      R7,R0
        MOV      R0,#+4
        SWI      +302
        MOV      R8,R0
        MOV      R0,#+9
        SWI      +453
        MOV      R6,R0
        MOV      R1,#+9
        MOV      R0,R4
        SWI      +520
        LDR      R1,[R5, #+120]
        LDR      R2,[R5, #+124]
        PUSH     {R7}
        CFI CFA R13+52
        PUSH     {R8}
        CFI CFA R13+56
        MOV      R3,#+0
        PUSH     {R3}
        CFI CFA R13+60
        ADD      R0,R0,R1
        ADD      R1,R1,#+5
        MOV      R3,#+9
        PUSH     {R3}
        CFI CFA R13+64
        ADD      R3,R6,R2
        ADD      R2,R2,#+89
        ADD      R3,R3,#+89
        PUSH     {R3}
        CFI CFA R13+68
        ADD      R3,R0,#+5
        MOV      R0,R4
        SWI      +332
        ADD      SP,SP,#+40
        CFI CFA R13+28
        MOV      R0,R4
        SWI      +297
        POP      {R4-R9,PC}
//  346   }
//  347   else
//  348   {
//  349     wsprintf(ws, "No Data Yet");
??DrawWeatherLog_1:
        MOV      R1,R6
        MOV      R0,R4
        SWI      +292
//  350     DrawString(ws,pos_msg_x+5,pos_msg_y+35,pos_msg_x+Get_WS_width(ws,9)+5,pos_msg_y+GetFontYSIZE(9)+35,9,0,GetPaletteAdrByColorIndex(4),GetPaletteAdrByColorIndex(23));
        MOV      R0,#+23
        SWI      +302
        MOV      R7,R0
        MOV      R0,#+4
        SWI      +302
        MOV      R8,R0
        MOV      R0,#+9
        SWI      +453
        MOV      R6,R0
        MOV      R1,#+9
        MOV      R0,R4
        SWI      +520
        LDR      R1,[R5, #+120]
        LDR      R2,[R5, #+124]
        PUSH     {R7}
        CFI CFA R13+32
        PUSH     {R8}
        CFI CFA R13+36
        MOV      R3,#+0
        PUSH     {R3}
        CFI CFA R13+40
        ADD      R0,R0,R1
        ADD      R1,R1,#+5
        MOV      R3,#+9
        PUSH     {R3}
        CFI CFA R13+44
        ADD      R3,R6,R2
        ADD      R2,R2,#+35
        ADD      R3,R3,#+35
        PUSH     {R3}
        CFI CFA R13+48
        ADD      R3,R0,#+5
        MOV      R0,R4
        SWI      +332
        ADD      SP,SP,#+20
        CFI CFA R13+28
//  351   }
//  352   FreeWS(ws);
        MOV      R0,R4
        SWI      +297
//  353 }
        POP      {R4-R9,PC}       ;; return
        DATA
??DrawWeatherLog_0:
        DC32     `?<Constant "No Data Yet">`
        CFI EndBlock cfiBlock7

        RSEG CODE:CODE:NOROOT(2)
        CFI Block cfiBlock8 Using cfiCommon0
        CFI NoFunction
        THUMB
??DrawBatteryLog??rT:
        BX       PC
        Nop      
        CFI EndBlock cfiBlock8
        REQUIRE DrawBatteryLog
//  354 #else
//  355 void DrawWeatherLog()
//  356 {
//  357   WSHDR *ws=AllocWS(64);
//  358   wsprintf(ws, "[%t: %t]", LG_WET, city_name);
//  359   DrawString(ws,pos_msg_x+5,pos_msg_y+8,pos_msg_x+Get_WS_width(ws,9)+5,pos_msg_y+GetFontYSIZE(9)+8,9,0,GetPaletteAdrByColorIndex(2),GetPaletteAdrByColorIndex(23));
//  360   if(engade_weather)
//  361   {
//  362     wsprintf(ws, "On: %s", weather_time);
//  363     DrawString(ws,pos_msg_x+5,pos_msg_y+35,pos_msg_x+Get_WS_width(ws,9)+5,pos_msg_y+GetFontYSIZE(9)+35,9,0,GetPaletteAdrByColorIndex(4),GetPaletteAdrByColorIndex(23));
//  364     ascii2ws(ws, temp2);
//  365     DrawString(ws,pos_msg_x+5,pos_msg_y+53,pos_msg_x+Get_WS_width(ws,9)+5,pos_msg_y+GetFontYSIZE(9)+53,9,0,GetPaletteAdrByColorIndex(4),GetPaletteAdrByColorIndex(23));
//  366     ascii2ws(ws, vejsh2);
//  367     //wsprintf(ws, vejsh2);
//  368     DrawString(ws,pos_msg_x+5,pos_msg_y+71,pos_msg_x+Get_WS_width(ws,9)+5,pos_msg_y+GetFontYSIZE(9)+71,9,0,GetPaletteAdrByColorIndex(4),GetPaletteAdrByColorIndex(23));
//  369     ascii2ws(ws, pressure2);
//  370    // wsprintf(ws, pressure2);
//  371     DrawString(ws,pos_msg_x+5,pos_msg_y+89,pos_msg_x+Get_WS_width(ws,9)+5,pos_msg_y+GetFontYSIZE(9)+89,9,0,GetPaletteAdrByColorIndex(4),GetPaletteAdrByColorIndex(23));
//  372   }
//  373   else
//  374   {
//  375     wsprintf(ws, "No Data Yet");
//  376     DrawString(ws,pos_msg_x+5,pos_msg_y+35,pos_msg_x+Get_WS_width(ws,9)+5,pos_msg_y+GetFontYSIZE(9)+35,9,0,GetPaletteAdrByColorIndex(4),GetPaletteAdrByColorIndex(23));
//  377   }
//  378   FreeWS(ws);
//  379 }
//  380 #endif
//  381 
//  382 int battery;
//  383 

        RSEG CODE:CODE:NOROOT(2)
        CFI Block cfiBlock9 Using cfiCommon1
        CFI Function DrawBatteryLog
        ARM
//  384 void DrawBatteryLog()
//  385 {
DrawBatteryLog:
        PUSH     {R4-R9,LR}
        CFI ?RET Frame(CFA, -4)
        CFI R9 Frame(CFA, -8)
        CFI R8 Frame(CFA, -12)
        CFI R7 Frame(CFA, -16)
        CFI R6 Frame(CFA, -20)
        CFI R5 Frame(CFA, -24)
        CFI R4 Frame(CFA, -28)
        CFI CFA R13+28
//  386   battery = *RamCap();
        LDR      R4,??DataTable7  ;; screen
//  387   WSHDR *ws=AllocWS(64);
//  388   wsprintf(ws, "[%t]", LG_BATI);
        LDR      R6,??DataTable8  ;; `?<Constant "[%t]">`
        SWI      +32968
        LDRH     R0,[R0, #+0]
        STR      R0,[R4, #+144]
        MOV      R0,#+64
        SWI      +293
        MOV      R5,R0
        ADD      R2,R6,#+8
        MOV      R1,R6
        SWI      +292
//  389   DrawString(ws,pos_msg_x+5,pos_msg_y+8,pos_msg_x+Get_WS_width(ws,9)+5,pos_msg_y+GetFontYSIZE(9)+8,9,0,GetPaletteAdrByColorIndex(2),GetPaletteAdrByColorIndex(23));
        MOV      R0,#+23
        SWI      +302
        MOV      R7,R0
        MOV      R0,#+2
        SWI      +302
        MOV      R8,R0
        MOV      R0,#+9
        SWI      +453
        MOV      R9,R0
        MOV      R1,#+9
        MOV      R0,R5
        SWI      +520
        LDR      R1,[R4, #+120]
        LDR      R2,[R4, #+124]
        PUSH     {R7}
        CFI CFA R13+32
        PUSH     {R8}
        CFI CFA R13+36
        MOV      R3,#+0
        PUSH     {R3}
        CFI CFA R13+40
        ADD      R0,R0,R1
        ADD      R1,R1,#+5
        MOV      R3,#+9
        PUSH     {R3}
        CFI CFA R13+44
        ADD      R3,R9,R2
        ADD      R2,R2,#+8
        ADD      R3,R3,#+8
        PUSH     {R3}
        CFI CFA R13+48
        ADD      R3,R0,#+5
        MOV      R0,R5
        SWI      +332
//  390   wsprintf(ws,"%t: %d%", LG_BCAP, battery);
        LDR      R3,[R4, #+144]
        ADD      R2,R6,#+32
        ADD      R1,R6,#+24
        MOV      R0,R5
        SWI      +292
//  391   DrawString(ws,pos_msg_x+5,pos_msg_y+35,pos_msg_x+Get_WS_width(ws,9)+5,pos_msg_y+GetFontYSIZE(9)+35,9,0,GetPaletteAdrByColorIndex(4),GetPaletteAdrByColorIndex(23));
        MOV      R0,#+23
        SWI      +302
        MOV      R7,R0
        MOV      R0,#+4
        SWI      +302
        MOV      R8,R0
        MOV      R0,#+9
        SWI      +453
        MOV      R9,R0
        MOV      R1,#+9
        MOV      R0,R5
        SWI      +520
        LDR      R1,[R4, #+120]
        LDR      R2,[R4, #+124]
        PUSH     {R7}
        CFI CFA R13+52
        PUSH     {R8}
        CFI CFA R13+56
        MOV      R3,#+0
        PUSH     {R3}
        CFI CFA R13+60
        ADD      R0,R0,R1
        ADD      R1,R1,#+5
        MOV      R3,#+9
        PUSH     {R3}
        CFI CFA R13+64
        ADD      R3,R9,R2
        ADD      R2,R2,#+35
        ADD      R3,R3,#+35
        PUSH     {R3}
        CFI CFA R13+68
        ADD      R3,R0,#+5
        MOV      R0,R5
        SWI      +332
        ADD      SP,SP,#+40
        CFI CFA R13+28
//  392   if(GetAccessoryType()==13) wsprintf(ws, "%t: On", LG_BCON); else wsprintf(ws, "%t: Off", LG_BCON);
        SWI      +136
        CMP      R0,#+13
        ADD      R2,R6,#+52
        ADDEQ    R1,R6,#+44
        ADDNE    R1,R6,#+60
        MOV      R0,R5
        SWI      +292
//  393   DrawString(ws,pos_msg_x+5,pos_msg_y+53,pos_msg_x+Get_WS_width(ws,9)+5,pos_msg_y+GetFontYSIZE(9)+53,9,0,GetPaletteAdrByColorIndex(4),GetPaletteAdrByColorIndex(23));
        MOV      R0,#+23
        SWI      +302
        MOV      R7,R0
        MOV      R0,#+4
        SWI      +302
        MOV      R8,R0
        MOV      R0,#+9
        SWI      +453
        MOV      R9,R0
        MOV      R1,#+9
        MOV      R0,R5
        SWI      +520
        LDR      R1,[R4, #+120]
        LDR      R2,[R4, #+124]
        PUSH     {R7}
        CFI CFA R13+32
        PUSH     {R8}
        CFI CFA R13+36
        MOV      R3,#+0
        PUSH     {R3}
        CFI CFA R13+40
        ADD      R0,R0,R1
        ADD      R1,R1,#+5
        MOV      R3,#+9
        PUSH     {R3}
        CFI CFA R13+44
        ADD      R3,R9,R2
        ADD      R2,R2,#+53
        ADD      R3,R3,#+53
        PUSH     {R3}
        CFI CFA R13+48
        ADD      R3,R0,#+5
        MOV      R0,R5
        SWI      +332
//  394   wsprintf(ws, "%t:", LG_CLCH);
        ADD      R2,R6,#+68
        ADR      R1,??DrawBatteryLog_0  ;; "%t:"
        MOV      R0,R5
        SWI      +292
//  395   DrawString(ws,pos_msg_x+5,pos_msg_y+71,pos_msg_x+Get_WS_width(ws,9)+5,pos_msg_y+GetFontYSIZE(9)+71,9,0,GetPaletteAdrByColorIndex(4),GetPaletteAdrByColorIndex(23));
        MOV      R0,#+23
        SWI      +302
        MOV      R7,R0
        MOV      R0,#+4
        SWI      +302
        MOV      R8,R0
        MOV      R0,#+9
        SWI      +453
        MOV      R6,R0
        MOV      R1,#+9
        MOV      R0,R5
        SWI      +520
        LDR      R1,[R4, #+120]
        LDR      R2,[R4, #+124]
        PUSH     {R7}
        CFI CFA R13+52
        PUSH     {R8}
        CFI CFA R13+56
        MOV      R3,#+0
        PUSH     {R3}
        CFI CFA R13+60
        ADD      R0,R0,R1
        ADD      R1,R1,#+5
        MOV      R3,#+9
        PUSH     {R3}
        CFI CFA R13+64
        ADD      R3,R6,R2
        ADD      R2,R2,#+71
        ADD      R3,R3,#+71
        PUSH     {R3}
        CFI CFA R13+68
        ADD      R3,R0,#+5
        MOV      R0,R5
        SWI      +332
        ADD      SP,SP,#+40
        CFI CFA R13+28
//  396   wsprintf(ws, chinfo);
        ADD      R1,R4,#+232
        MOV      R0,R5
        SWI      +292
//  397   DrawString(ws,pos_msg_x+30,pos_msg_y+89,pos_msg_x+Get_WS_width(ws,9)+30,pos_msg_y+GetFontYSIZE(9)+89,9,0,GetPaletteAdrByColorIndex(4),GetPaletteAdrByColorIndex(23));
        MOV      R0,#+23
        SWI      +302
        MOV      R7,R0
        MOV      R0,#+4
        SWI      +302
        MOV      R8,R0
        MOV      R0,#+9
        SWI      +453
        MOV      R6,R0
        MOV      R1,#+9
        MOV      R0,R5
        SWI      +520
        LDR      R1,[R4, #+120]
        LDR      R2,[R4, #+124]
        PUSH     {R7}
        CFI CFA R13+32
        PUSH     {R8}
        CFI CFA R13+36
        MOV      R3,#+0
        PUSH     {R3}
        CFI CFA R13+40
        ADD      R0,R0,R1
        ADD      R1,R1,#+30
        MOV      R3,#+9
        PUSH     {R3}
        CFI CFA R13+44
        ADD      R3,R6,R2
        ADD      R2,R2,#+89
        ADD      R3,R3,#+89
        PUSH     {R3}
        CFI CFA R13+48
        ADD      R3,R0,#+30
        MOV      R0,R5
        SWI      +332
//  398   FreeWS(ws);
        MOV      R0,R5
        SWI      +297
//  399 }
        ADD      SP,SP,#+20
        CFI CFA R13+28
        POP      {R4-R9,PC}       ;; return
        DATA
??DrawBatteryLog_0:
        DC8      "%t:"
        CFI EndBlock cfiBlock9

        RSEG CODE:CODE:NOROOT(2)
        CFI Block cfiBlock10 Using cfiCommon0
        CFI NoFunction
        THUMB
??get_month??rT:
        BX       PC
        Nop      
        CFI EndBlock cfiBlock10
        REQUIRE get_month
//  400 
//  401 #pragma swi_number=0x41
//  402 __swi __arm char GetProvider(WSHDR *ws, int zero); //for provider info
//  403 int monthc;
//  404 char month[5];
//  405 

        RSEG CODE:CODE:NOROOT(2)
        CFI Block cfiBlock11 Using cfiCommon1
        CFI Function get_month
        ARM
//  406 void get_month()
//  407 {
get_month:
        PUSH     {R4,R5,LR}
        CFI ?RET Frame(CFA, -4)
        CFI R5 Frame(CFA, -8)
        CFI R4 Frame(CFA, -12)
        CFI CFA R13+12
        SUB      SP,SP,#+8
        CFI CFA R13+20
//  408   TDate date;
//  409   GetDateTime(&date, NULL);
        MOV      R1,#+0
//  410   if(date.month==1) strcpy(month, "jan");
        LDR      R5,??DataTable7  ;; screen
        MOV      R0,SP
        SWI      +180
        LDRB     R0,[SP, #+4]
        MOV      R4,#+536
        CMP      R0,#+1
        BNE      ??get_month_0
        ADR      R1,??get_month_1  ;; "jan"
        ADD      R0,R4,R5
        SWI      +26
//  411   if(date.month==2) strcpy(month, "feb");
??get_month_0:
        LDRB     R0,[SP, #+4]
        CMP      R0,#+2
        BNE      ??get_month_2
        ADR      R1,??get_month_1+0x4  ;; "feb"
        ADD      R0,R4,R5
        SWI      +26
//  412   if(date.month==3) strcpy(month, "mar");
??get_month_2:
        LDRB     R0,[SP, #+4]
        CMP      R0,#+3
        BNE      ??get_month_3
        ADR      R1,??get_month_1+0x8  ;; "mar"
        ADD      R0,R4,R5
        SWI      +26
//  413   if(date.month==4) strcpy(month, "apr");
??get_month_3:
        LDRB     R0,[SP, #+4]
        CMP      R0,#+4
        BNE      ??get_month_4
        ADR      R1,??get_month_1+0xC  ;; "apr"
        ADD      R0,R4,R5
        SWI      +26
//  414   if(date.month==5) strcpy(month, "may");
??get_month_4:
        LDRB     R0,[SP, #+4]
        CMP      R0,#+5
        BNE      ??get_month_5
        ADR      R1,??get_month_1+0x10  ;; "may"
        ADD      R0,R4,R5
        SWI      +26
//  415   if(date.month==6) strcpy(month, "jun");
??get_month_5:
        LDRB     R0,[SP, #+4]
        CMP      R0,#+6
        BNE      ??get_month_6
        ADR      R1,??get_month_1+0x14  ;; "jun"
        ADD      R0,R4,R5
        SWI      +26
//  416   if(date.month==7) strcpy(month, "jul");
??get_month_6:
        LDRB     R0,[SP, #+4]
        CMP      R0,#+7
        BNE      ??get_month_7
        ADR      R1,??get_month_1+0x18  ;; "jul"
        ADD      R0,R4,R5
        SWI      +26
//  417   if(date.month==8) strcpy(month, "aug");
??get_month_7:
        LDRB     R0,[SP, #+4]
        CMP      R0,#+8
        BNE      ??get_month_8
        ADR      R1,??get_month_1+0x1C  ;; "aug"
        ADD      R0,R4,R5
        SWI      +26
//  418   if(date.month==9) strcpy(month, "sep");
??get_month_8:
        LDRB     R0,[SP, #+4]
        CMP      R0,#+9
        BNE      ??get_month_9
        ADR      R1,??get_month_1+0x20  ;; "sep"
        ADD      R0,R4,R5
        SWI      +26
//  419   if(date.month==10) strcpy(month, "oct");
??get_month_9:
        LDRB     R0,[SP, #+4]
        CMP      R0,#+10
        BNE      ??get_month_10
        ADR      R1,??get_month_1+0x24  ;; "oct"
        ADD      R0,R4,R5
        SWI      +26
//  420   if(date.month==11) strcpy(month, "nov");
??get_month_10:
        LDRB     R0,[SP, #+4]
        CMP      R0,#+11
        BNE      ??get_month_11
        ADR      R1,??get_month_1+0x28  ;; "nov"
        ADD      R0,R4,R5
        SWI      +26
//  421   if(date.month==12) strcpy(month, "dec");
??get_month_11:
        LDRB     R0,[SP, #+4]
        CMP      R0,#+12
        BNE      ??get_month_12
        ADR      R1,??get_month_1+0x2C  ;; "dec"
        ADD      R0,R4,R5
        SWI      +26
//  422   monthc=date.month;
??get_month_12:
        LDRB     R0,[SP, #+4]
        STR      R0,[R5, #+148]
//  423 }
        POP      {R0,R1,R4,R5,PC}  ;; return
        DATA
??get_month_1:
        DC8      "jan"
        DC8      "feb"
        DC8      "mar"
        DC8      "apr"
        DC8      "may"
        DC8      "jun"
        DC8      "jul"
        DC8      "aug"
        DC8      "sep"
        DC8      "oct"
        DC8      "nov"
        DC8      "dec"
        CFI EndBlock cfiBlock11

        RSEG CODE:CODE:NOROOT(2)
        CFI Block cfiBlock12 Using cfiCommon0
        CFI NoFunction
        THUMB
??DrawSystemLog??rT:
        BX       PC
        Nop      
        CFI EndBlock cfiBlock12
        REQUIRE DrawSystemLog
//  424 

        RSEG CODE:CODE:NOROOT(2)
        CFI Block cfiBlock13 Using cfiCommon1
        CFI Function DrawSystemLog
        ARM
//  425 void DrawSystemLog()
//  426 {
DrawSystemLog:
        PUSH     {R4-R10,LR}
        CFI ?RET Frame(CFA, -4)
        CFI R10 Frame(CFA, -8)
        CFI R9 Frame(CFA, -12)
        CFI R8 Frame(CFA, -16)
        CFI R7 Frame(CFA, -20)
        CFI R6 Frame(CFA, -24)
        CFI R5 Frame(CFA, -28)
        CFI R4 Frame(CFA, -32)
        CFI CFA R13+32
//  427   //ttttttt
//  428   int ram = GetFreeRamAvail();
//  429   ram=ram/1024;
//  430   WSHDR *ws=AllocWS(64);
//  431   wsprintf(ws, "[%t]", LG_SYSI);
        LDR      R7,??DataTable8  ;; `?<Constant "[%t]">`
//  432   DrawString(ws,pos_msg_x+5,pos_msg_y+8,pos_msg_x+Get_WS_width(ws,9)+5,pos_msg_y+GetFontYSIZE(9)+8,9,0,GetPaletteAdrByColorIndex(2),GetPaletteAdrByColorIndex(23));
        LDR      R5,??DataTable7  ;; screen
        SUB      SP,SP,#+16
        CFI CFA R13+48
        SWI      +95
        MOV      R6,R0
        MOV      R0,#+64
        SWI      +293
        MOV      R4,R0
        ADD      R2,R7,#+80
        MOV      R1,R7
        SWI      +292
        MOV      R0,#+23
        SWI      +302
        MOV      R8,R0
        MOV      R0,#+2
        SWI      +302
        MOV      R9,R0
        MOV      R0,#+9
        SWI      +453
        MOV      R10,R0
        MOV      R1,#+9
        MOV      R0,R4
        SWI      +520
        LDR      R1,[R5, #+120]
        LDR      R2,[R5, #+124]
        PUSH     {R8}
        CFI CFA R13+52
        PUSH     {R9}
        CFI CFA R13+56
        MOV      R3,#+0
        PUSH     {R3}
        CFI CFA R13+60
        ADD      R0,R0,R1
        ADD      R1,R1,#+5
        MOV      R3,#+9
        PUSH     {R3}
        CFI CFA R13+64
        ADD      R3,R10,R2
        ADD      R2,R2,#+8
        ADD      R3,R3,#+8
        PUSH     {R3}
        CFI CFA R13+68
        ADD      R3,R0,#+5
        MOV      R0,R4
        SWI      +332
//  433   TTime time;
//  434   TDate date;
//  435   GetDateTime(&date, &time);
        ADD      R1,SP,#+20
        ADD      R0,SP,#+28
        SWI      +180
//  436   if(monthc!=date.month) get_month();
        LDRB     R1,[SP, #+32]
        LDR      R0,[R5, #+148]
        ADD      SP,SP,#+20
        CFI CFA R13+48
        CMP      R0,R1
        BEQ      ??DrawSystemLog_0
        BL       get_month
//  437   wsprintf(ws, "%02d%s, %02d:%02d:%02d", date.day, month, time.hour, time.min, time.sec);
??DrawSystemLog_0:
        LDRB     R0,[SP, #+2]
        ADD      R3,R5,#+536
        ADD      R1,R7,#+92
        PUSH     {R0}
        CFI CFA R13+52
        LDRB     R0,[SP, #+5]
        PUSH     {R0}
        CFI CFA R13+56
        LDRB     R0,[SP, #+8]
        PUSH     {R0}
        CFI CFA R13+60
        LDRB     R2,[SP, #+25]
        MOV      R0,R4
        SWI      +292
//  438   DrawString(ws,pos_msg_x+5,pos_msg_y+35,pos_msg_x+Get_WS_width(ws,9)+5,pos_msg_y+GetFontYSIZE(9)+35,9,0,GetPaletteAdrByColorIndex(4),GetPaletteAdrByColorIndex(23));
        MOV      R0,#+23
        SWI      +302
        MOV      R8,R0
        MOV      R0,#+4
        SWI      +302
        MOV      R9,R0
        MOV      R0,#+9
        SWI      +453
        MOV      R10,R0
        MOV      R1,#+9
        MOV      R0,R4
        SWI      +520
        LDR      R1,[R5, #+120]
        LDR      R2,[R5, #+124]
        PUSH     {R8}
        CFI CFA R13+64
        PUSH     {R9}
        CFI CFA R13+68
        MOV      R3,#+0
        PUSH     {R3}
        CFI CFA R13+72
        ADD      R0,R0,R1
        ADD      R1,R1,#+5
        MOV      R3,#+9
        PUSH     {R3}
        CFI CFA R13+76
        ADD      R3,R10,R2
        ADD      R2,R2,#+35
        ADD      R3,R3,#+35
        PUSH     {R3}
        CFI CFA R13+80
        ADD      R3,R0,#+5
        MOV      R0,R4
        SWI      +332
//  439   GetProvider(ws,0);
        MOV      R1,#+0
        MOV      R0,R4
        SWI      +65
//  440   DrawString(ws,pos_msg_x+5,pos_msg_y+53,pos_msg_x+Get_WS_width(ws,9)+5,pos_msg_y+GetFontYSIZE(9)+53,9,0,GetPaletteAdrByColorIndex(4),GetPaletteAdrByColorIndex(23));
        MOV      R0,#+23
        SWI      +302
        MOV      R8,R0
        MOV      R0,#+4
        SWI      +302
        MOV      R9,R0
        MOV      R0,#+9
        SWI      +453
        MOV      R10,R0
        MOV      R1,#+9
        MOV      R0,R4
        SWI      +520
        LDR      R1,[R5, #+120]
        LDR      R2,[R5, #+124]
        PUSH     {R8}
        CFI CFA R13+84
        PUSH     {R9}
        CFI CFA R13+88
        MOV      R3,#+0
        PUSH     {R3}
        CFI CFA R13+92
        ADD      R0,R0,R1
        ADD      R1,R1,#+5
        MOV      R3,#+9
        PUSH     {R3}
        CFI CFA R13+96
        ADD      R3,R10,R2
        ADD      R2,R2,#+53
        ADD      R3,R3,#+53
        PUSH     {R3}
        CFI CFA R13+100
        ADD      R3,R0,#+5
        MOV      R0,R4
        SWI      +332
        ADD      SP,SP,#+52
        CFI CFA R13+48
//  441   wsprintf(ws, "%t: %02d:%02d:%02d", LG_SRUN, r_h, r_m, r_s);
        LDR      R0,[R5, #+60]
        ADD      R2,R7,#+136
        PUSH     {R0}
        CFI CFA R13+52
        LDR      R0,[R5, #+64]
        ADD      R1,R7,#+116
        PUSH     {R0}
        CFI CFA R13+56
        LDR      R3,[R5, #+68]
        MOV      R0,R4
        SWI      +292
//  442   DrawString(ws,pos_msg_x+5,pos_msg_y+71,pos_msg_x+Get_WS_width(ws,9)+5,pos_msg_y+GetFontYSIZE(9)+71,9,0,GetPaletteAdrByColorIndex(4),GetPaletteAdrByColorIndex(23));
        MOV      R0,#+23
        SWI      +302
        MOV      R8,R0
        MOV      R0,#+4
        SWI      +302
        MOV      R9,R0
        MOV      R0,#+9
        SWI      +453
        MOV      R10,R0
        MOV      R1,#+9
        MOV      R0,R4
        SWI      +520
        LDR      R1,[R5, #+120]
        LDR      R2,[R5, #+124]
        PUSH     {R8}
        CFI CFA R13+60
        PUSH     {R9}
        CFI CFA R13+64
        MOV      R3,#+0
        PUSH     {R3}
        CFI CFA R13+68
        ADD      R0,R0,R1
        ADD      R1,R1,#+5
        MOV      R3,#+9
        PUSH     {R3}
        CFI CFA R13+72
        ADD      R3,R10,R2
        ADD      R2,R2,#+71
        ADD      R3,R3,#+71
        PUSH     {R3}
        CFI CFA R13+76
        ADD      R3,R0,#+5
        MOV      R0,R4
        SWI      +332
//  443   wsprintf(ws,"%t: %dKb", LG_SRAM, ram);
        ASR      R0,R6,#+9
        ADD      R0,R6,R0, LSR #+22
        ASR      R3,R0,#+10
        ADD      R2,R7,#+156
        ADD      R1,R7,#+144
        MOV      R0,R4
        SWI      +292
//  444   DrawString(ws,pos_msg_x+5,pos_msg_y+89,pos_msg_x+Get_WS_width(ws,9)+5,pos_msg_y+GetFontYSIZE(9)+89,9,0,GetPaletteAdrByColorIndex(4),GetPaletteAdrByColorIndex(23));
        MOV      R0,#+23
        SWI      +302
        MOV      R7,R0
        MOV      R0,#+4
        SWI      +302
        MOV      R8,R0
        MOV      R0,#+9
        SWI      +453
        MOV      R6,R0
        MOV      R1,#+9
        MOV      R0,R4
        SWI      +520
        LDR      R1,[R5, #+120]
        LDR      R2,[R5, #+124]
        PUSH     {R7}
        CFI CFA R13+80
        PUSH     {R8}
        CFI CFA R13+84
        MOV      R3,#+0
        PUSH     {R3}
        CFI CFA R13+88
        ADD      R0,R0,R1
        ADD      R1,R1,#+5
        MOV      R3,#+9
        PUSH     {R3}
        CFI CFA R13+92
        ADD      R3,R6,R2
        ADD      R2,R2,#+89
        ADD      R3,R3,#+89
        PUSH     {R3}
        CFI CFA R13+96
        ADD      R3,R0,#+5
        MOV      R0,R4
        SWI      +332
        ADD      SP,SP,#+48
        CFI CFA R13+48
//  445   FreeWS(ws);
        MOV      R0,R4
        SWI      +297
//  446 }
        POP      {R0-R10,PC}      ;; return
        CFI EndBlock cfiBlock13

        RSEG CODE:CODE:NOROOT(2)
        DATA
??DataTable7:
        DC32     screen

        RSEG CODE:CODE:NOROOT(2)
        CFI Block cfiBlock14 Using cfiCommon0
        CFI NoFunction
        THUMB
??reboot_ref??rT:
        BX       PC
        Nop      
        CFI EndBlock cfiBlock14
        REQUIRE reboot_ref
//  447 #ifdef NATICQ
//  448 void DrawNaticqLog()
//  449 {
//  450   WSHDR *ws=AllocWS(64);
//  451   wsprintf(ws, "[Naticq plugin]");
//  452   DrawString(ws,pos_msg_x+3,pos_msg_y+3,pos_msg_x+Get_WS_width(ws,9)+3,pos_msg_y+GetFontYSIZE(9)+3,9,0,GetPaletteAdrByColorIndex(2),GetPaletteAdrByColorIndex(23));
//  453   if(!naticq_plugin)
//  454   {
//  455   wsprintf(ws, "Naticq not running or wrong version");
//  456   DrawString(ws,pos_msg_x+3,pos_msg_y+25,pos_msg_x+80,pos_msg_y+50+25,9,0,GetPaletteAdrByColorIndex(4),GetPaletteAdrByColorIndex(23));
//  457   }
//  458   else
//  459   {
//  460     wsprintf(ws, "Online: %s", naticq_time);
//  461     DrawString(ws,pos_msg_x+3,pos_msg_y+25,pos_msg_x+Get_WS_width(ws,9)+3,pos_msg_y+GetFontYSIZE(9)+25,9,0,GetPaletteAdrByColorIndex(4),GetPaletteAdrByColorIndex(23));
//  462     wsprintf(ws, "Ping: %s", naticq_ping);
//  463     DrawString(ws,pos_msg_x+3,pos_msg_y+35,pos_msg_x+Get_WS_width(ws,9)+3,pos_msg_y+GetFontYSIZE(9)+35,9,0,GetPaletteAdrByColorIndex(4),GetPaletteAdrByColorIndex(23));
//  464   }
//  465  // DrawString(ws,pos_msg_x+3,pos_msg_y+35,pos_msg_x+Get_WS_width(ws,11)+3,pos_msg_y+GetFontYSIZE(11)+35,11,0,GetPaletteAdrByColorIndex(4),GetPaletteAdrByColorIndex(23));
//  466  // wsprintf(ws, "Runtime: %02d:%02d:%02d", r_h, r_m, r_s);
//  467  // DrawString(ws,pos_msg_x+3,pos_msg_y+45,pos_msg_x+Get_WS_width(ws,11)+3,pos_msg_y+GetFontYSIZE(11)+45,11,0,GetPaletteAdrByColorIndex(4),GetPaletteAdrByColorIndex(23));
//  468  // wsprintf(ws,"FreeRam: %dKb", ram);
//  469  // DrawString(ws,pos_msg_x+3,pos_msg_y+55,pos_msg_x+Get_WS_width(ws,11)+3,pos_msg_y+GetFontYSIZE(11)+55,11,0,GetPaletteAdrByColorIndex(4),GetPaletteAdrByColorIndex(23));
//  470   FreeWS(ws);
//  471 }
//  472 #endif
//  473 
//  474 int hmm;
//  475 int ggg;
//  476 int trafiks;
//  477 int start_traffic;
//  478 GBSTMR mytmr2;
//  479 

        RSEG CODE:CODE:NOROOT(2)
        CFI Block cfiBlock15 Using cfiCommon1
        CFI Function reboot_ref
        ARM
//  480 void reboot_ref()
//  481 {
reboot_ref:
        PUSH     {LR}
        CFI ?RET Frame(CFA, -4)
        CFI CFA R13+4
//  482   DirectRedrawGUI();
        SWI      +319
//  483 }
        POP      {PC}             ;; return
        CFI EndBlock cfiBlock15

        RSEG CODE:CODE:NOROOT(2)
        CFI Block cfiBlock16 Using cfiCommon0
        CFI NoFunction
        THUMB
??DrawGPRSLog??rT:
        BX       PC
        Nop      
        CFI EndBlock cfiBlock16
        REQUIRE DrawGPRSLog
//  484 
//  485 int ffq;
//  486 char gpinfo[32];
//  487 int isfile;
//  488 extern int result3;
//  489 int switch_gprs_info;
//  490 int do_st=3;
//  491 

        RSEG CODE:CODE:NOROOT(2)
        CFI Block cfiBlock17 Using cfiCommon1
        CFI Function DrawGPRSLog
        ARM
//  492 void DrawGPRSLog()
//  493 {
DrawGPRSLog:
        PUSH     {R4-R11,LR}
        CFI ?RET Frame(CFA, -4)
        CFI R11 Frame(CFA, -8)
        CFI R10 Frame(CFA, -12)
        CFI R9 Frame(CFA, -16)
        CFI R8 Frame(CFA, -20)
        CFI R7 Frame(CFA, -24)
        CFI R6 Frame(CFA, -28)
        CFI R5 Frame(CFA, -32)
        CFI R4 Frame(CFA, -36)
        CFI CFA R13+36
//  494   WSHDR *ws=AllocWS(64);
//  495   if(IsGPRSConnected())
        LDR      R5,??DataTable8  ;; `?<Constant "[%t]">`
        LDR      R6,??DataTable23  ;; screen
        MOV      R0,#+64
        SWI      +293
        MOV      R4,R0
        SWI      +168
        CMP      R0,#+0
        BEQ      ??DrawGPRSLog_0
//  496   {
//  497     RefreshGPRSTraffic();
        SWI      +111
//  498     int *traf = GetGPRSTrafficPointer();
        SWI      +112
//  499     hmm=*traf-ggg;
        LDR      R1,[R6, #+156]
        MOV      R7,R0
        LDR      R0,[R7, #+0]
        SUB      R0,R0,R1
        STR      R0,[R6, #+152]
//  500 #ifdef Evilfox
//  501     wsprintf(ws,start_g2);
//  502 #else
//  503     ascii2ws(ws, start_g2);
        ADD      R1,R6,#+408
        MOV      R0,R4
        _BLF     ascii2ws,??ascii2ws??rA
//  504 #endif
//  505     DrawString(ws,pos_msg_x+5,pos_msg_y+35,pos_msg_x+Get_WS_width(ws,9)+5,pos_msg_y+GetFontYSIZE(9)+35,9,0,GetPaletteAdrByColorIndex(4),GetPaletteAdrByColorIndex(23));
        MOV      R0,#+23
        SWI      +302
        MOV      R8,R0
        MOV      R0,#+4
        SWI      +302
        MOV      R9,R0
        MOV      R0,#+9
        SWI      +453
        MOV      R10,R0
        MOV      R1,#+9
        MOV      R0,R4
        SWI      +520
        LDR      R1,[R6, #+120]
        LDR      R2,[R6, #+124]
        PUSH     {R8}
        CFI CFA R13+40
        PUSH     {R9}
        CFI CFA R13+44
        MOV      R3,#+0
        PUSH     {R3}
        CFI CFA R13+48
        ADD      R0,R0,R1
        ADD      R1,R1,#+5
//  506     if(ffq) 
        MOV      R8,#+0
        MOV      R3,#+9
        PUSH     {R3}
        CFI CFA R13+52
        ADD      R3,R10,R2
        ADD      R2,R2,#+35
        ADD      R3,R3,#+35
        PUSH     {R3}
        CFI CFA R13+56
        ADD      R3,R0,#+5
        MOV      R0,R4
        SWI      +332
        LDR      R0,[R6, #+168]
        ADD      SP,SP,#+20
        CFI CFA R13+36
        CMP      R0,#+0
//  507     {
//  508       hmm=0;
        STRNE    R8,[R6, #+152]
//  509       ffq=0;
//  510     }
//  511     wsprintf(ws, "%t: %dB/s", LG_GSPE, hmm);
        LDR      R3,[R6, #+152]
        STRNE    R8,[R6, #+168]
        ADD      R2,R5,#+176
        ADD      R1,R5,#+164
        MOV      R0,R4
        SWI      +292
//  512     DrawString(ws,pos_msg_x+5,pos_msg_y+53,pos_msg_x+Get_WS_width(ws,9)+5,pos_msg_y+GetFontYSIZE(9)+53,9,0,GetPaletteAdrByColorIndex(4),GetPaletteAdrByColorIndex(23));
        MOV      R0,#+23
        SWI      +302
        MOV      R9,R0
        MOV      R0,#+4
        SWI      +302
        MOV      R10,R0
        MOV      R0,#+9
        SWI      +453
        MOV      R11,R0
        MOV      R1,#+9
        MOV      R0,R4
        SWI      +520
        LDR      R1,[R6, #+120]
        LDR      R2,[R6, #+124]
        PUSH     {R9}
        CFI CFA R13+40
        PUSH     {R10}
        CFI CFA R13+44
        MOV      R3,#+0
        PUSH     {R3}
        CFI CFA R13+48
        ADD      R0,R0,R1
        ADD      R1,R1,#+5
        MOV      R3,#+9
        PUSH     {R3}
        CFI CFA R13+52
        ADD      R3,R11,R2
        ADD      R2,R2,#+53
        ADD      R3,R3,#+53
        PUSH     {R3}
        CFI CFA R13+56
        ADD      R3,R0,#+5
        MOV      R0,R4
        SWI      +332
//  513     ggg=*traf;
        LDR      R0,[R7, #+0]
//  514     trafiks=(*traf-start_traffic)/1024;
        LDR      R1,[R6, #+164]
        STR      R0,[R6, #+156]
        LDR      R0,[R7, #+0]
//  515     wsprintf(ws, "%t: %dKb", LG_GSES, trafiks);
        ADD      R2,R5,#+184
        SUB      R0,R0,R1
        ASR      R1,R0,#+9
        ADD      R0,R0,R1, LSR #+22
        ASR      R3,R0,#+10
        STR      R3,[R6, #+160]
        ADD      R1,R5,#+144
        MOV      R0,R4
        SWI      +292
//  516     DrawString(ws,pos_msg_x+5,pos_msg_y+71,pos_msg_x+Get_WS_width(ws,9)+5,pos_msg_y+GetFontYSIZE(9)+71,9,0,GetPaletteAdrByColorIndex(4),GetPaletteAdrByColorIndex(23));
        MOV      R0,#+23
        SWI      +302
        MOV      R7,R0
        MOV      R0,#+4
        SWI      +302
        MOV      R9,R0
        MOV      R0,#+9
        SWI      +453
        MOV      R10,R0
        MOV      R1,#+9
        MOV      R0,R4
        SWI      +520
        LDR      R1,[R6, #+120]
        LDR      R2,[R6, #+124]
        PUSH     {R7}
        CFI CFA R13+60
        PUSH     {R9}
        CFI CFA R13+64
        MOV      R3,R8
        PUSH     {R3}
        CFI CFA R13+68
        ADD      R0,R0,R1
        ADD      R1,R1,#+5
        MOV      R3,#+9
        PUSH     {R3}
        CFI CFA R13+72
        ADD      R3,R10,R2
        ADD      R2,R2,#+71
        ADD      R3,R3,#+71
        PUSH     {R3}
        CFI CFA R13+76
        ADD      R3,R0,#+5
        MOV      R0,R4
        SWI      +332
        ADD      SP,SP,#+40
        CFI CFA R13+36
//  517     if(!do_st) 
        LDR      R0,[R6, #+180]
        CMP      R0,#+0
        BNE      ??DrawGPRSLog_1
//  518     {
//  519       switch_gprs_info=(!switch_gprs_info);
        LDR      R0,[R6, #+176]
        CMP      R0,#+0
        MOVEQ    R0,#+1
        MOVNE    R0,#+0
        STR      R0,[R6, #+176]
//  520       do_st=3;
        MOV      R0,#+3
        B        ??DrawGPRSLog_2
//  521     }
//  522     else
//  523       do_st--;
??DrawGPRSLog_1:
        SUB      R0,R0,#+1
??DrawGPRSLog_2:
        STR      R0,[R6, #+180]
//  524     if(!switch_gprs_info)
        LDR      R0,[R6, #+176]
        CMP      R0,#+0
        BNE      ??DrawGPRSLog_3
//  525     {
//  526       if(isfile)
        LDR      R1,[R6, #+172]
        MOV      R0,#+360
        CMP      R1,#+0
        ADD      R3,R0,R6
        ADD      R2,R5,#+204
        ADDEQ    R1,R5,#+216
//  527       wsprintf(ws, "%t: %sKb", LG_GLAS, gpinfo);
        ADDNE    R1,R5,#+192
        B        ??DrawGPRSLog_4
//  528       else
//  529         wsprintf(ws, "%t: %s", LG_GLAS, gpinfo);
//  530     }
//  531     else
//  532       wsprintf(ws, "%t: %dKb", LG_GTOT, result3);
??DrawGPRSLog_3:
        LDR      R0,??DrawGPRSLog_5+0x4  ;; result3
        ADD      R2,R5,#+224
        LDR      R3,[R0, #+0]
        ADD      R1,R5,#+144
??DrawGPRSLog_4:
        MOV      R0,R4
        SWI      +292
//  533       DrawString(ws,pos_msg_x+5,pos_msg_y+89,pos_msg_x+Get_WS_width(ws,9)+5,pos_msg_y+GetFontYSIZE(9)+89,9,0,GetPaletteAdrByColorIndex(4),GetPaletteAdrByColorIndex(23));    
        MOV      R0,#+23
        SWI      +302
        MOV      R7,R0
        MOV      R0,#+4
        SWI      +302
        MOV      R8,R0
        MOV      R0,#+9
        SWI      +453
        MOV      R9,R0
        MOV      R1,#+9
        MOV      R0,R4
        SWI      +520
        LDR      R1,[R6, #+120]
        LDR      R2,[R6, #+124]
        PUSH     {R7}
        CFI CFA R13+40
        PUSH     {R8}
        CFI CFA R13+44
        MOV      R3,#+0
        PUSH     {R3}
        CFI CFA R13+48
        ADD      R0,R0,R1
        MOV      R3,#+9
        PUSH     {R3}
        CFI CFA R13+52
        ADD      R3,R9,R2
        ADD      R2,R2,#+89
        ADD      R3,R3,#+89
        B        ??DrawGPRSLog_6
        CFI CFA R13+36
//  534   }
//  535   else
//  536   {
//  537     wsprintf(ws, "%t ", LG_GPOF);
??DrawGPRSLog_0:
        ADD      R2,R5,#+232
        ADR      R1,??DrawGPRSLog_5  ;; "%t "
        MOV      R0,R4
        SWI      +292
//  538     DrawString(ws,pos_msg_x+5,pos_msg_y+35,pos_msg_x+Get_WS_width(ws,9)+5,pos_msg_y+GetFontYSIZE(9)+35,9,0,GetPaletteAdrByColorIndex(4),GetPaletteAdrByColorIndex(23));
        MOV      R0,#+23
        SWI      +302
        MOV      R7,R0
        MOV      R0,#+4
        SWI      +302
        MOV      R8,R0
        MOV      R0,#+9
        SWI      +453
        MOV      R9,R0
        MOV      R1,#+9
        MOV      R0,R4
        SWI      +520
        LDR      R1,[R6, #+120]
        LDR      R2,[R6, #+124]
        PUSH     {R7}
        CFI CFA R13+40
        PUSH     {R8}
        CFI CFA R13+44
        MOV      R3,#+0
        PUSH     {R3}
        CFI CFA R13+48
        ADD      R0,R0,R1
        MOV      R3,#+9
        PUSH     {R3}
        CFI CFA R13+52
        ADD      R3,R9,R2
        ADD      R2,R2,#+35
        ADD      R3,R3,#+35
??DrawGPRSLog_6:
        PUSH     {R3}
        CFI CFA R13+56
        ADD      R3,R0,#+5
        ADD      R1,R1,#+5
        MOV      R0,R4
        SWI      +332
        ADD      SP,SP,#+20
        CFI CFA R13+36
//  539   }
//  540   wsprintf(ws, "[%t]", LG_GINF);
        ADD      R2,R5,#+248
        MOV      R1,R5
        MOV      R0,R4
        SWI      +292
//  541   DrawString(ws,pos_msg_x+5,pos_msg_y+8,pos_msg_x+Get_WS_width(ws,9)+5,pos_msg_y+GetFontYSIZE(9)+8,9,0,GetPaletteAdrByColorIndex(2),GetPaletteAdrByColorIndex(23));
        MOV      R0,#+23
        SWI      +302
        MOV      R7,R0
        MOV      R0,#+2
        SWI      +302
        MOV      R8,R0
        MOV      R0,#+9
        SWI      +453
        MOV      R5,R0
        MOV      R1,#+9
        MOV      R0,R4
        SWI      +520
        LDR      R1,[R6, #+120]
        LDR      R2,[R6, #+124]
        PUSH     {R7}
        CFI CFA R13+40
        PUSH     {R8}
        CFI CFA R13+44
        MOV      R3,#+0
        PUSH     {R3}
        CFI CFA R13+48
        ADD      R0,R0,R1
        ADD      R1,R1,#+5
        MOV      R3,#+9
        PUSH     {R3}
        CFI CFA R13+52
        ADD      R3,R5,R2
        ADD      R2,R2,#+8
        ADD      R3,R3,#+8
        PUSH     {R3}
        CFI CFA R13+56
        ADD      R3,R0,#+5
        MOV      R0,R4
        SWI      +332
//  542   FreeWS(ws);
        MOV      R0,R4
        SWI      +297
//  543 }
        ADD      SP,SP,#+20
        CFI CFA R13+36
        POP      {R4-R11,PC}      ;; return
        DATA
??DrawGPRSLog_5:
        DC8      "%t "
        DC32     result3
        CFI EndBlock cfiBlock17

        RSEG CODE:CODE:NOROOT(2)
        DATA
??DataTable8:
        DC32     `?<Constant "[%t]">`

        RSEG CODE:CODE:NOROOT(2)
        CFI Block cfiBlock18 Using cfiCommon0
        CFI NoFunction
        THUMB
??DrawAppLog??rT:
        BX       PC
        Nop      
        CFI EndBlock cfiBlock18
        REQUIRE DrawAppLog
//  544 
//  545 #ifdef EVILFOX
//  546 #else
//  547 extern const char link1_name[64];
//  548 extern const char link2_name[64];
//  549 extern const char link3_name[64];
//  550 extern const char link1[64];
//  551 extern const char link2[64];
//  552 extern const char link3[64];
//  553 #endif
//  554 

        RSEG CODE:CODE:NOROOT(2)
        CFI Block cfiBlock19 Using cfiCommon1
        CFI Function DrawAppLog
        ARM
//  555 void DrawAppLog()
//  556 {
DrawAppLog:
        PUSH     {R4-R8,LR}
        CFI ?RET Frame(CFA, -4)
        CFI R8 Frame(CFA, -8)
        CFI R7 Frame(CFA, -12)
        CFI R6 Frame(CFA, -16)
        CFI R5 Frame(CFA, -20)
        CFI R4 Frame(CFA, -24)
        CFI CFA R13+24
//  557   WSHDR *ws=AllocWS(64);
//  558   switch(app_pos)
        LDR      R5,??DataTable23  ;; screen
        MOV      R0,#+64
        SWI      +293
        LDR      R1,??DrawAppLog_0  ;; `?<Constant "Naticq">`
        MOV      R4,R0
        LDR      R0,[R5, #+132]
        SUBS     R0,R0,#+1
        BEQ      ??DrawAppLog_1
        SUBS     R0,R0,#+1
        BEQ      ??DrawAppLog_2
        SUBS     R0,R0,#+1
        BEQ      ??DrawAppLog_3
        POP      {R4-R8,PC}
//  559   {
//  560   case 1:
//  561     {
//  562 #ifdef EVILFOX
//  563     wsprintf(ws, "Naticq");
??DrawAppLog_1:
        MOV      R0,R4
        SWI      +292
//  564 #else
//  565     wsprintf(ws, link1_name);
//  566 #endif
//  567     DrawString(ws,pos_link2_x-7,pos_link2_y-24,pos_link2_x+Get_WS_width(ws,9)-7,pos_link2_y+GetFontYSIZE(9)-24,9,0,GetPaletteAdrByColorIndex(2),GetPaletteAdrByColorIndex(23));
        MOV      R0,#+23
        SWI      +302
        MOV      R7,R0
        MOV      R0,#+2
        SWI      +302
        MOV      R8,R0
        MOV      R0,#+9
        SWI      +453
        MOV      R6,R0
        MOV      R1,#+9
        MOV      R0,R4
        SWI      +520
        LDR      R1,[R5, #+136]
        LDR      R2,[R5, #+140]
        PUSH     {R7}
        CFI CFA R13+28
        PUSH     {R8}
        CFI CFA R13+32
        MOV      R3,#+0
        PUSH     {R3}
        CFI CFA R13+36
        ADD      R0,R0,R1
        SUB      R1,R1,#+7
        MOV      R3,#+9
        PUSH     {R3}
        CFI CFA R13+40
        ADD      R3,R6,R2
        SUB      R2,R2,#+24
        SUB      R3,R3,#+24
        PUSH     {R3}
        CFI CFA R13+44
        SUB      R3,R0,#+7
        B        ??DrawAppLog_4
        CFI CFA R13+24
//  568     FreeWS(ws);
//  569     }
//  570     break;
//  571   case 2:
//  572    // WSHDR *ws=AllocWS(64);
//  573 #ifdef EVILFOX
//  574     wsprintf(ws, "Ballet");
??DrawAppLog_2:
        ADD      R1,R1,#+8
        B        ??DrawAppLog_5
//  575 #else
//  576     wsprintf(ws, link2_name);
//  577 #endif
//  578     DrawString(ws,pos_link2_x-17,pos_link2_y-20,pos_link2_x+Get_WS_width(ws,9)-17,pos_link2_y+GetFontYSIZE(9)-20,9,0,GetPaletteAdrByColorIndex(2),GetPaletteAdrByColorIndex(23));
//  579     FreeWS(ws);
//  580     break;
//  581   case 3:
//  582   //  WSHDR *ws=AllocWS(64);
//  583 #ifdef EVILFOX
//  584     wsprintf(ws, "SieJC");
??DrawAppLog_3:
        ADD      R1,R1,#+16
??DrawAppLog_5:
        MOV      R0,R4
        SWI      +292
//  585 #else
//  586     wsprintf(ws, link3_name);
//  587 #endif
//  588     DrawString(ws,pos_link2_x-17,pos_link2_y-20,pos_link2_x+Get_WS_width(ws,9)-17,pos_link2_y+GetFontYSIZE(9)-20,9,0,GetPaletteAdrByColorIndex(2),GetPaletteAdrByColorIndex(23));
        MOV      R0,#+23
        SWI      +302
        MOV      R7,R0
        MOV      R0,#+2
        SWI      +302
        MOV      R8,R0
        MOV      R0,#+9
        SWI      +453
        MOV      R6,R0
        MOV      R1,#+9
        MOV      R0,R4
        SWI      +520
        LDR      R1,[R5, #+136]
        LDR      R2,[R5, #+140]
        PUSH     {R7}
        CFI CFA R13+28
        PUSH     {R8}
        CFI CFA R13+32
        MOV      R3,#+0
        PUSH     {R3}
        CFI CFA R13+36
        ADD      R0,R0,R1
        SUB      R1,R1,#+17
        MOV      R3,#+9
        PUSH     {R3}
        CFI CFA R13+40
        ADD      R3,R6,R2
        SUB      R2,R2,#+20
        SUB      R3,R3,#+20
        PUSH     {R3}
        CFI CFA R13+44
        SUB      R3,R0,#+17
??DrawAppLog_4:
        MOV      R0,R4
        SWI      +332
//  589     FreeWS(ws);
        MOV      R0,R4
        SWI      +297
        ADD      SP,SP,#+20
        CFI CFA R13+24
//  590     break;
//  591   }
//  592 }
        POP      {R4-R8,PC}       ;; return
        DATA
??DrawAppLog_0:
        DC32     `?<Constant "Naticq">`
        CFI EndBlock cfiBlock19

        RSEG CODE:CODE:NOROOT(2)
        CFI Block cfiBlock20 Using cfiCommon0
        CFI NoFunction
        THUMB
??OnRedraw??rT:
        BX       PC
        Nop      
        CFI EndBlock cfiBlock20
        REQUIRE OnRedraw
//  593 
//  594 
//  595 

        RSEG CODE:CODE:NOROOT(2)
        CFI Block cfiBlock21 Using cfiCommon1
        CFI Function OnRedraw
        ARM
//  596 void OnRedraw(MAIN_GUI *data) // OnRedraw
//  597 {
OnRedraw:
        PUSH     {R4-R11,LR}
        CFI ?RET Frame(CFA, -4)
        CFI R11 Frame(CFA, -8)
        CFI R10 Frame(CFA, -12)
        CFI R9 Frame(CFA, -16)
        CFI R8 Frame(CFA, -20)
        CFI R7 Frame(CFA, -24)
        CFI R6 Frame(CFA, -28)
        CFI R5 Frame(CFA, -32)
        CFI R4 Frame(CFA, -36)
        CFI CFA R13+36
        SUB      SP,SP,#+8
        CFI CFA R13+44
//  598   DrwImg2(&screen, 0, 0, NULL, NULL);
        LDR      R4,??DataTable12  ;; screen
//  599   void *canvasdata = BuildCanvas();
//  600   switch(phase)
        LDR      R9,??OnRedraw_2  ;; `?<Constant "4:\\\\zbin\\\\miosd\\\\img1.png">`
        MOV      R0,#+0
        PUSH     {R0}
        CFI CFA R13+48
        MOV      R3,#+0
        MOV      R2,R0
        MOV      R1,R0
        MOV      R0,R4
        BL       DrwImg2
        SWI      +33009
        LDR      R0,[R4, #+96]
        ADD      R5,R9,#+216
        ADD      R6,R9,#+192
        ADD      R7,R9,#+168
        ADD      R8,R9,#+144
        ADD      R10,R9,#+96
        ADD      R11,R9,#+48
        ADD      R2,R9,#+24
        ADD      SP,SP,#+4
        CFI CFA R13+44
        SUB      R0,R0,#+1
        CMP      R0,#+7
        POPHI    {R0,R1,R4-R11,PC}
        ADR      R1,??OnRedraw_0
        LDRB     R1,[R1, R0]
        ADD      PC,PC,R1, LSL #+2
        DATA
??OnRedraw_0:
        DC8      +4,+1,+9,+1
        DC8      +1,+4,+106,+106
        ARM
//  601   {
//  602   case 1:
//  603 #ifdef NATICQ
//  604 #ifdef EVILFOX
//  605     DrawImg(pos_main_x, pos_main_y-20, (int)"4:\\zbin\\miosd\\img8.png");
//  606 #else
//  607     if(use_plugin)
//  608     DrawImg(pos_main_x, pos_main_y-20, (int)"4:\\zbin\\miosd\\img8.png");
//  609 #endif
//  610     DrawImg(pos_main_x, pos_main_y, (int)"4:\\zbin\\miosd\\img1.png");
//  611 #else
//  612     DrawImg(pos_main_x, pos_main_y, (int)"4:\\zbin\\miosd\\img1.png");
//  613 #endif
//  614     break;
//  615   case 2:
//  616     DrawImg(pos_link_x, pos_link_y, (int)"4:\\zbin\\miosd\\img2.png");
??OnRedraw_3:
        LDR      R1,[R4, #+116]
        LDR      R0,[R4, #+112]
        SWI      +35
//  617 #ifdef NATICQ
//  618 #ifdef EVILFOX
//  619     DrawImg(pos_main_x, pos_main_y-20, (int)"4:\\zbin\\miosd\\img8.png");
//  620 #else
//  621     if(use_plugin)
//  622     DrawImg(pos_main_x, pos_main_y-20, (int)"4:\\zbin\\miosd\\img8.png");
//  623 #endif
//  624     DrawImg(pos_main_x, pos_main_y, (int)"4:\\zbin\\miosd\\img1.png");
//  625 #else
//  626     DrawImg(pos_main_x, pos_main_y, (int)"4:\\zbin\\miosd\\img1.png");
??OnRedraw_4:
        LDR      R1,[R4, #+104]
        LDR      R0,[R4, #+100]
        MOV      R2,R9
        SWI      +35
        POP      {R0,R1,R4-R11,PC}
//  627 #endif   
//  628     break;
//  629   case 3:
//  630     if(pos==5)
??OnRedraw_5:
        LDR      R3,[R4, #+92]
        LDR      R0,[R4, #+112]
        LDR      R1,[R4, #+116]
        CMP      R3,#+5
        BNE      ??OnRedraw_6
//  631     {
//  632       DrawImg(pos_link_x, pos_link_y, (int)"4:\\zbin\\miosd\\img2.png");
        SWI      +35
//  633 #ifdef NATICQ
//  634 #ifdef EVILFOX
//  635     DrawImg(pos_main_x, pos_main_y-20, (int)"4:\\zbin\\miosd\\img8.png");
//  636 #else
//  637     if(use_plugin)
//  638     DrawImg(pos_main_x, pos_main_y-20, (int)"4:\\zbin\\miosd\\img8.png");
//  639 #endif
//  640     DrawImg(pos_main_x, pos_main_y, (int)"4:\\zbin\\miosd\\img1.png");
//  641 #else
//  642     DrawImg(pos_main_x, pos_main_y, (int)"4:\\zbin\\miosd\\img1.png");
        LDR      R1,[R4, #+104]
        LDR      R0,[R4, #+100]
        MOV      R2,R9
        SWI      +35
//  643 #endif
//  644       DrawImg(pos_link2_x, pos_link2_y, (int)"4:\\zbin\\miosd\\img6.png");
        LDR      R1,[R4, #+140]
        LDR      R0,[R4, #+136]
        MOV      R2,R11
        SWI      +35
//  645       if(app_pos==1)
        LDR      R0,[R4, #+132]
        ADD      R2,R9,#+72
        CMP      R0,#+1
        LDR      R0,[R4, #+140]
        SUB      R1,R0,#+24
        LDR      R0,[R4, #+136]
//  646         DrawImg(pos_link2_x-10, pos_link2_y-24, (int)"4:\\zbin\\miosd\\img7.png");
        SUBEQ    R0,R0,#+10
//  647       else
//  648         DrawImg(pos_link2_x-20, pos_link2_y-24, (int)"4:\\zbin\\miosd\\img7.png");
        SUBNE    R0,R0,#+20
        SWI      +35
//  649       DrawAppLog();
        BL       DrawAppLog
//  650       DrawImg(pos_msg_x, pos_msg_y+24, (int)"4:\\zbin\\miosd\\img4.png"); 
        LDR      R0,[R4, #+124]
        MOV      R2,R10
        ADD      R1,R0,#+24
        B        ??OnRedraw_7
//  651     }
//  652     else
//  653     {
//  654       DrawImg(pos_link_x, pos_link_y, (int)"4:\\zbin\\miosd\\img2.png");
??OnRedraw_6:
        SWI      +35
//  655 #ifdef NATICQ
//  656 #ifdef EVILFOX
//  657     DrawImg(pos_main_x, pos_main_y-20, (int)"4:\\zbin\\miosd\\img8.png");
//  658 #else
//  659     if(use_plugin)
//  660     DrawImg(pos_main_x, pos_main_y-20, (int)"4:\\zbin\\miosd\\img8.png");
//  661 #endif
//  662       DrawImg(pos_main_x, pos_main_y, (int)"4:\\zbin\\miosd\\img1.png");
//  663 #else
//  664       DrawImg(pos_main_x, pos_main_y, (int)"4:\\zbin\\miosd\\img1.png");
        LDR      R1,[R4, #+104]
        LDR      R0,[R4, #+100]
        MOV      R2,R9
        SWI      +35
//  665 #endif 
//  666       DrawImg(pos_msg_x, pos_msg_y, (int)"4:\\zbin\\miosd\\img3.png");
        LDR      R1,[R4, #+124]
        ADD      R2,R9,#+120
??OnRedraw_7:
        LDR      R0,[R4, #+120]
//  667     }
//  668     switch(pos)
        LDR      R10,??OnRedraw_2+0x4  ;; reboot_ref
        SWI      +35
        LDR      R0,[R4, #+92]
        MOV      R9,#+544
        SUB      R0,R0,#+1
        CMP      R0,#+4
        POPHI    {R0,R1,R4-R11,PC}
        ADR      R1,??OnRedraw_1
        LDRB     R1,[R1, R0]
        ADD      PC,PC,R1, LSL #+2
        DATA
??OnRedraw_1:
        DC8      +1,+3,+5,+7
        DC8      +9,+0,+0,+0
        ARM
//  669     {
//  670 #ifdef NATICQ
//  671     case 0:
//  672       DrawNaticqLog();
//  673       GBS_StartTimerProc(&mytmr2, 216, reboot_ref);
//  674       break;
//  675 #endif
//  676     case 1:
//  677       DrawWeatherLog();
??OnRedraw_8:
        BL       DrawWeatherLog
//  678       GBS_StartTimerProc(&mytmr2, 216, reboot_ref);
        B        ??OnRedraw_9
//  679       break;
//  680     case 2:
//  681       DrawBatteryLog();
??OnRedraw_10:
        BL       DrawBatteryLog
//  682       GBS_StartTimerProc(&mytmr2, 216, reboot_ref);
        B        ??OnRedraw_9
//  683       break;
//  684     case 3:
//  685       DrawGPRSLog();
??OnRedraw_11:
        BL       DrawGPRSLog
//  686       GBS_StartTimerProc(&mytmr2, 216, reboot_ref);
        B        ??OnRedraw_9
//  687       break;
//  688     case 4:
//  689       DrawSystemLog();
??OnRedraw_12:
        BL       DrawSystemLog
//  690       GBS_StartTimerProc(&mytmr2, 216, reboot_ref);
        B        ??OnRedraw_9
??OnRedraw_13:
        LDR      R0,[R4, #+124]
        LDR      R2,[R4, #+132]
        ADD      R1,R0,#+24
        LDR      R0,[R4, #+120]
        SUBS     R2,R2,#+1
        BEQ      ??OnRedraw_14
        SUBS     R2,R2,#+1
        BEQ      ??OnRedraw_15
        SUBS     R2,R2,#+1
        BEQ      ??OnRedraw_16
        POP      {R0,R1,R4-R11,PC}
//  691       break;
//  692     case 5: 
//  693       switch(app_pos)
//  694       {
//  695       case 1:
//  696         DrawImg(pos_msg_x, pos_msg_y+24, (int)"4:\\zbin\\miosd\\img5.png"); 
??OnRedraw_14:
        MOV      R2,R8
        B        ??OnRedraw_17
//  697         DrawImg(pos_msg_x, pos_msg_y+24, (int)"4:\\zbin\\miosd\\app1.png"); 
//  698         DrawImg(pos_msg_x+20, pos_msg_y+24, (int)"4:\\zbin\\miosd\\app2.png"); 
//  699         DrawImg(pos_msg_x+40, pos_msg_y+24, (int)"4:\\zbin\\miosd\\app3.png");
//  700         GBS_StartTimerProc(&mytmr2, 216, reboot_ref);
//  701         break;
//  702       case 2:
//  703         DrawImg(pos_msg_x+20, pos_msg_y+24, (int)"4:\\zbin\\miosd\\img5.png"); 
??OnRedraw_15:
        MOV      R2,R8
        ADD      R0,R0,#+20
??OnRedraw_17:
        SWI      +35
//  704         DrawImg(pos_msg_x, pos_msg_y+24, (int)"4:\\zbin\\miosd\\app1.png"); 
        LDR      R0,[R4, #+124]
        MOV      R2,R7
        ADD      R1,R0,#+24
        LDR      R0,[R4, #+120]
        SWI      +35
//  705         DrawImg(pos_msg_x+20, pos_msg_y+24, (int)"4:\\zbin\\miosd\\app2.png"); 
        LDR      R0,[R4, #+124]
        MOV      R2,R6
        ADD      R1,R0,#+24
        LDR      R0,[R4, #+120]
        ADD      R0,R0,#+20
        SWI      +35
//  706         DrawImg(pos_msg_x+40, pos_msg_y+24, (int)"4:\\zbin\\miosd\\app3.png"); 
        LDR      R0,[R4, #+124]
        MOV      R2,R5
        ADD      R1,R0,#+24
        LDR      R0,[R4, #+120]
        ADD      R0,R0,#+40
        SWI      +35
//  707         GBS_StartTimerProc(&mytmr2, 216, reboot_ref);
??OnRedraw_9:
        MOV      R2,R10
        MOV      R1,#+216
        ADD      R0,R9,R4
        SWI      +77
        POP      {R0,R1,R4-R11,PC}
//  708         break;
//  709       case 3:
//  710         DrawImg(pos_msg_x+40, pos_msg_y+24, (int)"4:\\zbin\\miosd\\img5.png");
??OnRedraw_16:
        MOV      R2,R8
        ADD      R0,R0,#+40
        B        ??OnRedraw_17
//  711         DrawImg(pos_msg_x, pos_msg_y+24, (int)"4:\\zbin\\miosd\\app1.png"); 
//  712         DrawImg(pos_msg_x+20, pos_msg_y+24, (int)"4:\\zbin\\miosd\\app2.png"); 
//  713         DrawImg(pos_msg_x+40, pos_msg_y+24, (int)"4:\\zbin\\miosd\\app3.png");
//  714         GBS_StartTimerProc(&mytmr2, 216, reboot_ref);
//  715         break;
//  716       }
//  717       break;
//  718     }
//  719     break;
//  720   case 4:
//  721     DrawImg(pos_link_x, pos_link_y, (int)"4:\\zbin\\miosd\\img2.png");
//  722 #ifdef NATICQ
//  723 #ifdef EVILFOX
//  724     DrawImg(pos_main_x, pos_main_y-20, (int)"4:\\zbin\\miosd\\img8.png");
//  725 #else
//  726     if(use_plugin)
//  727     DrawImg(pos_main_x, pos_main_y-20, (int)"4:\\zbin\\miosd\\img8.png");
//  728 #endif
//  729     DrawImg(pos_main_x, pos_main_y, (int)"4:\\zbin\\miosd\\img1.png");
//  730 #else
//  731     DrawImg(pos_main_x, pos_main_y, (int)"4:\\zbin\\miosd\\img1.png");
//  732 #endif   
//  733     break;
//  734   case 5:
//  735     DrawImg(pos_link_x, pos_link_y, (int)"4:\\zbin\\miosd\\img2.png");
//  736 #ifdef NATICQ
//  737 #ifdef EVILFOX
//  738     DrawImg(pos_main_x, pos_main_y-20, (int)"4:\\zbin\\miosd\\img8.png");
//  739 #else
//  740     if(use_plugin)
//  741     DrawImg(pos_main_x, pos_main_y-20, (int)"4:\\zbin\\miosd\\img8.png");
//  742 #endif
//  743     DrawImg(pos_main_x, pos_main_y, (int)"4:\\zbin\\miosd\\img1.png");
//  744 #else
//  745     DrawImg(pos_main_x, pos_main_y, (int)"4:\\zbin\\miosd\\img1.png");
//  746 #endif  
//  747     break;
//  748   case 6:
//  749 #ifdef NATICQ
//  750 #ifdef EVILFOX
//  751     DrawImg(pos_main_x, pos_main_y-20, (int)"4:\\zbin\\miosd\\img8.png");
//  752 #else
//  753     if(use_plugin)
//  754     DrawImg(pos_main_x, pos_main_y-20, (int)"4:\\zbin\\miosd\\img8.png");
//  755 #endif
//  756     DrawImg(pos_main_x, pos_main_y, (int)"4:\\zbin\\miosd\\img1.png");
//  757 #else
//  758     DrawImg(pos_main_x, pos_main_y, (int)"4:\\zbin\\miosd\\img1.png");
//  759 #endif
//  760     break;
//  761   case 7:
//  762   case 8:
//  763     DrawImg(pos_link_x, pos_link_y, (int)"4:\\zbin\\miosd\\img2.png");
??OnRedraw_18:
        LDR      R1,[R4, #+116]
        LDR      R0,[R4, #+112]
        SWI      +35
//  764 #ifdef NATICQ
//  765 #ifdef EVILFOX
//  766     DrawImg(pos_main_x, pos_main_y-20, (int)"4:\\zbin\\miosd\\img8.png");
//  767 #else
//  768     if(use_plugin)
//  769     DrawImg(pos_main_x, pos_main_y-20, (int)"4:\\zbin\\miosd\\img8.png");
//  770 #endif
//  771     DrawImg(pos_main_x, pos_main_y, (int)"4:\\zbin\\miosd\\img1.png");
//  772 #else
//  773     DrawImg(pos_main_x, pos_main_y, (int)"4:\\zbin\\miosd\\img1.png");
        LDR      R1,[R4, #+104]
        LDR      R0,[R4, #+100]
        MOV      R2,R9
        SWI      +35
//  774 #endif 
//  775     DrawImg(pos_link2_x, pos_link2_y, (int)"4:\\zbin\\miosd\\img6.png"); 
        LDR      R1,[R4, #+140]
        LDR      R0,[R4, #+136]
        MOV      R2,R11
        SWI      +35
//  776     DrawImg(pos_msg_x, pos_msg_y+24, (int)"4:\\zbin\\miosd\\img4.png"); 
        LDR      R0,[R4, #+124]
        MOV      R2,R10
        ADD      R1,R0,#+24
        LDR      R0,[R4, #+120]
        SWI      +35
//  777     switch(app_pos)
        LDR      R0,[R4, #+132]
        SUBS     R0,R0,#+1
        BEQ      ??OnRedraw_19
        SUBS     R0,R0,#+1
        BEQ      ??OnRedraw_20
        SUBS     R0,R0,#+1
        BEQ      ??OnRedraw_21
        POP      {R0,R1,R4-R11,PC}
//  778       {
//  779       case 1:
//  780         DrawImg(pos_msg_x, pos_msg_y+24, (int)"4:\\zbin\\miosd\\img5.png"); 
??OnRedraw_19:
        LDR      R0,[R4, #+124]
        MOV      R2,R8
        ADD      R1,R0,#+24
        LDR      R0,[R4, #+120]
        B        ??OnRedraw_22
//  781         DrawImg(pos_msg_x, pos_msg_y+24, (int)"4:\\zbin\\miosd\\app1.png"); 
//  782         DrawImg(pos_msg_x+20, pos_msg_y+24, (int)"4:\\zbin\\miosd\\app2.png"); 
//  783         DrawImg(pos_msg_x+40, pos_msg_y+24, (int)"4:\\zbin\\miosd\\app3.png"); 
//  784         break;
//  785       case 2:
//  786         DrawImg(pos_msg_x+20, pos_msg_y+24, (int)"4:\\zbin\\miosd\\img5.png"); 
??OnRedraw_20:
        LDR      R0,[R4, #+124]
        MOV      R2,R8
        ADD      R1,R0,#+24
        LDR      R0,[R4, #+120]
        ADD      R0,R0,#+20
??OnRedraw_22:
        SWI      +35
//  787         DrawImg(pos_msg_x, pos_msg_y+24, (int)"4:\\zbin\\miosd\\app1.png"); 
        LDR      R0,[R4, #+124]
        MOV      R2,R7
        ADD      R1,R0,#+24
        LDR      R0,[R4, #+120]
        SWI      +35
//  788         DrawImg(pos_msg_x+20, pos_msg_y+24, (int)"4:\\zbin\\miosd\\app2.png"); 
        LDR      R0,[R4, #+124]
        MOV      R2,R6
        ADD      R1,R0,#+24
        LDR      R0,[R4, #+120]
        ADD      R0,R0,#+20
        SWI      +35
//  789         DrawImg(pos_msg_x+40, pos_msg_y+24, (int)"4:\\zbin\\miosd\\app3.png"); 
        LDR      R0,[R4, #+124]
        MOV      R2,R5
        ADD      R1,R0,#+24
        LDR      R0,[R4, #+120]
        ADD      R0,R0,#+40
        SWI      +35
        POP      {R0,R1,R4-R11,PC}
//  790         break;
//  791       case 3:
//  792         DrawImg(pos_msg_x+40, pos_msg_y+24, (int)"4:\\zbin\\miosd\\img5.png");
??OnRedraw_21:
        LDR      R0,[R4, #+124]
        MOV      R2,R8
        ADD      R1,R0,#+24
        LDR      R0,[R4, #+120]
        ADD      R0,R0,#+40
        SWI      +35
//  793         DrawImg(pos_msg_x, pos_msg_y+24, (int)"4:\\zbin\\miosd\\app1.png"); 
        LDR      R0,[R4, #+124]
        MOV      R2,R7
        ADD      R1,R0,#+24
        LDR      R0,[R4, #+120]
        SWI      +35
//  794         DrawImg(pos_msg_x+20, pos_msg_y+24, (int)"4:\\zbin\\miosd\\app2.png"); 
        LDR      R0,[R4, #+124]
        MOV      R2,R6
        ADD      R1,R0,#+24
        LDR      R0,[R4, #+120]
        ADD      R0,R0,#+20
        SWI      +35
//  795         DrawImg(pos_msg_x+40, pos_msg_y+24, (int)"4:\\zbin\\miosd\\app3.png");
        LDR      R0,[R4, #+124]
        MOV      R2,R5
        ADD      R1,R0,#+24
        LDR      R0,[R4, #+120]
        ADD      R0,R0,#+40
        SWI      +35
//  796         break;
//  797       }
//  798     break;
//  799   }
//  800 }
??OnRedraw_23:
        POP      {R0,R1,R4-R11,PC}  ;; return
        DATA
??OnRedraw_2:
        DC32     `?<Constant "4:\\\\zbin\\\\miosd\\\\img1.png">`
        DC32     reboot_ref
        CFI EndBlock cfiBlock21

        RSEG CODE:CODE:NOROOT(2)
        CFI Block cfiBlock22 Using cfiCommon0
        CFI NoFunction
        THUMB
??onCreate??rT:
        BX       PC
        Nop      
        CFI EndBlock cfiBlock22
        REQUIRE onCreate
//  801 

        RSEG CODE:CODE:NOROOT(2)
        CFI Block cfiBlock23 Using cfiCommon1
        CFI Function onCreate
        ARM
//  802 void onCreate(MAIN_GUI *data, void *(*malloc_adr)(int)) //Create
//  803 {
//  804   //    
//  805   data->gui.state=1;
onCreate:
        MOV      R1,#+1
        STRB     R1,[R0, #+12]
//  806 //  pos=1;
//  807 }
        BX       LR               ;; return
        CFI EndBlock cfiBlock23

        RSEG CODE:CODE:NOROOT(2)
        CFI Block cfiBlock24 Using cfiCommon0
        CFI NoFunction
        THUMB
??onClose??rT:
        BX       PC
        Nop      
        CFI EndBlock cfiBlock24
        REQUIRE onClose
//  808 

        RSEG CODE:CODE:NOROOT(2)
        CFI Block cfiBlock25 Using cfiCommon1
        CFI Function onClose
        ARM
//  809 void onClose(MAIN_GUI *data, void (*mfree_adr)(void *)) //Close
//  810 {
onClose:
        PUSH     {R4,R5,LR}
        CFI ?RET Frame(CFA, -4)
        CFI R5 Frame(CFA, -8)
        CFI R4 Frame(CFA, -12)
        CFI CFA R13+12
        MOV      R4,R0
//  811   ker_state=0;
        LDR      R0,??DataTable12  ;; screen
        MOV      R5,#+0
        STR      R5,[R0, #+56]
//  812   mfree(screen.bitmap);
        LDR      R0,[R0, #+8]
        SWI      +21
//  813   //     
//  814   data->gui.state=0;
        STRB     R5,[R4, #+12]
//  815 }
        POP      {R4,R5,PC}       ;; return
        CFI EndBlock cfiBlock25

        RSEG CODE:CODE:NOROOT(2)
        DATA
??DataTable12:
        DC32     screen

        RSEG CODE:CODE:NOROOT(2)
        CFI Block cfiBlock26 Using cfiCommon0
        CFI NoFunction
        THUMB
??onFocus??rT:
        BX       PC
        Nop      
        CFI EndBlock cfiBlock26
        REQUIRE onFocus
//  816 

        RSEG CODE:CODE:NOROOT(2)
        CFI Block cfiBlock27 Using cfiCommon1
        CFI Function onFocus
        ARM
//  817 void onFocus(MAIN_GUI *data, void *(*malloc_adr)(int), void (*mfree_adr)(void *))//Focus
//  818 {
//  819   data->gui.state=2;
onFocus:
        MOV      R1,#+2
        STRB     R1,[R0, #+12]
//  820 }
        BX       LR               ;; return
        CFI EndBlock cfiBlock27

        RSEG CODE:CODE:NOROOT(2)
        CFI Block cfiBlock28 Using cfiCommon0
        CFI NoFunction
        THUMB
??onUnfocus??rT:
        BX       PC
        Nop      
        CFI EndBlock cfiBlock28
        REQUIRE onUnfocus
//  821 

        RSEG CODE:CODE:NOROOT(2)
        CFI Block cfiBlock29 Using cfiCommon1
        CFI Function onUnfocus
        ARM
//  822 void onUnfocus(MAIN_GUI *data, void (*mfree_adr)(void *)) //Unfocus
//  823 {
onUnfocus:
        PUSH     {R4,LR}
        CFI ?RET Frame(CFA, -4)
        CFI R4 Frame(CFA, -8)
        CFI CFA R13+8
        MOV      R4,R0
//  824   CloseCSM(MAINCSM_ID);
        LDR      R0,??onUnfocus_0  ;; screen + 80
        LDR      R0,[R0, #+0]
        SWI      +508
//  825   if (data->gui.state!=2) return;
        LDRB     R0,[R4, #+12]
        CMP      R0,#+2
//  826   data->gui.state=1;
        MOVEQ    R0,#+1
        STRBEQ   R0,[R4, #+12]
//  827 }
        POP      {R4,PC}          ;; return
        DATA
??onUnfocus_0:
        DC32     screen + 80
        CFI EndBlock cfiBlock29

        RSEG CODE:CODE:NOROOT(2)
        CFI Block cfiBlock30 Using cfiCommon0
        CFI NoFunction
        THUMB
??OnKey??rT:
        BX       PC
        Nop      
        CFI EndBlock cfiBlock30
        REQUIRE OnKey
//  828 
//  829 void create_connect(void);
//  830 

        RSEG CODE:CODE:NOROOT(2)
        CFI Block cfiBlock31 Using cfiCommon1
        CFI Function OnKey
        ARM
//  831 int OnKey(MAIN_GUI *data, GUI_MSG *msg) //OnKey
//  832 {
OnKey:
        PUSH     {R4-R7,LR}
        CFI ?RET Frame(CFA, -4)
        CFI R7 Frame(CFA, -8)
        CFI R6 Frame(CFA, -12)
        CFI R5 Frame(CFA, -16)
        CFI R4 Frame(CFA, -20)
        CFI CFA R13+20
//  833   if(lock_keys)
        LDR      R4,??DataTable23  ;; screen
        MOV      R5,R1
        LDR      R0,[R4, #+108]
        CMP      R0,#+0
        POPEQ    {R4-R7,PC}
//  834   {
//  835     DirectRedrawGUI();
        SWI      +319
//  836   if (msg->gbsmsg->msg==KEY_DOWN)
        LDR      R0,[R5, #+4]
        MOV      R2,#+147
        LDR      R1,[R0, #+4]
        ORR      R2,R2,#0x100
        CMP      R1,R2
        BNE      ??OnKey_1
//  837   {          
//  838     switch(msg->gbsmsg->submess)
        LDR      R0,[R0, #+8]
        LDR      R1,[R4, #+132]
        LDR      R2,[R4, #+92]
        MOV      R5,#+5
        MOV      R3,#+544
        MOV      R6,#+1
        MOV      R12,#+8
        MOV      R7,#+0
        SUB      R0,R0,#+4
        CMP      R0,#+58
        BHI      ??OnKey_1
        ADR      LR,??OnKey_0
        LDRB     LR,[LR, R0]
        ADD      PC,PC,LR, LSL #+2
        DATA
??OnKey_0:
        DC8      +25,+23,+23,+23
        DC8      +23,+23,+23,+23
        DC8      +23,+23,+23,+23
        DC8      +23,+23,+23,+23
        DC8      +23,+23,+23,+23
        DC8      +23,+23,+63,+23
        DC8      +23,+23,+23,+23
        DC8      +23,+23,+23,+23
        DC8      +23,+23,+23,+23
        DC8      +23,+23,+23,+23
        DC8      +23,+23,+23,+23
        DC8      +23,+23,+23,+23
        DC8      +23,+14,+23,+23
        DC8      +23,+23,+23,+107
        DC8      +95,+38,+47,+0
        ARM
//  839     {
//  840     case 0x35:
//  841       if(pos==1)
??OnKey_2:
        CMP      R2,#+1
        BNE      ??OnKey_1
//  842       {
//  843         ffq=1;
        STR      R6,[R4, #+168]
//  844         GBS_DelTimer(&mytmr2);
        ADD      R0,R3,R4
        SWI      +396
//  845       engade_weather=0;
//  846       SUBPROC((void *)create_connect);
        LDR      R0,??DataTable30  ;; create_connect
        STR      R7,[R4, #+128]
        SWI      +369
//  847       DirectRedrawGUI();
        SWI      +319
//  848       }
//  849 /*      if(pos==3)
//  850       {
//  851         switch_gprs_info=(!switch_gprs_info);
//  852         DirectRedrawGUI();
//  853       }*/
//  854       break;
//  855       case RIGHT_SOFT:
//  856       if(key_mode==1) goto set1;
//  857       else goto set2;
//  858       case LEFT_BUTTON:
//  859         if((pos==5)&&(app_pos>1))
//  860         {
//  861           app_pos--;
//  862           lock_keys=0;
//  863           phase=8;
//  864           DoShowIt();
//  865        //   DirectRedrawGUI();
//  866         }
//  867         else
//  868         {
//  869         set1:
//  870           ffq=1;
//  871           GBS_DelTimer(&mytmr2);
//  872           if(key_mode==1)
//  873           {
//  874       lock_keys=0;
//  875       phase=5;
//  876       DoShowIt();
//  877           }
//  878         }
//  879       break;
//  880       case RIGHT_BUTTON:
//  881         if(pos==5)
//  882         {
//  883           app_pos++;
//  884           if(app_pos==4) app_pos--;
//  885           else
//  886           {
//  887             lock_keys=0;
//  888             phase=8;
//  889             DoShowIt();
//  890      //       DirectRedrawGUI();
//  891           }
//  892         }
//  893         else
//  894         {
//  895         set2:
//  896           ffq=1;
//  897           GBS_DelTimer(&mytmr2);
//  898           if(key_mode==2)
//  899           {
//  900       lock_keys=0;
//  901       phase=5;
//  902       DoShowIt();
//  903           }
//  904         }
//  905       break;
//  906     case ENTER_BUTTON:
//  907       if(pos==5)
//  908       {
//  909         WSHDR *elfname=AllocWS(256);
//  910         switch(app_pos)
//  911         {
//  912         case 1:
//  913           app_pos=1;
//  914 #ifdef EVILFOX
//  915           wsprintf(elfname,(char*)"4:\\zbin\\naticq\\naticq.elf");
//  916 #else
//  917           wsprintf(elfname, link1);
//  918 #endif
//  919           ExecuteFile(elfname,NULL,NULL);
//  920           FreeWS(elfname);
//  921           return(1);
//  922 //          break;
//  923         case 2:
//  924           app_pos=1;
//  925 #ifdef EVILFOX
//  926           wsprintf(elfname,(char*)"4:\\Zbin\\balletmini\\BalletMini.elf");
//  927 #else
//  928           wsprintf(elfname, link2);
//  929 #endif
//  930           ExecuteFile(elfname,NULL,NULL);
//  931           FreeWS(elfname);
//  932           return(1);
//  933 //          break;
//  934         case 3:
//  935           app_pos=1;
//  936 #ifdef EVILFOX
//  937           wsprintf(elfname,(char*)"4:\\Zbin\\siejc\\siejc.elf");
//  938 #else
//  939           wsprintf(elfname, link3);
//  940 #endif
//  941           ExecuteFile(elfname,NULL,NULL);
//  942           FreeWS(elfname);
//  943           return(1);
//  944 //          break;
//  945         }
//  946       }
//  947       break;
//  948     case DOWN_BUTTON:
//  949       {
//  950         ffq=1;
//  951         GBS_DelTimer(&mytmr2);
//  952         pos++;
//  953 #ifdef NATICQ
//  954 #ifdef EVILFOX
//  955         if (pos==6) pos=0;
//  956 #else
//  957         if(use_plugin)
//  958         {
//  959         if (pos==6) pos=0;
//  960         }
//  961         else
//  962         {
//  963           if (pos==6) pos=1;
//  964         }
//  965 #endif
//  966 #else
//  967         if (pos==6) pos=1;
//  968 #endif
//  969         lock_keys=0;
//  970         phase=4;
//  971         DoShowIt();
//  972       }
//  973         break;
//  974     case UP_BUTTON:
//  975        {
//  976          ffq=1;
//  977          GBS_DelTimer(&mytmr2);
//  978           pos--;
//  979 #ifdef NATICQ
//  980 #ifdef EVILFOX
//  981           if (pos==-1) pos=5;
//  982 #else
//  983           if(use_plugin)
//  984           {
//  985           if (pos==-1) pos=5;
//  986           }
//  987           else
//  988           {
//  989             if (pos==0) pos=5;
//  990           }
//  991 #endif
//  992 #else
//  993           if (pos==0) pos=5;
//  994 #endif
//  995           lock_keys=0;
//  996           phase=4;
//  997           DoShowIt();
//  998        }
//  999         break;        
// 1000     }
// 1001   }
// 1002   }
// 1003   return(0);
??OnKey_1:
        MOV      R0,#+0
        POP      {R4-R7,PC}       ;; return
??OnKey_3:
        LDR      R0,[R4, #+88]
        CMP      R0,#+1
        BNE      ??OnKey_4
??OnKey_5:
        STR      R6,[R4, #+168]
        ADD      R0,R3,R4
        SWI      +396
        LDR      R0,[R4, #+88]
        CMP      R0,#+1
        BNE      ??OnKey_1
??OnKey_6:
        STR      R7,[R4, #+108]
        STR      R5,[R4, #+96]
??OnKey_7:
        BL       DoShowIt
        B        ??OnKey_8
??OnKey_9:
        CMP      R2,#+5
        BNE      ??OnKey_5
        CMP      R1,#+2
        BLT      ??OnKey_5
        SUB      R0,R1,#+1
        STR      R0,[R4, #+132]
??OnKey_10:
        STR      R7,[R4, #+108]
        STR      R12,[R4, #+96]
        B        ??OnKey_7
??OnKey_11:
        CMP      R2,#+5
        BNE      ??OnKey_4
        ADD      R0,R1,#+1
        STR      R0,[R4, #+132]
        CMP      R0,#+4
        MOVEQ    R0,#+3
        STREQ    R0,[R4, #+132]
        BEQ      ??OnKey_1
        B        ??OnKey_10
??OnKey_4:
        STR      R6,[R4, #+168]
        ADD      R0,R3,R4
        SWI      +396
        LDR      R0,[R4, #+88]
        CMP      R0,#+2
        BNE      ??OnKey_1
        B        ??OnKey_6
??OnKey_12:
        CMP      R2,#+5
        BNE      ??OnKey_1
        MOV      R0,#+256
        SWI      +293
        LDR      R1,??OnKey_13    ;; `?<Constant "4:\\\\zbin\\\\naticq\\\\naticq...">`
        MOV      R5,R0
        LDR      R0,[R4, #+132]
        SUBS     R0,R0,#+1
        BEQ      ??OnKey_14
        SUBS     R0,R0,#+1
        BEQ      ??OnKey_15
        SUBS     R0,R0,#+1
        BEQ      ??OnKey_16
??OnKey_8:
        MOV      R0,#+0
        POP      {R4-R7,PC}
??OnKey_14:
        STR      R6,[R4, #+132]
        B        ??OnKey_17
??OnKey_15:
        STR      R6,[R4, #+132]
        ADD      R1,R1,#+28
??OnKey_17:
        MOV      R0,R5
        SWI      +292
        MOV      R2,#+0
        MOV      R1,R2
        MOV      R0,R5
        SWI      +148
        MOV      R0,R5
        SWI      +297
        MOV      R0,R6
        POP      {R4-R7,PC}
??OnKey_16:
        STR      R6,[R4, #+132]
        ADD      R1,R1,#+64
        B        ??OnKey_17
??OnKey_18:
        STR      R6,[R4, #+168]
        ADD      R0,R3,R4
        SWI      +396
        LDR      R0,[R4, #+92]
        ADD      R0,R0,#+1
        STR      R0,[R4, #+92]
        CMP      R0,#+6
        STREQ    R6,[R4, #+92]
??OnKey_19:
        STR      R7,[R4, #+108]
        MOV      R0,#+4
        STR      R0,[R4, #+96]
        B        ??OnKey_7
??OnKey_20:
        STR      R6,[R4, #+168]
        ADD      R0,R3,R4
        SWI      +396
        LDR      R0,[R4, #+92]
        SUBS     R0,R0,#+1
        STR      R0,[R4, #+92]
        BNE      ??OnKey_19
        STR      R5,[R4, #+92]
        B        ??OnKey_19
        DATA
??OnKey_13:
        DC32     `?<Constant "4:\\\\zbin\\\\naticq\\\\naticq...">`
        CFI EndBlock cfiBlock31
// 1004 }

        RSEG CODE:CODE:NOROOT(2)
        CFI Block cfiBlock32 Using cfiCommon0
        CFI NoFunction
        THUMB
??method8??rT:
        BX       PC
        Nop      
        CFI EndBlock cfiBlock32
        REQUIRE method8
// 1005 

        RSEG CODE:CODE:NOROOT(2)
        CFI Block cfiBlock33 Using cfiCommon1
        CFI Function method8
        ARM
// 1006 int method8(void){return(0);}
method8:
        MOV      R0,#+0
        BX       LR               ;; return
        CFI EndBlock cfiBlock33

        RSEG CODE:CODE:NOROOT(2)
        CFI Block cfiBlock34 Using cfiCommon0
        CFI NoFunction
        THUMB
??method9??rT:
        BX       PC
        Nop      
        CFI EndBlock cfiBlock34
        REQUIRE method9
// 1007 

        RSEG CODE:CODE:NOROOT(2)
        CFI Block cfiBlock35 Using cfiCommon1
        CFI Function method9
        ARM
// 1008 int method9(void){return(0);}
method9:
        MOV      R0,#+0
        BX       LR               ;; return
        CFI EndBlock cfiBlock35

        RSEG CODE:CODE:NOROOT(2)
        CFI Block cfiBlock36 Using cfiCommon0
        CFI NoFunction
        THUMB
??ElfKiller??rT:
        BX       PC
        Nop      
        CFI EndBlock cfiBlock36
        REQUIRE ElfKiller
// 1009 
// 1010 extern void kill_data(void *p,void (*func_p)(void *));

        RSEG CODE:CODE:NOROOT(2)
        CFI Block cfiBlock37 Using cfiCommon1
        CFI Function ElfKiller
        ARM
// 1011 void ElfKiller(void)
// 1012 {
ElfKiller:
        PUSH     {LR}
        CFI ?RET Frame(CFA, -4)
        CFI CFA R13+4
// 1013   extern void *ELF_BEGIN;
// 1014   kill_data(&ELF_BEGIN,(void (*)(void *))mfree_adr());
        SWI      +32789
        MOV      R1,R0
        LDR      R0,??DataTable16  ;; ELF_BEGIN
        POP      {LR}             ;; Pop
        CFI ?RET R14
        CFI CFA R13+0
        _BF      kill_data,??kill_data??rA  ;; tailcall
        CFI EndBlock cfiBlock37
// 1015 }

        RSEG CODE:CODE:NOROOT(2)
        CFI Block cfiBlock38 Using cfiCommon0
        CFI NoFunction
        THUMB
??maincsm_oncreate??rT:
        BX       PC
        Nop      
        CFI EndBlock cfiBlock38
        REQUIRE maincsm_oncreate
// 1016 
// 1017 //   ,    ,   
// 1018 const void * const gui_methods[11]={
// 1019   (void *)OnRedraw,	//Redraw
// 1020   (void *)onCreate,	//Create
// 1021   (void *)onClose,	//Close
// 1022   (void *)onFocus,	//Focus
// 1023   (void *)onUnfocus,	//Unfocus
// 1024   (void *)OnKey,	//OnKey
// 1025   0,
// 1026   (void *)kill_data,	//Destroy
// 1027   (void *)method8,
// 1028   (void *)method9,
// 1029   0
// 1030 };
// 1031 
// 1032 //    GUI
// 1033 const RECT Canvas={0,0,0,0};
// 1034 
// 1035 //     CSM.   
// 1036 //  GUI,  ID   MAINGUI_ID
// 1037 //    -   ;)
// 1038 
// 1039 #pragma inline
// 1040 void patch_rect(const RECT*rcc,int x,int y, int x2, int y2)
// 1041 {
// 1042   RECT *rc=(RECT *)rcc;
// 1043   rc->x=x;
// 1044   rc->y=y;
// 1045   rc->x2=x2;
// 1046   rc->y2=y2;
// 1047 }
// 1048 

        RSEG CODE:CODE:NOROOT(2)
        CFI Block cfiBlock39 Using cfiCommon1
        CFI Function maincsm_oncreate
        ARM
// 1049 void maincsm_oncreate(CSM_RAM *data)
// 1050 {
maincsm_oncreate:
        PUSH     {R4-R7,LR}
        CFI ?RET Frame(CFA, -4)
        CFI R7 Frame(CFA, -8)
        CFI R6 Frame(CFA, -12)
        CFI R5 Frame(CFA, -16)
        CFI R4 Frame(CFA, -20)
        CFI CFA R13+20
// 1051   MAIN_GUI *main_gui=malloc(sizeof(MAIN_GUI));
// 1052   MAIN_CSM*csm=(MAIN_CSM*)data;
// 1053   zeromem(main_gui,sizeof(MAIN_GUI));
// 1054   main_gui->gui.canvas=(void *)(&Canvas);
        LDR      R6,??maincsm_oncreate_0  ;; Canvas
        MOV      R4,R0
        MOV      R0,#+64
        SWI      +20
        MOV      R5,R0
        MOV      R1,#+64
        SWI      +285
        STR      R6,[R5, #+0]
// 1055   //main_gui->gui.flag30=2;
// 1056   main_gui->gui.methods=(void *)gui_methods;
        ADD      R0,R6,#+8
        STR      R0,[R5, #+4]
// 1057   main_gui->gui.item_ll.data_mfree=(void (*)(void *))mfree_adr();
        SWI      +32789
        STR      R0,[R5, #+32]
// 1058   patch_rect((RECT*)&Canvas,0,YDISP,ScreenW()-1,ScreenH()-1);
        SWI      +33161
        MOV      R7,R0
        SWI      +33160
        SUB      R1,R7,#+1
        SUB      R0,R0,#+1
        MOV      R2,#+0
        STRH     R2,[R6, #+0]
        MOV      R3,#+24
        STRH     R3,[R6, #+2]
        STRH     R0,[R6, #+4]
        STRH     R1,[R6, #+6]
// 1059   csm->csm.state=0;
        STR      R2,[R4, #+16]
// 1060   csm->csm.unk1=0;
        STR      R2,[R4, #+20]
// 1061   csm->gui_id=CreateGUI(main_gui);
        MOV      R0,R5
        SWI      +311
        STR      R0,[R4, #+40]
// 1062 }
        POP      {R4-R7,PC}       ;; return
        DATA
??maincsm_oncreate_0:
        DC32     Canvas
        CFI EndBlock cfiBlock39

        RSEG CODE:CODE:NOROOT(2)
        CFI Block cfiBlock40 Using cfiCommon0
        CFI NoFunction
        THUMB
??maincsm_onclose??rT:
        BX       PC
        Nop      
        CFI EndBlock cfiBlock40
        REQUIRE maincsm_onclose
// 1063 
// 1064 //     CSM.    

        RSEG CODE:CODE:NOROOT(2)
        CFI Block cfiBlock41 Using cfiCommon1
        CFI Function maincsm_onclose
        ARM
// 1065 void maincsm_onclose(CSM_RAM *csm)
// 1066 {
// 1067   //SUBPROC((void *)ElfKiller);
// 1068 }
maincsm_onclose:
        BX       LR               ;; return
        CFI EndBlock cfiBlock41

        RSEG CODE:CODE:NOROOT(2)
        CFI Block cfiBlock42 Using cfiCommon0
        CFI NoFunction
        THUMB
??maincsm_onmessage??rT:
        BX       PC
        Nop      
        CFI EndBlock cfiBlock42
        REQUIRE maincsm_onmessage
// 1069 
// 1070 //    CSM

        RSEG CODE:CODE:NOROOT(2)
        CFI Block cfiBlock43 Using cfiCommon1
        CFI Function maincsm_onmessage
        ARM
// 1071 int maincsm_onmessage(CSM_RAM *data, GBS_MSG *msg)
// 1072 {
// 1073   MAIN_CSM *csm=(MAIN_CSM*)data;
// 1074    if ((msg->msg==MSG_GUI_DESTROYED)&&((int)msg->data0==csm->gui_id))
maincsm_onmessage:
        LDR      R2,[R1, #+4]
        MOV      R3,#+14
        ORR      R3,R3,#0x6400
        CMP      R2,R3
        BNE      ??maincsm_onmessage_0
        LDR      R1,[R1, #+12]
        LDR      R2,[R0, #+40]
        CMP      R1,R2
// 1075   {
// 1076     csm->csm.state=-3;
        MVNEQ    R1,#+2
        STREQ    R1,[R0, #+16]
// 1077   } 
// 1078   return(1); 
??maincsm_onmessage_0:
        MOV      R0,#+1
        BX       LR               ;; return
        CFI EndBlock cfiBlock43
// 1079 }

        RSEG CODE:CODE:NOROOT(2)
        CFI Block cfiBlock44 Using cfiCommon0
        CFI NoFunction
        THUMB
??UpdateCSMname??rT:
        BX       PC
        Nop      
        CFI EndBlock cfiBlock44
        REQUIRE UpdateCSMname

        RSEG DATA_C:CONST:SORT:NOROOT(2)
`?<Constant "No Data Yet">`:
        DATA
        DC8 "No Data Yet"
        DC8 "Weather: Ventspils"
        DC8 0
        DC8 "On: %s"
        DC8 0

        RSEG DATA_C:CONST:SORT:NOROOT(2)
`?<Constant "[%t]">`:
        DATA
        DC8 "[%t]"
        DC8 0, 0, 0
        DC8 "Battery info"
        DC8 0, 0, 0
        DC8 "%t: %d%"
        DC8 "Capacity"
        DC8 0, 0, 0
        DC8 "%t: On"
        DC8 0
        DC8 "Charger"
        DC8 "%t: Off"
        DC8 "Last charge"
        DC8 "System info"
        DC8 "%02d%s, %02d:%02d:%02d"
        DC8 0
        DC8 "%t: %02d:%02d:%02d"
        DC8 0
        DC8 "Runtime"
        DC8 "%t: %dKb"
        DC8 0, 0, 0
        DC8 "FreeRam"
        DC8 "%t: %dB/s"
        DC8 0, 0
        DC8 "Speed"
        DC8 0, 0
        DC8 "Session"
        DC8 "%t: %sKb"
        DC8 0, 0, 0
        DC8 "Last Ses"
        DC8 0, 0, 0
        DC8 "%t: %s"
        DC8 0
        DC8 "Total"
        DC8 0, 0
        DC8 "GPRS Offline"
        DC8 0, 0, 0
        DC8 "GPRS info"
        DC8 0, 0

        RSEG DATA_C:CONST:SORT:NOROOT(2)
        DATA
        DC8 "%t:"

        RSEG DATA_C:CONST:SORT:NOROOT(2)
        DATA
        DC8 "jan"

        RSEG DATA_C:CONST:SORT:NOROOT(2)
        DATA
        DC8 "feb"

        RSEG DATA_C:CONST:SORT:NOROOT(2)
        DATA
        DC8 "mar"

        RSEG DATA_C:CONST:SORT:NOROOT(2)
        DATA
        DC8 "apr"

        RSEG DATA_C:CONST:SORT:NOROOT(2)
        DATA
        DC8 "may"

        RSEG DATA_C:CONST:SORT:NOROOT(2)
        DATA
        DC8 "jun"

        RSEG DATA_C:CONST:SORT:NOROOT(2)
        DATA
        DC8 "aug"

        RSEG DATA_C:CONST:SORT:NOROOT(2)
        DATA
        DC8 "sep"

        RSEG DATA_C:CONST:SORT:NOROOT(2)
        DATA
        DC8 "jul"

        RSEG DATA_C:CONST:SORT:NOROOT(2)
        DATA
        DC8 "oct"

        RSEG DATA_C:CONST:SORT:NOROOT(2)
        DATA
        DC8 "nov"

        RSEG DATA_C:CONST:SORT:NOROOT(2)
        DATA
        DC8 "dec"

        RSEG DATA_C:CONST:SORT:NOROOT(2)
        DATA
        DC8 "%t "

        RSEG DATA_C:CONST:SORT:NOROOT(2)
`?<Constant "Naticq">`:
        DATA
        DC8 "Naticq"
        DC8 0
        DC8 "Ballet"
        DC8 0
        DC8 "SieJC"
        DC8 0, 0

        RSEG DATA_C:CONST:SORT:NOROOT(2)
`?<Constant "4:\\\\zbin\\\\miosd\\\\img1.png">`:
        DATA
        DC8 "4:\\zbin\\miosd\\img1.png"
        DC8 0
        DC8 "4:\\zbin\\miosd\\img2.png"
        DC8 0
        DC8 "4:\\zbin\\miosd\\img6.png"
        DC8 0
        DC8 "4:\\zbin\\miosd\\img7.png"
        DC8 0
        DC8 "4:\\zbin\\miosd\\img4.png"
        DC8 0
        DC8 "4:\\zbin\\miosd\\img3.png"
        DC8 0
        DC8 "4:\\zbin\\miosd\\img5.png"
        DC8 0
        DC8 "4:\\zbin\\miosd\\app1.png"
        DC8 0
        DC8 "4:\\zbin\\miosd\\app2.png"
        DC8 0
        DC8 "4:\\zbin\\miosd\\app3.png"
        DC8 0

        RSEG DATA_C:CONST:SORT:NOROOT(2)
`?<Constant "4:\\\\zbin\\\\naticq\\\\naticq...">`:
        DATA
        DC8 "4:\\zbin\\naticq\\naticq.elf"
        DC8 0, 0
        DC8 "4:\\Zbin\\balletmini\\BalletMini.elf"
        DC8 0, 0
        DC8 "4:\\Zbin\\siejc\\siejc.elf"

        RSEG DATA_C:CONST:SORT:NOROOT(2)
`?<Constant "GET /wap/weatherr.php...">`:
        DATA
        DC8 47H, 45H, 54H, 20H, 2FH, 77H, 61H, 70H
        DC8 2FH, 77H, 65H, 61H, 74H, 68H, 65H, 72H
        DC8 72H, 2EH, 70H, 68H, 70H, 3FH, 63H, 69H
        DC8 74H, 79H, 3DH, 76H, 65H, 6EH, 74H, 73H
        DC8 70H, 69H, 6CH, 73H, 20H, 48H, 54H, 54H
        DC8 50H, 2FH, 31H, 2EH, 31H, 0AH, 41H, 63H
        DC8 63H, 65H, 70H, 74H, 2DH, 4CH, 61H, 6EH
        DC8 67H, 75H, 61H, 67H, 65H, 3AH, 20H, 65H
        DC8 6EH, 2DH, 75H, 73H, 0AH, 41H, 63H, 63H
        DC8 65H, 70H, 74H, 2DH, 45H, 6EH, 63H, 6FH
        DC8 64H, 69H, 6EH, 67H, 3AH, 20H, 67H, 7AH
        DC8 69H, 70H, 2CH, 20H, 64H, 65H, 66H, 6CH
        DC8 61H, 74H, 65H, 0AH, 55H, 73H, 65H, 72H
        DC8 2DH, 41H, 67H, 65H, 6EH, 74H, 3AH, 20H
        DC8 4DH, 6FH, 7AH, 69H, 6CH, 6CH, 61H, 2FH
        DC8 34H, 2EH, 30H, 20H, 28H, 63H, 6FH, 6DH
        DC8 70H, 61H, 74H, 69H, 62H, 6CH, 65H, 3BH
        DC8 20H, 4DH, 53H, 49H, 45H, 20H, 36H, 2EH
        DC8 30H, 3BH, 20H, 57H, 69H, 6EH, 64H, 6FH
        DC8 77H, 73H, 20H, 4EH, 54H, 20H, 35H, 2EH
        DC8 31H, 3BH, 20H, 53H, 56H, 31H, 29H, 0AH
        DC8 48H, 6FH, 73H, 74H, 3AH, 20H, 77H, 77H
        DC8 77H, 2EH, 31H, 31H, 38H, 2EH, 6CH, 76H
        DC8 0AH, 43H, 6FH, 6EH, 6EH, 65H, 63H, 74H
        DC8 69H, 6FH, 6EH, 3AH, 20H, 43H, 6CH, 6FH
        DC8 73H, 65H, 0AH, 0AH, 0
        DC8 0, 0, 0

        RSEG DATA_C:CONST:SORT:NOROOT(2)
`?<Constant "<p>Paslaik: ">`:
        DATA
        DC8 "<p>Paslaik: "
        DC8 0, 0, 0

        RSEG DATA_C:CONST:SORT:NOROOT(2)
`?<Constant "<br/>">`:
        DATA
        DC8 "<br/>"
        DC8 0, 0
        DC8 "%s: %s"
        DC8 0
        DC8 "Temperature"
        DC8 "Wind"
        DC8 0, 0, 0
        DC8 "%02d-%02d at %02d:%02d"
        DC8 0

        RSEG DATA_C:CONST:SORT:NOROOT(2)
`?<Constant "http://www.118.lv/ima...">`:
        DATA
        DC8 "http://www.118.lv/images/icons/weather/"

        RSEG DATA_C:CONST:SORT:NOROOT(2)
`?<Constant ".gif">`:
        DATA
        DC8 ".gif"
        DC8 0, 0, 0

        RSEG DATA_C:CONST:SORT:NOROOT(2)
`?<Constant "4:\\\\zbin\\\\miosd\\\\miosd2....">`:
        DATA
        DC8 "4:\\zbin\\miosd\\miosd2.file"
        DC8 0, 0
        DC8 "Unknown"

        RSEG DATA_C:CONST:SORT:NOROOT(0)
        DATA
        DC8 "%d"

        RSEG DATA_C:CONST:SORT:NOROOT(2)
`?<Constant "Active: %02d:%02d:%02d">`:
        DATA
        DC8 "Active: %02d:%02d:%02d"
        DC8 0

        RSEG DATA_C:CONST:SORT:NOROOT(2)
`?<Constant "MIOSD 1.5 config upda...">`:
        DATA
        DC8 "MIOSD 1.5 config updated!"
        DC8 0, 0
        DC8 "Charging(%dmin)"
        DC8 "%02d:%02d, %02d-%02d"
        DC8 0, 0, 0
        DC8 "4:\\zbin\\miosd\\miosd.file"
        DC8 0, 0, 0
        DC8 "Never"
        DC8 0, 0

        RSEG DATA_C:CONST:SORT:NOROOT(0)
`?<Constant "">`:
        DATA
        DC8 ""
// 1080 
// 1081 //   MAINCSM
// 1082 const struct
// 1083 {
// 1084   CSM_DESC maincsm;
// 1085   WSHDR maincsm_name;

        RSEG DATA_C:CONST:SORT:NOROOT(2)
`?<Constant "MIOSD">`:
        DATA
        DC8 "MIOSD"
        DC8 0, 0
// 1086 }MAINCSM =
MAINCSM:
        DC32 maincsm_onmessage, maincsm_oncreate, 0, 0, 0, 0, maincsm_onclose
        DC32 44, 1, minus11, maincsm_name_body, 55AACCCCH, 3333AA55H, 0
        DC16 139
        DC8 0, 0

        RSEG DATA_C:CONST:SORT:NOROOT(2)
minus11:
        DATA
        DC32 -11

        RSEG DATA_C:CONST:SORT:NOROOT(2)
Canvas:
        DATA
        DC16 0, 0, 0, 0
gui_methods:
        DC32 OnRedraw, onCreate, onClose, onFocus, onUnfocus, OnKey, 0H
        DC32 kill_data, method8, method9, 0H
// 1087 {
// 1088   {
// 1089   maincsm_onmessage,
// 1090   maincsm_oncreate,
// 1091 #ifdef NEWSGOLD
// 1092   0,
// 1093   0,
// 1094   0,
// 1095   0,
// 1096 #endif
// 1097   maincsm_onclose,
// 1098   sizeof(MAIN_CSM),
// 1099   1,
// 1100   &minus11
// 1101   },
// 1102   {
// 1103     maincsm_name_body,
// 1104     NAMECSM_MAGIC1,
// 1105     NAMECSM_MAGIC2,
// 1106     0x0,
// 1107     139
// 1108   }
// 1109 };
// 1110 
// 1111 // ,     CSM  X-Task.

        RSEG CODE:CODE:NOROOT(2)
        CFI Block cfiBlock45 Using cfiCommon1
        CFI Function UpdateCSMname
        ARM
// 1112 void UpdateCSMname(void)
// 1113 {
// 1114   wsprintf((WSHDR *)(&MAINCSM.maincsm_name),"MIOSD");
UpdateCSMname:
        LDR      R0,??UpdateCSMname_0  ;; `?<Constant "MIOSD">`
        PUSH     {LR}
        CFI ?RET Frame(CFA, -4)
        CFI CFA R13+4
        MOV      R1,R0
        ADD      R0,R0,#+48
        SWI      +292
// 1115 }
        POP      {PC}             ;; return
        DATA
??UpdateCSMname_0:
        DC32     `?<Constant "MIOSD">`
        CFI EndBlock cfiBlock45

        RSEG CODE:CODE:NOROOT(2)
        CFI Block cfiBlock46 Using cfiCommon0
        CFI NoFunction
        THUMB
??MyIDLECSM_onClose??rT:
        BX       PC
        Nop      
        CFI EndBlock cfiBlock46
        REQUIRE MyIDLECSM_onClose
// 1116 
// 1117 

        RSEG CODE:CODE:NOROOT(2)
        CFI Block cfiBlock47 Using cfiCommon1
        CFI Function MyIDLECSM_onClose
        ARM
// 1118 void MyIDLECSM_onClose(CSM_RAM *data)
// 1119 {
MyIDLECSM_onClose:
        PUSH     {R4,LR}
        CFI ?RET Frame(CFA, -4)
        CFI R4 Frame(CFA, -8)
        CFI CFA R13+8
        MOV      R4,R0
// 1120   extern void seqkill(void *data, void(*next_in_seq)(CSM_RAM *), void *data_to_kill, void *seqkiller);
// 1121   extern void *ELF_BEGIN;
// 1122   seqkill(data,old_icsm_onClose,&ELF_BEGIN,SEQKILLER_ADR());
        SWI      +33180
        LDR      R2,??DataTable16  ;; ELF_BEGIN
        MOV      R3,R0
        LDR      R0,??MyIDLECSM_onClose_0  ;; screen + 76
        LDR      R1,[R0, #+0]
        MOV      R0,R4
        POP      {R4,LR}          ;; Pop
        CFI R4 SameValue
        CFI ?RET R14
        CFI CFA R13+0
        _BF      seqkill,??seqkill??rA  ;; tailcall
        DATA
??MyIDLECSM_onClose_0:
        DC32     screen + 76
        CFI EndBlock cfiBlock47
// 1123 }

        RSEG CODE:CODE:NOROOT(2)
        DATA
??DataTable16:
        DC32     ELF_BEGIN

        RSEG CODE:CODE:NOROOT(2)
        CFI Block cfiBlock48 Using cfiCommon0
        CFI NoFunction
        THUMB
??create_connect??rT:
        BX       PC
        Nop      
        CFI EndBlock cfiBlock48
        REQUIRE create_connect
// 1124 
// 1125 #pragma inline=forced
// 1126 int toupper(int c)
// 1127 {
// 1128   if ((c>='a')&&(c<='z')) c+='A'-'a';
// 1129   return(c);
// 1130 }
// 1131 #pragma inline
// 1132 int strcmp_nocase(const char *s1,const char *s2)
// 1133 {
// 1134   int i;
// 1135   int c;
// 1136   while(!(i=(c=toupper(*s1++))-toupper(*s2++))) if (!c) break;
// 1137   return(i);
// 1138 }
// 1139 
// 1140 int con;
// 1141 #ifdef EVILFOX
// 1142 //=================================================================weather
// 1143 int sock;
// 1144 int connect_state=0;
// 1145 char buf[BUFSIZE+1];
// 1146 int pbuf=0;
// 1147 int traf=0;
// 1148 GBSTMR mytmr3;
// 1149 
// 1150 void start_again(void);
// 1151 

        RSEG CODE:CODE:NOROOT(2)
        CFI Block cfiBlock49 Using cfiCommon1
        CFI Function create_connect
        ARM
// 1152 void create_connect(void)
// 1153 {
create_connect:
        PUSH     {R4-R8,LR}
        CFI ?RET Frame(CFA, -4)
        CFI R8 Frame(CFA, -8)
        CFI R7 Frame(CFA, -12)
        CFI R6 Frame(CFA, -16)
        CFI R5 Frame(CFA, -20)
        CFI R4 Frame(CFA, -24)
        CFI CFA R13+24
// 1154   SOCK_ADDR sa;
// 1155   connect_state=0;
        LDR      R4,??DataTable23  ;; screen
        SUB      SP,SP,#+16
        CFI CFA R13+40
        MOV      R0,#+0
        STR      R0,[R4, #+192]
// 1156   pbuf=0;
        STR      R0,[R4, #+196]
// 1157   sock=socket(1,1,0);
        MOV      R2,#+0
// 1158   if (sock!=-1)
        LDR      R6,??DataTable31  ;; start_again
        MOV      R1,#+1
        MOV      R0,R1
        SWI      +371
        STR      R0,[R4, #+188]
        MOV      R0,#+188
        ORR      R0,R0,#0x1500
        ADD      R5,R0,R4
        LDR      R0,[R4, #+188]
        MVN      R7,#+0
        CMP      R0,R7
        BEQ      ??create_connect_0
// 1159   {
// 1160     sa.family=1;
        MOV      R8,#+1
        STRH     R8,[SP, #+0]
// 1161     sa.port=htons(80);
        MOV      R0,#+80
        SWI      +378
        STRH     R0,[SP, #+2]
// 1162       sa.ip=htonl(IP_ADDR(194,8,25,206));
        LDR      R0,??create_connect_1  ;; 0xffffffffc20819ce
        SWI      +379
        STR      R0,[SP, #+4]
// 1163     if (connect(sock,&sa,sizeof(sa))!=-1)
        LDR      R0,[R4, #+188]
        MOV      R2,#+16
        MOV      R1,SP
        SWI      +372
        CMP      R0,R7
// 1164     {
// 1165       connect_state=1;
        STRNE    R8,[R4, #+192]
        POPNE    {R0-R8,PC}
// 1166     }
// 1167     else
// 1168     {
// 1169       closesocket(sock);
        LDR      R0,[R4, #+188]
        SWI      +374
// 1170       GBS_StartTimerProc(&mytmr3, 2160, start_again);
// 1171     }
// 1172   }
// 1173   else
// 1174   GBS_StartTimerProc(&mytmr3, 2160, start_again);
??create_connect_0:
        MOV      R2,R6
        MOV      R1,#+2160
        MOV      R0,R5
        SWI      +77
// 1175 }
        POP      {R0-R8,PC}       ;; return
        DATA
??create_connect_1:
        DC32     0xffffffffc20819ce
        CFI EndBlock cfiBlock49

        RSEG CODE:CODE:NOROOT(2)
        CFI Block cfiBlock50 Using cfiCommon0
        CFI NoFunction
        THUMB
??start_again??rT:
        BX       PC
        Nop      
        CFI EndBlock cfiBlock50
        REQUIRE start_again
// 1176 

        RSEG CODE:CODE:NOROOT(2)
        CFI Block cfiBlock51 Using cfiCommon1
        CFI Function start_again
        ARM
// 1177 void start_again()
// 1178 {
start_again:
        PUSH     {LR}
        CFI ?RET Frame(CFA, -4)
        CFI CFA R13+4
// 1179   if(IsGPRSConnected())
        SWI      +168
        CMP      R0,#+0
        BEQ      ??start_again_0
// 1180   {
// 1181   SUBPROC((void *)create_connect);
        LDR      R0,??DataTable30  ;; create_connect
        SWI      +369
        POP      {PC}
// 1182   }
// 1183   else
// 1184   GBS_StartTimerProc(&mytmr3, 2160, start_again);
??start_again_0:
        LDR      R2,??DataTable31  ;; start_again
        LDR      R0,??start_again_1  ;; screen + 5564
        MOV      R1,#+2160
        SWI      +77
// 1185 }
        POP      {PC}             ;; return
        DATA
??start_again_1:
        DC32     screen + 5564
        CFI EndBlock cfiBlock51

        RSEG CODE:CODE:NOROOT(2)
        CFI Block cfiBlock52 Using cfiCommon0
        CFI NoFunction
        THUMB
??send_req??rT:
        BX       PC
        Nop      
        CFI EndBlock cfiBlock52
        REQUIRE send_req
// 1186 

        RSEG CODE:CODE:NOROOT(2)
        CFI Block cfiBlock53 Using cfiCommon1
        CFI Function send_req
        ARM
// 1187 void send_req(void)
// 1188 {
send_req:
        PUSH     {R4,R5,LR}
        CFI ?RET Frame(CFA, -4)
        CFI R5 Frame(CFA, -8)
        CFI R4 Frame(CFA, -12)
        CFI CFA R13+12
// 1189   char *req_buf=malloc(500);
// 1190   sprintf(req_buf,"GET /wap/weatherr.php?city=ventspils HTTP/1.1\n"
// 1191             "Accept-Language: en-us\n"
// 1192               "Accept-Encoding: gzip, deflate\n"
// 1193                 "User-Agent: Mozilla/4.0 (compatible; MSIE 6.0; Windows NT 5.1; SV1)\n"
// 1194                   "Host: www.118.lv\n"
// 1195                     "Connection: Close\n"
// 1196                       "\n"
// 1197                         );
// 1198   send(sock,req_buf,strlen(req_buf),0);
        LDR      R5,??DataTable23  ;; screen
        MOV      R0,#+500
        SWI      +20
        LDR      R1,??send_req_0  ;; `?<Constant "GET /wap/weatherr.php...">`
        MOV      R4,R0
        SWI      +22
        MOV      R0,R4
        SWI      +27
        MOV      R2,R0
        LDR      R0,[R5, #+188]
        MOV      R3,#+0
        MOV      R1,R4
        SWI      +377
// 1199   connect_state=2;
        MOV      R0,#+2
        STR      R0,[R5, #+192]
// 1200   mfree(req_buf);
        MOV      R0,R4
        SWI      +21
// 1201 }
        POP      {R4,R5,PC}       ;; return
        DATA
??send_req_0:
        DC32     `?<Constant "GET /wap/weatherr.php...">`
        CFI EndBlock cfiBlock53

        RSEG CODE:CODE:NOROOT(2)
        CFI Block cfiBlock54 Using cfiCommon0
        CFI NoFunction
        THUMB
??end_socket??rT:
        BX       PC
        Nop      
        CFI EndBlock cfiBlock54
        REQUIRE end_socket
// 1202 

        RSEG CODE:CODE:NOROOT(2)
        CFI Block cfiBlock55 Using cfiCommon1
        CFI Function end_socket
        ARM
// 1203 void end_socket(void)
// 1204 {
end_socket:
        PUSH     {R4,LR}
        CFI ?RET Frame(CFA, -4)
        CFI R4 Frame(CFA, -8)
        CFI CFA R13+8
// 1205   if (sock>=0)
        LDR      R4,??DataTable23  ;; screen
        LDR      R0,[R4, #+188]
        CMP      R0,#+0
        POPMI    {R4,PC}
// 1206   {
// 1207     shutdown(sock,2);
        MOV      R1,#+2
        SWI      +375
// 1208     closesocket(sock);
        LDR      R0,[R4, #+188]
        SWI      +374
// 1209     connect_state=0;
        MOV      R0,#+0
        STR      R0,[R4, #+192]
// 1210   }
// 1211 }
        POP      {R4,PC}          ;; return
        CFI EndBlock cfiBlock55

        RSEG CODE:CODE:NOROOT(2)
        CFI Block cfiBlock56 Using cfiCommon0
        CFI NoFunction
        THUMB
??get_answer??rT:
        BX       PC
        Nop      
        CFI EndBlock cfiBlock56
        REQUIRE get_answer
// 1212 

        RSEG CODE:CODE:NOROOT(2)
        CFI Block cfiBlock57 Using cfiCommon1
        CFI Function get_answer
        ARM
// 1213 void get_answer(void)
// 1214 {
get_answer:
        PUSH     {R4,LR}
        CFI ?RET Frame(CFA, -4)
        CFI R4 Frame(CFA, -8)
        CFI CFA R13+8
// 1215   int i=pbuf;
        LDR      R4,??DataTable23  ;; screen
// 1216   if (i==BUFSIZE)
        MOV      R1,#+136
        LDR      R0,[R4, #+196]
        ORR      R1,R1,#0x1300
        CMP      R0,R1
        BEQ      ??get_answer_0
// 1217     end_socket();
// 1218   else
// 1219   {
// 1220     traf+=i=recv(sock,buf+i,BUFSIZE-i,0);
        MOV      R3,#+0
        SUB      R2,R1,R0
        ADD      R0,R0,R4
        ADD      R1,R0,#+560
        LDR      R0,[R4, #+188]
        SWI      +376
        LDR      R1,[R4, #+200]
// 1221     if (i>=0)
        CMP      R0,#+0
        ADD      R1,R0,R1
        STR      R1,[R4, #+200]
        BMI      ??get_answer_0
// 1222     {
// 1223       pbuf+=i;
        LDR      R1,[R4, #+196]
        ADD      R0,R0,R1
        STR      R0,[R4, #+196]
        POP      {R4,PC}
// 1224     }
// 1225     else
// 1226     {
// 1227       end_socket();
??get_answer_0:
        POP      {R4,LR}          ;; Pop
        CFI R4 SameValue
        CFI ?RET R14
        CFI CFA R13+0
        B        end_socket       ;; tailcall
        CFI EndBlock cfiBlock57
// 1228     }
// 1229   }
// 1230 }

        RSEG CODE:CODE:NOROOT(2)
        DATA
??DataTable23:
        DC32     screen

        RSEG CODE:CODE:NOROOT(2)
        CFI Block cfiBlock58 Using cfiCommon0
        CFI NoFunction
        THUMB
??Parsing??rT:
        BX       PC
        Nop      
        CFI EndBlock cfiBlock58
        REQUIRE Parsing
// 1231 

        RSEG CODE:CODE:NOROOT(2)
        CFI Block cfiBlock59 Using cfiCommon1
        CFI Function Parsing
        ARM
// 1232 int Parsing()
// 1233 {
// 1234   char p1[]="<p>Paslaik: ";
Parsing:
        LDR      R1,??Parsing_0   ;; `?<Constant "<p>Paslaik: ">`
        PUSH     {R4-R11,LR}
        CFI ?RET Frame(CFA, -4)
        CFI R11 Frame(CFA, -8)
        CFI R10 Frame(CFA, -12)
        CFI R9 Frame(CFA, -16)
        CFI R8 Frame(CFA, -20)
        CFI R7 Frame(CFA, -24)
        CFI R6 Frame(CFA, -28)
        CFI R5 Frame(CFA, -32)
        CFI R4 Frame(CFA, -36)
        CFI CFA R13+36
        SUB      SP,SP,#+88
        CFI CFA R13+124
        LDM      R1,{R2-R5}
        ADD      R0,SP,#+32
        STM      R0,{R2-R5}
// 1235   char p2[]="<br/>";
        LDR      R4,??Parsing_0+0x4  ;; `?<Constant "<br/>">`
// 1236   char *s,*s1,*s2;
// 1237   int len, i ,j;
// 1238   if((s1=strstr(buf,p1))>0)
        LDR      R5,??DataTable38  ;; screen
        LDM      R4,{R2,R3}
        ADD      R0,SP,#+24
        STM      R0,{R2,R3}
        MOV      R8,#+560
        ADD      R1,SP,#+32
        ADD      R0,R8,R5
        SWI      +280
        MOVS     R10,R0
        BEQ      ??Parsing_1
// 1239   {
// 1240     s1+=strlen(p1);
        ADD      R0,SP,#+32
        SWI      +27
        ADD      R10,R0,R10
// 1241     if((s2=strstr(s1,p2))>0)
        ADD      R1,SP,#+24
        MOV      R0,R10
        SWI      +280
        CMP      R0,#+0
        BEQ      ??Parsing_2
// 1242     {
// 1243       len=s2-s1;
        SUB      R6,R0,R10
// 1244       s=malloc(len+1);
        ADD      R0,R6,#+1
        SWI      +20
        MOV      R9,R0
// 1245       strncpy(s,s1,len);
        MOV      R2,R6
        MOV      R1,R10
        SWI      +278
// 1246       s[len]='\0';
        MOV      R7,#+0
        STRB     R7,[R6, +R9]
// 1247       i=0;
// 1248       j=0;
        LDRB     R0,[R9, #+0]
        MOV      R11,#+0
        MOV      R10,R7
        CMP      R0,#+44
        BNE      ??Parsing_3
        B        ??Parsing_4
// 1249       while(s[i]!=',')
// 1250       {
// 1251         temp[i]=s[i];
??Parsing_5:
        LDRB     R1,[R11, +R9]
        ADD      R0,R11,R5
// 1252         i++;
        ADD      R11,R11,#+1
        STRB     R1,[R0, #+264]
// 1253       }
??Parsing_3:
        LDRB     R0,[R11, +R9]
        CMP      R0,#+44
        BNE      ??Parsing_5
// 1254       temp[i]='\0';
??Parsing_4:
        ADD      R0,R11,R5
        STRB     R7,[R0, #+264]
// 1255       sprintf(temp2, "%s: %s", LG_TEMP, temp);
        ADD      R3,R5,#+264
        ADD      R2,R4,#+16
        ADD      R1,R4,#+8
        ADD      R0,R5,#+440
        SWI      +22
// 1256       i++;
        ADD      R0,R11,#+1
        CMP      R0,R6
        BGE      ??Parsing_6
// 1257       while(i<len)
// 1258       {
// 1259         vejsh[j]=s[i];
??Parsing_7:
        LDRB     R2,[R0, +R9]
        ADD      R1,R10,R5
// 1260         j++;
        ADD      R10,R10,#+1
        STRB     R2,[R1, #+296]
// 1261         i++;
        ADD      R0,R0,#+1
// 1262       }
        CMP      R0,R6
        BLT      ??Parsing_7
// 1263       vejsh[j]='\0';
??Parsing_6:
        ADD      R0,R10,R5
        STRB     R7,[R0, #+296]
// 1264       sprintf(vejsh2, "%s: %s", LG_WIND, vejsh);
        ADD      R3,R5,#+296
        ADD      R2,R4,#+28
        ADD      R1,R4,#+8
        ADD      R0,R5,#+472
        SWI      +22
// 1265       mfree(s);
        MOV      R0,R9
        SWI      +21
// 1266 
// 1267   char p1_1[]="http://www.118.lv/images/icons/weather/";
        LDR      R1,??Parsing_0+0x8  ;; `?<Constant "http://www.118.lv/ima...">`
        ADD      R0,SP,#+48
        LDM      R1!,{R2,R3,R6,R9,R10}
        STM      R0!,{R2,R3,R6,R9,R10}
        LDM      R1,{R2,R3,R6,R9,R10}
// 1268   char p2_1[]=".gif";
        LDR      R1,??Parsing_0+0xC  ;; `?<Constant ".gif">`
        STM      R0,{R2,R3,R6,R9,R10}
        LDM      R1,{R2,R3}
        ADD      R0,SP,#+16
        STM      R0,{R2,R3}
// 1269   char *s_icon;
// 1270   if((s1=strstr(buf,p1_1))>0)
        ADD      R1,SP,#+48
        ADD      R0,R8,R5
        SWI      +280
        MOVS     R10,R0
        BEQ      ??Parsing_1
// 1271   {
// 1272     s1+=strlen(p1_1);
        ADD      R0,SP,#+48
        SWI      +27
        ADD      R10,R0,R10
// 1273     if((s2=strstr(s1,p2_1))>0)
        ADD      R1,SP,#+16
        MOV      R0,R10
        SWI      +280
        CMP      R0,#+0
        BEQ      ??Parsing_2
// 1274     {
// 1275       len=s2-s1;
        SUB      R6,R0,R10
// 1276       s_icon=malloc(len+1);
        ADD      R0,R6,#+1
        SWI      +20
        MOV      R8,R0
// 1277       strncpy(s_icon,s1,len);
        MOV      R2,R6
        MOV      R1,R10
        SWI      +278
// 1278       s_icon[len]='\0';
        STRB     R7,[R6, +R8]
// 1279 //      strcpy(icon_name, s_icon);
// 1280       int k=0;
        MOV      R0,#+0
// 1281       int l=0;
        MOV      R1,R0
// 1282       int y=0;
        MOV      R2,R0
        CMP      R6,#+1
        BGE      ??Parsing_8
        B        ??Parsing_9
// 1283       while(k<len)
// 1284       {
// 1285         if(s_icon[k]=='_')
??Parsing_10:
        LDRB     R3,[R0, +R8]
        CMP      R3,#+95
// 1286           l=k;
        MOVEQ    R1,R0
// 1287         k++;
        ADD      R0,R0,#+1
// 1288       }
??Parsing_8:
        CMP      R0,R6
        BLT      ??Parsing_10
// 1289       if(l>0)
        CMP      R1,#+1
        BLT      ??Parsing_9
// 1290       l++;
        ADD      R1,R1,#+1
        B        ??Parsing_9
// 1291       while(l<len)
// 1292       {
// 1293         s_icon1[y]=s_icon[l];
??Parsing_11:
        LDRB     R3,[R1, +R8]
// 1294         l++;
        ADD      R1,R1,#+1
// 1295         y++;
        ADD      R2,R2,#+1
        STRB     R3,[R0, #+328]
// 1296       }
??Parsing_9:
        CMP      R1,R6
        ADD      R0,R2,R5
        BLT      ??Parsing_11
// 1297       s_icon1[y]='\0';
        STRB     R7,[R0, #+328]
// 1298       TTime time;
// 1299       TDate date;
// 1300       GetDateTime(&date, &time);
        MOV      R1,SP
        ADD      R0,SP,#+8
        SWI      +180
// 1301       sprintf(weather_time, "%02d-%02d at %02d:%02d", date.month, date.day, time.hour, time.min);
        LDRB     R0,[SP, #+1]
        ADD      R1,R4,#+36
        PUSH     {R0}
        CFI CFA R13+128
        LDRB     R0,[SP, #+4]
        PUSH     {R0}
        CFI CFA R13+132
        LDRB     R3,[SP, #+21]
        LDRB     R2,[SP, #+20]
        ADD      R0,R5,#+504
        SWI      +22
// 1302       engade_weather=1;
        MOV      R0,#+1
        STR      R0,[R5, #+128]
// 1303       DirectRedrawGUI();
        SWI      +319
// 1304       return 1;
        MOV      R0,#+1
        ADD      SP,SP,#+8
        CFI CFA R13+124
        ADD      SP,SP,#+88
        CFI CFA R13+36
        POP      {R4-R11,PC}
        CFI CFA R13+124
// 1305     }
// 1306   }
// 1307     }
// 1308   }
// 1309   
// 1310   return 0;
??Parsing_1:
        MOV      R0,#+0
??Parsing_2:
        ADD      SP,SP,#+88       ;; stack cleaning
        CFI CFA R13+36
        POP      {R4-R11,PC}      ;; return
        DATA
??Parsing_0:
        DC32     `?<Constant "<p>Paslaik: ">`
        DC32     `?<Constant "<br/>">`
        DC32     `?<Constant "http://www.118.lv/ima...">`
        DC32     `?<Constant ".gif">`
        CFI EndBlock cfiBlock59
// 1311 }

        RSEG CODE:CODE:NOROOT(2)
        CFI Block cfiBlock60 Using cfiCommon0
        CFI NoFunction
        THUMB
??charger_c??rT:
        BX       PC
        Nop      
        CFI EndBlock cfiBlock60
        REQUIRE charger_c
// 1312 //=================================================================weather
// 1313 #else
// 1314 //=================================================================weather
// 1315 int sock;
// 1316 int connect_state;
// 1317 char buf[BUFSIZE+1];
// 1318 int pbuf;
// 1319 int traf;
// 1320 GBSTMR mytmr3;
// 1321 
// 1322 void start_again(void);
// 1323 
// 1324 void create_connect(void)
// 1325 {
// 1326   SOCK_ADDR sa;
// 1327   connect_state=0;
// 1328   pbuf=0;
// 1329   sock=socket(1,1,0);
// 1330   if (sock!=-1)
// 1331   {
// 1332     sa.family=1;
// 1333     sa.port=htons(80);
// 1334       sa.ip=htonl(IP_ADDR(212,48,138,20));
// 1335     if (connect(sock,&sa,sizeof(sa))!=-1)
// 1336     {
// 1337       connect_state=1;
// 1338     }
// 1339     else
// 1340     {
// 1341       closesocket(sock);
// 1342       GBS_StartTimerProc(&mytmr3, 2160, start_again);
// 1343     }
// 1344   }
// 1345   else
// 1346   GBS_StartTimerProc(&mytmr3, 2160, start_again);
// 1347 }
// 1348 
// 1349 void start_again()
// 1350 {
// 1351   if(IsGPRSConnected())
// 1352   {
// 1353   SUBPROC((void *)create_connect);
// 1354   }
// 1355   else
// 1356   GBS_StartTimerProc(&mytmr3, 2160, start_again);
// 1357 }
// 1358 
// 1359 char req_buf[256];
// 1360 
// 1361 void send_req(void)
// 1362 {
// 1363       sprintf(req_buf,"GET /wap2/towns/%i.wap2"
// 1364          " HTTP/1.0\r\nHost: wap.gismeteo.ru\r\n\r\n",TID);  
// 1365  
// 1366   send(sock,req_buf,strlen(req_buf),0);
// 1367   connect_state=2;
// 1368 }
// 1369 
// 1370 void end_socket(void)
// 1371 {
// 1372   if (sock>=0)
// 1373   {
// 1374     shutdown(sock,2);
// 1375     closesocket(sock);
// 1376   }
// 1377 }
// 1378 
// 1379 void get_answer(void)
// 1380 {
// 1381   int i=pbuf;
// 1382   if (i==65535)
// 1383     end_socket();
// 1384   else
// 1385   {
// 1386     i=recv(sock,buf+i,65535-i,0);
// 1387     if (i>=0)
// 1388     {
// 1389       pbuf+=i;
// 1390     }
// 1391     else
// 1392     {
// 1393       end_socket();
// 1394     }
// 1395   }
// 1396 }
// 1397 
// 1398 char tempz[10];
// 1399 
// 1400 void Parsing()
// 1401 {  
// 1402     char *fcstr;
// 1403     int i;  
// 1404       
// 1405     fcstr=strstr(buf,"</table>");
// 1406       
// 1407     //????????kartinka
// 1408     fcstr=strstr(fcstr,"/images/")+strlen ("/images/");
// 1409 /*    for (i=0;fcstr[i]!='.'&&(i<strlen (fcstr));i++);
// 1410       strncpy(weath.Pic, fcstr, i+1);
// 1411     weath.Pic[i]=0; 
// 1412     strcat(weath.Pic, ".png");*/
// 1413     
// 1414     //???????????temperatura
// 1415     fcstr=strstr(fcstr,"<b>")+strlen ("<b>");
// 1416     for (i=0;fcstr[i]!='<'&&(i<strlen (fcstr));i++);
// 1417       strncpy(temp, fcstr, i+1);
// 1418       temp[i]=0;
// 1419       i=0;
// 1420       while(temp[i]!='.')
// 1421       {
// 1422         tempz[i]=temp[i];
// 1423         i++;
// 1424       }
// 1425       tempz[i]='\0';
// 1426       sprintf(temp2, "%s: %s",LG_TEMP, tempz);
// 1427       
// 1428     //????????davlenie
// 1429     fcstr=strstr(fcstr,"<tr><td")+strlen ("<tr><td");
// 1430     fcstr=strstr(fcstr,">")+18;
// 1431     for (i=0;fcstr[i]!='<'&&(i<strlen (fcstr));i++);
// 1432       strncpy(pressure, fcstr, i+1);
// 1433     pressure[i]='\0';  
// 1434     utf82win(pressure,(const char *)pressure);
// 1435     sprintf(pressure2, "%s: %s", LG_PRES, pressure);
// 1436     
// 1437     //?????veter
// 1438     fcstr=strstr(fcstr,"<tr><td")+strlen ("<tr><td");
// 1439     fcstr=strstr(fcstr,">")+12;
// 1440     for (i=0;fcstr[i]!='<'&&(i<strlen (fcstr));i++);
// 1441       strncpy(wind, fcstr, i+1);
// 1442     wind[i]='\0'; 
// 1443     utf82win(wind,(const char *)wind);
// 1444     sprintf(vejsh2, "%s: %s", LG_WIND, wind);
// 1445     
// 1446     TTime time;
// 1447       TDate date;
// 1448       GetDateTime(&date, &time);
// 1449       sprintf(weather_time, "%02d-%02d at %02d:%02d", date.month, date.day, time.hour, time.min);
// 1450       engade_weather=1;
// 1451       DirectRedrawGUI();
// 1452     
// 1453     //?????????vlazhnostj
// 1454 /*    fcstr=strstr(fcstr,"<tr><td")+strlen ("<tr><td");
// 1455     fcstr=strstr(fcstr,">")+20;
// 1456     for (i=0;fcstr[i]!='<'&&(i<strlen (fcstr));i++);
// 1457       strncpy(weath.Rewlet, fcstr, i+1);
// 1458     weath.Rewlet[i]='\n';  */  
// 1459     
// 1460     //SUBPROC((void *)log_data, buf);
// 1461 }
// 1462 //=================================================================weather
// 1463 #endif
// 1464 int charge_m;
// 1465 int charge_s;
// 1466 GBSTMR charger;
// 1467 

        RSEG CODE:CODE:NOROOT(2)
        CFI Block cfiBlock61 Using cfiCommon1
        CFI Function charger_c
        ARM
// 1468 void charger_c()
// 1469 {
// 1470   charge_s++;
charger_c:
        LDR      R0,??DataTable38  ;; screen
        PUSH     {LR}
        CFI ?RET Frame(CFA, -4)
        CFI CFA R13+4
        LDR      R1,[R0, #+208]
        ADD      R1,R1,#+1
// 1471   if (charge_s==60)
        CMP      R1,#+60
        BNE      ??charger_c_0
// 1472   {
// 1473     charge_s=0;
// 1474     charge_m++;
        LDR      R2,[R0, #+204]
        MOV      R1,#+0
        ADD      R2,R2,#+1
        STR      R2,[R0, #+204]
// 1475   }
// 1476   GBS_StartTimerProc(&charger, 216, charger_c);
??charger_c_0:
        LDR      R2,??charger_c_1  ;; charger_c
        STR      R1,[R0, #+208]
        MOV      R1,#+216
        MOV      R3,#+204
        ORR      R3,R3,#0x1500
        ADD      R0,R3,R0
        SWI      +77
// 1477 }
        POP      {PC}             ;; return
        DATA
??charger_c_1:
        DC32     charger_c
        CFI EndBlock cfiBlock61

        RSEG CODE:CODE:NOROOT(2)
        CFI Block cfiBlock62 Using cfiCommon0
        CFI NoFunction
        THUMB
??write_log??rT:
        BX       PC
        Nop      
        CFI EndBlock cfiBlock62
        REQUIRE write_log
// 1478 
// 1479 int g_min;
// 1480 int g_sec;
// 1481 int g_hour;
// 1482 GBSTMR gipi;
// 1483 

        RSEG CODE:CODE:NOROOT(2)
        CFI Block cfiBlock63 Using cfiCommon1
        CFI Function write_log
        ARM
// 1484 void write_log(int zzz)
// 1485 {
write_log:
        PUSH     {R4,R5,LR}
        CFI ?RET Frame(CFA, -4)
        CFI R5 Frame(CFA, -8)
        CFI R4 Frame(CFA, -12)
        CFI CFA R13+12
// 1486   volatile int hFile;
// 1487       unsigned int io_error = 0;
// 1488       unsigned int ul;
// 1489       FSTATS stat;
// 1490       GetFileStats("4:\\zbin\\miosd\\miosd2.file",&stat,&ul);
        LDR      R5,??DataTable35  ;; `?<Constant "4:\\\\zbin\\\\miosd\\\\miosd2....">`
        SUB      SP,SP,#+52
        CFI CFA R13+64
        MOV      R4,R0
        MOV      R1,#+0
        STR      R1,[SP, #+0]
        ADD      R2,SP,#+8
        ADD      R1,SP,#+12
        MOV      R0,R5
        SWI      +132
// 1491       hFile = fopen("4:\\zbin\\miosd\\miosd2.file",A_ReadWrite+A_Create+A_Truncate+ A_BIN,P_READ+P_WRITE, &io_error);
        MOV      R3,SP
        MOV      R2,#+384
        MOV      R1,#+2
        ORR      R1,R1,#0x8300
        MOV      R0,R5
        SWI      +10
        STR      R0,[SP, #+4]
// 1492       if(hFile!=-1)
        LDR      R0,[SP, #+4]
        CMN      R0,#+1
        BEQ      ??write_log_0
// 1493       {
// 1494         char *writer=malloc(32);
        MOV      R0,#+32
        SWI      +20
        MOV      R5,R0
// 1495         sprintf(writer, "%d", zzz);
        MOV      R2,R4
        ADR      R1,??write_log_1  ;; "%d"
        SWI      +22
// 1496         fwrite(hFile, writer, strlen(writer), &io_error);
        MOV      R0,R5
        SWI      +27
        MOV      R3,SP
        MOV      R2,R0
        LDR      R0,[SP, #+4]
        MOV      R1,R5
        SWI      +12
// 1497         fclose(hFile, &io_error);
        LDR      R0,[SP, #+4]
        MOV      R1,SP
        SWI      +13
// 1498       }
// 1499 }
??write_log_0:
        ADD      SP,SP,#+52       ;; stack cleaning
        CFI CFA R13+12
        POP      {R4,R5,PC}       ;; return
        DATA
??write_log_1:
        DC8      "%d",+0
        CFI EndBlock cfiBlock63

        RSEG CODE:CODE:NOROOT(2)
        CFI Block cfiBlock64 Using cfiCommon0
        CFI NoFunction
        THUMB
??Count_GPRS??rT:
        BX       PC
        Nop      
        CFI EndBlock cfiBlock64
        REQUIRE Count_GPRS
// 1500 
// 1501 int rewriter;
// 1502 

        RSEG CODE:CODE:NOROOT(2)
        CFI Block cfiBlock65 Using cfiCommon1
        CFI Function Count_GPRS
        ARM
// 1503 void Count_GPRS()
// 1504 {
Count_GPRS:
        PUSH     {R4,LR}
        CFI ?RET Frame(CFA, -4)
        CFI R4 Frame(CFA, -8)
        CFI CFA R13+8
// 1505   g_sec++;
        LDR      R4,??DataTable38  ;; screen
        LDR      R0,[R4, #+216]
// 1506   if (g_sec==60)
        LDR      R1,[R4, #+212]
        ADD      R0,R0,#+1
        CMP      R0,#+60
// 1507   {
// 1508     g_sec=0;
        MOVEQ    R0,#+0
// 1509     g_min++;
        ADDEQ    R1,R1,#+1
        STR      R0,[R4, #+216]
// 1510   }
// 1511   if(g_min==60)
        CMP      R1,#+60
        BNE      ??Count_GPRS_0
// 1512   {
// 1513     g_min=0;
// 1514     g_hour++;
        LDR      R0,[R4, #+220]
        MOV      R1,#+0
        ADD      R0,R0,#+1
        STR      R0,[R4, #+220]
??Count_GPRS_0:
        STR      R1,[R4, #+212]
// 1515   }
// 1516   int r=g_min;
        CMP      R1,#+1
        BLT      ??Count_GPRS_1
// 1517   while(r>0)
// 1518     r=r-2;
??Count_GPRS_2:
        SUB      R1,R1,#+2
        CMP      R1,#+1
        BGE      ??Count_GPRS_2
// 1519   if((r==0)&&(g_min!=0)&&(rewriter!=g_min)) 
??Count_GPRS_1:
        CMP      R1,#+0
        BNE      ??Count_GPRS_3
        LDR      R0,[R4, #+212]
        CMP      R0,#+0
        LDRNE    R1,[R4, #+224]
        CMPNE    R1,R0
        BEQ      ??Count_GPRS_3
// 1520   {
// 1521     int *trafik2 = GetGPRSTrafficPointer();
        SWI      +112
// 1522     int trafiks2=(*trafik2-start_traffic)/1024;
// 1523     SUBPROC((void *)write_log,trafiks2);   //latest fix
        LDR      R0,[R0, #+0]
        LDR      R1,[R4, #+164]
        SUB      R0,R0,R1
        ASR      R1,R0,#+9
        ADD      R0,R0,R1, LSR #+22
        ASR      R1,R0,#+10
        LDR      R0,??Count_GPRS_4  ;; write_log
        SWI      +369
// 1524    // write_log(trafiks2);
// 1525     rewriter=g_min;
        LDR      R0,[R4, #+212]
        STR      R0,[R4, #+224]
// 1526   }
// 1527 //  sprintf(start_g2, "%s(%dm)", start_g, g_min);
// 1528 #ifdef EVILFOX
// 1529   sprintf(start_g2, "Active: %02d:%02d:%02d", g_hour, g_min, g_sec);
??Count_GPRS_3:
        LDR      R0,[R4, #+216]
        LDR      R1,??Count_GPRS_4+0x4  ;; `?<Constant "Active: %02d:%02d:%02d">`
        PUSH     {R0}
        CFI CFA R13+12
        LDR      R3,[R4, #+212]
        LDR      R2,[R4, #+220]
        ADD      R0,R4,#+408
        SWI      +22
// 1530 #else
// 1531   sprintf(start_g2, ". .: %02d:%02d:%02d", g_hour, g_min, g_sec);
// 1532 #endif
// 1533   GBS_StartTimerProc(&gipi, 216, Count_GPRS);
        LDR      R2,??Count_GPRS_4+0x8  ;; Count_GPRS
        MOV      R1,#+216
        MOV      R0,#+220
        ORR      R0,R0,#0x1500
        ADD      R0,R0,R4
        SWI      +77
// 1534 }
        POP      {R0,R4,PC}       ;; return
        DATA
??Count_GPRS_4:
        DC32     write_log
        DC32     `?<Constant "Active: %02d:%02d:%02d">`
        DC32     Count_GPRS
        CFI EndBlock cfiBlock65

        RSEG CODE:CODE:NOROOT(2)
        CFI Block cfiBlock66 Using cfiCommon0
        CFI NoFunction
        THUMB
??MyIDLECSM_onMessage??rT:
        BX       PC
        Nop      
        CFI EndBlock cfiBlock66
        REQUIRE MyIDLECSM_onMessage
// 1535 
// 1536 #ifdef NATICQ
// 1537 #define IPC_RECIEVE_MSG 55
// 1538 const char ipc_my_name[]="MioSD";
// 1539 #endif
// 1540 extern GBSTMR missedt;
// 1541 int rem_mis;
// 1542   
// 1543 

        RSEG CODE:CODE:NOROOT(2)
        CFI Block cfiBlock67 Using cfiCommon1
        CFI Function MyIDLECSM_onMessage
        ARM
// 1544 int MyIDLECSM_onMessage(CSM_RAM* data, GBS_MSG* msg)
// 1545 {
MyIDLECSM_onMessage:
        PUSH     {R4-R9,LR}
        CFI ?RET Frame(CFA, -4)
        CFI R9 Frame(CFA, -8)
        CFI R8 Frame(CFA, -12)
        CFI R7 Frame(CFA, -16)
        CFI R6 Frame(CFA, -20)
        CFI R5 Frame(CFA, -24)
        CFI R4 Frame(CFA, -28)
        CFI CFA R13+28
// 1546   int csm_result;
// 1547   csm_result=old_icsm_onMessage(data,msg);
        LDR      R4,??DataTable38  ;; screen
        SUB      SP,SP,#+76
        CFI CFA R13+104
        LDR      R2,[R4, #+72]
// 1548   
// 1549   if(msg->msg == MSG_RECONFIGURE_REQ) //    
        LDR      R7,??DataTable33  ;; `?<Constant "MIOSD 1.5 config upda...">`
        MOV      R8,R1
        BLX      R2
        MOV      R5,R0
        LDR      R0,[R8, #+4]
        MVN      R6,#+0
        MOV      R1,#+175
        ORR      R1,R1,#0xDE00
        CMP      R0,R1
        BNE      ??MyIDLECSM_onMessage_0
// 1550   {
// 1551     extern const char *successed_config_filename;
// 1552     if (strcmp_nocase(successed_config_filename,(char *)msg->data0)==0)
        LDR      R1,??MyIDLECSM_onMessage_1  ;; successed_config_filename
        LDR      R0,[R8, #+12]
        LDR      R1,[R1, #+0]
??MyIDLECSM_onMessage_2:
        LDRB     R2,[R1, #+0]
        CMP      R2,#+97
        BLT      ??MyIDLECSM_onMessage_3
        CMP      R2,#+123
        SUBLT    R2,R2,#+32
??MyIDLECSM_onMessage_3:
        LDRB     R3,[R0, #+0]
        ADD      R1,R1,#+1
        CMP      R3,#+97
        BLT      ??MyIDLECSM_onMessage_4
        CMP      R3,#+123
        SUBLT    R3,R3,#+32
??MyIDLECSM_onMessage_4:
        ADD      R0,R0,#+1
        SUBS     R3,R2,R3
        BNE      ??MyIDLECSM_onMessage_5
        CMP      R2,#+0
        BNE      ??MyIDLECSM_onMessage_2
// 1553     {
// 1554  //     void RereadSettings(void);
// 1555  //     RereadSettings();
// 1556 #ifdef EVILFOX
// 1557 #else
// 1558       InitConfig();
// 1559 #endif
// 1560       ShowMSG(1,(int)"MIOSD 1.5 config updated!");
        MOV      R1,R7
        MOV      R0,#+1
        SWI      +328
// 1561     }
// 1562   }
// 1563   //=========================================weather
// 1564   if (msg->msg==MSG_HELPER_TRANSLATOR)
??MyIDLECSM_onMessage_0:
        LDR      R0,[R8, #+4]
        MOV      R1,#+174
        ORR      R1,R1,#0xDE00
        CMP      R0,R1
        BNE      ??MyIDLECSM_onMessage_5
// 1565   {
// 1566     if ((int)msg->data1==sock)
        LDR      R0,[R8, #+16]
        LDR      R1,[R4, #+188]
        CMP      R0,R1
        BNE      ??MyIDLECSM_onMessage_5
// 1567     {
// 1568       switch((int)msg->data0)
        LDR      R3,[R8, #+12]
        LDR      R2,[R4, #+192]
        LDR      R1,??DataTable30  ;; create_connect
        LDR      R0,??MyIDLECSM_onMessage_1+0x4  ;; end_socket
        SUBS     R3,R3,#+140
        BEQ      ??MyIDLECSM_onMessage_6
        SUBS     R3,R3,#+1
        BEQ      ??MyIDLECSM_onMessage_7
        SUBS     R3,R3,#+1
        BEQ      ??MyIDLECSM_onMessage_8
        SUBS     R3,R3,#+1
        BEQ      ??MyIDLECSM_onMessage_9
        B        ??MyIDLECSM_onMessage_5
// 1569       {
// 1570       case ENIP_SOCK_CONNECTED:
// 1571         if (connect_state==1)
??MyIDLECSM_onMessage_7:
        CMP      R2,#+1
// 1572         {
// 1573           SUBPROC((void *)send_req);        
        LDREQ    R0,??MyIDLECSM_onMessage_1+0x8  ;; send_req
        MOVNE    R0,R1
??MyIDLECSM_onMessage_10:
        SWI      +369
        B        ??MyIDLECSM_onMessage_5
// 1574         }
// 1575         else
// 1576           {
// 1577           SUBPROC((void *)create_connect); 
// 1578           }
// 1579         break;
// 1580       case ENIP_SOCK_DATA_READ:
// 1581         if (connect_state==2)
??MyIDLECSM_onMessage_6:
        CMP      R2,#+2
        BNE      ??MyIDLECSM_onMessage_11
// 1582         {
// 1583           SUBPROC((void *)get_answer);
        LDR      R0,??MyIDLECSM_onMessage_1+0xC  ;; get_answer
        B        ??MyIDLECSM_onMessage_10
// 1584         }
// 1585         else
// 1586         {
// 1587           SUBPROC((void *)create_connect);
??MyIDLECSM_onMessage_11:
        MOV      R0,R1
        B        ??MyIDLECSM_onMessage_10
// 1588         }
// 1589         break;
// 1590       case ENIP_SOCK_REMOTE_CLOSED:
// 1591         if (connect_state) SUBPROC((void *)end_socket);
??MyIDLECSM_onMessage_9:
        CMP      R2,#+0
        BEQ      ??MyIDLECSM_onMessage_5
        B        ??MyIDLECSM_onMessage_10
// 1592         break;
// 1593       case ENIP_SOCK_CLOSED:
// 1594         if (connect_state) SUBPROC((void *)end_socket);
??MyIDLECSM_onMessage_8:
        CMP      R2,#+0
        BEQ      ??MyIDLECSM_onMessage_12
        SWI      +369
// 1595         connect_state=3;
??MyIDLECSM_onMessage_12:
        MOV      R0,#+3
        STR      R0,[R4, #+192]
// 1596         Parsing();
        BL       Parsing
// 1597         sock=-1;
// 1598         GBS_StartTimerProc(&mytmr3, 12960*60, start_again);
        LDR      R2,??DataTable31  ;; start_again
        STR      R6,[R4, #+188]
        MOV      R1,#+770048
        ORR      R1,R1,#0x1D80
        MOV      R0,#+188
        ORR      R0,R0,#0x1500
        ADD      R0,R0,R4
        SWI      +77
// 1599         break;
// 1600       }
// 1601     }
// 1602   }
// 1603   //==========================================weather
// 1604 #ifdef NATICQ
// 1605   //==========================================ipc naticq
// 1606   if (msg->msg==MSG_IPC)
// 1607     {
// 1608       IPC_REQ *ipc;
// 1609       if ((ipc=(IPC_REQ*)msg->data0))
// 1610       {
// 1611 	if (strcmp_nocase(ipc->name_to,ipc_my_name)==0)
// 1612 	{
// 1613 	  switch (msg->submess)
// 1614 	  {
// 1615 	  case IPC_RECIEVE_MSG:
// 1616             {
// 1617               char test[64];
// 1618               int len=strlen(ipc->data);
// 1619               sprintf(test,"%s",ipc->data);
// 1620               test[len]='\0';
// 1621               if(test[0]!='0')
// 1622               {
// 1623                 if(test[0]=='1') naticq_plugin=1;
// 1624                 if(test[0]=='2') 
// 1625                 {
// 1626                   naticq_plugin=0;
// 1627                   sprintf(naticq_ping, "none");
// 1628                 }
// 1629               }
// 1630               if(naticq_plugin)
// 1631               {
// 1632                 if(test[1]!='0')
// 1633                 {
// 1634                   if(test[1]=='1');
// 1635                   {
// 1636                     strncpy(naticq_time,test+2,8);
// 1637                     naticq_time[8]='\0';
// 1638                   }
// 1639                   if(test[1]=='2')
// 1640                   {
// 1641                     strncpy(naticq_time,test+2,8);
// 1642                     naticq_time[8]='\0';
// 1643                     strncpy(naticq_ping,test+10,6);
// 1644                     naticq_ping[6]='\0';
// 1645                   }
// 1646                 }
// 1647               }
// 1648             }
// 1649 	    break;
// 1650           }
// 1651         }
// 1652       }
// 1653     }
// 1654   //==========================================ipc naticq
// 1655 #endif
// 1656 #ifdef EVILFOX
// 1657   if((!main_clock)&&(IsIdleUiOnTop()))
??MyIDLECSM_onMessage_5:
        LDR      R0,[R4, #+52]
        MOV      R8,#+1
        CMP      R0,#+0
        BNE      ??MyIDLECSM_onMessage_13
        SWI      +197
        CMP      R0,#+0
        BEQ      ??MyIDLECSM_onMessage_14
// 1658   {
// 1659     EngadeClock();
        _BLF     EngadeClock,??EngadeClock??rA
// 1660     main_clock=1;
        STR      R8,[R4, #+52]
// 1661   }
// 1662 #endif
// 1663   if(rem_mis!=GetMissedEventCount(0))
??MyIDLECSM_onMessage_13:
        MOV      R0,#+0
??MyIDLECSM_onMessage_14:
        _BLF     GetMissedEventCount,??GetMissedEventCount??rA
        LDR      R1,[R4, #+228]
        CMP      R1,R0
        BEQ      ??MyIDLECSM_onMessage_15
// 1664   {
// 1665     if(GetMissedEventCount(0)<rem_mis) rem_mis=GetMissedEventCount(0);
        MOV      R0,#+0
        _BLF     GetMissedEventCount,??GetMissedEventCount??rA
        LDR      R1,[R4, #+228]
        CMP      R0,R1
        MOV      R0,#+0
        BGE      ??MyIDLECSM_onMessage_16
        _BLF     GetMissedEventCount,??GetMissedEventCount??rA
        STR      R0,[R4, #+228]
        B        ??MyIDLECSM_onMessage_15
// 1666     else
// 1667     {
// 1668       rem_mis=GetMissedEventCount(0);
??MyIDLECSM_onMessage_16:
        _BLF     GetMissedEventCount,??GetMissedEventCount??rA
// 1669       GBS_StartTimerProc(&missedt, 216*3, start_timerize);
        LDR      R2,??MyIDLECSM_onMessage_1+0x10  ;; start_timerize
        STR      R0,[R4, #+228]
        LDR      R0,??MyIDLECSM_onMessage_1+0x14  ;; missedt
        MOV      R1,#+648
        SWI      +77
// 1670     }
// 1671   }
// 1672   if((IsGPRSConnected())&&(first_con))
??MyIDLECSM_onMessage_15:
        SWI      +168
        CMP      R0,#+0
        LDRNE    R0,[R4, #+84]
        MOV      R9,#+0
        CMPNE    R0,#+0
        BEQ      ??MyIDLECSM_onMessage_17
// 1673   {
// 1674   int *trafik = GetGPRSTrafficPointer();
// 1675   start_traffic=*trafik;
        SWI      +112
        LDR      R0,[R0, #+0]
// 1676 /*  TTime time;
// 1677   TDate date;
// 1678   GetDateTime(&date, &time);
// 1679   sprintf(start_g, "%02d:%02d %02d-%02d", time.hour, time.min, date.month, date.day);*/
// 1680   g_min=0;
        STR      R9,[R4, #+212]
        STR      R0,[R4, #+164]
// 1681   g_sec=0;
        STR      R9,[R4, #+216]
// 1682   g_hour=0;
        STR      R9,[R4, #+220]
// 1683   GBS_DelTimer(&gipi);
        MOV      R0,#+220
        ORR      R0,R0,#0x1500
        ADD      R0,R0,R4
        SWI      +396
// 1684   Count_GPRS();
        BL       Count_GPRS
// 1685   first_con=0;
        STR      R9,[R4, #+84]
// 1686   }
// 1687   if(!IsGPRSConnected()) first_con=1;
??MyIDLECSM_onMessage_17:
        SWI      +168
        CMP      R0,#+0
        STREQ    R8,[R4, #+84]
// 1688   if(GetAccessoryType()==13) 
        SWI      +136
        CMP      R0,#+13
        LDR      R0,[R4, #+184]
        BNE      ??MyIDLECSM_onMessage_18
// 1689   {
// 1690     if(!con) 
        CMP      R0,#+0
        BNE      ??MyIDLECSM_onMessage_19
// 1691     {
// 1692       charge_s=0;
        STR      R9,[R4, #+208]
// 1693       charge_m=0;
        STR      R9,[R4, #+204]
// 1694       charger_c();
        BL       charger_c
// 1695       con=1;
        STR      R8,[R4, #+184]
// 1696     }
// 1697     sprintf(chinfo, "Charging(%dmin)", charge_m);
??MyIDLECSM_onMessage_19:
        LDR      R2,[R4, #+204]
        ADD      R1,R7,#+28
        ADD      R0,R4,#+232
        SWI      +22
        MOV      R0,R5
        ADD      SP,SP,#+76
        CFI CFA R13+28
        POP      {R4-R9,PC}
        CFI CFA R13+104
// 1698   }
// 1699   else 
// 1700   {
// 1701     if(con)
??MyIDLECSM_onMessage_18:
        CMP      R0,#+0
        BEQ      ??MyIDLECSM_onMessage_20
// 1702     {
// 1703       GBS_DelTimer(&charger);
        MOV      R0,#+204
        ORR      R0,R0,#0x1500
        ADD      R0,R0,R4
        SWI      +396
// 1704       TTime time;
// 1705       TDate date;
// 1706       GetDateTime(&date, &time);
        ADD      R1,SP,#+8
        ADD      R0,SP,#+16
        SWI      +180
// 1707       sprintf(chinfo, "%02d:%02d, %02d-%02d", time.hour, time.min, date.month, date.day);
        LDRB     R0,[SP, #+21]
        ADD      R1,R7,#+44
        PUSH     {R0}
        CFI CFA R13+108
        LDRB     R0,[SP, #+24]
        PUSH     {R0}
        CFI CFA R13+112
        LDRB     R3,[SP, #+17]
        LDRB     R2,[SP, #+16]
        ADD      R0,R4,#+232
        SWI      +22
// 1708       volatile int hFile;
// 1709       unsigned int io_error = 0;
        STR      R9,[SP, #+8]
// 1710       unsigned int ul;
// 1711       FSTATS stat;
// 1712       GetFileStats("4:\\zbin\\miosd\\miosd.file",&stat,&ul);
        ADD      R2,SP,#+40
        ADD      R1,SP,#+44
        ADD      R0,R7,#+68
        SWI      +132
// 1713       hFile = fopen("4:\\zbin\\miosd\\miosd.file",A_ReadWrite+A_Create+A_Truncate+ A_BIN,P_READ+P_WRITE, &io_error);
        ADD      R3,SP,#+8
        MOV      R2,#+384
        MOV      R1,#+2
        ORR      R1,R1,#0x8300
        ADD      R0,R7,#+68
        SWI      +10
        STR      R0,[SP, #+12]
// 1714       if(hFile!=-1)
        LDR      R0,[SP, #+12]
        ADD      SP,SP,#+8
        CFI CFA R13+104
        CMP      R0,R6
        BEQ      ??MyIDLECSM_onMessage_21
// 1715       {
// 1716         fwrite(hFile, chinfo, strlen(chinfo), &io_error);
        ADD      R0,R4,#+232
        SWI      +27
        MOV      R2,R0
        LDR      R0,[SP, #+4]
        MOV      R3,SP
        ADD      R1,R4,#+232
        SWI      +12
// 1717         fclose(hFile, &io_error);
        LDR      R0,[SP, #+4]
        MOV      R1,SP
        SWI      +13
// 1718       }
// 1719       con=0;
??MyIDLECSM_onMessage_21:
        STR      R9,[R4, #+184]
// 1720     }
// 1721   }
// 1722   return(csm_result);
??MyIDLECSM_onMessage_20:
        MOV      R0,R5
        ADD      SP,SP,#+76
        CFI CFA R13+28
        POP      {R4-R9,PC}       ;; return
        DATA
??MyIDLECSM_onMessage_1:
        DC32     successed_config_filename
        DC32     end_socket
        DC32     send_req
        DC32     get_answer
        DC32     start_timerize
        DC32     missedt
        CFI EndBlock cfiBlock67
// 1723 }  

        RSEG CODE:CODE:NOROOT(2)
        DATA
??DataTable30:
        DC32     create_connect

        RSEG CODE:CODE:NOROOT(2)
        DATA
??DataTable31:
        DC32     start_again

        RSEG CODE:CODE:NOROOT(2)
        CFI Block cfiBlock68 Using cfiCommon0
        CFI NoFunction
        THUMB
??Execute??rT:
        BX       PC
        Nop      
        CFI EndBlock cfiBlock68
        REQUIRE Execute
// 1724 
// 1725 /*
// 1726 int my_keyhook(int key, int m)
// 1727 {
// 1728   void *icsm=FindCSMbyID(CSM_root()->idle_id);
// 1729   if ((IsGuiOnTop(((int *)icsm)[DISPLACE_OF_IDLEGUI_ID/4]))&&IsUnlocked()&&(m==KEY_DOWN)&&(!IsScreenSaver()))
// 1730   {
// 1731      if (key==RIGHT_BUTTON)||(key==LEFT_BUTTON)) 
// 1732        {
// 1733        doit:
// 1734          LockSched();
// 1735          char dummy[sizeof(MAIN_CSM)];
// 1736          UpdateCSMname();
// 1737          MAINCSM_ID=CreateCSM(&MAINCSM.maincsm,dummy,2);
// 1738          UnlockSched();
// 1739          lock_keys=0;
// 1740          phase=1;
// 1741         // pos=1;
// 1742          if((key==RIGHT_BUTTON)||((key==0x0D)&&(LONG_PRESS)&&(!ker_state)))
// 1743          {
// 1744            ker_state=1;
// 1745            pos_main_x=-20;
// 1746            pos_main_y=50;
// 1747            pos_link_x=0;
// 1748          //  pos_link_y=pos_main_y+8;
// 1749            pos_link_y=pos_main_y-12+(pos*20);
// 1750            pos_msg_x=29;
// 1751            key_mode=1;
// 1752          }
// 1753          if(key==LEFT_BUTTON)
// 1754          {
// 1755            ker_state=1;
// 1756            pos_main_x=132;
// 1757            pos_main_y=50;
// 1758            pos_link_x=112;
// 1759           // pos_link_y=pos_main_y+8;
// 1760            pos_link_y=pos_main_y-12+(pos*20);
// 1761            pos_msg_x=6;
// 1762            key_mode=2;
// 1763          }
// 1764          DoScreen();
// 1765          DoShowIt();
// 1766        }
// 1767   }
// 1768   else
// 1769     if((key==0x0D)&&(m==LONG_PRESS)&&(!ker_state)&&(!IsGuiOnTop(((int *)icsm)[DISPLACE_OF_IDLEGUI_ID/4])))
// 1770       goto doit;
// 1771   
// 1772   return 0;
// 1773 }*/
// 1774 
// 1775 int mode_enter;
// 1776 int mode;
// 1777 #ifdef EVILFOX
// 1778 int CALL_BUTTON=1;
// 1779 #else
// 1780 extern const unsigned int CALL_BUTTON;
// 1781 extern const unsigned int CALL_BUTTON2;
// 1782 #endif
// 1783 

        RSEG CODE:CODE:NOROOT(2)
        CFI Block cfiBlock69 Using cfiCommon1
        CFI Function Execute
        ARM
// 1784 void Execute()
// 1785 {
Execute:
        PUSH     {R4,LR}
        CFI ?RET Frame(CFA, -4)
        CFI R4 Frame(CFA, -8)
        CFI CFA R13+8
// 1786   LockSched();
// 1787   char dummy[sizeof(MAIN_CSM)];
// 1788   UpdateCSMname();
// 1789   MAINCSM_ID=CreateCSM(&MAINCSM.maincsm,dummy,2);
        LDR      R4,??DataTable38  ;; screen
        SUB      SP,SP,#+44
        CFI CFA R13+52
        SWI      +326
        BL       UpdateCSMname
        LDR      R0,??Execute_0   ;; `?<Constant "MIOSD">` + 8
        MOV      R2,#+2
        MOV      R1,SP
        SWI      +263
        STR      R0,[R4, #+80]
// 1790   UnlockSched();
        SWI      +327
// 1791   lock_keys=0;
        MOV      R0,#+0
        STR      R0,[R4, #+108]
// 1792   phase=1;
// 1793   ker_state=1;
// 1794   pos_main_x=-20;
// 1795   pos_main_y=50;
// 1796   pos_link_x=0;
        STR      R0,[R4, #+112]
// 1797   pos_link_y=pos_main_y-12+(pos*20);
        LDR      R0,[R4, #+92]
        MVN      R2,#+19
        STR      R2,[R4, #+100]
        MOV      R2,#+50
        STR      R2,[R4, #+104]
        MOV      R2,#+20
        MUL      R0,R2,R0
        MOV      R1,#+1
        STR      R1,[R4, #+96]
        STR      R1,[R4, #+56]
        ADD      R0,R0,#+38
        STR      R0,[R4, #+116]
// 1798   pos_msg_x=29;
        MOV      R0,#+29
        STR      R0,[R4, #+120]
// 1799   key_mode=1;
        STR      R1,[R4, #+88]
// 1800   DoScreen();
        BL       DoScreen
// 1801   DoShowIt();
        BL       DoShowIt
// 1802 }
        ADD      SP,SP,#+44
        CFI CFA R13+8
        POP      {R4,PC}          ;; return
        DATA
??Execute_0:
        DC32     `?<Constant "MIOSD">` + 8
        CFI EndBlock cfiBlock69

        RSEG CODE:CODE:NOROOT(2)
        CFI Block cfiBlock70 Using cfiCommon0
        CFI NoFunction
        THUMB
??my_keyhook??rT:
        BX       PC
        Nop      
        CFI EndBlock cfiBlock70
        REQUIRE my_keyhook
// 1803 
// 1804 extern int alt_state;
// 1805 

        RSEG CODE:CODE:NOROOT(2)
        CFI Block cfiBlock71 Using cfiCommon1
        CFI Function my_keyhook
        ARM
// 1806 int my_keyhook(int submsg, int msg)
// 1807 {
my_keyhook:
        PUSH     {R4-R6,LR}
        CFI ?RET Frame(CFA, -4)
        CFI R6 Frame(CFA, -8)
        CFI R5 Frame(CFA, -12)
        CFI R4 Frame(CFA, -16)
        CFI CFA R13+16
        MOV      R5,R0
// 1808   if((submsg==62)&&(IsIdleUiOnTop())&&(IsUnlocked())) Execute();
        CMP      R5,#+62
        MOV      R6,R1
        BNE      ??my_keyhook_0
        SWI      +197
        CMP      R0,#+0
        BEQ      ??my_keyhook_0
        SWI      +67
        CMP      R0,#+0
        BEQ      ??my_keyhook_0
        BL       Execute
// 1809 #ifdef EVILFOX
// 1810 #else
// 1811   if(submsg==CALL_BUTTON2) {
// 1812  //   DoScreen2();
// 1813     alt_state=1;
// 1814     process_missed();
// 1815   }
// 1816 #endif
// 1817   if (submsg!=CALL_BUTTON) return(0);
??my_keyhook_0:
        LDR      R4,??my_keyhook_1  ;; mode_enter
        LDR      R2,[R4, #+8]
        CMP      R5,R2
        MOVNE    R0,#+0
        POPNE    {R4-R6,PC}
// 1818   switch(msg)
        LDR      R1,[R4, #+4]
        LDR      R3,[R4, #+0]
        MOV      R0,#+9
        ORR      R0,R0,#0x4200
        MOV      R5,#+0
        MOV      R12,#+147
        ORR      R12,R12,#0x100
        CMP      R6,R12
        BEQ      ??my_keyhook_2
        CMP      R6,#+404
        BEQ      ??my_keyhook_3
        ADD      R12,R12,#+2
        CMP      R6,R12
        BEQ      ??my_keyhook_4
        B        ??my_keyhook_5
// 1819   {
// 1820   case KEY_DOWN:
// 1821     if (mode_enter==2)
??my_keyhook_2:
        CMP      R3,#+2
        BNE      ??my_keyhook_6
// 1822     {
// 1823       GBS_SendMessage(MMI_CEPID,KEY_UP,CALL_BUTTON);
        MOV      R1,#+404
        SWI      +256
// 1824       return (0);
        MOV      R0,#+0
        POP      {R4-R6,PC}
// 1825     }
// 1826     mode_enter=0;
??my_keyhook_6:
        STR      R5,[R4, #+0]
// 1827     return (2);
??my_keyhook_5:
        MOV      R0,#+2
        POP      {R4-R6,PC}
// 1828   case KEY_UP:
// 1829     if (mode==1)mode=0;
??my_keyhook_3:
        CMP      R1,#+1
        STREQ    R5,[R4, #+4]
// 1830     if (mode_enter==0)
        CMP      R3,#+0
        BNE      ??my_keyhook_7
// 1831     {
// 1832       mode_enter=2;
        MOV      R1,#+2
        STR      R1,[R4, #+0]
// 1833       GBS_SendMessage(MMI_CEPID,KEY_DOWN,CALL_BUTTON);
        MOV      R1,R12
        SWI      +256
// 1834       return (2);
        MOV      R0,#+2
        POP      {R4-R6,PC}
// 1835     }
// 1836     if (mode_enter==2)
??my_keyhook_7:
        CMP      R3,#+2
        BNE      ??my_keyhook_6
// 1837     {
// 1838       mode_enter=0;
        STR      R5,[R4, #+0]
// 1839       return (0);
        MOV      R0,#+0
        POP      {R4-R6,PC}
// 1840     }
// 1841     mode_enter=0;
// 1842     return (2);      
// 1843   case LONG_PRESS:
// 1844     mode_enter=1;
??my_keyhook_4:
        MOV      R5,#+1
        STR      R5,[R4, #+0]
// 1845     if(mode==0)
        CMP      R1,#+0
        BNE      ??my_keyhook_8
// 1846     {
// 1847       if (IsUnlocked()) Execute();
        SWI      +67
        CMP      R0,#+0
        BEQ      ??my_keyhook_8
        BL       Execute
// 1848     }
// 1849     mode=1;
??my_keyhook_8:
        STR      R5,[R4, #+4]
// 1850     break;
// 1851   }
// 1852 return(2); 
        B        ??my_keyhook_5
        DATA
??my_keyhook_1:
        DC32     mode_enter
        CFI EndBlock cfiBlock71
// 1853 }

        RSEG CODE:CODE:NOROOT(2)
        CFI Block cfiBlock72 Using cfiCommon0
        CFI NoFunction
        THUMB
??check_battery??rT:
        BX       PC
        Nop      
        CFI EndBlock cfiBlock72
        REQUIRE check_battery
// 1854 

        RSEG CODE:CODE:NOROOT(2)
        CFI Block cfiBlock73 Using cfiCommon1
        CFI Function check_battery
        ARM
// 1855 void check_battery()
// 1856 {
check_battery:
        PUSH     {R4-R7,LR}
        CFI ?RET Frame(CFA, -4)
        CFI R7 Frame(CFA, -8)
        CFI R6 Frame(CFA, -12)
        CFI R5 Frame(CFA, -16)
        CFI R4 Frame(CFA, -20)
        CFI CFA R13+20
// 1857   volatile int hFile_ex;
// 1858   unsigned int io_error_ex = 0;
// 1859   hFile_ex = fopen("4:\\zbin\\miosd\\miosd.file",A_ReadOnly + A_BIN,P_READ, &io_error_ex);
        LDR      R5,??DataTable33  ;; `?<Constant "MIOSD 1.5 config upda...">`
        SUB      SP,SP,#+52
        CFI CFA R13+72
        MOV      R1,#+0
        STR      R1,[SP, #+8]
        ADD      R3,SP,#+8
        MOV      R2,#+128
        MOV      R1,#+32768
// 1860   if(hFile_ex!=-1)
        LDR      R4,??DataTable38  ;; screen
        ADD      R0,R5,#+68
        SWI      +10
        STR      R0,[SP, #+4]
        LDR      R0,[SP, #+4]
        CMN      R0,#+1
        BEQ      ??check_battery_0
// 1861   {
// 1862      fclose(hFile_ex, &io_error_ex);
        LDR      R0,[SP, #+4]
        ADD      R1,SP,#+8
        SWI      +13
// 1863      int f;
// 1864     int fsize;
// 1865     FSTATS stat;
// 1866     unsigned int ul;
// 1867     GetFileStats("4:\\zbin\\miosd\\miosd.file",&stat,&ul);
        MOV      R2,SP
        ADD      R1,SP,#+12
        ADD      R0,R5,#+68
        SWI      +132
// 1868     if(stat.size>0)
        LDR      R0,[SP, #+16]
        CMP      R0,#+0
        BEQ      ??check_battery_1
// 1869     {
// 1870       f=fopen("4:\\zbin\\miosd\\miosd.file",A_ReadOnly+A_BIN,P_READ,&ul);
        MOV      R3,SP
        MOV      R2,#+128
        MOV      R1,#+32768
        ADD      R0,R5,#+68
        SWI      +10
// 1871       fsize=stat.size;
        LDR      R6,[SP, #+16]
        MOV      R5,R0
// 1872       char *p=malloc(fsize);
        MOV      R0,R6
        SWI      +20
        MOV      R7,R0
// 1873       p[fread(f,p,fsize,&ul)];
        MOV      R3,SP
        MOV      R2,R6
        MOV      R1,R7
        MOV      R0,R5
        SWI      +11
// 1874       fclose(f,&ul);
        MOV      R1,SP
        MOV      R0,R5
        SWI      +13
// 1875       strcpy(chinfo, p);
        MOV      R1,R7
        ADD      R0,R4,#+232
        SWI      +26
// 1876       chinfo[fsize]='\0';
        ADD      R0,R6,R4
        MOV      R1,#+0
        STRB     R1,[R0, #+232]
// 1877       mfree(p);
        MOV      R0,R7
        SWI      +21
        ADD      SP,SP,#+52
        CFI CFA R13+20
        POP      {R4-R7,PC}
        CFI CFA R13+72
// 1878     }
// 1879   }
// 1880   else
// 1881     sprintf(chinfo, "Never");
??check_battery_0:
        ADD      R1,R5,#+96
        ADD      R0,R4,#+232
        SWI      +22
// 1882 }
??check_battery_1:
        ADD      SP,SP,#+52       ;; stack cleaning
        CFI CFA R13+20
        POP      {R4-R7,PC}       ;; return
        CFI EndBlock cfiBlock73

        RSEG CODE:CODE:NOROOT(2)
        DATA
??DataTable33:
        DC32     `?<Constant "MIOSD 1.5 config upda...">`

        RSEG CODE:CODE:NOROOT(2)
        CFI Block cfiBlock74 Using cfiCommon0
        CFI NoFunction
        THUMB
??check_gprs??rT:
        BX       PC
        Nop      
        CFI EndBlock cfiBlock74
        REQUIRE check_gprs
// 1883 

        RSEG CODE:CODE:NOROOT(2)
        CFI Block cfiBlock75 Using cfiCommon1
        CFI Function check_gprs
        ARM
// 1884 void check_gprs()
// 1885 {
check_gprs:
        PUSH     {R4-R8,LR}
        CFI ?RET Frame(CFA, -4)
        CFI R8 Frame(CFA, -8)
        CFI R7 Frame(CFA, -12)
        CFI R6 Frame(CFA, -16)
        CFI R5 Frame(CFA, -20)
        CFI R4 Frame(CFA, -24)
        CFI CFA R13+24
// 1886   volatile int hFile_ex;
// 1887   unsigned int io_error_ex = 0;
// 1888   hFile_ex = fopen("4:\\zbin\\miosd\\miosd2.file",A_ReadOnly + A_BIN,P_READ, &io_error_ex);
        LDR      R6,??DataTable35  ;; `?<Constant "4:\\\\zbin\\\\miosd\\\\miosd2....">`
        SUB      SP,SP,#+52
        CFI CFA R13+76
        MOV      R1,#+0
        STR      R1,[SP, #+8]
        ADD      R3,SP,#+8
        MOV      R2,#+128
        MOV      R1,#+32768
// 1889   if(hFile_ex!=-1)
        LDR      R5,??DataTable38  ;; screen
        MOV      R0,R6
        SWI      +10
        STR      R0,[SP, #+4]
        LDR      R0,[SP, #+4]
        MOV      R4,#+360
        CMN      R0,#+1
        BEQ      ??check_gprs_0
// 1890   {
// 1891      fclose(hFile_ex, &io_error_ex);
        LDR      R0,[SP, #+4]
        ADD      R1,SP,#+8
        SWI      +13
// 1892      int f;
// 1893     int fsize;
// 1894     FSTATS stat;
// 1895     unsigned int ul;
// 1896     GetFileStats("4:\\zbin\\miosd\\miosd2.file",&stat,&ul);
        MOV      R2,SP
        ADD      R1,SP,#+12
        MOV      R0,R6
        SWI      +132
// 1897     if(stat.size>0)
        LDR      R0,[SP, #+16]
        CMP      R0,#+0
        BEQ      ??check_gprs_1
// 1898     {
// 1899       f=fopen("4:\\zbin\\miosd\\miosd2.file",A_ReadOnly+A_BIN,P_READ,&ul);
        MOV      R3,SP
        MOV      R2,#+128
        MOV      R1,#+32768
        MOV      R0,R6
        SWI      +10
// 1900       fsize=stat.size;
        LDR      R7,[SP, #+16]
        MOV      R6,R0
// 1901       char *p=malloc(fsize);
        MOV      R0,R7
        SWI      +20
        MOV      R8,R0
// 1902       p[fread(f,p,fsize,&ul)];
        MOV      R3,SP
        MOV      R2,R7
        MOV      R1,R8
        MOV      R0,R6
        SWI      +11
// 1903       fclose(f,&ul);
        MOV      R1,SP
        MOV      R0,R6
        SWI      +13
// 1904       strcpy(gpinfo, p);
        MOV      R1,R8
        ADD      R0,R4,R5
        SWI      +26
// 1905       gpinfo[fsize]='\0';
        ADD      R0,R7,R5
        MOV      R1,#+0
        STRB     R1,[R0, #+360]
// 1906       mfree(p);
        MOV      R0,R8
        SWI      +21
// 1907       isfile=1;
        MOV      R0,#+1
        STR      R0,[R5, #+172]
// 1908       write_total();
        _BLF     write_total,??write_total??rA
        ADD      SP,SP,#+52
        CFI CFA R13+24
        POP      {R4-R8,PC}
        CFI CFA R13+76
// 1909     }
// 1910   }
// 1911   else
// 1912     sprintf(gpinfo, "Unknown");
??check_gprs_0:
        ADD      R1,R6,#+28
        ADD      R0,R4,R5
        SWI      +22
// 1913 }
??check_gprs_1:
        ADD      SP,SP,#+52       ;; stack cleaning
        CFI CFA R13+24
        POP      {R4-R8,PC}       ;; return
        CFI EndBlock cfiBlock75

        RSEG CODE:CODE:NOROOT(2)
        DATA
??DataTable35:
        DC32     `?<Constant "4:\\\\zbin\\\\miosd\\\\miosd2....">`

        RSEG CODE:CODE:NOROOT(2)
        CFI Block cfiBlock76 Using cfiCommon0
        CFI NoFunction
        THUMB
??runtime_count??rT:
        BX       PC
        Nop      
        CFI EndBlock cfiBlock76
        REQUIRE runtime_count

        RSEG DATA_I:DATA:SORT:NOROOT(2)
screen:
        DS8 12
        REQUIRE `?<Initializer for screen>`
icsmd:
        DS8 40
        REQUIRE `?<Initializer for icsmd>`
main_clock:
        DS8 4
        REQUIRE `?<Initializer for main_clock>`
ker_state:
        DS8 4
        REQUIRE `?<Initializer for ker_state>`
r_s:
        DS8 4
        REQUIRE `?<Initializer for r_s>`
r_m:
        DS8 4
        REQUIRE `?<Initializer for r_m>`
r_h:
        DS8 4
        REQUIRE `?<Initializer for r_h>`
old_icsm_onMessage:
        DS8 4
        REQUIRE `?<Initializer for old_icsm_onMessage>`
old_icsm_onClose:
        DS8 4
        REQUIRE `?<Initializer for old_icsm_onClose>`
MAINCSM_ID:
        DS8 4
        REQUIRE `?<Initializer for MAINCSM_ID>`
first_con:
        DS8 4
        REQUIRE `?<Initializer for first_con>`
key_mode:
        DS8 4
        REQUIRE `?<Initializer for key_mode>`
pos:
        DS8 4
        REQUIRE `?<Initializer for pos>`
phase:
        DS8 4
        REQUIRE `?<Initializer for phase>`
pos_main_x:
        DS8 4
        REQUIRE `?<Initializer for pos_main_x>`
pos_main_y:
        DS8 4
        REQUIRE `?<Initializer for pos_main_y>`
lock_keys:
        DS8 4
        REQUIRE `?<Initializer for lock_keys>`
pos_link_x:
        DS8 4
        REQUIRE `?<Initializer for pos_link_x>`
pos_link_y:
        DS8 4
        REQUIRE `?<Initializer for pos_link_y>`
pos_msg_x:
        DS8 4
        REQUIRE `?<Initializer for pos_msg_x>`
pos_msg_y:
        DS8 4
        REQUIRE `?<Initializer for pos_msg_y>`
engade_weather:
        DS8 4
        REQUIRE `?<Initializer for engade_weather>`
app_pos:
        DS8 4
        REQUIRE `?<Initializer for app_pos>`
pos_link2_x:
        DS8 4
        REQUIRE `?<Initializer for pos_link2_x>`
pos_link2_y:
        DS8 4
        REQUIRE `?<Initializer for pos_link2_y>`
battery:
        DS8 4
        REQUIRE `?<Initializer for battery>`
monthc:
        DS8 4
        REQUIRE `?<Initializer for monthc>`
hmm:
        DS8 4
        REQUIRE `?<Initializer for hmm>`
ggg:
        DS8 4
        REQUIRE `?<Initializer for ggg>`
trafiks:
        DS8 4
        REQUIRE `?<Initializer for trafiks>`
start_traffic:
        DS8 4
        REQUIRE `?<Initializer for start_traffic>`
ffq:
        DS8 4
        REQUIRE `?<Initializer for ffq>`
isfile:
        DS8 4
        REQUIRE `?<Initializer for isfile>`
switch_gprs_info:
        DS8 4
        REQUIRE `?<Initializer for switch_gprs_info>`
do_st:
        DS8 4
        REQUIRE `?<Initializer for do_st>`
con:
        DS8 4
        REQUIRE `?<Initializer for con>`
sock:
        DS8 4
        REQUIRE `?<Initializer for sock>`
connect_state:
        DS8 4
        REQUIRE `?<Initializer for connect_state>`
pbuf:
        DS8 4
        REQUIRE `?<Initializer for pbuf>`
traf:
        DS8 4
        REQUIRE `?<Initializer for traf>`
charge_m:
        DS8 4
        REQUIRE `?<Initializer for charge_m>`
charge_s:
        DS8 4
        REQUIRE `?<Initializer for charge_s>`
g_min:
        DS8 4
        REQUIRE `?<Initializer for g_min>`
g_sec:
        DS8 4
        REQUIRE `?<Initializer for g_sec>`
g_hour:
        DS8 4
        REQUIRE `?<Initializer for g_hour>`
rewriter:
        DS8 4
        REQUIRE `?<Initializer for rewriter>`
rem_mis:
        DS8 4
        REQUIRE `?<Initializer for rem_mis>`
chinfo:
        DS8 32
        REQUIRE `?<Initializer for chinfo>`
temp:
        DS8 32
        REQUIRE `?<Initializer for temp>`
vejsh:
        DS8 32
        REQUIRE `?<Initializer for vejsh>`
s_icon1:
        DS8 32
        REQUIRE `?<Initializer for s_icon1>`
gpinfo:
        DS8 32
        REQUIRE `?<Initializer for gpinfo>`
mytmr:
        DS8 16
        REQUIRE `?<Initializer for mytmr>`
start_g2:
        DS8 32
        REQUIRE `?<Initializer for start_g2>`
temp2:
        DS8 32
        REQUIRE `?<Initializer for temp2>`
vejsh2:
        DS8 32
        REQUIRE `?<Initializer for vejsh2>`
weather_time:
        DS8 32
        REQUIRE `?<Initializer for weather_time>`
month:
        DS8 8
        REQUIRE `?<Initializer for month>`
mytmr2:
        DS8 16
        REQUIRE `?<Initializer for mytmr2>`
buf:
        DS8 5004
        REQUIRE `?<Initializer for buf>`
mytmr3:
        DS8 16
        REQUIRE `?<Initializer for mytmr3>`
charger:
        DS8 16
        REQUIRE `?<Initializer for charger>`
gipi:
        DS8 16
        REQUIRE `?<Initializer for gipi>`
// 1914 
// 1915 GBSTMR rs_tmr;
rs_tmr:
        DS8 16
        REQUIRE `?<Initializer for rs_tmr>`

        RSEG DATA_I:DATA:SORT:NOROOT(2)
mode_enter:
        DS8 4
        REQUIRE `?<Initializer for mode_enter>`
mode:
        DS8 4
        REQUIRE `?<Initializer for mode>`
CALL_BUTTON:
        DS8 4
        REQUIRE `?<Initializer for CALL_BUTTON>`
// 1916 

        RSEG CODE:CODE:NOROOT(2)
        CFI Block cfiBlock77 Using cfiCommon1
        CFI Function runtime_count
        ARM
// 1917 void runtime_count()
// 1918 {
// 1919   r_s++;
runtime_count:
        LDR      R0,??DataTable38  ;; screen
        PUSH     {LR}
        CFI ?RET Frame(CFA, -4)
        CFI CFA R13+4
        LDR      R1,[R0, #+60]
// 1920   if(r_s==60) 
        LDR      R2,[R0, #+64]
        ADD      R1,R1,#+1
        CMP      R1,#+60
// 1921   {
// 1922     r_s=0;
        MOVEQ    R1,#+0
// 1923     r_m++;
        ADDEQ    R2,R2,#+1
        STR      R1,[R0, #+60]
// 1924   }
// 1925   if(r_m==60)
        CMP      R2,#+60
        BNE      ??runtime_count_0
// 1926   {
// 1927     r_m=0;
// 1928     r_h++;
        LDR      R1,[R0, #+68]
        MOV      R2,#+0
        ADD      R1,R1,#+1
        STR      R1,[R0, #+68]
??runtime_count_0:
        STR      R2,[R0, #+64]
// 1929   }
// 1930 /*  if(r_h==24)
// 1931   {
// 1932     r_h=0;
// 1933     r_d++;
// 1934   }*/
// 1935   GBS_StartTimerProc(&rs_tmr, 216, runtime_count);
        LDR      R2,??runtime_count_1  ;; runtime_count
        MOV      R1,#+216
        MOV      R3,#+236
        ORR      R3,R3,#0x1500
        ADD      R0,R3,R0
        SWI      +77
// 1936 }
        POP      {PC}             ;; return
        DATA
??runtime_count_1:
        DC32     runtime_count
        CFI EndBlock cfiBlock77

        RSEG CODE:CODE:NOROOT(2)
        CFI Block cfiBlock78 Using cfiCommon0
        CFI NoFunction
        THUMB
??main??rT:
        BX       PC
        Nop      
        CFI EndBlock cfiBlock78
        REQUIRE main
// 1937 //  .       .

        RSEG CODE:CODE:NOROOT(2)
        CFI Block cfiBlock79 Using cfiCommon1
        CFI Function main
        ARM
// 1938 int main(void)
// 1939 {
main:
        PUSH     {R4,R5,LR}
        CFI ?RET Frame(CFA, -4)
        CFI R5 Frame(CFA, -8)
        CFI R4 Frame(CFA, -12)
        CFI CFA R13+12
// 1940   LockSched();
// 1941 #ifdef EVILFOX
// 1942 #else
// 1943   InitConfig();
// 1944 #endif
// 1945   CSM_RAM *icsm=FindCSMbyID(CSM_root()->idle_id);
// 1946   memcpy(&icsmd,icsm->constr,sizeof(icsmd));
        LDR      R5,??DataTable38  ;; screen
        SWI      +326
        SWI      +33030
        LDR      R0,[R0, #+4]
        SWI      +264
        MOV      R4,R0
        LDR      R1,[R4, #+8]
        MOV      R2,#+40
        ADD      R0,R5,#+12
        SWI      +286
// 1947   old_icsm_onMessage=icsmd.onMessage;
        LDR      R0,[R5, #+12]
        STR      R0,[R5, #+72]
// 1948   icsmd.onMessage=MyIDLECSM_onMessage;
        LDR      R0,??main_0      ;; MyIDLECSM_onMessage
        STR      R0,[R5, #+12]
// 1949   old_icsm_onClose=icsmd.onClose;
        LDR      R0,[R5, #+36]
        STR      R0,[R5, #+76]
// 1950   icsmd.onClose=MyIDLECSM_onClose;  
        LDR      R0,??main_0+0x4  ;; MyIDLECSM_onClose
        STR      R0,[R5, #+36]
// 1951   icsm->constr=&icsmd;  
        ADD      R0,R5,#+12
        STR      R0,[R4, #+8]
// 1952   
// 1953   AddKeybMsgHook((void *)my_keyhook);
        LDR      R0,??main_0+0x8  ;; my_keyhook
        SWI      +299
// 1954 
// 1955   UnlockSched();
        SWI      +327
// 1956   check_battery();
        BL       check_battery
// 1957   check_gprs();
        BL       check_gprs
// 1958   start_again();
        BL       start_again
// 1959   runtime_count();
        BL       runtime_count
// 1960   first_con=1;
        MOV      R0,#+1
        STR      R0,[R5, #+84]
// 1961   pos=1;
        STR      R0,[R5, #+92]
// 1962 #ifdef EVILFOX
// 1963 #else
// 1964   ShowMSG(1,(int)"MIOSD running (c)Evilfox");
// 1965 #endif
// 1966   
// 1967   return 0;
        MOV      R0,#+0
        POP      {R4,R5,PC}       ;; return
        DATA
??main_0:
        DC32     MyIDLECSM_onMessage
        DC32     MyIDLECSM_onClose
        DC32     my_keyhook
        CFI EndBlock cfiBlock79
// 1968 }

        RSEG CODE:CODE:NOROOT(2)
        DATA
??DataTable38:
        DC32     screen

        RSEG CODE:CODE:NOROOT(2)
        CFI Block cfiBlock80 Using cfiCommon1
        CFI NoFunction
        ARM
??ascii2ws??rA:
        LDR      R12,??Subroutine40_0  ;; ascii2ws
        BX       R12
        DATA
??Subroutine40_0:
        DC32     ascii2ws
        CFI EndBlock cfiBlock80

        RSEG CODE:CODE:NOROOT(2)
        CFI Block cfiBlock81 Using cfiCommon1
        CFI NoFunction
        ARM
??kill_data??rA:
        LDR      R12,??Subroutine41_0  ;; kill_data
        BX       R12
        DATA
??Subroutine41_0:
        DC32     kill_data
        CFI EndBlock cfiBlock81

        RSEG CODE:CODE:NOROOT(2)
        CFI Block cfiBlock82 Using cfiCommon1
        CFI NoFunction
        ARM
??seqkill??rA:
        LDR      R12,??Subroutine42_0  ;; seqkill
        BX       R12
        DATA
??Subroutine42_0:
        DC32     seqkill
        CFI EndBlock cfiBlock82

        RSEG CODE:CODE:NOROOT(2)
        CFI Block cfiBlock83 Using cfiCommon1
        CFI NoFunction
        ARM
??EngadeClock??rA:
        LDR      R12,??Subroutine43_0  ;; EngadeClock
        BX       R12
        DATA
??Subroutine43_0:
        DC32     EngadeClock
        CFI EndBlock cfiBlock83

        RSEG CODE:CODE:NOROOT(2)
        CFI Block cfiBlock84 Using cfiCommon1
        CFI NoFunction
        ARM
??GetMissedEventCount??rA:
        LDR      R12,??Subroutine44_0  ;; GetMissedEventCount
        BX       R12
        DATA
??Subroutine44_0:
        DC32     GetMissedEventCount
        CFI EndBlock cfiBlock84

        RSEG CODE:CODE:NOROOT(2)
        CFI Block cfiBlock85 Using cfiCommon1
        CFI NoFunction
        ARM
??write_total??rA:
        LDR      R12,??Subroutine45_0  ;; write_total
        BX       R12
        DATA
??Subroutine45_0:
        DC32     write_total
        CFI EndBlock cfiBlock85

        RSEG DATA_ID:CONST:SORT:NOROOT(2)
`?<Initializer for screen>`:
        DATA
        DC16 0, 0
        DC32 8, `?<Constant "">`
`?<Initializer for icsmd>`:
        DC8 0, 0, 0, 0, 0, 0, 0, 0, 0, 0, 0, 0, 0, 0, 0, 0
        DC8 0, 0, 0, 0, 0, 0, 0, 0, 0, 0, 0, 0, 0, 0, 0, 0
        DC8 0, 0, 0, 0, 0, 0, 0, 0
`?<Initializer for main_clock>`:
        DC8 0, 0, 0, 0
`?<Initializer for ker_state>`:
        DC8 0, 0, 0, 0
`?<Initializer for r_s>`:
        DC32 20
`?<Initializer for r_m>`:
        DC8 0, 0, 0, 0
`?<Initializer for r_h>`:
        DC8 0, 0, 0, 0
`?<Initializer for old_icsm_onMessage>`:
        DC8 0, 0, 0, 0
`?<Initializer for old_icsm_onClose>`:
        DC8 0, 0, 0, 0
`?<Initializer for MAINCSM_ID>`:
        DC8 0, 0, 0, 0
`?<Initializer for first_con>`:
        DC8 0, 0, 0, 0
`?<Initializer for key_mode>`:
        DC8 0, 0, 0, 0
`?<Initializer for pos>`:
        DC8 0, 0, 0, 0
`?<Initializer for phase>`:
        DC8 0, 0, 0, 0
`?<Initializer for pos_main_x>`:
        DC8 0, 0, 0, 0
`?<Initializer for pos_main_y>`:
        DC8 0, 0, 0, 0
`?<Initializer for lock_keys>`:
        DC8 0, 0, 0, 0
`?<Initializer for pos_link_x>`:
        DC8 0, 0, 0, 0
`?<Initializer for pos_link_y>`:
        DC8 0, 0, 0, 0
`?<Initializer for pos_msg_x>`:
        DC8 0, 0, 0, 0
`?<Initializer for pos_msg_y>`:
        DC8 0, 0, 0, 0
`?<Initializer for engade_weather>`:
        DC8 0, 0, 0, 0
`?<Initializer for app_pos>`:
        DC32 1
`?<Initializer for pos_link2_x>`:
        DC8 0, 0, 0, 0
`?<Initializer for pos_link2_y>`:
        DC8 0, 0, 0, 0
`?<Initializer for battery>`:
        DC8 0, 0, 0, 0
`?<Initializer for monthc>`:
        DC8 0, 0, 0, 0
`?<Initializer for hmm>`:
        DC8 0, 0, 0, 0
`?<Initializer for ggg>`:
        DC8 0, 0, 0, 0
`?<Initializer for trafiks>`:
        DC8 0, 0, 0, 0
`?<Initializer for start_traffic>`:
        DC8 0, 0, 0, 0
`?<Initializer for ffq>`:
        DC8 0, 0, 0, 0
`?<Initializer for isfile>`:
        DC8 0, 0, 0, 0
`?<Initializer for switch_gprs_info>`:
        DC8 0, 0, 0, 0
`?<Initializer for do_st>`:
        DC32 3
`?<Initializer for con>`:
        DC8 0, 0, 0, 0
`?<Initializer for sock>`:
        DC8 0, 0, 0, 0
`?<Initializer for connect_state>`:
        DC32 0
`?<Initializer for pbuf>`:
        DC32 0
`?<Initializer for traf>`:
        DC32 0
`?<Initializer for charge_m>`:
        DC8 0, 0, 0, 0
`?<Initializer for charge_s>`:
        DC8 0, 0, 0, 0
`?<Initializer for g_min>`:
        DC8 0, 0, 0, 0
`?<Initializer for g_sec>`:
        DC8 0, 0, 0, 0
`?<Initializer for g_hour>`:
        DC8 0, 0, 0, 0
`?<Initializer for rewriter>`:
        DC8 0, 0, 0, 0
`?<Initializer for rem_mis>`:
        DC8 0, 0, 0, 0
`?<Initializer for chinfo>`:
        DC8 0, 0, 0, 0, 0, 0, 0, 0, 0, 0, 0, 0, 0, 0, 0, 0
        DC8 0, 0, 0, 0, 0, 0, 0, 0, 0, 0, 0, 0, 0, 0, 0, 0
`?<Initializer for temp>`:
        DC8 0, 0, 0, 0, 0, 0, 0, 0, 0, 0, 0, 0, 0, 0, 0, 0
        DC8 0, 0, 0, 0, 0, 0, 0, 0, 0, 0, 0, 0, 0, 0, 0, 0
`?<Initializer for vejsh>`:
        DC8 0, 0, 0, 0, 0, 0, 0, 0, 0, 0, 0, 0, 0, 0, 0, 0
        DC8 0, 0, 0, 0, 0, 0, 0, 0, 0, 0, 0, 0, 0, 0, 0, 0
`?<Initializer for s_icon1>`:
        DC8 0, 0, 0, 0, 0, 0, 0, 0, 0, 0, 0, 0, 0, 0, 0, 0
        DC8 0, 0, 0, 0, 0, 0, 0, 0, 0, 0, 0, 0, 0, 0, 0, 0
`?<Initializer for gpinfo>`:
        DC8 0, 0, 0, 0, 0, 0, 0, 0, 0, 0, 0, 0, 0, 0, 0, 0
        DC8 0, 0, 0, 0, 0, 0, 0, 0, 0, 0, 0, 0, 0, 0, 0, 0
`?<Initializer for mytmr>`:
        DC8 0, 0, 0, 0, 0, 0, 0, 0, 0, 0, 0, 0, 0, 0, 0, 0
`?<Initializer for start_g2>`:
        DC8 0, 0, 0, 0, 0, 0, 0, 0, 0, 0, 0, 0, 0, 0, 0, 0
        DC8 0, 0, 0, 0, 0, 0, 0, 0, 0, 0, 0, 0, 0, 0, 0, 0
`?<Initializer for temp2>`:
        DC8 0, 0, 0, 0, 0, 0, 0, 0, 0, 0, 0, 0, 0, 0, 0, 0
        DC8 0, 0, 0, 0, 0, 0, 0, 0, 0, 0, 0, 0, 0, 0, 0, 0
`?<Initializer for vejsh2>`:
        DC8 0, 0, 0, 0, 0, 0, 0, 0, 0, 0, 0, 0, 0, 0, 0, 0
        DC8 0, 0, 0, 0, 0, 0, 0, 0, 0, 0, 0, 0, 0, 0, 0, 0
`?<Initializer for weather_time>`:
        DC8 0, 0, 0, 0, 0, 0, 0, 0, 0, 0, 0, 0, 0, 0, 0, 0
        DC8 0, 0, 0, 0, 0, 0, 0, 0, 0, 0, 0, 0, 0, 0, 0, 0
`?<Initializer for month>`:
        DC8 0, 0, 0, 0, 0, 0, 0, 0
`?<Initializer for mytmr2>`:
        DC8 0, 0, 0, 0, 0, 0, 0, 0, 0, 0, 0, 0, 0, 0, 0, 0
`?<Initializer for buf>`:
        DC8 0, 0, 0, 0, 0, 0, 0, 0, 0, 0, 0, 0, 0, 0, 0, 0
        DC8 0, 0, 0, 0, 0, 0, 0, 0, 0, 0, 0, 0, 0, 0, 0, 0
        DC8 0, 0, 0, 0, 0, 0, 0, 0, 0, 0, 0, 0, 0, 0, 0, 0
        DC8 0, 0, 0, 0, 0, 0, 0, 0, 0, 0, 0, 0, 0, 0, 0, 0
        DC8 0, 0, 0, 0, 0, 0, 0, 0, 0, 0, 0, 0, 0, 0, 0, 0
        DC8 0, 0, 0, 0, 0, 0, 0, 0, 0, 0, 0, 0, 0, 0, 0, 0
        DC8 0, 0, 0, 0, 0, 0, 0, 0, 0, 0, 0, 0, 0, 0, 0, 0
        DC8 0, 0, 0, 0, 0, 0, 0, 0, 0, 0, 0, 0, 0, 0, 0, 0
        DC8 0, 0, 0, 0, 0, 0, 0, 0, 0, 0, 0, 0, 0, 0, 0, 0
        DC8 0, 0, 0, 0, 0, 0, 0, 0, 0, 0, 0, 0, 0, 0, 0, 0
        DC8 0, 0, 0, 0, 0, 0, 0, 0, 0, 0, 0, 0, 0, 0, 0, 0
        DC8 0, 0, 0, 0, 0, 0, 0, 0, 0, 0, 0, 0, 0, 0, 0, 0
        DC8 0, 0, 0, 0, 0, 0, 0, 0, 0, 0, 0, 0, 0, 0, 0, 0
        DC8 0, 0, 0, 0, 0, 0, 0, 0, 0, 0, 0, 0, 0, 0, 0, 0
        DC8 0, 0, 0, 0, 0, 0, 0, 0, 0, 0, 0, 0, 0, 0, 0, 0
        DC8 0, 0, 0, 0, 0, 0, 0, 0, 0, 0, 0, 0, 0, 0, 0, 0
        DC8 0, 0, 0, 0, 0, 0, 0, 0, 0, 0, 0, 0, 0, 0, 0, 0
        DC8 0, 0, 0, 0, 0, 0, 0, 0, 0, 0, 0, 0, 0, 0, 0, 0
        DC8 0, 0, 0, 0, 0, 0, 0, 0, 0, 0, 0, 0, 0, 0, 0, 0
        DC8 0, 0, 0, 0, 0, 0, 0, 0, 0, 0, 0, 0, 0, 0, 0, 0
        DC8 0, 0, 0, 0, 0, 0, 0, 0, 0, 0, 0, 0, 0, 0, 0, 0
        DC8 0, 0, 0, 0, 0, 0, 0, 0, 0, 0, 0, 0, 0, 0, 0, 0
        DC8 0, 0, 0, 0, 0, 0, 0, 0, 0, 0, 0, 0, 0, 0, 0, 0
        DC8 0, 0, 0, 0, 0, 0, 0, 0, 0, 0, 0, 0, 0, 0, 0, 0
        DC8 0, 0, 0, 0, 0, 0, 0, 0, 0, 0, 0, 0, 0, 0, 0, 0
        DC8 0, 0, 0, 0, 0, 0, 0, 0, 0, 0, 0, 0, 0, 0, 0, 0
        DC8 0, 0, 0, 0, 0, 0, 0, 0, 0, 0, 0, 0, 0, 0, 0, 0
        DC8 0, 0, 0, 0, 0, 0, 0, 0, 0, 0, 0, 0, 0, 0, 0, 0
        DC8 0, 0, 0, 0, 0, 0, 0, 0, 0, 0, 0, 0, 0, 0, 0, 0
        DC8 0, 0, 0, 0, 0, 0, 0, 0, 0, 0, 0, 0, 0, 0, 0, 0
        DC8 0, 0, 0, 0, 0, 0, 0, 0, 0, 0, 0, 0, 0, 0, 0, 0
        DC8 0, 0, 0, 0, 0, 0, 0, 0, 0, 0, 0, 0, 0, 0, 0, 0
        DC8 0, 0, 0, 0, 0, 0, 0, 0, 0, 0, 0, 0, 0, 0, 0, 0
        DC8 0, 0, 0, 0, 0, 0, 0, 0, 0, 0, 0, 0, 0, 0, 0, 0
        DC8 0, 0, 0, 0, 0, 0, 0, 0, 0, 0, 0, 0, 0, 0, 0, 0
        DC8 0, 0, 0, 0, 0, 0, 0, 0, 0, 0, 0, 0, 0, 0, 0, 0
        DC8 0, 0, 0, 0, 0, 0, 0, 0, 0, 0, 0, 0, 0, 0, 0, 0
        DC8 0, 0, 0, 0, 0, 0, 0, 0, 0, 0, 0, 0, 0, 0, 0, 0
        DC8 0, 0, 0, 0, 0, 0, 0, 0, 0, 0, 0, 0, 0, 0, 0, 0
        DC8 0, 0, 0, 0, 0, 0, 0, 0, 0, 0, 0, 0, 0, 0, 0, 0
        DC8 0, 0, 0, 0, 0, 0, 0, 0, 0, 0, 0, 0, 0, 0, 0, 0
        DC8 0, 0, 0, 0, 0, 0, 0, 0, 0, 0, 0, 0, 0, 0, 0, 0
        DC8 0, 0, 0, 0, 0, 0, 0, 0, 0, 0, 0, 0, 0, 0, 0, 0
        DC8 0, 0, 0, 0, 0, 0, 0, 0, 0, 0, 0, 0, 0, 0, 0, 0
        DC8 0, 0, 0, 0, 0, 0, 0, 0, 0, 0, 0, 0, 0, 0, 0, 0
        DC8 0, 0, 0, 0, 0, 0, 0, 0, 0, 0, 0, 0, 0, 0, 0, 0
        DC8 0, 0, 0, 0, 0, 0, 0, 0, 0, 0, 0, 0, 0, 0, 0, 0
        DC8 0, 0, 0, 0, 0, 0, 0, 0, 0, 0, 0, 0, 0, 0, 0, 0
        DC8 0, 0, 0, 0, 0, 0, 0, 0, 0, 0, 0, 0, 0, 0, 0, 0
        DC8 0, 0, 0, 0, 0, 0, 0, 0, 0, 0, 0, 0, 0, 0, 0, 0
        DC8 0, 0, 0, 0, 0, 0, 0, 0, 0, 0, 0, 0, 0, 0, 0, 0
        DC8 0, 0, 0, 0, 0, 0, 0, 0, 0, 0, 0, 0, 0, 0, 0, 0
        DC8 0, 0, 0, 0, 0, 0, 0, 0, 0, 0, 0, 0, 0, 0, 0, 0
        DC8 0, 0, 0, 0, 0, 0, 0, 0, 0, 0, 0, 0, 0, 0, 0, 0
        DC8 0, 0, 0, 0, 0, 0, 0, 0, 0, 0, 0, 0, 0, 0, 0, 0
        DC8 0, 0, 0, 0, 0, 0, 0, 0, 0, 0, 0, 0, 0, 0, 0, 0
        DC8 0, 0, 0, 0, 0, 0, 0, 0, 0, 0, 0, 0, 0, 0, 0, 0
        DC8 0, 0, 0, 0, 0, 0, 0, 0, 0, 0, 0, 0, 0, 0, 0, 0
        DC8 0, 0, 0, 0, 0, 0, 0, 0, 0, 0, 0, 0, 0, 0, 0, 0
        DC8 0, 0, 0, 0, 0, 0, 0, 0, 0, 0, 0, 0, 0, 0, 0, 0
        DC8 0, 0, 0, 0, 0, 0, 0, 0, 0, 0, 0, 0, 0, 0, 0, 0
        DC8 0, 0, 0, 0, 0, 0, 0, 0, 0, 0, 0, 0, 0, 0, 0, 0
        DC8 0, 0, 0, 0, 0, 0, 0, 0, 0, 0, 0, 0, 0, 0, 0, 0
        DC8 0, 0, 0, 0, 0, 0, 0, 0, 0, 0, 0, 0, 0, 0, 0, 0
        DC8 0, 0, 0, 0, 0, 0, 0, 0, 0, 0, 0, 0, 0, 0, 0, 0
        DC8 0, 0, 0, 0, 0, 0, 0, 0, 0, 0, 0, 0, 0, 0, 0, 0
        DC8 0, 0, 0, 0, 0, 0, 0, 0, 0, 0, 0, 0, 0, 0, 0, 0
        DC8 0, 0, 0, 0, 0, 0, 0, 0, 0, 0, 0, 0, 0, 0, 0, 0
        DC8 0, 0, 0, 0, 0, 0, 0, 0, 0, 0, 0, 0, 0, 0, 0, 0
        DC8 0, 0, 0, 0, 0, 0, 0, 0, 0, 0, 0, 0, 0, 0, 0, 0
        DC8 0, 0, 0, 0, 0, 0, 0, 0, 0, 0, 0, 0, 0, 0, 0, 0
        DC8 0, 0, 0, 0, 0, 0, 0, 0, 0, 0, 0, 0, 0, 0, 0, 0
        DC8 0, 0, 0, 0, 0, 0, 0, 0, 0, 0, 0, 0, 0, 0, 0, 0
        DC8 0, 0, 0, 0, 0, 0, 0, 0, 0, 0, 0, 0, 0, 0, 0, 0
        DC8 0, 0, 0, 0, 0, 0, 0, 0, 0, 0, 0, 0, 0, 0, 0, 0
        DC8 0, 0, 0, 0, 0, 0, 0, 0, 0, 0, 0, 0, 0, 0, 0, 0
        DC8 0, 0, 0, 0, 0, 0, 0, 0, 0, 0, 0, 0, 0, 0, 0, 0
        DC8 0, 0, 0, 0, 0, 0, 0, 0, 0, 0, 0, 0, 0, 0, 0, 0
        DC8 0, 0, 0, 0, 0, 0, 0, 0, 0, 0, 0, 0, 0, 0, 0, 0
        DC8 0, 0, 0, 0, 0, 0, 0, 0, 0, 0, 0, 0, 0, 0, 0, 0
        DC8 0, 0, 0, 0, 0, 0, 0, 0, 0, 0, 0, 0, 0, 0, 0, 0
        DC8 0, 0, 0, 0, 0, 0, 0, 0, 0, 0, 0, 0, 0, 0, 0, 0
        DC8 0, 0, 0, 0, 0, 0, 0, 0, 0, 0, 0, 0, 0, 0, 0, 0
        DC8 0, 0, 0, 0, 0, 0, 0, 0, 0, 0, 0, 0, 0, 0, 0, 0
        DC8 0, 0, 0, 0, 0, 0, 0, 0, 0, 0, 0, 0, 0, 0, 0, 0
        DC8 0, 0, 0, 0, 0, 0, 0, 0, 0, 0, 0, 0, 0, 0, 0, 0
        DC8 0, 0, 0, 0, 0, 0, 0, 0, 0, 0, 0, 0, 0, 0, 0, 0
        DC8 0, 0, 0, 0, 0, 0, 0, 0, 0, 0, 0, 0, 0, 0, 0, 0
        DC8 0, 0, 0, 0, 0, 0, 0, 0, 0, 0, 0, 0, 0, 0, 0, 0
        DC8 0, 0, 0, 0, 0, 0, 0, 0, 0, 0, 0, 0, 0, 0, 0, 0
        DC8 0, 0, 0, 0, 0, 0, 0, 0, 0, 0, 0, 0, 0, 0, 0, 0
        DC8 0, 0, 0, 0, 0, 0, 0, 0, 0, 0, 0, 0, 0, 0, 0, 0
        DC8 0, 0, 0, 0, 0, 0, 0, 0, 0, 0, 0, 0, 0, 0, 0, 0
        DC8 0, 0, 0, 0, 0, 0, 0, 0, 0, 0, 0, 0, 0, 0, 0, 0
        DC8 0, 0, 0, 0, 0, 0, 0, 0, 0, 0, 0, 0, 0, 0, 0, 0
        DC8 0, 0, 0, 0, 0, 0, 0, 0, 0, 0, 0, 0, 0, 0, 0, 0
        DC8 0, 0, 0, 0, 0, 0, 0, 0, 0, 0, 0, 0, 0, 0, 0, 0
        DC8 0, 0, 0, 0, 0, 0, 0, 0, 0, 0, 0, 0, 0, 0, 0, 0
        DC8 0, 0, 0, 0, 0, 0, 0, 0, 0, 0, 0, 0, 0, 0, 0, 0
        DC8 0, 0, 0, 0, 0, 0, 0, 0, 0, 0, 0, 0, 0, 0, 0, 0
        DC8 0, 0, 0, 0, 0, 0, 0, 0, 0, 0, 0, 0, 0, 0, 0, 0
        DC8 0, 0, 0, 0, 0, 0, 0, 0, 0, 0, 0, 0, 0, 0, 0, 0
        DC8 0, 0, 0, 0, 0, 0, 0, 0, 0, 0, 0, 0, 0, 0, 0, 0
        DC8 0, 0, 0, 0, 0, 0, 0, 0, 0, 0, 0, 0, 0, 0, 0, 0
        DC8 0, 0, 0, 0, 0, 0, 0, 0, 0, 0, 0, 0, 0, 0, 0, 0
        DC8 0, 0, 0, 0, 0, 0, 0, 0, 0, 0, 0, 0, 0, 0, 0, 0
        DC8 0, 0, 0, 0, 0, 0, 0, 0, 0, 0, 0, 0, 0, 0, 0, 0
        DC8 0, 0, 0, 0, 0, 0, 0, 0, 0, 0, 0, 0, 0, 0, 0, 0
        DC8 0, 0, 0, 0, 0, 0, 0, 0, 0, 0, 0, 0, 0, 0, 0, 0
        DC8 0, 0, 0, 0, 0, 0, 0, 0, 0, 0, 0, 0, 0, 0, 0, 0
        DC8 0, 0, 0, 0, 0, 0, 0, 0, 0, 0, 0, 0, 0, 0, 0, 0
        DC8 0, 0, 0, 0, 0, 0, 0, 0, 0, 0, 0, 0, 0, 0, 0, 0
        DC8 0, 0, 0, 0, 0, 0, 0, 0, 0, 0, 0, 0, 0, 0, 0, 0
        DC8 0, 0, 0, 0, 0, 0, 0, 0, 0, 0, 0, 0, 0, 0, 0, 0
        DC8 0, 0, 0, 0, 0, 0, 0, 0, 0, 0, 0, 0, 0, 0, 0, 0
        DC8 0, 0, 0, 0, 0, 0, 0, 0, 0, 0, 0, 0, 0, 0, 0, 0
        DC8 0, 0, 0, 0, 0, 0, 0, 0, 0, 0, 0, 0, 0, 0, 0, 0
        DC8 0, 0, 0, 0, 0, 0, 0, 0, 0, 0, 0, 0, 0, 0, 0, 0
        DC8 0, 0, 0, 0, 0, 0, 0, 0, 0, 0, 0, 0, 0, 0, 0, 0
        DC8 0, 0, 0, 0, 0, 0, 0, 0, 0, 0, 0, 0, 0, 0, 0, 0
        DC8 0, 0, 0, 0, 0, 0, 0, 0, 0, 0, 0, 0, 0, 0, 0, 0
        DC8 0, 0, 0, 0, 0, 0, 0, 0, 0, 0, 0, 0, 0, 0, 0, 0
        DC8 0, 0, 0, 0, 0, 0, 0, 0, 0, 0, 0, 0, 0, 0, 0, 0
        DC8 0, 0, 0, 0, 0, 0, 0, 0, 0, 0, 0, 0, 0, 0, 0, 0
        DC8 0, 0, 0, 0, 0, 0, 0, 0, 0, 0, 0, 0, 0, 0, 0, 0
        DC8 0, 0, 0, 0, 0, 0, 0, 0, 0, 0, 0, 0, 0, 0, 0, 0
        DC8 0, 0, 0, 0, 0, 0, 0, 0, 0, 0, 0, 0, 0, 0, 0, 0
        DC8 0, 0, 0, 0, 0, 0, 0, 0, 0, 0, 0, 0, 0, 0, 0, 0
        DC8 0, 0, 0, 0, 0, 0, 0, 0, 0, 0, 0, 0, 0, 0, 0, 0
        DC8 0, 0, 0, 0, 0, 0, 0, 0, 0, 0, 0, 0, 0, 0, 0, 0
        DC8 0, 0, 0, 0, 0, 0, 0, 0, 0, 0, 0, 0, 0, 0, 0, 0
        DC8 0, 0, 0, 0, 0, 0, 0, 0, 0, 0, 0, 0, 0, 0, 0, 0
        DC8 0, 0, 0, 0, 0, 0, 0, 0, 0, 0, 0, 0, 0, 0, 0, 0
        DC8 0, 0, 0, 0, 0, 0, 0, 0, 0, 0, 0, 0, 0, 0, 0, 0
        DC8 0, 0, 0, 0, 0, 0, 0, 0, 0, 0, 0, 0, 0, 0, 0, 0
        DC8 0, 0, 0, 0, 0, 0, 0, 0, 0, 0, 0, 0, 0, 0, 0, 0
        DC8 0, 0, 0, 0, 0, 0, 0, 0, 0, 0, 0, 0, 0, 0, 0, 0
        DC8 0, 0, 0, 0, 0, 0, 0, 0, 0, 0, 0, 0, 0, 0, 0, 0
        DC8 0, 0, 0, 0, 0, 0, 0, 0, 0, 0, 0, 0, 0, 0, 0, 0
        DC8 0, 0, 0, 0, 0, 0, 0, 0, 0, 0, 0, 0, 0, 0, 0, 0
        DC8 0, 0, 0, 0, 0, 0, 0, 0, 0, 0, 0, 0, 0, 0, 0, 0
        DC8 0, 0, 0, 0, 0, 0, 0, 0, 0, 0, 0, 0, 0, 0, 0, 0
        DC8 0, 0, 0, 0, 0, 0, 0, 0, 0, 0, 0, 0, 0, 0, 0, 0
        DC8 0, 0, 0, 0, 0, 0, 0, 0, 0, 0, 0, 0, 0, 0, 0, 0
        DC8 0, 0, 0, 0, 0, 0, 0, 0, 0, 0, 0, 0, 0, 0, 0, 0
        DC8 0, 0, 0, 0, 0, 0, 0, 0, 0, 0, 0, 0, 0, 0, 0, 0
        DC8 0, 0, 0, 0, 0, 0, 0, 0, 0, 0, 0, 0, 0, 0, 0, 0
        DC8 0, 0, 0, 0, 0, 0, 0, 0, 0, 0, 0, 0, 0, 0, 0, 0
        DC8 0, 0, 0, 0, 0, 0, 0, 0, 0, 0, 0, 0, 0, 0, 0, 0
        DC8 0, 0, 0, 0, 0, 0, 0, 0, 0, 0, 0, 0, 0, 0, 0, 0
        DC8 0, 0, 0, 0, 0, 0, 0, 0, 0, 0, 0, 0, 0, 0, 0, 0
        DC8 0, 0, 0, 0, 0, 0, 0, 0, 0, 0, 0, 0, 0, 0, 0, 0
        DC8 0, 0, 0, 0, 0, 0, 0, 0, 0, 0, 0, 0, 0, 0, 0, 0
        DC8 0, 0, 0, 0, 0, 0, 0, 0, 0, 0, 0, 0, 0, 0, 0, 0
        DC8 0, 0, 0, 0, 0, 0, 0, 0, 0, 0, 0, 0, 0, 0, 0, 0
        DC8 0, 0, 0, 0, 0, 0, 0, 0, 0, 0, 0, 0, 0, 0, 0, 0
        DC8 0, 0, 0, 0, 0, 0, 0, 0, 0, 0, 0, 0, 0, 0, 0, 0
        DC8 0, 0, 0, 0, 0, 0, 0, 0, 0, 0, 0, 0, 0, 0, 0, 0
        DC8 0, 0, 0, 0, 0, 0, 0, 0, 0, 0, 0, 0, 0, 0, 0, 0
        DC8 0, 0, 0, 0, 0, 0, 0, 0, 0, 0, 0, 0, 0, 0, 0, 0
        DC8 0, 0, 0, 0, 0, 0, 0, 0, 0, 0, 0, 0, 0, 0, 0, 0
        DC8 0, 0, 0, 0, 0, 0, 0, 0, 0, 0, 0, 0, 0, 0, 0, 0
        DC8 0, 0, 0, 0, 0, 0, 0, 0, 0, 0, 0, 0, 0, 0, 0, 0
        DC8 0, 0, 0, 0, 0, 0, 0, 0, 0, 0, 0, 0, 0, 0, 0, 0
        DC8 0, 0, 0, 0, 0, 0, 0, 0, 0, 0, 0, 0, 0, 0, 0, 0
        DC8 0, 0, 0, 0, 0, 0, 0, 0, 0, 0, 0, 0, 0, 0, 0, 0
        DC8 0, 0, 0, 0, 0, 0, 0, 0, 0, 0, 0, 0, 0, 0, 0, 0
        DC8 0, 0, 0, 0, 0, 0, 0, 0, 0, 0, 0, 0, 0, 0, 0, 0
        DC8 0, 0, 0, 0, 0, 0, 0, 0, 0, 0, 0, 0, 0, 0, 0, 0
        DC8 0, 0, 0, 0, 0, 0, 0, 0, 0, 0, 0, 0, 0, 0, 0, 0
        DC8 0, 0, 0, 0, 0, 0, 0, 0, 0, 0, 0, 0, 0, 0, 0, 0
        DC8 0, 0, 0, 0, 0, 0, 0, 0, 0, 0, 0, 0, 0, 0, 0, 0
        DC8 0, 0, 0, 0, 0, 0, 0, 0, 0, 0, 0, 0, 0, 0, 0, 0
        DC8 0, 0, 0, 0, 0, 0, 0, 0, 0, 0, 0, 0, 0, 0, 0, 0
        DC8 0, 0, 0, 0, 0, 0, 0, 0, 0, 0, 0, 0, 0, 0, 0, 0
        DC8 0, 0, 0, 0, 0, 0, 0, 0, 0, 0, 0, 0, 0, 0, 0, 0
        DC8 0, 0, 0, 0, 0, 0, 0, 0, 0, 0, 0, 0, 0, 0, 0, 0
        DC8 0, 0, 0, 0, 0, 0, 0, 0, 0, 0, 0, 0, 0, 0, 0, 0
        DC8 0, 0, 0, 0, 0, 0, 0, 0, 0, 0, 0, 0, 0, 0, 0, 0
        DC8 0, 0, 0, 0, 0, 0, 0, 0, 0, 0, 0, 0, 0, 0, 0, 0
        DC8 0, 0, 0, 0, 0, 0, 0, 0, 0, 0, 0, 0, 0, 0, 0, 0
        DC8 0, 0, 0, 0, 0, 0, 0, 0, 0, 0, 0, 0, 0, 0, 0, 0
        DC8 0, 0, 0, 0, 0, 0, 0, 0, 0, 0, 0, 0, 0, 0, 0, 0
        DC8 0, 0, 0, 0, 0, 0, 0, 0, 0, 0, 0, 0, 0, 0, 0, 0
        DC8 0, 0, 0, 0, 0, 0, 0, 0, 0, 0, 0, 0, 0, 0, 0, 0
        DC8 0, 0, 0, 0, 0, 0, 0, 0, 0, 0, 0, 0, 0, 0, 0, 0
        DC8 0, 0, 0, 0, 0, 0, 0, 0, 0, 0, 0, 0, 0, 0, 0, 0
        DC8 0, 0, 0, 0, 0, 0, 0, 0, 0, 0, 0, 0, 0, 0, 0, 0
        DC8 0, 0, 0, 0, 0, 0, 0, 0, 0, 0, 0, 0, 0, 0, 0, 0
        DC8 0, 0, 0, 0, 0, 0, 0, 0, 0, 0, 0, 0, 0, 0, 0, 0
        DC8 0, 0, 0, 0, 0, 0, 0, 0, 0, 0, 0, 0, 0, 0, 0, 0
        DC8 0, 0, 0, 0, 0, 0, 0, 0, 0, 0, 0, 0, 0, 0, 0, 0
        DC8 0, 0, 0, 0, 0, 0, 0, 0, 0, 0, 0, 0, 0, 0, 0, 0
        DC8 0, 0, 0, 0, 0, 0, 0, 0, 0, 0, 0, 0, 0, 0, 0, 0
        DC8 0, 0, 0, 0, 0, 0, 0, 0, 0, 0, 0, 0, 0, 0, 0, 0
        DC8 0, 0, 0, 0, 0, 0, 0, 0, 0, 0, 0, 0, 0, 0, 0, 0
        DC8 0, 0, 0, 0, 0, 0, 0, 0, 0, 0, 0, 0, 0, 0, 0, 0
        DC8 0, 0, 0, 0, 0, 0, 0, 0, 0, 0, 0, 0, 0, 0, 0, 0
        DC8 0, 0, 0, 0, 0, 0, 0, 0, 0, 0, 0, 0, 0, 0, 0, 0
        DC8 0, 0, 0, 0, 0, 0, 0, 0, 0, 0, 0, 0, 0, 0, 0, 0
        DC8 0, 0, 0, 0, 0, 0, 0, 0, 0, 0, 0, 0, 0, 0, 0, 0
        DC8 0, 0, 0, 0, 0, 0, 0, 0, 0, 0, 0, 0, 0, 0, 0, 0
        DC8 0, 0, 0, 0, 0, 0, 0, 0, 0, 0, 0, 0, 0, 0, 0, 0
        DC8 0, 0, 0, 0, 0, 0, 0, 0, 0, 0, 0, 0, 0, 0, 0, 0
        DC8 0, 0, 0, 0, 0, 0, 0, 0, 0, 0, 0, 0, 0, 0, 0, 0
        DC8 0, 0, 0, 0, 0, 0, 0, 0, 0, 0, 0, 0, 0, 0, 0, 0
        DC8 0, 0, 0, 0, 0, 0, 0, 0, 0, 0, 0, 0, 0, 0, 0, 0
        DC8 0, 0, 0, 0, 0, 0, 0, 0, 0, 0, 0, 0, 0, 0, 0, 0
        DC8 0, 0, 0, 0, 0, 0, 0, 0, 0, 0, 0, 0, 0, 0, 0, 0
        DC8 0, 0, 0, 0, 0, 0, 0, 0, 0, 0, 0, 0, 0, 0, 0, 0
        DC8 0, 0, 0, 0, 0, 0, 0, 0, 0, 0, 0, 0, 0, 0, 0, 0
        DC8 0, 0, 0, 0, 0, 0, 0, 0, 0, 0, 0, 0, 0, 0, 0, 0
        DC8 0, 0, 0, 0, 0, 0, 0, 0, 0, 0, 0, 0, 0, 0, 0, 0
        DC8 0, 0, 0, 0, 0, 0, 0, 0, 0, 0, 0, 0, 0, 0, 0, 0
        DC8 0, 0, 0, 0, 0, 0, 0, 0, 0, 0, 0, 0, 0, 0, 0, 0
        DC8 0, 0, 0, 0, 0, 0, 0, 0, 0, 0, 0, 0, 0, 0, 0, 0
        DC8 0, 0, 0, 0, 0, 0, 0, 0, 0, 0, 0, 0, 0, 0, 0, 0
        DC8 0, 0, 0, 0, 0, 0, 0, 0, 0, 0, 0, 0, 0, 0, 0, 0
        DC8 0, 0, 0, 0, 0, 0, 0, 0, 0, 0, 0, 0, 0, 0, 0, 0
        DC8 0, 0, 0, 0, 0, 0, 0, 0, 0, 0, 0, 0, 0, 0, 0, 0
        DC8 0, 0, 0, 0, 0, 0, 0, 0, 0, 0, 0, 0, 0, 0, 0, 0
        DC8 0, 0, 0, 0, 0, 0, 0, 0, 0, 0, 0, 0, 0, 0, 0, 0
        DC8 0, 0, 0, 0, 0, 0, 0, 0, 0, 0, 0, 0, 0, 0, 0, 0
        DC8 0, 0, 0, 0, 0, 0, 0, 0, 0, 0, 0, 0, 0, 0, 0, 0
        DC8 0, 0, 0, 0, 0, 0, 0, 0, 0, 0, 0, 0, 0, 0, 0, 0
        DC8 0, 0, 0, 0, 0, 0, 0, 0, 0, 0, 0, 0, 0, 0, 0, 0
        DC8 0, 0, 0, 0, 0, 0, 0, 0, 0, 0, 0, 0, 0, 0, 0, 0
        DC8 0, 0, 0, 0, 0, 0, 0, 0, 0, 0, 0, 0, 0, 0, 0, 0
        DC8 0, 0, 0, 0, 0, 0, 0, 0, 0, 0, 0, 0, 0, 0, 0, 0
        DC8 0, 0, 0, 0, 0, 0, 0, 0, 0, 0, 0, 0, 0, 0, 0, 0
        DC8 0, 0, 0, 0, 0, 0, 0, 0, 0, 0, 0, 0, 0, 0, 0, 0
        DC8 0, 0, 0, 0, 0, 0, 0, 0, 0, 0, 0, 0, 0, 0, 0, 0
        DC8 0, 0, 0, 0, 0, 0, 0, 0, 0, 0, 0, 0, 0, 0, 0, 0
        DC8 0, 0, 0, 0, 0, 0, 0, 0, 0, 0, 0, 0, 0, 0, 0, 0
        DC8 0, 0, 0, 0, 0, 0, 0, 0, 0, 0, 0, 0, 0, 0, 0, 0
        DC8 0, 0, 0, 0, 0, 0, 0, 0, 0, 0, 0, 0, 0, 0, 0, 0
        DC8 0, 0, 0, 0, 0, 0, 0, 0, 0, 0, 0, 0, 0, 0, 0, 0
        DC8 0, 0, 0, 0, 0, 0, 0, 0, 0, 0, 0, 0, 0, 0, 0, 0
        DC8 0, 0, 0, 0, 0, 0, 0, 0, 0, 0, 0, 0, 0, 0, 0, 0
        DC8 0, 0, 0, 0, 0, 0, 0, 0, 0, 0, 0, 0, 0, 0, 0, 0
        DC8 0, 0, 0, 0, 0, 0, 0, 0, 0, 0, 0, 0, 0, 0, 0, 0
        DC8 0, 0, 0, 0, 0, 0, 0, 0, 0, 0, 0, 0, 0, 0, 0, 0
        DC8 0, 0, 0, 0, 0, 0, 0, 0, 0, 0, 0, 0, 0, 0, 0, 0
        DC8 0, 0, 0, 0, 0, 0, 0, 0, 0, 0, 0, 0, 0, 0, 0, 0
        DC8 0, 0, 0, 0, 0, 0, 0, 0, 0, 0, 0, 0, 0, 0, 0, 0
        DC8 0, 0, 0, 0, 0, 0, 0, 0, 0, 0, 0, 0, 0, 0, 0, 0
        DC8 0, 0, 0, 0, 0, 0, 0, 0, 0, 0, 0, 0, 0, 0, 0, 0
        DC8 0, 0, 0, 0, 0, 0, 0, 0, 0, 0, 0, 0, 0, 0, 0, 0
        DC8 0, 0, 0, 0, 0, 0, 0, 0, 0, 0, 0, 0, 0, 0, 0, 0
        DC8 0, 0, 0, 0, 0, 0, 0, 0, 0, 0, 0, 0, 0, 0, 0, 0
        DC8 0, 0, 0, 0, 0, 0, 0, 0, 0, 0, 0, 0, 0, 0, 0, 0
        DC8 0, 0, 0, 0, 0, 0, 0, 0, 0, 0, 0, 0, 0, 0, 0, 0
        DC8 0, 0, 0, 0, 0, 0, 0, 0, 0, 0, 0, 0, 0, 0, 0, 0
        DC8 0, 0, 0, 0, 0, 0, 0, 0, 0, 0, 0, 0, 0, 0, 0, 0
        DC8 0, 0, 0, 0, 0, 0, 0, 0, 0, 0, 0, 0, 0, 0, 0, 0
        DC8 0, 0, 0, 0, 0, 0, 0, 0, 0, 0, 0, 0, 0, 0, 0, 0
        DC8 0, 0, 0, 0, 0, 0, 0, 0, 0, 0, 0, 0, 0, 0, 0, 0
        DC8 0, 0, 0, 0, 0, 0, 0, 0, 0, 0, 0, 0, 0, 0, 0, 0
        DC8 0, 0, 0, 0, 0, 0, 0, 0, 0, 0, 0, 0, 0, 0, 0, 0
        DC8 0, 0, 0, 0, 0, 0, 0, 0, 0, 0, 0, 0, 0, 0, 0, 0
        DC8 0, 0, 0, 0, 0, 0, 0, 0, 0, 0, 0, 0, 0, 0, 0, 0
        DC8 0, 0, 0, 0, 0, 0, 0, 0, 0, 0, 0, 0, 0, 0, 0, 0
        DC8 0, 0, 0, 0, 0, 0, 0, 0, 0, 0, 0, 0, 0, 0, 0, 0
        DC8 0, 0, 0, 0, 0, 0, 0, 0, 0, 0, 0, 0, 0, 0, 0, 0
        DC8 0, 0, 0, 0, 0, 0, 0, 0, 0, 0, 0, 0, 0, 0, 0, 0
        DC8 0, 0, 0, 0, 0, 0, 0, 0, 0, 0, 0, 0, 0, 0, 0, 0
        DC8 0, 0, 0, 0, 0, 0, 0, 0, 0, 0, 0, 0, 0, 0, 0, 0
        DC8 0, 0, 0, 0, 0, 0, 0, 0, 0, 0, 0, 0, 0, 0, 0, 0
        DC8 0, 0, 0, 0, 0, 0, 0, 0, 0, 0, 0, 0, 0, 0, 0, 0
        DC8 0, 0, 0, 0, 0, 0, 0, 0, 0, 0, 0, 0, 0, 0, 0, 0
        DC8 0, 0, 0, 0, 0, 0, 0, 0, 0, 0, 0, 0, 0, 0, 0, 0
        DC8 0, 0, 0, 0, 0, 0, 0, 0, 0, 0, 0, 0, 0, 0, 0, 0
        DC8 0, 0, 0, 0, 0, 0, 0, 0, 0, 0, 0, 0, 0, 0, 0, 0
        DC8 0, 0, 0, 0, 0, 0, 0, 0, 0, 0, 0, 0, 0, 0, 0, 0
        DC8 0, 0, 0, 0, 0, 0, 0, 0, 0, 0, 0, 0, 0, 0, 0, 0
        DC8 0, 0, 0, 0, 0, 0, 0, 0, 0, 0, 0, 0, 0, 0, 0, 0
        DC8 0, 0, 0, 0, 0, 0, 0, 0, 0, 0, 0, 0, 0, 0, 0, 0
        DC8 0, 0, 0, 0, 0, 0, 0, 0, 0, 0, 0, 0, 0, 0, 0, 0
        DC8 0, 0, 0, 0, 0, 0, 0, 0, 0, 0, 0, 0, 0, 0, 0, 0
        DC8 0, 0, 0, 0, 0, 0, 0, 0, 0, 0, 0, 0, 0, 0, 0, 0
        DC8 0, 0, 0, 0, 0, 0, 0, 0, 0, 0, 0, 0, 0, 0, 0, 0
        DC8 0, 0, 0, 0, 0, 0, 0, 0, 0, 0, 0, 0, 0, 0, 0, 0
        DC8 0, 0, 0, 0, 0, 0, 0, 0, 0, 0, 0, 0, 0, 0, 0, 0
        DC8 0, 0, 0, 0, 0, 0, 0, 0, 0, 0, 0, 0, 0, 0, 0, 0
        DC8 0, 0, 0, 0, 0, 0, 0, 0, 0, 0, 0, 0, 0, 0, 0, 0
        DC8 0, 0, 0, 0, 0, 0, 0, 0, 0, 0, 0, 0, 0, 0, 0, 0
        DC8 0, 0, 0, 0, 0, 0, 0, 0, 0, 0, 0, 0, 0, 0, 0, 0
        DC8 0, 0, 0, 0, 0, 0, 0, 0, 0, 0, 0, 0, 0, 0, 0, 0
        DC8 0, 0, 0, 0, 0, 0, 0, 0, 0, 0, 0, 0, 0, 0, 0, 0
        DC8 0, 0, 0, 0, 0, 0, 0, 0, 0, 0, 0, 0, 0, 0, 0, 0
        DC8 0, 0, 0, 0, 0, 0, 0, 0, 0, 0, 0, 0, 0, 0, 0, 0
        DC8 0, 0, 0, 0, 0, 0, 0, 0, 0, 0, 0, 0, 0, 0, 0, 0
        DC8 0, 0, 0, 0, 0, 0, 0, 0, 0, 0, 0, 0, 0, 0, 0, 0
        DC8 0, 0, 0, 0, 0, 0, 0, 0, 0, 0, 0, 0, 0, 0, 0, 0
        DC8 0, 0, 0, 0, 0, 0, 0, 0, 0, 0, 0, 0, 0, 0, 0, 0
        DC8 0, 0, 0, 0, 0, 0, 0, 0, 0, 0, 0, 0, 0, 0, 0, 0
        DC8 0, 0, 0, 0, 0, 0, 0, 0, 0, 0, 0, 0, 0, 0, 0, 0
        DC8 0, 0, 0, 0, 0, 0, 0, 0, 0, 0, 0, 0, 0, 0, 0, 0
        DC8 0, 0, 0, 0, 0, 0, 0, 0, 0, 0, 0, 0, 0, 0, 0, 0
        DC8 0, 0, 0, 0, 0, 0, 0, 0, 0, 0, 0, 0, 0, 0, 0, 0
        DC8 0, 0, 0, 0, 0, 0, 0, 0, 0, 0, 0, 0, 0, 0, 0, 0
        DC8 0, 0, 0, 0, 0, 0, 0, 0, 0, 0, 0, 0, 0, 0, 0, 0
        DC8 0, 0, 0, 0, 0, 0, 0, 0, 0, 0, 0, 0, 0, 0, 0, 0
        DC8 0, 0, 0, 0, 0, 0, 0, 0, 0, 0, 0, 0, 0, 0, 0, 0
        DC8 0, 0, 0, 0, 0, 0, 0, 0, 0, 0, 0, 0, 0, 0, 0, 0
        DC8 0, 0, 0, 0, 0, 0, 0, 0, 0, 0, 0, 0, 0, 0, 0, 0
        DC8 0, 0, 0, 0, 0, 0, 0, 0, 0, 0, 0, 0, 0, 0, 0, 0
        DC8 0, 0, 0, 0, 0, 0, 0, 0, 0, 0, 0, 0, 0, 0, 0, 0
        DC8 0, 0, 0, 0, 0, 0, 0, 0, 0, 0, 0, 0, 0, 0, 0, 0
        DC8 0, 0, 0, 0, 0, 0, 0, 0, 0, 0, 0, 0, 0, 0, 0, 0
        DC8 0, 0, 0, 0, 0, 0, 0, 0, 0, 0, 0, 0, 0, 0, 0, 0
        DC8 0, 0, 0, 0, 0, 0, 0, 0, 0, 0, 0, 0, 0, 0, 0, 0
        DC8 0, 0, 0, 0, 0, 0, 0, 0, 0, 0, 0, 0
`?<Initializer for mytmr3>`:
        DC8 0, 0, 0, 0, 0, 0, 0, 0, 0, 0, 0, 0, 0, 0, 0, 0
`?<Initializer for charger>`:
        DC8 0, 0, 0, 0, 0, 0, 0, 0, 0, 0, 0, 0, 0, 0, 0, 0
`?<Initializer for gipi>`:
        DC8 0, 0, 0, 0, 0, 0, 0, 0, 0, 0, 0, 0, 0, 0, 0, 0
`?<Initializer for rs_tmr>`:
        DC8 0, 0, 0, 0, 0, 0, 0, 0, 0, 0, 0, 0, 0, 0, 0, 0

        RSEG DATA_ID:CONST:SORT:NOROOT(2)
`?<Initializer for mode_enter>`:
        DATA
        DC8 0, 0, 0, 0
`?<Initializer for mode>`:
        DC8 0, 0, 0, 0
`?<Initializer for CALL_BUTTON>`:
        DC32 1

        RSEG INITTAB:CODE:ROOT(2)
        DATA
?init?tab?DATA_Z:
        DCD      sfe(DATA_Z) - sfb(DATA_Z), sfb(DATA_Z), sfb(DATA_Z)

        RSEG DATA_ID:CONST:SORT:NOROOT(2)
`?*?DATA_ID`:

        RSEG INITTAB:CODE:ROOT(2)
        DATA
?init?tab?DATA_I:
        DCD      sfe(DATA_I) - sfb(DATA_I), sfb(DATA_I), sfb(DATA_ID)

        END
// 
// 10 772 bytes in segment CODE
//  1 332 bytes in segment DATA_C
//  5 640 bytes in segment DATA_I
//  5 640 bytes in segment DATA_ID
//    312 bytes in segment DATA_Z
//     24 bytes in segment INITTAB
// 
// 10 540 bytes of CODE  memory (+ 256 bytes shared)
//  6 972 bytes of CONST memory
//  5 952 bytes of DATA  memory
//
//Errors: none
//Warnings: 1
