##############################################################################
#                                                                            #
# IAR ARM ANSI C/C++ Compiler V4.42A/W32 EVALUATION    12/Feb/2010  22:10:45 #
# Copyright 1999-2005 IAR Systems. All rights reserved.                      #
#                                                                            #
#    Cpu mode        =  interwork                                            #
#    Endian          =  little                                               #
#    Stack alignment =  4                                                    #
#    Source file     =  C:\arm\miosd elka\main.c                             #
#    Command line    =  "C:\arm\miosd elka\main.c" -D NEWSGOLD -D ELKA -D    #
#                       EVILFOX -lC "C:\arm\miosd elka\Release_ELKA\List\"   #
#                       -lA "C:\arm\miosd elka\Release_ELKA\List\" -o        #
#                       "C:\arm\miosd elka\Release_ELKA\Obj\" -s9            #
#                       --no_unroll --cpu_mode arm --endian little --cpu     #
#                       ARM926EJ-S --stack_align 4 --interwork -e --fpu      #
#                       None --dlib_config "C:\arm2\Embedded Workbench 4.0   #
#                       Evaluation\ARM\LIB\dl5tpainl8n.h" -I                 #
#                       "C:\arm2\Embedded Workbench 4.0                      #
#                       Evaluation\ARM\INC\" --inline_threshold=2            #
#    List file       =  C:\arm\miosd elka\Release_ELKA\List\main.lst         #
#    Object file     =  C:\arm\miosd elka\Release_ELKA\Obj\main.r79          #
#                                                                            #
#                                                                            #
##############################################################################

C:\arm\miosd elka\main.c
      1          #include "..\inc\swilib.h"
      2          //#include "..\inc\cfg_items.h"
      3          #ifdef EVILFOX
      4          #else
      5          #include "conf_loader.h"
      6          #endif
      7          //#include "IdleLinks.h"
      8          #include "gprs_write.h"
      9          #include "string_works.h"
     10          #include "missed_events.h"
     11          #include "language.h"
     12          #ifdef EVILFOX
     13          #include "clock.h"
     14          int main_clock;
     15          #endif
     16          
     17          #ifdef EVILFOX
     18          #define BUFSIZE 5000
     19          #else
     20          #define BUFSIZE 10000
     21          #endif
     22          
     23          #ifdef NATICQ
     24          #ifdef EVILFOX
     25          #else
     26          extern const int use_plugin;
     27          #endif
     28          int naticq_plugin;
     29          char naticq_time[16];
     30          char naticq_ping[16]="none";
     31          #endif
     32          
     33          extern unsigned long  strtoul (const char *nptr,char **endptr,int base);
     34          
     35          CSM_DESC icsmd;
     36          int ker_state;
     37          
     38          int r_s=20;
     39          int r_m;
     40          int r_h;
     41          //int r_d;
     42          
     43          
     44          int (*old_icsm_onMessage)(CSM_RAM*,GBS_MSG*);
     45          void (*old_icsm_onClose)(CSM_RAM*);
     46          

   \                                 In segment DATA_Z, align 4, align-sorted
     47          unsigned short maincsm_name_body[140];
   \                     maincsm_name_body:
   \   00000000                      DS8 280

   \                                 In segment DATA_C, align 4, align-sorted
     48          const int minus11=-11;
   \                     minus11:
   \   00000000   F5FFFFFF           DC32 -11
     49          int MAINCSM_ID;
     50          int first_con;
     51          int key_mode;
     52          
     53          typedef struct
     54          {
     55            CSM_RAM csm;
     56            int gui_id;
     57          }MAIN_CSM;
     58          
     59          typedef struct
     60          {
     61            GUI gui;
     62            WSHDR *ws1;
     63            WSHDR *ws2;
     64            int i1;
     65          }MAIN_GUI;
     66          
     67          int pos;
     68          int phase;
     69          int pos_main_x;
     70          int pos_main_y;
     71          int lock_keys;
     72          GBSTMR mytmr;
     73          int pos_link_x;
     74          int pos_link_y;
     75          int pos_msg_x;
     76          int pos_msg_y;
     77          char chinfo[32];

   \                                 In segment DATA_Z, align 4, align-sorted
     78          char start_g[32];
   \                     start_g:
   \   00000000                      DS8 32
     79          char start_g2[32];
     80          
     81          //=================weather
     82          char temp[32];
     83          #ifdef EVILFOX
     84          char vejsh[32];
     85          #endif
     86          char temp2[32];
     87          char vejsh2[32];
     88          char weather_time[32];
     89          #ifdef EVILFOX
     90          char s_icon1[32];
     91          #else
     92          extern const char city_name[64];
     93          extern const unsigned int TID;
     94          char pressure[64];
     95          char pressure2[64];
     96          char wind[64];
     97          #endif
     98          int engade_weather;
     99          //================weather
    100          
    101          IMGHDR screen={0,0,8,""};
    102          

   \                                 In segment CODE, align 4, keep-with-next
    103          void DrwImg2(IMGHDR *img, int x, int y, char *pen, char *brush)
    104          {
   \                     DrwImg2:
   \   00000000   70402DE9           PUSH     {R4-R6,LR}
   \   00000004   2CD04DE2           SUB      SP,SP,#+44
   \   00000008   3C609DE5           LDR      R6,[SP, #+60]
   \   0000000C   0040A0E1           MOV      R4,R0
    105            RECT rc;
    106            DRWOBJ drwobj;
    107            StoreXYWHtoRECT(&rc,x,y,img->w,img->h);
   \   00000010   B200D4E1           LDRH     R0,[R4, #+2]
   \   00000014   0350A0E1           MOV      R5,R3
   \   00000018   01002DE9           PUSH     {R0}
   \   0000001C   B030D4E1           LDRH     R3,[R4, #+0]
   \   00000020   04008DE2           ADD      R0,SP,#+4
   \   00000024   330100EF           SWI      +307
    108            SetPropTo_Obj5(&drwobj,&rc,0,img);
   \   00000028   0430A0E1           MOV      R3,R4
   \   0000002C   0020A0E3           MOV      R2,#+0
   \   00000030   04108DE2           ADD      R1,SP,#+4
   \   00000034   0C008DE2           ADD      R0,SP,#+12
   \   00000038   510100EF           SWI      +337
    109            SetColor(&drwobj,pen,brush);
   \   0000003C   0620A0E1           MOV      R2,R6
   \   00000040   0510A0E1           MOV      R1,R5
   \   00000044   0C008DE2           ADD      R0,SP,#+12
   \   00000048   4B0100EF           SWI      +331
    110            DrawObject(&drwobj);
   \   0000004C   0C008DE2           ADD      R0,SP,#+12
   \   00000050   2A0100EF           SWI      +298
    111          }
   \   00000054   30D08DE2           ADD      SP,SP,#+48
   \   00000058   7080BDE8           POP      {R4-R6,PC}       ;; return
    112          

   \                                 In segment CODE, align 4, keep-with-next
    113          void DoScreen()
    114          {
   \                     DoScreen:
   \   00000000   F0402DE9           PUSH     {R4-R7,LR}
    115              int ScrH=ScreenH();
    116              int ScrW=ScreenW();
    117              char *ms=RamScreenBuffer();
    118              screen.w=ScrW;
   \   00000004   ........           LDR      R7,??DataTable0  ;; screen
   \   00000008   898100EF           SWI      +33161
   \   0000000C   0040A0E1           MOV      R4,R0
   \   00000010   888100EF           SWI      +33160
   \   00000014   0050A0E1           MOV      R5,R0
   \   00000018   E08000EF           SWI      +32992
   \   0000001C   0060A0E1           MOV      R6,R0
    119              screen.h=ScrH;
    120              screen.bitmap=malloc(ScrW*ScrH*2);
   \   00000020   940500E0           MUL      R0,R4,R5
   \   00000024   B050C7E1           STRH     R5,[R7, #+0]
   \   00000028   B240C7E1           STRH     R4,[R7, #+2]
   \   0000002C   8040A0E1           LSL      R4,R0,#+1
   \   00000030   0400A0E1           MOV      R0,R4
   \   00000034   140000EF           SWI      +20
   \   00000038   080087E5           STR      R0,[R7, #+8]
    121              memcpy(screen.bitmap, ms, ScrW*ScrH*2);
   \   0000003C   0420A0E1           MOV      R2,R4
   \   00000040   0610A0E1           MOV      R1,R6
   \   00000044   1E0100EF           SWI      +286
    122          }
   \   00000048   F080BDE8           POP      {R4-R7,PC}       ;; return
    123          
    124          int app_pos=1;
    125          int pos_link2_x;
    126          int pos_link2_y;
    127          

   \                                 In segment CODE, align 4, keep-with-next
    128          void DoShowIt()
    129          {
   \                     DoShowIt:
   \   00000000   F04F2DE9           PUSH     {R4-R11,LR}
    130            switch(phase)
   \   00000004   ........           LDR      R4,??DataTable7  ;; screen
   \   00000008   700094E5           LDR      R0,[R4, #+112]
   \   0000000C   60A094E5           LDR      R10,[R4, #+96]
   \   00000010   5C2094E5           LDR      R2,[R4, #+92]
   \   00000014   64E094E5           LDR      LR,[R4, #+100]
   \   00000018   583094E5           LDR      R3,[R4, #+88]
   \   0000001C   7C9094E5           LDR      R9,[R4, #+124]
   \   00000020   8CC094E5           LDR      R12,[R4, #+140]
   \   00000024   54739FE5           LDR      R7,??DoShowIt_1  ;; DoShowIt
   \   00000028   011040E2           SUB      R1,R0,#+1
   \   0000002C   0250A0E3           MOV      R5,#+2
   \   00000030   626FA0E3           MOV      R6,#+392
   \   00000034   0780A0E3           MOV      R8,#+7
   \   00000038   01A04AE2           SUB      R10,R10,#+1
   \   0000003C   07005AE3           CMP      R10,#+7
   \   00000040   F08FBD88           POPHI    {R4-R11,PC}
   \   00000044   01BF8FE2           ADR      R11,??DoShowIt_0
   \   00000048   0AB0DBE7           LDRB     R11,[R11, R10]
   \   0000004C   0BF18FE0           ADD      PC,PC,R11, LSL #+2
   \                     ??DoShowIt_0:
   \   00000050   011B5760           DC8      +1,+27,+87,+96
   \   00000054   8092B1BF           DC8      +128,+146,+177,+191
    131            {
    132          case 1:
    133            {
    134              if(key_mode==1)
   \                     ??DoShowIt_2:
   \   00000058   010053E3           CMP      R3,#+1
   \   0000005C   0800001A           BNE      ??DoShowIt_3
    135              {
    136              if(pos_main_x<0)
   \   00000060   00005EE3           CMP      LR,#+0
    137              {
    138                pos_main_x++;
   \   00000064   01008E42           ADDMI    R0,LR,#+1
   \   00000068   64008445           STRMI    R0,[R4, #+100]
    139              }
    140              else
    141                phase=2;
   \   0000006C   60508455           STRPL    R5,[R4, #+96]
    142              DirectRedrawGUI();
   \   00000070   3F0100EF           SWI      +319
    143              GBS_StartTimerProc(&mytmr, 5, DoShowIt);
   \   00000074   0720A0E1           MOV      R2,R7
   \   00000078   0510A0E3           MOV      R1,#+5
   \   0000007C   040086E0           ADD      R0,R6,R4
   \   00000080   4D0000EF           SWI      +77
    144              }
    145              if(key_mode==2)
   \                     ??DoShowIt_3:
   \   00000084   580094E5           LDR      R0,[R4, #+88]
   \   00000088   020050E3           CMP      R0,#+2
   \   0000008C   F08FBD18           POPNE    {R4-R11,PC}
    146              {
    147              if(pos_main_x>112)
   \   00000090   640094E5           LDR      R0,[R4, #+100]
   \   00000094   710050E3           CMP      R0,#+113
    148              {
    149                pos_main_x--;
   \   00000098   010040A2           SUBGE    R0,R0,#+1
   \   0000009C   640084A5           STRGE    R0,[R4, #+100]
   \   000000A0   000000AA           BGE      ??DoShowIt_4
    150              }
    151              else
    152                phase=2;
   \                     ??DoShowIt_5:
   \   000000A4   605084E5           STR      R5,[R4, #+96]
    153              DirectRedrawGUI();
   \                     ??DoShowIt_4:
   \   000000A8   3F0100EF           SWI      +319
    154              GBS_StartTimerProc(&mytmr, 5, DoShowIt);
   \   000000AC   0720A0E1           MOV      R2,R7
   \   000000B0   0510A0E3           MOV      R1,#+5
   \   000000B4   040086E0           ADD      R0,R6,R4
   \   000000B8   4D0000EF           SWI      +77
    155              }
    156            }
    157            break;
    158          case 2:
    159            {
    160              if(key_mode==1)
    161              {
    162              if(pos_link_x<20)
    163              {
    164                pos_link_x++;
    165                DirectRedrawGUI();
    166              }
    167              else
    168              {
    169                DirectRedrawGUI();
    170                if(pos==5)
    171                {
    172                  pos_msg_y=pos_link_y-34; //elka
    173                  pos_link2_y=pos_msg_y+24;
    174                  pos_link2_x=pos_msg_x-12+(app_pos*20);
    175                  phase=7;
    176                }
    177                else
    178                phase=3;
    179              }
    180              GBS_StartTimerProc(&mytmr, 5, DoShowIt);
    181              }
    182              if(key_mode==2)
    183              {
    184              if(pos_link_x>102)
    185              {
    186                pos_link_x--;
    187                DirectRedrawGUI();
    188              }
    189              else
    190              {
    191                DirectRedrawGUI();
    192                if(pos==5)
    193                {
    194                  pos_msg_y=pos_link_y-34; //elka
    195                  pos_link2_y=pos_msg_y+24;
    196                  pos_link2_x=pos_msg_x-12+(app_pos*20);
    197                  phase=7;
    198                }
    199                else
    200                phase=3;
    201              }
    202              GBS_StartTimerProc(&mytmr, 5, DoShowIt);
    203              }
    204            }
    205            break;
    206          case 3:
    207            {
    208              if(pos==5)
    209              {
    210                pos_msg_y=pos_link_y-34; //elak
    211              }
    212              else
    213              pos_msg_y=pos_link_y-56; //elak
    214              lock_keys=1;
    215              DirectRedrawGUI();
    216            }
    217            break;
    218          case 4:
    219            {
    220              if(key_mode==1)
    221              {
    222              if(pos_link_x>10)
    223              {
    224                pos_link_x--;
    225              }
    226              else
    227              {
    228                pos_link_y=pos_main_y-12+(pos*20);
    229                phase=2;
    230              }
    231              DirectRedrawGUI();
    232              GBS_StartTimerProc(&mytmr, 5, DoShowIt);
    233              }
    234              if(key_mode==2)
    235              {
    236              if(pos_link_x<112)
    237              {
    238                pos_link_x++;
    239              }
    240              else
    241              {
    242                pos_link_y=pos_main_y-12+(pos*20);
    243                phase=2;
    244              }
    245              DirectRedrawGUI();
    246              GBS_StartTimerProc(&mytmr, 5, DoShowIt);
    247              }
    248            }
    249            break;
    250          case 5:
    251            {
    252              if(key_mode==1)
    253              {
    254              if(pos_link_x>10)
    255                pos_link_x--;
    256              else
    257                phase=6;
    258              DirectRedrawGUI();
    259              GBS_StartTimerProc(&mytmr, 5, DoShowIt);
    260              }
    261              if(key_mode==2)
    262              {
    263              if(pos_link_x<112)
    264                pos_link_x++;
    265              else
    266                phase=6;
    267              DirectRedrawGUI();
    268              GBS_StartTimerProc(&mytmr, 5, DoShowIt);
    269              }
    270            }
    271            break;
    272          case 6:
    273            {
    274              if(key_mode==1)
    275              {
    276              if(pos_main_x>-20)
    277              {
    278                pos_main_x--;
    279                DirectRedrawGUI();
    280                GBS_StartTimerProc(&mytmr, 5, DoShowIt);
    281              }
    282              else
    283                CloseCSM(MAINCSM_ID);
    284              }
    285              if(key_mode==2)
    286              {
    287              if(pos_main_x<132)
    288              {
    289                pos_main_x++;
    290                DirectRedrawGUI();
    291                GBS_StartTimerProc(&mytmr, 5, DoShowIt);
    292              }
    293              else
    294                CloseCSM(MAINCSM_ID);
    295              }
    296            }
    297            break;
    298          case 7:
    299            {
    300              if(pos_link2_y>(pos_msg_y+14))
    301              {
    302                pos_link2_y--;
    303              }
    304              else
    305                phase=3;
    306              DirectRedrawGUI();
    307              GBS_StartTimerProc(&mytmr, 3, DoShowIt);
    308            }
    309            break;
    310          case 8:
    311            {
    312              {
    313              if(pos_link2_y<pos_msg_y+24)
    314              {
    315                pos_link2_y++;
    316              }
    317              else
    318              {
    319                phase=7;
    320                pos_link2_x=pos_msg_x-12+(app_pos*20);
    321              }
    322              DirectRedrawGUI();
    323              GBS_StartTimerProc(&mytmr, 3, DoShowIt);
    324            }
    325            }
    326            break;
    327            }
    328          }
   \                     ??DoShowIt_6:
   \   000000BC   F08FBDE8           POP      {R4-R11,PC}      ;; return
   \                     ??DoShowIt_7:
   \   000000C0   010053E3           CMP      R3,#+1
   \   000000C4   1C00001A           BNE      ??DoShowIt_8
   \   000000C8   140050E3           CMP      R0,#+20
   \   000000CC   030000AA           BGE      ??DoShowIt_9
   \   000000D0   010080E2           ADD      R0,R0,#+1
   \   000000D4   700084E5           STR      R0,[R4, #+112]
   \   000000D8   3F0100EF           SWI      +319
   \   000000DC   120000EA           B        ??DoShowIt_10
   \                     ??DoShowIt_9:
   \   000000E0   3F0100EF           SWI      +319
   \   000000E4   5C0094E5           LDR      R0,[R4, #+92]
   \   000000E8   050050E3           CMP      R0,#+5
   \   000000EC   0C00001A           BNE      ??DoShowIt_11
   \   000000F0   740094E5           LDR      R0,[R4, #+116]
   \   000000F4   841094E5           LDR      R1,[R4, #+132]
   \   000000F8   220040E2           SUB      R0,R0,#+34
   \   000000FC   7C0084E5           STR      R0,[R4, #+124]
   \   00000100   180080E2           ADD      R0,R0,#+24
   \   00000104   8C0084E5           STR      R0,[R4, #+140]
   \   00000108   780094E5           LDR      R0,[R4, #+120]
   \   0000010C   1420A0E3           MOV      R2,#+20
   \   00000110   920120E0           MLA      R0,R2,R1,R0
   \   00000114   608084E5           STR      R8,[R4, #+96]
   \   00000118   0C0040E2           SUB      R0,R0,#+12
   \   0000011C   880084E5           STR      R0,[R4, #+136]
   \   00000120   010000EA           B        ??DoShowIt_10
   \                     ??DoShowIt_11:
   \   00000124   0300A0E3           MOV      R0,#+3
   \   00000128   600084E5           STR      R0,[R4, #+96]
   \                     ??DoShowIt_10:
   \   0000012C   0720A0E1           MOV      R2,R7
   \   00000130   0510A0E3           MOV      R1,#+5
   \   00000134   040086E0           ADD      R0,R6,R4
   \   00000138   4D0000EF           SWI      +77
   \                     ??DoShowIt_8:
   \   0000013C   580094E5           LDR      R0,[R4, #+88]
   \   00000140   020050E3           CMP      R0,#+2
   \   00000144   F08FBD18           POPNE    {R4-R11,PC}
   \   00000148   700094E5           LDR      R0,[R4, #+112]
   \   0000014C   670050E3           CMP      R0,#+103
   \   00000150   020000BA           BLT      ??DoShowIt_12
   \   00000154   010040E2           SUB      R0,R0,#+1
   \   00000158   700084E5           STR      R0,[R4, #+112]
   \   0000015C   640000EA           B        ??DoShowIt_13
   \                     ??DoShowIt_12:
   \   00000160   3F0100EF           SWI      +319
   \   00000164   5C0094E5           LDR      R0,[R4, #+92]
   \   00000168   050050E3           CMP      R0,#+5
   \   0000016C   0C00001A           BNE      ??DoShowIt_14
   \   00000170   740094E5           LDR      R0,[R4, #+116]
   \   00000174   841094E5           LDR      R1,[R4, #+132]
   \   00000178   220040E2           SUB      R0,R0,#+34
   \   0000017C   7C0084E5           STR      R0,[R4, #+124]
   \   00000180   180080E2           ADD      R0,R0,#+24
   \   00000184   8C0084E5           STR      R0,[R4, #+140]
   \   00000188   780094E5           LDR      R0,[R4, #+120]
   \   0000018C   1420A0E3           MOV      R2,#+20
   \   00000190   920120E0           MLA      R0,R2,R1,R0
   \   00000194   608084E5           STR      R8,[R4, #+96]
   \   00000198   0C0040E2           SUB      R0,R0,#+12
   \   0000019C   880084E5           STR      R0,[R4, #+136]
   \   000001A0   540000EA           B        ??DoShowIt_15
   \                     ??DoShowIt_14:
   \   000001A4   0300A0E3           MOV      R0,#+3
   \   000001A8   600084E5           STR      R0,[R4, #+96]
   \   000001AC   510000EA           B        ??DoShowIt_15
   \                     ??DoShowIt_16:
   \   000001B0   740094E5           LDR      R0,[R4, #+116]
   \   000001B4   050052E3           CMP      R2,#+5
   \   000001B8   22004002           SUBEQ    R0,R0,#+34
   \   000001BC   38004012           SUBNE    R0,R0,#+56
   \   000001C0   7C0084E5           STR      R0,[R4, #+124]
   \   000001C4   0100A0E3           MOV      R0,#+1
   \   000001C8   6C0084E5           STR      R0,[R4, #+108]
   \   000001CC   3F0100EF           SWI      +319
   \   000001D0   F08FBDE8           POP      {R4-R11,PC}
   \                     ??DoShowIt_17:
   \   000001D4   010053E3           CMP      R3,#+1
   \   000001D8   0D00001A           BNE      ??DoShowIt_18
   \   000001DC   0B0050E3           CMP      R0,#+11
   \   000001E0   701084A5           STRGE    R1,[R4, #+112]
   \   000001E4   050000AA           BGE      ??DoShowIt_19
   \   000001E8   680094E5           LDR      R0,[R4, #+104]
   \   000001EC   1410A0E3           MOV      R1,#+20
   \   000001F0   910220E0           MLA      R0,R1,R2,R0
   \   000001F4   605084E5           STR      R5,[R4, #+96]
   \   000001F8   0C0040E2           SUB      R0,R0,#+12
   \   000001FC   740084E5           STR      R0,[R4, #+116]
   \                     ??DoShowIt_19:
   \   00000200   3F0100EF           SWI      +319
   \   00000204   0720A0E1           MOV      R2,R7
   \   00000208   0510A0E3           MOV      R1,#+5
   \   0000020C   040086E0           ADD      R0,R6,R4
   \   00000210   4D0000EF           SWI      +77
   \                     ??DoShowIt_18:
   \   00000214   580094E5           LDR      R0,[R4, #+88]
   \   00000218   020050E3           CMP      R0,#+2
   \   0000021C   F08FBD18           POPNE    {R4-R11,PC}
   \   00000220   700094E5           LDR      R0,[R4, #+112]
   \   00000224   700050E3           CMP      R0,#+112
   \   00000228   020000AA           BGE      ??DoShowIt_20
   \                     ??DoShowIt_21:
   \   0000022C   010080E2           ADD      R0,R0,#+1
   \   00000230   700084E5           STR      R0,[R4, #+112]
   \   00000234   9BFFFFEA           B        ??DoShowIt_4
   \                     ??DoShowIt_20:
   \   00000238   5C1094E5           LDR      R1,[R4, #+92]
   \   0000023C   680094E5           LDR      R0,[R4, #+104]
   \   00000240   1420A0E3           MOV      R2,#+20
   \   00000244   920120E0           MLA      R0,R2,R1,R0
   \   00000248   0C0040E2           SUB      R0,R0,#+12
   \   0000024C   740084E5           STR      R0,[R4, #+116]
   \   00000250   93FFFFEA           B        ??DoShowIt_5
   \                     ??DoShowIt_22:
   \   00000254   0650A0E3           MOV      R5,#+6
   \   00000258   010053E3           CMP      R3,#+1
   \   0000025C   0700001A           BNE      ??DoShowIt_23
   \   00000260   0B0050E3           CMP      R0,#+11
   \   00000264   701084A5           STRGE    R1,[R4, #+112]
   \   00000268   605084B5           STRLT    R5,[R4, #+96]
   \   0000026C   3F0100EF           SWI      +319
   \   00000270   0720A0E1           MOV      R2,R7
   \   00000274   0510A0E3           MOV      R1,#+5
   \   00000278   040086E0           ADD      R0,R6,R4
   \   0000027C   4D0000EF           SWI      +77
   \                     ??DoShowIt_23:
   \   00000280   580094E5           LDR      R0,[R4, #+88]
   \   00000284   020050E3           CMP      R0,#+2
   \   00000288   F08FBD18           POPNE    {R4-R11,PC}
   \   0000028C   700094E5           LDR      R0,[R4, #+112]
   \   00000290   700050E3           CMP      R0,#+112
   \   00000294   82FFFFAA           BGE      ??DoShowIt_5
   \   00000298   E3FFFFEA           B        ??DoShowIt_21
   \                     ??DoShowIt_24:
   \   0000029C   010053E3           CMP      R3,#+1
   \   000002A0   0B00001A           BNE      ??DoShowIt_25
   \   000002A4   13007EE3           CMN      LR,#+19
   \   000002A8   070000BA           BLT      ??DoShowIt_26
   \   000002AC   01004EE2           SUB      R0,LR,#+1
   \   000002B0   640084E5           STR      R0,[R4, #+100]
   \   000002B4   3F0100EF           SWI      +319
   \   000002B8   0720A0E1           MOV      R2,R7
   \   000002BC   0510A0E3           MOV      R1,#+5
   \   000002C0   040086E0           ADD      R0,R6,R4
   \   000002C4   4D0000EF           SWI      +77
   \   000002C8   010000EA           B        ??DoShowIt_25
   \                     ??DoShowIt_26:
   \   000002CC   500094E5           LDR      R0,[R4, #+80]
   \   000002D0   FC0100EF           SWI      +508
   \                     ??DoShowIt_25:
   \   000002D4   580094E5           LDR      R0,[R4, #+88]
   \   000002D8   020050E3           CMP      R0,#+2
   \   000002DC   F08FBD18           POPNE    {R4-R11,PC}
   \   000002E0   640094E5           LDR      R0,[R4, #+100]
   \   000002E4   840050E3           CMP      R0,#+132
   \   000002E8   070000AA           BGE      ??DoShowIt_27
   \   000002EC   010080E2           ADD      R0,R0,#+1
   \   000002F0   640084E5           STR      R0,[R4, #+100]
   \                     ??DoShowIt_13:
   \   000002F4   3F0100EF           SWI      +319
   \                     ??DoShowIt_15:
   \   000002F8   0720A0E1           MOV      R2,R7
   \   000002FC   0510A0E3           MOV      R1,#+5
   \   00000300   040086E0           ADD      R0,R6,R4
   \   00000304   4D0000EF           SWI      +77
   \   00000308   F08FBDE8           POP      {R4-R11,PC}
   \                     ??DoShowIt_27:
   \   0000030C   500094E5           LDR      R0,[R4, #+80]
   \   00000310   FC0100EF           SWI      +508
   \   00000314   F08FBDE8           POP      {R4-R11,PC}
   \                     ??DoShowIt_28:
   \   00000318   0E0089E2           ADD      R0,R9,#+14
   \   0000031C   0C0050E1           CMP      R0,R12
   \   00000320   020000AA           BGE      ??DoShowIt_29
   \   00000324   01004CE2           SUB      R0,R12,#+1
   \                     ??DoShowIt_30:
   \   00000328   8C0084E5           STR      R0,[R4, #+140]
   \   0000032C   010000EA           B        ??DoShowIt_31
   \                     ??DoShowIt_29:
   \   00000330   0300A0E3           MOV      R0,#+3
   \   00000334   600084E5           STR      R0,[R4, #+96]
   \                     ??DoShowIt_31:
   \   00000338   3F0100EF           SWI      +319
   \   0000033C   0720A0E1           MOV      R2,R7
   \   00000340   0310A0E3           MOV      R1,#+3
   \   00000344   040086E0           ADD      R0,R6,R4
   \   00000348   4D0000EF           SWI      +77
   \   0000034C   F08FBDE8           POP      {R4-R11,PC}
   \                     ??DoShowIt_32:
   \   00000350   180089E2           ADD      R0,R9,#+24
   \   00000354   00005CE1           CMP      R12,R0
   \   00000358   01008CB2           ADDLT    R0,R12,#+1
   \   0000035C   F1FFFFBA           BLT      ??DoShowIt_30
   \   00000360   841094E5           LDR      R1,[R4, #+132]
   \   00000364   780094E5           LDR      R0,[R4, #+120]
   \   00000368   1420A0E3           MOV      R2,#+20
   \   0000036C   920120E0           MLA      R0,R2,R1,R0
   \   00000370   608084E5           STR      R8,[R4, #+96]
   \   00000374   0C0040E2           SUB      R0,R0,#+12
   \   00000378   880084E5           STR      R0,[R4, #+136]
   \   0000037C   EDFFFFEA           B        ??DoShowIt_31
   \                     ??DoShowIt_1:
   \   00000380   ........           DC32     DoShowIt
    329          
    330          #ifdef EVILFOX

   \                                 In segment CODE, align 4, keep-with-next
    331          void DrawWeatherLog()
    332          {
   \                     DrawWeatherLog:
   \   00000000   F0432DE9           PUSH     {R4-R9,LR}
    333            WSHDR *ws=AllocWS(64);
    334            wsprintf(ws, "Weather: Ventspils");
   \   00000004   40639FE5           LDR      R6,??DrawWeatherLog_0  ;; `?<Constant "No Data Yet">`
    335            DrawString(ws,pos_msg_x+5,pos_msg_y+8,pos_msg_x+Get_WS_width(ws,9)+5,pos_msg_y+GetFontYSIZE(9)+8,9,0,GetPaletteAdrByColorIndex(2),GetPaletteAdrByColorIndex(23));
   \   00000008   ........           LDR      R5,??DataTable7  ;; screen
   \   0000000C   4000A0E3           MOV      R0,#+64
   \   00000010   250100EF           SWI      +293
   \   00000014   0040A0E1           MOV      R4,R0
   \   00000018   0C1086E2           ADD      R1,R6,#+12
   \   0000001C   240100EF           SWI      +292
   \   00000020   1700A0E3           MOV      R0,#+23
   \   00000024   2E0100EF           SWI      +302
   \   00000028   0070A0E1           MOV      R7,R0
   \   0000002C   0200A0E3           MOV      R0,#+2
   \   00000030   2E0100EF           SWI      +302
   \   00000034   0080A0E1           MOV      R8,R0
   \   00000038   0900A0E3           MOV      R0,#+9
   \   0000003C   C50100EF           SWI      +453
   \   00000040   0090A0E1           MOV      R9,R0
   \   00000044   0910A0E3           MOV      R1,#+9
   \   00000048   0400A0E1           MOV      R0,R4
   \   0000004C   080200EF           SWI      +520
   \   00000050   781095E5           LDR      R1,[R5, #+120]
   \   00000054   7C2095E5           LDR      R2,[R5, #+124]
   \   00000058   80002DE9           PUSH     {R7}
   \   0000005C   00012DE9           PUSH     {R8}
   \   00000060   0030A0E3           MOV      R3,#+0
   \   00000064   08002DE9           PUSH     {R3}
   \   00000068   010080E0           ADD      R0,R0,R1
   \   0000006C   051081E2           ADD      R1,R1,#+5
   \   00000070   0930A0E3           MOV      R3,#+9
   \   00000074   08002DE9           PUSH     {R3}
   \   00000078   023089E0           ADD      R3,R9,R2
   \   0000007C   082082E2           ADD      R2,R2,#+8
   \   00000080   083083E2           ADD      R3,R3,#+8
   \   00000084   08002DE9           PUSH     {R3}
   \   00000088   053080E2           ADD      R3,R0,#+5
   \   0000008C   0400A0E1           MOV      R0,R4
   \   00000090   4C0100EF           SWI      +332
    336            if(engade_weather)
   \   00000094   800095E5           LDR      R0,[R5, #+128]
   \   00000098   14D08DE2           ADD      SP,SP,#+20
   \   0000009C   000050E3           CMP      R0,#+0
   \   000000A0   8500000A           BEQ      ??DrawWeatherLog_1
    337            {
    338              wsprintf(ws, "On: %s", weather_time);
   \   000000A4   7E2F85E2           ADD      R2,R5,#+504
   \   000000A8   201086E2           ADD      R1,R6,#+32
   \   000000AC   0400A0E1           MOV      R0,R4
   \   000000B0   240100EF           SWI      +292
    339              DrawString(ws,pos_msg_x+5,pos_msg_y+35,pos_msg_x+Get_WS_width(ws,9)+5,pos_msg_y+GetFontYSIZE(9)+35,9,0,GetPaletteAdrByColorIndex(4),GetPaletteAdrByColorIndex(23));
   \   000000B4   1700A0E3           MOV      R0,#+23
   \   000000B8   2E0100EF           SWI      +302
   \   000000BC   0070A0E1           MOV      R7,R0
   \   000000C0   0400A0E3           MOV      R0,#+4
   \   000000C4   2E0100EF           SWI      +302
   \   000000C8   0080A0E1           MOV      R8,R0
   \   000000CC   0900A0E3           MOV      R0,#+9
   \   000000D0   C50100EF           SWI      +453
   \   000000D4   0060A0E1           MOV      R6,R0
   \   000000D8   0910A0E3           MOV      R1,#+9
   \   000000DC   0400A0E1           MOV      R0,R4
   \   000000E0   080200EF           SWI      +520
   \   000000E4   781095E5           LDR      R1,[R5, #+120]
   \   000000E8   7C2095E5           LDR      R2,[R5, #+124]
   \   000000EC   80002DE9           PUSH     {R7}
   \   000000F0   00012DE9           PUSH     {R8}
   \   000000F4   0030A0E3           MOV      R3,#+0
   \   000000F8   08002DE9           PUSH     {R3}
   \   000000FC   010080E0           ADD      R0,R0,R1
   \   00000100   051081E2           ADD      R1,R1,#+5
   \   00000104   0930A0E3           MOV      R3,#+9
   \   00000108   08002DE9           PUSH     {R3}
   \   0000010C   023086E0           ADD      R3,R6,R2
   \   00000110   232082E2           ADD      R2,R2,#+35
   \   00000114   233083E2           ADD      R3,R3,#+35
   \   00000118   08002DE9           PUSH     {R3}
   \   0000011C   053080E2           ADD      R3,R0,#+5
   \   00000120   0400A0E1           MOV      R0,R4
   \   00000124   4C0100EF           SWI      +332
    340              wsprintf(ws, temp2);
   \   00000128   6E1F85E2           ADD      R1,R5,#+440
   \   0000012C   0400A0E1           MOV      R0,R4
   \   00000130   240100EF           SWI      +292
    341              DrawString(ws,pos_msg_x+5,pos_msg_y+53,pos_msg_x+Get_WS_width(ws,9)+5,pos_msg_y+GetFontYSIZE(9)+53,9,0,GetPaletteAdrByColorIndex(4),GetPaletteAdrByColorIndex(23));
   \   00000134   1700A0E3           MOV      R0,#+23
   \   00000138   2E0100EF           SWI      +302
   \   0000013C   0070A0E1           MOV      R7,R0
   \   00000140   0400A0E3           MOV      R0,#+4
   \   00000144   2E0100EF           SWI      +302
   \   00000148   0080A0E1           MOV      R8,R0
   \   0000014C   0900A0E3           MOV      R0,#+9
   \   00000150   C50100EF           SWI      +453
   \   00000154   0060A0E1           MOV      R6,R0
   \   00000158   0910A0E3           MOV      R1,#+9
   \   0000015C   0400A0E1           MOV      R0,R4
   \   00000160   080200EF           SWI      +520
   \   00000164   781095E5           LDR      R1,[R5, #+120]
   \   00000168   7C2095E5           LDR      R2,[R5, #+124]
   \   0000016C   80002DE9           PUSH     {R7}
   \   00000170   00012DE9           PUSH     {R8}
   \   00000174   0030A0E3           MOV      R3,#+0
   \   00000178   08002DE9           PUSH     {R3}
   \   0000017C   010080E0           ADD      R0,R0,R1
   \   00000180   051081E2           ADD      R1,R1,#+5
   \   00000184   0930A0E3           MOV      R3,#+9
   \   00000188   08002DE9           PUSH     {R3}
   \   0000018C   023086E0           ADD      R3,R6,R2
   \   00000190   352082E2           ADD      R2,R2,#+53
   \   00000194   353083E2           ADD      R3,R3,#+53
   \   00000198   08002DE9           PUSH     {R3}
   \   0000019C   053080E2           ADD      R3,R0,#+5
   \   000001A0   0400A0E1           MOV      R0,R4
   \   000001A4   4C0100EF           SWI      +332
   \   000001A8   28D08DE2           ADD      SP,SP,#+40
    342              wsprintf(ws, vejsh2);
   \   000001AC   761F85E2           ADD      R1,R5,#+472
   \   000001B0   0400A0E1           MOV      R0,R4
   \   000001B4   240100EF           SWI      +292
    343              DrawString(ws,pos_msg_x+5,pos_msg_y+71,pos_msg_x+Get_WS_width(ws,9)+5,pos_msg_y+GetFontYSIZE(9)+71,9,0,GetPaletteAdrByColorIndex(4),GetPaletteAdrByColorIndex(23));
   \   000001B8   1700A0E3           MOV      R0,#+23
   \   000001BC   2E0100EF           SWI      +302
   \   000001C0   0070A0E1           MOV      R7,R0
   \   000001C4   0400A0E3           MOV      R0,#+4
   \   000001C8   2E0100EF           SWI      +302
   \   000001CC   0080A0E1           MOV      R8,R0
   \   000001D0   0900A0E3           MOV      R0,#+9
   \   000001D4   C50100EF           SWI      +453
   \   000001D8   0060A0E1           MOV      R6,R0
   \   000001DC   0910A0E3           MOV      R1,#+9
   \   000001E0   0400A0E1           MOV      R0,R4
   \   000001E4   080200EF           SWI      +520
   \   000001E8   781095E5           LDR      R1,[R5, #+120]
   \   000001EC   7C2095E5           LDR      R2,[R5, #+124]
   \   000001F0   80002DE9           PUSH     {R7}
   \   000001F4   00012DE9           PUSH     {R8}
   \   000001F8   0030A0E3           MOV      R3,#+0
   \   000001FC   08002DE9           PUSH     {R3}
   \   00000200   010080E0           ADD      R0,R0,R1
   \   00000204   051081E2           ADD      R1,R1,#+5
   \   00000208   0930A0E3           MOV      R3,#+9
   \   0000020C   08002DE9           PUSH     {R3}
   \   00000210   023086E0           ADD      R3,R6,R2
   \   00000214   472082E2           ADD      R2,R2,#+71
   \   00000218   473083E2           ADD      R3,R3,#+71
   \   0000021C   08002DE9           PUSH     {R3}
   \   00000220   053080E2           ADD      R3,R0,#+5
   \   00000224   0400A0E1           MOV      R0,R4
   \   00000228   4C0100EF           SWI      +332
    344              wsprintf(ws, s_icon1);
   \   0000022C   521F85E2           ADD      R1,R5,#+328
   \   00000230   0400A0E1           MOV      R0,R4
   \   00000234   240100EF           SWI      +292
    345              DrawString(ws,pos_msg_x+5,pos_msg_y+89,pos_msg_x+Get_WS_width(ws,9)+5,pos_msg_y+GetFontYSIZE(9)+89,9,0,GetPaletteAdrByColorIndex(4),GetPaletteAdrByColorIndex(23));
   \   00000238   1700A0E3           MOV      R0,#+23
   \   0000023C   2E0100EF           SWI      +302
   \   00000240   0070A0E1           MOV      R7,R0
   \   00000244   0400A0E3           MOV      R0,#+4
   \   00000248   2E0100EF           SWI      +302
   \   0000024C   0080A0E1           MOV      R8,R0
   \   00000250   0900A0E3           MOV      R0,#+9
   \   00000254   C50100EF           SWI      +453
   \   00000258   0060A0E1           MOV      R6,R0
   \   0000025C   0910A0E3           MOV      R1,#+9
   \   00000260   0400A0E1           MOV      R0,R4
   \   00000264   080200EF           SWI      +520
   \   00000268   781095E5           LDR      R1,[R5, #+120]
   \   0000026C   7C2095E5           LDR      R2,[R5, #+124]
   \   00000270   80002DE9           PUSH     {R7}
   \   00000274   00012DE9           PUSH     {R8}
   \   00000278   0030A0E3           MOV      R3,#+0
   \   0000027C   08002DE9           PUSH     {R3}
   \   00000280   010080E0           ADD      R0,R0,R1
   \   00000284   051081E2           ADD      R1,R1,#+5
   \   00000288   0930A0E3           MOV      R3,#+9
   \   0000028C   08002DE9           PUSH     {R3}
   \   00000290   023086E0           ADD      R3,R6,R2
   \   00000294   592082E2           ADD      R2,R2,#+89
   \   00000298   593083E2           ADD      R3,R3,#+89
   \   0000029C   08002DE9           PUSH     {R3}
   \   000002A0   053080E2           ADD      R3,R0,#+5
   \   000002A4   0400A0E1           MOV      R0,R4
   \   000002A8   4C0100EF           SWI      +332
   \   000002AC   28D08DE2           ADD      SP,SP,#+40
   \   000002B0   0400A0E1           MOV      R0,R4
   \   000002B4   290100EF           SWI      +297
   \   000002B8   F083BDE8           POP      {R4-R9,PC}
    346            }
    347            else
    348            {
    349              wsprintf(ws, "No Data Yet");
   \                     ??DrawWeatherLog_1:
   \   000002BC   0610A0E1           MOV      R1,R6
   \   000002C0   0400A0E1           MOV      R0,R4
   \   000002C4   240100EF           SWI      +292
    350              DrawString(ws,pos_msg_x+5,pos_msg_y+35,pos_msg_x+Get_WS_width(ws,9)+5,pos_msg_y+GetFontYSIZE(9)+35,9,0,GetPaletteAdrByColorIndex(4),GetPaletteAdrByColorIndex(23));
   \   000002C8   1700A0E3           MOV      R0,#+23
   \   000002CC   2E0100EF           SWI      +302
   \   000002D0   0070A0E1           MOV      R7,R0
   \   000002D4   0400A0E3           MOV      R0,#+4
   \   000002D8   2E0100EF           SWI      +302
   \   000002DC   0080A0E1           MOV      R8,R0
   \   000002E0   0900A0E3           MOV      R0,#+9
   \   000002E4   C50100EF           SWI      +453
   \   000002E8   0060A0E1           MOV      R6,R0
   \   000002EC   0910A0E3           MOV      R1,#+9
   \   000002F0   0400A0E1           MOV      R0,R4
   \   000002F4   080200EF           SWI      +520
   \   000002F8   781095E5           LDR      R1,[R5, #+120]
   \   000002FC   7C2095E5           LDR      R2,[R5, #+124]
   \   00000300   80002DE9           PUSH     {R7}
   \   00000304   00012DE9           PUSH     {R8}
   \   00000308   0030A0E3           MOV      R3,#+0
   \   0000030C   08002DE9           PUSH     {R3}
   \   00000310   010080E0           ADD      R0,R0,R1
   \   00000314   051081E2           ADD      R1,R1,#+5
   \   00000318   0930A0E3           MOV      R3,#+9
   \   0000031C   08002DE9           PUSH     {R3}
   \   00000320   023086E0           ADD      R3,R6,R2
   \   00000324   232082E2           ADD      R2,R2,#+35
   \   00000328   233083E2           ADD      R3,R3,#+35
   \   0000032C   08002DE9           PUSH     {R3}
   \   00000330   053080E2           ADD      R3,R0,#+5
   \   00000334   0400A0E1           MOV      R0,R4
   \   00000338   4C0100EF           SWI      +332
   \   0000033C   14D08DE2           ADD      SP,SP,#+20
    351            }
    352            FreeWS(ws);
   \   00000340   0400A0E1           MOV      R0,R4
   \   00000344   290100EF           SWI      +297
    353          }
   \   00000348   F083BDE8           POP      {R4-R9,PC}       ;; return
   \                     ??DrawWeatherLog_0:
   \   0000034C   ........           DC32     `?<Constant "No Data Yet">`
    354          #else
    355          void DrawWeatherLog()
    356          {
    357            WSHDR *ws=AllocWS(64);
    358            wsprintf(ws, "[%t: %t]", LG_WET, city_name);
    359            DrawString(ws,pos_msg_x+5,pos_msg_y+8,pos_msg_x+Get_WS_width(ws,9)+5,pos_msg_y+GetFontYSIZE(9)+8,9,0,GetPaletteAdrByColorIndex(2),GetPaletteAdrByColorIndex(23));
    360            if(engade_weather)
    361            {
    362              wsprintf(ws, "On: %s", weather_time);
    363              DrawString(ws,pos_msg_x+5,pos_msg_y+35,pos_msg_x+Get_WS_width(ws,9)+5,pos_msg_y+GetFontYSIZE(9)+35,9,0,GetPaletteAdrByColorIndex(4),GetPaletteAdrByColorIndex(23));
    364              ascii2ws(ws, temp2);
    365              DrawString(ws,pos_msg_x+5,pos_msg_y+53,pos_msg_x+Get_WS_width(ws,9)+5,pos_msg_y+GetFontYSIZE(9)+53,9,0,GetPaletteAdrByColorIndex(4),GetPaletteAdrByColorIndex(23));
    366              ascii2ws(ws, vejsh2);
    367              //wsprintf(ws, vejsh2);
    368              DrawString(ws,pos_msg_x+5,pos_msg_y+71,pos_msg_x+Get_WS_width(ws,9)+5,pos_msg_y+GetFontYSIZE(9)+71,9,0,GetPaletteAdrByColorIndex(4),GetPaletteAdrByColorIndex(23));
    369              ascii2ws(ws, pressure2);
    370             // wsprintf(ws, pressure2);
    371              DrawString(ws,pos_msg_x+5,pos_msg_y+89,pos_msg_x+Get_WS_width(ws,9)+5,pos_msg_y+GetFontYSIZE(9)+89,9,0,GetPaletteAdrByColorIndex(4),GetPaletteAdrByColorIndex(23));
    372            }
    373            else
    374            {
    375              wsprintf(ws, "No Data Yet");
    376              DrawString(ws,pos_msg_x+5,pos_msg_y+35,pos_msg_x+Get_WS_width(ws,9)+5,pos_msg_y+GetFontYSIZE(9)+35,9,0,GetPaletteAdrByColorIndex(4),GetPaletteAdrByColorIndex(23));
    377            }
    378            FreeWS(ws);
    379          }
    380          #endif
    381          
    382          int battery;
    383          

   \                                 In segment CODE, align 4, keep-with-next
    384          void DrawBatteryLog()
    385          {
   \                     DrawBatteryLog:
   \   00000000   F0432DE9           PUSH     {R4-R9,LR}
    386            battery = *RamCap();
   \   00000004   ........           LDR      R4,??DataTable7  ;; screen
    387            WSHDR *ws=AllocWS(64);
    388            wsprintf(ws, "[%t]", LG_BATI);
   \   00000008   ........           LDR      R6,??DataTable8  ;; `?<Constant "[%t]">`
   \   0000000C   C88000EF           SWI      +32968
   \   00000010   B000D0E1           LDRH     R0,[R0, #+0]
   \   00000014   900084E5           STR      R0,[R4, #+144]
   \   00000018   4000A0E3           MOV      R0,#+64
   \   0000001C   250100EF           SWI      +293
   \   00000020   0050A0E1           MOV      R5,R0
   \   00000024   082086E2           ADD      R2,R6,#+8
   \   00000028   0610A0E1           MOV      R1,R6
   \   0000002C   240100EF           SWI      +292
    389            DrawString(ws,pos_msg_x+5,pos_msg_y+8,pos_msg_x+Get_WS_width(ws,9)+5,pos_msg_y+GetFontYSIZE(9)+8,9,0,GetPaletteAdrByColorIndex(2),GetPaletteAdrByColorIndex(23));
   \   00000030   1700A0E3           MOV      R0,#+23
   \   00000034   2E0100EF           SWI      +302
   \   00000038   0070A0E1           MOV      R7,R0
   \   0000003C   0200A0E3           MOV      R0,#+2
   \   00000040   2E0100EF           SWI      +302
   \   00000044   0080A0E1           MOV      R8,R0
   \   00000048   0900A0E3           MOV      R0,#+9
   \   0000004C   C50100EF           SWI      +453
   \   00000050   0090A0E1           MOV      R9,R0
   \   00000054   0910A0E3           MOV      R1,#+9
   \   00000058   0500A0E1           MOV      R0,R5
   \   0000005C   080200EF           SWI      +520
   \   00000060   781094E5           LDR      R1,[R4, #+120]
   \   00000064   7C2094E5           LDR      R2,[R4, #+124]
   \   00000068   80002DE9           PUSH     {R7}
   \   0000006C   00012DE9           PUSH     {R8}
   \   00000070   0030A0E3           MOV      R3,#+0
   \   00000074   08002DE9           PUSH     {R3}
   \   00000078   010080E0           ADD      R0,R0,R1
   \   0000007C   051081E2           ADD      R1,R1,#+5
   \   00000080   0930A0E3           MOV      R3,#+9
   \   00000084   08002DE9           PUSH     {R3}
   \   00000088   023089E0           ADD      R3,R9,R2
   \   0000008C   082082E2           ADD      R2,R2,#+8
   \   00000090   083083E2           ADD      R3,R3,#+8
   \   00000094   08002DE9           PUSH     {R3}
   \   00000098   053080E2           ADD      R3,R0,#+5
   \   0000009C   0500A0E1           MOV      R0,R5
   \   000000A0   4C0100EF           SWI      +332
    390            wsprintf(ws,"%t: %d%", LG_BCAP, battery);
   \   000000A4   903094E5           LDR      R3,[R4, #+144]
   \   000000A8   202086E2           ADD      R2,R6,#+32
   \   000000AC   181086E2           ADD      R1,R6,#+24
   \   000000B0   0500A0E1           MOV      R0,R5
   \   000000B4   240100EF           SWI      +292
    391            DrawString(ws,pos_msg_x+5,pos_msg_y+35,pos_msg_x+Get_WS_width(ws,9)+5,pos_msg_y+GetFontYSIZE(9)+35,9,0,GetPaletteAdrByColorIndex(4),GetPaletteAdrByColorIndex(23));
   \   000000B8   1700A0E3           MOV      R0,#+23
   \   000000BC   2E0100EF           SWI      +302
   \   000000C0   0070A0E1           MOV      R7,R0
   \   000000C4   0400A0E3           MOV      R0,#+4
   \   000000C8   2E0100EF           SWI      +302
   \   000000CC   0080A0E1           MOV      R8,R0
   \   000000D0   0900A0E3           MOV      R0,#+9
   \   000000D4   C50100EF           SWI      +453
   \   000000D8   0090A0E1           MOV      R9,R0
   \   000000DC   0910A0E3           MOV      R1,#+9
   \   000000E0   0500A0E1           MOV      R0,R5
   \   000000E4   080200EF           SWI      +520
   \   000000E8   781094E5           LDR      R1,[R4, #+120]
   \   000000EC   7C2094E5           LDR      R2,[R4, #+124]
   \   000000F0   80002DE9           PUSH     {R7}
   \   000000F4   00012DE9           PUSH     {R8}
   \   000000F8   0030A0E3           MOV      R3,#+0
   \   000000FC   08002DE9           PUSH     {R3}
   \   00000100   010080E0           ADD      R0,R0,R1
   \   00000104   051081E2           ADD      R1,R1,#+5
   \   00000108   0930A0E3           MOV      R3,#+9
   \   0000010C   08002DE9           PUSH     {R3}
   \   00000110   023089E0           ADD      R3,R9,R2
   \   00000114   232082E2           ADD      R2,R2,#+35
   \   00000118   233083E2           ADD      R3,R3,#+35
   \   0000011C   08002DE9           PUSH     {R3}
   \   00000120   053080E2           ADD      R3,R0,#+5
   \   00000124   0500A0E1           MOV      R0,R5
   \   00000128   4C0100EF           SWI      +332
   \   0000012C   28D08DE2           ADD      SP,SP,#+40
    392            if(GetAccessoryType()==13) wsprintf(ws, "%t: On", LG_BCON); else wsprintf(ws, "%t: Off", LG_BCON);
   \   00000130   880000EF           SWI      +136
   \   00000134   0D0050E3           CMP      R0,#+13
   \   00000138   342086E2           ADD      R2,R6,#+52
   \   0000013C   2C108602           ADDEQ    R1,R6,#+44
   \   00000140   3C108612           ADDNE    R1,R6,#+60
   \   00000144   0500A0E1           MOV      R0,R5
   \   00000148   240100EF           SWI      +292
    393            DrawString(ws,pos_msg_x+5,pos_msg_y+53,pos_msg_x+Get_WS_width(ws,9)+5,pos_msg_y+GetFontYSIZE(9)+53,9,0,GetPaletteAdrByColorIndex(4),GetPaletteAdrByColorIndex(23));
   \   0000014C   1700A0E3           MOV      R0,#+23
   \   00000150   2E0100EF           SWI      +302
   \   00000154   0070A0E1           MOV      R7,R0
   \   00000158   0400A0E3           MOV      R0,#+4
   \   0000015C   2E0100EF           SWI      +302
   \   00000160   0080A0E1           MOV      R8,R0
   \   00000164   0900A0E3           MOV      R0,#+9
   \   00000168   C50100EF           SWI      +453
   \   0000016C   0090A0E1           MOV      R9,R0
   \   00000170   0910A0E3           MOV      R1,#+9
   \   00000174   0500A0E1           MOV      R0,R5
   \   00000178   080200EF           SWI      +520
   \   0000017C   781094E5           LDR      R1,[R4, #+120]
   \   00000180   7C2094E5           LDR      R2,[R4, #+124]
   \   00000184   80002DE9           PUSH     {R7}
   \   00000188   00012DE9           PUSH     {R8}
   \   0000018C   0030A0E3           MOV      R3,#+0
   \   00000190   08002DE9           PUSH     {R3}
   \   00000194   010080E0           ADD      R0,R0,R1
   \   00000198   051081E2           ADD      R1,R1,#+5
   \   0000019C   0930A0E3           MOV      R3,#+9
   \   000001A0   08002DE9           PUSH     {R3}
   \   000001A4   023089E0           ADD      R3,R9,R2
   \   000001A8   352082E2           ADD      R2,R2,#+53
   \   000001AC   353083E2           ADD      R3,R3,#+53
   \   000001B0   08002DE9           PUSH     {R3}
   \   000001B4   053080E2           ADD      R3,R0,#+5
   \   000001B8   0500A0E1           MOV      R0,R5
   \   000001BC   4C0100EF           SWI      +332
    394            wsprintf(ws, "%t:", LG_CLCH);
   \   000001C0   442086E2           ADD      R2,R6,#+68
   \   000001C4   431F8FE2           ADR      R1,??DrawBatteryLog_0  ;; "%t:"
   \   000001C8   0500A0E1           MOV      R0,R5
   \   000001CC   240100EF           SWI      +292
    395            DrawString(ws,pos_msg_x+5,pos_msg_y+71,pos_msg_x+Get_WS_width(ws,9)+5,pos_msg_y+GetFontYSIZE(9)+71,9,0,GetPaletteAdrByColorIndex(4),GetPaletteAdrByColorIndex(23));
   \   000001D0   1700A0E3           MOV      R0,#+23
   \   000001D4   2E0100EF           SWI      +302
   \   000001D8   0070A0E1           MOV      R7,R0
   \   000001DC   0400A0E3           MOV      R0,#+4
   \   000001E0   2E0100EF           SWI      +302
   \   000001E4   0080A0E1           MOV      R8,R0
   \   000001E8   0900A0E3           MOV      R0,#+9
   \   000001EC   C50100EF           SWI      +453
   \   000001F0   0060A0E1           MOV      R6,R0
   \   000001F4   0910A0E3           MOV      R1,#+9
   \   000001F8   0500A0E1           MOV      R0,R5
   \   000001FC   080200EF           SWI      +520
   \   00000200   781094E5           LDR      R1,[R4, #+120]
   \   00000204   7C2094E5           LDR      R2,[R4, #+124]
   \   00000208   80002DE9           PUSH     {R7}
   \   0000020C   00012DE9           PUSH     {R8}
   \   00000210   0030A0E3           MOV      R3,#+0
   \   00000214   08002DE9           PUSH     {R3}
   \   00000218   010080E0           ADD      R0,R0,R1
   \   0000021C   051081E2           ADD      R1,R1,#+5
   \   00000220   0930A0E3           MOV      R3,#+9
   \   00000224   08002DE9           PUSH     {R3}
   \   00000228   023086E0           ADD      R3,R6,R2
   \   0000022C   472082E2           ADD      R2,R2,#+71
   \   00000230   473083E2           ADD      R3,R3,#+71
   \   00000234   08002DE9           PUSH     {R3}
   \   00000238   053080E2           ADD      R3,R0,#+5
   \   0000023C   0500A0E1           MOV      R0,R5
   \   00000240   4C0100EF           SWI      +332
   \   00000244   28D08DE2           ADD      SP,SP,#+40
    396            wsprintf(ws, chinfo);
   \   00000248   E81084E2           ADD      R1,R4,#+232
   \   0000024C   0500A0E1           MOV      R0,R5
   \   00000250   240100EF           SWI      +292
    397            DrawString(ws,pos_msg_x+30,pos_msg_y+89,pos_msg_x+Get_WS_width(ws,9)+30,pos_msg_y+GetFontYSIZE(9)+89,9,0,GetPaletteAdrByColorIndex(4),GetPaletteAdrByColorIndex(23));
   \   00000254   1700A0E3           MOV      R0,#+23
   \   00000258   2E0100EF           SWI      +302
   \   0000025C   0070A0E1           MOV      R7,R0
   \   00000260   0400A0E3           MOV      R0,#+4
   \   00000264   2E0100EF           SWI      +302
   \   00000268   0080A0E1           MOV      R8,R0
   \   0000026C   0900A0E3           MOV      R0,#+9
   \   00000270   C50100EF           SWI      +453
   \   00000274   0060A0E1           MOV      R6,R0
   \   00000278   0910A0E3           MOV      R1,#+9
   \   0000027C   0500A0E1           MOV      R0,R5
   \   00000280   080200EF           SWI      +520
   \   00000284   781094E5           LDR      R1,[R4, #+120]
   \   00000288   7C2094E5           LDR      R2,[R4, #+124]
   \   0000028C   80002DE9           PUSH     {R7}
   \   00000290   00012DE9           PUSH     {R8}
   \   00000294   0030A0E3           MOV      R3,#+0
   \   00000298   08002DE9           PUSH     {R3}
   \   0000029C   010080E0           ADD      R0,R0,R1
   \   000002A0   1E1081E2           ADD      R1,R1,#+30
   \   000002A4   0930A0E3           MOV      R3,#+9
   \   000002A8   08002DE9           PUSH     {R3}
   \   000002AC   023086E0           ADD      R3,R6,R2
   \   000002B0   592082E2           ADD      R2,R2,#+89
   \   000002B4   593083E2           ADD      R3,R3,#+89
   \   000002B8   08002DE9           PUSH     {R3}
   \   000002BC   1E3080E2           ADD      R3,R0,#+30
   \   000002C0   0500A0E1           MOV      R0,R5
   \   000002C4   4C0100EF           SWI      +332
    398            FreeWS(ws);
   \   000002C8   0500A0E1           MOV      R0,R5
   \   000002CC   290100EF           SWI      +297
    399          }
   \   000002D0   14D08DE2           ADD      SP,SP,#+20
   \   000002D4   F083BDE8           POP      {R4-R9,PC}       ;; return
   \                     ??DrawBatteryLog_0:
   \   000002D8   25743A00           DC8      "%t:"
    400          
    401          #pragma swi_number=0x41
    402          __swi __arm char GetProvider(WSHDR *ws, int zero); //for provider info
    403          int monthc;
    404          char month[5];
    405          

   \                                 In segment CODE, align 4, keep-with-next
    406          void get_month()
    407          {
   \                     get_month:
   \   00000000   30402DE9           PUSH     {R4,R5,LR}
   \   00000004   08D04DE2           SUB      SP,SP,#+8
    408            TDate date;
    409            GetDateTime(&date, NULL);
   \   00000008   0010A0E3           MOV      R1,#+0
    410            if(date.month==1) strcpy(month, "jan");
   \   0000000C   ........           LDR      R5,??DataTable7  ;; screen
   \   00000010   0D00A0E1           MOV      R0,SP
   \   00000014   B40000EF           SWI      +180
   \   00000018   0400DDE5           LDRB     R0,[SP, #+4]
   \   0000001C   864FA0E3           MOV      R4,#+536
   \   00000020   010050E3           CMP      R0,#+1
   \   00000024   0200001A           BNE      ??get_month_0
   \   00000028   461F8FE2           ADR      R1,??get_month_1  ;; "jan"
   \   0000002C   050084E0           ADD      R0,R4,R5
   \   00000030   1A0000EF           SWI      +26
    411            if(date.month==2) strcpy(month, "feb");
   \                     ??get_month_0:
   \   00000034   0400DDE5           LDRB     R0,[SP, #+4]
   \   00000038   020050E3           CMP      R0,#+2
   \   0000003C   0200001A           BNE      ??get_month_2
   \   00000040   411F8FE2           ADR      R1,??get_month_1+0x4  ;; "feb"
   \   00000044   050084E0           ADD      R0,R4,R5
   \   00000048   1A0000EF           SWI      +26
    412            if(date.month==3) strcpy(month, "mar");
   \                     ??get_month_2:
   \   0000004C   0400DDE5           LDRB     R0,[SP, #+4]
   \   00000050   030050E3           CMP      R0,#+3
   \   00000054   0200001A           BNE      ??get_month_3
   \   00000058   3C1F8FE2           ADR      R1,??get_month_1+0x8  ;; "mar"
   \   0000005C   050084E0           ADD      R0,R4,R5
   \   00000060   1A0000EF           SWI      +26
    413            if(date.month==4) strcpy(month, "apr");
   \                     ??get_month_3:
   \   00000064   0400DDE5           LDRB     R0,[SP, #+4]
   \   00000068   040050E3           CMP      R0,#+4
   \   0000006C   0200001A           BNE      ??get_month_4
   \   00000070   371F8FE2           ADR      R1,??get_month_1+0xC  ;; "apr"
   \   00000074   050084E0           ADD      R0,R4,R5
   \   00000078   1A0000EF           SWI      +26
    414            if(date.month==5) strcpy(month, "may");
   \                     ??get_month_4:
   \   0000007C   0400DDE5           LDRB     R0,[SP, #+4]
   \   00000080   050050E3           CMP      R0,#+5
   \   00000084   0200001A           BNE      ??get_month_5
   \   00000088   321F8FE2           ADR      R1,??get_month_1+0x10  ;; "may"
   \   0000008C   050084E0           ADD      R0,R4,R5
   \   00000090   1A0000EF           SWI      +26
    415            if(date.month==6) strcpy(month, "jun");
   \                     ??get_month_5:
   \   00000094   0400DDE5           LDRB     R0,[SP, #+4]
   \   00000098   060050E3           CMP      R0,#+6
   \   0000009C   0200001A           BNE      ??get_month_6
   \   000000A0   2D1F8FE2           ADR      R1,??get_month_1+0x14  ;; "jun"
   \   000000A4   050084E0           ADD      R0,R4,R5
   \   000000A8   1A0000EF           SWI      +26
    416            if(date.month==7) strcpy(month, "jul");
   \                     ??get_month_6:
   \   000000AC   0400DDE5           LDRB     R0,[SP, #+4]
   \   000000B0   070050E3           CMP      R0,#+7
   \   000000B4   0200001A           BNE      ??get_month_7
   \   000000B8   281F8FE2           ADR      R1,??get_month_1+0x18  ;; "jul"
   \   000000BC   050084E0           ADD      R0,R4,R5
   \   000000C0   1A0000EF           SWI      +26
    417            if(date.month==8) strcpy(month, "aug");
   \                     ??get_month_7:
   \   000000C4   0400DDE5           LDRB     R0,[SP, #+4]
   \   000000C8   080050E3           CMP      R0,#+8
   \   000000CC   0200001A           BNE      ??get_month_8
   \   000000D0   231F8FE2           ADR      R1,??get_month_1+0x1C  ;; "aug"
   \   000000D4   050084E0           ADD      R0,R4,R5
   \   000000D8   1A0000EF           SWI      +26
    418            if(date.month==9) strcpy(month, "sep");
   \                     ??get_month_8:
   \   000000DC   0400DDE5           LDRB     R0,[SP, #+4]
   \   000000E0   090050E3           CMP      R0,#+9
   \   000000E4   0200001A           BNE      ??get_month_9
   \   000000E8   1E1F8FE2           ADR      R1,??get_month_1+0x20  ;; "sep"
   \   000000EC   050084E0           ADD      R0,R4,R5
   \   000000F0   1A0000EF           SWI      +26
    419            if(date.month==10) strcpy(month, "oct");
   \                     ??get_month_9:
   \   000000F4   0400DDE5           LDRB     R0,[SP, #+4]
   \   000000F8   0A0050E3           CMP      R0,#+10
   \   000000FC   0200001A           BNE      ??get_month_10
   \   00000100   191F8FE2           ADR      R1,??get_month_1+0x24  ;; "oct"
   \   00000104   050084E0           ADD      R0,R4,R5
   \   00000108   1A0000EF           SWI      +26
    420            if(date.month==11) strcpy(month, "nov");
   \                     ??get_month_10:
   \   0000010C   0400DDE5           LDRB     R0,[SP, #+4]
   \   00000110   0B0050E3           CMP      R0,#+11
   \   00000114   0200001A           BNE      ??get_month_11
   \   00000118   141F8FE2           ADR      R1,??get_month_1+0x28  ;; "nov"
   \   0000011C   050084E0           ADD      R0,R4,R5
   \   00000120   1A0000EF           SWI      +26
    421            if(date.month==12) strcpy(month, "dec");
   \                     ??get_month_11:
   \   00000124   0400DDE5           LDRB     R0,[SP, #+4]
   \   00000128   0C0050E3           CMP      R0,#+12
   \   0000012C   0200001A           BNE      ??get_month_12
   \   00000130   0F1F8FE2           ADR      R1,??get_month_1+0x2C  ;; "dec"
   \   00000134   050084E0           ADD      R0,R4,R5
   \   00000138   1A0000EF           SWI      +26
    422            monthc=date.month;
   \                     ??get_month_12:
   \   0000013C   0400DDE5           LDRB     R0,[SP, #+4]
   \   00000140   940085E5           STR      R0,[R5, #+148]
    423          }
   \   00000144   3380BDE8           POP      {R0,R1,R4,R5,PC}  ;; return
   \                     ??get_month_1:
   \   00000148   6A616E00           DC8      "jan"
   \   0000014C   66656200           DC8      "feb"
   \   00000150   6D617200           DC8      "mar"
   \   00000154   61707200           DC8      "apr"
   \   00000158   6D617900           DC8      "may"
   \   0000015C   6A756E00           DC8      "jun"
   \   00000160   6A756C00           DC8      "jul"
   \   00000164   61756700           DC8      "aug"
   \   00000168   73657000           DC8      "sep"
   \   0000016C   6F637400           DC8      "oct"
   \   00000170   6E6F7600           DC8      "nov"
   \   00000174   64656300           DC8      "dec"
    424          

   \                                 In segment CODE, align 4, keep-with-next
    425          void DrawSystemLog()
    426          {
   \                     DrawSystemLog:
   \   00000000   F0472DE9           PUSH     {R4-R10,LR}
    427            //ttttttt
    428            int ram = GetFreeRamAvail();
    429            ram=ram/1024;
    430            WSHDR *ws=AllocWS(64);
    431            wsprintf(ws, "[%t]", LG_SYSI);
   \   00000004   ........           LDR      R7,??DataTable8  ;; `?<Constant "[%t]">`
    432            DrawString(ws,pos_msg_x+5,pos_msg_y+8,pos_msg_x+Get_WS_width(ws,9)+5,pos_msg_y+GetFontYSIZE(9)+8,9,0,GetPaletteAdrByColorIndex(2),GetPaletteAdrByColorIndex(23));
   \   00000008   ........           LDR      R5,??DataTable7  ;; screen
   \   0000000C   10D04DE2           SUB      SP,SP,#+16
   \   00000010   5F0000EF           SWI      +95
   \   00000014   0060A0E1           MOV      R6,R0
   \   00000018   4000A0E3           MOV      R0,#+64
   \   0000001C   250100EF           SWI      +293
   \   00000020   0040A0E1           MOV      R4,R0
   \   00000024   502087E2           ADD      R2,R7,#+80
   \   00000028   0710A0E1           MOV      R1,R7
   \   0000002C   240100EF           SWI      +292
   \   00000030   1700A0E3           MOV      R0,#+23
   \   00000034   2E0100EF           SWI      +302
   \   00000038   0080A0E1           MOV      R8,R0
   \   0000003C   0200A0E3           MOV      R0,#+2
   \   00000040   2E0100EF           SWI      +302
   \   00000044   0090A0E1           MOV      R9,R0
   \   00000048   0900A0E3           MOV      R0,#+9
   \   0000004C   C50100EF           SWI      +453
   \   00000050   00A0A0E1           MOV      R10,R0
   \   00000054   0910A0E3           MOV      R1,#+9
   \   00000058   0400A0E1           MOV      R0,R4
   \   0000005C   080200EF           SWI      +520
   \   00000060   781095E5           LDR      R1,[R5, #+120]
   \   00000064   7C2095E5           LDR      R2,[R5, #+124]
   \   00000068   00012DE9           PUSH     {R8}
   \   0000006C   00022DE9           PUSH     {R9}
   \   00000070   0030A0E3           MOV      R3,#+0
   \   00000074   08002DE9           PUSH     {R3}
   \   00000078   010080E0           ADD      R0,R0,R1
   \   0000007C   051081E2           ADD      R1,R1,#+5
   \   00000080   0930A0E3           MOV      R3,#+9
   \   00000084   08002DE9           PUSH     {R3}
   \   00000088   02308AE0           ADD      R3,R10,R2
   \   0000008C   082082E2           ADD      R2,R2,#+8
   \   00000090   083083E2           ADD      R3,R3,#+8
   \   00000094   08002DE9           PUSH     {R3}
   \   00000098   053080E2           ADD      R3,R0,#+5
   \   0000009C   0400A0E1           MOV      R0,R4
   \   000000A0   4C0100EF           SWI      +332
    433            TTime time;
    434            TDate date;
    435            GetDateTime(&date, &time);
   \   000000A4   14108DE2           ADD      R1,SP,#+20
   \   000000A8   1C008DE2           ADD      R0,SP,#+28
   \   000000AC   B40000EF           SWI      +180
    436            if(monthc!=date.month) get_month();
   \   000000B0   2010DDE5           LDRB     R1,[SP, #+32]
   \   000000B4   940095E5           LDR      R0,[R5, #+148]
   \   000000B8   14D08DE2           ADD      SP,SP,#+20
   \   000000BC   010050E1           CMP      R0,R1
   \   000000C0   0000000A           BEQ      ??DrawSystemLog_0
   \   000000C4   ........           BL       get_month
    437            wsprintf(ws, "%02d%s, %02d:%02d:%02d", date.day, month, time.hour, time.min, time.sec);
   \                     ??DrawSystemLog_0:
   \   000000C8   0200DDE5           LDRB     R0,[SP, #+2]
   \   000000CC   863F85E2           ADD      R3,R5,#+536
   \   000000D0   5C1087E2           ADD      R1,R7,#+92
   \   000000D4   01002DE9           PUSH     {R0}
   \   000000D8   0500DDE5           LDRB     R0,[SP, #+5]
   \   000000DC   01002DE9           PUSH     {R0}
   \   000000E0   0800DDE5           LDRB     R0,[SP, #+8]
   \   000000E4   01002DE9           PUSH     {R0}
   \   000000E8   1920DDE5           LDRB     R2,[SP, #+25]
   \   000000EC   0400A0E1           MOV      R0,R4
   \   000000F0   240100EF           SWI      +292
    438            DrawString(ws,pos_msg_x+5,pos_msg_y+35,pos_msg_x+Get_WS_width(ws,9)+5,pos_msg_y+GetFontYSIZE(9)+35,9,0,GetPaletteAdrByColorIndex(4),GetPaletteAdrByColorIndex(23));
   \   000000F4   1700A0E3           MOV      R0,#+23
   \   000000F8   2E0100EF           SWI      +302
   \   000000FC   0080A0E1           MOV      R8,R0
   \   00000100   0400A0E3           MOV      R0,#+4
   \   00000104   2E0100EF           SWI      +302
   \   00000108   0090A0E1           MOV      R9,R0
   \   0000010C   0900A0E3           MOV      R0,#+9
   \   00000110   C50100EF           SWI      +453
   \   00000114   00A0A0E1           MOV      R10,R0
   \   00000118   0910A0E3           MOV      R1,#+9
   \   0000011C   0400A0E1           MOV      R0,R4
   \   00000120   080200EF           SWI      +520
   \   00000124   781095E5           LDR      R1,[R5, #+120]
   \   00000128   7C2095E5           LDR      R2,[R5, #+124]
   \   0000012C   00012DE9           PUSH     {R8}
   \   00000130   00022DE9           PUSH     {R9}
   \   00000134   0030A0E3           MOV      R3,#+0
   \   00000138   08002DE9           PUSH     {R3}
   \   0000013C   010080E0           ADD      R0,R0,R1
   \   00000140   051081E2           ADD      R1,R1,#+5
   \   00000144   0930A0E3           MOV      R3,#+9
   \   00000148   08002DE9           PUSH     {R3}
   \   0000014C   02308AE0           ADD      R3,R10,R2
   \   00000150   232082E2           ADD      R2,R2,#+35
   \   00000154   233083E2           ADD      R3,R3,#+35
   \   00000158   08002DE9           PUSH     {R3}
   \   0000015C   053080E2           ADD      R3,R0,#+5
   \   00000160   0400A0E1           MOV      R0,R4
   \   00000164   4C0100EF           SWI      +332
    439            GetProvider(ws,0);
   \   00000168   0010A0E3           MOV      R1,#+0
   \   0000016C   0400A0E1           MOV      R0,R4
   \   00000170   410000EF           SWI      +65
    440            DrawString(ws,pos_msg_x+5,pos_msg_y+53,pos_msg_x+Get_WS_width(ws,9)+5,pos_msg_y+GetFontYSIZE(9)+53,9,0,GetPaletteAdrByColorIndex(4),GetPaletteAdrByColorIndex(23));
   \   00000174   1700A0E3           MOV      R0,#+23
   \   00000178   2E0100EF           SWI      +302
   \   0000017C   0080A0E1           MOV      R8,R0
   \   00000180   0400A0E3           MOV      R0,#+4
   \   00000184   2E0100EF           SWI      +302
   \   00000188   0090A0E1           MOV      R9,R0
   \   0000018C   0900A0E3           MOV      R0,#+9
   \   00000190   C50100EF           SWI      +453
   \   00000194   00A0A0E1           MOV      R10,R0
   \   00000198   0910A0E3           MOV      R1,#+9
   \   0000019C   0400A0E1           MOV      R0,R4
   \   000001A0   080200EF           SWI      +520
   \   000001A4   781095E5           LDR      R1,[R5, #+120]
   \   000001A8   7C2095E5           LDR      R2,[R5, #+124]
   \   000001AC   00012DE9           PUSH     {R8}
   \   000001B0   00022DE9           PUSH     {R9}
   \   000001B4   0030A0E3           MOV      R3,#+0
   \   000001B8   08002DE9           PUSH     {R3}
   \   000001BC   010080E0           ADD      R0,R0,R1
   \   000001C0   051081E2           ADD      R1,R1,#+5
   \   000001C4   0930A0E3           MOV      R3,#+9
   \   000001C8   08002DE9           PUSH     {R3}
   \   000001CC   02308AE0           ADD      R3,R10,R2
   \   000001D0   352082E2           ADD      R2,R2,#+53
   \   000001D4   353083E2           ADD      R3,R3,#+53
   \   000001D8   08002DE9           PUSH     {R3}
   \   000001DC   053080E2           ADD      R3,R0,#+5
   \   000001E0   0400A0E1           MOV      R0,R4
   \   000001E4   4C0100EF           SWI      +332
   \   000001E8   34D08DE2           ADD      SP,SP,#+52
    441            wsprintf(ws, "%t: %02d:%02d:%02d", LG_SRUN, r_h, r_m, r_s);
   \   000001EC   3C0095E5           LDR      R0,[R5, #+60]
   \   000001F0   882087E2           ADD      R2,R7,#+136
   \   000001F4   01002DE9           PUSH     {R0}
   \   000001F8   400095E5           LDR      R0,[R5, #+64]
   \   000001FC   741087E2           ADD      R1,R7,#+116
   \   00000200   01002DE9           PUSH     {R0}
   \   00000204   443095E5           LDR      R3,[R5, #+68]
   \   00000208   0400A0E1           MOV      R0,R4
   \   0000020C   240100EF           SWI      +292
    442            DrawString(ws,pos_msg_x+5,pos_msg_y+71,pos_msg_x+Get_WS_width(ws,9)+5,pos_msg_y+GetFontYSIZE(9)+71,9,0,GetPaletteAdrByColorIndex(4),GetPaletteAdrByColorIndex(23));
   \   00000210   1700A0E3           MOV      R0,#+23
   \   00000214   2E0100EF           SWI      +302
   \   00000218   0080A0E1           MOV      R8,R0
   \   0000021C   0400A0E3           MOV      R0,#+4
   \   00000220   2E0100EF           SWI      +302
   \   00000224   0090A0E1           MOV      R9,R0
   \   00000228   0900A0E3           MOV      R0,#+9
   \   0000022C   C50100EF           SWI      +453
   \   00000230   00A0A0E1           MOV      R10,R0
   \   00000234   0910A0E3           MOV      R1,#+9
   \   00000238   0400A0E1           MOV      R0,R4
   \   0000023C   080200EF           SWI      +520
   \   00000240   781095E5           LDR      R1,[R5, #+120]
   \   00000244   7C2095E5           LDR      R2,[R5, #+124]
   \   00000248   00012DE9           PUSH     {R8}
   \   0000024C   00022DE9           PUSH     {R9}
   \   00000250   0030A0E3           MOV      R3,#+0
   \   00000254   08002DE9           PUSH     {R3}
   \   00000258   010080E0           ADD      R0,R0,R1
   \   0000025C   051081E2           ADD      R1,R1,#+5
   \   00000260   0930A0E3           MOV      R3,#+9
   \   00000264   08002DE9           PUSH     {R3}
   \   00000268   02308AE0           ADD      R3,R10,R2
   \   0000026C   472082E2           ADD      R2,R2,#+71
   \   00000270   473083E2           ADD      R3,R3,#+71
   \   00000274   08002DE9           PUSH     {R3}
   \   00000278   053080E2           ADD      R3,R0,#+5
   \   0000027C   0400A0E1           MOV      R0,R4
   \   00000280   4C0100EF           SWI      +332
    443            wsprintf(ws,"%t: %dKb", LG_SRAM, ram);
   \   00000284   C604A0E1           ASR      R0,R6,#+9
   \   00000288   200B86E0           ADD      R0,R6,R0, LSR #+22
   \   0000028C   4035A0E1           ASR      R3,R0,#+10
   \   00000290   9C2087E2           ADD      R2,R7,#+156
   \   00000294   901087E2           ADD      R1,R7,#+144
   \   00000298   0400A0E1           MOV      R0,R4
   \   0000029C   240100EF           SWI      +292
    444            DrawString(ws,pos_msg_x+5,pos_msg_y+89,pos_msg_x+Get_WS_width(ws,9)+5,pos_msg_y+GetFontYSIZE(9)+89,9,0,GetPaletteAdrByColorIndex(4),GetPaletteAdrByColorIndex(23));
   \   000002A0   1700A0E3           MOV      R0,#+23
   \   000002A4   2E0100EF           SWI      +302
   \   000002A8   0070A0E1           MOV      R7,R0
   \   000002AC   0400A0E3           MOV      R0,#+4
   \   000002B0   2E0100EF           SWI      +302
   \   000002B4   0080A0E1           MOV      R8,R0
   \   000002B8   0900A0E3           MOV      R0,#+9
   \   000002BC   C50100EF           SWI      +453
   \   000002C0   0060A0E1           MOV      R6,R0
   \   000002C4   0910A0E3           MOV      R1,#+9
   \   000002C8   0400A0E1           MOV      R0,R4
   \   000002CC   080200EF           SWI      +520
   \   000002D0   781095E5           LDR      R1,[R5, #+120]
   \   000002D4   7C2095E5           LDR      R2,[R5, #+124]
   \   000002D8   80002DE9           PUSH     {R7}
   \   000002DC   00012DE9           PUSH     {R8}
   \   000002E0   0030A0E3           MOV      R3,#+0
   \   000002E4   08002DE9           PUSH     {R3}
   \   000002E8   010080E0           ADD      R0,R0,R1
   \   000002EC   051081E2           ADD      R1,R1,#+5
   \   000002F0   0930A0E3           MOV      R3,#+9
   \   000002F4   08002DE9           PUSH     {R3}
   \   000002F8   023086E0           ADD      R3,R6,R2
   \   000002FC   592082E2           ADD      R2,R2,#+89
   \   00000300   593083E2           ADD      R3,R3,#+89
   \   00000304   08002DE9           PUSH     {R3}
   \   00000308   053080E2           ADD      R3,R0,#+5
   \   0000030C   0400A0E1           MOV      R0,R4
   \   00000310   4C0100EF           SWI      +332
   \   00000314   30D08DE2           ADD      SP,SP,#+48
    445            FreeWS(ws);
   \   00000318   0400A0E1           MOV      R0,R4
   \   0000031C   290100EF           SWI      +297
    446          }
   \   00000320   FF87BDE8           POP      {R0-R10,PC}      ;; return
    447          #ifdef NATICQ
    448          void DrawNaticqLog()
    449          {
    450            WSHDR *ws=AllocWS(64);
    451            wsprintf(ws, "[Naticq plugin]");
    452            DrawString(ws,pos_msg_x+3,pos_msg_y+3,pos_msg_x+Get_WS_width(ws,9)+3,pos_msg_y+GetFontYSIZE(9)+3,9,0,GetPaletteAdrByColorIndex(2),GetPaletteAdrByColorIndex(23));
    453            if(!naticq_plugin)
    454            {
    455            wsprintf(ws, "Naticq not running or wrong version");
    456            DrawString(ws,pos_msg_x+3,pos_msg_y+25,pos_msg_x+80,pos_msg_y+50+25,9,0,GetPaletteAdrByColorIndex(4),GetPaletteAdrByColorIndex(23));
    457            }
    458            else
    459            {
    460              wsprintf(ws, "Online: %s", naticq_time);
    461              DrawString(ws,pos_msg_x+3,pos_msg_y+25,pos_msg_x+Get_WS_width(ws,9)+3,pos_msg_y+GetFontYSIZE(9)+25,9,0,GetPaletteAdrByColorIndex(4),GetPaletteAdrByColorIndex(23));
    462              wsprintf(ws, "Ping: %s", naticq_ping);
    463              DrawString(ws,pos_msg_x+3,pos_msg_y+35,pos_msg_x+Get_WS_width(ws,9)+3,pos_msg_y+GetFontYSIZE(9)+35,9,0,GetPaletteAdrByColorIndex(4),GetPaletteAdrByColorIndex(23));
    464            }
    465           // DrawString(ws,pos_msg_x+3,pos_msg_y+35,pos_msg_x+Get_WS_width(ws,11)+3,pos_msg_y+GetFontYSIZE(11)+35,11,0,GetPaletteAdrByColorIndex(4),GetPaletteAdrByColorIndex(23));
    466           // wsprintf(ws, "Runtime: %02d:%02d:%02d", r_h, r_m, r_s);
    467           // DrawString(ws,pos_msg_x+3,pos_msg_y+45,pos_msg_x+Get_WS_width(ws,11)+3,pos_msg_y+GetFontYSIZE(11)+45,11,0,GetPaletteAdrByColorIndex(4),GetPaletteAdrByColorIndex(23));
    468           // wsprintf(ws,"FreeRam: %dKb", ram);
    469           // DrawString(ws,pos_msg_x+3,pos_msg_y+55,pos_msg_x+Get_WS_width(ws,11)+3,pos_msg_y+GetFontYSIZE(11)+55,11,0,GetPaletteAdrByColorIndex(4),GetPaletteAdrByColorIndex(23));
    470            FreeWS(ws);
    471          }
    472          #endif
    473          
    474          int hmm;
    475          int ggg;
    476          int trafiks;
    477          int start_traffic;
    478          GBSTMR mytmr2;
    479          

   \                                 In segment CODE, align 4, keep-with-next
    480          void reboot_ref()
    481          {
   \                     reboot_ref:
   \   00000000   00402DE9           PUSH     {LR}
    482            DirectRedrawGUI();
   \   00000004   3F0100EF           SWI      +319
    483          }
   \   00000008   0080BDE8           POP      {PC}             ;; return
    484          
    485          int ffq;
    486          char gpinfo[32];
    487          int isfile;
    488          extern int result3;
    489          int switch_gprs_info;
    490          int do_st=3;
    491          

   \                                 In segment CODE, align 4, keep-with-next
    492          void DrawGPRSLog()
    493          {
   \                     DrawGPRSLog:
   \   00000000   F04F2DE9           PUSH     {R4-R11,LR}
    494            WSHDR *ws=AllocWS(64);
    495            if(IsGPRSConnected())
   \   00000004   ........           LDR      R5,??DataTable8  ;; `?<Constant "[%t]">`
   \   00000008   ........           LDR      R6,??DataTable23  ;; screen
   \   0000000C   4000A0E3           MOV      R0,#+64
   \   00000010   250100EF           SWI      +293
   \   00000014   0040A0E1           MOV      R4,R0
   \   00000018   A80000EF           SWI      +168
   \   0000001C   000050E3           CMP      R0,#+0
   \   00000020   AF00000A           BEQ      ??DrawGPRSLog_0
    496            {
    497              RefreshGPRSTraffic();
   \   00000024   6F0000EF           SWI      +111
    498              int *traf = GetGPRSTrafficPointer();
   \   00000028   700000EF           SWI      +112
    499              hmm=*traf-ggg;
   \   0000002C   9C1096E5           LDR      R1,[R6, #+156]
   \   00000030   0070A0E1           MOV      R7,R0
   \   00000034   000097E5           LDR      R0,[R7, #+0]
   \   00000038   010040E0           SUB      R0,R0,R1
   \   0000003C   980086E5           STR      R0,[R6, #+152]
    500          #ifdef Evilfox
    501              wsprintf(ws,start_g2);
    502          #else
    503              ascii2ws(ws, start_g2);
   \   00000040   661F86E2           ADD      R1,R6,#+408
   \   00000044   0400A0E1           MOV      R0,R4
   \   00000048   ........           _BLF     ascii2ws,??ascii2ws??rA
    504          #endif
    505              DrawString(ws,pos_msg_x+5,pos_msg_y+35,pos_msg_x+Get_WS_width(ws,9)+5,pos_msg_y+GetFontYSIZE(9)+35,9,0,GetPaletteAdrByColorIndex(4),GetPaletteAdrByColorIndex(23));
   \   0000004C   1700A0E3           MOV      R0,#+23
   \   00000050   2E0100EF           SWI      +302
   \   00000054   0080A0E1           MOV      R8,R0
   \   00000058   0400A0E3           MOV      R0,#+4
   \   0000005C   2E0100EF           SWI      +302
   \   00000060   0090A0E1           MOV      R9,R0
   \   00000064   0900A0E3           MOV      R0,#+9
   \   00000068   C50100EF           SWI      +453
   \   0000006C   00A0A0E1           MOV      R10,R0
   \   00000070   0910A0E3           MOV      R1,#+9
   \   00000074   0400A0E1           MOV      R0,R4
   \   00000078   080200EF           SWI      +520
   \   0000007C   781096E5           LDR      R1,[R6, #+120]
   \   00000080   7C2096E5           LDR      R2,[R6, #+124]
   \   00000084   00012DE9           PUSH     {R8}
   \   00000088   00022DE9           PUSH     {R9}
   \   0000008C   0030A0E3           MOV      R3,#+0
   \   00000090   08002DE9           PUSH     {R3}
   \   00000094   010080E0           ADD      R0,R0,R1
   \   00000098   051081E2           ADD      R1,R1,#+5
    506              if(ffq) 
   \   0000009C   0080A0E3           MOV      R8,#+0
   \   000000A0   0930A0E3           MOV      R3,#+9
   \   000000A4   08002DE9           PUSH     {R3}
   \   000000A8   02308AE0           ADD      R3,R10,R2
   \   000000AC   232082E2           ADD      R2,R2,#+35
   \   000000B0   233083E2           ADD      R3,R3,#+35
   \   000000B4   08002DE9           PUSH     {R3}
   \   000000B8   053080E2           ADD      R3,R0,#+5
   \   000000BC   0400A0E1           MOV      R0,R4
   \   000000C0   4C0100EF           SWI      +332
   \   000000C4   A80096E5           LDR      R0,[R6, #+168]
   \   000000C8   14D08DE2           ADD      SP,SP,#+20
   \   000000CC   000050E3           CMP      R0,#+0
    507              {
    508                hmm=0;
   \   000000D0   98808615           STRNE    R8,[R6, #+152]
    509                ffq=0;
    510              }
    511              wsprintf(ws, "%t: %dB/s", LG_GSPE, hmm);
   \   000000D4   983096E5           LDR      R3,[R6, #+152]
   \   000000D8   A8808615           STRNE    R8,[R6, #+168]
   \   000000DC   B02085E2           ADD      R2,R5,#+176
   \   000000E0   A41085E2           ADD      R1,R5,#+164
   \   000000E4   0400A0E1           MOV      R0,R4
   \   000000E8   240100EF           SWI      +292
    512              DrawString(ws,pos_msg_x+5,pos_msg_y+53,pos_msg_x+Get_WS_width(ws,9)+5,pos_msg_y+GetFontYSIZE(9)+53,9,0,GetPaletteAdrByColorIndex(4),GetPaletteAdrByColorIndex(23));
   \   000000EC   1700A0E3           MOV      R0,#+23
   \   000000F0   2E0100EF           SWI      +302
   \   000000F4   0090A0E1           MOV      R9,R0
   \   000000F8   0400A0E3           MOV      R0,#+4
   \   000000FC   2E0100EF           SWI      +302
   \   00000100   00A0A0E1           MOV      R10,R0
   \   00000104   0900A0E3           MOV      R0,#+9
   \   00000108   C50100EF           SWI      +453
   \   0000010C   00B0A0E1           MOV      R11,R0
   \   00000110   0910A0E3           MOV      R1,#+9
   \   00000114   0400A0E1           MOV      R0,R4
   \   00000118   080200EF           SWI      +520
   \   0000011C   781096E5           LDR      R1,[R6, #+120]
   \   00000120   7C2096E5           LDR      R2,[R6, #+124]
   \   00000124   00022DE9           PUSH     {R9}
   \   00000128   00042DE9           PUSH     {R10}
   \   0000012C   0030A0E3           MOV      R3,#+0
   \   00000130   08002DE9           PUSH     {R3}
   \   00000134   010080E0           ADD      R0,R0,R1
   \   00000138   051081E2           ADD      R1,R1,#+5
   \   0000013C   0930A0E3           MOV      R3,#+9
   \   00000140   08002DE9           PUSH     {R3}
   \   00000144   02308BE0           ADD      R3,R11,R2
   \   00000148   352082E2           ADD      R2,R2,#+53
   \   0000014C   353083E2           ADD      R3,R3,#+53
   \   00000150   08002DE9           PUSH     {R3}
   \   00000154   053080E2           ADD      R3,R0,#+5
   \   00000158   0400A0E1           MOV      R0,R4
   \   0000015C   4C0100EF           SWI      +332
    513              ggg=*traf;
   \   00000160   000097E5           LDR      R0,[R7, #+0]
    514              trafiks=(*traf-start_traffic)/1024;
   \   00000164   A41096E5           LDR      R1,[R6, #+164]
   \   00000168   9C0086E5           STR      R0,[R6, #+156]
   \   0000016C   000097E5           LDR      R0,[R7, #+0]
    515              wsprintf(ws, "%t: %dKb", LG_GSES, trafiks);
   \   00000170   B82085E2           ADD      R2,R5,#+184
   \   00000174   010040E0           SUB      R0,R0,R1
   \   00000178   C014A0E1           ASR      R1,R0,#+9
   \   0000017C   210B80E0           ADD      R0,R0,R1, LSR #+22
   \   00000180   4035A0E1           ASR      R3,R0,#+10
   \   00000184   A03086E5           STR      R3,[R6, #+160]
   \   00000188   901085E2           ADD      R1,R5,#+144
   \   0000018C   0400A0E1           MOV      R0,R4
   \   00000190   240100EF           SWI      +292
    516              DrawString(ws,pos_msg_x+5,pos_msg_y+71,pos_msg_x+Get_WS_width(ws,9)+5,pos_msg_y+GetFontYSIZE(9)+71,9,0,GetPaletteAdrByColorIndex(4),GetPaletteAdrByColorIndex(23));
   \   00000194   1700A0E3           MOV      R0,#+23
   \   00000198   2E0100EF           SWI      +302
   \   0000019C   0070A0E1           MOV      R7,R0
   \   000001A0   0400A0E3           MOV      R0,#+4
   \   000001A4   2E0100EF           SWI      +302
   \   000001A8   0090A0E1           MOV      R9,R0
   \   000001AC   0900A0E3           MOV      R0,#+9
   \   000001B0   C50100EF           SWI      +453
   \   000001B4   00A0A0E1           MOV      R10,R0
   \   000001B8   0910A0E3           MOV      R1,#+9
   \   000001BC   0400A0E1           MOV      R0,R4
   \   000001C0   080200EF           SWI      +520
   \   000001C4   781096E5           LDR      R1,[R6, #+120]
   \   000001C8   7C2096E5           LDR      R2,[R6, #+124]
   \   000001CC   80002DE9           PUSH     {R7}
   \   000001D0   00022DE9           PUSH     {R9}
   \   000001D4   0830A0E1           MOV      R3,R8
   \   000001D8   08002DE9           PUSH     {R3}
   \   000001DC   010080E0           ADD      R0,R0,R1
   \   000001E0   051081E2           ADD      R1,R1,#+5
   \   000001E4   0930A0E3           MOV      R3,#+9
   \   000001E8   08002DE9           PUSH     {R3}
   \   000001EC   02308AE0           ADD      R3,R10,R2
   \   000001F0   472082E2           ADD      R2,R2,#+71
   \   000001F4   473083E2           ADD      R3,R3,#+71
   \   000001F8   08002DE9           PUSH     {R3}
   \   000001FC   053080E2           ADD      R3,R0,#+5
   \   00000200   0400A0E1           MOV      R0,R4
   \   00000204   4C0100EF           SWI      +332
   \   00000208   28D08DE2           ADD      SP,SP,#+40
    517              if(!do_st) 
   \   0000020C   B40096E5           LDR      R0,[R6, #+180]
   \   00000210   000050E3           CMP      R0,#+0
   \   00000214   0600001A           BNE      ??DrawGPRSLog_1
    518              {
    519                switch_gprs_info=(!switch_gprs_info);
   \   00000218   B00096E5           LDR      R0,[R6, #+176]
   \   0000021C   000050E3           CMP      R0,#+0
   \   00000220   0100A003           MOVEQ    R0,#+1
   \   00000224   0000A013           MOVNE    R0,#+0
   \   00000228   B00086E5           STR      R0,[R6, #+176]
    520                do_st=3;
   \   0000022C   0300A0E3           MOV      R0,#+3
   \   00000230   000000EA           B        ??DrawGPRSLog_2
    521              }
    522              else
    523                do_st--;
   \                     ??DrawGPRSLog_1:
   \   00000234   010040E2           SUB      R0,R0,#+1
   \                     ??DrawGPRSLog_2:
   \   00000238   B40086E5           STR      R0,[R6, #+180]
    524              if(!switch_gprs_info)
   \   0000023C   B00096E5           LDR      R0,[R6, #+176]
   \   00000240   000050E3           CMP      R0,#+0
   \   00000244   0700001A           BNE      ??DrawGPRSLog_3
    525              {
    526                if(isfile)
   \   00000248   AC1096E5           LDR      R1,[R6, #+172]
   \   0000024C   5A0FA0E3           MOV      R0,#+360
   \   00000250   000051E3           CMP      R1,#+0
   \   00000254   063080E0           ADD      R3,R0,R6
   \   00000258   CC2085E2           ADD      R2,R5,#+204
   \   0000025C   D8108502           ADDEQ    R1,R5,#+216
    527                wsprintf(ws, "%t: %sKb", LG_GLAS, gpinfo);
   \   00000260   C0108512           ADDNE    R1,R5,#+192
   \   00000264   030000EA           B        ??DrawGPRSLog_4
    528                else
    529                  wsprintf(ws, "%t: %s", LG_GLAS, gpinfo);
    530              }
    531              else
    532                wsprintf(ws, "%t: %dKb", LG_GTOT, result3);
   \                     ??DrawGPRSLog_3:
   \   00000268   94019FE5           LDR      R0,??DrawGPRSLog_5+0x4  ;; result3
   \   0000026C   E02085E2           ADD      R2,R5,#+224
   \   00000270   003090E5           LDR      R3,[R0, #+0]
   \   00000274   901085E2           ADD      R1,R5,#+144
   \                     ??DrawGPRSLog_4:
   \   00000278   0400A0E1           MOV      R0,R4
   \   0000027C   240100EF           SWI      +292
    533                DrawString(ws,pos_msg_x+5,pos_msg_y+89,pos_msg_x+Get_WS_width(ws,9)+5,pos_msg_y+GetFontYSIZE(9)+89,9,0,GetPaletteAdrByColorIndex(4),GetPaletteAdrByColorIndex(23));    
   \   00000280   1700A0E3           MOV      R0,#+23
   \   00000284   2E0100EF           SWI      +302
   \   00000288   0070A0E1           MOV      R7,R0
   \   0000028C   0400A0E3           MOV      R0,#+4
   \   00000290   2E0100EF           SWI      +302
   \   00000294   0080A0E1           MOV      R8,R0
   \   00000298   0900A0E3           MOV      R0,#+9
   \   0000029C   C50100EF           SWI      +453
   \   000002A0   0090A0E1           MOV      R9,R0
   \   000002A4   0910A0E3           MOV      R1,#+9
   \   000002A8   0400A0E1           MOV      R0,R4
   \   000002AC   080200EF           SWI      +520
   \   000002B0   781096E5           LDR      R1,[R6, #+120]
   \   000002B4   7C2096E5           LDR      R2,[R6, #+124]
   \   000002B8   80002DE9           PUSH     {R7}
   \   000002BC   00012DE9           PUSH     {R8}
   \   000002C0   0030A0E3           MOV      R3,#+0
   \   000002C4   08002DE9           PUSH     {R3}
   \   000002C8   010080E0           ADD      R0,R0,R1
   \   000002CC   0930A0E3           MOV      R3,#+9
   \   000002D0   08002DE9           PUSH     {R3}
   \   000002D4   023089E0           ADD      R3,R9,R2
   \   000002D8   592082E2           ADD      R2,R2,#+89
   \   000002DC   593083E2           ADD      R3,R3,#+89
   \   000002E0   1B0000EA           B        ??DrawGPRSLog_6
    534            }
    535            else
    536            {
    537              wsprintf(ws, "%t ", LG_GPOF);
   \                     ??DrawGPRSLog_0:
   \   000002E4   E82085E2           ADD      R2,R5,#+232
   \   000002E8   441F8FE2           ADR      R1,??DrawGPRSLog_5  ;; "%t "
   \   000002EC   0400A0E1           MOV      R0,R4
   \   000002F0   240100EF           SWI      +292
    538              DrawString(ws,pos_msg_x+5,pos_msg_y+35,pos_msg_x+Get_WS_width(ws,9)+5,pos_msg_y+GetFontYSIZE(9)+35,9,0,GetPaletteAdrByColorIndex(4),GetPaletteAdrByColorIndex(23));
   \   000002F4   1700A0E3           MOV      R0,#+23
   \   000002F8   2E0100EF           SWI      +302
   \   000002FC   0070A0E1           MOV      R7,R0
   \   00000300   0400A0E3           MOV      R0,#+4
   \   00000304   2E0100EF           SWI      +302
   \   00000308   0080A0E1           MOV      R8,R0
   \   0000030C   0900A0E3           MOV      R0,#+9
   \   00000310   C50100EF           SWI      +453
   \   00000314   0090A0E1           MOV      R9,R0
   \   00000318   0910A0E3           MOV      R1,#+9
   \   0000031C   0400A0E1           MOV      R0,R4
   \   00000320   080200EF           SWI      +520
   \   00000324   781096E5           LDR      R1,[R6, #+120]
   \   00000328   7C2096E5           LDR      R2,[R6, #+124]
   \   0000032C   80002DE9           PUSH     {R7}
   \   00000330   00012DE9           PUSH     {R8}
   \   00000334   0030A0E3           MOV      R3,#+0
   \   00000338   08002DE9           PUSH     {R3}
   \   0000033C   010080E0           ADD      R0,R0,R1
   \   00000340   0930A0E3           MOV      R3,#+9
   \   00000344   08002DE9           PUSH     {R3}
   \   00000348   023089E0           ADD      R3,R9,R2
   \   0000034C   232082E2           ADD      R2,R2,#+35
   \   00000350   233083E2           ADD      R3,R3,#+35
   \                     ??DrawGPRSLog_6:
   \   00000354   08002DE9           PUSH     {R3}
   \   00000358   053080E2           ADD      R3,R0,#+5
   \   0000035C   051081E2           ADD      R1,R1,#+5
   \   00000360   0400A0E1           MOV      R0,R4
   \   00000364   4C0100EF           SWI      +332
   \   00000368   14D08DE2           ADD      SP,SP,#+20
    539            }
    540            wsprintf(ws, "[%t]", LG_GINF);
   \   0000036C   F82085E2           ADD      R2,R5,#+248
   \   00000370   0510A0E1           MOV      R1,R5
   \   00000374   0400A0E1           MOV      R0,R4
   \   00000378   240100EF           SWI      +292
    541            DrawString(ws,pos_msg_x+5,pos_msg_y+8,pos_msg_x+Get_WS_width(ws,9)+5,pos_msg_y+GetFontYSIZE(9)+8,9,0,GetPaletteAdrByColorIndex(2),GetPaletteAdrByColorIndex(23));
   \   0000037C   1700A0E3           MOV      R0,#+23
   \   00000380   2E0100EF           SWI      +302
   \   00000384   0070A0E1           MOV      R7,R0
   \   00000388   0200A0E3           MOV      R0,#+2
   \   0000038C   2E0100EF           SWI      +302
   \   00000390   0080A0E1           MOV      R8,R0
   \   00000394   0900A0E3           MOV      R0,#+9
   \   00000398   C50100EF           SWI      +453
   \   0000039C   0050A0E1           MOV      R5,R0
   \   000003A0   0910A0E3           MOV      R1,#+9
   \   000003A4   0400A0E1           MOV      R0,R4
   \   000003A8   080200EF           SWI      +520
   \   000003AC   781096E5           LDR      R1,[R6, #+120]
   \   000003B0   7C2096E5           LDR      R2,[R6, #+124]
   \   000003B4   80002DE9           PUSH     {R7}
   \   000003B8   00012DE9           PUSH     {R8}
   \   000003BC   0030A0E3           MOV      R3,#+0
   \   000003C0   08002DE9           PUSH     {R3}
   \   000003C4   010080E0           ADD      R0,R0,R1
   \   000003C8   051081E2           ADD      R1,R1,#+5
   \   000003CC   0930A0E3           MOV      R3,#+9
   \   000003D0   08002DE9           PUSH     {R3}
   \   000003D4   023085E0           ADD      R3,R5,R2
   \   000003D8   082082E2           ADD      R2,R2,#+8
   \   000003DC   083083E2           ADD      R3,R3,#+8
   \   000003E0   08002DE9           PUSH     {R3}
   \   000003E4   053080E2           ADD      R3,R0,#+5
   \   000003E8   0400A0E1           MOV      R0,R4
   \   000003EC   4C0100EF           SWI      +332
    542            FreeWS(ws);
   \   000003F0   0400A0E1           MOV      R0,R4
   \   000003F4   290100EF           SWI      +297
    543          }
   \   000003F8   14D08DE2           ADD      SP,SP,#+20
   \   000003FC   F08FBDE8           POP      {R4-R11,PC}      ;; return
   \                     ??DrawGPRSLog_5:
   \   00000400   25742000           DC8      "%t "
   \   00000404   ........           DC32     result3
    544          
    545          #ifdef EVILFOX
    546          #else
    547          extern const char link1_name[64];
    548          extern const char link2_name[64];
    549          extern const char link3_name[64];
    550          extern const char link1[64];
    551          extern const char link2[64];
    552          extern const char link3[64];
    553          #endif
    554          

   \                                 In segment CODE, align 4, keep-with-next
    555          void DrawAppLog()
    556          {
   \                     DrawAppLog:
   \   00000000   F0412DE9           PUSH     {R4-R8,LR}
    557            WSHDR *ws=AllocWS(64);
    558            switch(app_pos)
   \   00000004   ........           LDR      R5,??DataTable23  ;; screen
   \   00000008   4000A0E3           MOV      R0,#+64
   \   0000000C   250100EF           SWI      +293
   \   00000010   30119FE5           LDR      R1,??DrawAppLog_0  ;; `?<Constant "Naticq">`
   \   00000014   0040A0E1           MOV      R4,R0
   \   00000018   840095E5           LDR      R0,[R5, #+132]
   \   0000001C   010050E2           SUBS     R0,R0,#+1
   \   00000020   0400000A           BEQ      ??DrawAppLog_1
   \   00000024   010050E2           SUBS     R0,R0,#+1
   \   00000028   2000000A           BEQ      ??DrawAppLog_2
   \   0000002C   010050E2           SUBS     R0,R0,#+1
   \   00000030   2000000A           BEQ      ??DrawAppLog_3
   \   00000034   F081BDE8           POP      {R4-R8,PC}
    559            {
    560            case 1:
    561              {
    562          #ifdef EVILFOX
    563              wsprintf(ws, "Naticq");
   \                     ??DrawAppLog_1:
   \   00000038   0400A0E1           MOV      R0,R4
   \   0000003C   240100EF           SWI      +292
    564          #else
    565              wsprintf(ws, link1_name);
    566          #endif
    567              DrawString(ws,pos_link2_x-7,pos_link2_y-24,pos_link2_x+Get_WS_width(ws,9)-7,pos_link2_y+GetFontYSIZE(9)-24,9,0,GetPaletteAdrByColorIndex(2),GetPaletteAdrByColorIndex(23));
   \   00000040   1700A0E3           MOV      R0,#+23
   \   00000044   2E0100EF           SWI      +302
   \   00000048   0070A0E1           MOV      R7,R0
   \   0000004C   0200A0E3           MOV      R0,#+2
   \   00000050   2E0100EF           SWI      +302
   \   00000054   0080A0E1           MOV      R8,R0
   \   00000058   0900A0E3           MOV      R0,#+9
   \   0000005C   C50100EF           SWI      +453
   \   00000060   0060A0E1           MOV      R6,R0
   \   00000064   0910A0E3           MOV      R1,#+9
   \   00000068   0400A0E1           MOV      R0,R4
   \   0000006C   080200EF           SWI      +520
   \   00000070   881095E5           LDR      R1,[R5, #+136]
   \   00000074   8C2095E5           LDR      R2,[R5, #+140]
   \   00000078   80002DE9           PUSH     {R7}
   \   0000007C   00012DE9           PUSH     {R8}
   \   00000080   0030A0E3           MOV      R3,#+0
   \   00000084   08002DE9           PUSH     {R3}
   \   00000088   010080E0           ADD      R0,R0,R1
   \   0000008C   071041E2           SUB      R1,R1,#+7
   \   00000090   0930A0E3           MOV      R3,#+9
   \   00000094   08002DE9           PUSH     {R3}
   \   00000098   023086E0           ADD      R3,R6,R2
   \   0000009C   182042E2           SUB      R2,R2,#+24
   \   000000A0   183043E2           SUB      R3,R3,#+24
   \   000000A4   08002DE9           PUSH     {R3}
   \   000000A8   073040E2           SUB      R3,R0,#+7
   \   000000AC   1F0000EA           B        ??DrawAppLog_4
    568              FreeWS(ws);
    569              }
    570              break;
    571            case 2:
    572             // WSHDR *ws=AllocWS(64);
    573          #ifdef EVILFOX
    574              wsprintf(ws, "Ballet");
   \                     ??DrawAppLog_2:
   \   000000B0   081081E2           ADD      R1,R1,#+8
   \   000000B4   000000EA           B        ??DrawAppLog_5
    575          #else
    576              wsprintf(ws, link2_name);
    577          #endif
    578              DrawString(ws,pos_link2_x-17,pos_link2_y-20,pos_link2_x+Get_WS_width(ws,9)-17,pos_link2_y+GetFontYSIZE(9)-20,9,0,GetPaletteAdrByColorIndex(2),GetPaletteAdrByColorIndex(23));
    579              FreeWS(ws);
    580              break;
    581            case 3:
    582            //  WSHDR *ws=AllocWS(64);
    583          #ifdef EVILFOX
    584              wsprintf(ws, "SieJC");
   \                     ??DrawAppLog_3:
   \   000000B8   101081E2           ADD      R1,R1,#+16
   \                     ??DrawAppLog_5:
   \   000000BC   0400A0E1           MOV      R0,R4
   \   000000C0   240100EF           SWI      +292
    585          #else
    586              wsprintf(ws, link3_name);
    587          #endif
    588              DrawString(ws,pos_link2_x-17,pos_link2_y-20,pos_link2_x+Get_WS_width(ws,9)-17,pos_link2_y+GetFontYSIZE(9)-20,9,0,GetPaletteAdrByColorIndex(2),GetPaletteAdrByColorIndex(23));
   \   000000C4   1700A0E3           MOV      R0,#+23
   \   000000C8   2E0100EF           SWI      +302
   \   000000CC   0070A0E1           MOV      R7,R0
   \   000000D0   0200A0E3           MOV      R0,#+2
   \   000000D4   2E0100EF           SWI      +302
   \   000000D8   0080A0E1           MOV      R8,R0
   \   000000DC   0900A0E3           MOV      R0,#+9
   \   000000E0   C50100EF           SWI      +453
   \   000000E4   0060A0E1           MOV      R6,R0
   \   000000E8   0910A0E3           MOV      R1,#+9
   \   000000EC   0400A0E1           MOV      R0,R4
   \   000000F0   080200EF           SWI      +520
   \   000000F4   881095E5           LDR      R1,[R5, #+136]
   \   000000F8   8C2095E5           LDR      R2,[R5, #+140]
   \   000000FC   80002DE9           PUSH     {R7}
   \   00000100   00012DE9           PUSH     {R8}
   \   00000104   0030A0E3           MOV      R3,#+0
   \   00000108   08002DE9           PUSH     {R3}
   \   0000010C   010080E0           ADD      R0,R0,R1
   \   00000110   111041E2           SUB      R1,R1,#+17
   \   00000114   0930A0E3           MOV      R3,#+9
   \   00000118   08002DE9           PUSH     {R3}
   \   0000011C   023086E0           ADD      R3,R6,R2
   \   00000120   142042E2           SUB      R2,R2,#+20
   \   00000124   143043E2           SUB      R3,R3,#+20
   \   00000128   08002DE9           PUSH     {R3}
   \   0000012C   113040E2           SUB      R3,R0,#+17
   \                     ??DrawAppLog_4:
   \   00000130   0400A0E1           MOV      R0,R4
   \   00000134   4C0100EF           SWI      +332
    589              FreeWS(ws);
   \   00000138   0400A0E1           MOV      R0,R4
   \   0000013C   290100EF           SWI      +297
   \   00000140   14D08DE2           ADD      SP,SP,#+20
    590              break;
    591            }
    592          }
   \   00000144   F081BDE8           POP      {R4-R8,PC}       ;; return
   \                     ??DrawAppLog_0:
   \   00000148   ........           DC32     `?<Constant "Naticq">`
    593          
    594          
    595          

   \                                 In segment CODE, align 4, keep-with-next
    596          void OnRedraw(MAIN_GUI *data) // OnRedraw
    597          {
   \                     OnRedraw:
   \   00000000   F04F2DE9           PUSH     {R4-R11,LR}
   \   00000004   08D04DE2           SUB      SP,SP,#+8
    598            DrwImg2(&screen, 0, 0, NULL, NULL);
   \   00000008   ........           LDR      R4,??DataTable12  ;; screen
    599            void *canvasdata = BuildCanvas();
    600            switch(phase)
   \   0000000C   38939FE5           LDR      R9,??OnRedraw_2  ;; `?<Constant "4:\\\\zbin\\\\miosd\\\\img1.png">`
   \   00000010   0000A0E3           MOV      R0,#+0
   \   00000014   01002DE9           PUSH     {R0}
   \   00000018   0030A0E3           MOV      R3,#+0
   \   0000001C   0020A0E1           MOV      R2,R0
   \   00000020   0010A0E1           MOV      R1,R0
   \   00000024   0400A0E1           MOV      R0,R4
   \   00000028   ........           BL       DrwImg2
   \   0000002C   F18000EF           SWI      +33009
   \   00000030   600094E5           LDR      R0,[R4, #+96]
   \   00000034   D85089E2           ADD      R5,R9,#+216
   \   00000038   C06089E2           ADD      R6,R9,#+192
   \   0000003C   A87089E2           ADD      R7,R9,#+168
   \   00000040   908089E2           ADD      R8,R9,#+144
   \   00000044   60A089E2           ADD      R10,R9,#+96
   \   00000048   30B089E2           ADD      R11,R9,#+48
   \   0000004C   182089E2           ADD      R2,R9,#+24
   \   00000050   04D08DE2           ADD      SP,SP,#+4
   \   00000054   010040E2           SUB      R0,R0,#+1
   \   00000058   070050E3           CMP      R0,#+7
   \   0000005C   F38FBD88           POPHI    {R0,R1,R4-R11,PC}
   \   00000060   011F8FE2           ADR      R1,??OnRedraw_0
   \   00000064   0010D1E7           LDRB     R1,[R1, R0]
   \   00000068   01F18FE0           ADD      PC,PC,R1, LSL #+2
   \                     ??OnRedraw_0:
   \   0000006C   04010901           DC8      +4,+1,+9,+1
   \   00000070   01046A6A           DC8      +1,+4,+106,+106
    601            {
    602            case 1:
    603          #ifdef NATICQ
    604          #ifdef EVILFOX
    605              DrawImg(pos_main_x, pos_main_y-20, (int)"4:\\zbin\\miosd\\img8.png");
    606          #else
    607              if(use_plugin)
    608              DrawImg(pos_main_x, pos_main_y-20, (int)"4:\\zbin\\miosd\\img8.png");
    609          #endif
    610              DrawImg(pos_main_x, pos_main_y, (int)"4:\\zbin\\miosd\\img1.png");
    611          #else
    612              DrawImg(pos_main_x, pos_main_y, (int)"4:\\zbin\\miosd\\img1.png");
    613          #endif
    614              break;
    615            case 2:
    616              DrawImg(pos_link_x, pos_link_y, (int)"4:\\zbin\\miosd\\img2.png");
   \                     ??OnRedraw_3:
   \   00000074   741094E5           LDR      R1,[R4, #+116]
   \   00000078   700094E5           LDR      R0,[R4, #+112]
   \   0000007C   230000EF           SWI      +35
    617          #ifdef NATICQ
    618          #ifdef EVILFOX
    619              DrawImg(pos_main_x, pos_main_y-20, (int)"4:\\zbin\\miosd\\img8.png");
    620          #else
    621              if(use_plugin)
    622              DrawImg(pos_main_x, pos_main_y-20, (int)"4:\\zbin\\miosd\\img8.png");
    623          #endif
    624              DrawImg(pos_main_x, pos_main_y, (int)"4:\\zbin\\miosd\\img1.png");
    625          #else
    626              DrawImg(pos_main_x, pos_main_y, (int)"4:\\zbin\\miosd\\img1.png");
   \                     ??OnRedraw_4:
   \   00000080   681094E5           LDR      R1,[R4, #+104]
   \   00000084   640094E5           LDR      R0,[R4, #+100]
   \   00000088   0920A0E1           MOV      R2,R9
   \   0000008C   230000EF           SWI      +35
   \   00000090   F38FBDE8           POP      {R0,R1,R4-R11,PC}
    627          #endif   
    628              break;
    629            case 3:
    630              if(pos==5)
   \                     ??OnRedraw_5:
   \   00000094   5C3094E5           LDR      R3,[R4, #+92]
   \   00000098   700094E5           LDR      R0,[R4, #+112]
   \   0000009C   741094E5           LDR      R1,[R4, #+116]
   \   000000A0   050053E3           CMP      R3,#+5
   \   000000A4   1600001A           BNE      ??OnRedraw_6
    631              {
    632                DrawImg(pos_link_x, pos_link_y, (int)"4:\\zbin\\miosd\\img2.png");
   \   000000A8   230000EF           SWI      +35
    633          #ifdef NATICQ
    634          #ifdef EVILFOX
    635              DrawImg(pos_main_x, pos_main_y-20, (int)"4:\\zbin\\miosd\\img8.png");
    636          #else
    637              if(use_plugin)
    638              DrawImg(pos_main_x, pos_main_y-20, (int)"4:\\zbin\\miosd\\img8.png");
    639          #endif
    640              DrawImg(pos_main_x, pos_main_y, (int)"4:\\zbin\\miosd\\img1.png");
    641          #else
    642              DrawImg(pos_main_x, pos_main_y, (int)"4:\\zbin\\miosd\\img1.png");
   \   000000AC   681094E5           LDR      R1,[R4, #+104]
   \   000000B0   640094E5           LDR      R0,[R4, #+100]
   \   000000B4   0920A0E1           MOV      R2,R9
   \   000000B8   230000EF           SWI      +35
    643          #endif
    644                DrawImg(pos_link2_x, pos_link2_y, (int)"4:\\zbin\\miosd\\img6.png");
   \   000000BC   8C1094E5           LDR      R1,[R4, #+140]
   \   000000C0   880094E5           LDR      R0,[R4, #+136]
   \   000000C4   0B20A0E1           MOV      R2,R11
   \   000000C8   230000EF           SWI      +35
    645                if(app_pos==1)
   \   000000CC   840094E5           LDR      R0,[R4, #+132]
   \   000000D0   482089E2           ADD      R2,R9,#+72
   \   000000D4   010050E3           CMP      R0,#+1
   \   000000D8   8C0094E5           LDR      R0,[R4, #+140]
   \   000000DC   181040E2           SUB      R1,R0,#+24
   \   000000E0   880094E5           LDR      R0,[R4, #+136]
    646                  DrawImg(pos_link2_x-10, pos_link2_y-24, (int)"4:\\zbin\\miosd\\img7.png");
   \   000000E4   0A004002           SUBEQ    R0,R0,#+10
    647                else
    648                  DrawImg(pos_link2_x-20, pos_link2_y-24, (int)"4:\\zbin\\miosd\\img7.png");
   \   000000E8   14004012           SUBNE    R0,R0,#+20
   \   000000EC   230000EF           SWI      +35
    649                DrawAppLog();
   \   000000F0   ........           BL       DrawAppLog
    650                DrawImg(pos_msg_x, pos_msg_y+24, (int)"4:\\zbin\\miosd\\img4.png"); 
   \   000000F4   7C0094E5           LDR      R0,[R4, #+124]
   \   000000F8   0A20A0E1           MOV      R2,R10
   \   000000FC   181080E2           ADD      R1,R0,#+24
   \   00000100   060000EA           B        ??OnRedraw_7
    651              }
    652              else
    653              {
    654                DrawImg(pos_link_x, pos_link_y, (int)"4:\\zbin\\miosd\\img2.png");
   \                     ??OnRedraw_6:
   \   00000104   230000EF           SWI      +35
    655          #ifdef NATICQ
    656          #ifdef EVILFOX
    657              DrawImg(pos_main_x, pos_main_y-20, (int)"4:\\zbin\\miosd\\img8.png");
    658          #else
    659              if(use_plugin)
    660              DrawImg(pos_main_x, pos_main_y-20, (int)"4:\\zbin\\miosd\\img8.png");
    661          #endif
    662                DrawImg(pos_main_x, pos_main_y, (int)"4:\\zbin\\miosd\\img1.png");
    663          #else
    664                DrawImg(pos_main_x, pos_main_y, (int)"4:\\zbin\\miosd\\img1.png");
   \   00000108   681094E5           LDR      R1,[R4, #+104]
   \   0000010C   640094E5           LDR      R0,[R4, #+100]
   \   00000110   0920A0E1           MOV      R2,R9
   \   00000114   230000EF           SWI      +35
    665          #endif 
    666                DrawImg(pos_msg_x, pos_msg_y, (int)"4:\\zbin\\miosd\\img3.png");
   \   00000118   7C1094E5           LDR      R1,[R4, #+124]
   \   0000011C   782089E2           ADD      R2,R9,#+120
   \                     ??OnRedraw_7:
   \   00000120   780094E5           LDR      R0,[R4, #+120]
    667              }
    668              switch(pos)
   \   00000124   24A29FE5           LDR      R10,??OnRedraw_2+0x4  ;; reboot_ref
   \   00000128   230000EF           SWI      +35
   \   0000012C   5C0094E5           LDR      R0,[R4, #+92]
   \   00000130   889FA0E3           MOV      R9,#+544
   \   00000134   010040E2           SUB      R0,R0,#+1
   \   00000138   040050E3           CMP      R0,#+4
   \   0000013C   F38FBD88           POPHI    {R0,R1,R4-R11,PC}
   \   00000140   011F8FE2           ADR      R1,??OnRedraw_1
   \   00000144   0010D1E7           LDRB     R1,[R1, R0]
   \   00000148   01F18FE0           ADD      PC,PC,R1, LSL #+2
   \                     ??OnRedraw_1:
   \   0000014C   01030507           DC8      +1,+3,+5,+7
   \   00000150   09000000           DC8      +9,+0,+0,+0
    669              {
    670          #ifdef NATICQ
    671              case 0:
    672                DrawNaticqLog();
    673                GBS_StartTimerProc(&mytmr2, 216, reboot_ref);
    674                break;
    675          #endif
    676              case 1:
    677                DrawWeatherLog();
   \                     ??OnRedraw_8:
   \   00000154   ........           BL       DrawWeatherLog
    678                GBS_StartTimerProc(&mytmr2, 216, reboot_ref);
   \   00000158   260000EA           B        ??OnRedraw_9
    679                break;
    680              case 2:
    681                DrawBatteryLog();
   \                     ??OnRedraw_10:
   \   0000015C   ........           BL       DrawBatteryLog
    682                GBS_StartTimerProc(&mytmr2, 216, reboot_ref);
   \   00000160   240000EA           B        ??OnRedraw_9
    683                break;
    684              case 3:
    685                DrawGPRSLog();
   \                     ??OnRedraw_11:
   \   00000164   ........           BL       DrawGPRSLog
    686                GBS_StartTimerProc(&mytmr2, 216, reboot_ref);
   \   00000168   220000EA           B        ??OnRedraw_9
    687                break;
    688              case 4:
    689                DrawSystemLog();
   \                     ??OnRedraw_12:
   \   0000016C   ........           BL       DrawSystemLog
    690                GBS_StartTimerProc(&mytmr2, 216, reboot_ref);
   \   00000170   200000EA           B        ??OnRedraw_9
   \                     ??OnRedraw_13:
   \   00000174   7C0094E5           LDR      R0,[R4, #+124]
   \   00000178   842094E5           LDR      R2,[R4, #+132]
   \   0000017C   181080E2           ADD      R1,R0,#+24
   \   00000180   780094E5           LDR      R0,[R4, #+120]
   \   00000184   012052E2           SUBS     R2,R2,#+1
   \   00000188   0400000A           BEQ      ??OnRedraw_14
   \   0000018C   012052E2           SUBS     R2,R2,#+1
   \   00000190   0400000A           BEQ      ??OnRedraw_15
   \   00000194   012052E2           SUBS     R2,R2,#+1
   \   00000198   1B00000A           BEQ      ??OnRedraw_16
   \   0000019C   F38FBDE8           POP      {R0,R1,R4-R11,PC}
    691                break;
    692              case 5: 
    693                switch(app_pos)
    694                {
    695                case 1:
    696                  DrawImg(pos_msg_x, pos_msg_y+24, (int)"4:\\zbin\\miosd\\img5.png"); 
   \                     ??OnRedraw_14:
   \   000001A0   0820A0E1           MOV      R2,R8
   \   000001A4   010000EA           B        ??OnRedraw_17
    697                  DrawImg(pos_msg_x, pos_msg_y+24, (int)"4:\\zbin\\miosd\\app1.png"); 
    698                  DrawImg(pos_msg_x+20, pos_msg_y+24, (int)"4:\\zbin\\miosd\\app2.png"); 
    699                  DrawImg(pos_msg_x+40, pos_msg_y+24, (int)"4:\\zbin\\miosd\\app3.png");
    700                  GBS_StartTimerProc(&mytmr2, 216, reboot_ref);
    701                  break;
    702                case 2:
    703                  DrawImg(pos_msg_x+20, pos_msg_y+24, (int)"4:\\zbin\\miosd\\img5.png"); 
   \                     ??OnRedraw_15:
   \   000001A8   0820A0E1           MOV      R2,R8
   \   000001AC   140080E2           ADD      R0,R0,#+20
   \                     ??OnRedraw_17:
   \   000001B0   230000EF           SWI      +35
    704                  DrawImg(pos_msg_x, pos_msg_y+24, (int)"4:\\zbin\\miosd\\app1.png"); 
   \   000001B4   7C0094E5           LDR      R0,[R4, #+124]
   \   000001B8   0720A0E1           MOV      R2,R7
   \   000001BC   181080E2           ADD      R1,R0,#+24
   \   000001C0   780094E5           LDR      R0,[R4, #+120]
   \   000001C4   230000EF           SWI      +35
    705                  DrawImg(pos_msg_x+20, pos_msg_y+24, (int)"4:\\zbin\\miosd\\app2.png"); 
   \   000001C8   7C0094E5           LDR      R0,[R4, #+124]
   \   000001CC   0620A0E1           MOV      R2,R6
   \   000001D0   181080E2           ADD      R1,R0,#+24
   \   000001D4   780094E5           LDR      R0,[R4, #+120]
   \   000001D8   140080E2           ADD      R0,R0,#+20
   \   000001DC   230000EF           SWI      +35
    706                  DrawImg(pos_msg_x+40, pos_msg_y+24, (int)"4:\\zbin\\miosd\\app3.png"); 
   \   000001E0   7C0094E5           LDR      R0,[R4, #+124]
   \   000001E4   0520A0E1           MOV      R2,R5
   \   000001E8   181080E2           ADD      R1,R0,#+24
   \   000001EC   780094E5           LDR      R0,[R4, #+120]
   \   000001F0   280080E2           ADD      R0,R0,#+40
   \   000001F4   230000EF           SWI      +35
    707                  GBS_StartTimerProc(&mytmr2, 216, reboot_ref);
   \                     ??OnRedraw_9:
   \   000001F8   0A20A0E1           MOV      R2,R10
   \   000001FC   D810A0E3           MOV      R1,#+216
   \   00000200   040089E0           ADD      R0,R9,R4
   \   00000204   4D0000EF           SWI      +77
   \   00000208   F38FBDE8           POP      {R0,R1,R4-R11,PC}
    708                  break;
    709                case 3:
    710                  DrawImg(pos_msg_x+40, pos_msg_y+24, (int)"4:\\zbin\\miosd\\img5.png");
   \                     ??OnRedraw_16:
   \   0000020C   0820A0E1           MOV      R2,R8
   \   00000210   280080E2           ADD      R0,R0,#+40
   \   00000214   E5FFFFEA           B        ??OnRedraw_17
    711                  DrawImg(pos_msg_x, pos_msg_y+24, (int)"4:\\zbin\\miosd\\app1.png"); 
    712                  DrawImg(pos_msg_x+20, pos_msg_y+24, (int)"4:\\zbin\\miosd\\app2.png"); 
    713                  DrawImg(pos_msg_x+40, pos_msg_y+24, (int)"4:\\zbin\\miosd\\app3.png");
    714                  GBS_StartTimerProc(&mytmr2, 216, reboot_ref);
    715                  break;
    716                }
    717                break;
    718              }
    719              break;
    720            case 4:
    721              DrawImg(pos_link_x, pos_link_y, (int)"4:\\zbin\\miosd\\img2.png");
    722          #ifdef NATICQ
    723          #ifdef EVILFOX
    724              DrawImg(pos_main_x, pos_main_y-20, (int)"4:\\zbin\\miosd\\img8.png");
    725          #else
    726              if(use_plugin)
    727              DrawImg(pos_main_x, pos_main_y-20, (int)"4:\\zbin\\miosd\\img8.png");
    728          #endif
    729              DrawImg(pos_main_x, pos_main_y, (int)"4:\\zbin\\miosd\\img1.png");
    730          #else
    731              DrawImg(pos_main_x, pos_main_y, (int)"4:\\zbin\\miosd\\img1.png");
    732          #endif   
    733              break;
    734            case 5:
    735              DrawImg(pos_link_x, pos_link_y, (int)"4:\\zbin\\miosd\\img2.png");
    736          #ifdef NATICQ
    737          #ifdef EVILFOX
    738              DrawImg(pos_main_x, pos_main_y-20, (int)"4:\\zbin\\miosd\\img8.png");
    739          #else
    740              if(use_plugin)
    741              DrawImg(pos_main_x, pos_main_y-20, (int)"4:\\zbin\\miosd\\img8.png");
    742          #endif
    743              DrawImg(pos_main_x, pos_main_y, (int)"4:\\zbin\\miosd\\img1.png");
    744          #else
    745              DrawImg(pos_main_x, pos_main_y, (int)"4:\\zbin\\miosd\\img1.png");
    746          #endif  
    747              break;
    748            case 6:
    749          #ifdef NATICQ
    750          #ifdef EVILFOX
    751              DrawImg(pos_main_x, pos_main_y-20, (int)"4:\\zbin\\miosd\\img8.png");
    752          #else
    753              if(use_plugin)
    754              DrawImg(pos_main_x, pos_main_y-20, (int)"4:\\zbin\\miosd\\img8.png");
    755          #endif
    756              DrawImg(pos_main_x, pos_main_y, (int)"4:\\zbin\\miosd\\img1.png");
    757          #else
    758              DrawImg(pos_main_x, pos_main_y, (int)"4:\\zbin\\miosd\\img1.png");
    759          #endif
    760              break;
    761            case 7:
    762            case 8:
    763              DrawImg(pos_link_x, pos_link_y, (int)"4:\\zbin\\miosd\\img2.png");
   \                     ??OnRedraw_18:
   \   00000218   741094E5           LDR      R1,[R4, #+116]
   \   0000021C   700094E5           LDR      R0,[R4, #+112]
   \   00000220   230000EF           SWI      +35
    764          #ifdef NATICQ
    765          #ifdef EVILFOX
    766              DrawImg(pos_main_x, pos_main_y-20, (int)"4:\\zbin\\miosd\\img8.png");
    767          #else
    768              if(use_plugin)
    769              DrawImg(pos_main_x, pos_main_y-20, (int)"4:\\zbin\\miosd\\img8.png");
    770          #endif
    771              DrawImg(pos_main_x, pos_main_y, (int)"4:\\zbin\\miosd\\img1.png");
    772          #else
    773              DrawImg(pos_main_x, pos_main_y, (int)"4:\\zbin\\miosd\\img1.png");
   \   00000224   681094E5           LDR      R1,[R4, #+104]
   \   00000228   640094E5           LDR      R0,[R4, #+100]
   \   0000022C   0920A0E1           MOV      R2,R9
   \   00000230   230000EF           SWI      +35
    774          #endif 
    775              DrawImg(pos_link2_x, pos_link2_y, (int)"4:\\zbin\\miosd\\img6.png"); 
   \   00000234   8C1094E5           LDR      R1,[R4, #+140]
   \   00000238   880094E5           LDR      R0,[R4, #+136]
   \   0000023C   0B20A0E1           MOV      R2,R11
   \   00000240   230000EF           SWI      +35
    776              DrawImg(pos_msg_x, pos_msg_y+24, (int)"4:\\zbin\\miosd\\img4.png"); 
   \   00000244   7C0094E5           LDR      R0,[R4, #+124]
   \   00000248   0A20A0E1           MOV      R2,R10
   \   0000024C   181080E2           ADD      R1,R0,#+24
   \   00000250   780094E5           LDR      R0,[R4, #+120]
   \   00000254   230000EF           SWI      +35
    777              switch(app_pos)
   \   00000258   840094E5           LDR      R0,[R4, #+132]
   \   0000025C   010050E2           SUBS     R0,R0,#+1
   \   00000260   0400000A           BEQ      ??OnRedraw_19
   \   00000264   010050E2           SUBS     R0,R0,#+1
   \   00000268   0700000A           BEQ      ??OnRedraw_20
   \   0000026C   010050E2           SUBS     R0,R0,#+1
   \   00000270   1D00000A           BEQ      ??OnRedraw_21
   \   00000274   F38FBDE8           POP      {R0,R1,R4-R11,PC}
    778                {
    779                case 1:
    780                  DrawImg(pos_msg_x, pos_msg_y+24, (int)"4:\\zbin\\miosd\\img5.png"); 
   \                     ??OnRedraw_19:
   \   00000278   7C0094E5           LDR      R0,[R4, #+124]
   \   0000027C   0820A0E1           MOV      R2,R8
   \   00000280   181080E2           ADD      R1,R0,#+24
   \   00000284   780094E5           LDR      R0,[R4, #+120]
   \   00000288   040000EA           B        ??OnRedraw_22
    781                  DrawImg(pos_msg_x, pos_msg_y+24, (int)"4:\\zbin\\miosd\\app1.png"); 
    782                  DrawImg(pos_msg_x+20, pos_msg_y+24, (int)"4:\\zbin\\miosd\\app2.png"); 
    783                  DrawImg(pos_msg_x+40, pos_msg_y+24, (int)"4:\\zbin\\miosd\\app3.png"); 
    784                  break;
    785                case 2:
    786                  DrawImg(pos_msg_x+20, pos_msg_y+24, (int)"4:\\zbin\\miosd\\img5.png"); 
   \                     ??OnRedraw_20:
   \   0000028C   7C0094E5           LDR      R0,[R4, #+124]
   \   00000290   0820A0E1           MOV      R2,R8
   \   00000294   181080E2           ADD      R1,R0,#+24
   \   00000298   780094E5           LDR      R0,[R4, #+120]
   \   0000029C   140080E2           ADD      R0,R0,#+20
   \                     ??OnRedraw_22:
   \   000002A0   230000EF           SWI      +35
    787                  DrawImg(pos_msg_x, pos_msg_y+24, (int)"4:\\zbin\\miosd\\app1.png"); 
   \   000002A4   7C0094E5           LDR      R0,[R4, #+124]
   \   000002A8   0720A0E1           MOV      R2,R7
   \   000002AC   181080E2           ADD      R1,R0,#+24
   \   000002B0   780094E5           LDR      R0,[R4, #+120]
   \   000002B4   230000EF           SWI      +35
    788                  DrawImg(pos_msg_x+20, pos_msg_y+24, (int)"4:\\zbin\\miosd\\app2.png"); 
   \   000002B8   7C0094E5           LDR      R0,[R4, #+124]
   \   000002BC   0620A0E1           MOV      R2,R6
   \   000002C0   181080E2           ADD      R1,R0,#+24
   \   000002C4   780094E5           LDR      R0,[R4, #+120]
   \   000002C8   140080E2           ADD      R0,R0,#+20
   \   000002CC   230000EF           SWI      +35
    789                  DrawImg(pos_msg_x+40, pos_msg_y+24, (int)"4:\\zbin\\miosd\\app3.png"); 
   \   000002D0   7C0094E5           LDR      R0,[R4, #+124]
   \   000002D4   0520A0E1           MOV      R2,R5
   \   000002D8   181080E2           ADD      R1,R0,#+24
   \   000002DC   780094E5           LDR      R0,[R4, #+120]
   \   000002E0   280080E2           ADD      R0,R0,#+40
   \   000002E4   230000EF           SWI      +35
   \   000002E8   F38FBDE8           POP      {R0,R1,R4-R11,PC}
    790                  break;
    791                case 3:
    792                  DrawImg(pos_msg_x+40, pos_msg_y+24, (int)"4:\\zbin\\miosd\\img5.png");
   \                     ??OnRedraw_21:
   \   000002EC   7C0094E5           LDR      R0,[R4, #+124]
   \   000002F0   0820A0E1           MOV      R2,R8
   \   000002F4   181080E2           ADD      R1,R0,#+24
   \   000002F8   780094E5           LDR      R0,[R4, #+120]
   \   000002FC   280080E2           ADD      R0,R0,#+40
   \   00000300   230000EF           SWI      +35
    793                  DrawImg(pos_msg_x, pos_msg_y+24, (int)"4:\\zbin\\miosd\\app1.png"); 
   \   00000304   7C0094E5           LDR      R0,[R4, #+124]
   \   00000308   0720A0E1           MOV      R2,R7
   \   0000030C   181080E2           ADD      R1,R0,#+24
   \   00000310   780094E5           LDR      R0,[R4, #+120]
   \   00000314   230000EF           SWI      +35
    794                  DrawImg(pos_msg_x+20, pos_msg_y+24, (int)"4:\\zbin\\miosd\\app2.png"); 
   \   00000318   7C0094E5           LDR      R0,[R4, #+124]
   \   0000031C   0620A0E1           MOV      R2,R6
   \   00000320   181080E2           ADD      R1,R0,#+24
   \   00000324   780094E5           LDR      R0,[R4, #+120]
   \   00000328   140080E2           ADD      R0,R0,#+20
   \   0000032C   230000EF           SWI      +35
    795                  DrawImg(pos_msg_x+40, pos_msg_y+24, (int)"4:\\zbin\\miosd\\app3.png");
   \   00000330   7C0094E5           LDR      R0,[R4, #+124]
   \   00000334   0520A0E1           MOV      R2,R5
   \   00000338   181080E2           ADD      R1,R0,#+24
   \   0000033C   780094E5           LDR      R0,[R4, #+120]
   \   00000340   280080E2           ADD      R0,R0,#+40
   \   00000344   230000EF           SWI      +35
    796                  break;
    797                }
    798              break;
    799            }
    800          }
   \                     ??OnRedraw_23:
   \   00000348   F38FBDE8           POP      {R0,R1,R4-R11,PC}  ;; return
   \                     ??OnRedraw_2:
   \   0000034C   ........           DC32     `?<Constant "4:\\\\zbin\\\\miosd\\\\img1.png">`
   \   00000350   ........           DC32     reboot_ref
    801          

   \                                 In segment CODE, align 4, keep-with-next
    802          void onCreate(MAIN_GUI *data, void *(*malloc_adr)(int)) //Create
    803          {
    804            //    
    805            data->gui.state=1;
   \                     onCreate:
   \   00000000   0110A0E3           MOV      R1,#+1
   \   00000004   0C10C0E5           STRB     R1,[R0, #+12]
    806          //  pos=1;
    807          }
   \   00000008   1EFF2FE1           BX       LR               ;; return
    808          

   \                                 In segment CODE, align 4, keep-with-next
    809          void onClose(MAIN_GUI *data, void (*mfree_adr)(void *)) //Close
    810          {
   \                     onClose:
   \   00000000   30402DE9           PUSH     {R4,R5,LR}
   \   00000004   0040A0E1           MOV      R4,R0
    811            ker_state=0;
   \   00000008   ........           LDR      R0,??DataTable12  ;; screen
   \   0000000C   0050A0E3           MOV      R5,#+0
   \   00000010   385080E5           STR      R5,[R0, #+56]
    812            mfree(screen.bitmap);
   \   00000014   080090E5           LDR      R0,[R0, #+8]
   \   00000018   150000EF           SWI      +21
    813            //     
    814            data->gui.state=0;
   \   0000001C   0C50C4E5           STRB     R5,[R4, #+12]
    815          }
   \   00000020   3080BDE8           POP      {R4,R5,PC}       ;; return
    816          

   \                                 In segment CODE, align 4, keep-with-next
    817          void onFocus(MAIN_GUI *data, void *(*malloc_adr)(int), void (*mfree_adr)(void *))//Focus
    818          {
    819            data->gui.state=2;
   \                     onFocus:
   \   00000000   0210A0E3           MOV      R1,#+2
   \   00000004   0C10C0E5           STRB     R1,[R0, #+12]
    820          }
   \   00000008   1EFF2FE1           BX       LR               ;; return
    821          

   \                                 In segment CODE, align 4, keep-with-next
    822          void onUnfocus(MAIN_GUI *data, void (*mfree_adr)(void *)) //Unfocus
    823          {
   \                     onUnfocus:
   \   00000000   10402DE9           PUSH     {R4,LR}
   \   00000004   0040A0E1           MOV      R4,R0
    824            CloseCSM(MAINCSM_ID);
   \   00000008   18009FE5           LDR      R0,??onUnfocus_0  ;; screen + 80
   \   0000000C   000090E5           LDR      R0,[R0, #+0]
   \   00000010   FC0100EF           SWI      +508
    825            if (data->gui.state!=2) return;
   \   00000014   0C00D4E5           LDRB     R0,[R4, #+12]
   \   00000018   020050E3           CMP      R0,#+2
    826            data->gui.state=1;
   \   0000001C   0100A003           MOVEQ    R0,#+1
   \   00000020   0C00C405           STRBEQ   R0,[R4, #+12]
    827          }
   \   00000024   1080BDE8           POP      {R4,PC}          ;; return
   \                     ??onUnfocus_0:
   \   00000028   ........           DC32     screen + 80
    828          
    829          void create_connect(void);
    830          

   \                                 In segment CODE, align 4, keep-with-next
    831          int OnKey(MAIN_GUI *data, GUI_MSG *msg) //OnKey
    832          {
   \                     OnKey:
   \   00000000   F0402DE9           PUSH     {R4-R7,LR}
    833            if(lock_keys)
   \   00000004   ........           LDR      R4,??DataTable23  ;; screen
   \   00000008   0150A0E1           MOV      R5,R1
   \   0000000C   6C0094E5           LDR      R0,[R4, #+108]
   \   00000010   000050E3           CMP      R0,#+0
   \   00000014   F080BD08           POPEQ    {R4-R7,PC}
    834            {
    835              DirectRedrawGUI();
   \   00000018   3F0100EF           SWI      +319
    836            if (msg->gbsmsg->msg==KEY_DOWN)
   \   0000001C   040095E5           LDR      R0,[R5, #+4]
   \   00000020   9320A0E3           MOV      R2,#+147
   \   00000024   041090E5           LDR      R1,[R0, #+4]
   \   00000028   402F82E3           ORR      R2,R2,#0x100
   \   0000002C   020051E1           CMP      R1,R2
   \   00000030   2500001A           BNE      ??OnKey_1
    837            {          
    838              switch(msg->gbsmsg->submess)
   \   00000034   080090E5           LDR      R0,[R0, #+8]
   \   00000038   841094E5           LDR      R1,[R4, #+132]
   \   0000003C   5C2094E5           LDR      R2,[R4, #+92]
   \   00000040   0550A0E3           MOV      R5,#+5
   \   00000044   883FA0E3           MOV      R3,#+544
   \   00000048   0160A0E3           MOV      R6,#+1
   \   0000004C   08C0A0E3           MOV      R12,#+8
   \   00000050   0070A0E3           MOV      R7,#+0
   \   00000054   040040E2           SUB      R0,R0,#+4
   \   00000058   3A0050E3           CMP      R0,#+58
   \   0000005C   1A00008A           BHI      ??OnKey_1
   \   00000060   01EF8FE2           ADR      LR,??OnKey_0
   \   00000064   00E0DEE7           LDRB     LR,[LR, R0]
   \   00000068   0EF18FE0           ADD      PC,PC,LR, LSL #+2
   \                     ??OnKey_0:
   \   0000006C   19171717           DC8      +25,+23,+23,+23
   \   00000070   17171717           DC8      +23,+23,+23,+23
   \   00000074   17171717           DC8      +23,+23,+23,+23
   \   00000078   17171717           DC8      +23,+23,+23,+23
   \   0000007C   17171717           DC8      +23,+23,+23,+23
   \   00000080   17173F17           DC8      +23,+23,+63,+23
   \   00000084   17171717           DC8      +23,+23,+23,+23
   \   00000088   17171717           DC8      +23,+23,+23,+23
   \   0000008C   17171717           DC8      +23,+23,+23,+23
   \   00000090   17171717           DC8      +23,+23,+23,+23
   \   00000094   17171717           DC8      +23,+23,+23,+23
   \   00000098   17171717           DC8      +23,+23,+23,+23
   \   0000009C   170E1717           DC8      +23,+14,+23,+23
   \   000000A0   1717176B           DC8      +23,+23,+23,+107
   \   000000A4   5F262F00           DC8      +95,+38,+47,+0
    839              {
    840              case 0x35:
    841                if(pos==1)
   \                     ??OnKey_2:
   \   000000A8   010052E3           CMP      R2,#+1
   \   000000AC   0600001A           BNE      ??OnKey_1
    842                {
    843                  ffq=1;
   \   000000B0   A86084E5           STR      R6,[R4, #+168]
    844                  GBS_DelTimer(&mytmr2);
   \   000000B4   040083E0           ADD      R0,R3,R4
   \   000000B8   8C0100EF           SWI      +396
    845                engade_weather=0;
    846                SUBPROC((void *)create_connect);
   \   000000BC   ........           LDR      R0,??DataTable30  ;; create_connect
   \   000000C0   807084E5           STR      R7,[R4, #+128]
   \   000000C4   710100EF           SWI      +369
    847                DirectRedrawGUI();
   \   000000C8   3F0100EF           SWI      +319
    848                }
    849          /*      if(pos==3)
    850                {
    851                  switch_gprs_info=(!switch_gprs_info);
    852                  DirectRedrawGUI();
    853                }*/
    854                break;
    855                case RIGHT_SOFT:
    856                if(key_mode==1) goto set1;
    857                else goto set2;
    858                case LEFT_BUTTON:
    859                  if((pos==5)&&(app_pos>1))
    860                  {
    861                    app_pos--;
    862                    lock_keys=0;
    863                    phase=8;
    864                    DoShowIt();
    865                 //   DirectRedrawGUI();
    866                  }
    867                  else
    868                  {
    869                  set1:
    870                    ffq=1;
    871                    GBS_DelTimer(&mytmr2);
    872                    if(key_mode==1)
    873                    {
    874                lock_keys=0;
    875                phase=5;
    876                DoShowIt();
    877                    }
    878                  }
    879                break;
    880                case RIGHT_BUTTON:
    881                  if(pos==5)
    882                  {
    883                    app_pos++;
    884                    if(app_pos==4) app_pos--;
    885                    else
    886                    {
    887                      lock_keys=0;
    888                      phase=8;
    889                      DoShowIt();
    890               //       DirectRedrawGUI();
    891                    }
    892                  }
    893                  else
    894                  {
    895                  set2:
    896                    ffq=1;
    897                    GBS_DelTimer(&mytmr2);
    898                    if(key_mode==2)
    899                    {
    900                lock_keys=0;
    901                phase=5;
    902                DoShowIt();
    903                    }
    904                  }
    905                break;
    906              case ENTER_BUTTON:
    907                if(pos==5)
    908                {
    909                  WSHDR *elfname=AllocWS(256);
    910                  switch(app_pos)
    911                  {
    912                  case 1:
    913                    app_pos=1;
    914          #ifdef EVILFOX
    915                    wsprintf(elfname,(char*)"4:\\zbin\\naticq\\naticq.elf");
    916          #else
    917                    wsprintf(elfname, link1);
    918          #endif
    919                    ExecuteFile(elfname,NULL,NULL);
    920                    FreeWS(elfname);
    921                    return(1);
    922          //          break;
    923                  case 2:
    924                    app_pos=1;
    925          #ifdef EVILFOX
    926                    wsprintf(elfname,(char*)"4:\\Zbin\\balletmini\\BalletMini.elf");
    927          #else
    928                    wsprintf(elfname, link2);
    929          #endif
    930                    ExecuteFile(elfname,NULL,NULL);
    931                    FreeWS(elfname);
    932                    return(1);
    933          //          break;
    934                  case 3:
    935                    app_pos=1;
    936          #ifdef EVILFOX
    937                    wsprintf(elfname,(char*)"4:\\Zbin\\siejc\\siejc.elf");
    938          #else
    939                    wsprintf(elfname, link3);
    940          #endif
    941                    ExecuteFile(elfname,NULL,NULL);
    942                    FreeWS(elfname);
    943                    return(1);
    944          //          break;
    945                  }
    946                }
    947                break;
    948              case DOWN_BUTTON:
    949                {
    950                  ffq=1;
    951                  GBS_DelTimer(&mytmr2);
    952                  pos++;
    953          #ifdef NATICQ
    954          #ifdef EVILFOX
    955                  if (pos==6) pos=0;
    956          #else
    957                  if(use_plugin)
    958                  {
    959                  if (pos==6) pos=0;
    960                  }
    961                  else
    962                  {
    963                    if (pos==6) pos=1;
    964                  }
    965          #endif
    966          #else
    967                  if (pos==6) pos=1;
    968          #endif
    969                  lock_keys=0;
    970                  phase=4;
    971                  DoShowIt();
    972                }
    973                  break;
    974              case UP_BUTTON:
    975                 {
    976                   ffq=1;
    977                   GBS_DelTimer(&mytmr2);
    978                    pos--;
    979          #ifdef NATICQ
    980          #ifdef EVILFOX
    981                    if (pos==-1) pos=5;
    982          #else
    983                    if(use_plugin)
    984                    {
    985                    if (pos==-1) pos=5;
    986                    }
    987                    else
    988                    {
    989                      if (pos==0) pos=5;
    990                    }
    991          #endif
    992          #else
    993                    if (pos==0) pos=5;
    994          #endif
    995                    lock_keys=0;
    996                    phase=4;
    997                    DoShowIt();
    998                 }
    999                  break;        
   1000              }
   1001            }
   1002            }
   1003            return(0);
   \                     ??OnKey_1:
   \   000000CC   0000A0E3           MOV      R0,#+0
   \   000000D0   F080BDE8           POP      {R4-R7,PC}       ;; return
   \                     ??OnKey_3:
   \   000000D4   580094E5           LDR      R0,[R4, #+88]
   \   000000D8   010050E3           CMP      R0,#+1
   \   000000DC   1B00001A           BNE      ??OnKey_4
   \                     ??OnKey_5:
   \   000000E0   A86084E5           STR      R6,[R4, #+168]
   \   000000E4   040083E0           ADD      R0,R3,R4
   \   000000E8   8C0100EF           SWI      +396
   \   000000EC   580094E5           LDR      R0,[R4, #+88]
   \   000000F0   010050E3           CMP      R0,#+1
   \   000000F4   F4FFFF1A           BNE      ??OnKey_1
   \                     ??OnKey_6:
   \   000000F8   6C7084E5           STR      R7,[R4, #+108]
   \   000000FC   605084E5           STR      R5,[R4, #+96]
   \                     ??OnKey_7:
   \   00000100   ........           BL       DoShowIt
   \   00000104   250000EA           B        ??OnKey_8
   \                     ??OnKey_9:
   \   00000108   050052E3           CMP      R2,#+5
   \   0000010C   F3FFFF1A           BNE      ??OnKey_5
   \   00000110   020051E3           CMP      R1,#+2
   \   00000114   F1FFFFBA           BLT      ??OnKey_5
   \   00000118   010041E2           SUB      R0,R1,#+1
   \   0000011C   840084E5           STR      R0,[R4, #+132]
   \                     ??OnKey_10:
   \   00000120   6C7084E5           STR      R7,[R4, #+108]
   \   00000124   60C084E5           STR      R12,[R4, #+96]
   \   00000128   F4FFFFEA           B        ??OnKey_7
   \                     ??OnKey_11:
   \   0000012C   050052E3           CMP      R2,#+5
   \   00000130   0600001A           BNE      ??OnKey_4
   \   00000134   010081E2           ADD      R0,R1,#+1
   \   00000138   840084E5           STR      R0,[R4, #+132]
   \   0000013C   040050E3           CMP      R0,#+4
   \   00000140   0300A003           MOVEQ    R0,#+3
   \   00000144   84008405           STREQ    R0,[R4, #+132]
   \   00000148   DFFFFF0A           BEQ      ??OnKey_1
   \   0000014C   F3FFFFEA           B        ??OnKey_10
   \                     ??OnKey_4:
   \   00000150   A86084E5           STR      R6,[R4, #+168]
   \   00000154   040083E0           ADD      R0,R3,R4
   \   00000158   8C0100EF           SWI      +396
   \   0000015C   580094E5           LDR      R0,[R4, #+88]
   \   00000160   020050E3           CMP      R0,#+2
   \   00000164   D8FFFF1A           BNE      ??OnKey_1
   \   00000168   E2FFFFEA           B        ??OnKey_6
   \                     ??OnKey_12:
   \   0000016C   050052E3           CMP      R2,#+5
   \   00000170   D5FFFF1A           BNE      ??OnKey_1
   \   00000174   400FA0E3           MOV      R0,#+256
   \   00000178   250100EF           SWI      +293
   \   0000017C   BC109FE5           LDR      R1,??OnKey_13    ;; `?<Constant "4:\\\\zbin\\\\naticq\\\\naticq...">`
   \   00000180   0050A0E1           MOV      R5,R0
   \   00000184   840094E5           LDR      R0,[R4, #+132]
   \   00000188   010050E2           SUBS     R0,R0,#+1
   \   0000018C   0500000A           BEQ      ??OnKey_14
   \   00000190   010050E2           SUBS     R0,R0,#+1
   \   00000194   0500000A           BEQ      ??OnKey_15
   \   00000198   010050E2           SUBS     R0,R0,#+1
   \   0000019C   0F00000A           BEQ      ??OnKey_16
   \                     ??OnKey_8:
   \   000001A0   0000A0E3           MOV      R0,#+0
   \   000001A4   F080BDE8           POP      {R4-R7,PC}
   \                     ??OnKey_14:
   \   000001A8   846084E5           STR      R6,[R4, #+132]
   \   000001AC   010000EA           B        ??OnKey_17
   \                     ??OnKey_15:
   \   000001B0   846084E5           STR      R6,[R4, #+132]
   \   000001B4   1C1081E2           ADD      R1,R1,#+28
   \                     ??OnKey_17:
   \   000001B8   0500A0E1           MOV      R0,R5
   \   000001BC   240100EF           SWI      +292
   \   000001C0   0020A0E3           MOV      R2,#+0
   \   000001C4   0210A0E1           MOV      R1,R2
   \   000001C8   0500A0E1           MOV      R0,R5
   \   000001CC   940000EF           SWI      +148
   \   000001D0   0500A0E1           MOV      R0,R5
   \   000001D4   290100EF           SWI      +297
   \   000001D8   0600A0E1           MOV      R0,R6
   \   000001DC   F080BDE8           POP      {R4-R7,PC}
   \                     ??OnKey_16:
   \   000001E0   846084E5           STR      R6,[R4, #+132]
   \   000001E4   401081E2           ADD      R1,R1,#+64
   \   000001E8   F2FFFFEA           B        ??OnKey_17
   \                     ??OnKey_18:
   \   000001EC   A86084E5           STR      R6,[R4, #+168]
   \   000001F0   040083E0           ADD      R0,R3,R4
   \   000001F4   8C0100EF           SWI      +396
   \   000001F8   5C0094E5           LDR      R0,[R4, #+92]
   \   000001FC   010080E2           ADD      R0,R0,#+1
   \   00000200   5C0084E5           STR      R0,[R4, #+92]
   \   00000204   060050E3           CMP      R0,#+6
   \   00000208   5C608405           STREQ    R6,[R4, #+92]
   \                     ??OnKey_19:
   \   0000020C   6C7084E5           STR      R7,[R4, #+108]
   \   00000210   0400A0E3           MOV      R0,#+4
   \   00000214   600084E5           STR      R0,[R4, #+96]
   \   00000218   B8FFFFEA           B        ??OnKey_7
   \                     ??OnKey_20:
   \   0000021C   A86084E5           STR      R6,[R4, #+168]
   \   00000220   040083E0           ADD      R0,R3,R4
   \   00000224   8C0100EF           SWI      +396
   \   00000228   5C0094E5           LDR      R0,[R4, #+92]
   \   0000022C   010050E2           SUBS     R0,R0,#+1
   \   00000230   5C0084E5           STR      R0,[R4, #+92]
   \   00000234   F4FFFF1A           BNE      ??OnKey_19
   \   00000238   5C5084E5           STR      R5,[R4, #+92]
   \   0000023C   F2FFFFEA           B        ??OnKey_19
   \                     ??OnKey_13:
   \   00000240   ........           DC32     `?<Constant "4:\\\\zbin\\\\naticq\\\\naticq...">`
   1004          }
   1005          

   \                                 In segment CODE, align 4, keep-with-next
   1006          int method8(void){return(0);}
   \                     method8:
   \   00000000   0000A0E3           MOV      R0,#+0
   \   00000004   1EFF2FE1           BX       LR               ;; return
   1007          

   \                                 In segment CODE, align 4, keep-with-next
   1008          int method9(void){return(0);}
   \                     method9:
   \   00000000   0000A0E3           MOV      R0,#+0
   \   00000004   1EFF2FE1           BX       LR               ;; return
   1009          
   1010          extern void kill_data(void *p,void (*func_p)(void *));

   \                                 In segment CODE, align 4, keep-with-next
   1011          void ElfKiller(void)
   1012          {
   \                     ElfKiller:
   \   00000000   00402DE9           PUSH     {LR}
   1013            extern void *ELF_BEGIN;
   1014            kill_data(&ELF_BEGIN,(void (*)(void *))mfree_adr());
   \   00000004   158000EF           SWI      +32789
   \   00000008   0010A0E1           MOV      R1,R0
   \   0000000C   ........           LDR      R0,??DataTable16  ;; ELF_BEGIN
   \   00000010   0040BDE8           POP      {LR}             ;; Pop
   \   00000014   ........           _BF      kill_data,??kill_data??rA  ;; tailcall
   1015          }
   1016          
   1017          //   ,    ,   

   \                                 In segment DATA_C, align 4, align-sorted
   1018          const void * const gui_methods[11]={
   1019            (void *)OnRedraw,	//Redraw
   1020            (void *)onCreate,	//Create
   1021            (void *)onClose,	//Close
   1022            (void *)onFocus,	//Focus
   1023            (void *)onUnfocus,	//Unfocus
   1024            (void *)OnKey,	//OnKey
   1025            0,
   1026            (void *)kill_data,	//Destroy
   1027            (void *)method8,
   1028            (void *)method9,
   1029            0
   1030          };
   1031          
   1032          //    GUI
   1033          const RECT Canvas={0,0,0,0};
   \                     Canvas:
   \   00000000   000000000000       DC16 0, 0, 0, 0
   \              0000        
   \                     gui_methods:
   \   00000008   ............       DC32 OnRedraw, onCreate, onClose, onFocus, onUnfocus, OnKey, 0H
   \              ............
   \              ............
   \              ............
   \              00000000    
   \   00000024   ............       DC32 kill_data, method8, method9, 0H
   \              ............
   \              00000000    
   1034          
   1035          //     CSM.   
   1036          //  GUI,  ID   MAINGUI_ID
   1037          //    -   ;)
   1038          
   1039          #pragma inline
   1040          void patch_rect(const RECT*rcc,int x,int y, int x2, int y2)
   1041          {
   1042            RECT *rc=(RECT *)rcc;
   1043            rc->x=x;
   1044            rc->y=y;
   1045            rc->x2=x2;
   1046            rc->y2=y2;
   1047          }
   1048          

   \                                 In segment CODE, align 4, keep-with-next
   1049          void maincsm_oncreate(CSM_RAM *data)
   1050          {
   \                     maincsm_oncreate:
   \   00000000   F0402DE9           PUSH     {R4-R7,LR}
   1051            MAIN_GUI *main_gui=malloc(sizeof(MAIN_GUI));
   1052            MAIN_CSM*csm=(MAIN_CSM*)data;
   1053            zeromem(main_gui,sizeof(MAIN_GUI));
   1054            main_gui->gui.canvas=(void *)(&Canvas);
   \   00000004   6C609FE5           LDR      R6,??maincsm_oncreate_0  ;; Canvas
   \   00000008   0040A0E1           MOV      R4,R0
   \   0000000C   4000A0E3           MOV      R0,#+64
   \   00000010   140000EF           SWI      +20
   \   00000014   0050A0E1           MOV      R5,R0
   \   00000018   4010A0E3           MOV      R1,#+64
   \   0000001C   1D0100EF           SWI      +285
   \   00000020   006085E5           STR      R6,[R5, #+0]
   1055            //main_gui->gui.flag30=2;
   1056            main_gui->gui.methods=(void *)gui_methods;
   \   00000024   080086E2           ADD      R0,R6,#+8
   \   00000028   040085E5           STR      R0,[R5, #+4]
   1057            main_gui->gui.item_ll.data_mfree=(void (*)(void *))mfree_adr();
   \   0000002C   158000EF           SWI      +32789
   \   00000030   200085E5           STR      R0,[R5, #+32]
   1058            patch_rect((RECT*)&Canvas,0,YDISP,ScreenW()-1,ScreenH()-1);
   \   00000034   898100EF           SWI      +33161
   \   00000038   0070A0E1           MOV      R7,R0
   \   0000003C   888100EF           SWI      +33160
   \   00000040   011047E2           SUB      R1,R7,#+1
   \   00000044   010040E2           SUB      R0,R0,#+1
   \   00000048   0020A0E3           MOV      R2,#+0
   \   0000004C   B020C6E1           STRH     R2,[R6, #+0]
   \   00000050   1830A0E3           MOV      R3,#+24
   \   00000054   B230C6E1           STRH     R3,[R6, #+2]
   \   00000058   B400C6E1           STRH     R0,[R6, #+4]
   \   0000005C   B610C6E1           STRH     R1,[R6, #+6]
   1059            csm->csm.state=0;
   \   00000060   102084E5           STR      R2,[R4, #+16]
   1060            csm->csm.unk1=0;
   \   00000064   142084E5           STR      R2,[R4, #+20]
   1061            csm->gui_id=CreateGUI(main_gui);
   \   00000068   0500A0E1           MOV      R0,R5
   \   0000006C   370100EF           SWI      +311
   \   00000070   280084E5           STR      R0,[R4, #+40]
   1062          }
   \   00000074   F080BDE8           POP      {R4-R7,PC}       ;; return
   \                     ??maincsm_oncreate_0:
   \   00000078   ........           DC32     Canvas
   1063          
   1064          //     CSM.    

   \                                 In segment CODE, align 4, keep-with-next
   1065          void maincsm_onclose(CSM_RAM *csm)
   1066          {
   1067            //SUBPROC((void *)ElfKiller);
   1068          }
   \                     maincsm_onclose:
   \   00000000   1EFF2FE1           BX       LR               ;; return
   1069          
   1070          //    CSM

   \                                 In segment CODE, align 4, keep-with-next
   1071          int maincsm_onmessage(CSM_RAM *data, GBS_MSG *msg)
   1072          {
   1073            MAIN_CSM *csm=(MAIN_CSM*)data;
   1074             if ((msg->msg==MSG_GUI_DESTROYED)&&((int)msg->data0==csm->gui_id))
   \                     maincsm_onmessage:
   \   00000000   042091E5           LDR      R2,[R1, #+4]
   \   00000004   0E30A0E3           MOV      R3,#+14
   \   00000008   643C83E3           ORR      R3,R3,#0x6400
   \   0000000C   030052E1           CMP      R2,R3
   \   00000010   0400001A           BNE      ??maincsm_onmessage_0
   \   00000014   0C1091E5           LDR      R1,[R1, #+12]
   \   00000018   282090E5           LDR      R2,[R0, #+40]
   \   0000001C   020051E1           CMP      R1,R2
   1075            {
   1076              csm->csm.state=-3;
   \   00000020   0210E003           MVNEQ    R1,#+2
   \   00000024   10108005           STREQ    R1,[R0, #+16]
   1077            } 
   1078            return(1); 
   \                     ??maincsm_onmessage_0:
   \   00000028   0100A0E3           MOV      R0,#+1
   \   0000002C   1EFF2FE1           BX       LR               ;; return
   1079          }
   1080          
   1081          //   MAINCSM
   1082          const struct
   1083          {
   1084            CSM_DESC maincsm;
   1085            WSHDR maincsm_name;

   \                                 In segment DATA_C, align 4, align-sorted
   \                     `?<Constant "MIOSD">`:
   \   00000000   4D494F534400       DC8 "MIOSD"
   \   00000006   0000               DC8 0, 0
   1086          }MAINCSM =
   \                     MAINCSM:
   \   00000008   ............       DC32 maincsm_onmessage, maincsm_oncreate, 0, 0, 0, 0, maincsm_onclose
   \              ....00000000
   \              000000000000
   \              000000000000
   \              ........    
   \   00000024   2C0000000100       DC32 44, 1, minus11, maincsm_name_body, 55AACCCCH, 3333AA55H, 0
   \              0000........
   \              ........CCCC
   \              AA5555AA3333
   \              00000000    
   \   00000040   8B00               DC16 139
   \   00000042   0000               DC8 0, 0
   1087          {
   1088            {
   1089            maincsm_onmessage,
   1090            maincsm_oncreate,
   1091          #ifdef NEWSGOLD
   1092            0,
   1093            0,
   1094            0,
   1095            0,
   1096          #endif
   1097            maincsm_onclose,
   1098            sizeof(MAIN_CSM),
   1099            1,
   1100            &minus11
   1101            },
   1102            {
   1103              maincsm_name_body,
   1104              NAMECSM_MAGIC1,
   1105              NAMECSM_MAGIC2,
   1106              0x0,
   1107              139
   1108            }
   1109          };
   1110          
   1111          // ,     CSM  X-Task.

   \                                 In segment CODE, align 4, keep-with-next
   1112          void UpdateCSMname(void)
   1113          {
   1114            wsprintf((WSHDR *)(&MAINCSM.maincsm_name),"MIOSD");
   \                     UpdateCSMname:
   \   00000000   10009FE5           LDR      R0,??UpdateCSMname_0  ;; `?<Constant "MIOSD">`
   \   00000004   00402DE9           PUSH     {LR}
   \   00000008   0010A0E1           MOV      R1,R0
   \   0000000C   300080E2           ADD      R0,R0,#+48
   \   00000010   240100EF           SWI      +292
   1115          }
   \   00000014   0080BDE8           POP      {PC}             ;; return
   \                     ??UpdateCSMname_0:
   \   00000018   ........           DC32     `?<Constant "MIOSD">`
   1116          
   1117          

   \                                 In segment CODE, align 4, keep-with-next
   1118          void MyIDLECSM_onClose(CSM_RAM *data)
   1119          {
   \                     MyIDLECSM_onClose:
   \   00000000   10402DE9           PUSH     {R4,LR}
   \   00000004   0040A0E1           MOV      R4,R0
   1120            extern void seqkill(void *data, void(*next_in_seq)(CSM_RAM *), void *data_to_kill, void *seqkiller);
   1121            extern void *ELF_BEGIN;
   1122            seqkill(data,old_icsm_onClose,&ELF_BEGIN,SEQKILLER_ADR());
   \   00000008   9C8100EF           SWI      +33180
   \   0000000C   ........           LDR      R2,??DataTable16  ;; ELF_BEGIN
   \   00000010   0030A0E1           MOV      R3,R0
   \   00000014   0C009FE5           LDR      R0,??MyIDLECSM_onClose_0  ;; screen + 76
   \   00000018   001090E5           LDR      R1,[R0, #+0]
   \   0000001C   0400A0E1           MOV      R0,R4
   \   00000020   1040BDE8           POP      {R4,LR}          ;; Pop
   \   00000024   ........           _BF      seqkill,??seqkill??rA  ;; tailcall
   \                     ??MyIDLECSM_onClose_0:
   \   00000028   ........           DC32     screen + 76
   1123          }
   1124          
   1125          #pragma inline=forced
   1126          int toupper(int c)
   1127          {
   1128            if ((c>='a')&&(c<='z')) c+='A'-'a';
   1129            return(c);
   1130          }
   1131          #pragma inline
   1132          int strcmp_nocase(const char *s1,const char *s2)
   1133          {
   1134            int i;
   1135            int c;
   1136            while(!(i=(c=toupper(*s1++))-toupper(*s2++))) if (!c) break;
   1137            return(i);
   1138          }
   1139          
   1140          int con;
   1141          #ifdef EVILFOX
   1142          //=================================================================weather
   1143          int sock;
   1144          int connect_state=0;
   1145          char buf[BUFSIZE+1];
   1146          int pbuf=0;
   1147          int traf=0;
   1148          GBSTMR mytmr3;
   1149          
   1150          void start_again(void);
   1151          

   \                                 In segment CODE, align 4, keep-with-next
   1152          void create_connect(void)
   1153          {
   \                     create_connect:
   \   00000000   F0412DE9           PUSH     {R4-R8,LR}
   1154            SOCK_ADDR sa;
   1155            connect_state=0;
   \   00000004   ........           LDR      R4,??DataTable23  ;; screen
   \   00000008   10D04DE2           SUB      SP,SP,#+16
   \   0000000C   0000A0E3           MOV      R0,#+0
   \   00000010   C00084E5           STR      R0,[R4, #+192]
   1156            pbuf=0;
   \   00000014   C40084E5           STR      R0,[R4, #+196]
   1157            sock=socket(1,1,0);
   \   00000018   0020A0E3           MOV      R2,#+0
   1158            if (sock!=-1)
   \   0000001C   ........           LDR      R6,??DataTable31  ;; start_again
   \   00000020   0110A0E3           MOV      R1,#+1
   \   00000024   0100A0E1           MOV      R0,R1
   \   00000028   730100EF           SWI      +371
   \   0000002C   BC0084E5           STR      R0,[R4, #+188]
   \   00000030   BC00A0E3           MOV      R0,#+188
   \   00000034   540D80E3           ORR      R0,R0,#0x1500
   \   00000038   045080E0           ADD      R5,R0,R4
   \   0000003C   BC0094E5           LDR      R0,[R4, #+188]
   \   00000040   0070E0E3           MVN      R7,#+0
   \   00000044   070050E1           CMP      R0,R7
   \   00000048   1000000A           BEQ      ??create_connect_0
   1159            {
   1160              sa.family=1;
   \   0000004C   0180A0E3           MOV      R8,#+1
   \   00000050   B080CDE1           STRH     R8,[SP, #+0]
   1161              sa.port=htons(80);
   \   00000054   5000A0E3           MOV      R0,#+80
   \   00000058   7A0100EF           SWI      +378
   \   0000005C   B200CDE1           STRH     R0,[SP, #+2]
   1162                sa.ip=htonl(IP_ADDR(194,8,25,206));
   \   00000060   3C009FE5           LDR      R0,??create_connect_1  ;; 0xffffffffc20819ce
   \   00000064   7B0100EF           SWI      +379
   \   00000068   04008DE5           STR      R0,[SP, #+4]
   1163              if (connect(sock,&sa,sizeof(sa))!=-1)
   \   0000006C   BC0094E5           LDR      R0,[R4, #+188]
   \   00000070   1020A0E3           MOV      R2,#+16
   \   00000074   0D10A0E1           MOV      R1,SP
   \   00000078   740100EF           SWI      +372
   \   0000007C   070050E1           CMP      R0,R7
   1164              {
   1165                connect_state=1;
   \   00000080   C0808415           STRNE    R8,[R4, #+192]
   \   00000084   FF81BD18           POPNE    {R0-R8,PC}
   1166              }
   1167              else
   1168              {
   1169                closesocket(sock);
   \   00000088   BC0094E5           LDR      R0,[R4, #+188]
   \   0000008C   760100EF           SWI      +374
   1170                GBS_StartTimerProc(&mytmr3, 2160, start_again);
   1171              }
   1172            }
   1173            else
   1174            GBS_StartTimerProc(&mytmr3, 2160, start_again);
   \                     ??create_connect_0:
   \   00000090   0620A0E1           MOV      R2,R6
   \   00000094   871EA0E3           MOV      R1,#+2160
   \   00000098   0500A0E1           MOV      R0,R5
   \   0000009C   4D0000EF           SWI      +77
   1175          }
   \   000000A0   FF81BDE8           POP      {R0-R8,PC}       ;; return
   \                     ??create_connect_1:
   \   000000A4   CE1908C2           DC32     0xffffffffc20819ce
   1176          

   \                                 In segment CODE, align 4, keep-with-next
   1177          void start_again()
   1178          {
   \                     start_again:
   \   00000000   00402DE9           PUSH     {LR}
   1179            if(IsGPRSConnected())
   \   00000004   A80000EF           SWI      +168
   \   00000008   000050E3           CMP      R0,#+0
   \   0000000C   0200000A           BEQ      ??start_again_0
   1180            {
   1181            SUBPROC((void *)create_connect);
   \   00000010   ........           LDR      R0,??DataTable30  ;; create_connect
   \   00000014   710100EF           SWI      +369
   \   00000018   0080BDE8           POP      {PC}
   1182            }
   1183            else
   1184            GBS_StartTimerProc(&mytmr3, 2160, start_again);
   \                     ??start_again_0:
   \   0000001C   ........           LDR      R2,??DataTable31  ;; start_again
   \   00000020   08009FE5           LDR      R0,??start_again_1  ;; screen + 5564
   \   00000024   871EA0E3           MOV      R1,#+2160
   \   00000028   4D0000EF           SWI      +77
   1185          }
   \   0000002C   0080BDE8           POP      {PC}             ;; return
   \                     ??start_again_1:
   \   00000030   ........           DC32     screen + 5564
   1186          

   \                                 In segment CODE, align 4, keep-with-next
   1187          void send_req(void)
   1188          {
   \                     send_req:
   \   00000000   30402DE9           PUSH     {R4,R5,LR}
   1189            char *req_buf=malloc(500);
   1190            sprintf(req_buf,"GET /wap/weatherr.php?city=ventspils HTTP/1.1\n"
   1191                      "Accept-Language: en-us\n"
   1192                        "Accept-Encoding: gzip, deflate\n"
   1193                          "User-Agent: Mozilla/4.0 (compatible; MSIE 6.0; Windows NT 5.1; SV1)\n"
   1194                            "Host: www.118.lv\n"
   1195                              "Connection: Close\n"
   1196                                "\n"
   1197                                  );
   1198            send(sock,req_buf,strlen(req_buf),0);
   \   00000004   ........           LDR      R5,??DataTable23  ;; screen
   \   00000008   7D0FA0E3           MOV      R0,#+500
   \   0000000C   140000EF           SWI      +20
   \   00000010   34109FE5           LDR      R1,??send_req_0  ;; `?<Constant "GET /wap/weatherr.php...">`
   \   00000014   0040A0E1           MOV      R4,R0
   \   00000018   160000EF           SWI      +22
   \   0000001C   0400A0E1           MOV      R0,R4
   \   00000020   1B0000EF           SWI      +27
   \   00000024   0020A0E1           MOV      R2,R0
   \   00000028   BC0095E5           LDR      R0,[R5, #+188]
   \   0000002C   0030A0E3           MOV      R3,#+0
   \   00000030   0410A0E1           MOV      R1,R4
   \   00000034   790100EF           SWI      +377
   1199            connect_state=2;
   \   00000038   0200A0E3           MOV      R0,#+2
   \   0000003C   C00085E5           STR      R0,[R5, #+192]
   1200            mfree(req_buf);
   \   00000040   0400A0E1           MOV      R0,R4
   \   00000044   150000EF           SWI      +21
   1201          }
   \   00000048   3080BDE8           POP      {R4,R5,PC}       ;; return
   \                     ??send_req_0:
   \   0000004C   ........           DC32     `?<Constant "GET /wap/weatherr.php...">`
   1202          

   \                                 In segment CODE, align 4, keep-with-next
   1203          void end_socket(void)
   1204          {
   \                     end_socket:
   \   00000000   10402DE9           PUSH     {R4,LR}
   1205            if (sock>=0)
   \   00000004   ........           LDR      R4,??DataTable23  ;; screen
   \   00000008   BC0094E5           LDR      R0,[R4, #+188]
   \   0000000C   000050E3           CMP      R0,#+0
   \   00000010   1080BD48           POPMI    {R4,PC}
   1206            {
   1207              shutdown(sock,2);
   \   00000014   0210A0E3           MOV      R1,#+2
   \   00000018   770100EF           SWI      +375
   1208              closesocket(sock);
   \   0000001C   BC0094E5           LDR      R0,[R4, #+188]
   \   00000020   760100EF           SWI      +374
   1209              connect_state=0;
   \   00000024   0000A0E3           MOV      R0,#+0
   \   00000028   C00084E5           STR      R0,[R4, #+192]
   1210            }
   1211          }
   \   0000002C   1080BDE8           POP      {R4,PC}          ;; return
   1212          

   \                                 In segment CODE, align 4, keep-with-next
   1213          void get_answer(void)
   1214          {
   \                     get_answer:
   \   00000000   10402DE9           PUSH     {R4,LR}
   1215            int i=pbuf;
   \   00000004   ........           LDR      R4,??DataTable23  ;; screen
   1216            if (i==BUFSIZE)
   \   00000008   8810A0E3           MOV      R1,#+136
   \   0000000C   C40094E5           LDR      R0,[R4, #+196]
   \   00000010   4C1D81E3           ORR      R1,R1,#0x1300
   \   00000014   010050E1           CMP      R0,R1
   \   00000018   0E00000A           BEQ      ??get_answer_0
   1217              end_socket();
   1218            else
   1219            {
   1220              traf+=i=recv(sock,buf+i,BUFSIZE-i,0);
   \   0000001C   0030A0E3           MOV      R3,#+0
   \   00000020   002041E0           SUB      R2,R1,R0
   \   00000024   040080E0           ADD      R0,R0,R4
   \   00000028   8C1F80E2           ADD      R1,R0,#+560
   \   0000002C   BC0094E5           LDR      R0,[R4, #+188]
   \   00000030   780100EF           SWI      +376
   \   00000034   C81094E5           LDR      R1,[R4, #+200]
   1221              if (i>=0)
   \   00000038   000050E3           CMP      R0,#+0
   \   0000003C   011080E0           ADD      R1,R0,R1
   \   00000040   C81084E5           STR      R1,[R4, #+200]
   \   00000044   0300004A           BMI      ??get_answer_0
   1222              {
   1223                pbuf+=i;
   \   00000048   C41094E5           LDR      R1,[R4, #+196]
   \   0000004C   010080E0           ADD      R0,R0,R1
   \   00000050   C40084E5           STR      R0,[R4, #+196]
   \   00000054   1080BDE8           POP      {R4,PC}
   1224              }
   1225              else
   1226              {
   1227                end_socket();
   \                     ??get_answer_0:
   \   00000058   1040BDE8           POP      {R4,LR}          ;; Pop
   \   0000005C   ........           B        end_socket       ;; tailcall
   1228              }
   1229            }
   1230          }
   1231          

   \                                 In segment CODE, align 4, keep-with-next
   1232          int Parsing()
   1233          {
   1234            char p1[]="<p>Paslaik: ";
   \                     Parsing:
   \   00000000   50129FE5           LDR      R1,??Parsing_0   ;; `?<Constant "<p>Paslaik: ">`
   \   00000004   F04F2DE9           PUSH     {R4-R11,LR}
   \   00000008   58D04DE2           SUB      SP,SP,#+88
   \   0000000C   3C0091E8           LDM      R1,{R2-R5}
   \   00000010   20008DE2           ADD      R0,SP,#+32
   \   00000014   3C0080E8           STM      R0,{R2-R5}
   1235            char p2[]="<br/>";
   \   00000018   3C429FE5           LDR      R4,??Parsing_0+0x4  ;; `?<Constant "<br/>">`
   1236            char *s,*s1,*s2;
   1237            int len, i ,j;
   1238            if((s1=strstr(buf,p1))>0)
   \   0000001C   ........           LDR      R5,??DataTable38  ;; screen
   \   00000020   0C0094E8           LDM      R4,{R2,R3}
   \   00000024   18008DE2           ADD      R0,SP,#+24
   \   00000028   0C0080E8           STM      R0,{R2,R3}
   \   0000002C   8C8FA0E3           MOV      R8,#+560
   \   00000030   20108DE2           ADD      R1,SP,#+32
   \   00000034   050088E0           ADD      R0,R8,R5
   \   00000038   180100EF           SWI      +280
   \   0000003C   00A0B0E1           MOVS     R10,R0
   \   00000040   8100000A           BEQ      ??Parsing_1
   1239            {
   1240              s1+=strlen(p1);
   \   00000044   20008DE2           ADD      R0,SP,#+32
   \   00000048   1B0000EF           SWI      +27
   \   0000004C   0AA080E0           ADD      R10,R0,R10
   1241              if((s2=strstr(s1,p2))>0)
   \   00000050   18108DE2           ADD      R1,SP,#+24
   \   00000054   0A00A0E1           MOV      R0,R10
   \   00000058   180100EF           SWI      +280
   \   0000005C   000050E3           CMP      R0,#+0
   \   00000060   7A00000A           BEQ      ??Parsing_2
   1242              {
   1243                len=s2-s1;
   \   00000064   0A6040E0           SUB      R6,R0,R10
   1244                s=malloc(len+1);
   \   00000068   010086E2           ADD      R0,R6,#+1
   \   0000006C   140000EF           SWI      +20
   \   00000070   0090A0E1           MOV      R9,R0
   1245                strncpy(s,s1,len);
   \   00000074   0620A0E1           MOV      R2,R6
   \   00000078   0A10A0E1           MOV      R1,R10
   \   0000007C   160100EF           SWI      +278
   1246                s[len]='\0';
   \   00000080   0070A0E3           MOV      R7,#+0
   \   00000084   0970C6E7           STRB     R7,[R6, +R9]
   1247                i=0;
   1248                j=0;
   \   00000088   0000D9E5           LDRB     R0,[R9, #+0]
   \   0000008C   00B0A0E3           MOV      R11,#+0
   \   00000090   07A0A0E1           MOV      R10,R7
   \   00000094   2C0050E3           CMP      R0,#+44
   \   00000098   0400001A           BNE      ??Parsing_3
   \   0000009C   060000EA           B        ??Parsing_4
   1249                while(s[i]!=',')
   1250                {
   1251                  temp[i]=s[i];
   \                     ??Parsing_5:
   \   000000A0   0910DBE7           LDRB     R1,[R11, +R9]
   \   000000A4   05008BE0           ADD      R0,R11,R5
   1252                  i++;
   \   000000A8   01B08BE2           ADD      R11,R11,#+1
   \   000000AC   0811C0E5           STRB     R1,[R0, #+264]
   1253                }
   \                     ??Parsing_3:
   \   000000B0   0900DBE7           LDRB     R0,[R11, +R9]
   \   000000B4   2C0050E3           CMP      R0,#+44
   \   000000B8   F8FFFF1A           BNE      ??Parsing_5
   1254                temp[i]='\0';
   \                     ??Parsing_4:
   \   000000BC   05008BE0           ADD      R0,R11,R5
   \   000000C0   0871C0E5           STRB     R7,[R0, #+264]
   1255                sprintf(temp2, "%s: %s", LG_TEMP, temp);
   \   000000C4   423F85E2           ADD      R3,R5,#+264
   \   000000C8   102084E2           ADD      R2,R4,#+16
   \   000000CC   081084E2           ADD      R1,R4,#+8
   \   000000D0   6E0F85E2           ADD      R0,R5,#+440
   \   000000D4   160000EF           SWI      +22
   1256                i++;
   \   000000D8   01008BE2           ADD      R0,R11,#+1
   \   000000DC   060050E1           CMP      R0,R6
   \   000000E0   060000AA           BGE      ??Parsing_6
   1257                while(i<len)
   1258                {
   1259                  vejsh[j]=s[i];
   \                     ??Parsing_7:
   \   000000E4   0920D0E7           LDRB     R2,[R0, +R9]
   \   000000E8   05108AE0           ADD      R1,R10,R5
   1260                  j++;
   \   000000EC   01A08AE2           ADD      R10,R10,#+1
   \   000000F0   2821C1E5           STRB     R2,[R1, #+296]
   1261                  i++;
   \   000000F4   010080E2           ADD      R0,R0,#+1
   1262                }
   \   000000F8   060050E1           CMP      R0,R6
   \   000000FC   F8FFFFBA           BLT      ??Parsing_7
   1263                vejsh[j]='\0';
   \                     ??Parsing_6:
   \   00000100   05008AE0           ADD      R0,R10,R5
   \   00000104   2871C0E5           STRB     R7,[R0, #+296]
   1264                sprintf(vejsh2, "%s: %s", LG_WIND, vejsh);
   \   00000108   4A3F85E2           ADD      R3,R5,#+296
   \   0000010C   1C2084E2           ADD      R2,R4,#+28
   \   00000110   081084E2           ADD      R1,R4,#+8
   \   00000114   760F85E2           ADD      R0,R5,#+472
   \   00000118   160000EF           SWI      +22
   1265                mfree(s);
   \   0000011C   0900A0E1           MOV      R0,R9
   \   00000120   150000EF           SWI      +21
   1266          
   1267            char p1_1[]="http://www.118.lv/images/icons/weather/";
   \   00000124   34119FE5           LDR      R1,??Parsing_0+0x8  ;; `?<Constant "http://www.118.lv/ima...">`
   \   00000128   30008DE2           ADD      R0,SP,#+48
   \   0000012C   4C06B1E8           LDM      R1!,{R2,R3,R6,R9,R10}
   \   00000130   4C06A0E8           STM      R0!,{R2,R3,R6,R9,R10}
   \   00000134   4C0691E8           LDM      R1,{R2,R3,R6,R9,R10}
   1268            char p2_1[]=".gif";
   \   00000138   24119FE5           LDR      R1,??Parsing_0+0xC  ;; `?<Constant ".gif">`
   \   0000013C   4C0680E8           STM      R0,{R2,R3,R6,R9,R10}
   \   00000140   0C0091E8           LDM      R1,{R2,R3}
   \   00000144   10008DE2           ADD      R0,SP,#+16
   \   00000148   0C0080E8           STM      R0,{R2,R3}
   1269            char *s_icon;
   1270            if((s1=strstr(buf,p1_1))>0)
   \   0000014C   30108DE2           ADD      R1,SP,#+48
   \   00000150   050088E0           ADD      R0,R8,R5
   \   00000154   180100EF           SWI      +280
   \   00000158   00A0B0E1           MOVS     R10,R0
   \   0000015C   3A00000A           BEQ      ??Parsing_1
   1271            {
   1272              s1+=strlen(p1_1);
   \   00000160   30008DE2           ADD      R0,SP,#+48
   \   00000164   1B0000EF           SWI      +27
   \   00000168   0AA080E0           ADD      R10,R0,R10
   1273              if((s2=strstr(s1,p2_1))>0)
   \   0000016C   10108DE2           ADD      R1,SP,#+16
   \   00000170   0A00A0E1           MOV      R0,R10
   \   00000174   180100EF           SWI      +280
   \   00000178   000050E3           CMP      R0,#+0
   \   0000017C   3300000A           BEQ      ??Parsing_2
   1274              {
   1275                len=s2-s1;
   \   00000180   0A6040E0           SUB      R6,R0,R10
   1276                s_icon=malloc(len+1);
   \   00000184   010086E2           ADD      R0,R6,#+1
   \   00000188   140000EF           SWI      +20
   \   0000018C   0080A0E1           MOV      R8,R0
   1277                strncpy(s_icon,s1,len);
   \   00000190   0620A0E1           MOV      R2,R6
   \   00000194   0A10A0E1           MOV      R1,R10
   \   00000198   160100EF           SWI      +278
   1278                s_icon[len]='\0';
   \   0000019C   0870C6E7           STRB     R7,[R6, +R8]
   1279          //      strcpy(icon_name, s_icon);
   1280                int k=0;
   \   000001A0   0000A0E3           MOV      R0,#+0
   1281                int l=0;
   \   000001A4   0010A0E1           MOV      R1,R0
   1282                int y=0;
   \   000001A8   0020A0E1           MOV      R2,R0
   \   000001AC   010056E3           CMP      R6,#+1
   \   000001B0   040000AA           BGE      ??Parsing_8
   \   000001B4   0D0000EA           B        ??Parsing_9
   1283                while(k<len)
   1284                {
   1285                  if(s_icon[k]=='_')
   \                     ??Parsing_10:
   \   000001B8   0830D0E7           LDRB     R3,[R0, +R8]
   \   000001BC   5F0053E3           CMP      R3,#+95
   1286                    l=k;
   \   000001C0   0010A001           MOVEQ    R1,R0
   1287                  k++;
   \   000001C4   010080E2           ADD      R0,R0,#+1
   1288                }
   \                     ??Parsing_8:
   \   000001C8   060050E1           CMP      R0,R6
   \   000001CC   F9FFFFBA           BLT      ??Parsing_10
   1289                if(l>0)
   \   000001D0   010051E3           CMP      R1,#+1
   \   000001D4   050000BA           BLT      ??Parsing_9
   1290                l++;
   \   000001D8   011081E2           ADD      R1,R1,#+1
   \   000001DC   030000EA           B        ??Parsing_9
   1291                while(l<len)
   1292                {
   1293                  s_icon1[y]=s_icon[l];
   \                     ??Parsing_11:
   \   000001E0   0830D1E7           LDRB     R3,[R1, +R8]
   1294                  l++;
   \   000001E4   011081E2           ADD      R1,R1,#+1
   1295                  y++;
   \   000001E8   012082E2           ADD      R2,R2,#+1
   \   000001EC   4831C0E5           STRB     R3,[R0, #+328]
   1296                }
   \                     ??Parsing_9:
   \   000001F0   060051E1           CMP      R1,R6
   \   000001F4   050082E0           ADD      R0,R2,R5
   \   000001F8   F8FFFFBA           BLT      ??Parsing_11
   1297                s_icon1[y]='\0';
   \   000001FC   4871C0E5           STRB     R7,[R0, #+328]
   1298                TTime time;
   1299                TDate date;
   1300                GetDateTime(&date, &time);
   \   00000200   0D10A0E1           MOV      R1,SP
   \   00000204   08008DE2           ADD      R0,SP,#+8
   \   00000208   B40000EF           SWI      +180
   1301                sprintf(weather_time, "%02d-%02d at %02d:%02d", date.month, date.day, time.hour, time.min);
   \   0000020C   0100DDE5           LDRB     R0,[SP, #+1]
   \   00000210   241084E2           ADD      R1,R4,#+36
   \   00000214   01002DE9           PUSH     {R0}
   \   00000218   0400DDE5           LDRB     R0,[SP, #+4]
   \   0000021C   01002DE9           PUSH     {R0}
   \   00000220   1530DDE5           LDRB     R3,[SP, #+21]
   \   00000224   1420DDE5           LDRB     R2,[SP, #+20]
   \   00000228   7E0F85E2           ADD      R0,R5,#+504
   \   0000022C   160000EF           SWI      +22
   1302                engade_weather=1;
   \   00000230   0100A0E3           MOV      R0,#+1
   \   00000234   800085E5           STR      R0,[R5, #+128]
   1303                DirectRedrawGUI();
   \   00000238   3F0100EF           SWI      +319
   1304                return 1;
   \   0000023C   0100A0E3           MOV      R0,#+1
   \   00000240   08D08DE2           ADD      SP,SP,#+8
   \   00000244   58D08DE2           ADD      SP,SP,#+88
   \   00000248   F08FBDE8           POP      {R4-R11,PC}
   1305              }
   1306            }
   1307              }
   1308            }
   1309            
   1310            return 0;
   \                     ??Parsing_1:
   \   0000024C   0000A0E3           MOV      R0,#+0
   \                     ??Parsing_2:
   \   00000250   58D08DE2           ADD      SP,SP,#+88       ;; stack cleaning
   \   00000254   F08FBDE8           POP      {R4-R11,PC}      ;; return
   \                     ??Parsing_0:
   \   00000258   ........           DC32     `?<Constant "<p>Paslaik: ">`
   \   0000025C   ........           DC32     `?<Constant "<br/>">`
   \   00000260   ........           DC32     `?<Constant "http://www.118.lv/ima...">`
   \   00000264   ........           DC32     `?<Constant ".gif">`
   1311          }
   1312          //=================================================================weather
   1313          #else
   1314          //=================================================================weather
   1315          int sock;
   1316          int connect_state;
   1317          char buf[BUFSIZE+1];
   1318          int pbuf;
   1319          int traf;
   1320          GBSTMR mytmr3;
   1321          
   1322          void start_again(void);
   1323          
   1324          void create_connect(void)
   1325          {
   1326            SOCK_ADDR sa;
   1327            connect_state=0;
   1328            pbuf=0;
   1329            sock=socket(1,1,0);
   1330            if (sock!=-1)
   1331            {
   1332              sa.family=1;
   1333              sa.port=htons(80);
   1334                sa.ip=htonl(IP_ADDR(212,48,138,20));
   1335              if (connect(sock,&sa,sizeof(sa))!=-1)
   1336              {
   1337                connect_state=1;
   1338              }
   1339              else
   1340              {
   1341                closesocket(sock);
   1342                GBS_StartTimerProc(&mytmr3, 2160, start_again);
   1343              }
   1344            }
   1345            else
   1346            GBS_StartTimerProc(&mytmr3, 2160, start_again);
   1347          }
   1348          
   1349          void start_again()
   1350          {
   1351            if(IsGPRSConnected())
   1352            {
   1353            SUBPROC((void *)create_connect);
   1354            }
   1355            else
   1356            GBS_StartTimerProc(&mytmr3, 2160, start_again);
   1357          }
   1358          
   1359          char req_buf[256];
   1360          
   1361          void send_req(void)
   1362          {
   1363                sprintf(req_buf,"GET /wap2/towns/%i.wap2"
   1364                   " HTTP/1.0\r\nHost: wap.gismeteo.ru\r\n\r\n",TID);  
   1365           
   1366            send(sock,req_buf,strlen(req_buf),0);
   1367            connect_state=2;
   1368          }
   1369          
   1370          void end_socket(void)
   1371          {
   1372            if (sock>=0)
   1373            {
   1374              shutdown(sock,2);
   1375              closesocket(sock);
   1376            }
   1377          }
   1378          
   1379          void get_answer(void)
   1380          {
   1381            int i=pbuf;
   1382            if (i==65535)
   1383              end_socket();
   1384            else
   1385            {
   1386              i=recv(sock,buf+i,65535-i,0);
   1387              if (i>=0)
   1388              {
   1389                pbuf+=i;
   1390              }
   1391              else
   1392              {
   1393                end_socket();
   1394              }
   1395            }
   1396          }
   1397          
   1398          char tempz[10];
   1399          
   1400          void Parsing()
   1401          {  
   1402              char *fcstr;
   1403              int i;  
   1404                
   1405              fcstr=strstr(buf,"</table>");
   1406                
   1407              //????????kartinka
   1408              fcstr=strstr(fcstr,"/images/")+strlen ("/images/");
   1409          /*    for (i=0;fcstr[i]!='.'&&(i<strlen (fcstr));i++);
   1410                strncpy(weath.Pic, fcstr, i+1);
   1411              weath.Pic[i]=0; 
   1412              strcat(weath.Pic, ".png");*/
   1413              
   1414              //???????????temperatura
   1415              fcstr=strstr(fcstr,"<b>")+strlen ("<b>");
   1416              for (i=0;fcstr[i]!='<'&&(i<strlen (fcstr));i++);
   1417                strncpy(temp, fcstr, i+1);
   1418                temp[i]=0;
   1419                i=0;
   1420                while(temp[i]!='.')
   1421                {
   1422                  tempz[i]=temp[i];
   1423                  i++;
   1424                }
   1425                tempz[i]='\0';
   1426                sprintf(temp2, "%s: %s",LG_TEMP, tempz);
   1427                
   1428              //????????davlenie
   1429              fcstr=strstr(fcstr,"<tr><td")+strlen ("<tr><td");
   1430              fcstr=strstr(fcstr,">")+18;
   1431              for (i=0;fcstr[i]!='<'&&(i<strlen (fcstr));i++);
   1432                strncpy(pressure, fcstr, i+1);
   1433              pressure[i]='\0';  
   1434              utf82win(pressure,(const char *)pressure);
   1435              sprintf(pressure2, "%s: %s", LG_PRES, pressure);
   1436              
   1437              //?????veter
   1438              fcstr=strstr(fcstr,"<tr><td")+strlen ("<tr><td");
   1439              fcstr=strstr(fcstr,">")+12;
   1440              for (i=0;fcstr[i]!='<'&&(i<strlen (fcstr));i++);
   1441                strncpy(wind, fcstr, i+1);
   1442              wind[i]='\0'; 
   1443              utf82win(wind,(const char *)wind);
   1444              sprintf(vejsh2, "%s: %s", LG_WIND, wind);
   1445              
   1446              TTime time;
   1447                TDate date;
   1448                GetDateTime(&date, &time);
   1449                sprintf(weather_time, "%02d-%02d at %02d:%02d", date.month, date.day, time.hour, time.min);
   1450                engade_weather=1;
   1451                DirectRedrawGUI();
   1452              
   1453              //?????????vlazhnostj
   1454          /*    fcstr=strstr(fcstr,"<tr><td")+strlen ("<tr><td");
   1455              fcstr=strstr(fcstr,">")+20;
   1456              for (i=0;fcstr[i]!='<'&&(i<strlen (fcstr));i++);
   1457                strncpy(weath.Rewlet, fcstr, i+1);
   1458              weath.Rewlet[i]='\n';  */  
   1459              
   1460              //SUBPROC((void *)log_data, buf);
   1461          }
   1462          //=================================================================weather
   1463          #endif
   1464          int charge_m;
   1465          int charge_s;
   1466          GBSTMR charger;
   1467          

   \                                 In segment CODE, align 4, keep-with-next
   1468          void charger_c()
   1469          {
   1470            charge_s++;
   \                     charger_c:
   \   00000000   ........           LDR      R0,??DataTable38  ;; screen
   \   00000004   00402DE9           PUSH     {LR}
   \   00000008   D01090E5           LDR      R1,[R0, #+208]
   \   0000000C   011081E2           ADD      R1,R1,#+1
   1471            if (charge_s==60)
   \   00000010   3C0051E3           CMP      R1,#+60
   \   00000014   0300001A           BNE      ??charger_c_0
   1472            {
   1473              charge_s=0;
   1474              charge_m++;
   \   00000018   CC2090E5           LDR      R2,[R0, #+204]
   \   0000001C   0010A0E3           MOV      R1,#+0
   \   00000020   012082E2           ADD      R2,R2,#+1
   \   00000024   CC2080E5           STR      R2,[R0, #+204]
   1475            }
   1476            GBS_StartTimerProc(&charger, 216, charger_c);
   \                     ??charger_c_0:
   \   00000028   18209FE5           LDR      R2,??charger_c_1  ;; charger_c
   \   0000002C   D01080E5           STR      R1,[R0, #+208]
   \   00000030   D810A0E3           MOV      R1,#+216
   \   00000034   CC30A0E3           MOV      R3,#+204
   \   00000038   543D83E3           ORR      R3,R3,#0x1500
   \   0000003C   000083E0           ADD      R0,R3,R0
   \   00000040   4D0000EF           SWI      +77
   1477          }
   \   00000044   0080BDE8           POP      {PC}             ;; return
   \                     ??charger_c_1:
   \   00000048   ........           DC32     charger_c
   1478          
   1479          int g_min;
   1480          int g_sec;
   1481          int g_hour;
   1482          GBSTMR gipi;
   1483          

   \                                 In segment CODE, align 4, keep-with-next
   1484          void write_log(int zzz)
   1485          {
   \                     write_log:
   \   00000000   30402DE9           PUSH     {R4,R5,LR}
   1486            volatile int hFile;
   1487                unsigned int io_error = 0;
   1488                unsigned int ul;
   1489                FSTATS stat;
   1490                GetFileStats("4:\\zbin\\miosd\\miosd2.file",&stat,&ul);
   \   00000004   ........           LDR      R5,??DataTable35  ;; `?<Constant "4:\\\\zbin\\\\miosd\\\\miosd2....">`
   \   00000008   34D04DE2           SUB      SP,SP,#+52
   \   0000000C   0040A0E1           MOV      R4,R0
   \   00000010   0010A0E3           MOV      R1,#+0
   \   00000014   00108DE5           STR      R1,[SP, #+0]
   \   00000018   08208DE2           ADD      R2,SP,#+8
   \   0000001C   0C108DE2           ADD      R1,SP,#+12
   \   00000020   0500A0E1           MOV      R0,R5
   \   00000024   840000EF           SWI      +132
   1491                hFile = fopen("4:\\zbin\\miosd\\miosd2.file",A_ReadWrite+A_Create+A_Truncate+ A_BIN,P_READ+P_WRITE, &io_error);
   \   00000028   0D30A0E1           MOV      R3,SP
   \   0000002C   602FA0E3           MOV      R2,#+384
   \   00000030   0210A0E3           MOV      R1,#+2
   \   00000034   831C81E3           ORR      R1,R1,#0x8300
   \   00000038   0500A0E1           MOV      R0,R5
   \   0000003C   0A0000EF           SWI      +10
   \   00000040   04008DE5           STR      R0,[SP, #+4]
   1492                if(hFile!=-1)
   \   00000044   04009DE5           LDR      R0,[SP, #+4]
   \   00000048   010070E3           CMN      R0,#+1
   \   0000004C   0F00000A           BEQ      ??write_log_0
   1493                {
   1494                  char *writer=malloc(32);
   \   00000050   2000A0E3           MOV      R0,#+32
   \   00000054   140000EF           SWI      +20
   \   00000058   0050A0E1           MOV      R5,R0
   1495                  sprintf(writer, "%d", zzz);
   \   0000005C   0420A0E1           MOV      R2,R4
   \   00000060   0C1F8FE2           ADR      R1,??write_log_1  ;; "%d"
   \   00000064   160000EF           SWI      +22
   1496                  fwrite(hFile, writer, strlen(writer), &io_error);
   \   00000068   0500A0E1           MOV      R0,R5
   \   0000006C   1B0000EF           SWI      +27
   \   00000070   0D30A0E1           MOV      R3,SP
   \   00000074   0020A0E1           MOV      R2,R0
   \   00000078   04009DE5           LDR      R0,[SP, #+4]
   \   0000007C   0510A0E1           MOV      R1,R5
   \   00000080   0C0000EF           SWI      +12
   1497                  fclose(hFile, &io_error);
   \   00000084   04009DE5           LDR      R0,[SP, #+4]
   \   00000088   0D10A0E1           MOV      R1,SP
   \   0000008C   0D0000EF           SWI      +13
   1498                }
   1499          }
   \                     ??write_log_0:
   \   00000090   34D08DE2           ADD      SP,SP,#+52       ;; stack cleaning
   \   00000094   3080BDE8           POP      {R4,R5,PC}       ;; return
   \                     ??write_log_1:
   \   00000098   25640000           DC8      "%d",+0
   1500          
   1501          int rewriter;
   1502          

   \                                 In segment CODE, align 4, keep-with-next
   1503          void Count_GPRS()
   1504          {
   \                     Count_GPRS:
   \   00000000   10402DE9           PUSH     {R4,LR}
   1505            g_sec++;
   \   00000004   ........           LDR      R4,??DataTable38  ;; screen
   \   00000008   D80094E5           LDR      R0,[R4, #+216]
   1506            if (g_sec==60)
   \   0000000C   D41094E5           LDR      R1,[R4, #+212]
   \   00000010   010080E2           ADD      R0,R0,#+1
   \   00000014   3C0050E3           CMP      R0,#+60
   1507            {
   1508              g_sec=0;
   \   00000018   0000A003           MOVEQ    R0,#+0
   1509              g_min++;
   \   0000001C   01108102           ADDEQ    R1,R1,#+1
   \   00000020   D80084E5           STR      R0,[R4, #+216]
   1510            }
   1511            if(g_min==60)
   \   00000024   3C0051E3           CMP      R1,#+60
   \   00000028   0300001A           BNE      ??Count_GPRS_0
   1512            {
   1513              g_min=0;
   1514              g_hour++;
   \   0000002C   DC0094E5           LDR      R0,[R4, #+220]
   \   00000030   0010A0E3           MOV      R1,#+0
   \   00000034   010080E2           ADD      R0,R0,#+1
   \   00000038   DC0084E5           STR      R0,[R4, #+220]
   \                     ??Count_GPRS_0:
   \   0000003C   D41084E5           STR      R1,[R4, #+212]
   1515            }
   1516            int r=g_min;
   \   00000040   010051E3           CMP      R1,#+1
   \   00000044   020000BA           BLT      ??Count_GPRS_1
   1517            while(r>0)
   1518              r=r-2;
   \                     ??Count_GPRS_2:
   \   00000048   021041E2           SUB      R1,R1,#+2
   \   0000004C   010051E3           CMP      R1,#+1
   \   00000050   FCFFFFAA           BGE      ??Count_GPRS_2
   1519            if((r==0)&&(g_min!=0)&&(rewriter!=g_min)) 
   \                     ??Count_GPRS_1:
   \   00000054   000051E3           CMP      R1,#+0
   \   00000058   0F00001A           BNE      ??Count_GPRS_3
   \   0000005C   D40094E5           LDR      R0,[R4, #+212]
   \   00000060   000050E3           CMP      R0,#+0
   \   00000064   E0109415           LDRNE    R1,[R4, #+224]
   \   00000068   00005111           CMPNE    R1,R0
   \   0000006C   0A00000A           BEQ      ??Count_GPRS_3
   1520            {
   1521              int *trafik2 = GetGPRSTrafficPointer();
   \   00000070   700000EF           SWI      +112
   1522              int trafiks2=(*trafik2-start_traffic)/1024;
   1523              SUBPROC((void *)write_log,trafiks2);   //latest fix
   \   00000074   000090E5           LDR      R0,[R0, #+0]
   \   00000078   A41094E5           LDR      R1,[R4, #+164]
   \   0000007C   010040E0           SUB      R0,R0,R1
   \   00000080   C014A0E1           ASR      R1,R0,#+9
   \   00000084   210B80E0           ADD      R0,R0,R1, LSR #+22
   \   00000088   4015A0E1           ASR      R1,R0,#+10
   \   0000008C   40009FE5           LDR      R0,??Count_GPRS_4  ;; write_log
   \   00000090   710100EF           SWI      +369
   1524             // write_log(trafiks2);
   1525              rewriter=g_min;
   \   00000094   D40094E5           LDR      R0,[R4, #+212]
   \   00000098   E00084E5           STR      R0,[R4, #+224]
   1526            }
   1527          //  sprintf(start_g2, "%s(%dm)", start_g, g_min);
   1528          #ifdef EVILFOX
   1529            sprintf(start_g2, "Active: %02d:%02d:%02d", g_hour, g_min, g_sec);
   \                     ??Count_GPRS_3:
   \   0000009C   D80094E5           LDR      R0,[R4, #+216]
   \   000000A0   30109FE5           LDR      R1,??Count_GPRS_4+0x4  ;; `?<Constant "Active: %02d:%02d:%02d">`
   \   000000A4   01002DE9           PUSH     {R0}
   \   000000A8   D43094E5           LDR      R3,[R4, #+212]
   \   000000AC   DC2094E5           LDR      R2,[R4, #+220]
   \   000000B0   660F84E2           ADD      R0,R4,#+408
   \   000000B4   160000EF           SWI      +22
   1530          #else
   1531            sprintf(start_g2, ". .: %02d:%02d:%02d", g_hour, g_min, g_sec);
   1532          #endif
   1533            GBS_StartTimerProc(&gipi, 216, Count_GPRS);
   \   000000B8   1C209FE5           LDR      R2,??Count_GPRS_4+0x8  ;; Count_GPRS
   \   000000BC   D810A0E3           MOV      R1,#+216
   \   000000C0   DC00A0E3           MOV      R0,#+220
   \   000000C4   540D80E3           ORR      R0,R0,#0x1500
   \   000000C8   040080E0           ADD      R0,R0,R4
   \   000000CC   4D0000EF           SWI      +77
   1534          }
   \   000000D0   1180BDE8           POP      {R0,R4,PC}       ;; return
   \                     ??Count_GPRS_4:
   \   000000D4   ........           DC32     write_log
   \   000000D8   ........           DC32     `?<Constant "Active: %02d:%02d:%02d">`
   \   000000DC   ........           DC32     Count_GPRS
   1535          
   1536          #ifdef NATICQ
   1537          #define IPC_RECIEVE_MSG 55
   1538          const char ipc_my_name[]="MioSD";
   1539          #endif
   1540          extern GBSTMR missedt;
   1541          int rem_mis;
   1542            
   1543          

   \                                 In segment CODE, align 4, keep-with-next
   1544          int MyIDLECSM_onMessage(CSM_RAM* data, GBS_MSG* msg)
   1545          {
   \                     MyIDLECSM_onMessage:
   \   00000000   F0432DE9           PUSH     {R4-R9,LR}
   1546            int csm_result;
   1547            csm_result=old_icsm_onMessage(data,msg);
   \   00000004   ........           LDR      R4,??DataTable38  ;; screen
   \   00000008   4CD04DE2           SUB      SP,SP,#+76
   \   0000000C   482094E5           LDR      R2,[R4, #+72]
   1548            
   1549            if(msg->msg == MSG_RECONFIGURE_REQ) //    
   \   00000010   ........           LDR      R7,??DataTable33  ;; `?<Constant "MIOSD 1.5 config upda...">`
   \   00000014   0180A0E1           MOV      R8,R1
   \   00000018   32FF2FE1           BLX      R2
   \   0000001C   0050A0E1           MOV      R5,R0
   \   00000020   040098E5           LDR      R0,[R8, #+4]
   \   00000024   0060E0E3           MVN      R6,#+0
   \   00000028   AF10A0E3           MOV      R1,#+175
   \   0000002C   DE1C81E3           ORR      R1,R1,#0xDE00
   \   00000030   010050E1           CMP      R0,R1
   \   00000034   1500001A           BNE      ??MyIDLECSM_onMessage_0
   1550            {
   1551              extern const char *successed_config_filename;
   1552              if (strcmp_nocase(successed_config_filename,(char *)msg->data0)==0)
   \   00000038   E4129FE5           LDR      R1,??MyIDLECSM_onMessage_1  ;; successed_config_filename
   \   0000003C   0C0098E5           LDR      R0,[R8, #+12]
   \   00000040   001091E5           LDR      R1,[R1, #+0]
   \                     ??MyIDLECSM_onMessage_2:
   \   00000044   0020D1E5           LDRB     R2,[R1, #+0]
   \   00000048   610052E3           CMP      R2,#+97
   \   0000004C   010000BA           BLT      ??MyIDLECSM_onMessage_3
   \   00000050   7B0052E3           CMP      R2,#+123
   \   00000054   202042B2           SUBLT    R2,R2,#+32
   \                     ??MyIDLECSM_onMessage_3:
   \   00000058   0030D0E5           LDRB     R3,[R0, #+0]
   \   0000005C   011081E2           ADD      R1,R1,#+1
   \   00000060   610053E3           CMP      R3,#+97
   \   00000064   010000BA           BLT      ??MyIDLECSM_onMessage_4
   \   00000068   7B0053E3           CMP      R3,#+123
   \   0000006C   203043B2           SUBLT    R3,R3,#+32
   \                     ??MyIDLECSM_onMessage_4:
   \   00000070   010080E2           ADD      R0,R0,#+1
   \   00000074   033052E0           SUBS     R3,R2,R3
   \   00000078   3600001A           BNE      ??MyIDLECSM_onMessage_5
   \   0000007C   000052E3           CMP      R2,#+0
   \   00000080   EFFFFF1A           BNE      ??MyIDLECSM_onMessage_2
   1553              {
   1554           //     void RereadSettings(void);
   1555           //     RereadSettings();
   1556          #ifdef EVILFOX
   1557          #else
   1558                InitConfig();
   1559          #endif
   1560                ShowMSG(1,(int)"MIOSD 1.5 config updated!");
   \   00000084   0710A0E1           MOV      R1,R7
   \   00000088   0100A0E3           MOV      R0,#+1
   \   0000008C   480100EF           SWI      +328
   1561              }
   1562            }
   1563            //=========================================weather
   1564            if (msg->msg==MSG_HELPER_TRANSLATOR)
   \                     ??MyIDLECSM_onMessage_0:
   \   00000090   040098E5           LDR      R0,[R8, #+4]
   \   00000094   AE10A0E3           MOV      R1,#+174
   \   00000098   DE1C81E3           ORR      R1,R1,#0xDE00
   \   0000009C   010050E1           CMP      R0,R1
   \   000000A0   2C00001A           BNE      ??MyIDLECSM_onMessage_5
   1565            {
   1566              if ((int)msg->data1==sock)
   \   000000A4   100098E5           LDR      R0,[R8, #+16]
   \   000000A8   BC1094E5           LDR      R1,[R4, #+188]
   \   000000AC   010050E1           CMP      R0,R1
   \   000000B0   2800001A           BNE      ??MyIDLECSM_onMessage_5
   1567              {
   1568                switch((int)msg->data0)
   \   000000B4   0C3098E5           LDR      R3,[R8, #+12]
   \   000000B8   C02094E5           LDR      R2,[R4, #+192]
   \   000000BC   ........           LDR      R1,??DataTable30  ;; create_connect
   \   000000C0   60029FE5           LDR      R0,??MyIDLECSM_onMessage_1+0x4  ;; end_socket
   \   000000C4   8C3053E2           SUBS     R3,R3,#+140
   \   000000C8   0B00000A           BEQ      ??MyIDLECSM_onMessage_6
   \   000000CC   013053E2           SUBS     R3,R3,#+1
   \   000000D0   0400000A           BEQ      ??MyIDLECSM_onMessage_7
   \   000000D4   013053E2           SUBS     R3,R3,#+1
   \   000000D8   1000000A           BEQ      ??MyIDLECSM_onMessage_8
   \   000000DC   013053E2           SUBS     R3,R3,#+1
   \   000000E0   0B00000A           BEQ      ??MyIDLECSM_onMessage_9
   \   000000E4   1B0000EA           B        ??MyIDLECSM_onMessage_5
   1569                {
   1570                case ENIP_SOCK_CONNECTED:
   1571                  if (connect_state==1)
   \                     ??MyIDLECSM_onMessage_7:
   \   000000E8   010052E3           CMP      R2,#+1
   1572                  {
   1573                    SUBPROC((void *)send_req);        
   \   000000EC   38029F05           LDREQ    R0,??MyIDLECSM_onMessage_1+0x8  ;; send_req
   \   000000F0   0100A011           MOVNE    R0,R1
   \                     ??MyIDLECSM_onMessage_10:
   \   000000F4   710100EF           SWI      +369
   \   000000F8   160000EA           B        ??MyIDLECSM_onMessage_5
   1574                  }
   1575                  else
   1576                    {
   1577                    SUBPROC((void *)create_connect); 
   1578                    }
   1579                  break;
   1580                case ENIP_SOCK_DATA_READ:
   1581                  if (connect_state==2)
   \                     ??MyIDLECSM_onMessage_6:
   \   000000FC   020052E3           CMP      R2,#+2
   \   00000100   0100001A           BNE      ??MyIDLECSM_onMessage_11
   1582                  {
   1583                    SUBPROC((void *)get_answer);
   \   00000104   24029FE5           LDR      R0,??MyIDLECSM_onMessage_1+0xC  ;; get_answer
   \   00000108   F9FFFFEA           B        ??MyIDLECSM_onMessage_10
   1584                  }
   1585                  else
   1586                  {
   1587                    SUBPROC((void *)create_connect);
   \                     ??MyIDLECSM_onMessage_11:
   \   0000010C   0100A0E1           MOV      R0,R1
   \   00000110   F7FFFFEA           B        ??MyIDLECSM_onMessage_10
   1588                  }
   1589                  break;
   1590                case ENIP_SOCK_REMOTE_CLOSED:
   1591                  if (connect_state) SUBPROC((void *)end_socket);
   \                     ??MyIDLECSM_onMessage_9:
   \   00000114   000052E3           CMP      R2,#+0
   \   00000118   0E00000A           BEQ      ??MyIDLECSM_onMessage_5
   \   0000011C   F4FFFFEA           B        ??MyIDLECSM_onMessage_10
   1592                  break;
   1593                case ENIP_SOCK_CLOSED:
   1594                  if (connect_state) SUBPROC((void *)end_socket);
   \                     ??MyIDLECSM_onMessage_8:
   \   00000120   000052E3           CMP      R2,#+0
   \   00000124   0000000A           BEQ      ??MyIDLECSM_onMessage_12
   \   00000128   710100EF           SWI      +369
   1595                  connect_state=3;
   \                     ??MyIDLECSM_onMessage_12:
   \   0000012C   0300A0E3           MOV      R0,#+3
   \   00000130   C00084E5           STR      R0,[R4, #+192]
   1596                  Parsing();
   \   00000134   ........           BL       Parsing
   1597                  sock=-1;
   1598                  GBS_StartTimerProc(&mytmr3, 12960*60, start_again);
   \   00000138   ........           LDR      R2,??DataTable31  ;; start_again
   \   0000013C   BC6084E5           STR      R6,[R4, #+188]
   \   00000140   BC1AA0E3           MOV      R1,#+770048
   \   00000144   761D81E3           ORR      R1,R1,#0x1D80
   \   00000148   BC00A0E3           MOV      R0,#+188
   \   0000014C   540D80E3           ORR      R0,R0,#0x1500
   \   00000150   040080E0           ADD      R0,R0,R4
   \   00000154   4D0000EF           SWI      +77
   1599                  break;
   1600                }
   1601              }
   1602            }
   1603            //==========================================weather
   1604          #ifdef NATICQ
   1605            //==========================================ipc naticq
   1606            if (msg->msg==MSG_IPC)
   1607              {
   1608                IPC_REQ *ipc;
   1609                if ((ipc=(IPC_REQ*)msg->data0))
   1610                {
   1611          	if (strcmp_nocase(ipc->name_to,ipc_my_name)==0)
   1612          	{
   1613          	  switch (msg->submess)
   1614          	  {
   1615          	  case IPC_RECIEVE_MSG:
   1616                      {
   1617                        char test[64];
   1618                        int len=strlen(ipc->data);
   1619                        sprintf(test,"%s",ipc->data);
   1620                        test[len]='\0';
   1621                        if(test[0]!='0')
   1622                        {
   1623                          if(test[0]=='1') naticq_plugin=1;
   1624                          if(test[0]=='2') 
   1625                          {
   1626                            naticq_plugin=0;
   1627                            sprintf(naticq_ping, "none");
   1628                          }
   1629                        }
   1630                        if(naticq_plugin)
   1631                        {
   1632                          if(test[1]!='0')
   1633                          {
   1634                            if(test[1]=='1');
   1635                            {
   1636                              strncpy(naticq_time,test+2,8);
   1637                              naticq_time[8]='\0';
   1638                            }
   1639                            if(test[1]=='2')
   1640                            {
   1641                              strncpy(naticq_time,test+2,8);
   1642                              naticq_time[8]='\0';
   1643                              strncpy(naticq_ping,test+10,6);
   1644                              naticq_ping[6]='\0';
   1645                            }
   1646                          }
   1647                        }
   1648                      }
   1649          	    break;
   1650                    }
   1651                  }
   1652                }
   1653              }
   1654            //==========================================ipc naticq
   1655          #endif
   1656          #ifdef EVILFOX
   1657            if((!main_clock)&&(IsIdleUiOnTop()))
   \                     ??MyIDLECSM_onMessage_5:
   \   00000158   340094E5           LDR      R0,[R4, #+52]
   \   0000015C   0180A0E3           MOV      R8,#+1
   \   00000160   000050E3           CMP      R0,#+0
   \   00000164   0400001A           BNE      ??MyIDLECSM_onMessage_13
   \   00000168   C50000EF           SWI      +197
   \   0000016C   000050E3           CMP      R0,#+0
   \   00000170   0200000A           BEQ      ??MyIDLECSM_onMessage_14
   1658            {
   1659              EngadeClock();
   \   00000174   ........           _BLF     EngadeClock,??EngadeClock??rA
   1660              main_clock=1;
   \   00000178   348084E5           STR      R8,[R4, #+52]
   1661            }
   1662          #endif
   1663            if(rem_mis!=GetMissedEventCount(0))
                               ^
Warning[Pe223]: function "GetMissedEventCount" declared implicitly
   \                     ??MyIDLECSM_onMessage_13:
   \   0000017C   0000A0E3           MOV      R0,#+0
   \                     ??MyIDLECSM_onMessage_14:
   \   00000180   ........           _BLF     GetMissedEventCount,??GetMissedEventCount??rA
   \   00000184   E41094E5           LDR      R1,[R4, #+228]
   \   00000188   000051E1           CMP      R1,R0
   \   0000018C   0E00000A           BEQ      ??MyIDLECSM_onMessage_15
   1664            {
   1665              if(GetMissedEventCount(0)<rem_mis) rem_mis=GetMissedEventCount(0);
   \   00000190   0000A0E3           MOV      R0,#+0
   \   00000194   ........           _BLF     GetMissedEventCount,??GetMissedEventCount??rA
   \   00000198   E41094E5           LDR      R1,[R4, #+228]
   \   0000019C   010050E1           CMP      R0,R1
   \   000001A0   0000A0E3           MOV      R0,#+0
   \   000001A4   020000AA           BGE      ??MyIDLECSM_onMessage_16
   \   000001A8   ........           _BLF     GetMissedEventCount,??GetMissedEventCount??rA
   \   000001AC   E40084E5           STR      R0,[R4, #+228]
   \   000001B0   050000EA           B        ??MyIDLECSM_onMessage_15
   1666              else
   1667              {
   1668                rem_mis=GetMissedEventCount(0);
   \                     ??MyIDLECSM_onMessage_16:
   \   000001B4   ........           _BLF     GetMissedEventCount,??GetMissedEventCount??rA
   1669                GBS_StartTimerProc(&missedt, 216*3, start_timerize);
   \   000001B8   74219FE5           LDR      R2,??MyIDLECSM_onMessage_1+0x10  ;; start_timerize
   \   000001BC   E40084E5           STR      R0,[R4, #+228]
   \   000001C0   70019FE5           LDR      R0,??MyIDLECSM_onMessage_1+0x14  ;; missedt
   \   000001C4   A21FA0E3           MOV      R1,#+648
   \   000001C8   4D0000EF           SWI      +77
   1670              }
   1671            }
   1672            if((IsGPRSConnected())&&(first_con))
   \                     ??MyIDLECSM_onMessage_15:
   \   000001CC   A80000EF           SWI      +168
   \   000001D0   000050E3           CMP      R0,#+0
   \   000001D4   54009415           LDRNE    R0,[R4, #+84]
   \   000001D8   0090A0E3           MOV      R9,#+0
   \   000001DC   00005013           CMPNE    R0,#+0
   \   000001E0   0B00000A           BEQ      ??MyIDLECSM_onMessage_17
   1673            {
   1674            int *trafik = GetGPRSTrafficPointer();
   1675            start_traffic=*trafik;
   \   000001E4   700000EF           SWI      +112
   \   000001E8   000090E5           LDR      R0,[R0, #+0]
   1676          /*  TTime time;
   1677            TDate date;
   1678            GetDateTime(&date, &time);
   1679            sprintf(start_g, "%02d:%02d %02d-%02d", time.hour, time.min, date.month, date.day);*/
   1680            g_min=0;
   \   000001EC   D49084E5           STR      R9,[R4, #+212]
   \   000001F0   A40084E5           STR      R0,[R4, #+164]
   1681            g_sec=0;
   \   000001F4   D89084E5           STR      R9,[R4, #+216]
   1682            g_hour=0;
   \   000001F8   DC9084E5           STR      R9,[R4, #+220]
   1683            GBS_DelTimer(&gipi);
   \   000001FC   DC00A0E3           MOV      R0,#+220
   \   00000200   540D80E3           ORR      R0,R0,#0x1500
   \   00000204   040080E0           ADD      R0,R0,R4
   \   00000208   8C0100EF           SWI      +396
   1684            Count_GPRS();
   \   0000020C   ........           BL       Count_GPRS
   1685            first_con=0;
   \   00000210   549084E5           STR      R9,[R4, #+84]
   1686            }
   1687            if(!IsGPRSConnected()) first_con=1;
   \                     ??MyIDLECSM_onMessage_17:
   \   00000214   A80000EF           SWI      +168
   \   00000218   000050E3           CMP      R0,#+0
   \   0000021C   54808405           STREQ    R8,[R4, #+84]
   1688            if(GetAccessoryType()==13) 
   \   00000220   880000EF           SWI      +136
   \   00000224   0D0050E3           CMP      R0,#+13
   \   00000228   B80094E5           LDR      R0,[R4, #+184]
   \   0000022C   0C00001A           BNE      ??MyIDLECSM_onMessage_18
   1689            {
   1690              if(!con) 
   \   00000230   000050E3           CMP      R0,#+0
   \   00000234   0300001A           BNE      ??MyIDLECSM_onMessage_19
   1691              {
   1692                charge_s=0;
   \   00000238   D09084E5           STR      R9,[R4, #+208]
   1693                charge_m=0;
   \   0000023C   CC9084E5           STR      R9,[R4, #+204]
   1694                charger_c();
   \   00000240   ........           BL       charger_c
   1695                con=1;
   \   00000244   B88084E5           STR      R8,[R4, #+184]
   1696              }
   1697              sprintf(chinfo, "Charging(%dmin)", charge_m);
   \                     ??MyIDLECSM_onMessage_19:
   \   00000248   CC2094E5           LDR      R2,[R4, #+204]
   \   0000024C   1C1087E2           ADD      R1,R7,#+28
   \   00000250   E80084E2           ADD      R0,R4,#+232
   \   00000254   160000EF           SWI      +22
   \   00000258   0500A0E1           MOV      R0,R5
   \   0000025C   4CD08DE2           ADD      SP,SP,#+76
   \   00000260   F083BDE8           POP      {R4-R9,PC}
   1698            }
   1699            else 
   1700            {
   1701              if(con)
   \                     ??MyIDLECSM_onMessage_18:
   \   00000264   000050E3           CMP      R0,#+0
   \   00000268   2A00000A           BEQ      ??MyIDLECSM_onMessage_20
   1702              {
   1703                GBS_DelTimer(&charger);
   \   0000026C   CC00A0E3           MOV      R0,#+204
   \   00000270   540D80E3           ORR      R0,R0,#0x1500
   \   00000274   040080E0           ADD      R0,R0,R4
   \   00000278   8C0100EF           SWI      +396
   1704                TTime time;
   1705                TDate date;
   1706                GetDateTime(&date, &time);
   \   0000027C   08108DE2           ADD      R1,SP,#+8
   \   00000280   10008DE2           ADD      R0,SP,#+16
   \   00000284   B40000EF           SWI      +180
   1707                sprintf(chinfo, "%02d:%02d, %02d-%02d", time.hour, time.min, date.month, date.day);
   \   00000288   1500DDE5           LDRB     R0,[SP, #+21]
   \   0000028C   2C1087E2           ADD      R1,R7,#+44
   \   00000290   01002DE9           PUSH     {R0}
   \   00000294   1800DDE5           LDRB     R0,[SP, #+24]
   \   00000298   01002DE9           PUSH     {R0}
   \   0000029C   1130DDE5           LDRB     R3,[SP, #+17]
   \   000002A0   1020DDE5           LDRB     R2,[SP, #+16]
   \   000002A4   E80084E2           ADD      R0,R4,#+232
   \   000002A8   160000EF           SWI      +22
   1708                volatile int hFile;
   1709                unsigned int io_error = 0;
   \   000002AC   08908DE5           STR      R9,[SP, #+8]
   1710                unsigned int ul;
   1711                FSTATS stat;
   1712                GetFileStats("4:\\zbin\\miosd\\miosd.file",&stat,&ul);
   \   000002B0   28208DE2           ADD      R2,SP,#+40
   \   000002B4   2C108DE2           ADD      R1,SP,#+44
   \   000002B8   440087E2           ADD      R0,R7,#+68
   \   000002BC   840000EF           SWI      +132
   1713                hFile = fopen("4:\\zbin\\miosd\\miosd.file",A_ReadWrite+A_Create+A_Truncate+ A_BIN,P_READ+P_WRITE, &io_error);
   \   000002C0   08308DE2           ADD      R3,SP,#+8
   \   000002C4   602FA0E3           MOV      R2,#+384
   \   000002C8   0210A0E3           MOV      R1,#+2
   \   000002CC   831C81E3           ORR      R1,R1,#0x8300
   \   000002D0   440087E2           ADD      R0,R7,#+68
   \   000002D4   0A0000EF           SWI      +10
   \   000002D8   0C008DE5           STR      R0,[SP, #+12]
   1714                if(hFile!=-1)
   \   000002DC   0C009DE5           LDR      R0,[SP, #+12]
   \   000002E0   08D08DE2           ADD      SP,SP,#+8
   \   000002E4   060050E1           CMP      R0,R6
   \   000002E8   0900000A           BEQ      ??MyIDLECSM_onMessage_21
   1715                {
   1716                  fwrite(hFile, chinfo, strlen(chinfo), &io_error);
   \   000002EC   E80084E2           ADD      R0,R4,#+232
   \   000002F0   1B0000EF           SWI      +27
   \   000002F4   0020A0E1           MOV      R2,R0
   \   000002F8   04009DE5           LDR      R0,[SP, #+4]
   \   000002FC   0D30A0E1           MOV      R3,SP
   \   00000300   E81084E2           ADD      R1,R4,#+232
   \   00000304   0C0000EF           SWI      +12
   1717                  fclose(hFile, &io_error);
   \   00000308   04009DE5           LDR      R0,[SP, #+4]
   \   0000030C   0D10A0E1           MOV      R1,SP
   \   00000310   0D0000EF           SWI      +13
   1718                }
   1719                con=0;
   \                     ??MyIDLECSM_onMessage_21:
   \   00000314   B89084E5           STR      R9,[R4, #+184]
   1720              }
   1721            }
   1722            return(csm_result);
   \                     ??MyIDLECSM_onMessage_20:
   \   00000318   0500A0E1           MOV      R0,R5
   \   0000031C   4CD08DE2           ADD      SP,SP,#+76
   \   00000320   F083BDE8           POP      {R4-R9,PC}       ;; return
   \                     ??MyIDLECSM_onMessage_1:
   \   00000324   ........           DC32     successed_config_filename
   \   00000328   ........           DC32     end_socket
   \   0000032C   ........           DC32     send_req
   \   00000330   ........           DC32     get_answer
   \   00000334   ........           DC32     start_timerize
   \   00000338   ........           DC32     missedt
   1723          }  
   1724          
   1725          /*
   1726          int my_keyhook(int key, int m)
   1727          {
   1728            void *icsm=FindCSMbyID(CSM_root()->idle_id);
   1729            if ((IsGuiOnTop(((int *)icsm)[DISPLACE_OF_IDLEGUI_ID/4]))&&IsUnlocked()&&(m==KEY_DOWN)&&(!IsScreenSaver()))
   1730            {
   1731               if (key==RIGHT_BUTTON)||(key==LEFT_BUTTON)) 
   1732                 {
   1733                 doit:
   1734                   LockSched();
   1735                   char dummy[sizeof(MAIN_CSM)];
   1736                   UpdateCSMname();
   1737                   MAINCSM_ID=CreateCSM(&MAINCSM.maincsm,dummy,2);
   1738                   UnlockSched();
   1739                   lock_keys=0;
   1740                   phase=1;
   1741                  // pos=1;
   1742                   if((key==RIGHT_BUTTON)||((key==0x0D)&&(LONG_PRESS)&&(!ker_state)))
   1743                   {
   1744                     ker_state=1;
   1745                     pos_main_x=-20;
   1746                     pos_main_y=50;
   1747                     pos_link_x=0;
   1748                   //  pos_link_y=pos_main_y+8;
   1749                     pos_link_y=pos_main_y-12+(pos*20);
   1750                     pos_msg_x=29;
   1751                     key_mode=1;
   1752                   }
   1753                   if(key==LEFT_BUTTON)
   1754                   {
   1755                     ker_state=1;
   1756                     pos_main_x=132;
   1757                     pos_main_y=50;
   1758                     pos_link_x=112;
   1759                    // pos_link_y=pos_main_y+8;
   1760                     pos_link_y=pos_main_y-12+(pos*20);
   1761                     pos_msg_x=6;
   1762                     key_mode=2;
   1763                   }
   1764                   DoScreen();
   1765                   DoShowIt();
   1766                 }
   1767            }
   1768            else
   1769              if((key==0x0D)&&(m==LONG_PRESS)&&(!ker_state)&&(!IsGuiOnTop(((int *)icsm)[DISPLACE_OF_IDLEGUI_ID/4])))
   1770                goto doit;
   1771            
   1772            return 0;
   1773          }*/
   1774          
   1775          int mode_enter;
   1776          int mode;
   1777          #ifdef EVILFOX
   1778          int CALL_BUTTON=1;
   1779          #else
   1780          extern const unsigned int CALL_BUTTON;
   1781          extern const unsigned int CALL_BUTTON2;
   1782          #endif
   1783          

   \                                 In segment CODE, align 4, keep-with-next
   1784          void Execute()
   1785          {
   \                     Execute:
   \   00000000   10402DE9           PUSH     {R4,LR}
   1786            LockSched();
   1787            char dummy[sizeof(MAIN_CSM)];
   1788            UpdateCSMname();
   1789            MAINCSM_ID=CreateCSM(&MAINCSM.maincsm,dummy,2);
   \   00000004   ........           LDR      R4,??DataTable38  ;; screen
   \   00000008   2CD04DE2           SUB      SP,SP,#+44
   \   0000000C   460100EF           SWI      +326
   \   00000010   ........           BL       UpdateCSMname
   \   00000014   68009FE5           LDR      R0,??Execute_0   ;; `?<Constant "MIOSD">` + 8
   \   00000018   0220A0E3           MOV      R2,#+2
   \   0000001C   0D10A0E1           MOV      R1,SP
   \   00000020   070100EF           SWI      +263
   \   00000024   500084E5           STR      R0,[R4, #+80]
   1790            UnlockSched();
   \   00000028   470100EF           SWI      +327
   1791            lock_keys=0;
   \   0000002C   0000A0E3           MOV      R0,#+0
   \   00000030   6C0084E5           STR      R0,[R4, #+108]
   1792            phase=1;
   1793            ker_state=1;
   1794            pos_main_x=-20;
   1795            pos_main_y=50;
   1796            pos_link_x=0;
   \   00000034   700084E5           STR      R0,[R4, #+112]
   1797            pos_link_y=pos_main_y-12+(pos*20);
   \   00000038   5C0094E5           LDR      R0,[R4, #+92]
   \   0000003C   1320E0E3           MVN      R2,#+19
   \   00000040   642084E5           STR      R2,[R4, #+100]
   \   00000044   3220A0E3           MOV      R2,#+50
   \   00000048   682084E5           STR      R2,[R4, #+104]
   \   0000004C   1420A0E3           MOV      R2,#+20
   \   00000050   920000E0           MUL      R0,R2,R0
   \   00000054   0110A0E3           MOV      R1,#+1
   \   00000058   601084E5           STR      R1,[R4, #+96]
   \   0000005C   381084E5           STR      R1,[R4, #+56]
   \   00000060   260080E2           ADD      R0,R0,#+38
   \   00000064   740084E5           STR      R0,[R4, #+116]
   1798            pos_msg_x=29;
   \   00000068   1D00A0E3           MOV      R0,#+29
   \   0000006C   780084E5           STR      R0,[R4, #+120]
   1799            key_mode=1;
   \   00000070   581084E5           STR      R1,[R4, #+88]
   1800            DoScreen();
   \   00000074   ........           BL       DoScreen
   1801            DoShowIt();
   \   00000078   ........           BL       DoShowIt
   1802          }
   \   0000007C   2CD08DE2           ADD      SP,SP,#+44
   \   00000080   1080BDE8           POP      {R4,PC}          ;; return
   \                     ??Execute_0:
   \   00000084   ........           DC32     `?<Constant "MIOSD">` + 8
   1803          
   1804          extern int alt_state;
   1805          

   \                                 In segment CODE, align 4, keep-with-next
   1806          int my_keyhook(int submsg, int msg)
   1807          {
   \                     my_keyhook:
   \   00000000   70402DE9           PUSH     {R4-R6,LR}
   \   00000004   0050A0E1           MOV      R5,R0
   1808            if((submsg==62)&&(IsIdleUiOnTop())&&(IsUnlocked())) Execute();
   \   00000008   3E0055E3           CMP      R5,#+62
   \   0000000C   0160A0E1           MOV      R6,R1
   \   00000010   0600001A           BNE      ??my_keyhook_0
   \   00000014   C50000EF           SWI      +197
   \   00000018   000050E3           CMP      R0,#+0
   \   0000001C   0300000A           BEQ      ??my_keyhook_0
   \   00000020   430000EF           SWI      +67
   \   00000024   000050E3           CMP      R0,#+0
   \   00000028   0000000A           BEQ      ??my_keyhook_0
   \   0000002C   ........           BL       Execute
   1809          #ifdef EVILFOX
   1810          #else
   1811            if(submsg==CALL_BUTTON2) {
   1812           //   DoScreen2();
   1813              alt_state=1;
   1814              process_missed();
   1815            }
   1816          #endif
   1817            if (submsg!=CALL_BUTTON) return(0);
   \                     ??my_keyhook_0:
   \   00000030   D0409FE5           LDR      R4,??my_keyhook_1  ;; mode_enter
   \   00000034   082094E5           LDR      R2,[R4, #+8]
   \   00000038   020055E1           CMP      R5,R2
   \   0000003C   0000A013           MOVNE    R0,#+0
   \   00000040   7080BD18           POPNE    {R4-R6,PC}
   1818            switch(msg)
   \   00000044   041094E5           LDR      R1,[R4, #+4]
   \   00000048   003094E5           LDR      R3,[R4, #+0]
   \   0000004C   0900A0E3           MOV      R0,#+9
   \   00000050   420C80E3           ORR      R0,R0,#0x4200
   \   00000054   0050A0E3           MOV      R5,#+0
   \   00000058   93C0A0E3           MOV      R12,#+147
   \   0000005C   40CF8CE3           ORR      R12,R12,#0x100
   \   00000060   0C0056E1           CMP      R6,R12
   \   00000064   0500000A           BEQ      ??my_keyhook_2
   \   00000068   650F56E3           CMP      R6,#+404
   \   0000006C   0C00000A           BEQ      ??my_keyhook_3
   \   00000070   02C08CE2           ADD      R12,R12,#+2
   \   00000074   0C0056E1           CMP      R6,R12
   \   00000078   1800000A           BEQ      ??my_keyhook_4
   \   0000007C   060000EA           B        ??my_keyhook_5
   1819            {
   1820            case KEY_DOWN:
   1821              if (mode_enter==2)
   \                     ??my_keyhook_2:
   \   00000080   020053E3           CMP      R3,#+2
   \   00000084   0300001A           BNE      ??my_keyhook_6
   1822              {
   1823                GBS_SendMessage(MMI_CEPID,KEY_UP,CALL_BUTTON);
   \   00000088   651FA0E3           MOV      R1,#+404
   \   0000008C   000100EF           SWI      +256
   1824                return (0);
   \   00000090   0000A0E3           MOV      R0,#+0
   \   00000094   7080BDE8           POP      {R4-R6,PC}
   1825              }
   1826              mode_enter=0;
   \                     ??my_keyhook_6:
   \   00000098   005084E5           STR      R5,[R4, #+0]
   1827              return (2);
   \                     ??my_keyhook_5:
   \   0000009C   0200A0E3           MOV      R0,#+2
   \   000000A0   7080BDE8           POP      {R4-R6,PC}
   1828            case KEY_UP:
   1829              if (mode==1)mode=0;
   \                     ??my_keyhook_3:
   \   000000A4   010051E3           CMP      R1,#+1
   \   000000A8   04508405           STREQ    R5,[R4, #+4]
   1830              if (mode_enter==0)
   \   000000AC   000053E3           CMP      R3,#+0
   \   000000B0   0500001A           BNE      ??my_keyhook_7
   1831              {
   1832                mode_enter=2;
   \   000000B4   0210A0E3           MOV      R1,#+2
   \   000000B8   001084E5           STR      R1,[R4, #+0]
   1833                GBS_SendMessage(MMI_CEPID,KEY_DOWN,CALL_BUTTON);
   \   000000BC   0C10A0E1           MOV      R1,R12
   \   000000C0   000100EF           SWI      +256
   1834                return (2);
   \   000000C4   0200A0E3           MOV      R0,#+2
   \   000000C8   7080BDE8           POP      {R4-R6,PC}
   1835              }
   1836              if (mode_enter==2)
   \                     ??my_keyhook_7:
   \   000000CC   020053E3           CMP      R3,#+2
   \   000000D0   F0FFFF1A           BNE      ??my_keyhook_6
   1837              {
   1838                mode_enter=0;
   \   000000D4   005084E5           STR      R5,[R4, #+0]
   1839                return (0);
   \   000000D8   0000A0E3           MOV      R0,#+0
   \   000000DC   7080BDE8           POP      {R4-R6,PC}
   1840              }
   1841              mode_enter=0;
   1842              return (2);      
   1843            case LONG_PRESS:
   1844              mode_enter=1;
   \                     ??my_keyhook_4:
   \   000000E0   0150A0E3           MOV      R5,#+1
   \   000000E4   005084E5           STR      R5,[R4, #+0]
   1845              if(mode==0)
   \   000000E8   000051E3           CMP      R1,#+0
   \   000000EC   0300001A           BNE      ??my_keyhook_8
   1846              {
   1847                if (IsUnlocked()) Execute();
   \   000000F0   430000EF           SWI      +67
   \   000000F4   000050E3           CMP      R0,#+0
   \   000000F8   0000000A           BEQ      ??my_keyhook_8
   \   000000FC   ........           BL       Execute
   1848              }
   1849              mode=1;
   \                     ??my_keyhook_8:
   \   00000100   045084E5           STR      R5,[R4, #+4]
   1850              break;
   1851            }
   1852          return(2); 
   \   00000104   E4FFFFEA           B        ??my_keyhook_5
   \                     ??my_keyhook_1:
   \   00000108   ........           DC32     mode_enter
   1853          }
   1854          

   \                                 In segment CODE, align 4, keep-with-next
   1855          void check_battery()
   1856          {
   \                     check_battery:
   \   00000000   F0402DE9           PUSH     {R4-R7,LR}
   1857            volatile int hFile_ex;
   1858            unsigned int io_error_ex = 0;
   1859            hFile_ex = fopen("4:\\zbin\\miosd\\miosd.file",A_ReadOnly + A_BIN,P_READ, &io_error_ex);
   \   00000004   ........           LDR      R5,??DataTable33  ;; `?<Constant "MIOSD 1.5 config upda...">`
   \   00000008   34D04DE2           SUB      SP,SP,#+52
   \   0000000C   0010A0E3           MOV      R1,#+0
   \   00000010   08108DE5           STR      R1,[SP, #+8]
   \   00000014   08308DE2           ADD      R3,SP,#+8
   \   00000018   8020A0E3           MOV      R2,#+128
   \   0000001C   801CA0E3           MOV      R1,#+32768
   1860            if(hFile_ex!=-1)
   \   00000020   ........           LDR      R4,??DataTable38  ;; screen
   \   00000024   440085E2           ADD      R0,R5,#+68
   \   00000028   0A0000EF           SWI      +10
   \   0000002C   04008DE5           STR      R0,[SP, #+4]
   \   00000030   04009DE5           LDR      R0,[SP, #+4]
   \   00000034   010070E3           CMN      R0,#+1
   \   00000038   2500000A           BEQ      ??check_battery_0
   1861            {
   1862               fclose(hFile_ex, &io_error_ex);
   \   0000003C   04009DE5           LDR      R0,[SP, #+4]
   \   00000040   08108DE2           ADD      R1,SP,#+8
   \   00000044   0D0000EF           SWI      +13
   1863               int f;
   1864              int fsize;
   1865              FSTATS stat;
   1866              unsigned int ul;
   1867              GetFileStats("4:\\zbin\\miosd\\miosd.file",&stat,&ul);
   \   00000048   0D20A0E1           MOV      R2,SP
   \   0000004C   0C108DE2           ADD      R1,SP,#+12
   \   00000050   440085E2           ADD      R0,R5,#+68
   \   00000054   840000EF           SWI      +132
   1868              if(stat.size>0)
   \   00000058   10009DE5           LDR      R0,[SP, #+16]
   \   0000005C   000050E3           CMP      R0,#+0
   \   00000060   1E00000A           BEQ      ??check_battery_1
   1869              {
   1870                f=fopen("4:\\zbin\\miosd\\miosd.file",A_ReadOnly+A_BIN,P_READ,&ul);
   \   00000064   0D30A0E1           MOV      R3,SP
   \   00000068   8020A0E3           MOV      R2,#+128
   \   0000006C   801CA0E3           MOV      R1,#+32768
   \   00000070   440085E2           ADD      R0,R5,#+68
   \   00000074   0A0000EF           SWI      +10
   1871                fsize=stat.size;
   \   00000078   10609DE5           LDR      R6,[SP, #+16]
   \   0000007C   0050A0E1           MOV      R5,R0
   1872                char *p=malloc(fsize);
   \   00000080   0600A0E1           MOV      R0,R6
   \   00000084   140000EF           SWI      +20
   \   00000088   0070A0E1           MOV      R7,R0
   1873                p[fread(f,p,fsize,&ul)];
   \   0000008C   0D30A0E1           MOV      R3,SP
   \   00000090   0620A0E1           MOV      R2,R6
   \   00000094   0710A0E1           MOV      R1,R7
   \   00000098   0500A0E1           MOV      R0,R5
   \   0000009C   0B0000EF           SWI      +11
   1874                fclose(f,&ul);
   \   000000A0   0D10A0E1           MOV      R1,SP
   \   000000A4   0500A0E1           MOV      R0,R5
   \   000000A8   0D0000EF           SWI      +13
   1875                strcpy(chinfo, p);
   \   000000AC   0710A0E1           MOV      R1,R7
   \   000000B0   E80084E2           ADD      R0,R4,#+232
   \   000000B4   1A0000EF           SWI      +26
   1876                chinfo[fsize]='\0';
   \   000000B8   040086E0           ADD      R0,R6,R4
   \   000000BC   0010A0E3           MOV      R1,#+0
   \   000000C0   E810C0E5           STRB     R1,[R0, #+232]
   1877                mfree(p);
   \   000000C4   0700A0E1           MOV      R0,R7
   \   000000C8   150000EF           SWI      +21
   \   000000CC   34D08DE2           ADD      SP,SP,#+52
   \   000000D0   F080BDE8           POP      {R4-R7,PC}
   1878              }
   1879            }
   1880            else
   1881              sprintf(chinfo, "Never");
   \                     ??check_battery_0:
   \   000000D4   601085E2           ADD      R1,R5,#+96
   \   000000D8   E80084E2           ADD      R0,R4,#+232
   \   000000DC   160000EF           SWI      +22
   1882          }
   \                     ??check_battery_1:
   \   000000E0   34D08DE2           ADD      SP,SP,#+52       ;; stack cleaning
   \   000000E4   F080BDE8           POP      {R4-R7,PC}       ;; return
   1883          

   \                                 In segment CODE, align 4, keep-with-next
   1884          void check_gprs()
   1885          {
   \                     check_gprs:
   \   00000000   F0412DE9           PUSH     {R4-R8,LR}
   1886            volatile int hFile_ex;
   1887            unsigned int io_error_ex = 0;
   1888            hFile_ex = fopen("4:\\zbin\\miosd\\miosd2.file",A_ReadOnly + A_BIN,P_READ, &io_error_ex);
   \   00000004   ........           LDR      R6,??DataTable35  ;; `?<Constant "4:\\\\zbin\\\\miosd\\\\miosd2....">`
   \   00000008   34D04DE2           SUB      SP,SP,#+52
   \   0000000C   0010A0E3           MOV      R1,#+0
   \   00000010   08108DE5           STR      R1,[SP, #+8]
   \   00000014   08308DE2           ADD      R3,SP,#+8
   \   00000018   8020A0E3           MOV      R2,#+128
   \   0000001C   801CA0E3           MOV      R1,#+32768
   1889            if(hFile_ex!=-1)
   \   00000020   ........           LDR      R5,??DataTable38  ;; screen
   \   00000024   0600A0E1           MOV      R0,R6
   \   00000028   0A0000EF           SWI      +10
   \   0000002C   04008DE5           STR      R0,[SP, #+4]
   \   00000030   04009DE5           LDR      R0,[SP, #+4]
   \   00000034   5A4FA0E3           MOV      R4,#+360
   \   00000038   010070E3           CMN      R0,#+1
   \   0000003C   2800000A           BEQ      ??check_gprs_0
   1890            {
   1891               fclose(hFile_ex, &io_error_ex);
   \   00000040   04009DE5           LDR      R0,[SP, #+4]
   \   00000044   08108DE2           ADD      R1,SP,#+8
   \   00000048   0D0000EF           SWI      +13
   1892               int f;
   1893              int fsize;
   1894              FSTATS stat;
   1895              unsigned int ul;
   1896              GetFileStats("4:\\zbin\\miosd\\miosd2.file",&stat,&ul);
   \   0000004C   0D20A0E1           MOV      R2,SP
   \   00000050   0C108DE2           ADD      R1,SP,#+12
   \   00000054   0600A0E1           MOV      R0,R6
   \   00000058   840000EF           SWI      +132
   1897              if(stat.size>0)
   \   0000005C   10009DE5           LDR      R0,[SP, #+16]
   \   00000060   000050E3           CMP      R0,#+0
   \   00000064   2100000A           BEQ      ??check_gprs_1
   1898              {
   1899                f=fopen("4:\\zbin\\miosd\\miosd2.file",A_ReadOnly+A_BIN,P_READ,&ul);
   \   00000068   0D30A0E1           MOV      R3,SP
   \   0000006C   8020A0E3           MOV      R2,#+128
   \   00000070   801CA0E3           MOV      R1,#+32768
   \   00000074   0600A0E1           MOV      R0,R6
   \   00000078   0A0000EF           SWI      +10
   1900                fsize=stat.size;
   \   0000007C   10709DE5           LDR      R7,[SP, #+16]
   \   00000080   0060A0E1           MOV      R6,R0
   1901                char *p=malloc(fsize);
   \   00000084   0700A0E1           MOV      R0,R7
   \   00000088   140000EF           SWI      +20
   \   0000008C   0080A0E1           MOV      R8,R0
   1902                p[fread(f,p,fsize,&ul)];
   \   00000090   0D30A0E1           MOV      R3,SP
   \   00000094   0720A0E1           MOV      R2,R7
   \   00000098   0810A0E1           MOV      R1,R8
   \   0000009C   0600A0E1           MOV      R0,R6
   \   000000A0   0B0000EF           SWI      +11
   1903                fclose(f,&ul);
   \   000000A4   0D10A0E1           MOV      R1,SP
   \   000000A8   0600A0E1           MOV      R0,R6
   \   000000AC   0D0000EF           SWI      +13
   1904                strcpy(gpinfo, p);
   \   000000B0   0810A0E1           MOV      R1,R8
   \   000000B4   050084E0           ADD      R0,R4,R5
   \   000000B8   1A0000EF           SWI      +26
   1905                gpinfo[fsize]='\0';
   \   000000BC   050087E0           ADD      R0,R7,R5
   \   000000C0   0010A0E3           MOV      R1,#+0
   \   000000C4   6811C0E5           STRB     R1,[R0, #+360]
   1906                mfree(p);
   \   000000C8   0800A0E1           MOV      R0,R8
   \   000000CC   150000EF           SWI      +21
   1907                isfile=1;
   \   000000D0   0100A0E3           MOV      R0,#+1
   \   000000D4   AC0085E5           STR      R0,[R5, #+172]
   1908                write_total();
   \   000000D8   ........           _BLF     write_total,??write_total??rA
   \   000000DC   34D08DE2           ADD      SP,SP,#+52
   \   000000E0   F081BDE8           POP      {R4-R8,PC}
   1909              }
   1910            }
   1911            else
   1912              sprintf(gpinfo, "Unknown");
   \                     ??check_gprs_0:
   \   000000E4   1C1086E2           ADD      R1,R6,#+28
   \   000000E8   050084E0           ADD      R0,R4,R5
   \   000000EC   160000EF           SWI      +22
   1913          }
   \                     ??check_gprs_1:
   \   000000F0   34D08DE2           ADD      SP,SP,#+52       ;; stack cleaning
   \   000000F4   F081BDE8           POP      {R4-R8,PC}       ;; return

   \                                 In segment DATA_I, align 4, align-sorted
   \                     screen:
   \   00000000                      DS8 12
   \   0000000C                      REQUIRE `?<Initializer for screen>`
   \                     icsmd:
   \   0000000C                      DS8 40
   \   00000034                      REQUIRE `?<Initializer for icsmd>`
   \                     main_clock:
   \   00000034                      DS8 4
   \   00000038                      REQUIRE `?<Initializer for main_clock>`
   \                     ker_state:
   \   00000038                      DS8 4
   \   0000003C                      REQUIRE `?<Initializer for ker_state>`
   \                     r_s:
   \   0000003C                      DS8 4
   \   00000040                      REQUIRE `?<Initializer for r_s>`
   \                     r_m:
   \   00000040                      DS8 4
   \   00000044                      REQUIRE `?<Initializer for r_m>`
   \                     r_h:
   \   00000044                      DS8 4
   \   00000048                      REQUIRE `?<Initializer for r_h>`
   \                     old_icsm_onMessage:
   \   00000048                      DS8 4
   \   0000004C                      REQUIRE `?<Initializer for old_icsm_onMessage>`
   \                     old_icsm_onClose:
   \   0000004C                      DS8 4
   \   00000050                      REQUIRE `?<Initializer for old_icsm_onClose>`
   \                     MAINCSM_ID:
   \   00000050                      DS8 4
   \   00000054                      REQUIRE `?<Initializer for MAINCSM_ID>`
   \                     first_con:
   \   00000054                      DS8 4
   \   00000058                      REQUIRE `?<Initializer for first_con>`
   \                     key_mode:
   \   00000058                      DS8 4
   \   0000005C                      REQUIRE `?<Initializer for key_mode>`
   \                     pos:
   \   0000005C                      DS8 4
   \   00000060                      REQUIRE `?<Initializer for pos>`
   \                     phase:
   \   00000060                      DS8 4
   \   00000064                      REQUIRE `?<Initializer for phase>`
   \                     pos_main_x:
   \   00000064                      DS8 4
   \   00000068                      REQUIRE `?<Initializer for pos_main_x>`
   \                     pos_main_y:
   \   00000068                      DS8 4
   \   0000006C                      REQUIRE `?<Initializer for pos_main_y>`
   \                     lock_keys:
   \   0000006C                      DS8 4
   \   00000070                      REQUIRE `?<Initializer for lock_keys>`
   \                     pos_link_x:
   \   00000070                      DS8 4
   \   00000074                      REQUIRE `?<Initializer for pos_link_x>`
   \                     pos_link_y:
   \   00000074                      DS8 4
   \   00000078                      REQUIRE `?<Initializer for pos_link_y>`
   \                     pos_msg_x:
   \   00000078                      DS8 4
   \   0000007C                      REQUIRE `?<Initializer for pos_msg_x>`
   \                     pos_msg_y:
   \   0000007C                      DS8 4
   \   00000080                      REQUIRE `?<Initializer for pos_msg_y>`
   \                     engade_weather:
   \   00000080                      DS8 4
   \   00000084                      REQUIRE `?<Initializer for engade_weather>`
   \                     app_pos:
   \   00000084                      DS8 4
   \   00000088                      REQUIRE `?<Initializer for app_pos>`
   \                     pos_link2_x:
   \   00000088                      DS8 4
   \   0000008C                      REQUIRE `?<Initializer for pos_link2_x>`
   \                     pos_link2_y:
   \   0000008C                      DS8 4
   \   00000090                      REQUIRE `?<Initializer for pos_link2_y>`
   \                     battery:
   \   00000090                      DS8 4
   \   00000094                      REQUIRE `?<Initializer for battery>`
   \                     monthc:
   \   00000094                      DS8 4
   \   00000098                      REQUIRE `?<Initializer for monthc>`
   \                     hmm:
   \   00000098                      DS8 4
   \   0000009C                      REQUIRE `?<Initializer for hmm>`
   \                     ggg:
   \   0000009C                      DS8 4
   \   000000A0                      REQUIRE `?<Initializer for ggg>`
   \                     trafiks:
   \   000000A0                      DS8 4
   \   000000A4                      REQUIRE `?<Initializer for trafiks>`
   \                     start_traffic:
   \   000000A4                      DS8 4
   \   000000A8                      REQUIRE `?<Initializer for start_traffic>`
   \                     ffq:
   \   000000A8                      DS8 4
   \   000000AC                      REQUIRE `?<Initializer for ffq>`
   \                     isfile:
   \   000000AC                      DS8 4
   \   000000B0                      REQUIRE `?<Initializer for isfile>`
   \                     switch_gprs_info:
   \   000000B0                      DS8 4
   \   000000B4                      REQUIRE `?<Initializer for switch_gprs_info>`
   \                     do_st:
   \   000000B4                      DS8 4
   \   000000B8                      REQUIRE `?<Initializer for do_st>`
   \                     con:
   \   000000B8                      DS8 4
   \   000000BC                      REQUIRE `?<Initializer for con>`
   \                     sock:
   \   000000BC                      DS8 4
   \   000000C0                      REQUIRE `?<Initializer for sock>`
   \                     connect_state:
   \   000000C0                      DS8 4
   \   000000C4                      REQUIRE `?<Initializer for connect_state>`
   \                     pbuf:
   \   000000C4                      DS8 4
   \   000000C8                      REQUIRE `?<Initializer for pbuf>`
   \                     traf:
   \   000000C8                      DS8 4
   \   000000CC                      REQUIRE `?<Initializer for traf>`
   \                     charge_m:
   \   000000CC                      DS8 4
   \   000000D0                      REQUIRE `?<Initializer for charge_m>`
   \                     charge_s:
   \   000000D0                      DS8 4
   \   000000D4                      REQUIRE `?<Initializer for charge_s>`
   \                     g_min:
   \   000000D4                      DS8 4
   \   000000D8                      REQUIRE `?<Initializer for g_min>`
   \                     g_sec:
   \   000000D8                      DS8 4
   \   000000DC                      REQUIRE `?<Initializer for g_sec>`
   \                     g_hour:
   \   000000DC                      DS8 4
   \   000000E0                      REQUIRE `?<Initializer for g_hour>`
   \                     rewriter:
   \   000000E0                      DS8 4
   \   000000E4                      REQUIRE `?<Initializer for rewriter>`
   \                     rem_mis:
   \   000000E4                      DS8 4
   \   000000E8                      REQUIRE `?<Initializer for rem_mis>`
   \                     chinfo:
   \   000000E8                      DS8 32
   \   00000108                      REQUIRE `?<Initializer for chinfo>`
   \                     temp:
   \   00000108                      DS8 32
   \   00000128                      REQUIRE `?<Initializer for temp>`
   \                     vejsh:
   \   00000128                      DS8 32
   \   00000148                      REQUIRE `?<Initializer for vejsh>`
   \                     s_icon1:
   \   00000148                      DS8 32
   \   00000168                      REQUIRE `?<Initializer for s_icon1>`
   \                     gpinfo:
   \   00000168                      DS8 32
   \   00000188                      REQUIRE `?<Initializer for gpinfo>`
   \                     mytmr:
   \   00000188                      DS8 16
   \   00000198                      REQUIRE `?<Initializer for mytmr>`
   \                     start_g2:
   \   00000198                      DS8 32
   \   000001B8                      REQUIRE `?<Initializer for start_g2>`
   \                     temp2:
   \   000001B8                      DS8 32
   \   000001D8                      REQUIRE `?<Initializer for temp2>`
   \                     vejsh2:
   \   000001D8                      DS8 32
   \   000001F8                      REQUIRE `?<Initializer for vejsh2>`
   \                     weather_time:
   \   000001F8                      DS8 32
   \   00000218                      REQUIRE `?<Initializer for weather_time>`
   \                     month:
   \   00000218                      DS8 8
   \   00000220                      REQUIRE `?<Initializer for month>`
   \                     mytmr2:
   \   00000220                      DS8 16
   \   00000230                      REQUIRE `?<Initializer for mytmr2>`
   \                     buf:
   \   00000230                      DS8 5004
   \   000015BC                      REQUIRE `?<Initializer for buf>`
   \                     mytmr3:
   \   000015BC                      DS8 16
   \   000015CC                      REQUIRE `?<Initializer for mytmr3>`
   \                     charger:
   \   000015CC                      DS8 16
   \   000015DC                      REQUIRE `?<Initializer for charger>`
   \                     gipi:
   \   000015DC                      DS8 16
   \   000015EC                      REQUIRE `?<Initializer for gipi>`
   1914          
   1915          GBSTMR rs_tmr;
   \                     rs_tmr:
   \   000015EC                      DS8 16
   \   000015FC                      REQUIRE `?<Initializer for rs_tmr>`

   \                                 In segment DATA_I, align 4, align-sorted
   \                     mode_enter:
   \   00000000                      DS8 4
   \   00000004                      REQUIRE `?<Initializer for mode_enter>`
   \                     mode:
   \   00000004                      DS8 4
   \   00000008                      REQUIRE `?<Initializer for mode>`
   \                     CALL_BUTTON:
   \   00000008                      DS8 4
   \   0000000C                      REQUIRE `?<Initializer for CALL_BUTTON>`
   1916          

   \                                 In segment CODE, align 4, keep-with-next
   1917          void runtime_count()
   1918          {
   1919            r_s++;
   \                     runtime_count:
   \   00000000   ........           LDR      R0,??DataTable38  ;; screen
   \   00000004   00402DE9           PUSH     {LR}
   \   00000008   3C1090E5           LDR      R1,[R0, #+60]
   1920            if(r_s==60) 
   \   0000000C   402090E5           LDR      R2,[R0, #+64]
   \   00000010   011081E2           ADD      R1,R1,#+1
   \   00000014   3C0051E3           CMP      R1,#+60
   1921            {
   1922              r_s=0;
   \   00000018   0010A003           MOVEQ    R1,#+0
   1923              r_m++;
   \   0000001C   01208202           ADDEQ    R2,R2,#+1
   \   00000020   3C1080E5           STR      R1,[R0, #+60]
   1924            }
   1925            if(r_m==60)
   \   00000024   3C0052E3           CMP      R2,#+60
   \   00000028   0300001A           BNE      ??runtime_count_0
   1926            {
   1927              r_m=0;
   1928              r_h++;
   \   0000002C   441090E5           LDR      R1,[R0, #+68]
   \   00000030   0020A0E3           MOV      R2,#+0
   \   00000034   011081E2           ADD      R1,R1,#+1
   \   00000038   441080E5           STR      R1,[R0, #+68]
   \                     ??runtime_count_0:
   \   0000003C   402080E5           STR      R2,[R0, #+64]
   1929            }
   1930          /*  if(r_h==24)
   1931            {
   1932              r_h=0;
   1933              r_d++;
   1934            }*/
   1935            GBS_StartTimerProc(&rs_tmr, 216, runtime_count);
   \   00000040   14209FE5           LDR      R2,??runtime_count_1  ;; runtime_count
   \   00000044   D810A0E3           MOV      R1,#+216
   \   00000048   EC30A0E3           MOV      R3,#+236
   \   0000004C   543D83E3           ORR      R3,R3,#0x1500
   \   00000050   000083E0           ADD      R0,R3,R0
   \   00000054   4D0000EF           SWI      +77
   1936          }
   \   00000058   0080BDE8           POP      {PC}             ;; return
   \                     ??runtime_count_1:
   \   0000005C   ........           DC32     runtime_count
   1937          //  .       .

   \                                 In segment CODE, align 4, keep-with-next
   1938          int main(void)
   1939          {
   \                     main:
   \   00000000   30402DE9           PUSH     {R4,R5,LR}
   1940            LockSched();
   1941          #ifdef EVILFOX
   1942          #else
   1943            InitConfig();
   1944          #endif
   1945            CSM_RAM *icsm=FindCSMbyID(CSM_root()->idle_id);
   1946            memcpy(&icsmd,icsm->constr,sizeof(icsmd));
   \   00000004   ........           LDR      R5,??DataTable38  ;; screen
   \   00000008   460100EF           SWI      +326
   \   0000000C   068100EF           SWI      +33030
   \   00000010   040090E5           LDR      R0,[R0, #+4]
   \   00000014   080100EF           SWI      +264
   \   00000018   0040A0E1           MOV      R4,R0
   \   0000001C   081094E5           LDR      R1,[R4, #+8]
   \   00000020   2820A0E3           MOV      R2,#+40
   \   00000024   0C0085E2           ADD      R0,R5,#+12
   \   00000028   1E0100EF           SWI      +286
   1947            old_icsm_onMessage=icsmd.onMessage;
   \   0000002C   0C0095E5           LDR      R0,[R5, #+12]
   \   00000030   480085E5           STR      R0,[R5, #+72]
   1948            icsmd.onMessage=MyIDLECSM_onMessage;
   \   00000034   48009FE5           LDR      R0,??main_0      ;; MyIDLECSM_onMessage
   \   00000038   0C0085E5           STR      R0,[R5, #+12]
   1949            old_icsm_onClose=icsmd.onClose;
   \   0000003C   240095E5           LDR      R0,[R5, #+36]
   \   00000040   4C0085E5           STR      R0,[R5, #+76]
   1950            icsmd.onClose=MyIDLECSM_onClose;  
   \   00000044   3C009FE5           LDR      R0,??main_0+0x4  ;; MyIDLECSM_onClose
   \   00000048   240085E5           STR      R0,[R5, #+36]
   1951            icsm->constr=&icsmd;  
   \   0000004C   0C0085E2           ADD      R0,R5,#+12
   \   00000050   080084E5           STR      R0,[R4, #+8]
   1952            
   1953            AddKeybMsgHook((void *)my_keyhook);
   \   00000054   30009FE5           LDR      R0,??main_0+0x8  ;; my_keyhook
   \   00000058   2B0100EF           SWI      +299
   1954          
   1955            UnlockSched();
   \   0000005C   470100EF           SWI      +327
   1956            check_battery();
   \   00000060   ........           BL       check_battery
   1957            check_gprs();
   \   00000064   ........           BL       check_gprs
   1958            start_again();
   \   00000068   ........           BL       start_again
   1959            runtime_count();
   \   0000006C   ........           BL       runtime_count
   1960            first_con=1;
   \   00000070   0100A0E3           MOV      R0,#+1
   \   00000074   540085E5           STR      R0,[R5, #+84]
   1961            pos=1;
   \   00000078   5C0085E5           STR      R0,[R5, #+92]
   1962          #ifdef EVILFOX
   1963          #else
   1964            ShowMSG(1,(int)"MIOSD running (c)Evilfox");
   1965          #endif
   1966            
   1967            return 0;
   \   0000007C   0000A0E3           MOV      R0,#+0
   \   00000080   3080BDE8           POP      {R4,R5,PC}       ;; return
   \                     ??main_0:
   \   00000084   ........           DC32     MyIDLECSM_onMessage
   \   00000088   ........           DC32     MyIDLECSM_onClose
   \   0000008C   ........           DC32     my_keyhook
   1968          }

   \                                 In segment CODE, align 4, keep-with-next
   \                     ??DataTable0:
   \   00000000   ........           DC32     screen

   \                                 In segment CODE, align 4, keep-with-next
   \                     ??DataTable7:
   \   00000000   ........           DC32     screen

   \                                 In segment CODE, align 4, keep-with-next
   \                     ??DataTable8:
   \   00000000   ........           DC32     `?<Constant "[%t]">`

   \                                 In segment CODE, align 4, keep-with-next
   \                     ??DataTable12:
   \   00000000   ........           DC32     screen

   \                                 In segment CODE, align 4, keep-with-next
   \                     ??DataTable16:
   \   00000000   ........           DC32     ELF_BEGIN

   \                                 In segment CODE, align 4, keep-with-next
   \                     ??DataTable23:
   \   00000000   ........           DC32     screen

   \                                 In segment CODE, align 4, keep-with-next
   \                     ??DataTable30:
   \   00000000   ........           DC32     create_connect

   \                                 In segment CODE, align 4, keep-with-next
   \                     ??DataTable31:
   \   00000000   ........           DC32     start_again

   \                                 In segment CODE, align 4, keep-with-next
   \                     ??DataTable33:
   \   00000000   ........           DC32     `?<Constant "MIOSD 1.5 config upda...">`

   \                                 In segment CODE, align 4, keep-with-next
   \                     ??DataTable35:
   \   00000000   ........           DC32     `?<Constant "4:\\\\zbin\\\\miosd\\\\miosd2....">`

   \                                 In segment CODE, align 4, keep-with-next
   \                     ??DataTable38:
   \   00000000   ........           DC32     screen

   \                                 In segment DATA_ID, align 4, align-sorted
   \                     `?<Initializer for screen>`:
   \   00000000   00000000           DC16 0, 0
   \   00000004   08000000....       DC32 8, `?<Constant "">`
   \              ....        
   \                     `?<Initializer for icsmd>`:
   \   0000000C   000000000000       DC8 0, 0, 0, 0, 0, 0, 0, 0, 0, 0, 0, 0, 0, 0, 0, 0
   \              000000000000
   \              00000000    
   \   0000001C   000000000000       DC8 0, 0, 0, 0, 0, 0, 0, 0, 0, 0, 0, 0, 0, 0, 0, 0
   \              000000000000
   \              00000000    
   \   0000002C   000000000000       DC8 0, 0, 0, 0, 0, 0, 0, 0
   \              0000        
   \                     `?<Initializer for main_clock>`:
   \   00000034   00000000           DC8 0, 0, 0, 0
   \                     `?<Initializer for ker_state>`:
   \   00000038   00000000           DC8 0, 0, 0, 0
   \                     `?<Initializer for r_s>`:
   \   0000003C   14000000           DC32 20
   \                     `?<Initializer for r_m>`:
   \   00000040   00000000           DC8 0, 0, 0, 0
   \                     `?<Initializer for r_h>`:
   \   00000044   00000000           DC8 0, 0, 0, 0
   \                     `?<Initializer for old_icsm_onMessage>`:
   \   00000048   00000000           DC8 0, 0, 0, 0
   \                     `?<Initializer for old_icsm_onClose>`:
   \   0000004C   00000000           DC8 0, 0, 0, 0
   \                     `?<Initializer for MAINCSM_ID>`:
   \   00000050   00000000           DC8 0, 0, 0, 0
   \                     `?<Initializer for first_con>`:
   \   00000054   00000000           DC8 0, 0, 0, 0
   \                     `?<Initializer for key_mode>`:
   \   00000058   00000000           DC8 0, 0, 0, 0
   \                     `?<Initializer for pos>`:
   \   0000005C   00000000           DC8 0, 0, 0, 0
   \                     `?<Initializer for phase>`:
   \   00000060   00000000           DC8 0, 0, 0, 0
   \                     `?<Initializer for pos_main_x>`:
   \   00000064   00000000           DC8 0, 0, 0, 0
   \                     `?<Initializer for pos_main_y>`:
   \   00000068   00000000           DC8 0, 0, 0, 0
   \                     `?<Initializer for lock_keys>`:
   \   0000006C   00000000           DC8 0, 0, 0, 0
   \                     `?<Initializer for pos_link_x>`:
   \   00000070   00000000           DC8 0, 0, 0, 0
   \                     `?<Initializer for pos_link_y>`:
   \   00000074   00000000           DC8 0, 0, 0, 0
   \                     `?<Initializer for pos_msg_x>`:
   \   00000078   00000000           DC8 0, 0, 0, 0
   \                     `?<Initializer for pos_msg_y>`:
   \   0000007C   00000000           DC8 0, 0, 0, 0
   \                     `?<Initializer for engade_weather>`:
   \   00000080   00000000           DC8 0, 0, 0, 0
   \                     `?<Initializer for app_pos>`:
   \   00000084   01000000           DC32 1
   \                     `?<Initializer for pos_link2_x>`:
   \   00000088   00000000           DC8 0, 0, 0, 0
   \                     `?<Initializer for pos_link2_y>`:
   \   0000008C   00000000           DC8 0, 0, 0, 0
   \                     `?<Initializer for battery>`:
   \   00000090   00000000           DC8 0, 0, 0, 0
   \                     `?<Initializer for monthc>`:
   \   00000094   00000000           DC8 0, 0, 0, 0
   \                     `?<Initializer for hmm>`:
   \   00000098   00000000           DC8 0, 0, 0, 0
   \                     `?<Initializer for ggg>`:
   \   0000009C   00000000           DC8 0, 0, 0, 0
   \                     `?<Initializer for trafiks>`:
   \   000000A0   00000000           DC8 0, 0, 0, 0
   \                     `?<Initializer for start_traffic>`:
   \   000000A4   00000000           DC8 0, 0, 0, 0
   \                     `?<Initializer for ffq>`:
   \   000000A8   00000000           DC8 0, 0, 0, 0
   \                     `?<Initializer for isfile>`:
   \   000000AC   00000000           DC8 0, 0, 0, 0
   \                     `?<Initializer for switch_gprs_info>`:
   \   000000B0   00000000           DC8 0, 0, 0, 0
   \                     `?<Initializer for do_st>`:
   \   000000B4   03000000           DC32 3
   \                     `?<Initializer for con>`:
   \   000000B8   00000000           DC8 0, 0, 0, 0
   \                     `?<Initializer for sock>`:
   \   000000BC   00000000           DC8 0, 0, 0, 0
   \                     `?<Initializer for connect_state>`:
   \   000000C0   00000000           DC32 0
   \                     `?<Initializer for pbuf>`:
   \   000000C4   00000000           DC32 0
   \                     `?<Initializer for traf>`:
   \   000000C8   00000000           DC32 0
   \                     `?<Initializer for charge_m>`:
   \   000000CC   00000000           DC8 0, 0, 0, 0
   \                     `?<Initializer for charge_s>`:
   \   000000D0   00000000           DC8 0, 0, 0, 0
   \                     `?<Initializer for g_min>`:
   \   000000D4   00000000           DC8 0, 0, 0, 0
   \                     `?<Initializer for g_sec>`:
   \   000000D8   00000000           DC8 0, 0, 0, 0
   \                     `?<Initializer for g_hour>`:
   \   000000DC   00000000           DC8 0, 0, 0, 0
   \                     `?<Initializer for rewriter>`:
   \   000000E0   00000000           DC8 0, 0, 0, 0
   \                     `?<Initializer for rem_mis>`:
   \   000000E4   00000000           DC8 0, 0, 0, 0
   \                     `?<Initializer for chinfo>`:
   \   000000E8   000000000000       DC8 0, 0, 0, 0, 0, 0, 0, 0, 0, 0, 0, 0, 0, 0, 0, 0
   \              000000000000
   \              00000000    
   \   000000F8   000000000000       DC8 0, 0, 0, 0, 0, 0, 0, 0, 0, 0, 0, 0, 0, 0, 0, 0
   \              000000000000
   \              00000000    
   \                     `?<Initializer for temp>`:
   \   00000108   000000000000       DC8 0, 0, 0, 0, 0, 0, 0, 0, 0, 0, 0, 0, 0, 0, 0, 0
   \              000000000000
   \              00000000    
   \   00000118   000000000000       DC8 0, 0, 0, 0, 0, 0, 0, 0, 0, 0, 0, 0, 0, 0, 0, 0
   \              000000000000
   \              00000000    
   \                     `?<Initializer for vejsh>`:
   \   00000128   000000000000       DC8 0, 0, 0, 0, 0, 0, 0, 0, 0, 0, 0, 0, 0, 0, 0, 0
   \              000000000000
   \              00000000    
   \   00000138   000000000000       DC8 0, 0, 0, 0, 0, 0, 0, 0, 0, 0, 0, 0, 0, 0, 0, 0
   \              000000000000
   \              00000000    
   \                     `?<Initializer for s_icon1>`:
   \   00000148   000000000000       DC8 0, 0, 0, 0, 0, 0, 0, 0, 0, 0, 0, 0, 0, 0, 0, 0
   \              000000000000
   \              00000000    
   \   00000158   000000000000       DC8 0, 0, 0, 0, 0, 0, 0, 0, 0, 0, 0, 0, 0, 0, 0, 0
   \              000000000000
   \              00000000    
   \                     `?<Initializer for gpinfo>`:
   \   00000168   000000000000       DC8 0, 0, 0, 0, 0, 0, 0, 0, 0, 0, 0, 0, 0, 0, 0, 0
   \              000000000000
   \              00000000    
   \   00000178   000000000000       DC8 0, 0, 0, 0, 0, 0, 0, 0, 0, 0, 0, 0, 0, 0, 0, 0
   \              000000000000
   \              00000000    
   \                     `?<Initializer for mytmr>`:
   \   00000188   000000000000       DC8 0, 0, 0, 0, 0, 0, 0, 0, 0, 0, 0, 0, 0, 0, 0, 0
   \              000000000000
   \              00000000    
   \                     `?<Initializer for start_g2>`:
   \   00000198   000000000000       DC8 0, 0, 0, 0, 0, 0, 0, 0, 0, 0, 0, 0, 0, 0, 0, 0
   \              000000000000
   \              00000000    
   \   000001A8   000000000000       DC8 0, 0, 0, 0, 0, 0, 0, 0, 0, 0, 0, 0, 0, 0, 0, 0
   \              000000000000
   \              00000000    
   \                     `?<Initializer for temp2>`:
   \   000001B8   000000000000       DC8 0, 0, 0, 0, 0, 0, 0, 0, 0, 0, 0, 0, 0, 0, 0, 0
   \              000000000000
   \              00000000    
   \   000001C8   000000000000       DC8 0, 0, 0, 0, 0, 0, 0, 0, 0, 0, 0, 0, 0, 0, 0, 0
   \              000000000000
   \              00000000    
   \                     `?<Initializer for vejsh2>`:
   \   000001D8   000000000000       DC8 0, 0, 0, 0, 0, 0, 0, 0, 0, 0, 0, 0, 0, 0, 0, 0
   \              000000000000
   \              00000000    
   \   000001E8   000000000000       DC8 0, 0, 0, 0, 0, 0, 0, 0, 0, 0, 0, 0, 0, 0, 0, 0
   \              000000000000
   \              00000000    
   \                     `?<Initializer for weather_time>`:
   \   000001F8   000000000000       DC8 0, 0, 0, 0, 0, 0, 0, 0, 0, 0, 0, 0, 0, 0, 0, 0
   \              000000000000
   \              00000000    
   \   00000208   000000000000       DC8 0, 0, 0, 0, 0, 0, 0, 0, 0, 0, 0, 0, 0, 0, 0, 0
   \              000000000000
   \              00000000    
   \                     `?<Initializer for month>`:
   \   00000218   000000000000       DC8 0, 0, 0, 0, 0, 0, 0, 0
   \              0000        
   \                     `?<Initializer for mytmr2>`:
   \   00000220   000000000000       DC8 0, 0, 0, 0, 0, 0, 0, 0, 0, 0, 0, 0, 0, 0, 0, 0
   \              000000000000
   \              00000000    
   \                     `?<Initializer for buf>`:
   \   00000230   000000000000       DC8 0, 0, 0, 0, 0, 0, 0, 0, 0, 0, 0, 0, 0, 0, 0, 0
   \              000000000000
   \              00000000    
   \   00000240   000000000000       DC8 0, 0, 0, 0, 0, 0, 0, 0, 0, 0, 0, 0, 0, 0, 0, 0
   \              000000000000
   \              00000000    
   \   00000250   000000000000       DC8 0, 0, 0, 0, 0, 0, 0, 0, 0, 0, 0, 0, 0, 0, 0, 0
   \              000000000000
   \              00000000    
   \   00000260   000000000000       DC8 0, 0, 0, 0, 0, 0, 0, 0, 0, 0, 0, 0, 0, 0, 0, 0
   \              000000000000
   \              00000000    
   \   00000270   000000000000       DC8 0, 0, 0, 0, 0, 0, 0, 0, 0, 0, 0, 0, 0, 0, 0, 0
   \              000000000000
   \              00000000    
   \   00000280   000000000000       DC8 0, 0, 0, 0, 0, 0, 0, 0, 0, 0, 0, 0, 0, 0, 0, 0
   \              000000000000
   \              00000000    
   \   00000290   000000000000       DC8 0, 0, 0, 0, 0, 0, 0, 0, 0, 0, 0, 0, 0, 0, 0, 0
   \              000000000000
   \              00000000    
   \   000002A0   000000000000       DC8 0, 0, 0, 0, 0, 0, 0, 0, 0, 0, 0, 0, 0, 0, 0, 0
   \              000000000000
   \              00000000    
   \   000002B0   000000000000       DC8 0, 0, 0, 0, 0, 0, 0, 0, 0, 0, 0, 0, 0, 0, 0, 0
   \              000000000000
   \              00000000    
   \   000002C0   000000000000       DC8 0, 0, 0, 0, 0, 0, 0, 0, 0, 0, 0, 0, 0, 0, 0, 0
   \              000000000000
   \              00000000    
   \   000002D0   000000000000       DC8 0, 0, 0, 0, 0, 0, 0, 0, 0, 0, 0, 0, 0, 0, 0, 0
   \              000000000000
   \              00000000    
   \   000002E0   000000000000       DC8 0, 0, 0, 0, 0, 0, 0, 0, 0, 0, 0, 0, 0, 0, 0, 0
   \              000000000000
   \              00000000    
   \   000002F0   000000000000       DC8 0, 0, 0, 0, 0, 0, 0, 0, 0, 0, 0, 0, 0, 0, 0, 0
   \              000000000000
   \              00000000    
   \   00000300   000000000000       DC8 0, 0, 0, 0, 0, 0, 0, 0, 0, 0, 0, 0, 0, 0, 0, 0
   \              000000000000
   \              00000000    
   \   00000310   000000000000       DC8 0, 0, 0, 0, 0, 0, 0, 0, 0, 0, 0, 0, 0, 0, 0, 0
   \              000000000000
   \              00000000    
   \   00000320   000000000000       DC8 0, 0, 0, 0, 0, 0, 0, 0, 0, 0, 0, 0, 0, 0, 0, 0
   \              000000000000
   \              00000000    
   \   00000330   000000000000       DC8 0, 0, 0, 0, 0, 0, 0, 0, 0, 0, 0, 0, 0, 0, 0, 0
   \              000000000000
   \              00000000    
   \   00000340   000000000000       DC8 0, 0, 0, 0, 0, 0, 0, 0, 0, 0, 0, 0, 0, 0, 0, 0
   \              000000000000
   \              00000000    
   \   00000350   000000000000       DC8 0, 0, 0, 0, 0, 0, 0, 0, 0, 0, 0, 0, 0, 0, 0, 0
   \              000000000000
   \              00000000    
   \   00000360   000000000000       DC8 0, 0, 0, 0, 0, 0, 0, 0, 0, 0, 0, 0, 0, 0, 0, 0
   \              000000000000
   \              00000000    
   \   00000370   000000000000       DC8 0, 0, 0, 0, 0, 0, 0, 0, 0, 0, 0, 0, 0, 0, 0, 0
   \              000000000000
   \              00000000    
   \   00000380   000000000000       DC8 0, 0, 0, 0, 0, 0, 0, 0, 0, 0, 0, 0, 0, 0, 0, 0
   \              000000000000
   \              00000000    
   \   00000390   000000000000       DC8 0, 0, 0, 0, 0, 0, 0, 0, 0, 0, 0, 0, 0, 0, 0, 0
   \              000000000000
   \              00000000    
   \   000003A0   000000000000       DC8 0, 0, 0, 0, 0, 0, 0, 0, 0, 0, 0, 0, 0, 0, 0, 0
   \              000000000000
   \              00000000    
   \   000003B0   000000000000       DC8 0, 0, 0, 0, 0, 0, 0, 0, 0, 0, 0, 0, 0, 0, 0, 0
   \              000000000000
   \              00000000    
   \   000003C0   000000000000       DC8 0, 0, 0, 0, 0, 0, 0, 0, 0, 0, 0, 0, 0, 0, 0, 0
   \              000000000000
   \              00000000    
   \   000003D0   000000000000       DC8 0, 0, 0, 0, 0, 0, 0, 0, 0, 0, 0, 0, 0, 0, 0, 0
   \              000000000000
   \              00000000    
   \   000003E0   000000000000       DC8 0, 0, 0, 0, 0, 0, 0, 0, 0, 0, 0, 0, 0, 0, 0, 0
   \              000000000000
   \              00000000    
   \   000003F0   000000000000       DC8 0, 0, 0, 0, 0, 0, 0, 0, 0, 0, 0, 0, 0, 0, 0, 0
   \              000000000000
   \              00000000    
   \   00000400   000000000000       DC8 0, 0, 0, 0, 0, 0, 0, 0, 0, 0, 0, 0, 0, 0, 0, 0
   \              000000000000
   \              00000000    
   \   00000410   000000000000       DC8 0, 0, 0, 0, 0, 0, 0, 0, 0, 0, 0, 0, 0, 0, 0, 0
   \              000000000000
   \              00000000    
   \   00000420   000000000000       DC8 0, 0, 0, 0, 0, 0, 0, 0, 0, 0, 0, 0, 0, 0, 0, 0
   \              000000000000
   \              00000000    
   \   00000430   000000000000       DC8 0, 0, 0, 0, 0, 0, 0, 0, 0, 0, 0, 0, 0, 0, 0, 0
   \              000000000000
   \              00000000    
   \   00000440   000000000000       DC8 0, 0, 0, 0, 0, 0, 0, 0, 0, 0, 0, 0, 0, 0, 0, 0
   \              000000000000
   \              00000000    
   \   00000450   000000000000       DC8 0, 0, 0, 0, 0, 0, 0, 0, 0, 0, 0, 0, 0, 0, 0, 0
   \              000000000000
   \              00000000    
   \   00000460   000000000000       DC8 0, 0, 0, 0, 0, 0, 0, 0, 0, 0, 0, 0, 0, 0, 0, 0
   \              000000000000
   \              00000000    
   \   00000470   000000000000       DC8 0, 0, 0, 0, 0, 0, 0, 0, 0, 0, 0, 0, 0, 0, 0, 0
   \              000000000000
   \              00000000    
   \   00000480   000000000000       DC8 0, 0, 0, 0, 0, 0, 0, 0, 0, 0, 0, 0, 0, 0, 0, 0
   \              000000000000
   \              00000000    
   \   00000490   000000000000       DC8 0, 0, 0, 0, 0, 0, 0, 0, 0, 0, 0, 0, 0, 0, 0, 0
   \              000000000000
   \              00000000    
   \   000004A0   000000000000       DC8 0, 0, 0, 0, 0, 0, 0, 0, 0, 0, 0, 0, 0, 0, 0, 0
   \              000000000000
   \              00000000    
   \   000004B0   000000000000       DC8 0, 0, 0, 0, 0, 0, 0, 0, 0, 0, 0, 0, 0, 0, 0, 0
   \              000000000000
   \              00000000    
   \   000004C0   000000000000       DC8 0, 0, 0, 0, 0, 0, 0, 0, 0, 0, 0, 0, 0, 0, 0, 0
   \              000000000000
   \              00000000    
   \   000004D0   000000000000       DC8 0, 0, 0, 0, 0, 0, 0, 0, 0, 0, 0, 0, 0, 0, 0, 0
   \              000000000000
   \              00000000    
   \   000004E0   000000000000       DC8 0, 0, 0, 0, 0, 0, 0, 0, 0, 0, 0, 0, 0, 0, 0, 0
   \              000000000000
   \              00000000    
   \   000004F0   000000000000       DC8 0, 0, 0, 0, 0, 0, 0, 0, 0, 0, 0, 0, 0, 0, 0, 0
   \              000000000000
   \              00000000    
   \   00000500   000000000000       DC8 0, 0, 0, 0, 0, 0, 0, 0, 0, 0, 0, 0, 0, 0, 0, 0
   \              000000000000
   \              00000000    
   \   00000510   000000000000       DC8 0, 0, 0, 0, 0, 0, 0, 0, 0, 0, 0, 0, 0, 0, 0, 0
   \              000000000000
   \              00000000    
   \   00000520   000000000000       DC8 0, 0, 0, 0, 0, 0, 0, 0, 0, 0, 0, 0, 0, 0, 0, 0
   \              000000000000
   \              00000000    
   \   00000530   000000000000       DC8 0, 0, 0, 0, 0, 0, 0, 0, 0, 0, 0, 0, 0, 0, 0, 0
   \              000000000000
   \              00000000    
   \   00000540   000000000000       DC8 0, 0, 0, 0, 0, 0, 0, 0, 0, 0, 0, 0, 0, 0, 0, 0
   \              000000000000
   \              00000000    
   \   00000550   000000000000       DC8 0, 0, 0, 0, 0, 0, 0, 0, 0, 0, 0, 0, 0, 0, 0, 0
   \              000000000000
   \              00000000    
   \   00000560   000000000000       DC8 0, 0, 0, 0, 0, 0, 0, 0, 0, 0, 0, 0, 0, 0, 0, 0
   \              000000000000
   \              00000000    
   \   00000570   000000000000       DC8 0, 0, 0, 0, 0, 0, 0, 0, 0, 0, 0, 0, 0, 0, 0, 0
   \              000000000000
   \              00000000    
   \   00000580   000000000000       DC8 0, 0, 0, 0, 0, 0, 0, 0, 0, 0, 0, 0, 0, 0, 0, 0
   \              000000000000
   \              00000000    
   \   00000590   000000000000       DC8 0, 0, 0, 0, 0, 0, 0, 0, 0, 0, 0, 0, 0, 0, 0, 0
   \              000000000000
   \              00000000    
   \   000005A0   000000000000       DC8 0, 0, 0, 0, 0, 0, 0, 0, 0, 0, 0, 0, 0, 0, 0, 0
   \              000000000000
   \              00000000    
   \   000005B0   000000000000       DC8 0, 0, 0, 0, 0, 0, 0, 0, 0, 0, 0, 0, 0, 0, 0, 0
   \              000000000000
   \              00000000    
   \   000005C0   000000000000       DC8 0, 0, 0, 0, 0, 0, 0, 0, 0, 0, 0, 0, 0, 0, 0, 0
   \              000000000000
   \              00000000    
   \   000005D0   000000000000       DC8 0, 0, 0, 0, 0, 0, 0, 0, 0, 0, 0, 0, 0, 0, 0, 0
   \              000000000000
   \              00000000    
   \   000005E0   000000000000       DC8 0, 0, 0, 0, 0, 0, 0, 0, 0, 0, 0, 0, 0, 0, 0, 0
   \              000000000000
   \              00000000    
   \   000005F0   000000000000       DC8 0, 0, 0, 0, 0, 0, 0, 0, 0, 0, 0, 0, 0, 0, 0, 0
   \              000000000000
   \              00000000    
   \   00000600   000000000000       DC8 0, 0, 0, 0, 0, 0, 0, 0, 0, 0, 0, 0, 0, 0, 0, 0
   \              000000000000
   \              00000000    
   \   00000610   000000000000       DC8 0, 0, 0, 0, 0, 0, 0, 0, 0, 0, 0, 0, 0, 0, 0, 0
   \              000000000000
   \              00000000    
   \   00000620   000000000000       DC8 0, 0, 0, 0, 0, 0, 0, 0, 0, 0, 0, 0, 0, 0, 0, 0
   \              000000000000
   \              00000000    
   \   00000630   000000000000       DC8 0, 0, 0, 0, 0, 0, 0, 0, 0, 0, 0, 0, 0, 0, 0, 0
   \              000000000000
   \              00000000    
   \   00000640   000000000000       DC8 0, 0, 0, 0, 0, 0, 0, 0, 0, 0, 0, 0, 0, 0, 0, 0
   \              000000000000
   \              00000000    
   \   00000650   000000000000       DC8 0, 0, 0, 0, 0, 0, 0, 0, 0, 0, 0, 0, 0, 0, 0, 0
   \              000000000000
   \              00000000    
   \   00000660   000000000000       DC8 0, 0, 0, 0, 0, 0, 0, 0, 0, 0, 0, 0, 0, 0, 0, 0
   \              000000000000
   \              00000000    
   \   00000670   000000000000       DC8 0, 0, 0, 0, 0, 0, 0, 0, 0, 0, 0, 0, 0, 0, 0, 0
   \              000000000000
   \              00000000    
   \   00000680   000000000000       DC8 0, 0, 0, 0, 0, 0, 0, 0, 0, 0, 0, 0, 0, 0, 0, 0
   \              000000000000
   \              00000000    
   \   00000690   000000000000       DC8 0, 0, 0, 0, 0, 0, 0, 0, 0, 0, 0, 0, 0, 0, 0, 0
   \              000000000000
   \              00000000    
   \   000006A0   000000000000       DC8 0, 0, 0, 0, 0, 0, 0, 0, 0, 0, 0, 0, 0, 0, 0, 0
   \              000000000000
   \              00000000    
   \   000006B0   000000000000       DC8 0, 0, 0, 0, 0, 0, 0, 0, 0, 0, 0, 0, 0, 0, 0, 0
   \              000000000000
   \              00000000    
   \   000006C0   000000000000       DC8 0, 0, 0, 0, 0, 0, 0, 0, 0, 0, 0, 0, 0, 0, 0, 0
   \              000000000000
   \              00000000    
   \   000006D0   000000000000       DC8 0, 0, 0, 0, 0, 0, 0, 0, 0, 0, 0, 0, 0, 0, 0, 0
   \              000000000000
   \              00000000    
   \   000006E0   000000000000       DC8 0, 0, 0, 0, 0, 0, 0, 0, 0, 0, 0, 0, 0, 0, 0, 0
   \              000000000000
   \              00000000    
   \   000006F0   000000000000       DC8 0, 0, 0, 0, 0, 0, 0, 0, 0, 0, 0, 0, 0, 0, 0, 0
   \              000000000000
   \              00000000    
   \   00000700   000000000000       DC8 0, 0, 0, 0, 0, 0, 0, 0, 0, 0, 0, 0, 0, 0, 0, 0
   \              000000000000
   \              00000000    
   \   00000710   000000000000       DC8 0, 0, 0, 0, 0, 0, 0, 0, 0, 0, 0, 0, 0, 0, 0, 0
   \              000000000000
   \              00000000    
   \   00000720   000000000000       DC8 0, 0, 0, 0, 0, 0, 0, 0, 0, 0, 0, 0, 0, 0, 0, 0
   \              000000000000
   \              00000000    
   \   00000730   000000000000       DC8 0, 0, 0, 0, 0, 0, 0, 0, 0, 0, 0, 0, 0, 0, 0, 0
   \              000000000000
   \              00000000    
   \   00000740   000000000000       DC8 0, 0, 0, 0, 0, 0, 0, 0, 0, 0, 0, 0, 0, 0, 0, 0
   \              000000000000
   \              00000000    
   \   00000750   000000000000       DC8 0, 0, 0, 0, 0, 0, 0, 0, 0, 0, 0, 0, 0, 0, 0, 0
   \              000000000000
   \              00000000    
   \   00000760   000000000000       DC8 0, 0, 0, 0, 0, 0, 0, 0, 0, 0, 0, 0, 0, 0, 0, 0
   \              000000000000
   \              00000000    
   \   00000770   000000000000       DC8 0, 0, 0, 0, 0, 0, 0, 0, 0, 0, 0, 0, 0, 0, 0, 0
   \              000000000000
   \              00000000    
   \   00000780   000000000000       DC8 0, 0, 0, 0, 0, 0, 0, 0, 0, 0, 0, 0, 0, 0, 0, 0
   \              000000000000
   \              00000000    
   \   00000790   000000000000       DC8 0, 0, 0, 0, 0, 0, 0, 0, 0, 0, 0, 0, 0, 0, 0, 0
   \              000000000000
   \              00000000    
   \   000007A0   000000000000       DC8 0, 0, 0, 0, 0, 0, 0, 0, 0, 0, 0, 0, 0, 0, 0, 0
   \              000000000000
   \              00000000    
   \   000007B0   000000000000       DC8 0, 0, 0, 0, 0, 0, 0, 0, 0, 0, 0, 0, 0, 0, 0, 0
   \              000000000000
   \              00000000    
   \   000007C0   000000000000       DC8 0, 0, 0, 0, 0, 0, 0, 0, 0, 0, 0, 0, 0, 0, 0, 0
   \              000000000000
   \              00000000    
   \   000007D0   000000000000       DC8 0, 0, 0, 0, 0, 0, 0, 0, 0, 0, 0, 0, 0, 0, 0, 0
   \              000000000000
   \              00000000    
   \   000007E0   000000000000       DC8 0, 0, 0, 0, 0, 0, 0, 0, 0, 0, 0, 0, 0, 0, 0, 0
   \              000000000000
   \              00000000    
   \   000007F0   000000000000       DC8 0, 0, 0, 0, 0, 0, 0, 0, 0, 0, 0, 0, 0, 0, 0, 0
   \              000000000000
   \              00000000    
   \   00000800   000000000000       DC8 0, 0, 0, 0, 0, 0, 0, 0, 0, 0, 0, 0, 0, 0, 0, 0
   \              000000000000
   \              00000000    
   \   00000810   000000000000       DC8 0, 0, 0, 0, 0, 0, 0, 0, 0, 0, 0, 0, 0, 0, 0, 0
   \              000000000000
   \              00000000    
   \   00000820   000000000000       DC8 0, 0, 0, 0, 0, 0, 0, 0, 0, 0, 0, 0, 0, 0, 0, 0
   \              000000000000
   \              00000000    
   \   00000830   000000000000       DC8 0, 0, 0, 0, 0, 0, 0, 0, 0, 0, 0, 0, 0, 0, 0, 0
   \              000000000000
   \              00000000    
   \   00000840   000000000000       DC8 0, 0, 0, 0, 0, 0, 0, 0, 0, 0, 0, 0, 0, 0, 0, 0
   \              000000000000
   \              00000000    
   \   00000850   000000000000       DC8 0, 0, 0, 0, 0, 0, 0, 0, 0, 0, 0, 0, 0, 0, 0, 0
   \              000000000000
   \              00000000    
   \   00000860   000000000000       DC8 0, 0, 0, 0, 0, 0, 0, 0, 0, 0, 0, 0, 0, 0, 0, 0
   \              000000000000
   \              00000000    
   \   00000870   000000000000       DC8 0, 0, 0, 0, 0, 0, 0, 0, 0, 0, 0, 0, 0, 0, 0, 0
   \              000000000000
   \              00000000    
   \   00000880   000000000000       DC8 0, 0, 0, 0, 0, 0, 0, 0, 0, 0, 0, 0, 0, 0, 0, 0
   \              000000000000
   \              00000000    
   \   00000890   000000000000       DC8 0, 0, 0, 0, 0, 0, 0, 0, 0, 0, 0, 0, 0, 0, 0, 0
   \              000000000000
   \              00000000    
   \   000008A0   000000000000       DC8 0, 0, 0, 0, 0, 0, 0, 0, 0, 0, 0, 0, 0, 0, 0, 0
   \              000000000000
   \              00000000    
   \   000008B0   000000000000       DC8 0, 0, 0, 0, 0, 0, 0, 0, 0, 0, 0, 0, 0, 0, 0, 0
   \              000000000000
   \              00000000    
   \   000008C0   000000000000       DC8 0, 0, 0, 0, 0, 0, 0, 0, 0, 0, 0, 0, 0, 0, 0, 0
   \              000000000000
   \              00000000    
   \   000008D0   000000000000       DC8 0, 0, 0, 0, 0, 0, 0, 0, 0, 0, 0, 0, 0, 0, 0, 0
   \              000000000000
   \              00000000    
   \   000008E0   000000000000       DC8 0, 0, 0, 0, 0, 0, 0, 0, 0, 0, 0, 0, 0, 0, 0, 0
   \              000000000000
   \              00000000    
   \   000008F0   000000000000       DC8 0, 0, 0, 0, 0, 0, 0, 0, 0, 0, 0, 0, 0, 0, 0, 0
   \              000000000000
   \              00000000    
   \   00000900   000000000000       DC8 0, 0, 0, 0, 0, 0, 0, 0, 0, 0, 0, 0, 0, 0, 0, 0
   \              000000000000
   \              00000000    
   \   00000910   000000000000       DC8 0, 0, 0, 0, 0, 0, 0, 0, 0, 0, 0, 0, 0, 0, 0, 0
   \              000000000000
   \              00000000    
   \   00000920   000000000000       DC8 0, 0, 0, 0, 0, 0, 0, 0, 0, 0, 0, 0, 0, 0, 0, 0
   \              000000000000
   \              00000000    
   \   00000930   000000000000       DC8 0, 0, 0, 0, 0, 0, 0, 0, 0, 0, 0, 0, 0, 0, 0, 0
   \              000000000000
   \              00000000    
   \   00000940   000000000000       DC8 0, 0, 0, 0, 0, 0, 0, 0, 0, 0, 0, 0, 0, 0, 0, 0
   \              000000000000
   \              00000000    
   \   00000950   000000000000       DC8 0, 0, 0, 0, 0, 0, 0, 0, 0, 0, 0, 0, 0, 0, 0, 0
   \              000000000000
   \              00000000    
   \   00000960   000000000000       DC8 0, 0, 0, 0, 0, 0, 0, 0, 0, 0, 0, 0, 0, 0, 0, 0
   \              000000000000
   \              00000000    
   \   00000970   000000000000       DC8 0, 0, 0, 0, 0, 0, 0, 0, 0, 0, 0, 0, 0, 0, 0, 0
   \              000000000000
   \              00000000    
   \   00000980   000000000000       DC8 0, 0, 0, 0, 0, 0, 0, 0, 0, 0, 0, 0, 0, 0, 0, 0
   \              000000000000
   \              00000000    
   \   00000990   000000000000       DC8 0, 0, 0, 0, 0, 0, 0, 0, 0, 0, 0, 0, 0, 0, 0, 0
   \              000000000000
   \              00000000    
   \   000009A0   000000000000       DC8 0, 0, 0, 0, 0, 0, 0, 0, 0, 0, 0, 0, 0, 0, 0, 0
   \              000000000000
   \              00000000    
   \   000009B0   000000000000       DC8 0, 0, 0, 0, 0, 0, 0, 0, 0, 0, 0, 0, 0, 0, 0, 0
   \              000000000000
   \              00000000    
   \   000009C0   000000000000       DC8 0, 0, 0, 0, 0, 0, 0, 0, 0, 0, 0, 0, 0, 0, 0, 0
   \              000000000000
   \              00000000    
   \   000009D0   000000000000       DC8 0, 0, 0, 0, 0, 0, 0, 0, 0, 0, 0, 0, 0, 0, 0, 0
   \              000000000000
   \              00000000    
   \   000009E0   000000000000       DC8 0, 0, 0, 0, 0, 0, 0, 0, 0, 0, 0, 0, 0, 0, 0, 0
   \              000000000000
   \              00000000    
   \   000009F0   000000000000       DC8 0, 0, 0, 0, 0, 0, 0, 0, 0, 0, 0, 0, 0, 0, 0, 0
   \              000000000000
   \              00000000    
   \   00000A00   000000000000       DC8 0, 0, 0, 0, 0, 0, 0, 0, 0, 0, 0, 0, 0, 0, 0, 0
   \              000000000000
   \              00000000    
   \   00000A10   000000000000       DC8 0, 0, 0, 0, 0, 0, 0, 0, 0, 0, 0, 0, 0, 0, 0, 0
   \              000000000000
   \              00000000    
   \   00000A20   000000000000       DC8 0, 0, 0, 0, 0, 0, 0, 0, 0, 0, 0, 0, 0, 0, 0, 0
   \              000000000000
   \              00000000    
   \   00000A30   000000000000       DC8 0, 0, 0, 0, 0, 0, 0, 0, 0, 0, 0, 0, 0, 0, 0, 0
   \              000000000000
   \              00000000    
   \   00000A40   000000000000       DC8 0, 0, 0, 0, 0, 0, 0, 0, 0, 0, 0, 0, 0, 0, 0, 0
   \              000000000000
   \              00000000    
   \   00000A50   000000000000       DC8 0, 0, 0, 0, 0, 0, 0, 0, 0, 0, 0, 0, 0, 0, 0, 0
   \              000000000000
   \              00000000    
   \   00000A60   000000000000       DC8 0, 0, 0, 0, 0, 0, 0, 0, 0, 0, 0, 0, 0, 0, 0, 0
   \              000000000000
   \              00000000    
   \   00000A70   000000000000       DC8 0, 0, 0, 0, 0, 0, 0, 0, 0, 0, 0, 0, 0, 0, 0, 0
   \              000000000000
   \              00000000    
   \   00000A80   000000000000       DC8 0, 0, 0, 0, 0, 0, 0, 0, 0, 0, 0, 0, 0, 0, 0, 0
   \              000000000000
   \              00000000    
   \   00000A90   000000000000       DC8 0, 0, 0, 0, 0, 0, 0, 0, 0, 0, 0, 0, 0, 0, 0, 0
   \              000000000000
   \              00000000    
   \   00000AA0   000000000000       DC8 0, 0, 0, 0, 0, 0, 0, 0, 0, 0, 0, 0, 0, 0, 0, 0
   \              000000000000
   \              00000000    
   \   00000AB0   000000000000       DC8 0, 0, 0, 0, 0, 0, 0, 0, 0, 0, 0, 0, 0, 0, 0, 0
   \              000000000000
   \              00000000    
   \   00000AC0   000000000000       DC8 0, 0, 0, 0, 0, 0, 0, 0, 0, 0, 0, 0, 0, 0, 0, 0
   \              000000000000
   \              00000000    
   \   00000AD0   000000000000       DC8 0, 0, 0, 0, 0, 0, 0, 0, 0, 0, 0, 0, 0, 0, 0, 0
   \              000000000000
   \              00000000    
   \   00000AE0   000000000000       DC8 0, 0, 0, 0, 0, 0, 0, 0, 0, 0, 0, 0, 0, 0, 0, 0
   \              000000000000
   \              00000000    
   \   00000AF0   000000000000       DC8 0, 0, 0, 0, 0, 0, 0, 0, 0, 0, 0, 0, 0, 0, 0, 0
   \              000000000000
   \              00000000    
   \   00000B00   000000000000       DC8 0, 0, 0, 0, 0, 0, 0, 0, 0, 0, 0, 0, 0, 0, 0, 0
   \              000000000000
   \              00000000    
   \   00000B10   000000000000       DC8 0, 0, 0, 0, 0, 0, 0, 0, 0, 0, 0, 0, 0, 0, 0, 0
   \              000000000000
   \              00000000    
   \   00000B20   000000000000       DC8 0, 0, 0, 0, 0, 0, 0, 0, 0, 0, 0, 0, 0, 0, 0, 0
   \              000000000000
   \              00000000    
   \   00000B30   000000000000       DC8 0, 0, 0, 0, 0, 0, 0, 0, 0, 0, 0, 0, 0, 0, 0, 0
   \              000000000000
   \              00000000    
   \   00000B40   000000000000       DC8 0, 0, 0, 0, 0, 0, 0, 0, 0, 0, 0, 0, 0, 0, 0, 0
   \              000000000000
   \              00000000    
   \   00000B50   000000000000       DC8 0, 0, 0, 0, 0, 0, 0, 0, 0, 0, 0, 0, 0, 0, 0, 0
   \              000000000000
   \              00000000    
   \   00000B60   000000000000       DC8 0, 0, 0, 0, 0, 0, 0, 0, 0, 0, 0, 0, 0, 0, 0, 0
   \              000000000000
   \              00000000    
   \   00000B70   000000000000       DC8 0, 0, 0, 0, 0, 0, 0, 0, 0, 0, 0, 0, 0, 0, 0, 0
   \              000000000000
   \              00000000    
   \   00000B80   000000000000       DC8 0, 0, 0, 0, 0, 0, 0, 0, 0, 0, 0, 0, 0, 0, 0, 0
   \              000000000000
   \              00000000    
   \   00000B90   000000000000       DC8 0, 0, 0, 0, 0, 0, 0, 0, 0, 0, 0, 0, 0, 0, 0, 0
   \              000000000000
   \              00000000    
   \   00000BA0   000000000000       DC8 0, 0, 0, 0, 0, 0, 0, 0, 0, 0, 0, 0, 0, 0, 0, 0
   \              000000000000
   \              00000000    
   \   00000BB0   000000000000       DC8 0, 0, 0, 0, 0, 0, 0, 0, 0, 0, 0, 0, 0, 0, 0, 0
   \              000000000000
   \              00000000    
   \   00000BC0   000000000000       DC8 0, 0, 0, 0, 0, 0, 0, 0, 0, 0, 0, 0, 0, 0, 0, 0
   \              000000000000
   \              00000000    
   \   00000BD0   000000000000       DC8 0, 0, 0, 0, 0, 0, 0, 0, 0, 0, 0, 0, 0, 0, 0, 0
   \              000000000000
   \              00000000    
   \   00000BE0   000000000000       DC8 0, 0, 0, 0, 0, 0, 0, 0, 0, 0, 0, 0, 0, 0, 0, 0
   \              000000000000
   \              00000000    
   \   00000BF0   000000000000       DC8 0, 0, 0, 0, 0, 0, 0, 0, 0, 0, 0, 0, 0, 0, 0, 0
   \              000000000000
   \              00000000    
   \   00000C00   000000000000       DC8 0, 0, 0, 0, 0, 0, 0, 0, 0, 0, 0, 0, 0, 0, 0, 0
   \              000000000000
   \              00000000    
   \   00000C10   000000000000       DC8 0, 0, 0, 0, 0, 0, 0, 0, 0, 0, 0, 0, 0, 0, 0, 0
   \              000000000000
   \              00000000    
   \   00000C20   000000000000       DC8 0, 0, 0, 0, 0, 0, 0, 0, 0, 0, 0, 0, 0, 0, 0, 0
   \              000000000000
   \              00000000    
   \   00000C30   000000000000       DC8 0, 0, 0, 0, 0, 0, 0, 0, 0, 0, 0, 0, 0, 0, 0, 0
   \              000000000000
   \              00000000    
   \   00000C40   000000000000       DC8 0, 0, 0, 0, 0, 0, 0, 0, 0, 0, 0, 0, 0, 0, 0, 0
   \              000000000000
   \              00000000    
   \   00000C50   000000000000       DC8 0, 0, 0, 0, 0, 0, 0, 0, 0, 0, 0, 0, 0, 0, 0, 0
   \              000000000000
   \              00000000    
   \   00000C60   000000000000       DC8 0, 0, 0, 0, 0, 0, 0, 0, 0, 0, 0, 0, 0, 0, 0, 0
   \              000000000000
   \              00000000    
   \   00000C70   000000000000       DC8 0, 0, 0, 0, 0, 0, 0, 0, 0, 0, 0, 0, 0, 0, 0, 0
   \              000000000000
   \              00000000    
   \   00000C80   000000000000       DC8 0, 0, 0, 0, 0, 0, 0, 0, 0, 0, 0, 0, 0, 0, 0, 0
   \              000000000000
   \              00000000    
   \   00000C90   000000000000       DC8 0, 0, 0, 0, 0, 0, 0, 0, 0, 0, 0, 0, 0, 0, 0, 0
   \              000000000000
   \              00000000    
   \   00000CA0   000000000000       DC8 0, 0, 0, 0, 0, 0, 0, 0, 0, 0, 0, 0, 0, 0, 0, 0
   \              000000000000
   \              00000000    
   \   00000CB0   000000000000       DC8 0, 0, 0, 0, 0, 0, 0, 0, 0, 0, 0, 0, 0, 0, 0, 0
   \              000000000000
   \              00000000    
   \   00000CC0   000000000000       DC8 0, 0, 0, 0, 0, 0, 0, 0, 0, 0, 0, 0, 0, 0, 0, 0
   \              000000000000
   \              00000000    
   \   00000CD0   000000000000       DC8 0, 0, 0, 0, 0, 0, 0, 0, 0, 0, 0, 0, 0, 0, 0, 0
   \              000000000000
   \              00000000    
   \   00000CE0   000000000000       DC8 0, 0, 0, 0, 0, 0, 0, 0, 0, 0, 0, 0, 0, 0, 0, 0
   \              000000000000
   \              00000000    
   \   00000CF0   000000000000       DC8 0, 0, 0, 0, 0, 0, 0, 0, 0, 0, 0, 0, 0, 0, 0, 0
   \              000000000000
   \              00000000    
   \   00000D00   000000000000       DC8 0, 0, 0, 0, 0, 0, 0, 0, 0, 0, 0, 0, 0, 0, 0, 0
   \              000000000000
   \              00000000    
   \   00000D10   000000000000       DC8 0, 0, 0, 0, 0, 0, 0, 0, 0, 0, 0, 0, 0, 0, 0, 0
   \              000000000000
   \              00000000    
   \   00000D20   000000000000       DC8 0, 0, 0, 0, 0, 0, 0, 0, 0, 0, 0, 0, 0, 0, 0, 0
   \              000000000000
   \              00000000    
   \   00000D30   000000000000       DC8 0, 0, 0, 0, 0, 0, 0, 0, 0, 0, 0, 0, 0, 0, 0, 0
   \              000000000000
   \              00000000    
   \   00000D40   000000000000       DC8 0, 0, 0, 0, 0, 0, 0, 0, 0, 0, 0, 0, 0, 0, 0, 0
   \              000000000000
   \              00000000    
   \   00000D50   000000000000       DC8 0, 0, 0, 0, 0, 0, 0, 0, 0, 0, 0, 0, 0, 0, 0, 0
   \              000000000000
   \              00000000    
   \   00000D60   000000000000       DC8 0, 0, 0, 0, 0, 0, 0, 0, 0, 0, 0, 0, 0, 0, 0, 0
   \              000000000000
   \              00000000    
   \   00000D70   000000000000       DC8 0, 0, 0, 0, 0, 0, 0, 0, 0, 0, 0, 0, 0, 0, 0, 0
   \              000000000000
   \              00000000    
   \   00000D80   000000000000       DC8 0, 0, 0, 0, 0, 0, 0, 0, 0, 0, 0, 0, 0, 0, 0, 0
   \              000000000000
   \              00000000    
   \   00000D90   000000000000       DC8 0, 0, 0, 0, 0, 0, 0, 0, 0, 0, 0, 0, 0, 0, 0, 0
   \              000000000000
   \              00000000    
   \   00000DA0   000000000000       DC8 0, 0, 0, 0, 0, 0, 0, 0, 0, 0, 0, 0, 0, 0, 0, 0
   \              000000000000
   \              00000000    
   \   00000DB0   000000000000       DC8 0, 0, 0, 0, 0, 0, 0, 0, 0, 0, 0, 0, 0, 0, 0, 0
   \              000000000000
   \              00000000    
   \   00000DC0   000000000000       DC8 0, 0, 0, 0, 0, 0, 0, 0, 0, 0, 0, 0, 0, 0, 0, 0
   \              000000000000
   \              00000000    
   \   00000DD0   000000000000       DC8 0, 0, 0, 0, 0, 0, 0, 0, 0, 0, 0, 0, 0, 0, 0, 0
   \              000000000000
   \              00000000    
   \   00000DE0   000000000000       DC8 0, 0, 0, 0, 0, 0, 0, 0, 0, 0, 0, 0, 0, 0, 0, 0
   \              000000000000
   \              00000000    
   \   00000DF0   000000000000       DC8 0, 0, 0, 0, 0, 0, 0, 0, 0, 0, 0, 0, 0, 0, 0, 0
   \              000000000000
   \              00000000    
   \   00000E00   000000000000       DC8 0, 0, 0, 0, 0, 0, 0, 0, 0, 0, 0, 0, 0, 0, 0, 0
   \              000000000000
   \              00000000    
   \   00000E10   000000000000       DC8 0, 0, 0, 0, 0, 0, 0, 0, 0, 0, 0, 0, 0, 0, 0, 0
   \              000000000000
   \              00000000    
   \   00000E20   000000000000       DC8 0, 0, 0, 0, 0, 0, 0, 0, 0, 0, 0, 0, 0, 0, 0, 0
   \              000000000000
   \              00000000    
   \   00000E30   000000000000       DC8 0, 0, 0, 0, 0, 0, 0, 0, 0, 0, 0, 0, 0, 0, 0, 0
   \              000000000000
   \              00000000    
   \   00000E40   000000000000       DC8 0, 0, 0, 0, 0, 0, 0, 0, 0, 0, 0, 0, 0, 0, 0, 0
   \              000000000000
   \              00000000    
   \   00000E50   000000000000       DC8 0, 0, 0, 0, 0, 0, 0, 0, 0, 0, 0, 0, 0, 0, 0, 0
   \              000000000000
   \              00000000    
   \   00000E60   000000000000       DC8 0, 0, 0, 0, 0, 0, 0, 0, 0, 0, 0, 0, 0, 0, 0, 0
   \              000000000000
   \              00000000    
   \   00000E70   000000000000       DC8 0, 0, 0, 0, 0, 0, 0, 0, 0, 0, 0, 0, 0, 0, 0, 0
   \              000000000000
   \              00000000    
   \   00000E80   000000000000       DC8 0, 0, 0, 0, 0, 0, 0, 0, 0, 0, 0, 0, 0, 0, 0, 0
   \              000000000000
   \              00000000    
   \   00000E90   000000000000       DC8 0, 0, 0, 0, 0, 0, 0, 0, 0, 0, 0, 0, 0, 0, 0, 0
   \              000000000000
   \              00000000    
   \   00000EA0   000000000000       DC8 0, 0, 0, 0, 0, 0, 0, 0, 0, 0, 0, 0, 0, 0, 0, 0
   \              000000000000
   \              00000000    
   \   00000EB0   000000000000       DC8 0, 0, 0, 0, 0, 0, 0, 0, 0, 0, 0, 0, 0, 0, 0, 0
   \              000000000000
   \              00000000    
   \   00000EC0   000000000000       DC8 0, 0, 0, 0, 0, 0, 0, 0, 0, 0, 0, 0, 0, 0, 0, 0
   \              000000000000
   \              00000000    
   \   00000ED0   000000000000       DC8 0, 0, 0, 0, 0, 0, 0, 0, 0, 0, 0, 0, 0, 0, 0, 0
   \              000000000000
   \              00000000    
   \   00000EE0   000000000000       DC8 0, 0, 0, 0, 0, 0, 0, 0, 0, 0, 0, 0, 0, 0, 0, 0
   \              000000000000
   \              00000000    
   \   00000EF0   000000000000       DC8 0, 0, 0, 0, 0, 0, 0, 0, 0, 0, 0, 0, 0, 0, 0, 0
   \              000000000000
   \              00000000    
   \   00000F00   000000000000       DC8 0, 0, 0, 0, 0, 0, 0, 0, 0, 0, 0, 0, 0, 0, 0, 0
   \              000000000000
   \              00000000    
   \   00000F10   000000000000       DC8 0, 0, 0, 0, 0, 0, 0, 0, 0, 0, 0, 0, 0, 0, 0, 0
   \              000000000000
   \              00000000    
   \   00000F20   000000000000       DC8 0, 0, 0, 0, 0, 0, 0, 0, 0, 0, 0, 0, 0, 0, 0, 0
   \              000000000000
   \              00000000    
   \   00000F30   000000000000       DC8 0, 0, 0, 0, 0, 0, 0, 0, 0, 0, 0, 0, 0, 0, 0, 0
   \              000000000000
   \              00000000    
   \   00000F40   000000000000       DC8 0, 0, 0, 0, 0, 0, 0, 0, 0, 0, 0, 0, 0, 0, 0, 0
   \              000000000000
   \              00000000    
   \   00000F50   000000000000       DC8 0, 0, 0, 0, 0, 0, 0, 0, 0, 0, 0, 0, 0, 0, 0, 0
   \              000000000000
   \              00000000    
   \   00000F60   000000000000       DC8 0, 0, 0, 0, 0, 0, 0, 0, 0, 0, 0, 0, 0, 0, 0, 0
   \              000000000000
   \              00000000    
   \   00000F70   000000000000       DC8 0, 0, 0, 0, 0, 0, 0, 0, 0, 0, 0, 0, 0, 0, 0, 0
   \              000000000000
   \              00000000    
   \   00000F80   000000000000       DC8 0, 0, 0, 0, 0, 0, 0, 0, 0, 0, 0, 0, 0, 0, 0, 0
   \              000000000000
   \              00000000    
   \   00000F90   000000000000       DC8 0, 0, 0, 0, 0, 0, 0, 0, 0, 0, 0, 0, 0, 0, 0, 0
   \              000000000000
   \              00000000    
   \   00000FA0   000000000000       DC8 0, 0, 0, 0, 0, 0, 0, 0, 0, 0, 0, 0, 0, 0, 0, 0
   \              000000000000
   \              00000000    
   \   00000FB0   000000000000       DC8 0, 0, 0, 0, 0, 0, 0, 0, 0, 0, 0, 0, 0, 0, 0, 0
   \              000000000000
   \              00000000    
   \   00000FC0   000000000000       DC8 0, 0, 0, 0, 0, 0, 0, 0, 0, 0, 0, 0, 0, 0, 0, 0
   \              000000000000
   \              00000000    
   \   00000FD0   000000000000       DC8 0, 0, 0, 0, 0, 0, 0, 0, 0, 0, 0, 0, 0, 0, 0, 0
   \              000000000000
   \              00000000    
   \   00000FE0   000000000000       DC8 0, 0, 0, 0, 0, 0, 0, 0, 0, 0, 0, 0, 0, 0, 0, 0
   \              000000000000
   \              00000000    
   \   00000FF0   000000000000       DC8 0, 0, 0, 0, 0, 0, 0, 0, 0, 0, 0, 0, 0, 0, 0, 0
   \              000000000000
   \              00000000    
   \   00001000   000000000000       DC8 0, 0, 0, 0, 0, 0, 0, 0, 0, 0, 0, 0, 0, 0, 0, 0
   \              000000000000
   \              00000000    
   \   00001010   000000000000       DC8 0, 0, 0, 0, 0, 0, 0, 0, 0, 0, 0, 0, 0, 0, 0, 0
   \              000000000000
   \              00000000    
   \   00001020   000000000000       DC8 0, 0, 0, 0, 0, 0, 0, 0, 0, 0, 0, 0, 0, 0, 0, 0
   \              000000000000
   \              00000000    
   \   00001030   000000000000       DC8 0, 0, 0, 0, 0, 0, 0, 0, 0, 0, 0, 0, 0, 0, 0, 0
   \              000000000000
   \              00000000    
   \   00001040   000000000000       DC8 0, 0, 0, 0, 0, 0, 0, 0, 0, 0, 0, 0, 0, 0, 0, 0
   \              000000000000
   \              00000000    
   \   00001050   000000000000       DC8 0, 0, 0, 0, 0, 0, 0, 0, 0, 0, 0, 0, 0, 0, 0, 0
   \              000000000000
   \              00000000    
   \   00001060   000000000000       DC8 0, 0, 0, 0, 0, 0, 0, 0, 0, 0, 0, 0, 0, 0, 0, 0
   \              000000000000
   \              00000000    
   \   00001070   000000000000       DC8 0, 0, 0, 0, 0, 0, 0, 0, 0, 0, 0, 0, 0, 0, 0, 0
   \              000000000000
   \              00000000    
   \   00001080   000000000000       DC8 0, 0, 0, 0, 0, 0, 0, 0, 0, 0, 0, 0, 0, 0, 0, 0
   \              000000000000
   \              00000000    
   \   00001090   000000000000       DC8 0, 0, 0, 0, 0, 0, 0, 0, 0, 0, 0, 0, 0, 0, 0, 0
   \              000000000000
   \              00000000    
   \   000010A0   000000000000       DC8 0, 0, 0, 0, 0, 0, 0, 0, 0, 0, 0, 0, 0, 0, 0, 0
   \              000000000000
   \              00000000    
   \   000010B0   000000000000       DC8 0, 0, 0, 0, 0, 0, 0, 0, 0, 0, 0, 0, 0, 0, 0, 0
   \              000000000000
   \              00000000    
   \   000010C0   000000000000       DC8 0, 0, 0, 0, 0, 0, 0, 0, 0, 0, 0, 0, 0, 0, 0, 0
   \              000000000000
   \              00000000    
   \   000010D0   000000000000       DC8 0, 0, 0, 0, 0, 0, 0, 0, 0, 0, 0, 0, 0, 0, 0, 0
   \              000000000000
   \              00000000    
   \   000010E0   000000000000       DC8 0, 0, 0, 0, 0, 0, 0, 0, 0, 0, 0, 0, 0, 0, 0, 0
   \              000000000000
   \              00000000    
   \   000010F0   000000000000       DC8 0, 0, 0, 0, 0, 0, 0, 0, 0, 0, 0, 0, 0, 0, 0, 0
   \              000000000000
   \              00000000    
   \   00001100   000000000000       DC8 0, 0, 0, 0, 0, 0, 0, 0, 0, 0, 0, 0, 0, 0, 0, 0
   \              000000000000
   \              00000000    
   \   00001110   000000000000       DC8 0, 0, 0, 0, 0, 0, 0, 0, 0, 0, 0, 0, 0, 0, 0, 0
   \              000000000000
   \              00000000    
   \   00001120   000000000000       DC8 0, 0, 0, 0, 0, 0, 0, 0, 0, 0, 0, 0, 0, 0, 0, 0
   \              000000000000
   \              00000000    
   \   00001130   000000000000       DC8 0, 0, 0, 0, 0, 0, 0, 0, 0, 0, 0, 0, 0, 0, 0, 0
   \              000000000000
   \              00000000    
   \   00001140   000000000000       DC8 0, 0, 0, 0, 0, 0, 0, 0, 0, 0, 0, 0, 0, 0, 0, 0
   \              000000000000
   \              00000000    
   \   00001150   000000000000       DC8 0, 0, 0, 0, 0, 0, 0, 0, 0, 0, 0, 0, 0, 0, 0, 0
   \              000000000000
   \              00000000    
   \   00001160   000000000000       DC8 0, 0, 0, 0, 0, 0, 0, 0, 0, 0, 0, 0, 0, 0, 0, 0
   \              000000000000
   \              00000000    
   \   00001170   000000000000       DC8 0, 0, 0, 0, 0, 0, 0, 0, 0, 0, 0, 0, 0, 0, 0, 0
   \              000000000000
   \              00000000    
   \   00001180   000000000000       DC8 0, 0, 0, 0, 0, 0, 0, 0, 0, 0, 0, 0, 0, 0, 0, 0
   \              000000000000
   \              00000000    
   \   00001190   000000000000       DC8 0, 0, 0, 0, 0, 0, 0, 0, 0, 0, 0, 0, 0, 0, 0, 0
   \              000000000000
   \              00000000    
   \   000011A0   000000000000       DC8 0, 0, 0, 0, 0, 0, 0, 0, 0, 0, 0, 0, 0, 0, 0, 0
   \              000000000000
   \              00000000    
   \   000011B0   000000000000       DC8 0, 0, 0, 0, 0, 0, 0, 0, 0, 0, 0, 0, 0, 0, 0, 0
   \              000000000000
   \              00000000    
   \   000011C0   000000000000       DC8 0, 0, 0, 0, 0, 0, 0, 0, 0, 0, 0, 0, 0, 0, 0, 0
   \              000000000000
   \              00000000    
   \   000011D0   000000000000       DC8 0, 0, 0, 0, 0, 0, 0, 0, 0, 0, 0, 0, 0, 0, 0, 0
   \              000000000000
   \              00000000    
   \   000011E0   000000000000       DC8 0, 0, 0, 0, 0, 0, 0, 0, 0, 0, 0, 0, 0, 0, 0, 0
   \              000000000000
   \              00000000    
   \   000011F0   000000000000       DC8 0, 0, 0, 0, 0, 0, 0, 0, 0, 0, 0, 0, 0, 0, 0, 0
   \              000000000000
   \              00000000    
   \   00001200   000000000000       DC8 0, 0, 0, 0, 0, 0, 0, 0, 0, 0, 0, 0, 0, 0, 0, 0
   \              000000000000
   \              00000000    
   \   00001210   000000000000       DC8 0, 0, 0, 0, 0, 0, 0, 0, 0, 0, 0, 0, 0, 0, 0, 0
   \              000000000000
   \              00000000    
   \   00001220   000000000000       DC8 0, 0, 0, 0, 0, 0, 0, 0, 0, 0, 0, 0, 0, 0, 0, 0
   \              000000000000
   \              00000000    
   \   00001230   000000000000       DC8 0, 0, 0, 0, 0, 0, 0, 0, 0, 0, 0, 0, 0, 0, 0, 0
   \              000000000000
   \              00000000    
   \   00001240   000000000000       DC8 0, 0, 0, 0, 0, 0, 0, 0, 0, 0, 0, 0, 0, 0, 0, 0
   \              000000000000
   \              00000000    
   \   00001250   000000000000       DC8 0, 0, 0, 0, 0, 0, 0, 0, 0, 0, 0, 0, 0, 0, 0, 0
   \              000000000000
   \              00000000    
   \   00001260   000000000000       DC8 0, 0, 0, 0, 0, 0, 0, 0, 0, 0, 0, 0, 0, 0, 0, 0
   \              000000000000
   \              00000000    
   \   00001270   000000000000       DC8 0, 0, 0, 0, 0, 0, 0, 0, 0, 0, 0, 0, 0, 0, 0, 0
   \              000000000000
   \              00000000    
   \   00001280   000000000000       DC8 0, 0, 0, 0, 0, 0, 0, 0, 0, 0, 0, 0, 0, 0, 0, 0
   \              000000000000
   \              00000000    
   \   00001290   000000000000       DC8 0, 0, 0, 0, 0, 0, 0, 0, 0, 0, 0, 0, 0, 0, 0, 0
   \              000000000000
   \              00000000    
   \   000012A0   000000000000       DC8 0, 0, 0, 0, 0, 0, 0, 0, 0, 0, 0, 0, 0, 0, 0, 0
   \              000000000000
   \              00000000    
   \   000012B0   000000000000       DC8 0, 0, 0, 0, 0, 0, 0, 0, 0, 0, 0, 0, 0, 0, 0, 0
   \              000000000000
   \              00000000    
   \   000012C0   000000000000       DC8 0, 0, 0, 0, 0, 0, 0, 0, 0, 0, 0, 0, 0, 0, 0, 0
   \              000000000000
   \              00000000    
   \   000012D0   000000000000       DC8 0, 0, 0, 0, 0, 0, 0, 0, 0, 0, 0, 0, 0, 0, 0, 0
   \              000000000000
   \              00000000    
   \   000012E0   000000000000       DC8 0, 0, 0, 0, 0, 0, 0, 0, 0, 0, 0, 0, 0, 0, 0, 0
   \              000000000000
   \              00000000    
   \   000012F0   000000000000       DC8 0, 0, 0, 0, 0, 0, 0, 0, 0, 0, 0, 0, 0, 0, 0, 0
   \              000000000000
   \              00000000    
   \   00001300   000000000000       DC8 0, 0, 0, 0, 0, 0, 0, 0, 0, 0, 0, 0, 0, 0, 0, 0
   \              000000000000
   \              00000000    
   \   00001310   000000000000       DC8 0, 0, 0, 0, 0, 0, 0, 0, 0, 0, 0, 0, 0, 0, 0, 0
   \              000000000000
   \              00000000    
   \   00001320   000000000000       DC8 0, 0, 0, 0, 0, 0, 0, 0, 0, 0, 0, 0, 0, 0, 0, 0
   \              000000000000
   \              00000000    
   \   00001330   000000000000       DC8 0, 0, 0, 0, 0, 0, 0, 0, 0, 0, 0, 0, 0, 0, 0, 0
   \              000000000000
   \              00000000    
   \   00001340   000000000000       DC8 0, 0, 0, 0, 0, 0, 0, 0, 0, 0, 0, 0, 0, 0, 0, 0
   \              000000000000
   \              00000000    
   \   00001350   000000000000       DC8 0, 0, 0, 0, 0, 0, 0, 0, 0, 0, 0, 0, 0, 0, 0, 0
   \              000000000000
   \              00000000    
   \   00001360   000000000000       DC8 0, 0, 0, 0, 0, 0, 0, 0, 0, 0, 0, 0, 0, 0, 0, 0
   \              000000000000
   \              00000000    
   \   00001370   000000000000       DC8 0, 0, 0, 0, 0, 0, 0, 0, 0, 0, 0, 0, 0, 0, 0, 0
   \              000000000000
   \              00000000    
   \   00001380   000000000000       DC8 0, 0, 0, 0, 0, 0, 0, 0, 0, 0, 0, 0, 0, 0, 0, 0
   \              000000000000
   \              00000000    
   \   00001390   000000000000       DC8 0, 0, 0, 0, 0, 0, 0, 0, 0, 0, 0, 0, 0, 0, 0, 0
   \              000000000000
   \              00000000    
   \   000013A0   000000000000       DC8 0, 0, 0, 0, 0, 0, 0, 0, 0, 0, 0, 0, 0, 0, 0, 0
   \              000000000000
   \              00000000    
   \   000013B0   000000000000       DC8 0, 0, 0, 0, 0, 0, 0, 0, 0, 0, 0, 0, 0, 0, 0, 0
   \              000000000000
   \              00000000    
   \   000013C0   000000000000       DC8 0, 0, 0, 0, 0, 0, 0, 0, 0, 0, 0, 0, 0, 0, 0, 0
   \              000000000000
   \              00000000    
   \   000013D0   000000000000       DC8 0, 0, 0, 0, 0, 0, 0, 0, 0, 0, 0, 0, 0, 0, 0, 0
   \              000000000000
   \              00000000    
   \   000013E0   000000000000       DC8 0, 0, 0, 0, 0, 0, 0, 0, 0, 0, 0, 0, 0, 0, 0, 0
   \              000000000000
   \              00000000    
   \   000013F0   000000000000       DC8 0, 0, 0, 0, 0, 0, 0, 0, 0, 0, 0, 0, 0, 0, 0, 0
   \              000000000000
   \              00000000    
   \   00001400   000000000000       DC8 0, 0, 0, 0, 0, 0, 0, 0, 0, 0, 0, 0, 0, 0, 0, 0
   \              000000000000
   \              00000000    
   \   00001410   000000000000       DC8 0, 0, 0, 0, 0, 0, 0, 0, 0, 0, 0, 0, 0, 0, 0, 0
   \              000000000000
   \              00000000    
   \   00001420   000000000000       DC8 0, 0, 0, 0, 0, 0, 0, 0, 0, 0, 0, 0, 0, 0, 0, 0
   \              000000000000
   \              00000000    
   \   00001430   000000000000       DC8 0, 0, 0, 0, 0, 0, 0, 0, 0, 0, 0, 0, 0, 0, 0, 0
   \              000000000000
   \              00000000    
   \   00001440   000000000000       DC8 0, 0, 0, 0, 0, 0, 0, 0, 0, 0, 0, 0, 0, 0, 0, 0
   \              000000000000
   \              00000000    
   \   00001450   000000000000       DC8 0, 0, 0, 0, 0, 0, 0, 0, 0, 0, 0, 0, 0, 0, 0, 0
   \              000000000000
   \              00000000    
   \   00001460   000000000000       DC8 0, 0, 0, 0, 0, 0, 0, 0, 0, 0, 0, 0, 0, 0, 0, 0
   \              000000000000
   \              00000000    
   \   00001470   000000000000       DC8 0, 0, 0, 0, 0, 0, 0, 0, 0, 0, 0, 0, 0, 0, 0, 0
   \              000000000000
   \              00000000    
   \   00001480   000000000000       DC8 0, 0, 0, 0, 0, 0, 0, 0, 0, 0, 0, 0, 0, 0, 0, 0
   \              000000000000
   \              00000000    
   \   00001490   000000000000       DC8 0, 0, 0, 0, 0, 0, 0, 0, 0, 0, 0, 0, 0, 0, 0, 0
   \              000000000000
   \              00000000    
   \   000014A0   000000000000       DC8 0, 0, 0, 0, 0, 0, 0, 0, 0, 0, 0, 0, 0, 0, 0, 0
   \              000000000000
   \              00000000    
   \   000014B0   000000000000       DC8 0, 0, 0, 0, 0, 0, 0, 0, 0, 0, 0, 0, 0, 0, 0, 0
   \              000000000000
   \              00000000    
   \   000014C0   000000000000       DC8 0, 0, 0, 0, 0, 0, 0, 0, 0, 0, 0, 0, 0, 0, 0, 0
   \              000000000000
   \              00000000    
   \   000014D0   000000000000       DC8 0, 0, 0, 0, 0, 0, 0, 0, 0, 0, 0, 0, 0, 0, 0, 0
   \              000000000000
   \              00000000    
   \   000014E0   000000000000       DC8 0, 0, 0, 0, 0, 0, 0, 0, 0, 0, 0, 0, 0, 0, 0, 0
   \              000000000000
   \              00000000    
   \   000014F0   000000000000       DC8 0, 0, 0, 0, 0, 0, 0, 0, 0, 0, 0, 0, 0, 0, 0, 0
   \              000000000000
   \              00000000    
   \   00001500   000000000000       DC8 0, 0, 0, 0, 0, 0, 0, 0, 0, 0, 0, 0, 0, 0, 0, 0
   \              000000000000
   \              00000000    
   \   00001510   000000000000       DC8 0, 0, 0, 0, 0, 0, 0, 0, 0, 0, 0, 0, 0, 0, 0, 0
   \              000000000000
   \              00000000    
   \   00001520   000000000000       DC8 0, 0, 0, 0, 0, 0, 0, 0, 0, 0, 0, 0, 0, 0, 0, 0
   \              000000000000
   \              00000000    
   \   00001530   000000000000       DC8 0, 0, 0, 0, 0, 0, 0, 0, 0, 0, 0, 0, 0, 0, 0, 0
   \              000000000000
   \              00000000    
   \   00001540   000000000000       DC8 0, 0, 0, 0, 0, 0, 0, 0, 0, 0, 0, 0, 0, 0, 0, 0
   \              000000000000
   \              00000000    
   \   00001550   000000000000       DC8 0, 0, 0, 0, 0, 0, 0, 0, 0, 0, 0, 0, 0, 0, 0, 0
   \              000000000000
   \              00000000    
   \   00001560   000000000000       DC8 0, 0, 0, 0, 0, 0, 0, 0, 0, 0, 0, 0, 0, 0, 0, 0
   \              000000000000
   \              00000000    
   \   00001570   000000000000       DC8 0, 0, 0, 0, 0, 0, 0, 0, 0, 0, 0, 0, 0, 0, 0, 0
   \              000000000000
   \              00000000    
   \   00001580   000000000000       DC8 0, 0, 0, 0, 0, 0, 0, 0, 0, 0, 0, 0, 0, 0, 0, 0
   \              000000000000
   \              00000000    
   \   00001590   000000000000       DC8 0, 0, 0, 0, 0, 0, 0, 0, 0, 0, 0, 0, 0, 0, 0, 0
   \              000000000000
   \              00000000    
   \   000015A0   000000000000       DC8 0, 0, 0, 0, 0, 0, 0, 0, 0, 0, 0, 0, 0, 0, 0, 0
   \              000000000000
   \              00000000    
   \   000015B0   000000000000       DC8 0, 0, 0, 0, 0, 0, 0, 0, 0, 0, 0, 0
   \              000000000000
   \                     `?<Initializer for mytmr3>`:
   \   000015BC   000000000000       DC8 0, 0, 0, 0, 0, 0, 0, 0, 0, 0, 0, 0, 0, 0, 0, 0
   \              000000000000
   \              00000000    
   \                     `?<Initializer for charger>`:
   \   000015CC   000000000000       DC8 0, 0, 0, 0, 0, 0, 0, 0, 0, 0, 0, 0, 0, 0, 0, 0
   \              000000000000
   \              00000000    
   \                     `?<Initializer for gipi>`:
   \   000015DC   000000000000       DC8 0, 0, 0, 0, 0, 0, 0, 0, 0, 0, 0, 0, 0, 0, 0, 0
   \              000000000000
   \              00000000    
   \                     `?<Initializer for rs_tmr>`:
   \   000015EC   000000000000       DC8 0, 0, 0, 0, 0, 0, 0, 0, 0, 0, 0, 0, 0, 0, 0, 0
   \              000000000000
   \              00000000    

   \                                 In segment DATA_ID, align 4, align-sorted
   \                     `?<Initializer for mode_enter>`:
   \   00000000   00000000           DC8 0, 0, 0, 0
   \                     `?<Initializer for mode>`:
   \   00000004   00000000           DC8 0, 0, 0, 0
   \                     `?<Initializer for CALL_BUTTON>`:
   \   00000008   01000000           DC32 1

   \                                 In segment DATA_C, align 4, align-sorted
   \                     `?<Constant "No Data Yet">`:
   \   00000000   4E6F20446174       DC8 "No Data Yet"
   \              612059657400
   \   0000000C   576561746865       DC8 "Weather: Ventspils"
   \              723A2056656E
   \              747370696C73
   \              00          
   \   0000001F   00                 DC8 0
   \   00000020   4F6E3A202573       DC8 "On: %s"
   \              00          
   \   00000027   00                 DC8 0

   \                                 In segment DATA_C, align 4, align-sorted
   \                     `?<Constant "[%t]">`:
   \   00000000   5B25745D00         DC8 "[%t]"
   \   00000005   000000             DC8 0, 0, 0
   \   00000008   426174746572       DC8 "Battery info"
   \              7920696E666F
   \              00          
   \   00000015   000000             DC8 0, 0, 0
   \   00000018   25743A202564       DC8 "%t: %d%"
   \              2500        
   \   00000020   436170616369       DC8 "Capacity"
   \              747900      
   \   00000029   000000             DC8 0, 0, 0
   \   0000002C   25743A204F6E       DC8 "%t: On"
   \              00          
   \   00000033   00                 DC8 0
   \   00000034   436861726765       DC8 "Charger"
   \              7200        
   \   0000003C   25743A204F66       DC8 "%t: Off"
   \              6600        
   \   00000044   4C6173742063       DC8 "Last charge"
   \              686172676500
   \   00000050   53797374656D       DC8 "System info"
   \              20696E666F00
   \   0000005C   253032642573       DC8 "%02d%s, %02d:%02d:%02d"
   \              2C2025303264
   \              3A253032643A
   \              2530326400  
   \   00000073   00                 DC8 0
   \   00000074   25743A202530       DC8 "%t: %02d:%02d:%02d"
   \              32643A253032
   \              643A25303264
   \              00          
   \   00000087   00                 DC8 0
   \   00000088   52756E74696D       DC8 "Runtime"
   \              6500        
   \   00000090   25743A202564       DC8 "%t: %dKb"
   \              4B6200      
   \   00000099   000000             DC8 0, 0, 0
   \   0000009C   467265655261       DC8 "FreeRam"
   \              6D00        
   \   000000A4   25743A202564       DC8 "%t: %dB/s"
   \              422F7300    
   \   000000AE   0000               DC8 0, 0
   \   000000B0   537065656400       DC8 "Speed"
   \   000000B6   0000               DC8 0, 0
   \   000000B8   53657373696F       DC8 "Session"
   \              6E00        
   \   000000C0   25743A202573       DC8 "%t: %sKb"
   \              4B6200      
   \   000000C9   000000             DC8 0, 0, 0
   \   000000CC   4C6173742053       DC8 "Last Ses"
   \              657300      
   \   000000D5   000000             DC8 0, 0, 0
   \   000000D8   25743A202573       DC8 "%t: %s"
   \              00          
   \   000000DF   00                 DC8 0
   \   000000E0   546F74616C00       DC8 "Total"
   \   000000E6   0000               DC8 0, 0
   \   000000E8   47505253204F       DC8 "GPRS Offline"
   \              66666C696E65
   \              00          
   \   000000F5   000000             DC8 0, 0, 0
   \   000000F8   475052532069       DC8 "GPRS info"
   \              6E666F00    
   \   00000102   0000               DC8 0, 0

   \                                 In segment DATA_C, align 4, align-sorted
   \   00000000   25743A00           DC8 "%t:"

   \                                 In segment DATA_C, align 4, align-sorted
   \   00000000   6A616E00           DC8 "jan"

   \                                 In segment DATA_C, align 4, align-sorted
   \   00000000   66656200           DC8 "feb"

   \                                 In segment DATA_C, align 4, align-sorted
   \   00000000   6D617200           DC8 "mar"

   \                                 In segment DATA_C, align 4, align-sorted
   \   00000000   61707200           DC8 "apr"

   \                                 In segment DATA_C, align 4, align-sorted
   \   00000000   6D617900           DC8 "may"

   \                                 In segment DATA_C, align 4, align-sorted
   \   00000000   6A756E00           DC8 "jun"

   \                                 In segment DATA_C, align 4, align-sorted
   \   00000000   61756700           DC8 "aug"

   \                                 In segment DATA_C, align 4, align-sorted
   \   00000000   73657000           DC8 "sep"

   \                                 In segment DATA_C, align 4, align-sorted
   \   00000000   6A756C00           DC8 "jul"

   \                                 In segment DATA_C, align 4, align-sorted
   \   00000000   6F637400           DC8 "oct"

   \                                 In segment DATA_C, align 4, align-sorted
   \   00000000   6E6F7600           DC8 "nov"

   \                                 In segment DATA_C, align 4, align-sorted
   \   00000000   64656300           DC8 "dec"

   \                                 In segment DATA_C, align 4, align-sorted
   \   00000000   25742000           DC8 "%t "

   \                                 In segment DATA_C, align 4, align-sorted
   \                     `?<Constant "Naticq">`:
   \   00000000   4E6174696371       DC8 "Naticq"
   \              00          
   \   00000007   00                 DC8 0
   \   00000008   42616C6C6574       DC8 "Ballet"
   \              00          
   \   0000000F   00                 DC8 0
   \   00000010   5369654A4300       DC8 "SieJC"
   \   00000016   0000               DC8 0, 0

   \                                 In segment DATA_C, align 4, align-sorted
   \                     `?<Constant "4:\\\\zbin\\\\miosd\\\\img1.png">`:
   \   00000000   343A5C7A6269       DC8 "4:\\zbin\\miosd\\img1.png"
   \              6E5C6D696F73
   \              645C696D6731
   \              2E706E6700  
   \   00000017   00                 DC8 0
   \   00000018   343A5C7A6269       DC8 "4:\\zbin\\miosd\\img2.png"
   \              6E5C6D696F73
   \              645C696D6732
   \              2E706E6700  
   \   0000002F   00                 DC8 0
   \   00000030   343A5C7A6269       DC8 "4:\\zbin\\miosd\\img6.png"
   \              6E5C6D696F73
   \              645C696D6736
   \              2E706E6700  
   \   00000047   00                 DC8 0
   \   00000048   343A5C7A6269       DC8 "4:\\zbin\\miosd\\img7.png"
   \              6E5C6D696F73
   \              645C696D6737
   \              2E706E6700  
   \   0000005F   00                 DC8 0
   \   00000060   343A5C7A6269       DC8 "4:\\zbin\\miosd\\img4.png"
   \              6E5C6D696F73
   \              645C696D6734
   \              2E706E6700  
   \   00000077   00                 DC8 0
   \   00000078   343A5C7A6269       DC8 "4:\\zbin\\miosd\\img3.png"
   \              6E5C6D696F73
   \              645C696D6733
   \              2E706E6700  
   \   0000008F   00                 DC8 0
   \   00000090   343A5C7A6269       DC8 "4:\\zbin\\miosd\\img5.png"
   \              6E5C6D696F73
   \              645C696D6735
   \              2E706E6700  
   \   000000A7   00                 DC8 0
   \   000000A8   343A5C7A6269       DC8 "4:\\zbin\\miosd\\app1.png"
   \              6E5C6D696F73
   \              645C61707031
   \              2E706E6700  
   \   000000BF   00                 DC8 0
   \   000000C0   343A5C7A6269       DC8 "4:\\zbin\\miosd\\app2.png"
   \              6E5C6D696F73
   \              645C61707032
   \              2E706E6700  
   \   000000D7   00                 DC8 0
   \   000000D8   343A5C7A6269       DC8 "4:\\zbin\\miosd\\app3.png"
   \              6E5C6D696F73
   \              645C61707033
   \              2E706E6700  
   \   000000EF   00                 DC8 0

   \                                 In segment DATA_C, align 4, align-sorted
   \                     `?<Constant "4:\\\\zbin\\\\naticq\\\\naticq...">`:
   \   00000000   343A5C7A6269       DC8 "4:\\zbin\\naticq\\naticq.elf"
   \              6E5C6E617469
   \              63715C6E6174
   \              6963712E656C
   \              6600        
   \   0000001A   0000               DC8 0, 0
   \   0000001C   343A5C5A6269       DC8 "4:\\Zbin\\balletmini\\BalletMini.elf"
   \              6E5C62616C6C
   \              65746D696E69
   \              5C42616C6C65
   \              744D696E692E
   \              656C6600    
   \   0000003E   0000               DC8 0, 0
   \   00000040   343A5C5A6269       DC8 "4:\\Zbin\\siejc\\siejc.elf"
   \              6E5C7369656A
   \              635C7369656A
   \              632E656C6600

   \                                 In segment DATA_C, align 4, align-sorted
   \                     `?<Constant "GET /wap/weatherr.php...">`:
   \   00000000   474554202F77       DC8 47H, 45H, 54H, 20H, 2FH, 77H, 61H, 70H
   \              6170        
   \   00000008   2F7765617468       DC8 2FH, 77H, 65H, 61H, 74H, 68H, 65H, 72H
   \              6572        
   \   00000010   722E7068703F       DC8 72H, 2EH, 70H, 68H, 70H, 3FH, 63H, 69H
   \              6369        
   \   00000018   74793D76656E       DC8 74H, 79H, 3DH, 76H, 65H, 6EH, 74H, 73H
   \              7473        
   \   00000020   70696C732048       DC8 70H, 69H, 6CH, 73H, 20H, 48H, 54H, 54H
   \              5454        
   \   00000028   502F312E310A       DC8 50H, 2FH, 31H, 2EH, 31H, 0AH, 41H, 63H
   \              4163        
   \   00000030   636570742D4C       DC8 63H, 65H, 70H, 74H, 2DH, 4CH, 61H, 6EH
   \              616E        
   \   00000038   67756167653A       DC8 67H, 75H, 61H, 67H, 65H, 3AH, 20H, 65H
   \              2065        
   \   00000040   6E2D75730A41       DC8 6EH, 2DH, 75H, 73H, 0AH, 41H, 63H, 63H
   \              6363        
   \   00000048   6570742D456E       DC8 65H, 70H, 74H, 2DH, 45H, 6EH, 63H, 6FH
   \              636F        
   \   00000050   64696E673A20       DC8 64H, 69H, 6EH, 67H, 3AH, 20H, 67H, 7AH
   \              677A        
   \   00000058   69702C206465       DC8 69H, 70H, 2CH, 20H, 64H, 65H, 66H, 6CH
   \              666C        
   \   00000060   6174650A5573       DC8 61H, 74H, 65H, 0AH, 55H, 73H, 65H, 72H
   \              6572        
   \   00000068   2D4167656E74       DC8 2DH, 41H, 67H, 65H, 6EH, 74H, 3AH, 20H
   \              3A20        
   \   00000070   4D6F7A696C6C       DC8 4DH, 6FH, 7AH, 69H, 6CH, 6CH, 61H, 2FH
   \              612F        
   \   00000078   342E30202863       DC8 34H, 2EH, 30H, 20H, 28H, 63H, 6FH, 6DH
   \              6F6D        
   \   00000080   70617469626C       DC8 70H, 61H, 74H, 69H, 62H, 6CH, 65H, 3BH
   \              653B        
   \   00000088   204D53494520       DC8 20H, 4DH, 53H, 49H, 45H, 20H, 36H, 2EH
   \              362E        
   \   00000090   303B2057696E       DC8 30H, 3BH, 20H, 57H, 69H, 6EH, 64H, 6FH
   \              646F        
   \   00000098   7773204E5420       DC8 77H, 73H, 20H, 4EH, 54H, 20H, 35H, 2EH
   \              352E        
   \   000000A0   313B20535631       DC8 31H, 3BH, 20H, 53H, 56H, 31H, 29H, 0AH
   \              290A        
   \   000000A8   486F73743A20       DC8 48H, 6FH, 73H, 74H, 3AH, 20H, 77H, 77H
   \              7777        
   \   000000B0   772E3131382E       DC8 77H, 2EH, 31H, 31H, 38H, 2EH, 6CH, 76H
   \              6C76        
   \   000000B8   0A436F6E6E65       DC8 0AH, 43H, 6FH, 6EH, 6EH, 65H, 63H, 74H
   \              6374        
   \   000000C0   696F6E3A2043       DC8 69H, 6FH, 6EH, 3AH, 20H, 43H, 6CH, 6FH
   \              6C6F        
   \   000000C8   73650A0A00         DC8 73H, 65H, 0AH, 0AH, 0
   \   000000CD   000000             DC8 0, 0, 0

   \                                 In segment DATA_C, align 4, align-sorted
   \                     `?<Constant "<p>Paslaik: ">`:
   \   00000000   3C703E506173       DC8 "<p>Paslaik: "
   \              6C61696B3A20
   \              00          
   \   0000000D   000000             DC8 0, 0, 0

   \                                 In segment DATA_C, align 4, align-sorted
   \                     `?<Constant "<br/>">`:
   \   00000000   3C62722F3E00       DC8 "<br/>"
   \   00000006   0000               DC8 0, 0
   \   00000008   25733A202573       DC8 "%s: %s"
   \              00          
   \   0000000F   00                 DC8 0
   \   00000010   54656D706572       DC8 "Temperature"
   \              617475726500
   \   0000001C   57696E6400         DC8 "Wind"
   \   00000021   000000             DC8 0, 0, 0
   \   00000024   253032642D25       DC8 "%02d-%02d at %02d:%02d"
   \              303264206174
   \              20253032643A
   \              2530326400  
   \   0000003B   00                 DC8 0

   \                                 In segment DATA_C, align 4, align-sorted
   \                     `?<Constant "http://www.118.lv/ima...">`:
   \   00000000   687474703A2F       DC8 "http://www.118.lv/images/icons/weather/"
   \              2F7777772E31
   \              31382E6C762F
   \              696D61676573
   \              2F69636F6E73
   \              2F7765617468
   \              65722F00    

   \                                 In segment DATA_C, align 4, align-sorted
   \                     `?<Constant ".gif">`:
   \   00000000   2E67696600         DC8 ".gif"
   \   00000005   000000             DC8 0, 0, 0

   \                                 In segment DATA_C, align 4, align-sorted
   \                     `?<Constant "4:\\\\zbin\\\\miosd\\\\miosd2....">`:
   \   00000000   343A5C7A6269       DC8 "4:\\zbin\\miosd\\miosd2.file"
   \              6E5C6D696F73
   \              645C6D696F73
   \              64322E66696C
   \              6500        
   \   0000001A   0000               DC8 0, 0
   \   0000001C   556E6B6E6F77       DC8 "Unknown"
   \              6E00        

   \                                 In segment DATA_C, align 1, align-sorted
   \   00000000   256400             DC8 "%d"

   \                                 In segment DATA_C, align 4, align-sorted
   \                     `?<Constant "Active: %02d:%02d:%02d">`:
   \   00000000   416374697665       DC8 "Active: %02d:%02d:%02d"
   \              3A2025303264
   \              3A253032643A
   \              2530326400  
   \   00000017   00                 DC8 0

   \                                 In segment DATA_C, align 4, align-sorted
   \                     `?<Constant "MIOSD 1.5 config upda...">`:
   \   00000000   4D494F534420       DC8 "MIOSD 1.5 config updated!"
   \              312E3520636F
   \              6E6669672075
   \              706461746564
   \              2100        
   \   0000001A   0000               DC8 0, 0
   \   0000001C   436861726769       DC8 "Charging(%dmin)"
   \              6E672825646D
   \              696E2900    
   \   0000002C   253032643A25       DC8 "%02d:%02d, %02d-%02d"
   \              3032642C2025
   \              3032642D2530
   \              326400      
   \   00000041   000000             DC8 0, 0, 0
   \   00000044   343A5C7A6269       DC8 "4:\\zbin\\miosd\\miosd.file"
   \              6E5C6D696F73
   \              645C6D696F73
   \              642E66696C65
   \              00          
   \   0000005D   000000             DC8 0, 0, 0
   \   00000060   4E6576657200       DC8 "Never"
   \   00000066   0000               DC8 0, 0

   \                                 In segment DATA_C, align 1, align-sorted
   \                     `?<Constant "">`:
   \   00000000   00                 DC8 ""

   Maximum stack usage in bytes:

     Function            CSTACK
     --------            ------
     Count_GPRS             12
     DoScreen               20
     DoShowIt               36
     DrawAppLog             44
     DrawBatteryLog         68
     DrawGPRSLog            76
     DrawSystemLog         100
     DrawWeatherLog         68
     DrwImg2                64
     ElfKiller               4
     Execute                52
     MyIDLECSM_onClose       8
     MyIDLECSM_onMessage   112
     OnKey                  20
     OnRedraw               48
     Parsing               132
     UpdateCSMname           4
     charger_c               4
     check_battery          72
     check_gprs             76
     create_connect         40
     end_socket              8
     get_answer              8
     get_month              20
     main                   12
     maincsm_onclose         0
     maincsm_oncreate       20
     maincsm_onmessage       0
     method8                 0
     method9                 0
     my_keyhook             16
     onClose                12
     onCreate                0
     onFocus                 0
     onUnfocus               8
     reboot_ref              4
     runtime_count           4
     send_req               12
     start_again             4
     write_log              64


   Segment part sizes:

     Function/Label                 Bytes
     --------------                 -----
     maincsm_name_body               280
     minus11                           4
     start_g                          32
     DrwImg2                          92
     DoScreen                         76
     DoShowIt                        900
     DrawWeatherLog                  848
     DrawBatteryLog                  732
     get_month                       376
     DrawSystemLog                   804
     reboot_ref                       12
     DrawGPRSLog                    1032
     DrawAppLog                      332
     OnRedraw                        852
     onCreate                         12
     onClose                          36
     onFocus                          12
     onUnfocus                        44
     OnKey                           580
     method8                           8
     method9                           8
     ElfKiller                        24
     Canvas                           52
     maincsm_oncreate                124
     maincsm_onclose                   4
     maincsm_onmessage                48
     ?<Constant "MIOSD">              68
     UpdateCSMname                    28
     MyIDLECSM_onClose                44
     create_connect                  168
     start_again                      52
     send_req                         80
     end_socket                       48
     get_answer                       96
     Parsing                         616
     charger_c                        76
     write_log                       156
     Count_GPRS                      224
     MyIDLECSM_onMessage             828
     Execute                         136
     my_keyhook                      268
     check_battery                   232
     check_gprs                      248
     screen                         5628
     mode_enter                       12
     runtime_count                    96
     main                            144
     ??DataTable0                      4
     ??DataTable7                      4
     ??DataTable8                      4
     ??DataTable12                     4
     ??DataTable16                     4
     ??DataTable23                     4
     ??DataTable30                     4
     ??DataTable31                     4
     ??DataTable33                     4
     ??DataTable35                     4
     ??DataTable38                     4
     ?<Initializer for screen>      5628
     ?<Initializer for mode_enter>    12
     ?<Constant "No Data Yet">        40
     ?<Constant "[%t]">              260
     ?<Constant "%t:">                 4
     ?<Constant "jan">                 4
     ?<Constant "feb">                 4
     ?<Constant "mar">                 4
     ?<Constant "apr">                 4
     ?<Constant "may">                 4
     ?<Constant "jun">                 4
     ?<Constant "aug">                 4
     ?<Constant "sep">                 4
     ?<Constant "jul">                 4
     ?<Constant "oct">                 4
     ?<Constant "nov">                 4
     ?<Constant "dec">                 4
     ?<Constant "%t ">                 4
     ?<Constant "Naticq">             24
     ?<Constant "4:\\zbin\\miosd\\img1.png">
                                     240
     ?<Constant "4:\\zbin\\naticq\\naticq...">
                                      88
     ?<Constant "GET /wap/weatherr.php...">
                                     208
     ?<Constant "<p>Paslaik: ">       16
     ?<Constant "<br/>">              60
     ?<Constant "http://www.118.lv/ima...">
                                      40
     ?<Constant ".gif">                8
     ?<Constant "4:\\zbin\\miosd\\miosd2....">
                                      36
     ?<Constant "%d">                  3
     ?<Constant "Active: %02d:%02d:%02d">
                                      24
     ?<Constant "MIOSD 1.5 config upda...">
                                     104
     ?<Constant "">                    1
      Others                         256

 
 10 772 bytes in segment CODE
  1 332 bytes in segment DATA_C
  5 640 bytes in segment DATA_I
  5 640 bytes in segment DATA_ID
    312 bytes in segment DATA_Z
     24 bytes in segment INITTAB
 
 10 540 bytes of CODE  memory (+ 256 bytes shared)
  6 972 bytes of CONST memory
  5 952 bytes of DATA  memory

Errors: none
Warnings: 1
