##############################################################################
#                                                                            #
# IAR ARM ANSI C/C++ Compiler V4.42A/W32 EVALUATION    06/Oct/2008  21:47:03 #
# Copyright 1999-2005 IAR Systems. All rights reserved.                      #
#                                                                            #
#    Cpu mode        =  interwork                                            #
#    Endian          =  little                                               #
#    Stack alignment =  4                                                    #
#    Source file     =  D:\Pasha\elf\BelleteMini13.05.08\parse_oms.c         #
#    Command line    =  D:\Pasha\elf\BelleteMini13.05.08\parse_oms.c -D      #
#                       NEWSGOLD -D ELKA -lC D:\Pasha\elf\BelleteMini13.05.0 #
#                       8\Release_ELKA\List\ -o D:\Pasha\elf\BelleteMini13.0 #
#                       5.08\Release_ELKA\Obj\ -s9 --no_unroll --no_inline   #
#                       --cpu_mode arm --endian little --cpu ARM926EJ-S      #
#                       --stack_align 4 --interwork -e --fpu None            #
#                       --dlib_config "D:\Pasha\Embedded Workbench 4.0       #
#                       Evaluation2\ARM\LIB\dl5tpainl8n.h" -I                #
#                       "D:\Pasha\Embedded Workbench 4.0                     #
#                       Evaluation2\ARM\INC\"                                #
#    List file       =  D:\Pasha\elf\BelleteMini13.05.08\Release_ELKA\List\p #
#                       arse_oms.lst                                         #
#    Object file     =  D:\Pasha\elf\BelleteMini13.05.08\Release_ELKA\Obj\pa #
#                       rse_oms.r79                                          #
#                                                                            #
#                                                                            #
##############################################################################

D:\Pasha\elf\BelleteMini13.05.08\parse_oms.c
      1          /*
      2          x [1] 2l lid 2l lvalue
      3          s 2l lid 1 2count o 2l lo_name 2l lo_id 1checked ...  // 1 странный байт на гугл сеттингс равен 0 на симка 1
      4          
      5          Известные поядки тэгов:
      6          L T E
      7          L I S T E
      8          L I T E
      9          L T S T T T B E
     10          L K E
     11          K
     12          L K I E
     13          Z J E
     14          i I
     15          i J
     16          i Z I E - yandex maps
     17          L Z I E E - patches siemens club
     18          L P T E T P T E T E - perk11.info/dantix
     19          L B T J E - глупости!
     20          L T B Y E - глупости!
     21          
     22          formum.siemens-club.org
     23          ...T P E B T B L K E L K E L K E L K E K K B T B T T B...
     24          ...K B T B L K I E B B T B T T...
     25          patches.siemens-club.org/patches
     26          S + T L Z I E E L I E B S L T B E B D I S T B S L T E
     27          L T B E B V Y T h_opf_1 C s B Y L T s B Y L T E B Y T 
     28          mywishlist.ru
     29          S X 9байт_каких_то + I 'какойто B + T L I S T E L I T
     30          E L I T E B L I E B S B D T h_opf_1 C x B T p B c T B
     31          V S L T B E B B N D  облом_внешняя_ошибка
     32          dtf.ru
     33          S X I + T L B S T L T E L I E h_opf_1 i=_id_value I L
     34          T B E B S L B D
     35          google.com/reader/m   -  purple magic
     36          S X + I + T L I E S T B B D V Y T B S B D T S
     37          T L T E Y T S L T E B Y T "2" Y T L T E Y T Y
     38          L T E B Y T "3" Y T L T E Y T Y L T E B Y T "4"
     39          Y T L T E Y T Y L T E B Y T "5" Y T L T T E Y T
     40          expert.com - компоновка картинок
     41          X + I + T L I E !B! L I E L I E B L I E L 
     42          wap.lingvo
     43          S + T S L B D T B S E T B h_opf_1 B Y L T B E L T B E L 
     44          */
     45          
     46          #include "../inc/swilib.h"
     47          #include "parse_oms.h"
     48          #include "additems.h"
     49          #include "string_works.h"
     50          #include "..\inc\zlib.h"
     51          //#include <stdlib.h>
     52          //#include <string.h>
     53          //#include <stdio.h>
     54          
     55          #pragma inline

   \                                 In segment CODE, align 4, keep-with-next
     56          unsigned int _rbyte(VIEWDATA *vd)
     57          {
     58            unsigned char *p=(unsigned char *)(vd->oms+vd->oms_pos);
     59            unsigned int r=*p++;
   \                     _rbyte:
   \   00000000   442090E5           LDR      R2,[R0, #+68]
   \   00000004   3C1090E5           LDR      R1,[R0, #+60]
   \   00000008   0110D2E7           LDRB     R1,[R2, +R1]
     60            vd->oms_pos+=1;
   \   0000000C   012082E2           ADD      R2,R2,#+1
   \   00000010   442080E5           STR      R2,[R0, #+68]
     61            return r;
   \   00000014   0100A0E1           MOV      R0,R1
   \   00000018   1EFF2FE1           BX       LR               ;; return
     62          }
     63          

   \                                 In segment CODE, align 4, keep-with-next
     64          static unsigned int _rshort(VIEWDATA *vd)
     65          {
     66            unsigned char *p=(unsigned char *)(vd->oms+vd->oms_pos);
   \                     _rshort:
   \   00000000   442090E5           LDR      R2,[R0, #+68]
   \   00000004   3C1090E5           LDR      R1,[R0, #+60]
   \   00000008   011082E0           ADD      R1,R2,R1
     67            unsigned int r=*p++;
   \   0000000C   ........           LDRB     R3,[R1], #+1
     68            r<<=8;
     69            r|=*p;
   \   00000010   0010D1E5           LDRB     R1,[R1, #+0]
     70            vd->oms_pos+=2;
   \   00000014   022082E2           ADD      R2,R2,#+2
   \   00000018   442080E5           STR      R2,[R0, #+68]
   \   0000001C   031481E1           ORR      R1,R1,R3, LSL #+8
     71            return r;
   \   00000020   0100A0E1           MOV      R0,R1
   \   00000024   1EFF2FE1           BX       LR               ;; return
     72          }
     73          

   \                                 In segment CODE, align 4, keep-with-next
     74          unsigned int _rlong(VIEWDATA *vd)
     75          {
     76            unsigned char *p=(unsigned char *)(vd->oms+vd->oms_pos);
   \                     _rlong:
   \   00000000   442090E5           LDR      R2,[R0, #+68]
   \   00000004   3C1090E5           LDR      R1,[R0, #+60]
   \   00000008   011082E0           ADD      R1,R2,R1
     77            unsigned int r=*p++;
   \   0000000C   ........           LDRB     R3,[R1], #+1
     78            r<<=8;r|=*p++;
   \   00000010   ........           LDRB     R12,[R1], #+1
     79            r<<=8;r|=*p++;
     80            r<<=8;r|=*p;
     81            vd->oms_pos+=4;
   \   00000014   042082E2           ADD      R2,R2,#+4
   \   00000018   03348CE1           ORR      R3,R12,R3, LSL #+8
   \   0000001C   ........           LDRB     R12,[R1], #+1
   \   00000020   0010D1E5           LDRB     R1,[R1, #+0]
   \   00000024   442080E5           STR      R2,[R0, #+68]
   \   00000028   03348CE1           ORR      R3,R12,R3, LSL #+8
   \   0000002C   031481E1           ORR      R1,R1,R3, LSL #+8
     82            return r;
   \   00000030   0100A0E1           MOV      R0,R1
   \   00000034   1EFF2FE1           BX       LR               ;; return
     83          }
     84          
     85          // Функции-заглушки для ZLib

   \                                 In segment CODE, align 4, keep-with-next
     86          void* zcalloc(int unk,size_t nelem, size_t elsize)
     87          {
   \                     zcalloc:
   \   00000000   00402DE9           PUSH     {LR}
     88            return (malloc(nelem*elsize));
   \   00000004   920100E0           MUL      R0,R2,R1
   \   00000008   140000EF           SWI      +20
   \   0000000C   0080BDE8           POP      {PC}             ;; return
     89          }
     90          

   \                                 In segment CODE, align 4, keep-with-next
     91          void zcfree(int unk, void* ptr)
     92          {
   \                     zcfree:
   \   00000000   00402DE9           PUSH     {LR}
   \   00000004   0100A0E1           MOV      R0,R1
     93            mfree(ptr);
   \   00000008   150000EF           SWI      +21
     94          }
   \   0000000C   0080BDE8           POP      {PC}             ;; return
     95          
     96          //static const char slash[]="/";
     97          

   \                                 In segment CODE, align 4, keep-with-next
     98          void OMS_DataArrived(VIEWDATA *vd, const char *buf, int len)
     99          {
   \                     OMS_DataArrived:
   \   00000000   F64F2DE9           PUSH     {R1,R2,R4-R11,LR}
   \   00000004   88D04DE2           SUB      SP,SP,#+136
   \   00000008   0050A0E1           MOV      R5,R0
   \   0000000C   000052E3           CMP      R2,#+0
   \   00000010   00005113           CMPNE    R1,#+0
   \   00000014   0000001A           BNE      ??OMS_DataArrived_4
    100            int i;
    101            unsigned int k;
    102            int err;
    103            char s[128];
    104            if ((len==0)||(buf==0))
    105            {
    106              vd->parse_state=OMS_STOP;
   \                     ??OMS_DataArrived_5:
   \   00000018   540600EA           B        ??OMS_DataArrived_6
    107              return;
    108            }
    109            vd->loaded_sz+=len;
   \                     ??OMS_DataArrived_4:
   \   0000001C   D00095E5           LDR      R0,[R5, #+208]
   \   00000020   000082E0           ADD      R0,R2,R0
   \   00000024   D00085E5           STR      R0,[R5, #+208]
   \   00000028   000095E5           LDR      R0,[R5, #+0]
   \   0000002C   000050E3           CMP      R0,#+0
   \   00000030   2C00000A           BEQ      ??OMS_DataArrived_7
    110            if (vd->zs)
    111            {
    112            L_ZBEGIN:
    113              vd->zs->next_in=(Byte *)buf;
   \                     ??OMS_DataArrived_8:
   \   00000034   000095E5           LDR      R0,[R5, #+0]
   \   00000038   88109DE5           LDR      R1,[SP, #+136]
   \   0000003C   001080E5           STR      R1,[R0, #+0]
    114              vd->zs->avail_in=len;
   \   00000040   8C109DE5           LDR      R1,[SP, #+140]
   \   00000044   041080E5           STR      R1,[R0, #+4]
    115            L_ZNEXT:
    116              vd->zs->next_out=(Byte *)(vd->oms=realloc(vd->oms,vd->oms_size+len))+vd->oms_size;
   \                     ??OMS_DataArrived_9:
   \   00000048   400095E5           LDR      R0,[R5, #+64]
   \   0000004C   8C109DE5           LDR      R1,[SP, #+140]
   \   00000050   001081E0           ADD      R1,R1,R0
   \   00000054   3C0095E5           LDR      R0,[R5, #+60]
   \   00000058   BA0000EF           SWI      +186
   \   0000005C   3C0085E5           STR      R0,[R5, #+60]
   \   00000060   000095E5           LDR      R0,[R5, #+0]
   \   00000064   401095E5           LDR      R1,[R5, #+64]
   \   00000068   3C2095E5           LDR      R2,[R5, #+60]
   \   0000006C   021081E0           ADD      R1,R1,R2
   \   00000070   0C1080E5           STR      R1,[R0, #+12]
    117              vd->zs->avail_out=len;
   \   00000074   8C109DE5           LDR      R1,[SP, #+140]
   \   00000078   101080E5           STR      R1,[R0, #+16]
    118              err=inflate(vd->zs, Z_NO_FLUSH);
   \   0000007C   0010A0E3           MOV      R1,#+0
   \   00000080   A00100EF           SWI      +416
    119              switch (err)
   \   00000084   020050E3           CMP      R0,#+2
   \   00000088   04007013           CMNNE    R0,#+4
   \   0000008C   03007013           CMNNE    R0,#+3
   \   00000090   0C00001A           BNE      ??OMS_DataArrived_10
    120              {
    121              case Z_NEED_DICT:
    122              case Z_DATA_ERROR:
    123              case Z_MEM_ERROR:
    124                sprintf(s,"ZLib Err %d\n",err);
   \   00000094   68119FE5           LDR      R1,??OMS_DataArrived_11  ;; `?<Constant "ZLib Err %d\\n">`
   \   00000098   0020A0E1           MOV      R2,R0
   \                     ??OMS_DataArrived_12:
   \   0000009C   08008DE2           ADD      R0,SP,#+8
   \   000000A0   160000EF           SWI      +22
    125                AddTextItem(vd,s,strlen(s));
   \   000000A4   08008DE2           ADD      R0,SP,#+8
   \   000000A8   1B0000EF           SWI      +27
   \   000000AC   0020A0E1           MOV      R2,R0
   \   000000B0   08108DE2           ADD      R1,SP,#+8
   \   000000B4   0500A0E1           MOV      R0,R5
   \   000000B8   ........           _BLF     AddTextItem,??AddTextItem??rA
    126                AddBrItem(vd);
   \   000000BC   0500A0E1           MOV      R0,R5
   \   000000C0   ........           _BLF     AddBrItem,??AddBrItem??rA
    127                vd->parse_state=OMS_STOP;
   \   000000C4   290600EA           B        ??OMS_DataArrived_6
    128                return;
    129              }
    130              vd->oms_size+=len-vd->zs->avail_out;
   \                     ??OMS_DataArrived_10:
   \   000000C8   400095E5           LDR      R0,[R5, #+64]
   \   000000CC   8C109DE5           LDR      R1,[SP, #+140]
   \   000000D0   000081E0           ADD      R0,R1,R0
   \   000000D4   001095E5           LDR      R1,[R5, #+0]
   \   000000D8   101091E5           LDR      R1,[R1, #+16]
   \   000000DC   010040E0           SUB      R0,R0,R1
   \   000000E0   400085E5           STR      R0,[R5, #+64]
   \   000000E4   0D0000EA           B        ??OMS_DataArrived_13
    131            }
    132            else
    133            {
    134              memcpy((vd->oms=realloc(vd->oms,i=vd->oms_size+len))+vd->oms_size,buf,len);
   \                     ??OMS_DataArrived_7:
   \   000000E8   400095E5           LDR      R0,[R5, #+64]
   \   000000EC   8C109DE5           LDR      R1,[SP, #+140]
   \   000000F0   004081E0           ADD      R4,R1,R0
   \   000000F4   3C0095E5           LDR      R0,[R5, #+60]
   \   000000F8   0410A0E1           MOV      R1,R4
   \   000000FC   BA0000EF           SWI      +186
   \   00000100   3C0085E5           STR      R0,[R5, #+60]
   \   00000104   400095E5           LDR      R0,[R5, #+64]
   \   00000108   3C3095E5           LDR      R3,[R5, #+60]
   \   0000010C   8C209DE5           LDR      R2,[SP, #+140]
   \   00000110   88109DE5           LDR      R1,[SP, #+136]
   \   00000114   030080E0           ADD      R0,R0,R3
   \   00000118   1E0100EF           SWI      +286
    135              vd->oms_size=i;
   \   0000011C   404085E5           STR      R4,[R5, #+64]
   \                     ??OMS_DataArrived_13:
   \   00000120   4C0095E5           LDR      R0,[R5, #+76]
   \   00000124   0660A0E3           MOV      R6,#+6
   \   00000128   000050E3           CMP      R0,#+0
   \   0000012C   0A00001A           BNE      ??OMS_DataArrived_14
    136            }
    137            if (vd->parse_state==OMS_BEGIN)
    138            {
    139              vd->oms_wanted=sizeof(OMS_HEADER_COMMON);
   \   00000130   486085E5           STR      R6,[R5, #+72]
    140              vd->parse_state=OMS_HDR_COMMON;
   \   00000134   0100A0E3           MOV      R0,#+1
   \   00000138   4C0085E5           STR      R0,[R5, #+76]
    141              vd->loaded_sz-=sizeof(OMS_HEADER_COMMON);
   \   0000013C   D00095E5           LDR      R0,[R5, #+208]
   \   00000140   060040E2           SUB      R0,R0,#+6
   \   00000144   D00085E5           STR      R0,[R5, #+208]
   \   00000148   030000EA           B        ??OMS_DataArrived_14
    142            }
    143            while(vd->oms_size>=vd->oms_wanted)
    144            {
    145              switch(vd->parse_state)
    146              {
    147              case OMS_HDR_COMMON:
    148                //Получен заголовок
    149                memset(&(vd->work_ref),0xFF,sizeof(REFCACHE));
    150                memset(&(vd->work_ref_Z),0xFF,sizeof(REFCACHE));
    151                i=_rshort(vd);
    152                vd->page_sz=_rlong(vd);
    153                vd->oms_wanted+=sizeof(OMS_HEADER_V2);
    154                vd->parse_state=OMS_HDR;
    155                {
    156                  switch(i)
    157                  {
    158                  case 0x0D33:
    159                    vd->oms_wanted-=2;
    160                    break;
    161                  case 0x1833:
    162                    break;
    163                  case 0x0D31:
    164                    vd->oms_wanted-=sizeof(OMS_HEADER_V2)-10; //10 - размер хедера GZIP
    165                    vd->parse_state=OMS_GZIPHDR;
    166                    break;
    167                  case 0x1832:
    168                  L_ZINIT:
    169                    //Производим инициализацию ZLib
    170                    zeromem(vd->zs=malloc(sizeof(z_stream)),sizeof(z_stream));
    171                    vd->zs->zalloc = (alloc_func)zcalloc;
    172                    vd->zs->zfree = (free_func)zcfree;
    173                    vd->zs->opaque = (voidpf)0;
    174                    err = inflateInit2(vd->zs,-MAX_WBITS);
    175                    if(err!=Z_OK)
    176                    {
    177                      sprintf(s,"inflateInit2 err %d\n",err);
    178                      AddTextItem(vd,s,strlen(s));
    179                      AddBrItem(vd);
    180                      vd->parse_state=OMS_STOP;
    181                      return;
    182                    }
    183                    //Теперь после vd->oms_pos до vd->oms_size есть данные ZLib
    184                    //Они же есть в buf+len-(vd->oms_size-vd->oms_pos) длинной vd->oms_size-vd->oms_pos
    185                    //Их необходимо обработать через ZLib
    186                    i=vd->oms_size-vd->oms_pos;
    187                    if (!i) return; //Нет данных
    188                    buf=buf+len-i; //Новый указатель на данные
    189                    len=i; //Новая длинна
    190                    vd->oms_size=vd->oms_pos; //Возращаем размер на начало данных ZLib
    191                    goto L_ZBEGIN;
    192                  default:
    193                    sprintf(s,"Not supported type %X\n",i);
    194                    AddTextItem(vd,s,strlen(s));
    195                    AddBrItem(vd);
    196                    vd->parse_state=OMS_STOP;
    197                    return;
    198                  }
    199                }
    200                break;
    201              case OMS_GZIPHDR:
    202                //Пропустили хедер гзипа
    203                vd->oms_pos=vd->oms_wanted;
    204                vd->oms_wanted+=sizeof(OMS_HEADER_V2)-2; //Заголовок V1
    205                vd->parse_state=OMS_HDR;
    206                goto L_ZINIT;
    207              case OMS_HDR:
    208                vd->oms_pos=vd->oms_wanted;
   \                     ??OMS_DataArrived_15:
   \   0000014C   44C085E5           STR      R12,[R5, #+68]
    209                vd->oms_wanted+=2;
   \   00000150   488085E5           STR      R8,[R5, #+72]
    210                vd->parse_state=OMS_PAGEURL_SIZE;
   \   00000154   0400A0E3           MOV      R0,#+4
   \                     ??OMS_DataArrived_16:
   \   00000158   4C0085E5           STR      R0,[R5, #+76]
   \                     ??OMS_DataArrived_14:
   \   0000015C   48C095E5           LDR      R12,[R5, #+72]
   \   00000160   400095E5           LDR      R0,[R5, #+64]
   \   00000164   0C0050E1           CMP      R0,R12
   \   00000168   350900BA           BLT      ??OMS_DataArrived_17
   \   0000016C   44E095E5           LDR      LR,[R5, #+68]
   \   00000170   642095E5           LDR      R2,[R5, #+100]
   \   00000174   0E704CE0           SUB      R7,R12,LR
   \   00000178   04708DE5           STR      R7,[SP, #+4]
   \   0000017C   3C1095E5           LDR      R1,[R5, #+60]
   \   00000180   4CA095E5           LDR      R10,[R5, #+76]
   \   00000184   687095E5           LDR      R7,[R5, #+104]
   \   00000188   02004EE2           SUB      R0,LR,#+2
   \   0000018C   0E3082E0           ADD      R3,R2,LR
   \   00000190   02808CE2           ADD      R8,R12,#+2
   \   00000194   01908CE2           ADD      R9,R12,#+1
   \   00000198   01108EE0           ADD      R1,LR,R1
   \   0000019C   01A04AE2           SUB      R10,R10,#+1
   \   000001A0   24005AE3           CMP      R10,#+36
   \   000001A4   1909008A           BHI      ??OMS_DataArrived_18
   \   000001A8   02BF8FE2           ADR      R11,??OMS_DataArrived_0
   \   000001AC   8AA0A0E1           MOV      R10,R10, LSL #+1
   \   000001B0   FAB09BE1           LDRSH    R11,[R11, R10]
   \   000001B4   0BF18FE0           ADD      PC,PC,R11, LSL #+2
   \                     ??OMS_DataArrived_0:
   \   000001B8   1300E4FFCA05       DC16     +19,+65508,+1482,+1521
   \              F105        
   \   000001C0   F8050B067006       DC16     +1528,+1547,+1648,+2017
   \              E107        
   \   000001C8   E50702080B08       DC16     +2021,+2050,+2059,+2063
   \              0F08        
   \   000001D0   19081D082808       DC16     +2073,+2077,+2088,+2094
   \              2E08        
   \   000001D8   390845085008       DC16     +2105,+2117,+2128,+2140
   \              5C08        
   \   000001E0   390867087208       DC16     +2105,+2151,+2162,+2175
   \              7F08        
   \   000001E8   8A089708AB08       DC16     +2186,+2199,+2219,+2230
   \              B608        
   \   000001F0   D508E008E808       DC16     +2261,+2272,+2280,+2304
   \              0009        
   \   000001F8   E10704090009       DC16     +2017,+2308,+2304,+2313
   \              0909        
   \   00000200   28090000           DC16     +2344,+0
   \                     ??OMS_DataArrived_11:
   \   00000204   ........           DC32     `?<Constant "ZLib Err %d\\n">`
   \                     ??OMS_DataArrived_19:
   \   00000208   2420A0E3           MOV      R2,#+36
   \   0000020C   FF10A0E3           MOV      R1,#+255
   \   00000210   7C0085E2           ADD      R0,R5,#+124
   \   00000214   BB0000EF           SWI      +187
   \   00000218   2420A0E3           MOV      R2,#+36
   \   0000021C   FF10A0E3           MOV      R1,#+255
   \   00000220   A00085E2           ADD      R0,R5,#+160
   \   00000224   BB0000EF           SWI      +187
   \   00000228   0500A0E1           MOV      R0,R5
   \   0000022C   ........           BL       _rshort
   \   00000230   0040A0E1           MOV      R4,R0
   \   00000234   0500A0E1           MOV      R0,R5
   \   00000238   ........           BL       _rlong
   \   0000023C   CC0085E5           STR      R0,[R5, #+204]
   \   00000240   480095E5           LDR      R0,[R5, #+72]
   \   00000244   0210A0E3           MOV      R1,#+2
   \   00000248   230080E2           ADD      R0,R0,#+35
   \   0000024C   480085E5           STR      R0,[R5, #+72]
   \   00000250   4C1085E5           STR      R1,[R5, #+76]
   \   00000254   311044E2           SUB      R1,R4,#+49
   \   00000258   D01E41E2           SUB      R1,R1,#+3328
   \   0000025C   0220A0E3           MOV      R2,#+2
   \   00000260   B02E82E3           ORR      R2,R2,#0xB00
   \   00000264   020051E1           CMP      R1,R2
   \   00000268   9A05008A           BHI      ??OMS_DataArrived_20
   \   0000026C   022F8FE2           ADR      R2,??OMS_DataArrived_1
   \   00000270   8110A0E1           MOV      R1,R1, LSL #+1
   \   00000274   F12092E1           LDRSH    R2,[R2, R1]
   \   00000278   02F18FE0           ADD      PC,PC,R2, LSL #+2
   \                     ??OMS_DataArrived_1:
   \   0000027C   840596058105       DC16     +1412,+1430,+1409,+1430
   \              9605        
   \   00000284   960596059605       DC16     +1430,+1430,+1430,+1430
   \              9605        
   \   0000028C   960596059605       DC16     +1430,+1430,+1430,+1430
   \              9605        
   \   00000294   960596059605       DC16     +1430,+1430,+1430,+1430
   \              9605        
   \   0000029C   960596059605       DC16     +1430,+1430,+1430,+1430
   \              9605        
   \   000002A4   960596059605       DC16     +1430,+1430,+1430,+1430
   \              9605        
   \   000002AC   960596059605       DC16     +1430,+1430,+1430,+1430
   \              9605        
   \   000002B4   960596059605       DC16     +1430,+1430,+1430,+1430
   \              9605        
   \   000002BC   960596059605       DC16     +1430,+1430,+1430,+1430
   \              9605        
   \   000002C4   960596059605       DC16     +1430,+1430,+1430,+1430
   \              9605        
   \   000002CC   960596059605       DC16     +1430,+1430,+1430,+1430
   \              9605        
   \   000002D4   960596059605       DC16     +1430,+1430,+1430,+1430
   \              9605        
   \   000002DC   960596059605       DC16     +1430,+1430,+1430,+1430
   \              9605        
   \   000002E4   960596059605       DC16     +1430,+1430,+1430,+1430
   \              9605        
   \   000002EC   960596059605       DC16     +1430,+1430,+1430,+1430
   \              9605        
   \   000002F4   960596059605       DC16     +1430,+1430,+1430,+1430
   \              9605        
   \   000002FC   960596059605       DC16     +1430,+1430,+1430,+1430
   \              9605        
   \   00000304   960596059605       DC16     +1430,+1430,+1430,+1430
   \              9605        
   \   0000030C   960596059605       DC16     +1430,+1430,+1430,+1430
   \              9605        
   \   00000314   960596059605       DC16     +1430,+1430,+1430,+1430
   \              9605        
   \   0000031C   960596059605       DC16     +1430,+1430,+1430,+1430
   \              9605        
   \   00000324   960596059605       DC16     +1430,+1430,+1430,+1430
   \              9605        
   \   0000032C   960596059605       DC16     +1430,+1430,+1430,+1430
   \              9605        
   \   00000334   960596059605       DC16     +1430,+1430,+1430,+1430
   \              9605        
   \   0000033C   960596059605       DC16     +1430,+1430,+1430,+1430
   \              9605        
   \   00000344   960596059605       DC16     +1430,+1430,+1430,+1430
   \              9605        
   \   0000034C   960596059605       DC16     +1430,+1430,+1430,+1430
   \              9605        
   \   00000354   960596059605       DC16     +1430,+1430,+1430,+1430
   \              9605        
   \   0000035C   960596059605       DC16     +1430,+1430,+1430,+1430
   \              9605        
   \   00000364   960596059605       DC16     +1430,+1430,+1430,+1430
   \              9605        
   \   0000036C   960596059605       DC16     +1430,+1430,+1430,+1430
   \              9605        
   \   00000374   960596059605       DC16     +1430,+1430,+1430,+1430
   \              9605        
   \   0000037C   960596059605       DC16     +1430,+1430,+1430,+1430
   \              9605        
   \   00000384   960596059605       DC16     +1430,+1430,+1430,+1430
   \              9605        
   \   0000038C   960596059605       DC16     +1430,+1430,+1430,+1430
   \              9605        
   \   00000394   960596059605       DC16     +1430,+1430,+1430,+1430
   \              9605        
   \   0000039C   960596059605       DC16     +1430,+1430,+1430,+1430
   \              9605        
   \   000003A4   960596059605       DC16     +1430,+1430,+1430,+1430
   \              9605        
   \   000003AC   960596059605       DC16     +1430,+1430,+1430,+1430
   \              9605        
   \   000003B4   960596059605       DC16     +1430,+1430,+1430,+1430
   \              9605        
   \   000003BC   960596059605       DC16     +1430,+1430,+1430,+1430
   \              9605        
   \   000003C4   960596059605       DC16     +1430,+1430,+1430,+1430
   \              9605        
   \   000003CC   960596059605       DC16     +1430,+1430,+1430,+1430
   \              9605        
   \   000003D4   960596059605       DC16     +1430,+1430,+1430,+1430
   \              9605        
   \   000003DC   960596059605       DC16     +1430,+1430,+1430,+1430
   \              9605        
   \   000003E4   960596059605       DC16     +1430,+1430,+1430,+1430
   \              9605        
   \   000003EC   960596059605       DC16     +1430,+1430,+1430,+1430
   \              9605        
   \   000003F4   960596059605       DC16     +1430,+1430,+1430,+1430
   \              9605        
   \   000003FC   960596059605       DC16     +1430,+1430,+1430,+1430
   \              9605        
   \   00000404   960596059605       DC16     +1430,+1430,+1430,+1430
   \              9605        
   \   0000040C   960596059605       DC16     +1430,+1430,+1430,+1430
   \              9605        
   \   00000414   960596059605       DC16     +1430,+1430,+1430,+1430
   \              9605        
   \   0000041C   960596059605       DC16     +1430,+1430,+1430,+1430
   \              9605        
   \   00000424   960596059605       DC16     +1430,+1430,+1430,+1430
   \              9605        
   \   0000042C   960596059605       DC16     +1430,+1430,+1430,+1430
   \              9605        
   \   00000434   960596059605       DC16     +1430,+1430,+1430,+1430
   \              9605        
   \   0000043C   960596059605       DC16     +1430,+1430,+1430,+1430
   \              9605        
   \   00000444   960596059605       DC16     +1430,+1430,+1430,+1430
   \              9605        
   \   0000044C   960596059605       DC16     +1430,+1430,+1430,+1430
   \              9605        
   \   00000454   960596059605       DC16     +1430,+1430,+1430,+1430
   \              9605        
   \   0000045C   960596059605       DC16     +1430,+1430,+1430,+1430
   \              9605        
   \   00000464   960596059605       DC16     +1430,+1430,+1430,+1430
   \              9605        
   \   0000046C   960596059605       DC16     +1430,+1430,+1430,+1430
   \              9605        
   \   00000474   960596059605       DC16     +1430,+1430,+1430,+1430
   \              9605        
   \   0000047C   960596059605       DC16     +1430,+1430,+1430,+1430
   \              9605        
   \   00000484   960596059605       DC16     +1430,+1430,+1430,+1430
   \              9605        
   \   0000048C   960596059605       DC16     +1430,+1430,+1430,+1430
   \              9605        
   \   00000494   960596059605       DC16     +1430,+1430,+1430,+1430
   \              9605        
   \   0000049C   960596059605       DC16     +1430,+1430,+1430,+1430
   \              9605        
   \   000004A4   960596059605       DC16     +1430,+1430,+1430,+1430
   \              9605        
   \   000004AC   960596059605       DC16     +1430,+1430,+1430,+1430
   \              9605        
   \   000004B4   960596059605       DC16     +1430,+1430,+1430,+1430
   \              9605        
   \   000004BC   960596059605       DC16     +1430,+1430,+1430,+1430
   \              9605        
   \   000004C4   960596059605       DC16     +1430,+1430,+1430,+1430
   \              9605        
   \   000004CC   960596059605       DC16     +1430,+1430,+1430,+1430
   \              9605        
   \   000004D4   960596059605       DC16     +1430,+1430,+1430,+1430
   \              9605        
   \   000004DC   960596059605       DC16     +1430,+1430,+1430,+1430
   \              9605        
   \   000004E4   960596059605       DC16     +1430,+1430,+1430,+1430
   \              9605        
   \   000004EC   960596059605       DC16     +1430,+1430,+1430,+1430
   \              9605        
   \   000004F4   960596059605       DC16     +1430,+1430,+1430,+1430
   \              9605        
   \   000004FC   960596059605       DC16     +1430,+1430,+1430,+1430
   \              9605        
   \   00000504   960596059605       DC16     +1430,+1430,+1430,+1430
   \              9605        
   \   0000050C   960596059605       DC16     +1430,+1430,+1430,+1430
   \              9605        
   \   00000514   960596059605       DC16     +1430,+1430,+1430,+1430
   \              9605        
   \   0000051C   960596059605       DC16     +1430,+1430,+1430,+1430
   \              9605        
   \   00000524   960596059605       DC16     +1430,+1430,+1430,+1430
   \              9605        
   \   0000052C   960596059605       DC16     +1430,+1430,+1430,+1430
   \              9605        
   \   00000534   960596059605       DC16     +1430,+1430,+1430,+1430
   \              9605        
   \   0000053C   960596059605       DC16     +1430,+1430,+1430,+1430
   \              9605        
   \   00000544   960596059605       DC16     +1430,+1430,+1430,+1430
   \              9605        
   \   0000054C   960596059605       DC16     +1430,+1430,+1430,+1430
   \              9605        
   \   00000554   960596059605       DC16     +1430,+1430,+1430,+1430
   \              9605        
   \   0000055C   960596059605       DC16     +1430,+1430,+1430,+1430
   \              9605        
   \   00000564   960596059605       DC16     +1430,+1430,+1430,+1430
   \              9605        
   \   0000056C   960596059605       DC16     +1430,+1430,+1430,+1430
   \              9605        
   \   00000574   960596059605       DC16     +1430,+1430,+1430,+1430
   \              9605        
   \   0000057C   960596059605       DC16     +1430,+1430,+1430,+1430
   \              9605        
   \   00000584   960596059605       DC16     +1430,+1430,+1430,+1430
   \              9605        
   \   0000058C   960596059605       DC16     +1430,+1430,+1430,+1430
   \              9605        
   \   00000594   960596059605       DC16     +1430,+1430,+1430,+1430
   \              9605        
   \   0000059C   960596059605       DC16     +1430,+1430,+1430,+1430
   \              9605        
   \   000005A4   960596059605       DC16     +1430,+1430,+1430,+1430
   \              9605        
   \   000005AC   960596059605       DC16     +1430,+1430,+1430,+1430
   \              9605        
   \   000005B4   960596059605       DC16     +1430,+1430,+1430,+1430
   \              9605        
   \   000005BC   960596059605       DC16     +1430,+1430,+1430,+1430
   \              9605        
   \   000005C4   960596059605       DC16     +1430,+1430,+1430,+1430
   \              9605        
   \   000005CC   960596059605       DC16     +1430,+1430,+1430,+1430
   \              9605        
   \   000005D4   960596059605       DC16     +1430,+1430,+1430,+1430
   \              9605        
   \   000005DC   960596059605       DC16     +1430,+1430,+1430,+1430
   \              9605        
   \   000005E4   960596059605       DC16     +1430,+1430,+1430,+1430
   \              9605        
   \   000005EC   960596059605       DC16     +1430,+1430,+1430,+1430
   \              9605        
   \   000005F4   960596059605       DC16     +1430,+1430,+1430,+1430
   \              9605        
   \   000005FC   960596059605       DC16     +1430,+1430,+1430,+1430
   \              9605        
   \   00000604   960596059605       DC16     +1430,+1430,+1430,+1430
   \              9605        
   \   0000060C   960596059605       DC16     +1430,+1430,+1430,+1430
   \              9605        
   \   00000614   960596059605       DC16     +1430,+1430,+1430,+1430
   \              9605        
   \   0000061C   960596059605       DC16     +1430,+1430,+1430,+1430
   \              9605        
   \   00000624   960596059605       DC16     +1430,+1430,+1430,+1430
   \              9605        
   \   0000062C   960596059605       DC16     +1430,+1430,+1430,+1430
   \              9605        
   \   00000634   960596059605       DC16     +1430,+1430,+1430,+1430
   \              9605        
   \   0000063C   960596059605       DC16     +1430,+1430,+1430,+1430
   \              9605        
   \   00000644   960596059605       DC16     +1430,+1430,+1430,+1430
   \              9605        
   \   0000064C   960596059605       DC16     +1430,+1430,+1430,+1430
   \              9605        
   \   00000654   960596059605       DC16     +1430,+1430,+1430,+1430
   \              9605        
   \   0000065C   960596059605       DC16     +1430,+1430,+1430,+1430
   \              9605        
   \   00000664   960596059605       DC16     +1430,+1430,+1430,+1430
   \              9605        
   \   0000066C   960596059605       DC16     +1430,+1430,+1430,+1430
   \              9605        
   \   00000674   960596059605       DC16     +1430,+1430,+1430,+1430
   \              9605        
   \   0000067C   960596059605       DC16     +1430,+1430,+1430,+1430
   \              9605        
   \   00000684   960596059605       DC16     +1430,+1430,+1430,+1430
   \              9605        
   \   0000068C   960596059605       DC16     +1430,+1430,+1430,+1430
   \              9605        
   \   00000694   960596059605       DC16     +1430,+1430,+1430,+1430
   \              9605        
   \   0000069C   960596059605       DC16     +1430,+1430,+1430,+1430
   \              9605        
   \   000006A4   960596059605       DC16     +1430,+1430,+1430,+1430
   \              9605        
   \   000006AC   960596059605       DC16     +1430,+1430,+1430,+1430
   \              9605        
   \   000006B4   960596059605       DC16     +1430,+1430,+1430,+1430
   \              9605        
   \   000006BC   960596059605       DC16     +1430,+1430,+1430,+1430
   \              9605        
   \   000006C4   960596059605       DC16     +1430,+1430,+1430,+1430
   \              9605        
   \   000006CC   960596059605       DC16     +1430,+1430,+1430,+1430
   \              9605        
   \   000006D4   960596059605       DC16     +1430,+1430,+1430,+1430
   \              9605        
   \   000006DC   960596059605       DC16     +1430,+1430,+1430,+1430
   \              9605        
   \   000006E4   960596059605       DC16     +1430,+1430,+1430,+1430
   \              9605        
   \   000006EC   960596059605       DC16     +1430,+1430,+1430,+1430
   \              9605        
   \   000006F4   960596059605       DC16     +1430,+1430,+1430,+1430
   \              9605        
   \   000006FC   960596059605       DC16     +1430,+1430,+1430,+1430
   \              9605        
   \   00000704   960596059605       DC16     +1430,+1430,+1430,+1430
   \              9605        
   \   0000070C   960596059605       DC16     +1430,+1430,+1430,+1430
   \              9605        
   \   00000714   960596059605       DC16     +1430,+1430,+1430,+1430
   \              9605        
   \   0000071C   960596059605       DC16     +1430,+1430,+1430,+1430
   \              9605        
   \   00000724   960596059605       DC16     +1430,+1430,+1430,+1430
   \              9605        
   \   0000072C   960596059605       DC16     +1430,+1430,+1430,+1430
   \              9605        
   \   00000734   960596059605       DC16     +1430,+1430,+1430,+1430
   \              9605        
   \   0000073C   960596059605       DC16     +1430,+1430,+1430,+1430
   \              9605        
   \   00000744   960596059605       DC16     +1430,+1430,+1430,+1430
   \              9605        
   \   0000074C   960596059605       DC16     +1430,+1430,+1430,+1430
   \              9605        
   \   00000754   960596059605       DC16     +1430,+1430,+1430,+1430
   \              9605        
   \   0000075C   960596059605       DC16     +1430,+1430,+1430,+1430
   \              9605        
   \   00000764   960596059605       DC16     +1430,+1430,+1430,+1430
   \              9605        
   \   0000076C   960596059605       DC16     +1430,+1430,+1430,+1430
   \              9605        
   \   00000774   960596059605       DC16     +1430,+1430,+1430,+1430
   \              9605        
   \   0000077C   960596059605       DC16     +1430,+1430,+1430,+1430
   \              9605        
   \   00000784   960596059605       DC16     +1430,+1430,+1430,+1430
   \              9605        
   \   0000078C   960596059605       DC16     +1430,+1430,+1430,+1430
   \              9605        
   \   00000794   960596059605       DC16     +1430,+1430,+1430,+1430
   \              9605        
   \   0000079C   960596059605       DC16     +1430,+1430,+1430,+1430
   \              9605        
   \   000007A4   960596059605       DC16     +1430,+1430,+1430,+1430
   \              9605        
   \   000007AC   960596059605       DC16     +1430,+1430,+1430,+1430
   \              9605        
   \   000007B4   960596059605       DC16     +1430,+1430,+1430,+1430
   \              9605        
   \   000007BC   960596059605       DC16     +1430,+1430,+1430,+1430
   \              9605        
   \   000007C4   960596059605       DC16     +1430,+1430,+1430,+1430
   \              9605        
   \   000007CC   960596059605       DC16     +1430,+1430,+1430,+1430
   \              9605        
   \   000007D4   960596059605       DC16     +1430,+1430,+1430,+1430
   \              9605        
   \   000007DC   960596059605       DC16     +1430,+1430,+1430,+1430
   \              9605        
   \   000007E4   960596059605       DC16     +1430,+1430,+1430,+1430
   \              9605        
   \   000007EC   960596059605       DC16     +1430,+1430,+1430,+1430
   \              9605        
   \   000007F4   960596059605       DC16     +1430,+1430,+1430,+1430
   \              9605        
   \   000007FC   960596059605       DC16     +1430,+1430,+1430,+1430
   \              9605        
   \   00000804   960596059605       DC16     +1430,+1430,+1430,+1430
   \              9605        
   \   0000080C   960596059605       DC16     +1430,+1430,+1430,+1430
   \              9605        
   \   00000814   960596059605       DC16     +1430,+1430,+1430,+1430
   \              9605        
   \   0000081C   960596059605       DC16     +1430,+1430,+1430,+1430
   \              9605        
   \   00000824   960596059605       DC16     +1430,+1430,+1430,+1430
   \              9605        
   \   0000082C   960596059605       DC16     +1430,+1430,+1430,+1430
   \              9605        
   \   00000834   960596059605       DC16     +1430,+1430,+1430,+1430
   \              9605        
   \   0000083C   960596059605       DC16     +1430,+1430,+1430,+1430
   \              9605        
   \   00000844   960596059605       DC16     +1430,+1430,+1430,+1430
   \              9605        
   \   0000084C   960596059605       DC16     +1430,+1430,+1430,+1430
   \              9605        
   \   00000854   960596059605       DC16     +1430,+1430,+1430,+1430
   \              9605        
   \   0000085C   960596059605       DC16     +1430,+1430,+1430,+1430
   \              9605        
   \   00000864   960596059605       DC16     +1430,+1430,+1430,+1430
   \              9605        
   \   0000086C   960596059605       DC16     +1430,+1430,+1430,+1430
   \              9605        
   \   00000874   960596059605       DC16     +1430,+1430,+1430,+1430
   \              9605        
   \   0000087C   960596059605       DC16     +1430,+1430,+1430,+1430
   \              9605        
   \   00000884   960596059605       DC16     +1430,+1430,+1430,+1430
   \              9605        
   \   0000088C   960596059605       DC16     +1430,+1430,+1430,+1430
   \              9605        
   \   00000894   960596059605       DC16     +1430,+1430,+1430,+1430
   \              9605        
   \   0000089C   960596059605       DC16     +1430,+1430,+1430,+1430
   \              9605        
   \   000008A4   960596059605       DC16     +1430,+1430,+1430,+1430
   \              9605        
   \   000008AC   960596059605       DC16     +1430,+1430,+1430,+1430
   \              9605        
   \   000008B4   960596059605       DC16     +1430,+1430,+1430,+1430
   \              9605        
   \   000008BC   960596059605       DC16     +1430,+1430,+1430,+1430
   \              9605        
   \   000008C4   960596059605       DC16     +1430,+1430,+1430,+1430
   \              9605        
   \   000008CC   960596059605       DC16     +1430,+1430,+1430,+1430
   \              9605        
   \   000008D4   960596059605       DC16     +1430,+1430,+1430,+1430
   \              9605        
   \   000008DC   960596059605       DC16     +1430,+1430,+1430,+1430
   \              9605        
   \   000008E4   960596059605       DC16     +1430,+1430,+1430,+1430
   \              9605        
   \   000008EC   960596059605       DC16     +1430,+1430,+1430,+1430
   \              9605        
   \   000008F4   960596059605       DC16     +1430,+1430,+1430,+1430
   \              9605        
   \   000008FC   960596059605       DC16     +1430,+1430,+1430,+1430
   \              9605        
   \   00000904   960596059605       DC16     +1430,+1430,+1430,+1430
   \              9605        
   \   0000090C   960596059605       DC16     +1430,+1430,+1430,+1430
   \              9605        
   \   00000914   960596059605       DC16     +1430,+1430,+1430,+1430
   \              9605        
   \   0000091C   960596059605       DC16     +1430,+1430,+1430,+1430
   \              9605        
   \   00000924   960596059605       DC16     +1430,+1430,+1430,+1430
   \              9605        
   \   0000092C   960596059605       DC16     +1430,+1430,+1430,+1430
   \              9605        
   \   00000934   960596059605       DC16     +1430,+1430,+1430,+1430
   \              9605        
   \   0000093C   960596059605       DC16     +1430,+1430,+1430,+1430
   \              9605        
   \   00000944   960596059605       DC16     +1430,+1430,+1430,+1430
   \              9605        
   \   0000094C   960596059605       DC16     +1430,+1430,+1430,+1430
   \              9605        
   \   00000954   960596059605       DC16     +1430,+1430,+1430,+1430
   \              9605        
   \   0000095C   960596059605       DC16     +1430,+1430,+1430,+1430
   \              9605        
   \   00000964   960596059605       DC16     +1430,+1430,+1430,+1430
   \              9605        
   \   0000096C   960596059605       DC16     +1430,+1430,+1430,+1430
   \              9605        
   \   00000974   960596059605       DC16     +1430,+1430,+1430,+1430
   \              9605        
   \   0000097C   960596059605       DC16     +1430,+1430,+1430,+1430
   \              9605        
   \   00000984   960596059605       DC16     +1430,+1430,+1430,+1430
   \              9605        
   \   0000098C   960596059605       DC16     +1430,+1430,+1430,+1430
   \              9605        
   \   00000994   960596059605       DC16     +1430,+1430,+1430,+1430
   \              9605        
   \   0000099C   960596059605       DC16     +1430,+1430,+1430,+1430
   \              9605        
   \   000009A4   960596059605       DC16     +1430,+1430,+1430,+1430
   \              9605        
   \   000009AC   960596059605       DC16     +1430,+1430,+1430,+1430
   \              9605        
   \   000009B4   960596059605       DC16     +1430,+1430,+1430,+1430
   \              9605        
   \   000009BC   960596059605       DC16     +1430,+1430,+1430,+1430
   \              9605        
   \   000009C4   960596059605       DC16     +1430,+1430,+1430,+1430
   \              9605        
   \   000009CC   960596059605       DC16     +1430,+1430,+1430,+1430
   \              9605        
   \   000009D4   960596059605       DC16     +1430,+1430,+1430,+1430
   \              9605        
   \   000009DC   960596059605       DC16     +1430,+1430,+1430,+1430
   \              9605        
   \   000009E4   960596059605       DC16     +1430,+1430,+1430,+1430
   \              9605        
   \   000009EC   960596059605       DC16     +1430,+1430,+1430,+1430
   \              9605        
   \   000009F4   960596059605       DC16     +1430,+1430,+1430,+1430
   \              9605        
   \   000009FC   960596059605       DC16     +1430,+1430,+1430,+1430
   \              9605        
   \   00000A04   960596059605       DC16     +1430,+1430,+1430,+1430
   \              9605        
   \   00000A0C   960596059605       DC16     +1430,+1430,+1430,+1430
   \              9605        
   \   00000A14   960596059605       DC16     +1430,+1430,+1430,+1430
   \              9605        
   \   00000A1C   960596059605       DC16     +1430,+1430,+1430,+1430
   \              9605        
   \   00000A24   960596059605       DC16     +1430,+1430,+1430,+1430
   \              9605        
   \   00000A2C   960596059605       DC16     +1430,+1430,+1430,+1430
   \              9605        
   \   00000A34   960596059605       DC16     +1430,+1430,+1430,+1430
   \              9605        
   \   00000A3C   960596059605       DC16     +1430,+1430,+1430,+1430
   \              9605        
   \   00000A44   960596059605       DC16     +1430,+1430,+1430,+1430
   \              9605        
   \   00000A4C   960596059605       DC16     +1430,+1430,+1430,+1430
   \              9605        
   \   00000A54   960596059605       DC16     +1430,+1430,+1430,+1430
   \              9605        
   \   00000A5C   960596059605       DC16     +1430,+1430,+1430,+1430
   \              9605        
   \   00000A64   960596059605       DC16     +1430,+1430,+1430,+1430
   \              9605        
   \   00000A6C   960596059605       DC16     +1430,+1430,+1430,+1430
   \              9605        
   \   00000A74   960596059605       DC16     +1430,+1430,+1430,+1430
   \              9605        
   \   00000A7C   960596059605       DC16     +1430,+1430,+1430,+1430
   \              9605        
   \   00000A84   960596059605       DC16     +1430,+1430,+1430,+1430
   \              9605        
   \   00000A8C   960596059605       DC16     +1430,+1430,+1430,+1430
   \              9605        
   \   00000A94   960596059605       DC16     +1430,+1430,+1430,+1430
   \              9605        
   \   00000A9C   960596059605       DC16     +1430,+1430,+1430,+1430
   \              9605        
   \   00000AA4   960596059605       DC16     +1430,+1430,+1430,+1430
   \              9605        
   \   00000AAC   960596059605       DC16     +1430,+1430,+1430,+1430
   \              9605        
   \   00000AB4   960596059605       DC16     +1430,+1430,+1430,+1430
   \              9605        
   \   00000ABC   960596059605       DC16     +1430,+1430,+1430,+1430
   \              9605        
   \   00000AC4   960596059605       DC16     +1430,+1430,+1430,+1430
   \              9605        
   \   00000ACC   960596059605       DC16     +1430,+1430,+1430,+1430
   \              9605        
   \   00000AD4   960596059605       DC16     +1430,+1430,+1430,+1430
   \              9605        
   \   00000ADC   960596059605       DC16     +1430,+1430,+1430,+1430
   \              9605        
   \   00000AE4   960596059605       DC16     +1430,+1430,+1430,+1430
   \              9605        
   \   00000AEC   960596059605       DC16     +1430,+1430,+1430,+1430
   \              9605        
   \   00000AF4   960596059605       DC16     +1430,+1430,+1430,+1430
   \              9605        
   \   00000AFC   960596059605       DC16     +1430,+1430,+1430,+1430
   \              9605        
   \   00000B04   960596059605       DC16     +1430,+1430,+1430,+1430
   \              9605        
   \   00000B0C   960596059605       DC16     +1430,+1430,+1430,+1430
   \              9605        
   \   00000B14   960596059605       DC16     +1430,+1430,+1430,+1430
   \              9605        
   \   00000B1C   960596059605       DC16     +1430,+1430,+1430,+1430
   \              9605        
   \   00000B24   960596059605       DC16     +1430,+1430,+1430,+1430
   \              9605        
   \   00000B2C   960596059605       DC16     +1430,+1430,+1430,+1430
   \              9605        
   \   00000B34   960596059605       DC16     +1430,+1430,+1430,+1430
   \              9605        
   \   00000B3C   960596059605       DC16     +1430,+1430,+1430,+1430
   \              9605        
   \   00000B44   960596059605       DC16     +1430,+1430,+1430,+1430
   \              9605        
   \   00000B4C   960596059605       DC16     +1430,+1430,+1430,+1430
   \              9605        
   \   00000B54   960596059605       DC16     +1430,+1430,+1430,+1430
   \              9605        
   \   00000B5C   960596059605       DC16     +1430,+1430,+1430,+1430
   \              9605        
   \   00000B64   960596059605       DC16     +1430,+1430,+1430,+1430
   \              9605        
   \   00000B6C   960596059605       DC16     +1430,+1430,+1430,+1430
   \              9605        
   \   00000B74   960596059605       DC16     +1430,+1430,+1430,+1430
   \              9605        
   \   00000B7C   960596059605       DC16     +1430,+1430,+1430,+1430
   \              9605        
   \   00000B84   960596059605       DC16     +1430,+1430,+1430,+1430
   \              9605        
   \   00000B8C   960596059605       DC16     +1430,+1430,+1430,+1430
   \              9605        
   \   00000B94   960596059605       DC16     +1430,+1430,+1430,+1430
   \              9605        
   \   00000B9C   960596059605       DC16     +1430,+1430,+1430,+1430
   \              9605        
   \   00000BA4   960596059605       DC16     +1430,+1430,+1430,+1430
   \              9605        
   \   00000BAC   960596059605       DC16     +1430,+1430,+1430,+1430
   \              9605        
   \   00000BB4   960596059605       DC16     +1430,+1430,+1430,+1430
   \              9605        
   \   00000BBC   960596059605       DC16     +1430,+1430,+1430,+1430
   \              9605        
   \   00000BC4   960596059605       DC16     +1430,+1430,+1430,+1430
   \              9605        
   \   00000BCC   960596059605       DC16     +1430,+1430,+1430,+1430
   \              9605        
   \   00000BD4   960596059605       DC16     +1430,+1430,+1430,+1430
   \              9605        
   \   00000BDC   960596059605       DC16     +1430,+1430,+1430,+1430
   \              9605        
   \   00000BE4   960596059605       DC16     +1430,+1430,+1430,+1430
   \              9605        
   \   00000BEC   960596059605       DC16     +1430,+1430,+1430,+1430
   \              9605        
   \   00000BF4   960596059605       DC16     +1430,+1430,+1430,+1430
   \              9605        
   \   00000BFC   960596059605       DC16     +1430,+1430,+1430,+1430
   \              9605        
   \   00000C04   960596059605       DC16     +1430,+1430,+1430,+1430
   \              9605        
   \   00000C0C   960596059605       DC16     +1430,+1430,+1430,+1430
   \              9605        
   \   00000C14   960596059605       DC16     +1430,+1430,+1430,+1430
   \              9605        
   \   00000C1C   960596059605       DC16     +1430,+1430,+1430,+1430
   \              9605        
   \   00000C24   960596059605       DC16     +1430,+1430,+1430,+1430
   \              9605        
   \   00000C2C   960596059605       DC16     +1430,+1430,+1430,+1430
   \              9605        
   \   00000C34   960596059605       DC16     +1430,+1430,+1430,+1430
   \              9605        
   \   00000C3C   960596059605       DC16     +1430,+1430,+1430,+1430
   \              9605        
   \   00000C44   960596059605       DC16     +1430,+1430,+1430,+1430
   \              9605        
   \   00000C4C   960596059605       DC16     +1430,+1430,+1430,+1430
   \              9605        
   \   00000C54   960596059605       DC16     +1430,+1430,+1430,+1430
   \              9605        
   \   00000C5C   960596059605       DC16     +1430,+1430,+1430,+1430
   \              9605        
   \   00000C64   960596059605       DC16     +1430,+1430,+1430,+1430
   \              9605        
   \   00000C6C   960596059605       DC16     +1430,+1430,+1430,+1430
   \              9605        
   \   00000C74   960596059605       DC16     +1430,+1430,+1430,+1430
   \              9605        
   \   00000C7C   960596059605       DC16     +1430,+1430,+1430,+1430
   \              9605        
   \   00000C84   960596059605       DC16     +1430,+1430,+1430,+1430
   \              9605        
   \   00000C8C   960596059605       DC16     +1430,+1430,+1430,+1430
   \              9605        
   \   00000C94   960596059605       DC16     +1430,+1430,+1430,+1430
   \              9605        
   \   00000C9C   960596059605       DC16     +1430,+1430,+1430,+1430
   \              9605        
   \   00000CA4   960596059605       DC16     +1430,+1430,+1430,+1430
   \              9605        
   \   00000CAC   960596059605       DC16     +1430,+1430,+1430,+1430
   \              9605        
   \   00000CB4   960596059605       DC16     +1430,+1430,+1430,+1430
   \              9605        
   \   00000CBC   960596059605       DC16     +1430,+1430,+1430,+1430
   \              9605        
   \   00000CC4   960596059605       DC16     +1430,+1430,+1430,+1430
   \              9605        
   \   00000CCC   960596059605       DC16     +1430,+1430,+1430,+1430
   \              9605        
   \   00000CD4   960596059605       DC16     +1430,+1430,+1430,+1430
   \              9605        
   \   00000CDC   960596059605       DC16     +1430,+1430,+1430,+1430
   \              9605        
   \   00000CE4   960596059605       DC16     +1430,+1430,+1430,+1430
   \              9605        
   \   00000CEC   960596059605       DC16     +1430,+1430,+1430,+1430
   \              9605        
   \   00000CF4   960596059605       DC16     +1430,+1430,+1430,+1430
   \              9605        
   \   00000CFC   960596059605       DC16     +1430,+1430,+1430,+1430
   \              9605        
   \   00000D04   960596059605       DC16     +1430,+1430,+1430,+1430
   \              9605        
   \   00000D0C   960596059605       DC16     +1430,+1430,+1430,+1430
   \              9605        
   \   00000D14   960596059605       DC16     +1430,+1430,+1430,+1430
   \              9605        
   \   00000D1C   960596059605       DC16     +1430,+1430,+1430,+1430
   \              9605        
   \   00000D24   960596059605       DC16     +1430,+1430,+1430,+1430
   \              9605        
   \   00000D2C   960596059605       DC16     +1430,+1430,+1430,+1430
   \              9605        
   \   00000D34   960596059605       DC16     +1430,+1430,+1430,+1430
   \              9605        
   \   00000D3C   960596059605       DC16     +1430,+1430,+1430,+1430
   \              9605        
   \   00000D44   960596059605       DC16     +1430,+1430,+1430,+1430
   \              9605        
   \   00000D4C   960596059605       DC16     +1430,+1430,+1430,+1430
   \              9605        
   \   00000D54   960596059605       DC16     +1430,+1430,+1430,+1430
   \              9605        
   \   00000D5C   960596059605       DC16     +1430,+1430,+1430,+1430
   \              9605        
   \   00000D64   960596059605       DC16     +1430,+1430,+1430,+1430
   \              9605        
   \   00000D6C   960596059605       DC16     +1430,+1430,+1430,+1430
   \              9605        
   \   00000D74   960596059605       DC16     +1430,+1430,+1430,+1430
   \              9605        
   \   00000D7C   960596059605       DC16     +1430,+1430,+1430,+1430
   \              9605        
   \   00000D84   960596059605       DC16     +1430,+1430,+1430,+1430
   \              9605        
   \   00000D8C   960596059605       DC16     +1430,+1430,+1430,+1430
   \              9605        
   \   00000D94   960596059605       DC16     +1430,+1430,+1430,+1430
   \              9605        
   \   00000D9C   960596059605       DC16     +1430,+1430,+1430,+1430
   \              9605        
   \   00000DA4   960596059605       DC16     +1430,+1430,+1430,+1430
   \              9605        
   \   00000DAC   960596059605       DC16     +1430,+1430,+1430,+1430
   \              9605        
   \   00000DB4   960596059605       DC16     +1430,+1430,+1430,+1430
   \              9605        
   \   00000DBC   960596059605       DC16     +1430,+1430,+1430,+1430
   \              9605        
   \   00000DC4   960596059605       DC16     +1430,+1430,+1430,+1430
   \              9605        
   \   00000DCC   960596059605       DC16     +1430,+1430,+1430,+1430
   \              9605        
   \   00000DD4   960596059605       DC16     +1430,+1430,+1430,+1430
   \              9605        
   \   00000DDC   960596059605       DC16     +1430,+1430,+1430,+1430
   \              9605        
   \   00000DE4   960596059605       DC16     +1430,+1430,+1430,+1430
   \              9605        
   \   00000DEC   960596059605       DC16     +1430,+1430,+1430,+1430
   \              9605        
   \   00000DF4   960596059605       DC16     +1430,+1430,+1430,+1430
   \              9605        
   \   00000DFC   960596059605       DC16     +1430,+1430,+1430,+1430
   \              9605        
   \   00000E04   960596059605       DC16     +1430,+1430,+1430,+1430
   \              9605        
   \   00000E0C   960596059605       DC16     +1430,+1430,+1430,+1430
   \              9605        
   \   00000E14   960596059605       DC16     +1430,+1430,+1430,+1430
   \              9605        
   \   00000E1C   960596059605       DC16     +1430,+1430,+1430,+1430
   \              9605        
   \   00000E24   960596059605       DC16     +1430,+1430,+1430,+1430
   \              9605        
   \   00000E2C   960596059605       DC16     +1430,+1430,+1430,+1430
   \              9605        
   \   00000E34   960596059605       DC16     +1430,+1430,+1430,+1430
   \              9605        
   \   00000E3C   960596059605       DC16     +1430,+1430,+1430,+1430
   \              9605        
   \   00000E44   960596059605       DC16     +1430,+1430,+1430,+1430
   \              9605        
   \   00000E4C   960596059605       DC16     +1430,+1430,+1430,+1430
   \              9605        
   \   00000E54   960596059605       DC16     +1430,+1430,+1430,+1430
   \              9605        
   \   00000E5C   960596059605       DC16     +1430,+1430,+1430,+1430
   \              9605        
   \   00000E64   960596059605       DC16     +1430,+1430,+1430,+1430
   \              9605        
   \   00000E6C   960596059605       DC16     +1430,+1430,+1430,+1430
   \              9605        
   \   00000E74   960596059605       DC16     +1430,+1430,+1430,+1430
   \              9605        
   \   00000E7C   960596059605       DC16     +1430,+1430,+1430,+1430
   \              9605        
   \   00000E84   960596059605       DC16     +1430,+1430,+1430,+1430
   \              9605        
   \   00000E8C   960596059605       DC16     +1430,+1430,+1430,+1430
   \              9605        
   \   00000E94   960596059605       DC16     +1430,+1430,+1430,+1430
   \              9605        
   \   00000E9C   960596059605       DC16     +1430,+1430,+1430,+1430
   \              9605        
   \   00000EA4   960596059605       DC16     +1430,+1430,+1430,+1430
   \              9605        
   \   00000EAC   960596059605       DC16     +1430,+1430,+1430,+1430
   \              9605        
   \   00000EB4   960596059605       DC16     +1430,+1430,+1430,+1430
   \              9605        
   \   00000EBC   960596059605       DC16     +1430,+1430,+1430,+1430
   \              9605        
   \   00000EC4   960596059605       DC16     +1430,+1430,+1430,+1430
   \              9605        
   \   00000ECC   960596059605       DC16     +1430,+1430,+1430,+1430
   \              9605        
   \   00000ED4   960596059605       DC16     +1430,+1430,+1430,+1430
   \              9605        
   \   00000EDC   960596059605       DC16     +1430,+1430,+1430,+1430
   \              9605        
   \   00000EE4   960596059605       DC16     +1430,+1430,+1430,+1430
   \              9605        
   \   00000EEC   960596059605       DC16     +1430,+1430,+1430,+1430
   \              9605        
   \   00000EF4   960596059605       DC16     +1430,+1430,+1430,+1430
   \              9605        
   \   00000EFC   960596059605       DC16     +1430,+1430,+1430,+1430
   \              9605        
   \   00000F04   960596059605       DC16     +1430,+1430,+1430,+1430
   \              9605        
   \   00000F0C   960596059605       DC16     +1430,+1430,+1430,+1430
   \              9605        
   \   00000F14   960596059605       DC16     +1430,+1430,+1430,+1430
   \              9605        
   \   00000F1C   960596059605       DC16     +1430,+1430,+1430,+1430
   \              9605        
   \   00000F24   960596059605       DC16     +1430,+1430,+1430,+1430
   \              9605        
   \   00000F2C   960596059605       DC16     +1430,+1430,+1430,+1430
   \              9605        
   \   00000F34   960596059605       DC16     +1430,+1430,+1430,+1430
   \              9605        
   \   00000F3C   960596059605       DC16     +1430,+1430,+1430,+1430
   \              9605        
   \   00000F44   960596059605       DC16     +1430,+1430,+1430,+1430
   \              9605        
   \   00000F4C   960596059605       DC16     +1430,+1430,+1430,+1430
   \              9605        
   \   00000F54   960596059605       DC16     +1430,+1430,+1430,+1430
   \              9605        
   \   00000F5C   960596059605       DC16     +1430,+1430,+1430,+1430
   \              9605        
   \   00000F64   960596059605       DC16     +1430,+1430,+1430,+1430
   \              9605        
   \   00000F6C   960596059605       DC16     +1430,+1430,+1430,+1430
   \              9605        
   \   00000F74   960596059605       DC16     +1430,+1430,+1430,+1430
   \              9605        
   \   00000F7C   960596059605       DC16     +1430,+1430,+1430,+1430
   \              9605        
   \   00000F84   960596059605       DC16     +1430,+1430,+1430,+1430
   \              9605        
   \   00000F8C   960596059605       DC16     +1430,+1430,+1430,+1430
   \              9605        
   \   00000F94   960596059605       DC16     +1430,+1430,+1430,+1430
   \              9605        
   \   00000F9C   960596059605       DC16     +1430,+1430,+1430,+1430
   \              9605        
   \   00000FA4   960596059605       DC16     +1430,+1430,+1430,+1430
   \              9605        
   \   00000FAC   960596059605       DC16     +1430,+1430,+1430,+1430
   \              9605        
   \   00000FB4   960596059605       DC16     +1430,+1430,+1430,+1430
   \              9605        
   \   00000FBC   960596059605       DC16     +1430,+1430,+1430,+1430
   \              9605        
   \   00000FC4   960596059605       DC16     +1430,+1430,+1430,+1430
   \              9605        
   \   00000FCC   960596059605       DC16     +1430,+1430,+1430,+1430
   \              9605        
   \   00000FD4   960596059605       DC16     +1430,+1430,+1430,+1430
   \              9605        
   \   00000FDC   960596059605       DC16     +1430,+1430,+1430,+1430
   \              9605        
   \   00000FE4   960596059605       DC16     +1430,+1430,+1430,+1430
   \              9605        
   \   00000FEC   960596059605       DC16     +1430,+1430,+1430,+1430
   \              9605        
   \   00000FF4   960596059605       DC16     +1430,+1430,+1430,+1430
   \              9605        
   \   00000FFC   960596059605       DC16     +1430,+1430,+1430,+1430
   \              9605        
   \   00001004   960596059605       DC16     +1430,+1430,+1430,+1430
   \              9605        
   \   0000100C   960596059605       DC16     +1430,+1430,+1430,+1430
   \              9605        
   \   00001014   960596059605       DC16     +1430,+1430,+1430,+1430
   \              9605        
   \   0000101C   960596059605       DC16     +1430,+1430,+1430,+1430
   \              9605        
   \   00001024   960596059605       DC16     +1430,+1430,+1430,+1430
   \              9605        
   \   0000102C   960596059605       DC16     +1430,+1430,+1430,+1430
   \              9605        
   \   00001034   960596059605       DC16     +1430,+1430,+1430,+1430
   \              9605        
   \   0000103C   960596059605       DC16     +1430,+1430,+1430,+1430
   \              9605        
   \   00001044   960596059605       DC16     +1430,+1430,+1430,+1430
   \              9605        
   \   0000104C   960596059605       DC16     +1430,+1430,+1430,+1430
   \              9605        
   \   00001054   960596059605       DC16     +1430,+1430,+1430,+1430
   \              9605        
   \   0000105C   960596059605       DC16     +1430,+1430,+1430,+1430
   \              9605        
   \   00001064   960596059605       DC16     +1430,+1430,+1430,+1430
   \              9605        
   \   0000106C   960596059605       DC16     +1430,+1430,+1430,+1430
   \              9605        
   \   00001074   960596059605       DC16     +1430,+1430,+1430,+1430
   \              9605        
   \   0000107C   960596059605       DC16     +1430,+1430,+1430,+1430
   \              9605        
   \   00001084   960596059605       DC16     +1430,+1430,+1430,+1430
   \              9605        
   \   0000108C   960596059605       DC16     +1430,+1430,+1430,+1430
   \              9605        
   \   00001094   960596059605       DC16     +1430,+1430,+1430,+1430
   \              9605        
   \   0000109C   960596059605       DC16     +1430,+1430,+1430,+1430
   \              9605        
   \   000010A4   960596059605       DC16     +1430,+1430,+1430,+1430
   \              9605        
   \   000010AC   960596059605       DC16     +1430,+1430,+1430,+1430
   \              9605        
   \   000010B4   960596059605       DC16     +1430,+1430,+1430,+1430
   \              9605        
   \   000010BC   960596059605       DC16     +1430,+1430,+1430,+1430
   \              9605        
   \   000010C4   960596059605       DC16     +1430,+1430,+1430,+1430
   \              9605        
   \   000010CC   960596059605       DC16     +1430,+1430,+1430,+1430
   \              9605        
   \   000010D4   960596059605       DC16     +1430,+1430,+1430,+1430
   \              9605        
   \   000010DC   960596059605       DC16     +1430,+1430,+1430,+1430
   \              9605        
   \   000010E4   960596059605       DC16     +1430,+1430,+1430,+1430
   \              9605        
   \   000010EC   960596059605       DC16     +1430,+1430,+1430,+1430
   \              9605        
   \   000010F4   960596059605       DC16     +1430,+1430,+1430,+1430
   \              9605        
   \   000010FC   960596059605       DC16     +1430,+1430,+1430,+1430
   \              9605        
   \   00001104   960596059605       DC16     +1430,+1430,+1430,+1430
   \              9605        
   \   0000110C   960596059605       DC16     +1430,+1430,+1430,+1430
   \              9605        
   \   00001114   960596059605       DC16     +1430,+1430,+1430,+1430
   \              9605        
   \   0000111C   960596059605       DC16     +1430,+1430,+1430,+1430
   \              9605        
   \   00001124   960596059605       DC16     +1430,+1430,+1430,+1430
   \              9605        
   \   0000112C   960596059605       DC16     +1430,+1430,+1430,+1430
   \              9605        
   \   00001134   960596059605       DC16     +1430,+1430,+1430,+1430
   \              9605        
   \   0000113C   960596059605       DC16     +1430,+1430,+1430,+1430
   \              9605        
   \   00001144   960596059605       DC16     +1430,+1430,+1430,+1430
   \              9605        
   \   0000114C   960596059605       DC16     +1430,+1430,+1430,+1430
   \              9605        
   \   00001154   960596059605       DC16     +1430,+1430,+1430,+1430
   \              9605        
   \   0000115C   960596059605       DC16     +1430,+1430,+1430,+1430
   \              9605        
   \   00001164   960596059605       DC16     +1430,+1430,+1430,+1430
   \              9605        
   \   0000116C   960596059605       DC16     +1430,+1430,+1430,+1430
   \              9605        
   \   00001174   960596059605       DC16     +1430,+1430,+1430,+1430
   \              9605        
   \   0000117C   960596059605       DC16     +1430,+1430,+1430,+1430
   \              9605        
   \   00001184   960596059605       DC16     +1430,+1430,+1430,+1430
   \              9605        
   \   0000118C   960596059605       DC16     +1430,+1430,+1430,+1430
   \              9605        
   \   00001194   960596059605       DC16     +1430,+1430,+1430,+1430
   \              9605        
   \   0000119C   960596059605       DC16     +1430,+1430,+1430,+1430
   \              9605        
   \   000011A4   960596059605       DC16     +1430,+1430,+1430,+1430
   \              9605        
   \   000011AC   960596059605       DC16     +1430,+1430,+1430,+1430
   \              9605        
   \   000011B4   960596059605       DC16     +1430,+1430,+1430,+1430
   \              9605        
   \   000011BC   960596059605       DC16     +1430,+1430,+1430,+1430
   \              9605        
   \   000011C4   960596059605       DC16     +1430,+1430,+1430,+1430
   \              9605        
   \   000011CC   960596059605       DC16     +1430,+1430,+1430,+1430
   \              9605        
   \   000011D4   960596059605       DC16     +1430,+1430,+1430,+1430
   \              9605        
   \   000011DC   960596059605       DC16     +1430,+1430,+1430,+1430
   \              9605        
   \   000011E4   960596059605       DC16     +1430,+1430,+1430,+1430
   \              9605        
   \   000011EC   960596059605       DC16     +1430,+1430,+1430,+1430
   \              9605        
   \   000011F4   960596059605       DC16     +1430,+1430,+1430,+1430
   \              9605        
   \   000011FC   960596059605       DC16     +1430,+1430,+1430,+1430
   \              9605        
   \   00001204   960596059605       DC16     +1430,+1430,+1430,+1430
   \              9605        
   \   0000120C   960596059605       DC16     +1430,+1430,+1430,+1430
   \              9605        
   \   00001214   960596059605       DC16     +1430,+1430,+1430,+1430
   \              9605        
   \   0000121C   960596059605       DC16     +1430,+1430,+1430,+1430
   \              9605        
   \   00001224   960596059605       DC16     +1430,+1430,+1430,+1430
   \              9605        
   \   0000122C   960596059605       DC16     +1430,+1430,+1430,+1430
   \              9605        
   \   00001234   960596059605       DC16     +1430,+1430,+1430,+1430
   \              9605        
   \   0000123C   960596059605       DC16     +1430,+1430,+1430,+1430
   \              9605        
   \   00001244   960596059605       DC16     +1430,+1430,+1430,+1430
   \              9605        
   \   0000124C   960596059605       DC16     +1430,+1430,+1430,+1430
   \              9605        
   \   00001254   960596059605       DC16     +1430,+1430,+1430,+1430
   \              9605        
   \   0000125C   960596059605       DC16     +1430,+1430,+1430,+1430
   \              9605        
   \   00001264   960596059605       DC16     +1430,+1430,+1430,+1430
   \              9605        
   \   0000126C   960596059605       DC16     +1430,+1430,+1430,+1430
   \              9605        
   \   00001274   960596059605       DC16     +1430,+1430,+1430,+1430
   \              9605        
   \   0000127C   960596059605       DC16     +1430,+1430,+1430,+1430
   \              9605        
   \   00001284   960596059605       DC16     +1430,+1430,+1430,+1430
   \              9605        
   \   0000128C   960596059605       DC16     +1430,+1430,+1430,+1430
   \              9605        
   \   00001294   960596059605       DC16     +1430,+1430,+1430,+1430
   \              9605        
   \   0000129C   960596059605       DC16     +1430,+1430,+1430,+1430
   \              9605        
   \   000012A4   960596059605       DC16     +1430,+1430,+1430,+1430
   \              9605        
   \   000012AC   960596059605       DC16     +1430,+1430,+1430,+1430
   \              9605        
   \   000012B4   960596059605       DC16     +1430,+1430,+1430,+1430
   \              9605        
   \   000012BC   960596059605       DC16     +1430,+1430,+1430,+1430
   \              9605        
   \   000012C4   960596059605       DC16     +1430,+1430,+1430,+1430
   \              9605        
   \   000012CC   960596059605       DC16     +1430,+1430,+1430,+1430
   \              9605        
   \   000012D4   960596059605       DC16     +1430,+1430,+1430,+1430
   \              9605        
   \   000012DC   960596059605       DC16     +1430,+1430,+1430,+1430
   \              9605        
   \   000012E4   960596059605       DC16     +1430,+1430,+1430,+1430
   \              9605        
   \   000012EC   960596059605       DC16     +1430,+1430,+1430,+1430
   \              9605        
   \   000012F4   960596059605       DC16     +1430,+1430,+1430,+1430
   \              9605        
   \   000012FC   960596059605       DC16     +1430,+1430,+1430,+1430
   \              9605        
   \   00001304   960596059605       DC16     +1430,+1430,+1430,+1430
   \              9605        
   \   0000130C   960596059605       DC16     +1430,+1430,+1430,+1430
   \              9605        
   \   00001314   960596059605       DC16     +1430,+1430,+1430,+1430
   \              9605        
   \   0000131C   960596059605       DC16     +1430,+1430,+1430,+1430
   \              9605        
   \   00001324   960596059605       DC16     +1430,+1430,+1430,+1430
   \              9605        
   \   0000132C   960596059605       DC16     +1430,+1430,+1430,+1430
   \              9605        
   \   00001334   960596059605       DC16     +1430,+1430,+1430,+1430
   \              9605        
   \   0000133C   960596059605       DC16     +1430,+1430,+1430,+1430
   \              9605        
   \   00001344   960596059605       DC16     +1430,+1430,+1430,+1430
   \              9605        
   \   0000134C   960596059605       DC16     +1430,+1430,+1430,+1430
   \              9605        
   \   00001354   960596059605       DC16     +1430,+1430,+1430,+1430
   \              9605        
   \   0000135C   960596059605       DC16     +1430,+1430,+1430,+1430
   \              9605        
   \   00001364   960596059605       DC16     +1430,+1430,+1430,+1430
   \              9605        
   \   0000136C   960596059605       DC16     +1430,+1430,+1430,+1430
   \              9605        
   \   00001374   960596059605       DC16     +1430,+1430,+1430,+1430
   \              9605        
   \   0000137C   960596059605       DC16     +1430,+1430,+1430,+1430
   \              9605        
   \   00001384   960596059605       DC16     +1430,+1430,+1430,+1430
   \              9605        
   \   0000138C   960596059605       DC16     +1430,+1430,+1430,+1430
   \              9605        
   \   00001394   960596059605       DC16     +1430,+1430,+1430,+1430
   \              9605        
   \   0000139C   960596059605       DC16     +1430,+1430,+1430,+1430
   \              9605        
   \   000013A4   960596059605       DC16     +1430,+1430,+1430,+1430
   \              9605        
   \   000013AC   960596059605       DC16     +1430,+1430,+1430,+1430
   \              9605        
   \   000013B4   960596059605       DC16     +1430,+1430,+1430,+1430
   \              9605        
   \   000013BC   960596059605       DC16     +1430,+1430,+1430,+1430
   \              9605        
   \   000013C4   960596059605       DC16     +1430,+1430,+1430,+1430
   \              9605        
   \   000013CC   960596059605       DC16     +1430,+1430,+1430,+1430
   \              9605        
   \   000013D4   960596059605       DC16     +1430,+1430,+1430,+1430
   \              9605        
   \   000013DC   960596059605       DC16     +1430,+1430,+1430,+1430
   \              9605        
   \   000013E4   960596059605       DC16     +1430,+1430,+1430,+1430
   \              9605        
   \   000013EC   960596059605       DC16     +1430,+1430,+1430,+1430
   \              9605        
   \   000013F4   960596059605       DC16     +1430,+1430,+1430,+1430
   \              9605        
   \   000013FC   960596059605       DC16     +1430,+1430,+1430,+1430
   \              9605        
   \   00001404   960596059605       DC16     +1430,+1430,+1430,+1430
   \              9605        
   \   0000140C   960596059605       DC16     +1430,+1430,+1430,+1430
   \              9605        
   \   00001414   960596059605       DC16     +1430,+1430,+1430,+1430
   \              9605        
   \   0000141C   960596059605       DC16     +1430,+1430,+1430,+1430
   \              9605        
   \   00001424   960596059605       DC16     +1430,+1430,+1430,+1430
   \              9605        
   \   0000142C   960596059605       DC16     +1430,+1430,+1430,+1430
   \              9605        
   \   00001434   960596059605       DC16     +1430,+1430,+1430,+1430
   \              9605        
   \   0000143C   960596059605       DC16     +1430,+1430,+1430,+1430
   \              9605        
   \   00001444   960596059605       DC16     +1430,+1430,+1430,+1430
   \              9605        
   \   0000144C   960596059605       DC16     +1430,+1430,+1430,+1430
   \              9605        
   \   00001454   960596059605       DC16     +1430,+1430,+1430,+1430
   \              9605        
   \   0000145C   960596059605       DC16     +1430,+1430,+1430,+1430
   \              9605        
   \   00001464   960596059605       DC16     +1430,+1430,+1430,+1430
   \              9605        
   \   0000146C   960596059605       DC16     +1430,+1430,+1430,+1430
   \              9605        
   \   00001474   960596059605       DC16     +1430,+1430,+1430,+1430
   \              9605        
   \   0000147C   960596059605       DC16     +1430,+1430,+1430,+1430
   \              9605        
   \   00001484   960596059605       DC16     +1430,+1430,+1430,+1430
   \              9605        
   \   0000148C   960596059605       DC16     +1430,+1430,+1430,+1430
   \              9605        
   \   00001494   960596059605       DC16     +1430,+1430,+1430,+1430
   \              9605        
   \   0000149C   960596059605       DC16     +1430,+1430,+1430,+1430
   \              9605        
   \   000014A4   960596059605       DC16     +1430,+1430,+1430,+1430
   \              9605        
   \   000014AC   960596059605       DC16     +1430,+1430,+1430,+1430
   \              9605        
   \   000014B4   960596059605       DC16     +1430,+1430,+1430,+1430
   \              9605        
   \   000014BC   960596059605       DC16     +1430,+1430,+1430,+1430
   \              9605        
   \   000014C4   960596059605       DC16     +1430,+1430,+1430,+1430
   \              9605        
   \   000014CC   960596059605       DC16     +1430,+1430,+1430,+1430
   \              9605        
   \   000014D4   960596059605       DC16     +1430,+1430,+1430,+1430
   \              9605        
   \   000014DC   960596059605       DC16     +1430,+1430,+1430,+1430
   \              9605        
   \   000014E4   960596059605       DC16     +1430,+1430,+1430,+1430
   \              9605        
   \   000014EC   960596059605       DC16     +1430,+1430,+1430,+1430
   \              9605        
   \   000014F4   960596059605       DC16     +1430,+1430,+1430,+1430
   \              9605        
   \   000014FC   960596059605       DC16     +1430,+1430,+1430,+1430
   \              9605        
   \   00001504   960596059605       DC16     +1430,+1430,+1430,+1430
   \              9605        
   \   0000150C   960596059605       DC16     +1430,+1430,+1430,+1430
   \              9605        
   \   00001514   960596059605       DC16     +1430,+1430,+1430,+1430
   \              9605        
   \   0000151C   960596059605       DC16     +1430,+1430,+1430,+1430
   \              9605        
   \   00001524   960596059605       DC16     +1430,+1430,+1430,+1430
   \              9605        
   \   0000152C   960596059605       DC16     +1430,+1430,+1430,+1430
   \              9605        
   \   00001534   960596059605       DC16     +1430,+1430,+1430,+1430
   \              9605        
   \   0000153C   960596059605       DC16     +1430,+1430,+1430,+1430
   \              9605        
   \   00001544   960596059605       DC16     +1430,+1430,+1430,+1430
   \              9605        
   \   0000154C   960596059605       DC16     +1430,+1430,+1430,+1430
   \              9605        
   \   00001554   960596059605       DC16     +1430,+1430,+1430,+1430
   \              9605        
   \   0000155C   960596059605       DC16     +1430,+1430,+1430,+1430
   \              9605        
   \   00001564   960596059605       DC16     +1430,+1430,+1430,+1430
   \              9605        
   \   0000156C   960596059605       DC16     +1430,+1430,+1430,+1430
   \              9605        
   \   00001574   960596059605       DC16     +1430,+1430,+1430,+1430
   \              9605        
   \   0000157C   960596059605       DC16     +1430,+1430,+1430,+1430
   \              9605        
   \   00001584   960596059605       DC16     +1430,+1430,+1430,+1430
   \              9605        
   \   0000158C   960596059605       DC16     +1430,+1430,+1430,+1430
   \              9605        
   \   00001594   960596059605       DC16     +1430,+1430,+1430,+1430
   \              9605        
   \   0000159C   960596059605       DC16     +1430,+1430,+1430,+1430
   \              9605        
   \   000015A4   960596059605       DC16     +1430,+1430,+1430,+1430
   \              9605        
   \   000015AC   960596059605       DC16     +1430,+1430,+1430,+1430
   \              9605        
   \   000015B4   960596059605       DC16     +1430,+1430,+1430,+1430
   \              9605        
   \   000015BC   960596059605       DC16     +1430,+1430,+1430,+1430
   \              9605        
   \   000015C4   960596059605       DC16     +1430,+1430,+1430,+1430
   \              9605        
   \   000015CC   960596059605       DC16     +1430,+1430,+1430,+1430
   \              9605        
   \   000015D4   960596059605       DC16     +1430,+1430,+1430,+1430
   \              9605        
   \   000015DC   960596059605       DC16     +1430,+1430,+1430,+1430
   \              9605        
   \   000015E4   960596059605       DC16     +1430,+1430,+1430,+1430
   \              9605        
   \   000015EC   960596059605       DC16     +1430,+1430,+1430,+1430
   \              9605        
   \   000015F4   960596059605       DC16     +1430,+1430,+1430,+1430
   \              9605        
   \   000015FC   960596059605       DC16     +1430,+1430,+1430,+1430
   \              9605        
   \   00001604   960596059605       DC16     +1430,+1430,+1430,+1430
   \              9605        
   \   0000160C   960596059605       DC16     +1430,+1430,+1430,+1430
   \              9605        
   \   00001614   960596059605       DC16     +1430,+1430,+1430,+1430
   \              9605        
   \   0000161C   960596059605       DC16     +1430,+1430,+1430,+1430
   \              9605        
   \   00001624   960596059605       DC16     +1430,+1430,+1430,+1430
   \              9605        
   \   0000162C   960596059605       DC16     +1430,+1430,+1430,+1430
   \              9605        
   \   00001634   960596059605       DC16     +1430,+1430,+1430,+1430
   \              9605        
   \   0000163C   960596059605       DC16     +1430,+1430,+1430,+1430
   \              9605        
   \   00001644   960596059605       DC16     +1430,+1430,+1430,+1430
   \              9605        
   \   0000164C   960596059605       DC16     +1430,+1430,+1430,+1430
   \              9605        
   \   00001654   960596059605       DC16     +1430,+1430,+1430,+1430
   \              9605        
   \   0000165C   960596059605       DC16     +1430,+1430,+1430,+1430
   \              9605        
   \   00001664   960596059605       DC16     +1430,+1430,+1430,+1430
   \              9605        
   \   0000166C   960596059605       DC16     +1430,+1430,+1430,+1430
   \              9605        
   \   00001674   960596059605       DC16     +1430,+1430,+1430,+1430
   \              9605        
   \   0000167C   960596059605       DC16     +1430,+1430,+1430,+1430
   \              9605        
   \   00001684   960596059605       DC16     +1430,+1430,+1430,+1430
   \              9605        
   \   0000168C   960596059605       DC16     +1430,+1430,+1430,+1430
   \              9605        
   \   00001694   960596059605       DC16     +1430,+1430,+1430,+1430
   \              9605        
   \   0000169C   960596059605       DC16     +1430,+1430,+1430,+1430
   \              9605        
   \   000016A4   960596059605       DC16     +1430,+1430,+1430,+1430
   \              9605        
   \   000016AC   960596059605       DC16     +1430,+1430,+1430,+1430
   \              9605        
   \   000016B4   960596059605       DC16     +1430,+1430,+1430,+1430
   \              9605        
   \   000016BC   960596059605       DC16     +1430,+1430,+1430,+1430
   \              9605        
   \   000016C4   960596059605       DC16     +1430,+1430,+1430,+1430
   \              9605        
   \   000016CC   960596059605       DC16     +1430,+1430,+1430,+1430
   \              9605        
   \   000016D4   960596059605       DC16     +1430,+1430,+1430,+1430
   \              9605        
   \   000016DC   960596059605       DC16     +1430,+1430,+1430,+1430
   \              9605        
   \   000016E4   960596059605       DC16     +1430,+1430,+1430,+1430
   \              9605        
   \   000016EC   960596059605       DC16     +1430,+1430,+1430,+1430
   \              9605        
   \   000016F4   960596059605       DC16     +1430,+1430,+1430,+1430
   \              9605        
   \   000016FC   960596059605       DC16     +1430,+1430,+1430,+1430
   \              9605        
   \   00001704   960596059605       DC16     +1430,+1430,+1430,+1430
   \              9605        
   \   0000170C   960596059605       DC16     +1430,+1430,+1430,+1430
   \              9605        
   \   00001714   960596059605       DC16     +1430,+1430,+1430,+1430
   \              9605        
   \   0000171C   960596059605       DC16     +1430,+1430,+1430,+1430
   \              9605        
   \   00001724   960596059605       DC16     +1430,+1430,+1430,+1430
   \              9605        
   \   0000172C   960596059605       DC16     +1430,+1430,+1430,+1430
   \              9605        
   \   00001734   960596059605       DC16     +1430,+1430,+1430,+1430
   \              9605        
   \   0000173C   960596059605       DC16     +1430,+1430,+1430,+1430
   \              9605        
   \   00001744   960596059605       DC16     +1430,+1430,+1430,+1430
   \              9605        
   \   0000174C   960596059605       DC16     +1430,+1430,+1430,+1430
   \              9605        
   \   00001754   960596059605       DC16     +1430,+1430,+1430,+1430
   \              9605        
   \   0000175C   960596059605       DC16     +1430,+1430,+1430,+1430
   \              9605        
   \   00001764   960596059605       DC16     +1430,+1430,+1430,+1430
   \              9605        
   \   0000176C   960596059605       DC16     +1430,+1430,+1430,+1430
   \              9605        
   \   00001774   960596059605       DC16     +1430,+1430,+1430,+1430
   \              9605        
   \   0000177C   960596059605       DC16     +1430,+1430,+1430,+1430
   \              9605        
   \   00001784   960596059605       DC16     +1430,+1430,+1430,+1430
   \              9605        
   \   0000178C   960596059605       DC16     +1430,+1430,+1430,+1430
   \              9605        
   \   00001794   960596059605       DC16     +1430,+1430,+1430,+1430
   \              9605        
   \   0000179C   960596059605       DC16     +1430,+1430,+1430,+1430
   \              9605        
   \   000017A4   960596059605       DC16     +1430,+1430,+1430,+1430
   \              9605        
   \   000017AC   960596059605       DC16     +1430,+1430,+1430,+1430
   \              9605        
   \   000017B4   960596059605       DC16     +1430,+1430,+1430,+1430
   \              9605        
   \   000017BC   960596059605       DC16     +1430,+1430,+1430,+1430
   \              9605        
   \   000017C4   960596059605       DC16     +1430,+1430,+1430,+1430
   \              9605        
   \   000017CC   960596059605       DC16     +1430,+1430,+1430,+1430
   \              9605        
   \   000017D4   960596059605       DC16     +1430,+1430,+1430,+1430
   \              9605        
   \   000017DC   960596059605       DC16     +1430,+1430,+1430,+1430
   \              9605        
   \   000017E4   960596059605       DC16     +1430,+1430,+1430,+1430
   \              9605        
   \   000017EC   960596059605       DC16     +1430,+1430,+1430,+1430
   \              9605        
   \   000017F4   960596059605       DC16     +1430,+1430,+1430,+1430
   \              9605        
   \   000017FC   960596059605       DC16     +1430,+1430,+1430,+1430
   \              9605        
   \   00001804   960596059605       DC16     +1430,+1430,+1430,+1430
   \              9605        
   \   0000180C   960596059605       DC16     +1430,+1430,+1430,+1430
   \              9605        
   \   00001814   960596059605       DC16     +1430,+1430,+1430,+1430
   \              9605        
   \   0000181C   960596059605       DC16     +1430,+1430,+1430,+1430
   \              9605        
   \   00001824   960596059605       DC16     +1430,+1430,+1430,+1430
   \              9605        
   \   0000182C   960596059605       DC16     +1430,+1430,+1430,+1430
   \              9605        
   \   00001834   960596059605       DC16     +1430,+1430,+1430,+1430
   \              9605        
   \   0000183C   960596059605       DC16     +1430,+1430,+1430,+1430
   \              9605        
   \   00001844   960596059605       DC16     +1430,+1430,+1430,+1430
   \              9605        
   \   0000184C   960596059605       DC16     +1430,+1430,+1430,+1430
   \              9605        
   \   00001854   960596059605       DC16     +1430,+1430,+1430,+1430
   \              9605        
   \   0000185C   960596059605       DC16     +1430,+1430,+1430,+1430
   \              9605        
   \   00001864   960596059605       DC16     +1430,+1430,+1430,+1430
   \              9605        
   \   0000186C   960596059605       DC16     +1430,+1430,+1430,+1430
   \              9605        
   \   00001874   960596059605       DC16     +1430,+1430,+1430,+1430
   \              9605        
   \   0000187C   96059E05B7FF       DC16     +1430,+1438,+65463,+0
   \              0000        
   \                     ??OMS_DataArrived_21:
   \   00001884   020040E2           SUB      R0,R0,#+2
   \   00001888   480085E5           STR      R0,[R5, #+72]
   \   0000188C   32FAFFEA           B        ??OMS_DataArrived_14
   \                     ??OMS_DataArrived_22:
   \   00001890   190040E2           SUB      R0,R0,#+25
   \   00001894   480085E5           STR      R0,[R5, #+72]
   \   00001898   0300A0E3           MOV      R0,#+3
   \   0000189C   2DFAFFEA           B        ??OMS_DataArrived_16
   \                     ??OMS_DataArrived_23:
   \   000018A0   440095E5           LDR      R0,[R5, #+68]
   \   000018A4   401095E5           LDR      R1,[R5, #+64]
   \   000018A8   004051E0           SUBS     R4,R1,R0
   \   000018AC   6A03000A           BEQ      ??OMS_DataArrived_24
   \   000018B0   8C309DE5           LDR      R3,[SP, #+140]
   \   000018B4   88609DE5           LDR      R6,[SP, #+136]
   \   000018B8   0420A0E1           MOV      R2,R4
   \   000018BC   002062E2           RSB      R2,R2,#+0
   \   000018C0   063083E0           ADD      R3,R3,R6
   \   000018C4   032082E0           ADD      R2,R2,R3
   \   000018C8   88208DE5           STR      R2,[SP, #+136]
   \   000018CC   8C408DE5           STR      R4,[SP, #+140]
   \   000018D0   400085E5           STR      R0,[R5, #+64]
   \   000018D4   D6F9FFEA           B        ??OMS_DataArrived_8
   \                     ??OMS_DataArrived_20:
   \   000018D8   841D9FE5           LDR      R1,??OMS_DataArrived_25  ;; `?<Constant "ZLib Err %d\\n">` + 48
   \   000018DC   0420A0E1           MOV      R2,R4
   \   000018E0   EDF9FFEA           B        ??OMS_DataArrived_12
   \                     ??OMS_DataArrived_26:
   \   000018E4   44C085E5           STR      R12,[R5, #+68]
   \   000018E8   21008CE2           ADD      R0,R12,#+33
   \   000018EC   480085E5           STR      R0,[R5, #+72]
   \   000018F0   0200A0E3           MOV      R0,#+2
   \   000018F4   4C0085E5           STR      R0,[R5, #+76]
   \                     ??OMS_DataArrived_27:
   \   000018F8   3800A0E3           MOV      R0,#+56
   \   000018FC   140000EF           SWI      +20
   \   00001900   000085E5           STR      R0,[R5, #+0]
   \   00001904   3810A0E3           MOV      R1,#+56
   \   00001908   1D0100EF           SWI      +285
   \   0000190C   000095E5           LDR      R0,[R5, #+0]
   \   00001910   501D9FE5           LDR      R1,??OMS_DataArrived_25+0x4  ;; zcalloc
   \   00001914   502D9FE5           LDR      R2,??OMS_DataArrived_25+0x8  ;; `?<Constant "ZLib Err %d\\n">` + 16
   \   00001918   201080E5           STR      R1,[R0, #+32]
   \   0000191C   4C1D9FE5           LDR      R1,??OMS_DataArrived_25+0xC  ;; zcfree
   \   00001920   3830A0E3           MOV      R3,#+56
   \   00001924   241080E5           STR      R1,[R0, #+36]
   \   00001928   0010A0E3           MOV      R1,#+0
   \   0000192C   281080E5           STR      R1,[R0, #+40]
   \   00001930   0E10E0E3           MVN      R1,#+14
   \   00001934   9F0100EF           SWI      +415
   \   00001938   000050E3           CMP      R0,#+0
   \   0000193C   D7FFFF0A           BEQ      ??OMS_DataArrived_23
   \   00001940   2C1D9FE5           LDR      R1,??OMS_DataArrived_25+0x10  ;; `?<Constant "ZLib Err %d\\n">` + 24
   \   00001944   0020A0E1           MOV      R2,R0
   \   00001948   08008DE2           ADD      R0,SP,#+8
   \   0000194C   160000EF           SWI      +22
   \   00001950   08008DE2           ADD      R0,SP,#+8
   \   00001954   1B0000EF           SWI      +27
   \   00001958   0020A0E1           MOV      R2,R0
   \   0000195C   08108DE2           ADD      R1,SP,#+8
   \                     ??OMS_DataArrived_28:
   \   00001960   0500A0E1           MOV      R0,R5
   \   00001964   ........           _BLF     AddTextItem,??AddTextItem??rA
   \   00001968   0500A0E1           MOV      R0,R5
   \   0000196C   ........           _BLF     AddBrItem,??AddBrItem??rA
   \                     ??OMS_DataArrived_6:
   \   00001970   2500A0E3           MOV      R0,#+37
   \   00001974   4C0085E5           STR      R0,[R5, #+76]
   \   00001978   90D08DE2           ADD      SP,SP,#+144
   \   0000197C   F08FBDE8           POP      {R4-R11,PC}
    211                break;
    212              case OMS_PAGEURL_SIZE:
    213                vd->oms_wanted+=_rshort(vd);
   \                     ??OMS_DataArrived_29:
   \   00001980   0500A0E1           MOV      R0,R5
   \   00001984   ........           BL       _rshort
   \   00001988   481095E5           LDR      R1,[R5, #+72]
   \   0000198C   010080E0           ADD      R0,R0,R1
   \   00001990   480085E5           STR      R0,[R5, #+72]
    214                vd->parse_state=OMS_PAGEURL_DATA;
   \   00001994   0500A0E3           MOV      R0,#+5
   \   00001998   EEF9FFEA           B        ??OMS_DataArrived_16
    215                break;
    216              case OMS_PAGEURL_DATA:
    217                i=vd->oms_wanted-vd->oms_pos;
   \                     ??OMS_DataArrived_30:
   \   0000199C   04409DE5           LDR      R4,[SP, #+4]
    218                //AddTextItem(vd,vd->oms+vd->oms_pos,i);
    219                //AddBrItem(vd);
    220                vd->pageurl=(char *)malloc(i+1);
   \   000019A0   010084E2           ADD      R0,R4,#+1
   \   000019A4   140000EF           SWI      +20
   \   000019A8   D80085E5           STR      R0,[R5, #+216]
    221                memcpy(vd->pageurl,vd->oms+vd->oms_pos,i);
   \   000019AC   440095E5           LDR      R0,[R5, #+68]
   \   000019B0   3C1095E5           LDR      R1,[R5, #+60]
   \   000019B4   0420A0E1           MOV      R2,R4
   \   000019B8   011080E0           ADD      R1,R0,R1
   \   000019BC   D80095E5           LDR      R0,[R5, #+216]
   \   000019C0   1E0100EF           SWI      +286
    222                vd->pageurl[i]=NULL;
   \   000019C4   D80095E5           LDR      R0,[R5, #+216]
   \   000019C8   0010A0E3           MOV      R1,#+0
   \   000019CC   0010C4E7           STRB     R1,[R4, +R0]
    223                vd->oms_pos=vd->oms_wanted;
   \   000019D0   480095E5           LDR      R0,[R5, #+72]
   \   000019D4   440085E5           STR      R0,[R5, #+68]
    224                vd->oms_wanted++;
   \                     ??OMS_DataArrived_31:
   \   000019D8   010080E2           ADD      R0,R0,#+1
   \   000019DC   480085E5           STR      R0,[R5, #+72]
    225                vd->parse_state=OMS_TAG_NAME;
   \                     ??OMS_DataArrived_32:
   \   000019E0   4C6085E5           STR      R6,[R5, #+76]
   \   000019E4   DCF9FFEA           B        ??OMS_DataArrived_14
    226                break;
    227              case OMS_TAG_NAME:
    228                // STAGE 1
    229                //DEBUGV("OMS_TAG_NAME pos:",17);
    230                //DEBUGS("%i ",vd->oms_pos);
    231                //DEBUGS("%c\n",vd->oms[vd->oms_pos]);
    232                switch(i=vd->oms[vd->oms_pos])
   \                     ??OMS_DataArrived_33:
   \   000019E8   0040D1E5           LDRB     R4,[R1, #+0]
   \   000019EC   03008CE2           ADD      R0,R12,#+3
   \   000019F0   241044E2           SUB      R1,R4,#+36
   \   000019F4   540051E3           CMP      R1,#+84
   \   000019F8   5C00008A           BHI      ??OMS_DataArrived_34
   \   000019FC   012F8FE2           ADR      R2,??OMS_DataArrived_2
   \   00001A00   D12092E1           LDRSB    R2,[R2, R1]
   \   00001A04   02F18FE0           ADD      PC,PC,R2, LSL #+2
   \                     ??OMS_DataArrived_2:
   \   00001A08   15595959           DC8      +21,+89,+89,+89
   \   00001A0C   19195915           DC8      +25,+25,+89,+21
   \   00001A10   59595959           DC8      +89,+89,+89,+89
   \   00001A14   59595959           DC8      +89,+89,+89,+89
   \   00001A18   59595959           DC8      +89,+89,+89,+89
   \   00001A1C   59595959           DC8      +89,+89,+89,+89
   \   00001A20   59595959           DC8      +89,+89,+89,+89
   \   00001A24   251E2A21           DC8      +37,+30,+42,+33
   \   00001A28   1E445959           DC8      +30,+68,+89,+89
   \   00001A2C   59322534           DC8      +89,+50,+37,+52
   \   00001A30   1E595959           DC8      +30,+89,+89,+89
   \   00001A34   40D91E25           DC8      +64,+217,+30,+37
   \   00001A38   1E592D59           DC8      +30,+89,+45,+89
   \   00001A3C   25281E59           DC8      +37,+40,+30,+89
   \   00001A40   59591E59           DC8      +89,+89,+30,+89
   \   00001A44   5959591E           DC8      +89,+89,+89,+30
   \   00001A48   591E5959           DC8      +89,+30,+89,+89
   \   00001A4C   1E3B5926           DC8      +30,+59,+89,+38
   \   00001A50   1559591E           DC8      +21,+89,+89,+30
   \   00001A54   1E591E1E           DC8      +30,+89,+30,+30
   \   00001A58   591E1559           DC8      +89,+30,+21,+89
   \   00001A5C   36000000           DC8      +54,+0,+0,+0
    233                {
    234                case '+':
    235                  vd->oms_pos++;
   \                     ??OMS_DataArrived_35:
   \   00001A60   01008EE2           ADD      R0,LR,#+1
   \                     ??OMS_DataArrived_36:
   \   00001A64   440085E5           STR      R0,[R5, #+68]
    236          	      goto L_NOSTAGE2;
    237                case 'v':
    238          	      //???
    239                  vd->oms_pos++;
    240          	      goto L_NOSTAGE2;
    241                case '(':
    242                  //???
    243                  AddPictureItemHr(vd);
    244                  //AddTextItem(vd,"(",1);
    245                  vd->oms_pos++;
    246          	      goto L_NOSTAGE2;
    247                case ')':
    248          	      //???
    249                  AddPictureItemHr(vd);
    250                  //AddTextItem(vd,")",1);
    251                  vd->oms_pos++;
    252          	      goto L_NOSTAGE2;
    253                case '$':  //Form end ???
    254                  vd->oms_pos++;
    255                  goto L_NOSTAGE2;
    256                case 'A':
    257                  vd->oms_wanted+=2;
    258                  break;
    259                case 'C':    // следующий тэг подразумевает загрузку данных форм
    260                  vd->work_ref.no_upload=0;
    261                  vd->oms_pos++;
    262                  goto L_NOSTAGE2;
    263                case 'D':
    264                  vd->oms_wanted+=2;
    265                  break;
    266                case 'S':    // Style
    267                  vd->oms_wanted+=4;
    268                  break;
    269                case 'T':    // Text
    270                  vd->oms_wanted+=2;
    271                  break;
    272                case 'Y':
    273                  vd->oms_wanted+=1;
    274                  break;
    275                case 'B':
    276          	      AddBrItem(vd);
    277                  vd->oms_pos++;
    278          	      goto L_NOSTAGE2;
    279                case 'V':
    280          	      AddPItem(vd);
    281                  vd->oms_pos++;
    282          	      goto L_NOSTAGE2;
    283                case 'I':  // image
    284                  vd->oms_wanted+=8;
    285                  break;
    286                case 'J':  // picture frame
    287                  vd->oms_wanted+=4;
    288                  break;
    289                case 'K':  // image by id
    290                  vd->oms_wanted+=6;
    291                  break;
    292                case 'X':  // Image RGBA
    293                  vd->oms_wanted+=4;
    294                  break;
    295                case 'h':    // opf 1
    296                  vd->oms_wanted+=2;
    297                  break;
    298                case 'e':  // а нету такого тэга
    299                case 'p':
    300                case 'u':
    301                  vd->oms_wanted+=2;
    302                  break;
    303                case 'x':
    304                  if ((((OMS_HEADER_COMMON *)vd->oms)->magic&0xFF)==0x0D)
    305                  {
    306                    vd->oms_wanted+=2;
    307                  }
    308                  else
    309                  {
    310                    vd->oms_wanted+=3;
    311                  }
    312                  break;
    313                case 'c':
    314                case 'r':
    315                  vd->oms_wanted+=2;
    316                  break;
    317                case 's': // drop down list
    318                  vd->oms_wanted+=2;
    319                  break;
    320                case 'o': // drop down list item
    321                  vd->oms_wanted+=2;
    322                  break;
    323                case 'l':  // страннй тег, из за него курсор гллючит, заканчивает список ?
    324                  //AddBeginRef(vd);
    325                  //vd->tag_l_count=2;
    326                  //AddTextItem(vd,"<l>",3);
    327                  vd->oms_pos++;
    328                  goto L_NOSTAGE2;
    329                case 'i':  // image button
    330                  //if (!vd->tag_l_count)
    331                  //{
    332                    AddBeginRef(vd);
    333                    //vd->tag_l_count=1;
    334                  //}
    335                  vd->oms_wanted+=2;
    336                  break;
    337                case 'k':
    338                  vd->oms_wanted+=3; //Code type and data length
    339                  break;	
    340                case 'L':  // link
    341                  vd->oms_wanted+=2;
    342                  break;
    343                case '^':  // wrong tag ?
    344                  vd->oms_wanted+=2;
    345                  break;
    346                case 'P':  // phone number
    347                  vd->oms_wanted+=2;
    348                  vd->ref_mode_P=1;
    349                  break;
    350                case 'R':
    351                  vd->oms_wanted+=2;
    352                  break;
    353                case 'E':  //finish ref
    354                  if (vd->work_ref.tag==_NOREF)
    355                    if (vd->work_ref_Z.tag=='Z')
    356                    {
    357                      memcpy(&(vd->work_ref),&(vd->work_ref_Z),sizeof(REFCACHE));
    358                      memset(&(vd->work_ref_Z),0xFF,sizeof(REFCACHE));
    359                    }
    360                  if (vd->ref_mode_P==0)
    361                    AddEndRef(vd);
    362                  vd->ref_mode_P=0;
    363                  vd->oms_pos++;
    364          	      goto L_NOSTAGE2;
    365                case 'Q':
    366                  //AddTextItem(vd,"Q",1); // HACK at the end of page we must add invisible ending line
    367                  vd->parse_state=OMS_STOP;
    368                  return;
    369                case 'Z':
    370                  vd->oms_wanted+=2;
    371                  break;
    372                case '@':
    373                  vd->oms_wanted+=4;
    374                  break;
    375                default:
    376                  sprintf(s,"Unknown tag %c\n",i);
    377                  AddTextItem(vd,s,strlen(s));
    378                  AddBrItem(vd);
    379                  vd->parse_state=OMS_STOP;
    380                  return;
    381                }
    382                vd->parse_state=OMS_TAG_DATA;
    383                break;
    384              case OMS_TAG_DATA:
    385                //DEBUGV("OMS_TAG_DATA pos:",17);
    386                //DEBUGS("%i ",vd->oms_pos);
    387                //DEBUGS("%c\n",vd->oms[vd->oms_pos]);
    388                i=vd->oms[vd->oms_pos];
    389                vd->oms_pos++;
    390                switch(i)
    391                {
    392                case 'A':
    393                  i=_rshort(vd);
    394                  //vd->work_ref.tag='A';
    395                  vd->oms_wanted+=i;
    396                  vd->parse_state=OMS_TAGA_STAGE3;
    397                  goto L_STAGE3_WANTED;
    398                case 'D':
    399                  *((unsigned short *)(&(vd->current_tag_d)))=_rshort(vd);
    400                  AddNewStyle(vd);
    401                  break;
    402                case 'S':
    403                  vd->prev_tag_s=vd->current_tag_s;
    404                  *((unsigned int *)(&(vd->current_tag_s)))=k=_rlong(vd);
    405                  ((unsigned int *)(vd->S_cache=realloc(vd->S_cache,(vd->S_cache_size+1)*sizeof(TAG_S))))[vd->S_cache_size]=k;
    406                  vd->S_cache_size++;
    407                  AddNewStyle(vd);
    408                  break;
    409                case 'T':
    410                  i=_rshort(vd);
    411                  vd->oms_wanted+=i;
    412                  vd->parse_state=OMS_TAGT_STAGE3;
    413                  goto L_STAGE3_WANTED;
    414                case 'Y':
    415                  i=_rbyte(vd);
    416                  vd->prev_tag_s=vd->current_tag_s;
    417                  vd->current_tag_s=vd->S_cache[i];
    418                  AddNewStyle(vd);
    419                  break;
    420                case 'I':
    421                  vd->iw=_rshort(vd); //width
    422                  vd->ih=_rshort(vd); //heigth
    423                  i=_rshort(vd);
    424                  _rshort(vd);
    425                  vd->oms_wanted+=i;
    426                  vd->parse_state=OMS_TAGI_STAGE3;
    427                  goto L_STAGE3_WANTED;
    428                case 'J':
    429                  vd->iw=_rshort(vd); //width
    430                  vd->ih=_rshort(vd); //height
    431                  AddPictureItemFrame(vd,vd->iw,vd->ih);
    432                  vd->ref_mode_i--;
    433                  if (!vd->ref_mode_i)
    434                    AddEndRef(vd);
    435                  break;
    436                case 'K':
    437                  _rshort(vd); //width
    438                  _rshort(vd); //height
    439                  i=_rshort(vd); //index
    440                  AddPictureItemIndex(vd,i);
    441                  vd->ref_mode_i--;
    442                  if (!vd->ref_mode_i)
    443                    AddEndRef(vd);
    444                  break;
    445                case 'X':
    446                  vd->iw=_rbyte(vd); //width
    447                  vd->ih=_rbyte(vd); //heigth
    448                  i=_rshort(vd);
    449                  vd->oms_wanted+=i;
    450                  vd->parse_state=OMS_TAGX_STAGE3;
    451                  goto L_STAGE3_WANTED;
    452                case 'h':
    453                  i=(vd->iw=_rshort(vd))+2;
    454                  vd->oms_wanted+=i;
    455                  vd->parse_state=OMS_TAGh_STAGE3;
    456                  goto L_STAGE3_WANTED;
    457                case 'e':
    458                  i=(vd->iw=_rshort(vd))+2;
    459                  vd->work_ref.tag='e';
    460                  vd->oms_wanted+=i;
    461                  vd->parse_state=OMS_TAGe_STAGE3;
    462                  goto L_STAGE3_WANTED;
    463                case 'p':
    464                  i=(vd->iw=_rshort(vd))+2;
    465                  AddBeginRef(vd);
    466                  vd->work_ref.tag='p';
    467                  vd->oms_wanted+=i;
    468                  vd->parse_state=OMS_TAGp_STAGE3;
    469                  goto L_STAGE3_WANTED;
    470                case 'u':
    471                  i=(vd->iw=_rshort(vd))+2;
    472                  AddBeginRef(vd);
    473                  vd->work_ref.tag='u';
    474                  vd->oms_wanted+=i;
    475                  vd->parse_state=OMS_TAGu_STAGE3;
    476                  goto L_STAGE3_WANTED;
    477                case 'x':
    478                  if ((((OMS_HEADER_COMMON *)vd->oms)->magic&0xFF)!=0x0D) _rbyte(vd);
    479                  i=(vd->iw=_rshort(vd))+2;
    480                  AddBeginRef(vd);
    481                  vd->work_ref.tag='x';
    482                  vd->oms_wanted+=i;
    483                  vd->parse_state=OMS_TAGx_STAGE3;
    484                  goto L_STAGE3_WANTED;
    485                case 'c':
    486                  i=(vd->iw=_rshort(vd))+2;
    487                  AddBeginRef(vd);
    488                  vd->work_ref.tag='c';
    489                  vd->oms_wanted+=i;
    490                  vd->parse_state=OMS_TAGc_STAGE3;
    491                  goto L_STAGE3_WANTED;
    492                case 'r':
    493                  i=(vd->iw=_rshort(vd))+2;
    494                  AddBeginRef(vd);
    495                  vd->work_ref.tag='r';
    496                  vd->oms_wanted+=i;
    497                  vd->parse_state=OMS_TAGr_STAGE3;
    498                  goto L_STAGE3_WANTED;
    499                case 's':
    500                  i=(vd->iw=_rshort(vd))+3;
    501                  AddBeginRef(vd);
    502                  vd->work_ref.tag='s';
    503                  //AddTextItem(vd,"<s>",3);
    504                  vd->oms_wanted+=i;
    505                  vd->parse_state=OMS_TAGs_STAGE3;
    506                  goto L_STAGE3_WANTED;
    507                case 'o':
    508                  if (vd->tag_o_count)
    509                  {
    510                    vd->tag_o_count--;
    511                    i=(vd->iw=_rshort(vd))+2;
    512                    vd->work_ref.tag='s';
    513                    vd->oms_wanted+=i;
    514                    vd->parse_state=OMS_TAGo_STAGE3;
    515                    goto L_STAGE3_WANTED;
    516                  }
    517                  else
    518                  {
    519                    AddTextItem(vd,"!Illegal <o>!\n",14);
    520                    AddBrItem(vd);
    521                    vd->parse_state=OMS_STOP;
    522                    return;
    523                  }
    524                case 'i':
    525                  i=(vd->iw=_rshort(vd))+2;
    526                  vd->work_ref.tag='i';
    527                  vd->oms_wanted+=i;
    528                  vd->parse_state=OMS_TAGi_STAGE3;
    529                  goto L_STAGE3_WANTED;
    530                case 'k':
    531                  vd->ih=_rbyte(vd); //Code type
    532                  i=(vd->iw=_rshort(vd));
    533                  vd->oms_wanted+=i;
    534                  vd->parse_state=OMS_TAGk_STAGE3;
    535                  goto L_STAGE3_WANTED;
    536                case 'L':
    537                  i=_rshort(vd);
    538                  vd->work_ref.tag='L';
    539                  AddBeginRef(vd);
    540                  vd->oms_wanted+=i;
    541                  vd->parse_state=OMS_TAGL_STAGE3;
    542                  goto L_STAGE3_WANTED;
    543                case '^':
    544                  i=_rshort(vd);
    545                  vd->work_ref.tag='^';
    546                  //vd->ref_mode=1;//????
    547                  AddBeginRef(vd);
    548                  vd->oms_wanted+=i;
    549                  vd->parse_state=OMS_TAGx5E_STAGE3;
    550                  goto L_STAGE3_WANTED;
    551                case 'P':
    552                  i=_rshort(vd);
    553                  vd->oms_wanted+=i;
    554                  vd->parse_state=OMS_TAGP_STAGE3;
    555                  goto L_STAGE3_WANTED;
    556                case 'R':
    557                  i=_rshort(vd);
    558                  AddPictureItemHr(vd);
    559                  break;
    560                case 'Z':
    561                  i=vd->iw=_rshort(vd);
    562                  vd->work_ref_Z.tag='Z';
    563                  vd->work_ref_Z.id=vd->oms_pos-2;
    564                  AddBeginRefZ(vd);
    565                  vd->oms_wanted+=i;
    566                  vd->parse_state=OMS_TAGZ_STAGE3;
    567                  goto L_STAGE3_WANTED;
    568                case '@':
    569                  vd->ih=_rshort(vd);
    570                  i=vd->iw=_rshort(vd);
    571                  if (i>0)
    572                  {
    573                    vd->work_ref.id=vd->oms_pos-2;
    574                    vd->work_ref.id2=vd->ih;
    575                    vd->work_ref.tag='@';
    576                    AddBeginRef(vd);
    577                    vd->oms_wanted+=i;
    578                    vd->parse_state=OMS_TAGx40_STAGE3;
    579                    goto L_STAGE3_WANTED;
    580                  }
    581                default:
    582                  //vd->parse_state=OMS_STOP;
    583                  break;
    584                }
    585              L_NOSTAGE2:
    586                vd->oms_wanted++;
   \                     ??OMS_DataArrived_37:
   \   00001A68   480095E5           LDR      R0,[R5, #+72]
   \   00001A6C   D9FFFFEA           B        ??OMS_DataArrived_31
   \                     ??OMS_DataArrived_38:
   \   00001A70   0500A0E1           MOV      R0,R5
   \   00001A74   ........           _BLF     AddPictureItemHr,??AddPictureItemHr??rA
   \                     ??OMS_DataArrived_39:
   \   00001A78   440095E5           LDR      R0,[R5, #+68]
   \   00001A7C   010080E2           ADD      R0,R0,#+1
   \   00001A80   F7FFFFEA           B        ??OMS_DataArrived_36
   \                     ??OMS_DataArrived_40:
   \   00001A84   488085E5           STR      R8,[R5, #+72]
   \                     ??OMS_DataArrived_41:
   \   00001A88   0700A0E3           MOV      R0,#+7
   \   00001A8C   B1F9FFEA           B        ??OMS_DataArrived_16
   \                     ??OMS_DataArrived_42:
   \   00001A90   9C00D5E5           LDRB     R0,[R5, #+156]
   \   00001A94   FE0000E2           AND      R0,R0,#0xFE
   \   00001A98   9C00C5E5           STRB     R0,[R5, #+156]
   \   00001A9C   EFFFFFEA           B        ??OMS_DataArrived_35
   \                     ??OMS_DataArrived_43:
   \   00001AA0   04008CE2           ADD      R0,R12,#+4
   \                     ??OMS_DataArrived_44:
   \   00001AA4   480085E5           STR      R0,[R5, #+72]
   \   00001AA8   F6FFFFEA           B        ??OMS_DataArrived_41
   \                     ??OMS_DataArrived_45:
   \   00001AAC   489085E5           STR      R9,[R5, #+72]
   \   00001AB0   F4FFFFEA           B        ??OMS_DataArrived_41
   \                     ??OMS_DataArrived_46:
   \   00001AB4   0500A0E1           MOV      R0,R5
   \   00001AB8   ........           _BLF     AddBrItem,??AddBrItem??rA
   \   00001ABC   EDFFFFEA           B        ??OMS_DataArrived_39
   \                     ??OMS_DataArrived_47:
   \   00001AC0   0500A0E1           MOV      R0,R5
   \   00001AC4   ........           _BLF     AddPItem,??AddPItem??rA
   \   00001AC8   440095E5           LDR      R0,[R5, #+68]
   \   00001ACC   010080E2           ADD      R0,R0,#+1
   \   00001AD0   E3FFFFEA           B        ??OMS_DataArrived_36
   \                     ??OMS_DataArrived_48:
   \   00001AD4   08008CE2           ADD      R0,R12,#+8
   \   00001AD8   F1FFFFEA           B        ??OMS_DataArrived_44
   \                     ??OMS_DataArrived_49:
   \   00001ADC   06008CE2           ADD      R0,R12,#+6
   \                     ??OMS_DataArrived_50:
   \   00001AE0   EFFFFFEA           B        ??OMS_DataArrived_44
   \                     ??OMS_DataArrived_51:
   \   00001AE4   3C1095E5           LDR      R1,[R5, #+60]
   \   00001AE8   0010D1E5           LDRB     R1,[R1, #+0]
   \   00001AEC   0D0051E3           CMP      R1,#+13
   \   00001AF0   EBFFFF1A           BNE      ??OMS_DataArrived_44
   \   00001AF4   E2FFFFEA           B        ??OMS_DataArrived_40
   \                     ??OMS_DataArrived_52:
   \   00001AF8   0500A0E1           MOV      R0,R5
   \   00001AFC   ........           _BLF     AddBeginRef,??AddBeginRef??rA
   \   00001B00   480095E5           LDR      R0,[R5, #+72]
   \   00001B04   020080E2           ADD      R0,R0,#+2
   \   00001B08   E5FFFFEA           B        ??OMS_DataArrived_44
   \                     ??OMS_DataArrived_53:
   \   00001B0C   488085E5           STR      R8,[R5, #+72]
   \   00001B10   0100A0E3           MOV      R0,#+1
   \   00001B14   7400C5E5           STRB     R0,[R5, #+116]
   \   00001B18   DAFFFFEA           B        ??OMS_DataArrived_41
   \                     ??OMS_DataArrived_54:
   \   00001B1C   840095E5           LDR      R0,[R5, #+132]
   \   00001B20   010070E3           CMN      R0,#+1
   \   00001B24   A8009505           LDREQ    R0,[R5, #+168]
   \   00001B28   5A005003           CMPEQ    R0,#+90
   \   00001B2C   0700001A           BNE      ??OMS_DataArrived_55
   \   00001B30   2420A0E3           MOV      R2,#+36
   \   00001B34   A01085E2           ADD      R1,R5,#+160
   \   00001B38   7C0085E2           ADD      R0,R5,#+124
   \   00001B3C   1E0100EF           SWI      +286
   \   00001B40   2420A0E3           MOV      R2,#+36
   \   00001B44   FF10A0E3           MOV      R1,#+255
   \   00001B48   A00085E2           ADD      R0,R5,#+160
   \   00001B4C   BB0000EF           SWI      +187
   \                     ??OMS_DataArrived_55:
   \   00001B50   7400D5E5           LDRB     R0,[R5, #+116]
   \   00001B54   000050E3           CMP      R0,#+0
   \   00001B58   0100001A           BNE      ??OMS_DataArrived_56
   \   00001B5C   0500A0E1           MOV      R0,R5
   \   00001B60   ........           _BLF     AddEndRef,??AddEndRef??rA
   \                     ??OMS_DataArrived_56:
   \   00001B64   0000A0E3           MOV      R0,#+0
   \   00001B68   7400C5E5           STRB     R0,[R5, #+116]
   \   00001B6C   C1FFFFEA           B        ??OMS_DataArrived_39
   \                     ??OMS_DataArrived_34:
   \   00001B70   001B9FE5           LDR      R1,??OMS_DataArrived_25+0x14  ;; `?<Constant "ZLib Err %d\\n">` + 72
   \   00001B74   0420A0E1           MOV      R2,R4
   \   00001B78   47F9FFEA           B        ??OMS_DataArrived_12
   \                     ??OMS_DataArrived_57:
   \   00001B7C   0040D1E5           LDRB     R4,[R1, #+0]
   \   00001B80   01008EE2           ADD      R0,LR,#+1
   \   00001B84   440085E5           STR      R0,[R5, #+68]
   \   00001B88   7370A0E3           MOV      R7,#+115
   \   00001B8C   400044E2           SUB      R0,R4,#+64
   \   00001B90   380050E3           CMP      R0,#+56
   \   00001B94   B3FFFF8A           BHI      ??OMS_DataArrived_37
   \   00001B98   021F8FE2           ADR      R1,??OMS_DataArrived_3
   \   00001B9C   8000A0E1           MOV      R0,R0, LSL #+1
   \   00001BA0   F01091E1           LDRSH    R1,[R1, R0]
   \   00001BA4   01F18FE0           ADD      PC,PC,R1, LSL #+2
   \                     ??OMS_DataArrived_3:
   \   00001BA8   4E011C00AFFF       DC16     +334,+28,+65455,+65455
   \              AFFF        
   \   00001BB0   2400AFFFAFFF       DC16     +36,+65455,+65455,+65455
   \              AFFF        
   \   00001BB8   AFFF4E005E00       DC16     +65455,+78,+94,+111
   \              6F00        
   \   00001BC0   1801AFFFAFFF       DC16     +280,+65455,+65455,+65455
   \              AFFF        
   \   00001BC8   3001AFFF3801       DC16     +304,+65455,+312,+42
   \              2A00        
   \   00001BD0   3D00AFFFAFFF       DC16     +61,+65455,+65455,+65455
   \              AFFF        
   \   00001BD8   7A0045003E01       DC16     +122,+69,+318,+65455
   \              AFFF        
   \   00001BE0   AFFFAFFF2401       DC16     +65455,+65455,+292,+65455
   \              AFFF        
   \   00001BE8   AFFFAFFFAFFF       DC16     +65455,+65455,+65455,+201
   \              C900        
   \   00001BF0   AFFF9100AFFF       DC16     +65455,+145,+65455,+65455
   \              AFFF        
   \   00001BF8   88000101AFFF       DC16     +136,+257,+65455,+268
   \              0C01        
   \   00001C00   AFFFAFFFAFFF       DC16     +65455,+65455,+65455,+239
   \              EF00        
   \   00001C08   9C00AFFFD600       DC16     +156,+65455,+214,+227
   \              E300        
   \   00001C10   AFFFA900AFFF       DC16     +65455,+169,+65455,+65455
   \              AFFF        
   \   00001C18   B6000000           DC16     +182,+0
   \                     ??OMS_DataArrived_58:
   \   00001C1C   0500A0E1           MOV      R0,R5
   \   00001C20   ........           BL       _rshort
   \   00001C24   0040A0E1           MOV      R4,R0
   \   00001C28   480095E5           LDR      R0,[R5, #+72]
   \   00001C2C   000084E0           ADD      R0,R4,R0
   \   00001C30   480085E5           STR      R0,[R5, #+72]
   \   00001C34   0800A0E3           MOV      R0,#+8
   \   00001C38   46F9FFEA           B        ??OMS_DataArrived_16
   \                     ??OMS_DataArrived_59:
   \   00001C3C   0500A0E1           MOV      R0,R5
   \   00001C40   ........           BL       _rshort
   \   00001C44   B006C5E1           STRH     R0,[R5, #+96]
   \                     ??OMS_DataArrived_60:
   \   00001C48   0500A0E1           MOV      R0,R5
   \   00001C4C   ........           _BLF     AddNewStyle,??AddNewStyle??rA
   \   00001C50   84FFFFEA           B        ??OMS_DataArrived_37
   \                     ??OMS_DataArrived_61:
   \   00001C54   580095E5           LDR      R0,[R5, #+88]
   \   00001C58   5C0085E5           STR      R0,[R5, #+92]
   \   00001C5C   0500A0E1           MOV      R0,R5
   \   00001C60   ........           BL       _rlong
   \   00001C64   0070A0E1           MOV      R7,R0
   \   00001C68   587085E5           STR      R7,[R5, #+88]
   \   00001C6C   540095E5           LDR      R0,[R5, #+84]
   \   00001C70   010080E2           ADD      R0,R0,#+1
   \   00001C74   0011A0E1           LSL      R1,R0,#+2
   \   00001C78   500095E5           LDR      R0,[R5, #+80]
   \   00001C7C   BA0000EF           SWI      +186
   \   00001C80   500085E5           STR      R0,[R5, #+80]
   \   00001C84   540095E5           LDR      R0,[R5, #+84]
   \   00001C88   501095E5           LDR      R1,[R5, #+80]
   \   00001C8C   007181E7           STR      R7,[R1, +R0, LSL #+2]
   \   00001C90   540095E5           LDR      R0,[R5, #+84]
   \   00001C94   010080E2           ADD      R0,R0,#+1
   \   00001C98   540085E5           STR      R0,[R5, #+84]
   \   00001C9C   E9FFFFEA           B        ??OMS_DataArrived_60
   \                     ??OMS_DataArrived_62:
   \   00001CA0   0500A0E1           MOV      R0,R5
   \   00001CA4   ........           BL       _rshort
   \   00001CA8   0040A0E1           MOV      R4,R0
   \   00001CAC   480095E5           LDR      R0,[R5, #+72]
   \   00001CB0   000084E0           ADD      R0,R4,R0
   \   00001CB4   480085E5           STR      R0,[R5, #+72]
   \   00001CB8   0900A0E3           MOV      R0,#+9
   \   00001CBC   25F9FFEA           B        ??OMS_DataArrived_16
   \                     ??OMS_DataArrived_63:
   \   00001CC0   0500A0E1           MOV      R0,R5
   \   00001CC4   ........           _BLF     _rbyte,??_rbyte??rA
   \   00001CC8   0040A0E1           MOV      R4,R0
   \   00001CCC   580095E5           LDR      R0,[R5, #+88]
   \   00001CD0   5C0085E5           STR      R0,[R5, #+92]
   \   00001CD4   500095E5           LDR      R0,[R5, #+80]
   \   00001CD8   040190E7           LDR      R0,[R0, +R4, LSL #+2]
   \   00001CDC   580085E5           STR      R0,[R5, #+88]
   \   00001CE0   D8FFFFEA           B        ??OMS_DataArrived_60
   \                     ??OMS_DataArrived_64:
   \   00001CE4   0500A0E1           MOV      R0,R5
   \   00001CE8   ........           BL       _rshort
   \   00001CEC   640085E5           STR      R0,[R5, #+100]
   \   00001CF0   0500A0E1           MOV      R0,R5
   \   00001CF4   ........           BL       _rshort
   \   00001CF8   680085E5           STR      R0,[R5, #+104]
   \   00001CFC   0500A0E1           MOV      R0,R5
   \   00001D00   ........           BL       _rshort
   \   00001D04   0040A0E1           MOV      R4,R0
   \   00001D08   0500A0E1           MOV      R0,R5
   \   00001D0C   ........           BL       _rshort
   \   00001D10   480095E5           LDR      R0,[R5, #+72]
   \   00001D14   000084E0           ADD      R0,R4,R0
   \   00001D18   480085E5           STR      R0,[R5, #+72]
   \   00001D1C   0A00A0E3           MOV      R0,#+10
   \   00001D20   0CF9FFEA           B        ??OMS_DataArrived_16
   \                     ??OMS_DataArrived_65:
   \   00001D24   0500A0E1           MOV      R0,R5
   \   00001D28   ........           BL       _rshort
   \   00001D2C   640085E5           STR      R0,[R5, #+100]
   \   00001D30   0500A0E1           MOV      R0,R5
   \   00001D34   ........           BL       _rshort
   \   00001D38   680085E5           STR      R0,[R5, #+104]
   \   00001D3C   641095E5           LDR      R1,[R5, #+100]
   \   00001D40   0020A0E1           MOV      R2,R0
   \   00001D44   0500A0E1           MOV      R0,R5
   \   00001D48   ........           _BLF     AddPictureItemFrame,??AddPictureItemFrame??rA
   \                     ??OMS_DataArrived_66:
   \   00001D4C   700095E5           LDR      R0,[R5, #+112]
   \   00001D50   010050E2           SUBS     R0,R0,#+1
   \   00001D54   700085E5           STR      R0,[R5, #+112]
   \   00001D58   42FFFF1A           BNE      ??OMS_DataArrived_37
   \                     ??OMS_DataArrived_67:
   \   00001D5C   0500A0E1           MOV      R0,R5
   \   00001D60   ........           _BLF     AddEndRef,??AddEndRef??rA
   \   00001D64   3FFFFFEA           B        ??OMS_DataArrived_37
   \                     ??OMS_DataArrived_68:
   \   00001D68   0500A0E1           MOV      R0,R5
   \   00001D6C   ........           BL       _rshort
   \   00001D70   0500A0E1           MOV      R0,R5
   \   00001D74   ........           BL       _rshort
   \   00001D78   0500A0E1           MOV      R0,R5
   \   00001D7C   ........           BL       _rshort
   \   00001D80   0040A0E1           MOV      R4,R0
   \   00001D84   0410A0E1           MOV      R1,R4
   \   00001D88   0500A0E1           MOV      R0,R5
   \   00001D8C   ........           _BLF     AddPictureItemIndex,??AddPictureItemIndex??rA
   \   00001D90   EDFFFFEA           B        ??OMS_DataArrived_66
   \                     ??OMS_DataArrived_69:
   \   00001D94   0500A0E1           MOV      R0,R5
   \   00001D98   ........           _BLF     _rbyte,??_rbyte??rA
   \   00001D9C   640085E5           STR      R0,[R5, #+100]
   \   00001DA0   0500A0E1           MOV      R0,R5
   \   00001DA4   ........           _BLF     _rbyte,??_rbyte??rA
   \   00001DA8   680085E5           STR      R0,[R5, #+104]
   \   00001DAC   0500A0E1           MOV      R0,R5
   \   00001DB0   ........           BL       _rshort
   \   00001DB4   0040A0E1           MOV      R4,R0
   \   00001DB8   480095E5           LDR      R0,[R5, #+72]
   \   00001DBC   000084E0           ADD      R0,R4,R0
   \   00001DC0   480085E5           STR      R0,[R5, #+72]
   \   00001DC4   0B00A0E3           MOV      R0,#+11
   \   00001DC8   E2F8FFEA           B        ??OMS_DataArrived_16
   \                     ??OMS_DataArrived_70:
   \   00001DCC   0500A0E1           MOV      R0,R5
   \   00001DD0   ........           BL       _rshort
   \   00001DD4   640085E5           STR      R0,[R5, #+100]
   \   00001DD8   024080E2           ADD      R4,R0,#+2
   \   00001DDC   480095E5           LDR      R0,[R5, #+72]
   \   00001DE0   000084E0           ADD      R0,R4,R0
   \   00001DE4   480085E5           STR      R0,[R5, #+72]
   \   00001DE8   0C00A0E3           MOV      R0,#+12
   \   00001DEC   D9F8FFEA           B        ??OMS_DataArrived_16
   \                     ??OMS_DataArrived_71:
   \   00001DF0   0500A0E1           MOV      R0,R5
   \   00001DF4   ........           BL       _rshort
   \   00001DF8   640085E5           STR      R0,[R5, #+100]
   \   00001DFC   024080E2           ADD      R4,R0,#+2
   \   00001E00   6500A0E3           MOV      R0,#+101
   \   00001E04   840085E5           STR      R0,[R5, #+132]
   \   00001E08   480095E5           LDR      R0,[R5, #+72]
   \   00001E0C   000084E0           ADD      R0,R4,R0
   \   00001E10   480085E5           STR      R0,[R5, #+72]
   \   00001E14   0E00A0E3           MOV      R0,#+14
   \   00001E18   CEF8FFEA           B        ??OMS_DataArrived_16
   \                     ??OMS_DataArrived_72:
   \   00001E1C   0500A0E1           MOV      R0,R5
   \   00001E20   ........           BL       _rshort
   \   00001E24   640085E5           STR      R0,[R5, #+100]
   \   00001E28   024080E2           ADD      R4,R0,#+2
   \   00001E2C   0500A0E1           MOV      R0,R5
   \   00001E30   ........           _BLF     AddBeginRef,??AddBeginRef??rA
   \   00001E34   7000A0E3           MOV      R0,#+112
   \   00001E38   840085E5           STR      R0,[R5, #+132]
   \   00001E3C   480095E5           LDR      R0,[R5, #+72]
   \   00001E40   000084E0           ADD      R0,R4,R0
   \   00001E44   480085E5           STR      R0,[R5, #+72]
   \   00001E48   1000A0E3           MOV      R0,#+16
   \   00001E4C   C1F8FFEA           B        ??OMS_DataArrived_16
   \                     ??OMS_DataArrived_73:
   \   00001E50   0500A0E1           MOV      R0,R5
   \   00001E54   ........           BL       _rshort
   \   00001E58   640085E5           STR      R0,[R5, #+100]
   \   00001E5C   024080E2           ADD      R4,R0,#+2
   \   00001E60   0500A0E1           MOV      R0,R5
   \   00001E64   ........           _BLF     AddBeginRef,??AddBeginRef??rA
   \   00001E68   7500A0E3           MOV      R0,#+117
   \   00001E6C   840085E5           STR      R0,[R5, #+132]
   \   00001E70   480095E5           LDR      R0,[R5, #+72]
   \   00001E74   000084E0           ADD      R0,R4,R0
   \   00001E78   480085E5           STR      R0,[R5, #+72]
   \   00001E7C   1200A0E3           MOV      R0,#+18
   \   00001E80   B4F8FFEA           B        ??OMS_DataArrived_16
   \                     ??OMS_DataArrived_74:
   \   00001E84   3C0095E5           LDR      R0,[R5, #+60]
   \   00001E88   0000D0E5           LDRB     R0,[R0, #+0]
   \   00001E8C   0D0050E3           CMP      R0,#+13
   \   00001E90   0100000A           BEQ      ??OMS_DataArrived_75
   \   00001E94   0500A0E1           MOV      R0,R5
   \   00001E98   ........           _BLF     _rbyte,??_rbyte??rA
   \                     ??OMS_DataArrived_75:
   \   00001E9C   0500A0E1           MOV      R0,R5
   \   00001EA0   ........           BL       _rshort
   \   00001EA4   640085E5           STR      R0,[R5, #+100]
   \   00001EA8   024080E2           ADD      R4,R0,#+2
   \   00001EAC   0500A0E1           MOV      R0,R5
   \   00001EB0   ........           _BLF     AddBeginRef,??AddBeginRef??rA
   \   00001EB4   7800A0E3           MOV      R0,#+120
   \   00001EB8   840085E5           STR      R0,[R5, #+132]
   \   00001EBC   480095E5           LDR      R0,[R5, #+72]
   \   00001EC0   000084E0           ADD      R0,R4,R0
   \   00001EC4   480085E5           STR      R0,[R5, #+72]
   \   00001EC8   1400A0E3           MOV      R0,#+20
   \   00001ECC   A1F8FFEA           B        ??OMS_DataArrived_16
   \                     ??OMS_DataArrived_76:
   \   00001ED0   0500A0E1           MOV      R0,R5
   \   00001ED4   ........           BL       _rshort
   \   00001ED8   640085E5           STR      R0,[R5, #+100]
   \   00001EDC   024080E2           ADD      R4,R0,#+2
   \   00001EE0   0500A0E1           MOV      R0,R5
   \   00001EE4   ........           _BLF     AddBeginRef,??AddBeginRef??rA
   \   00001EE8   6300A0E3           MOV      R0,#+99
   \   00001EEC   840085E5           STR      R0,[R5, #+132]
   \   00001EF0   480095E5           LDR      R0,[R5, #+72]
   \   00001EF4   000084E0           ADD      R0,R4,R0
   \   00001EF8   480085E5           STR      R0,[R5, #+72]
   \   00001EFC   1600A0E3           MOV      R0,#+22
   \   00001F00   94F8FFEA           B        ??OMS_DataArrived_16
   \                     ??OMS_DataArrived_77:
   \   00001F04   0500A0E1           MOV      R0,R5
   \   00001F08   ........           BL       _rshort
   \   00001F0C   640085E5           STR      R0,[R5, #+100]
   \   00001F10   024080E2           ADD      R4,R0,#+2
   \   00001F14   0500A0E1           MOV      R0,R5
   \   00001F18   ........           _BLF     AddBeginRef,??AddBeginRef??rA
   \   00001F1C   7200A0E3           MOV      R0,#+114
   \   00001F20   840085E5           STR      R0,[R5, #+132]
   \   00001F24   480095E5           LDR      R0,[R5, #+72]
   \   00001F28   000084E0           ADD      R0,R4,R0
   \   00001F2C   480085E5           STR      R0,[R5, #+72]
   \   00001F30   1800A0E3           MOV      R0,#+24
   \   00001F34   87F8FFEA           B        ??OMS_DataArrived_16
   \                     ??OMS_DataArrived_78:
   \   00001F38   0500A0E1           MOV      R0,R5
   \   00001F3C   ........           BL       _rshort
   \   00001F40   640085E5           STR      R0,[R5, #+100]
   \   00001F44   034080E2           ADD      R4,R0,#+3
   \   00001F48   0500A0E1           MOV      R0,R5
   \   00001F4C   ........           _BLF     AddBeginRef,??AddBeginRef??rA
   \   00001F50   847085E5           STR      R7,[R5, #+132]
   \   00001F54   480095E5           LDR      R0,[R5, #+72]
   \   00001F58   000084E0           ADD      R0,R4,R0
   \   00001F5C   480085E5           STR      R0,[R5, #+72]
   \   00001F60   1A00A0E3           MOV      R0,#+26
   \   00001F64   7BF8FFEA           B        ??OMS_DataArrived_16
   \                     ??OMS_DataArrived_79:
   \   00001F68   6C0095E5           LDR      R0,[R5, #+108]
   \   00001F6C   000050E3           CMP      R0,#+0
   \   00001F70   0B00000A           BEQ      ??OMS_DataArrived_80
   \   00001F74   010040E2           SUB      R0,R0,#+1
   \   00001F78   6C0085E5           STR      R0,[R5, #+108]
   \   00001F7C   0500A0E1           MOV      R0,R5
   \   00001F80   ........           BL       _rshort
   \   00001F84   640085E5           STR      R0,[R5, #+100]
   \   00001F88   024080E2           ADD      R4,R0,#+2
   \   00001F8C   847085E5           STR      R7,[R5, #+132]
   \   00001F90   480095E5           LDR      R0,[R5, #+72]
   \   00001F94   000084E0           ADD      R0,R4,R0
   \   00001F98   480085E5           STR      R0,[R5, #+72]
   \   00001F9C   1B00A0E3           MOV      R0,#+27
   \   00001FA0   6CF8FFEA           B        ??OMS_DataArrived_16
   \                     ??OMS_DataArrived_80:
   \   00001FA4   D0169FE5           LDR      R1,??OMS_DataArrived_25+0x18  ;; `?<Constant "ZLib Err %d\\n">` + 88
   \   00001FA8   0E20A0E3           MOV      R2,#+14
   \   00001FAC   6BFEFFEA           B        ??OMS_DataArrived_28
   \                     ??OMS_DataArrived_81:
   \   00001FB0   0500A0E1           MOV      R0,R5
   \   00001FB4   ........           BL       _rshort
   \   00001FB8   640085E5           STR      R0,[R5, #+100]
   \   00001FBC   024080E2           ADD      R4,R0,#+2
   \   00001FC0   6900A0E3           MOV      R0,#+105
   \   00001FC4   840085E5           STR      R0,[R5, #+132]
   \   00001FC8   480095E5           LDR      R0,[R5, #+72]
   \   00001FCC   000084E0           ADD      R0,R4,R0
   \   00001FD0   480085E5           STR      R0,[R5, #+72]
   \   00001FD4   1D00A0E3           MOV      R0,#+29
   \   00001FD8   5EF8FFEA           B        ??OMS_DataArrived_16
   \                     ??OMS_DataArrived_82:
   \   00001FDC   0500A0E1           MOV      R0,R5
   \   00001FE0   ........           _BLF     _rbyte,??_rbyte??rA
   \   00001FE4   680085E5           STR      R0,[R5, #+104]
   \   00001FE8   0500A0E1           MOV      R0,R5
   \   00001FEC   ........           BL       _rshort
   \   00001FF0   640085E5           STR      R0,[R5, #+100]
   \   00001FF4   0040A0E1           MOV      R4,R0
   \   00001FF8   480095E5           LDR      R0,[R5, #+72]
   \   00001FFC   000084E0           ADD      R0,R4,R0
   \   00002000   480085E5           STR      R0,[R5, #+72]
   \   00002004   1F00A0E3           MOV      R0,#+31
   \   00002008   52F8FFEA           B        ??OMS_DataArrived_16
   \                     ??OMS_DataArrived_83:
   \   0000200C   0500A0E1           MOV      R0,R5
   \   00002010   ........           BL       _rshort
   \   00002014   0040A0E1           MOV      R4,R0
   \   00002018   4C00A0E3           MOV      R0,#+76
   \   0000201C   840085E5           STR      R0,[R5, #+132]
   \   00002020   0500A0E1           MOV      R0,R5
   \   00002024   ........           _BLF     AddBeginRef,??AddBeginRef??rA
   \   00002028   480095E5           LDR      R0,[R5, #+72]
   \   0000202C   000084E0           ADD      R0,R4,R0
   \   00002030   480085E5           STR      R0,[R5, #+72]
   \   00002034   2000A0E3           MOV      R0,#+32
   \   00002038   46F8FFEA           B        ??OMS_DataArrived_16
   \                     ??OMS_DataArrived_84:
   \   0000203C   0500A0E1           MOV      R0,R5
   \   00002040   ........           BL       _rshort
   \   00002044   0040A0E1           MOV      R4,R0
   \   00002048   5E00A0E3           MOV      R0,#+94
   \   0000204C   840085E5           STR      R0,[R5, #+132]
   \   00002050   0500A0E1           MOV      R0,R5
   \   00002054   ........           _BLF     AddBeginRef,??AddBeginRef??rA
   \   00002058   480095E5           LDR      R0,[R5, #+72]
   \   0000205C   000084E0           ADD      R0,R4,R0
   \   00002060   480085E5           STR      R0,[R5, #+72]
   \   00002064   2300A0E3           MOV      R0,#+35
   \   00002068   3AF8FFEA           B        ??OMS_DataArrived_16
   \                     ??OMS_DataArrived_85:
   \   0000206C   0500A0E1           MOV      R0,R5
   \   00002070   ........           BL       _rshort
   \   00002074   0040A0E1           MOV      R4,R0
   \   00002078   480095E5           LDR      R0,[R5, #+72]
   \   0000207C   000084E0           ADD      R0,R4,R0
   \   00002080   480085E5           STR      R0,[R5, #+72]
   \   00002084   2100A0E3           MOV      R0,#+33
   \   00002088   32F8FFEA           B        ??OMS_DataArrived_16
   \                     ??OMS_DataArrived_86:
   \   0000208C   0500A0E1           MOV      R0,R5
   \   00002090   ........           BL       _rshort
   \   00002094   0040A0E1           MOV      R4,R0
   \   00002098   0500A0E1           MOV      R0,R5
   \   0000209C   ........           _BLF     AddPictureItemHr,??AddPictureItemHr??rA
   \   000020A0   70FEFFEA           B        ??OMS_DataArrived_37
   \                     ??OMS_DataArrived_87:
   \   000020A4   0500A0E1           MOV      R0,R5
   \   000020A8   ........           BL       _rshort
   \   000020AC   640085E5           STR      R0,[R5, #+100]
   \   000020B0   0040A0E1           MOV      R4,R0
   \   000020B4   5A00A0E3           MOV      R0,#+90
   \   000020B8   A80085E5           STR      R0,[R5, #+168]
   \   000020BC   440095E5           LDR      R0,[R5, #+68]
   \   000020C0   020040E2           SUB      R0,R0,#+2
   \   000020C4   AC0085E5           STR      R0,[R5, #+172]
   \   000020C8   0500A0E1           MOV      R0,R5
   \   000020CC   ........           _BLF     AddBeginRefZ,??AddBeginRefZ??rA
   \   000020D0   480095E5           LDR      R0,[R5, #+72]
   \   000020D4   000084E0           ADD      R0,R4,R0
   \   000020D8   480085E5           STR      R0,[R5, #+72]
   \   000020DC   2200A0E3           MOV      R0,#+34
   \   000020E0   1CF8FFEA           B        ??OMS_DataArrived_16
   \                     ??OMS_DataArrived_88:
   \   000020E4   0500A0E1           MOV      R0,R5
   \   000020E8   ........           BL       _rshort
   \   000020EC   680085E5           STR      R0,[R5, #+104]
   \   000020F0   0500A0E1           MOV      R0,R5
   \   000020F4   ........           BL       _rshort
   \   000020F8   640085E5           STR      R0,[R5, #+100]
   \   000020FC   0040A0E1           MOV      R4,R0
   \   00002100   010054E3           CMP      R4,#+1
   \   00002104   57FEFFBA           BLT      ??OMS_DataArrived_37
   \   00002108   440095E5           LDR      R0,[R5, #+68]
   \   0000210C   020040E2           SUB      R0,R0,#+2
   \   00002110   880085E5           STR      R0,[R5, #+136]
   \   00002114   680095E5           LDR      R0,[R5, #+104]
   \   00002118   900085E5           STR      R0,[R5, #+144]
   \   0000211C   4000A0E3           MOV      R0,#+64
   \   00002120   840085E5           STR      R0,[R5, #+132]
   \   00002124   0500A0E1           MOV      R0,R5
   \   00002128   ........           _BLF     AddBeginRef,??AddBeginRef??rA
   \   0000212C   480095E5           LDR      R0,[R5, #+72]
   \   00002130   000084E0           ADD      R0,R4,R0
   \   00002134   480085E5           STR      R0,[R5, #+72]
   \   00002138   2400A0E3           MOV      R0,#+36
   \   0000213C   05F8FFEA           B        ??OMS_DataArrived_16
    587                vd->parse_state=OMS_TAG_NAME;
    588              L_STAGE3_WANTED:
    589                break;
    590              case OMS_TAGA_STAGE3:
    591                i=vd->oms_wanted-vd->oms_pos;
   \                     ??OMS_DataArrived_89:
   \   00002140   04409DE5           LDR      R4,[SP, #+4]
    592                //AddTextItem(vd,vd->oms+vd->oms_pos,i);
    593                vd->oms_pos=vd->oms_wanted;
   \   00002144   44C085E5           STR      R12,[R5, #+68]
    594                vd->oms_wanted++;
   \                     ??OMS_DataArrived_90:
   \   00002148   489085E5           STR      R9,[R5, #+72]
    595                vd->parse_state=OMS_TAG_NAME;
   \   0000214C   23FEFFEA           B        ??OMS_DataArrived_32
    596                break;
    597              case OMS_TAGT_STAGE3:
    598                i=vd->oms_wanted-vd->oms_pos;
   \                     ??OMS_DataArrived_91:
   \   00002150   04409DE5           LDR      R4,[SP, #+4]
    599                AddTextItem(vd,vd->oms+vd->oms_pos,i);
   \   00002154   0500A0E1           MOV      R0,R5
   \   00002158   0420A0E1           MOV      R2,R4
   \   0000215C   ........           _BLF     AddTextItem,??AddTextItem??rA
    600                if(!vd->title)
   \   00002160   DC0095E5           LDR      R0,[R5, #+220]
   \   00002164   000050E3           CMP      R0,#+0
   \   00002168   1000001A           BNE      ??OMS_DataArrived_92
    601                {
    602                  vd->title=(char *)malloc(i+1);
   \   0000216C   010084E2           ADD      R0,R4,#+1
   \   00002170   140000EF           SWI      +20
   \   00002174   DC0085E5           STR      R0,[R5, #+220]
    603                  memcpy(vd->title,vd->oms+vd->oms_pos,i);
   \   00002178   440095E5           LDR      R0,[R5, #+68]
   \   0000217C   3C1095E5           LDR      R1,[R5, #+60]
   \   00002180   0420A0E1           MOV      R2,R4
   \   00002184   011080E0           ADD      R1,R0,R1
   \   00002188   DC0095E5           LDR      R0,[R5, #+220]
   \   0000218C   1E0100EF           SWI      +286
    604                  vd->title[i]=NULL;
   \   00002190   DC0095E5           LDR      R0,[R5, #+220]
   \   00002194   0010A0E3           MOV      R1,#+0
   \   00002198   0010C4E7           STRB     R1,[R4, +R0]
    605                  utf82win(vd->title, vd->title);
   \   0000219C   DC0095E5           LDR      R0,[R5, #+220]
   \   000021A0   0010A0E1           MOV      R1,R0
   \   000021A4   ........           _BLF     utf82win,??utf82win??rA
    606                  AddBrItem(vd);
   \   000021A8   0500A0E1           MOV      R0,R5
   \   000021AC   ........           _BLF     AddBrItem,??AddBrItem??rA
    607                }
    608                vd->oms_pos=vd->oms_wanted;
   \                     ??OMS_DataArrived_92:
   \   000021B0   480095E5           LDR      R0,[R5, #+72]
   \   000021B4   440085E5           STR      R0,[R5, #+68]
    609                vd->oms_wanted++;
   \                     ??OMS_DataArrived_93:
   \   000021B8   010080E2           ADD      R0,R0,#+1
   \   000021BC   480085E5           STR      R0,[R5, #+72]
    610                vd->parse_state=OMS_TAG_NAME;
   \   000021C0   06FEFFEA           B        ??OMS_DataArrived_32
    611                break;
    612              case OMS_TAGI_STAGE3:
    613                AddPictureItem(vd,(void *)(vd->oms+vd->oms_pos));
   \                     ??OMS_DataArrived_94:
   \   000021C4   0500A0E1           MOV      R0,R5
   \   000021C8   ........           _BLF     AddPictureItem,??AddPictureItem??rA
    614                vd->ref_mode_i--;
   \                     ??OMS_DataArrived_95:
   \   000021CC   700095E5           LDR      R0,[R5, #+112]
   \   000021D0   010050E2           SUBS     R0,R0,#+1
   \   000021D4   700085E5           STR      R0,[R5, #+112]
    615                if (!vd->ref_mode_i)
   \   000021D8   F4FFFF1A           BNE      ??OMS_DataArrived_92
    616                  AddEndRef(vd);
   \   000021DC   0500A0E1           MOV      R0,R5
   \   000021E0   ........           _BLF     AddEndRef,??AddEndRef??rA
   \   000021E4   F1FFFFEA           B        ??OMS_DataArrived_92
    617                vd->oms_pos=vd->oms_wanted;
    618                vd->oms_wanted++;
    619                vd->parse_state=OMS_TAG_NAME;
    620                break;
    621              case OMS_TAGX_STAGE3:
    622                //i=vd->oms_wanted-vd->oms_pos; //Size of picture
    623                AddPictureItemRGBA(vd,(void *)(vd->oms+vd->oms_pos),vd->iw,vd->ih);
   \                     ??OMS_DataArrived_96:
   \   000021E8   0730A0E1           MOV      R3,R7
   \   000021EC   0500A0E1           MOV      R0,R5
   \   000021F0   ........           _BLF     AddPictureItemRGBA,??AddPictureItemRGBA??rA
    624                vd->ref_mode_i--;
   \   000021F4   F4FFFFEA           B        ??OMS_DataArrived_95
    625                if (!vd->ref_mode_i)
    626                  AddEndRef(vd);
    627                vd->oms_pos=vd->oms_wanted;
    628                vd->oms_wanted++;
    629                vd->parse_state=OMS_TAG_NAME;
    630                break;
    631              case OMS_TAGh_STAGE3:
    632                i=vd->iw;
    633                //vd->work_ref.form_id1=vd->oms_pos;
    634                vd->oms_pos+=i;
   \                     ??OMS_DataArrived_97:
   \   000021F8   443085E5           STR      R3,[R5, #+68]
    635                i=(vd->ih=_rshort(vd));
   \   000021FC   0500A0E1           MOV      R0,R5
   \   00002200   ........           BL       _rshort
   \   00002204   680085E5           STR      R0,[R5, #+104]
   \   00002208   0040A0E1           MOV      R4,R0
    636                vd->oms_wanted+=i;
   \   0000220C   480095E5           LDR      R0,[R5, #+72]
   \   00002210   000084E0           ADD      R0,R4,R0
   \   00002214   480085E5           STR      R0,[R5, #+72]
    637                vd->parse_state=OMS_TAGh_STAGE4;
   \   00002218   0D00A0E3           MOV      R0,#+13
   \   0000221C   CDF7FFEA           B        ??OMS_DataArrived_16
    638                break;
    639              case OMS_TAGh_STAGE4:
    640                i=vd->ih;
   \                     ??OMS_DataArrived_98:
   \   00002220   0740A0E1           MOV      R4,R7
    641                //vd->work_ref.form_id2=vd->oms_pos;
    642                vd->oms_pos+=i;
   \   00002224   0E0084E0           ADD      R0,R4,LR
   \   00002228   440085E5           STR      R0,[R5, #+68]
    643                vd->oms_wanted++;
   \   0000222C   C5FFFFEA           B        ??OMS_DataArrived_90
    644                vd->parse_state=OMS_TAG_NAME;
    645                break;
    646              case OMS_TAGe_STAGE3:
    647                i=vd->iw;
    648                vd->work_ref.id=vd->oms_pos-2;
   \                     ??OMS_DataArrived_99:
   \   00002230   880085E5           STR      R0,[R5, #+136]
    649                vd->oms_pos+=i;
   \   00002234   443085E5           STR      R3,[R5, #+68]
    650                i=(vd->ih=_rshort(vd));
   \   00002238   0500A0E1           MOV      R0,R5
   \   0000223C   ........           BL       _rshort
   \   00002240   680085E5           STR      R0,[R5, #+104]
   \   00002244   0040A0E1           MOV      R4,R0
    651                vd->oms_wanted+=i;
   \   00002248   480095E5           LDR      R0,[R5, #+72]
   \   0000224C   000084E0           ADD      R0,R4,R0
   \   00002250   480085E5           STR      R0,[R5, #+72]
    652                vd->parse_state=OMS_TAGe_STAGE4;
   \   00002254   0F00A0E3           MOV      R0,#+15
   \   00002258   BEF7FFEA           B        ??OMS_DataArrived_16
    653                break;
    654              case OMS_TAGe_STAGE4:
    655                i=vd->ih;
   \                     ??OMS_DataArrived_100:
   \   0000225C   0740A0E1           MOV      R4,R7
    656                vd->work_ref.value=vd->oms_pos-2;
   \   00002260   8C0085E5           STR      R0,[R5, #+140]
    657                //AddEndRef(vd);
    658                vd->oms_pos+=i;
   \   00002264   0E0084E0           ADD      R0,R4,LR
   \   00002268   440085E5           STR      R0,[R5, #+68]
    659                vd->oms_wanted++;
   \   0000226C   489085E5           STR      R9,[R5, #+72]
    660                vd->parse_state=OMS_TAG_NAME;
   \   00002270   DAFDFFEA           B        ??OMS_DataArrived_32
    661                break;
    662              case OMS_TAGp_STAGE3:
    663                i=vd->iw;
    664                vd->work_ref.id=vd->oms_pos-2;
   \                     ??OMS_DataArrived_101:
   \   00002274   880085E5           STR      R0,[R5, #+136]
    665                vd->oms_pos+=i;
   \   00002278   443085E5           STR      R3,[R5, #+68]
    666                i=(vd->ih=_rshort(vd));
   \   0000227C   0500A0E1           MOV      R0,R5
   \   00002280   ........           BL       _rshort
   \   00002284   680085E5           STR      R0,[R5, #+104]
   \   00002288   0040A0E1           MOV      R4,R0
    667                vd->oms_wanted+=i;
   \   0000228C   480095E5           LDR      R0,[R5, #+72]
   \   00002290   000084E0           ADD      R0,R4,R0
   \   00002294   480085E5           STR      R0,[R5, #+72]
    668                vd->parse_state=OMS_TAGp_STAGE4;
   \   00002298   1100A0E3           MOV      R0,#+17
   \   0000229C   ADF7FFEA           B        ??OMS_DataArrived_16
    669                break;
    670              case OMS_TAGp_STAGE4:
    671                i=vd->ih;
    672                vd->work_ref.value=vd->oms_pos-2;
   \                     ??OMS_DataArrived_102:
   \   000022A0   8C0085E5           STR      R0,[R5, #+140]
    673                AddInputItem(vd,vd->oms_pos-2);
   \   000022A4   0010A0E1           MOV      R1,R0
   \   000022A8   0500A0E1           MOV      R0,R5
   \   000022AC   ........           _BLF     AddInputItem,??AddInputItem??rA
    674                AddEndRef(vd);
   \   000022B0   0500A0E1           MOV      R0,R5
   \   000022B4   ........           _BLF     AddEndRef,??AddEndRef??rA
    675                vd->oms_pos+=i;
   \   000022B8   440095E5           LDR      R0,[R5, #+68]
   \   000022BC   0740A0E1           MOV      R4,R7
   \   000022C0   000084E0           ADD      R0,R4,R0
   \   000022C4   440085E5           STR      R0,[R5, #+68]
    676                vd->oms_wanted++;
   \   000022C8   480095E5           LDR      R0,[R5, #+72]
   \   000022CC   C1FDFFEA           B        ??OMS_DataArrived_31
    677                vd->parse_state=OMS_TAG_NAME;
    678                break;
    679              case OMS_TAGu_STAGE3:
    680                i=vd->iw;
    681                vd->work_ref.id=vd->oms_pos-2;
   \                     ??OMS_DataArrived_103:
   \   000022D0   880085E5           STR      R0,[R5, #+136]
    682                vd->oms_pos+=i;
   \   000022D4   443085E5           STR      R3,[R5, #+68]
    683                i=(vd->ih=_rshort(vd));
   \   000022D8   0500A0E1           MOV      R0,R5
   \   000022DC   ........           BL       _rshort
   \   000022E0   680085E5           STR      R0,[R5, #+104]
   \   000022E4   0040A0E1           MOV      R4,R0
    684                vd->oms_wanted+=i;
   \   000022E8   480095E5           LDR      R0,[R5, #+72]
   \   000022EC   000084E0           ADD      R0,R4,R0
   \   000022F0   480085E5           STR      R0,[R5, #+72]
    685                vd->parse_state=OMS_TAGu_STAGE4;
   \   000022F4   1300A0E3           MOV      R0,#+19
   \   000022F8   96F7FFEA           B        ??OMS_DataArrived_16
    686                break;
    687              case OMS_TAGu_STAGE4:
    688                i=vd->ih;
   \                     ??OMS_DataArrived_104:
   \   000022FC   0740A0E1           MOV      R4,R7
    689                vd->work_ref.value=vd->oms_pos-2;
   \   00002300   8C0085E5           STR      R0,[R5, #+140]
    690                AddButtonItem(vd,vd->oms+vd->oms_pos,i);
   \   00002304   0420A0E1           MOV      R2,R4
   \   00002308   0500A0E1           MOV      R0,R5
   \   0000230C   ........           _BLF     AddButtonItem,??AddButtonItem??rA
    691                AddEndRef(vd);
   \   00002310   0500A0E1           MOV      R0,R5
   \   00002314   ........           _BLF     AddEndRef,??AddEndRef??rA
    692                vd->oms_pos+=i;
   \   00002318   440095E5           LDR      R0,[R5, #+68]
   \   0000231C   000084E0           ADD      R0,R4,R0
   \   00002320   440085E5           STR      R0,[R5, #+68]
    693                vd->oms_wanted++;
   \   00002324   480095E5           LDR      R0,[R5, #+72]
   \   00002328   AAFDFFEA           B        ??OMS_DataArrived_31
    694                vd->parse_state=OMS_TAG_NAME;
    695                break;
    696              case OMS_TAGx_STAGE3:
    697                i=vd->iw;
    698                vd->work_ref.id=vd->oms_pos-2;
   \                     ??OMS_DataArrived_105:
   \   0000232C   880085E5           STR      R0,[R5, #+136]
    699                vd->oms_pos+=i;
   \   00002330   443085E5           STR      R3,[R5, #+68]
    700                i=(vd->ih=_rshort(vd));
   \   00002334   0500A0E1           MOV      R0,R5
   \   00002338   ........           BL       _rshort
   \   0000233C   680085E5           STR      R0,[R5, #+104]
   \   00002340   0040A0E1           MOV      R4,R0
    701                vd->oms_wanted+=i;
   \   00002344   480095E5           LDR      R0,[R5, #+72]
   \   00002348   000084E0           ADD      R0,R4,R0
   \   0000234C   480085E5           STR      R0,[R5, #+72]
    702                vd->parse_state=OMS_TAGx_STAGE4;
   \   00002350   1500A0E3           MOV      R0,#+21
   \   00002354   7FF7FFEA           B        ??OMS_DataArrived_16
    703                break;
    704              case OMS_TAGx_STAGE4:
    705                i=vd->ih;
    706                vd->work_ref.value=vd->oms_pos-2;
    707                AddInputItem(vd,vd->oms_pos-2);
    708                AddEndRef(vd);
    709                vd->oms_pos+=i;
    710                vd->oms_wanted++;
    711                vd->parse_state=OMS_TAG_NAME;
    712                break;
    713              case OMS_TAGc_STAGE3:
    714                i=vd->iw;
    715                vd->work_ref.id=vd->oms_pos-2;
   \                     ??OMS_DataArrived_106:
   \   00002358   880085E5           STR      R0,[R5, #+136]
    716                vd->oms_pos+=i;
   \   0000235C   443085E5           STR      R3,[R5, #+68]
    717                i=(vd->ih=_rshort(vd))+1;
   \   00002360   0500A0E1           MOV      R0,R5
   \   00002364   ........           BL       _rshort
   \   00002368   680085E5           STR      R0,[R5, #+104]
   \   0000236C   014080E2           ADD      R4,R0,#+1
    718                vd->oms_wanted+=i;
   \   00002370   480095E5           LDR      R0,[R5, #+72]
   \   00002374   000084E0           ADD      R0,R4,R0
   \   00002378   480085E5           STR      R0,[R5, #+72]
    719                vd->parse_state=OMS_TAGc_STAGE4;
   \   0000237C   1700A0E3           MOV      R0,#+23
   \   00002380   74F7FFEA           B        ??OMS_DataArrived_16
    720                break;
    721              case OMS_TAGc_STAGE4:
    722                i=vd->ih;
    723                vd->work_ref.value=vd->oms_pos-2;
   \                     ??OMS_DataArrived_107:
   \   00002384   8C0085E5           STR      R0,[R5, #+140]
    724                vd->oms_pos+=i;
   \   00002388   0E0087E0           ADD      R0,R7,LR
   \   0000238C   440085E5           STR      R0,[R5, #+68]
    725                i=_rbyte(vd);
   \   00002390   0500A0E1           MOV      R0,R5
   \   00002394   ........           _BLF     _rbyte,??_rbyte??rA
   \   00002398   0040A0E1           MOV      R4,R0
    726                AddCheckBoxItem(vd,i);
   \   0000239C   0410A0E1           MOV      R1,R4
   \   000023A0   0500A0E1           MOV      R0,R5
   \   000023A4   ........           _BLF     AddCheckBoxItem,??AddCheckBoxItem??rA
    727                AddEndRef(vd);
   \   000023A8   0500A0E1           MOV      R0,R5
   \   000023AC   ........           _BLF     AddEndRef,??AddEndRef??rA
    728                vd->oms_wanted++;
   \   000023B0   480095E5           LDR      R0,[R5, #+72]
   \   000023B4   87FDFFEA           B        ??OMS_DataArrived_31
    729                vd->parse_state=OMS_TAG_NAME;
    730                break;
    731              case OMS_TAGr_STAGE3:
    732                i=vd->iw;
    733                vd->work_ref.id=vd->oms_pos-2;
   \                     ??OMS_DataArrived_108:
   \   000023B8   880085E5           STR      R0,[R5, #+136]
    734                vd->oms_pos+=i;
   \   000023BC   443085E5           STR      R3,[R5, #+68]
    735                i=(vd->ih=_rshort(vd))+1;
   \   000023C0   0500A0E1           MOV      R0,R5
   \   000023C4   ........           BL       _rshort
   \   000023C8   680085E5           STR      R0,[R5, #+104]
   \   000023CC   014080E2           ADD      R4,R0,#+1
    736                vd->oms_wanted+=i;
   \   000023D0   480095E5           LDR      R0,[R5, #+72]
   \   000023D4   000084E0           ADD      R0,R4,R0
   \   000023D8   480085E5           STR      R0,[R5, #+72]
    737                vd->parse_state=OMS_TAGr_STAGE4;
   \   000023DC   1900A0E3           MOV      R0,#+25
   \   000023E0   5CF7FFEA           B        ??OMS_DataArrived_16
    738                break;
    739              case OMS_TAGr_STAGE4:
    740                i=vd->ih;
    741                vd->work_ref.value=vd->oms_pos-2;
   \                     ??OMS_DataArrived_109:
   \   000023E4   8C0085E5           STR      R0,[R5, #+140]
    742                vd->oms_pos+=i;
   \   000023E8   0E0087E0           ADD      R0,R7,LR
   \   000023EC   440085E5           STR      R0,[R5, #+68]
    743                i=_rbyte(vd);
   \   000023F0   0500A0E1           MOV      R0,R5
   \   000023F4   ........           _BLF     _rbyte,??_rbyte??rA
   \   000023F8   0040A0E1           MOV      R4,R0
    744                AddRadioButton(vd,i);
   \   000023FC   0410A0E1           MOV      R1,R4
   \   00002400   0500A0E1           MOV      R0,R5
   \   00002404   ........           _BLF     AddRadioButton,??AddRadioButton??rA
    745                AddEndRef(vd);
   \   00002408   0500A0E1           MOV      R0,R5
   \   0000240C   ........           _BLF     AddEndRef,??AddEndRef??rA
    746                vd->oms_wanted++;
   \   00002410   480095E5           LDR      R0,[R5, #+72]
   \   00002414   6FFDFFEA           B        ??OMS_DataArrived_31
    747                vd->parse_state=OMS_TAG_NAME;
    748                break;
    749              case OMS_TAGs_STAGE3:
    750                i=vd->iw;
   \                     ??OMS_DataArrived_110:
   \   00002418   0240A0E1           MOV      R4,R2
    751                vd->work_ref.id=vd->oms_pos-2;
   \   0000241C   880085E5           STR      R0,[R5, #+136]
    752                vd->oms_pos+=i;
   \   00002420   443085E5           STR      R3,[R5, #+68]
    753                vd->work_ref.multiselect=_rbyte(vd);
   \   00002424   0500A0E1           MOV      R0,R5
   \   00002428   ........           _BLF     _rbyte,??_rbyte??rA
   \   0000242C   9C10D5E5           LDRB     R1,[R5, #+156]
   \   00002430   0220A0E3           MOV      R2,#+2
   \   00002434   800002E0           AND      R0,R2,R0, LSL #+1
   \   00002438   FD1001E2           AND      R1,R1,#0xFD
   \   0000243C   010080E1           ORR      R0,R0,R1
   \   00002440   9C00C5E5           STRB     R0,[R5, #+156]
    754                vd->work_ref.data=malloc(vd->tag_o_count=_rshort(vd));
   \   00002444   0500A0E1           MOV      R0,R5
   \   00002448   ........           BL       _rshort
   \   0000244C   6C0085E5           STR      R0,[R5, #+108]
   \   00002450   140000EF           SWI      +20
   \   00002454   940085E5           STR      R0,[R5, #+148]
    755                vd->work_ref.size=0;
   \   00002458   0000A0E3           MOV      R0,#+0
   \   0000245C   980085E5           STR      R0,[R5, #+152]
    756                vd->oms_wanted++;
   \   00002460   480095E5           LDR      R0,[R5, #+72]
   \   00002464   53FFFFEA           B        ??OMS_DataArrived_93
    757                vd->parse_state=OMS_TAG_NAME;
    758                break;
    759              case OMS_TAGo_STAGE3:
    760                i=vd->iw;
    761                //AddTextItem(vd,vd->oms+vd->oms_pos,i);
    762                vd->oms_pos+=i;
   \                     ??OMS_DataArrived_111:
   \   00002468   443085E5           STR      R3,[R5, #+68]
    763                i=vd->ih=_rshort(vd);
   \   0000246C   0500A0E1           MOV      R0,R5
   \   00002470   ........           BL       _rshort
   \   00002474   680085E5           STR      R0,[R5, #+104]
   \   00002478   0040A0E1           MOV      R4,R0
    764                vd->oms_wanted+=i+1;
   \   0000247C   480095E5           LDR      R0,[R5, #+72]
   \   00002480   011084E2           ADD      R1,R4,#+1
   \   00002484   000081E0           ADD      R0,R1,R0
   \   00002488   480085E5           STR      R0,[R5, #+72]
    765                vd->parse_state=OMS_TAGo_STAGE4;
   \   0000248C   1C00A0E3           MOV      R0,#+28
   \   00002490   30F7FFEA           B        ??OMS_DataArrived_16
    766                break;
    767              case OMS_TAGo_STAGE4:
    768                i=vd->ih;
   \                     ??OMS_DataArrived_112:
   \   00002494   0740A0E1           MOV      R4,R7
    769                //AddTextItem(vd,vd->oms+vd->oms_pos,i);
    770                //AddBrItem(vd);
    771                vd->oms_pos+=i;
   \   00002498   0E0084E0           ADD      R0,R4,LR
   \   0000249C   440085E5           STR      R0,[R5, #+68]
    772                if (((char*)vd->work_ref.data)[vd->work_ref.size]=_rbyte(vd)) //checked/unchecked
   \   000024A0   0500A0E1           MOV      R0,R5
   \   000024A4   ........           _BLF     _rbyte,??_rbyte??rA
   \   000024A8   981095E5           LDR      R1,[R5, #+152]
   \   000024AC   942095E5           LDR      R2,[R5, #+148]
   \   000024B0   0200C1E7           STRB     R0,[R1, +R2]
   \   000024B4   980095E5           LDR      R0,[R5, #+152]
   \   000024B8   941095E5           LDR      R1,[R5, #+148]
   \   000024BC   0110D0E7           LDRB     R1,[R0, +R1]
   \   000024C0   000051E3           CMP      R1,#+0
   \   000024C4   0900000A           BEQ      ??OMS_DataArrived_113
    773                {
    774                  vd->work_ref.value=vd->oms_pos-1-vd->ih-2-vd->iw-2;
   \   000024C8   441095E5           LDR      R1,[R5, #+68]
   \   000024CC   682095E5           LDR      R2,[R5, #+104]
   \   000024D0   011041E2           SUB      R1,R1,#+1
   \   000024D4   021041E0           SUB      R1,R1,R2
   \   000024D8   642095E5           LDR      R2,[R5, #+100]
   \   000024DC   022041E0           SUB      R2,R1,R2
   \   000024E0   042042E2           SUB      R2,R2,#+4
   \   000024E4   8C2085E5           STR      R2,[R5, #+140]
    775                  vd->work_ref.id2=vd->oms_pos-1-vd->ih-2;
   \   000024E8   021041E2           SUB      R1,R1,#+2
   \   000024EC   901085E5           STR      R1,[R5, #+144]
    776                }
    777                vd->work_ref.size++;
   \                     ??OMS_DataArrived_113:
   \   000024F0   010080E2           ADD      R0,R0,#+1
   \   000024F4   980085E5           STR      R0,[R5, #+152]
    778                if (!vd->tag_o_count)
   \   000024F8   6C0095E5           LDR      R0,[R5, #+108]
   \   000024FC   000050E3           CMP      R0,#+0
   \   00002500   58FDFF1A           BNE      ??OMS_DataArrived_37
    779                {
    780                  AddDropDownList(vd);
   \   00002504   0500A0E1           MOV      R0,R5
   \   00002508   ........           _BLF     AddDropDownList,??AddDropDownList??rA
    781                  AddEndRef(vd);
   \   0000250C   12FEFFEA           B        ??OMS_DataArrived_67
    782                }
    783                vd->oms_wanted++;
    784                vd->parse_state=OMS_TAG_NAME;
    785                break;
    786              case OMS_TAGi_STAGE3:
    787                i=vd->iw;
    788                vd->work_ref.id=vd->oms_pos-2;
   \                     ??OMS_DataArrived_114:
   \   00002510   880085E5           STR      R0,[R5, #+136]
    789                vd->oms_pos+=i;
   \   00002514   443085E5           STR      R3,[R5, #+68]
    790                i=vd->ih=_rshort(vd);
   \   00002518   0500A0E1           MOV      R0,R5
   \   0000251C   ........           BL       _rshort
   \   00002520   680085E5           STR      R0,[R5, #+104]
   \   00002524   0040A0E1           MOV      R4,R0
    791                vd->oms_wanted+=i;
   \   00002528   480095E5           LDR      R0,[R5, #+72]
   \   0000252C   000084E0           ADD      R0,R4,R0
   \   00002530   480085E5           STR      R0,[R5, #+72]
    792                vd->parse_state=OMS_TAGi_STAGE4;
   \   00002534   1E00A0E3           MOV      R0,#+30
   \   00002538   06F7FFEA           B        ??OMS_DataArrived_16
    793                break;
    794              case OMS_TAGi_STAGE4:
    795                i=vd->ih;
   \                     ??OMS_DataArrived_115:
   \   0000253C   0740A0E1           MOV      R4,R7
    796                vd->work_ref.value=vd->oms_pos-2;
   \   00002540   8C0085E5           STR      R0,[R5, #+140]
    797                //AddTextItem(vd,vd->oms+vd->oms_pos,i);
    798                //if (vd->tag_l_count)
    799                //{
    800                //  if (!(--vd->tag_l_count))
    801                //  {
    802                //    AddEndRef(vd);
    803                //  }
    804                //}
    805                //else
    806                //{
    807                //  AddTextItem(vd,"!Illegal <i>!",13);
    808                //  AddBrItem(vd);
    809                //  vd->parse_state=OMS_STOP;
    810                //  return;
    811                //}
    812                vd->oms_pos+=i;
   \   00002544   0E0084E0           ADD      R0,R4,LR
   \   00002548   440085E5           STR      R0,[R5, #+68]
    813                //_rshort(vd); //unk
    814                vd->oms_wanted++;
   \   0000254C   489085E5           STR      R9,[R5, #+72]
    815                vd->ref_mode_i=1;
   \   00002550   0100A0E3           MOV      R0,#+1
   \   00002554   700085E5           STR      R0,[R5, #+112]
    816                vd->parse_state=OMS_TAG_NAME;
   \   00002558   20FDFFEA           B        ??OMS_DataArrived_32
    817                break;
    818              case OMS_TAGk_STAGE3:
    819                i=vd->iw;
   \                     ??OMS_DataArrived_116:
   \   0000255C   0240A0E1           MOV      R4,R2
    820                AddPictureItemHr(vd);
   \   00002560   0500A0E1           MOV      R0,R5
   \   00002564   ........           _BLF     AddPictureItemHr,??AddPictureItemHr??rA
    821                sprintf(s,vd->ih?"New AuthCode: ":"New AuthPrefix: ",vd->ih);
   \   00002568   682095E5           LDR      R2,[R5, #+104]
   \   0000256C   08008DE2           ADD      R0,SP,#+8
   \   00002570   000052E3           CMP      R2,#+0
   \   00002574   04119F15           LDRNE    R1,??OMS_DataArrived_25+0x1C  ;; `?<Constant "ZLib Err %d\\n">` + 104
   \   00002578   04119F05           LDREQ    R1,??OMS_DataArrived_25+0x20  ;; `?<Constant "ZLib Err %d\\n">` + 120
   \   0000257C   160000EF           SWI      +22
    822                AddTextItem(vd,s,strlen(s));
   \   00002580   08008DE2           ADD      R0,SP,#+8
   \   00002584   1B0000EF           SWI      +27
   \   00002588   0020A0E1           MOV      R2,R0
   \   0000258C   08108DE2           ADD      R1,SP,#+8
   \   00002590   0500A0E1           MOV      R0,R5
   \   00002594   ........           _BLF     AddTextItem,??AddTextItem??rA
    823                AddTextItem(vd,vd->oms+vd->oms_pos,i);
   \   00002598   440095E5           LDR      R0,[R5, #+68]
   \   0000259C   3C1095E5           LDR      R1,[R5, #+60]
   \   000025A0   0420A0E1           MOV      R2,R4
   \   000025A4   011080E0           ADD      R1,R0,R1
   \   000025A8   0500A0E1           MOV      R0,R5
   \   000025AC   ........           _BLF     AddTextItem,??AddTextItem??rA
    824                AddPictureItemHr(vd);
   \   000025B0   0500A0E1           MOV      R0,R5
   \   000025B4   ........           _BLF     AddPictureItemHr,??AddPictureItemHr??rA
    825                vd->oms_pos=vd->oms_wanted;
   \   000025B8   FCFEFFEA           B        ??OMS_DataArrived_92
    826                vd->oms_wanted++;
    827                vd->parse_state=OMS_TAG_NAME;
    828                break;
    829              case OMS_TAGL_STAGE3:
    830                i=vd->oms_wanted-vd->oms_pos;
   \                     ??OMS_DataArrived_117:
   \   000025BC   04409DE5           LDR      R4,[SP, #+4]
    831                vd->work_ref.id=vd->oms_pos-2;
   \   000025C0   880085E5           STR      R0,[R5, #+136]
    832                vd->oms_pos=vd->oms_wanted;
   \   000025C4   44C085E5           STR      R12,[R5, #+68]
    833                vd->oms_wanted++;
   \   000025C8   DEFEFFEA           B        ??OMS_DataArrived_90
    834                vd->parse_state=OMS_TAG_NAME;
    835                break;
    836              case OMS_TAGx5E_STAGE3:
    837                i=vd->oms_wanted-vd->oms_pos;
    838                vd->work_ref.id=vd->oms_pos-2;
    839                vd->oms_pos=vd->oms_wanted;
    840                vd->oms_wanted++;
    841                vd->parse_state=OMS_TAG_NAME;
    842                break;
    843              case OMS_TAGP_STAGE3:
    844                i=vd->oms_wanted-vd->oms_pos;
    845                //AddTextItem(vd,vd->oms+vd->oms_pos,i);
    846                //AddTextItem(vd,slash,1);
    847                vd->oms_pos=vd->oms_wanted;
    848                vd->oms_wanted++;
    849                vd->parse_state=OMS_TAG_NAME;
    850                break;
    851              case OMS_TAGZ_STAGE3:
    852                i=vd->iw;
   \                     ??OMS_DataArrived_118:
   \   000025CC   0240A0E1           MOV      R4,R2
    853                //AddBrItem(vd);
    854                //AddTextItem(vd,vd->oms+vd->oms_pos,i);
    855                //AddBrItem(vd);
    856                vd->oms_pos+=i;
   \   000025D0   443085E5           STR      R3,[R5, #+68]
    857                //AddEndRef(vd);
    858                vd->oms_wanted++;
   \   000025D4   489085E5           STR      R9,[R5, #+72]
    859                vd->parse_state=OMS_TAG_NAME;
   \   000025D8   4C6085E5           STR      R6,[R5, #+76]
   \   000025DC   DEF6FFEA           B        ??OMS_DataArrived_14
    860                break;
    861              case OMS_TAGx40_STAGE3:
    862                i=vd->iw;
   \                     ??OMS_DataArrived_119:
   \   000025E0   0240A0E1           MOV      R4,R2
    863                AddTextItem(vd,vd->oms+vd->oms_pos,i);
   \   000025E4   0500A0E1           MOV      R0,R5
   \   000025E8   ........           _BLF     AddTextItem,??AddTextItem??rA
    864                AddBrItem(vd);
   \   000025EC   0500A0E1           MOV      R0,R5
   \   000025F0   ........           _BLF     AddBrItem,??AddBrItem??rA
    865                vd->oms_pos+=i;
   \   000025F4   440095E5           LDR      R0,[R5, #+68]
   \   000025F8   000084E0           ADD      R0,R4,R0
   \   000025FC   440085E5           STR      R0,[R5, #+68]
    866                AddEndRef(vd);
   \   00002600   0500A0E1           MOV      R0,R5
   \   00002604   ........           _BLF     AddEndRef,??AddEndRef??rA
    867                vd->oms_wanted++;
   \   00002608   480095E5           LDR      R0,[R5, #+72]
   \   0000260C   F1FCFFEA           B        ??OMS_DataArrived_31
    868                vd->parse_state=OMS_TAG_NAME;
    869                break;
    870              case OMS_STOP:
    871                return;
    872              default:
    873                sprintf(s,"StateMachine failed %u",i);
   \                     ??OMS_DataArrived_18:
   \   00002610   70109FE5           LDR      R1,??OMS_DataArrived_25+0x24  ;; `?<Constant "ZLib Err %d\\n">` + 140
   \   00002614   0420A0E1           MOV      R2,R4
   \   00002618   08008DE2           ADD      R0,SP,#+8
   \   0000261C   160000EF           SWI      +22
    874                AddTextItem(vd,s,strlen(s));
   \   00002620   08008DE2           ADD      R0,SP,#+8
   \   00002624   1B0000EF           SWI      +27
   \   00002628   0020A0E1           MOV      R2,R0
   \   0000262C   08108DE2           ADD      R1,SP,#+8
   \   00002630   0500A0E1           MOV      R0,R5
   \   00002634   ........           _BLF     AddTextItem,??AddTextItem??rA
    875                AddBrItem(vd);
   \   00002638   0500A0E1           MOV      R0,R5
   \   0000263C   ........           _BLF     AddBrItem,??AddBrItem??rA
    876                vd->parse_state=OMS_STOP;
   \   00002640   CAFCFFEA           B        ??OMS_DataArrived_6
    877                return;
    878              }
    879            }
    880            if (vd->zs)
   \                     ??OMS_DataArrived_17:
   \   00002644   000095E5           LDR      R0,[R5, #+0]
   \   00002648   000050E3           CMP      R0,#+0
   \   0000264C   0200000A           BEQ      ??OMS_DataArrived_24
    881            {
    882              if (vd->zs->avail_out==0) goto L_ZNEXT;
   \   00002650   100090E5           LDR      R0,[R0, #+16]
   \   00002654   000050E3           CMP      R0,#+0
   \   00002658   7AF6FF0A           BEQ      ??OMS_DataArrived_9
   \                     ??OMS_DataArrived_24:
   \   0000265C   90D08DE2           ADD      SP,SP,#+144      ;; stack cleaning
   \   00002660   F08FBDE8           POP      {R4-R11,PC}      ;; return
   \                     ??OMS_DataArrived_25:
   \   00002664   ........           DC32     `?<Constant "ZLib Err %d\\n">` + 48
   \   00002668   ........           DC32     zcalloc
   \   0000266C   ........           DC32     `?<Constant "ZLib Err %d\\n">` + 16
   \   00002670   ........           DC32     zcfree
   \   00002674   ........           DC32     `?<Constant "ZLib Err %d\\n">` + 24
   \   00002678   ........           DC32     `?<Constant "ZLib Err %d\\n">` + 72
   \   0000267C   ........           DC32     `?<Constant "ZLib Err %d\\n">` + 88
   \   00002680   ........           DC32     `?<Constant "ZLib Err %d\\n">` + 104
   \   00002684   ........           DC32     `?<Constant "ZLib Err %d\\n">` + 120
   \   00002688   ........           DC32     `?<Constant "ZLib Err %d\\n">` + 140
    883            }
    884          }

   \                                 In segment DATA_C, align 4, align-sorted
   \                     `?<Constant "ZLib Err %d\\n">`:
   \   00000000   5A4C69622045       DC8 "ZLib Err %d\012"
   \              72722025640A
   \              00          
   \   0000000D   000000             DC8 0, 0, 0
   \   00000010   312E322E3300       DC8 "1.2.3"
   \   00000016   0000               DC8 0, 0
   \   00000018   696E666C6174       DC8 "inflateInit2 err %d\012"
   \              65496E697432
   \              206572722025
   \              640A00      
   \   0000002D   000000             DC8 0, 0, 0
   \   00000030   4E6F74207375       DC8 "Not supported type %X\012"
   \              70706F727465
   \              642074797065
   \              2025580A00  
   \   00000047   00                 DC8 0
   \   00000048   556E6B6E6F77       DC8 "Unknown tag %c\012"
   \              6E2074616720
   \              25630A00    
   \   00000058   21496C6C6567       DC8 "!Illegal <o>!\012"
   \              616C203C6F3E
   \              210A00      
   \   00000067   00                 DC8 0
   \   00000068   4E6577204175       DC8 "New AuthCode: "
   \              7468436F6465
   \              3A2000      
   \   00000077   00                 DC8 0
   \   00000078   4E6577204175       DC8 "New AuthPrefix: "
   \              746850726566
   \              69783A2000  
   \   00000089   000000             DC8 0, 0, 0
   \   0000008C   53746174654D       DC8 "StateMachine failed %u"
   \              616368696E65
   \              206661696C65
   \              6420257500  
   \   000000A3   00                 DC8 0
    885          

   Maximum stack usage in bytes:

     Function        CSTACK
     --------        ------
     OMS_DataArrived   180
     _rbyte              0
     _rlong              0
     _rshort             0
     zcalloc             4
     zcfree              4


   Segment part sizes:

     Function/Label              Bytes
     --------------              -----
     _rbyte                        28
     _rshort                       40
     _rlong                        56
     zcalloc                       16
     zcfree                        16
     OMS_DataArrived             9868
     ?<Constant "ZLib Err %d\n">  164
      Others                      248

 
 10 272 bytes in segment CODE
    164 bytes in segment DATA_C
 
 9 996 bytes of CODE  memory (+ 276 bytes shared)
   164 bytes of CONST memory

Errors: none
Warnings: none
