##############################################################################
#                                                                            #
# IAR ARM ANSI C/C++ Compiler V4.41A/W32 EVALUATION    26/Feb/2008  15:03:45 #
# Copyright 1999-2005 IAR Systems. All rights reserved.                      #
#                                                                            #
#    Cpu mode        =  interwork                                            #
#    Endian          =  little                                               #
#    Stack alignment =  4                                                    #
#    Source file     =  D:\Pasha\elf\mod_src\naticq_2nd_mod to               #
#                       all(17.02.08)\cl_work.c                              #
#    Command line    =  "D:\Pasha\elf\mod_src\naticq_2nd_mod to              #
#                       all(17.02.08)\cl_work.c" -D NEWSGOLD -D ELKA         #
#                       --preprocess "D:\Pasha\elf\mod_src\naticq_2nd_mod    #
#                       to all(17.02.08)\Release_ELKA\List\" -lC             #
#                       "D:\Pasha\elf\mod_src\naticq_2nd_mod to              #
#                       all(17.02.08)\Release_ELKA\List\" -o                 #
#                       "D:\Pasha\elf\mod_src\naticq_2nd_mod to              #
#                       all(17.02.08)\Release_ELKA\Obj\" -s9 --no_unroll     #
#                       --cpu_mode arm --endian little --cpu ARM926EJ-S      #
#                       --stack_align 4 --interwork -e --fpu None            #
#                       --dlib_config "D:\Pasha\ARM_Embedded_Workbench\Embed #
#                       ded Workbench 4.0 Evaluation\ARM\LIB\dl5tpainl8n.h"  #
#                       -I "D:\Pasha\ARM_Embedded_Workbench\Embedded         #
#                       Workbench 4.0 Evaluation\ARM\INC\"                   #
#                       --inline_threshold=2                                 #
#    List file       =  D:\Pasha\elf\mod_src\naticq_2nd_mod to               #
#                       all(17.02.08)\Release_ELKA\List\cl_work.lst          #
#    Object file     =  D:\Pasha\elf\mod_src\naticq_2nd_mod to               #
#                       all(17.02.08)\Release_ELKA\Obj\cl_work.r79           #
#                                                                            #
#                                                                            #
##############################################################################

D:\Pasha\elf\mod_src\naticq_2nd_mod to all(17.02.08)\cl_work.c
      1          #include "../inc/swilib.h"
      2          #include "NatICQ.h"
      3          #include "strings.h"
      4          #include "main.h"
      5          #include "cl_work.h"
      6          
      7          
      8          extern volatile unsigned int GROUP_CACHE; //Текущая группа для добавления
      9          extern volatile CLIST *cltop;
     10          extern int Is_Show_Groups;
     11          extern char ContactT9Key[32];
     12          extern int Is_Show_Offline;
     13          extern int IsActiveUp;
     14          
     15          extern const unsigned int UIN;
     16          

   \                                 In segment CODE, align 4, keep-with-next
     17          void FreeXText(CLIST *t)
     18          {
   \                     FreeXText:
   \   00000000   10402DE9           PUSH     {R4,LR}
   \   00000004   0040A0E1           MOV      R4,R0
     19            if (t->xtext) {mfree(t->xtext);t->xtext=NULL;}
   \   00000008   840094E5           LDR      R0,[R4, #+132]
   \   0000000C   000050E3           CMP      R0,#+0
   \   00000010   1080BD08           POPEQ    {R4,PC}
   \   00000014   150000EF           SWI      +21
   \   00000018   0000A0E3           MOV      R0,#+0
   \   0000001C   840084E5           STR      R0,[R4, #+132]
     20          }
   \   00000020   1080BDE8           POP      {R4,PC}          ;; return
     21          
     22          //Уничтожить список

   \                                 In segment CODE, align 4, keep-with-next
     23          void FreeCLIST(void)
     24          {
     25            CLIST *cl=(CLIST*)cltop;
   \                     FreeCLIST:
   \   00000000   ........           LDR      R0,??DataTable13  ;; cltop
   \   00000004   10402DE9           PUSH     {R4,LR}
   \   00000008   004090E5           LDR      R4,[R0, #+0]
     26            cltop=0;
   \   0000000C   0010A0E3           MOV      R1,#+0
   \   00000010   001080E5           STR      R1,[R0, #+0]
   \   00000014   000054E3           CMP      R4,#+0
   \   00000018   1080BD08           POPEQ    {R4,PC}
     27            while(cl)
     28            {
     29              CLIST *p;
     30              if (cl->log) FreeLOGQ(&cl->log);
   \                     ??FreeCLIST_0:
   \   0000001C   700094E5           LDR      R0,[R4, #+112]
   \   00000020   000050E3           CMP      R0,#+0
   \   00000024   0100000A           BEQ      ??FreeCLIST_1
   \   00000028   700084E2           ADD      R0,R4,#+112
   \   0000002C   ........           _BLF     FreeLOGQ,??FreeLOGQ??rA
     31              if (cl->answer) mfree(cl->answer);
   \                     ??FreeCLIST_1:
   \   00000030   740094E5           LDR      R0,[R4, #+116]
   \   00000034   000050E3           CMP      R0,#+0
   \   00000038   0000000A           BEQ      ??FreeCLIST_2
   \   0000003C   150000EF           SWI      +21
     32              if (cl->xtext) mfree(cl->xtext);
   \                     ??FreeCLIST_2:
   \   00000040   840094E5           LDR      R0,[R4, #+132]
   \   00000044   000050E3           CMP      R0,#+0
   \   00000048   0000000A           BEQ      ??FreeCLIST_3
   \   0000004C   150000EF           SWI      +21
     33              p=cl;
   \                     ??FreeCLIST_3:
   \   00000050   0400A0E1           MOV      R0,R4
     34              cl=(CLIST*)(cl->next);
   \   00000054   004094E5           LDR      R4,[R4, #+0]
     35              mfree(p);
   \   00000058   150000EF           SWI      +21
     36            }
   \   0000005C   000054E3           CMP      R4,#+0
   \   00000060   EDFFFF1A           BNE      ??FreeCLIST_0
     37          }
   \   00000064   1080BDE8           POP      {R4,PC}          ;; return
     38          
     39          //Прописать всех в offline

   \                                 In segment CODE, align 4, keep-with-next
     40          void FillAllOffline(void)
     41          {
     42            CLIST *cl=(CLIST*)cltop;
   \                     FillAllOffline:
   \   00000000   ........           LDR      R0,??DataTable13  ;; cltop
   \   00000004   70402DE9           PUSH     {R4-R6,LR}
   \   00000008   004090E5           LDR      R4,[R0, #+0]
   \   0000000C   000054E3           CMP      R4,#+0
   \   00000010   7080BD08           POPEQ    {R4-R6,PC}
   \   00000014   FF50A0E3           MOV      R5,#+255
   \   00000018   FF5C85E3           ORR      R5,R5,#0xFF00
     43            while(cl)
     44            {
     45              if (!cl->isgroup)
   \                     ??FillAllOffline_0:
   \   0000001C   080094E5           LDR      R0,[R4, #+8]
   \   00000020   000050E3           CMP      R0,#+0
   \   00000024   0800001A           BNE      ??FillAllOffline_1
     46              {
     47                LOGQ *lp=cl->log;
   \   00000028   701094E5           LDR      R1,[R4, #+112]
   \   0000002C   000051E3           CMP      R1,#+0
   \   00000030   0500000A           BEQ      ??FillAllOffline_1
     48                while(lp)
     49                {
     50          	lp->ID|=0x18000;
   \                     ??FillAllOffline_2:
   \   00000034   082091E5           LDR      R2,[R1, #+8]
   \   00000038   602B82E3           ORR      R2,R2,#0x18000
   \   0000003C   082081E5           STR      R2,[R1, #+8]
     51          	lp=lp->next;
   \   00000040   001091E5           LDR      R1,[R1, #+0]
     52                }
   \   00000044   000051E3           CMP      R1,#+0
   \   00000048   F9FFFF1A           BNE      ??FillAllOffline_2
     53              }
     54              if ((cl->state!=0xFFFF)&&
     55          	(!cl->isgroup))     //by BoBa 2.05.2007
   \                     ??FillAllOffline_1:
   \   0000004C   B415D4E1           LDRH     R1,[R4, #+84]
   \   00000050   050051E1           CMP      R1,R5
   \   00000054   0900000A           BEQ      ??FillAllOffline_3
   \   00000058   000050E3           CMP      R0,#+0
   \   0000005C   0700001A           BNE      ??FillAllOffline_3
     56              {
     57                CLIST *p=cl;
   \   00000060   0460A0E1           MOV      R6,R4
     58                p->state=0xFFFF;
   \   00000064   B455C6E1           STRH     R5,[R6, #+84]
     59                FreeXText(p);
   \   00000068   0600A0E1           MOV      R0,R6
   \   0000006C   ........           BL       FreeXText
     60                cl=cl->next;
   \   00000070   004094E5           LDR      R4,[R4, #+0]
     61                ChangeContactPos(p);
   \   00000074   0600A0E1           MOV      R0,R6
   \   00000078   ........           BL       ChangeContactPos
     62                continue;
   \   0000007C   000000EA           B        ??FillAllOffline_4
     63              }
     64              cl=(CLIST*)(cl->next);
   \                     ??FillAllOffline_3:
   \   00000080   004094E5           LDR      R4,[R4, #+0]
     65            }
   \                     ??FillAllOffline_4:
   \   00000084   000054E3           CMP      R4,#+0
   \   00000088   E3FFFF1A           BNE      ??FillAllOffline_0
     66          }
   \   0000008C   7080BDE8           POP      {R4-R6,PC}       ;; return
     67          
     68          

   \                                 In segment CODE, align 4, keep-with-next
     69          CLIST *FindContactByUin(unsigned int uin)
     70          {
     71            CLIST *t;
     72            t=(CLIST *)cltop;
   \                     FindContactByUin:
   \   00000000   ........           LDR      R1,??DataTable13  ;; cltop
     73            while(t)
     74            {
     75              if ((t->uin==uin)&&(!t->isgroup)) break;
     76              t=t->next;
   \                     ??FindContactByUin_0:
   \   00000004   001091E5           LDR      R1,[R1, #+0]
   \   00000008   000051E3           CMP      R1,#+0
   \   0000000C   0400000A           BEQ      ??FindContactByUin_1
   \   00000010   0C2091E5           LDR      R2,[R1, #+12]
   \   00000014   000052E1           CMP      R2,R0
   \   00000018   08209105           LDREQ    R2,[R1, #+8]
   \   0000001C   00005203           CMPEQ    R2,#+0
   \   00000020   F7FFFF1A           BNE      ??FindContactByUin_0
     77            }
     78            return(t);
   \                     ??FindContactByUin_1:
   \   00000024   0100A0E1           MOV      R0,R1
   \   00000028   1EFF2FE1           BX       LR               ;; return
     79          }
     80          

   \                                 In segment CODE, align 4, keep-with-next
     81          CLIST *FindGroupByID(unsigned int grp)
     82          {
     83            CLIST *t;
     84            t=(CLIST *)cltop;
   \                     FindGroupByID:
   \   00000000   ........           LDR      R1,??DataTable13  ;; cltop
     85            while(t)
     86            {
     87              if ((t->group==grp)&&(t->isgroup)) break;
     88              t=t->next;
   \                     ??FindGroupByID_0:
   \   00000004   001091E5           LDR      R1,[R1, #+0]
   \   00000008   000051E3           CMP      R1,#+0
   \   0000000C   0500000A           BEQ      ??FindGroupByID_1
   \   00000010   102091E5           LDR      R2,[R1, #+16]
   \   00000014   000052E1           CMP      R2,R0
   \   00000018   F9FFFF1A           BNE      ??FindGroupByID_0
   \   0000001C   082091E5           LDR      R2,[R1, #+8]
   \   00000020   000052E3           CMP      R2,#+0
   \   00000024   F6FFFF0A           BEQ      ??FindGroupByID_0
     89            }
     90            return(t);
   \                     ??FindGroupByID_1:
   \   00000028   0100A0E1           MOV      R0,R1
   \   0000002C   1EFF2FE1           BX       LR               ;; return
     91          }
     92          
     93          //Ключи для поиска по T9

   \                                 In segment DATA_C, align 4, align-sorted
     94          static const char table_T9Key[256]=
   \                     table_T9Key:
   \   00000000   313131313131       DC8 31H, 31H, 31H, 31H, 31H, 31H, 31H, 31H
   \              3131        
   \   00000008   313131313131       DC8 31H, 31H, 31H, 31H, 31H, 31H, 31H, 31H
   \              3131        
   \   00000010   313131313131       DC8 31H, 31H, 31H, 31H, 31H, 31H, 31H, 31H
   \              3131        
   \   00000018   313131313131       DC8 31H, 31H, 31H, 31H, 31H, 31H, 31H, 31H
   \              3131        
   \   00000020   31303030312A       DC8 31H, 30H, 30H, 30H, 31H, 2AH, 2AH, 30H
   \              2A30        
   \   00000028   2A2A2A303030       DC8 2AH, 2AH, 2AH, 30H, 30H, 30H, 30H, 2AH
   \              302A        
   \   00000030   303132333435       DC8 30H, 31H, 32H, 33H, 34H, 35H, 36H, 37H
   \              3637        
   \   00000038   383930302A2A       DC8 38H, 39H, 30H, 30H, 2AH, 2AH, 2AH, 30H
   \              2A30        
   \   00000040   303232323333       DC8 30H, 32H, 32H, 32H, 33H, 33H, 33H, 34H
   \              3334        
   \   00000048   343435353536       DC8 34H, 34H, 35H, 35H, 35H, 36H, 36H, 36H
   \              3636        
   \   00000050   373737373838       DC8 37H, 37H, 37H, 37H, 38H, 38H, 38H, 39H
   \              3839        
   \   00000058   393939312A31       DC8 39H, 39H, 39H, 31H, 2AH, 31H, 31H, 30H
   \              3130        
   \   00000060   313232323333       DC8 31H, 32H, 32H, 32H, 33H, 33H, 33H, 34H
   \              3334        
   \   00000068   343435353536       DC8 34H, 34H, 35H, 35H, 35H, 36H, 36H, 36H
   \              3636        
   \   00000070   373737373838       DC8 37H, 37H, 37H, 37H, 38H, 38H, 38H, 39H
   \              3839        
   \   00000078   393939313131       DC8 39H, 39H, 39H, 31H, 31H, 31H, 2AH, 31H
   \              2A31        
   \   00000080   313131313131       DC8 31H, 31H, 31H, 31H, 31H, 31H, 31H, 31H
   \              3131        
   \   00000088   313131313131       DC8 31H, 31H, 31H, 31H, 31H, 31H, 31H, 31H
   \              3131        
   \   00000090   313131313131       DC8 31H, 31H, 31H, 31H, 31H, 31H, 31H, 31H
   \              3131        
   \   00000098   313131313131       DC8 31H, 31H, 31H, 31H, 31H, 31H, 31H, 31H
   \              3131        
   \   000000A0   313131313131       DC8 31H, 31H, 31H, 31H, 31H, 31H, 31H, 31H
   \              3131        
   \   000000A8   333131313131       DC8 33H, 31H, 31H, 31H, 31H, 31H, 31H, 31H
   \              3131        
   \   000000B0   313131313131       DC8 31H, 31H, 31H, 31H, 31H, 31H, 31H, 31H
   \              3131        
   \   000000B8   333131313131       DC8 33H, 31H, 31H, 31H, 31H, 31H, 31H, 31H
   \              3131        
   \   000000C0   323232323333       DC8 32H, 32H, 32H, 32H, 33H, 33H, 33H, 33H
   \              3333        
   \   000000C8   343434343535       DC8 34H, 34H, 34H, 34H, 35H, 35H, 35H, 36H
   \              3536        
   \   000000D0   363637373737       DC8 36H, 36H, 37H, 37H, 37H, 37H, 38H, 38H
   \              3838        
   \   000000D8   383838393939       DC8 38H, 38H, 38H, 39H, 39H, 39H, 39H, 39H
   \              3939        
   \   000000E0   323232323333       DC8 32H, 32H, 32H, 32H, 33H, 33H, 33H, 33H
   \              3333        
   \   000000E8   343434343535       DC8 34H, 34H, 34H, 34H, 35H, 35H, 35H, 36H
   \              3536        
   \   000000F0   363637373737       DC8 36H, 36H, 37H, 37H, 37H, 37H, 38H, 38H
   \              3838        
   \   000000F8   383838393939       DC8 38H, 38H, 38H, 39H, 39H, 39H, 39H, 39H
   \              3939        
     95          "11111111111111111111111111111111"
     96          "10001**0***0000*012345678900***0"
     97          "0222333444555666777788899991*110"
     98          "122233344455566677778889999111*1"
     99          "11111111111111111111111111111111"
    100          "11111111311111111111111131111111"
    101          "22223333444455566677778888899999"
    102          "22223333444455566677778888899999";
    103          
    104          

   \                                 In segment CODE, align 4, keep-with-next
    105          CLIST *FindContactByNS(int *i, int si, int act_flag, CLIST *search_contact)
    106          {
   \                     FindContactByNS:
   \   00000000   F0472DE9           PUSH     {R4-R10,LR}
   \   00000004   0040A0E1           MOV      R4,R0
    107            CLIST *t;
    108            t=(CLIST *)cltop;
   \   00000008   ........           LDR      R0,??DataTable13  ;; cltop
   \   0000000C   0150A0E1           MOV      R5,R1
   \   00000010   008090E5           LDR      R8,[R0, #+0]
   \   00000014   0260A0E1           MOV      R6,R2
   \   00000018   0370A0E1           MOV      R7,R3
    109            char *s;
    110            char *d;
    111            int c;
    112            int grp_id=0;
   \   0000001C   0090A0E3           MOV      R9,#+0
    113            int grp_dis=0;
   \   00000020   00A0A0E3           MOV      R10,#+0
   \   00000024   050000EA           B        ??FindContactByNS_0
    114            while(t)
    115            {
    116              if (t->isgroup)
    117              {
    118                grp_id=t->group;
    119                grp_dis=t->state;
    120              }
    121              if (act_flag<2)
    122              {
    123                if ((act_flag)&&(!t->isactive)) goto L_NOT9;
    124                if ((!act_flag)&&(t->isactive)) goto L_NOT9;
    125              }
    126              if ((si==IS_ANY)||(GetIconIndex(t)==si))
    127              {
    128                s=ContactT9Key;
    129                if ((!Is_Show_Groups)&&(t->isgroup)) goto L_NOT9;
    130                
    131                if ((!t->isgroup)&&(t->group==grp_id)&&(grp_dis)&&(!(*s))) goto L_NOT9;
    132                
    133                if (!Is_Show_Offline) // by Seklth 13.06.2007
    134                  if ((!t->isgroup)&&(!t->isactive)&&(t->state==0xFFFF)&&(t->uin!=UIN)&&(!(*s))) 
    135                    if (!t->isunread) goto L_NOT9;
    136                
    137                d=t->name;
    138                while(c=*s++)
    139                {
    140          	if (c!=table_T9Key[*d++]) goto L_NOT9;
    141                }
    142                if (search_contact==t) return t; //Нашли контакт по адресу
    143                if (!(*i)) return(t);
   \                     ??FindContactByNS_1:
   \   00000028   000094E5           LDR      R0,[R4, #+0]
   \   0000002C   000050E3           CMP      R0,#+0
   \   00000030   5100000A           BEQ      ??FindContactByNS_2
    144                (*i)--;
   \   00000034   010040E2           SUB      R0,R0,#+1
   \   00000038   000084E5           STR      R0,[R4, #+0]
    145              }
    146            L_NOT9:
    147              t=t->next;
   \                     ??FindContactByNS_3:
   \   0000003C   008098E5           LDR      R8,[R8, #+0]
   \                     ??FindContactByNS_0:
   \   00000040   000058E3           CMP      R8,#+0
   \   00000044   4E00000A           BEQ      ??FindContactByNS_4
   \   00000048   080098E5           LDR      R0,[R8, #+8]
   \   0000004C   000050E3           CMP      R0,#+0
   \   00000050   10909815           LDRNE    R9,[R8, #+16]
   \   00000054   B4A5D811           LDRHNE   R10,[R8, #+84]
   \   00000058   020056E3           CMP      R6,#+2
   \   0000005C   070000AA           BGE      ??FindContactByNS_5
   \   00000060   7C0098E5           LDR      R0,[R8, #+124]
   \   00000064   000056E3           CMP      R6,#+0
   \   00000068   0200000A           BEQ      ??FindContactByNS_6
   \   0000006C   000050E3           CMP      R0,#+0
   \   00000070   0200001A           BNE      ??FindContactByNS_5
   \   00000074   F0FFFFEA           B        ??FindContactByNS_3
   \                     ??FindContactByNS_6:
   \   00000078   000050E3           CMP      R0,#+0
   \   0000007C   EEFFFF1A           BNE      ??FindContactByNS_3
   \                     ??FindContactByNS_5:
   \   00000080   010075E3           CMN      R5,#+1
   \   00000084   0300000A           BEQ      ??FindContactByNS_7
   \   00000088   0800A0E1           MOV      R0,R8
   \   0000008C   ........           _BLF     GetIconIndex,??GetIconIndex??rA
   \   00000090   050050E1           CMP      R0,R5
   \   00000094   E8FFFF1A           BNE      ??FindContactByNS_3
   \                     ??FindContactByNS_7:
   \   00000098   ........           LDR      R2,??DataTable12  ;; Is_Show_Groups
   \   0000009C   E8109FE5           LDR      R1,??FindContactByNS_8  ;; ContactT9Key
   \   000000A0   002092E5           LDR      R2,[R2, #+0]
   \   000000A4   0100A0E1           MOV      R0,R1
   \   000000A8   000052E3           CMP      R2,#+0
   \   000000AC   0200001A           BNE      ??FindContactByNS_9
   \   000000B0   082098E5           LDR      R2,[R8, #+8]
   \   000000B4   000052E3           CMP      R2,#+0
   \   000000B8   DFFFFF1A           BNE      ??FindContactByNS_3
   \                     ??FindContactByNS_9:
   \   000000BC   082098E5           LDR      R2,[R8, #+8]
   \   000000C0   0010D1E5           LDRB     R1,[R1, #+0]
   \   000000C4   000052E3           CMP      R2,#+0
   \   000000C8   10209805           LDREQ    R2,[R8, #+16]
   \   000000CC   09005201           CMPEQ    R2,R9
   \   000000D0   0300001A           BNE      ??FindContactByNS_10
   \   000000D4   00005AE3           CMP      R10,#+0
   \   000000D8   0100000A           BEQ      ??FindContactByNS_10
   \   000000DC   000051E3           CMP      R1,#+0
   \   000000E0   D5FFFF0A           BEQ      ??FindContactByNS_3
   \                     ??FindContactByNS_10:
   \   000000E4   A4209FE5           LDR      R2,??FindContactByNS_8+0x4  ;; Is_Show_Offline
   \   000000E8   002092E5           LDR      R2,[R2, #+0]
   \   000000EC   000052E3           CMP      R2,#+0
   \   000000F0   08209805           LDREQ    R2,[R8, #+8]
   \   000000F4   00005203           CMPEQ    R2,#+0
   \   000000F8   7C209805           LDREQ    R2,[R8, #+124]
   \   000000FC   00005203           CMPEQ    R2,#+0
   \   00000100   0D00001A           BNE      ??FindContactByNS_11
   \   00000104   B425D8E1           LDRH     R2,[R8, #+84]
   \   00000108   FF30A0E3           MOV      R3,#+255
   \   0000010C   FF3C83E3           ORR      R3,R3,#0xFF00
   \   00000110   030052E1           CMP      R2,R3
   \   00000114   0800001A           BNE      ??FindContactByNS_11
   \   00000118   74309FE5           LDR      R3,??FindContactByNS_8+0x8  ;; UIN
   \   0000011C   0C2098E5           LDR      R2,[R8, #+12]
   \   00000120   003093E5           LDR      R3,[R3, #+0]
   \   00000124   030052E1           CMP      R2,R3
   \   00000128   0300000A           BEQ      ??FindContactByNS_11
   \   0000012C   000051E3           CMP      R1,#+0
   \   00000130   58109805           LDREQ    R1,[R8, #+88]
   \   00000134   00005103           CMPEQ    R1,#+0
   \   00000138   BFFFFF0A           BEQ      ??FindContactByNS_3
   \                     ??FindContactByNS_11:
   \   0000013C   142088E2           ADD      R2,R8,#+20
   \   00000140   013082E2           ADD      R3,R2,#+1
   \   00000144   070000EA           B        ??FindContactByNS_12
   \                     ??FindContactByNS_13:
   \   00000148   48E09FE5           LDR      LR,??FindContactByNS_8+0xC  ;; table_T9Key
   \   0000014C   02C0A0E1           MOV      R12,R2
   \   00000150   00C0DCE5           LDRB     R12,[R12, #+0]
   \   00000154   0320A0E1           MOV      R2,R3
   \   00000158   013083E2           ADD      R3,R3,#+1
   \   0000015C   0EC0DCE7           LDRB     R12,[R12, +LR]
   \   00000160   0C0051E1           CMP      R1,R12
   \   00000164   B4FFFF1A           BNE      ??FindContactByNS_3
   \                     ??FindContactByNS_12:
   \   00000168   ........           LDRB     R1,[R0], #+1
   \   0000016C   000051E3           CMP      R1,#+0
   \   00000170   F4FFFF1A           BNE      ??FindContactByNS_13
   \   00000174   080057E1           CMP      R7,R8
   \   00000178   AAFFFF1A           BNE      ??FindContactByNS_1
   \                     ??FindContactByNS_2:
   \   0000017C   0800A0E1           MOV      R0,R8
   \   00000180   F087BDE8           POP      {R4-R10,PC}
    148            }
    149            return(t);
   \                     ??FindContactByNS_4:
   \   00000184   0000A0E3           MOV      R0,#+0
   \   00000188   F087BDE8           POP      {R4-R10,PC}      ;; return
   \                     ??FindContactByNS_8:
   \   0000018C   ........           DC32     ContactT9Key
   \   00000190   ........           DC32     Is_Show_Offline
   \   00000194   ........           DC32     UIN
   \   00000198   ........           DC32     table_T9Key
    150          }
    151          
    152          

   \                                 In segment CODE, align 4, keep-with-next
    153          int CountContacts(void)
    154          {
   \                     CountContacts:
   \   00000000   00402DE9           PUSH     {LR}
   \   00000004   04D04DE2           SUB      SP,SP,#+4
    155            int l=-1;
   \   00000008   0010E0E3           MVN      R1,#+0
   \   0000000C   00108DE5           STR      R1,[SP, #+0]
    156            FindContactByNS(&l,IS_ANY,2,NULL);
   \   00000010   0030A0E3           MOV      R3,#+0
   \   00000014   0220A0E3           MOV      R2,#+2
   \   00000018   0D00A0E1           MOV      R0,SP
   \   0000001C   ........           BL       FindContactByNS
    157            l=-1-l;
    158            return l;
   \   00000020   00109DE5           LDR      R1,[SP, #+0]
   \   00000024   0000E0E3           MVN      R0,#+0
   \   00000028   010040E0           SUB      R0,R0,R1
   \   0000002C   0280BDE8           POP      {R1,PC}          ;; return
    159          }
    160          

   \                                 In segment CODE, align 4, keep-with-next
    161          CLIST *FindContactByN(int i)
    162          {
   \                     FindContactByN:
   \   00000000   01402DE9           PUSH     {R0,LR}
    163            CLIST *t;
    164            int f=IsActiveUp;
    165            if (f)
   \   00000004   ........           LDR      R0,??DataTable7  ;; IsActiveUp
   \   00000008   000090E5           LDR      R0,[R0, #+0]
   \   0000000C   000050E3           CMP      R0,#+0
   \   00000010   0B00000A           BEQ      ??FindContactByN_0
    166            {
    167              t=FindContactByNS(&i,IS_ANY,1,NULL); if ((!i)&&(t)) return (t);
   \   00000014   0030A0E3           MOV      R3,#+0
   \   00000018   0120A0E3           MOV      R2,#+1
   \   0000001C   001062E2           RSB      R1,R2,#+0
   \   00000020   0D00A0E1           MOV      R0,SP
   \   00000024   ........           BL       FindContactByNS
   \   00000028   00109DE5           LDR      R1,[SP, #+0]
   \   0000002C   000051E3           CMP      R1,#+0
   \   00000030   0100001A           BNE      ??FindContactByN_1
   \   00000034   000050E3           CMP      R0,#+0
   \   00000038   0280BD18           POPNE    {R1,PC}
    168              f=0;
   \                     ??FindContactByN_1:
   \   0000003C   0020A0E3           MOV      R2,#+0
   \   00000040   000000EA           B        ??FindContactByN_2
    169            }
    170            else f=2;
   \                     ??FindContactByN_0:
   \   00000044   0220A0E3           MOV      R2,#+2
    171            t=FindContactByNS(&i,IS_ANY,f,NULL);
    172            return t;
   \                     ??FindContactByN_2:
   \   00000048   0030A0E3           MOV      R3,#+0
   \   0000004C   0310E0E1           MVN      R1,R3
   \   00000050   0D00A0E1           MOV      R0,SP
   \   00000054   ........           BL       FindContactByNS
   \   00000058   0280BDE8           POP      {R1,PC}          ;; return
    173          }
    174          

   \                                 In segment CODE, align 4, keep-with-next
    175          int FindContactByContact(CLIST *p)
    176          {
   \                     FindContactByContact:
   \   00000000   10402DE9           PUSH     {R4,LR}
   \   00000004   04D04DE2           SUB      SP,SP,#+4
    177            int l=-1;
   \   00000008   0010E0E3           MVN      R1,#+0
   \   0000000C   0040A0E1           MOV      R4,R0
    178            //  CLIST *t;
    179            int f=IsActiveUp;
    180            if (f)
   \   00000010   ........           LDR      R0,??DataTable7  ;; IsActiveUp
   \   00000014   00108DE5           STR      R1,[SP, #+0]
   \   00000018   000090E5           LDR      R0,[R0, #+0]
   \   0000001C   000050E3           CMP      R0,#+0
   \   00000020   0700000A           BEQ      ??FindContactByContact_0
    181            {
    182              if (FindContactByNS(&l,IS_ANY,1,p)) return -1-l;
   \   00000024   0430A0E1           MOV      R3,R4
   \   00000028   0120A0E3           MOV      R2,#+1
   \   0000002C   0D00A0E1           MOV      R0,SP
   \   00000030   ........           BL       FindContactByNS
   \   00000034   000050E3           CMP      R0,#+0
   \   00000038   0600001A           BNE      ??FindContactByContact_1
    183              f=0;
   \   0000003C   0020A0E3           MOV      R2,#+0
   \   00000040   000000EA           B        ??FindContactByContact_2
    184            }
    185            else f=2;
   \                     ??FindContactByContact_0:
   \   00000044   0220A0E3           MOV      R2,#+2
    186            FindContactByNS(&l,IS_ANY,f,p);
   \                     ??FindContactByContact_2:
   \   00000048   0430A0E1           MOV      R3,R4
   \   0000004C   0010E0E3           MVN      R1,#+0
   \   00000050   0D00A0E1           MOV      R0,SP
   \   00000054   ........           BL       FindContactByNS
    187            return -1-l;
   \                     ??FindContactByContact_1:
   \   00000058   00109DE5           LDR      R1,[SP, #+0]
   \   0000005C   0000E0E3           MVN      R0,#+0
   \   00000060   010040E0           SUB      R0,R0,R1
   \   00000064   1280BDE8           POP      {R1,R4,PC}       ;; return
    188          }
    189          

   \                                 In segment CODE, align 4, keep-with-next
    190          void SwapContacts(CLIST *first, CLIST *second)
    191          {
    192            CLIST *tp;
    193            if ((tp=second->next)) tp->prev=first;
   \                     SwapContacts:
   \   00000000   002091E5           LDR      R2,[R1, #+0]
   \   00000004   000052E3           CMP      R2,#+0
   \   00000008   04008215           STRNE    R0,[R2, #+4]
    194            if ((tp=first->prev)) tp->next=second;
   \   0000000C   042090E5           LDR      R2,[R0, #+4]
   \   00000010   000052E3           CMP      R2,#+0
   \   00000014   00108215           STRNE    R1,[R2, #+0]
    195            first->next=second->next;
   \   00000018   002091E5           LDR      R2,[R1, #+0]
   \   0000001C   002080E5           STR      R2,[R0, #+0]
    196            second->next=first;
   \   00000020   000081E5           STR      R0,[R1, #+0]
    197            second->prev=first->prev;
   \   00000024   042090E5           LDR      R2,[R0, #+4]
   \   00000028   042081E5           STR      R2,[R1, #+4]
    198            first->prev=second;
   \   0000002C   041080E5           STR      R1,[R0, #+4]
    199          }
   \   00000030   1EFF2FE1           BX       LR               ;; return
    200          

   \                                 In segment CODE, align 4, keep-with-next
    201          void ChangeContactPos(CLIST *p)
    202          {
   \                     ChangeContactPos:
   \   00000000   30402DE9           PUSH     {R4,R5,LR}
   \   00000004   0040A0E1           MOV      R4,R0
    203            CLIST *t;
    204            if ((t=p->prev))
   \   00000008   045094E5           LDR      R5,[R4, #+4]
   \   0000000C   000055E3           CMP      R5,#+0
   \   00000010   0B00000A           BEQ      ??ChangeContactPos_0
   \   00000014   050000EA           B        ??ChangeContactPos_1
    205            {
    206              //Проверяем, не надо ли всплывать
    207              while(CompareContacts(t,p)>0)
    208              {
    209                //Всплываем вверх списка
    210                SwapContacts(t,p);
   \                     ??ChangeContactPos_2:
   \   00000018   0410A0E1           MOV      R1,R4
   \   0000001C   0500A0E1           MOV      R0,R5
   \   00000020   ........           BL       SwapContacts
    211                if (!(t=p->prev)) return; //Всплыли
   \   00000024   045094E5           LDR      R5,[R4, #+4]
   \   00000028   000055E3           CMP      R5,#+0
   \   0000002C   3080BD08           POPEQ    {R4,R5,PC}
    212              }
   \                     ??ChangeContactPos_1:
   \   00000030   0410A0E1           MOV      R1,R4
   \   00000034   0500A0E1           MOV      R0,R5
   \   00000038   ........           BL       CompareContacts
   \   0000003C   010050E3           CMP      R0,#+1
   \   00000040   F4FFFFAA           BGE      ??ChangeContactPos_2
    213            }
    214            if ((t=p->next))
   \                     ??ChangeContactPos_0:
   \   00000044   005094E5           LDR      R5,[R4, #+0]
   \   00000048   000055E3           CMP      R5,#+0
   \   0000004C   3080BD08           POPEQ    {R4,R5,PC}
    215            {
    216              //Проверяем, не надо ли углубляться
    217              while(CompareContacts(p,t)>0)
   \                     ??ChangeContactPos_3:
   \   00000050   0510A0E1           MOV      R1,R5
   \   00000054   0400A0E1           MOV      R0,R4
   \   00000058   ........           BL       CompareContacts
   \   0000005C   010050E3           CMP      R0,#+1
   \   00000060   3080BDB8           POPLT    {R4,R5,PC}
    218              {
    219                SwapContacts(p,t);
   \   00000064   0510A0E1           MOV      R1,R5
   \   00000068   0400A0E1           MOV      R0,R4
   \   0000006C   ........           BL       SwapContacts
    220                if (!(t=p->next)) return; //Углубились нах ;)
   \   00000070   005094E5           LDR      R5,[R4, #+0]
   \   00000074   000055E3           CMP      R5,#+0
   \   00000078   F4FFFF1A           BNE      ??ChangeContactPos_3
   \   0000007C   3080BDE8           POP      {R4,R5,PC}       ;; return
    221              }
    222            }
    223          }
    224          

   \                                 In segment CODE, align 4, keep-with-next
    225          int CompareContacts(CLIST *t, CLIST *p)
    226          {
   \                     CompareContacts:
   \   00000000   70402DE9           PUSH     {R4-R6,LR}
   \   00000004   0040A0E1           MOV      R4,R0
    227            int c;
    228            if (Is_Show_Groups)
   \   00000008   ........           LDR      R0,??DataTable12  ;; Is_Show_Groups
   \   0000000C   0150A0E1           MOV      R5,R1
   \   00000010   000090E5           LDR      R0,[R0, #+0]
   \   00000014   000050E3           CMP      R0,#+0
   \   00000018   0300000A           BEQ      ??CompareContacts_0
    229            {
    230              if ((c=p->group-t->group))
   \   0000001C   100095E5           LDR      R0,[R5, #+16]
   \   00000020   101094E5           LDR      R1,[R4, #+16]
   \   00000024   010050E0           SUBS     R0,R0,R1
    231              {
    232                return(c);
   \   00000028   7080BD18           POPNE    {R4-R6,PC}
    233              }
    234            }
    235            
    236            extern const int SORT_CLIST;
    237            int ip=GetIconIndex(p);
   \                     ??CompareContacts_0:
   \   0000002C   0500A0E1           MOV      R0,R5
   \   00000030   ........           _BLF     GetIconIndex,??GetIconIndex??rA
   \   00000034   0060A0E1           MOV      R6,R0
    238            int it=GetIconIndex(t);
   \   00000038   0400A0E1           MOV      R0,R4
   \   0000003C   ........           _BLF     GetIconIndex,??GetIconIndex??rA
    239            switch (SORT_CLIST)
   \   00000040   4C109FE5           LDR      R1,??CompareContacts_1  ;; SORT_CLIST
   \   00000044   001091E5           LDR      R1,[R1, #+0]
   \   00000048   000051E3           CMP      R1,#+0
   \   0000004C   0200000A           BEQ      ??CompareContacts_2
   \   00000050   011051E2           SUBS     R1,R1,#+1
   \   00000054   0800000A           BEQ      ??CompareContacts_3
   \   00000058   090000EA           B        ??CompareContacts_4
    240            {
    241            case 0: // by name
    242              if ((ip>IS_OFFLINE)&&(ip<IS_MSG)&&
    243          	(it>IS_OFFLINE)&&(it<IS_MSG)) break;
   \                     ??CompareContacts_2:
   \   0000005C   000056E3           CMP      R6,#+0
   \   00000060   0500000A           BEQ      ??CompareContacts_3
   \   00000064   0D0056E3           CMP      R6,#+13
   \   00000068   0300002A           BCS      ??CompareContacts_3
   \   0000006C   000050E3           CMP      R0,#+0
   \   00000070   0100000A           BEQ      ??CompareContacts_3
   \   00000074   0D0050E3           CMP      R0,#+13
   \   00000078   0100003A           BCC      ??CompareContacts_4
    244            case 1: // by status
    245              if ((c=ip-it))
   \                     ??CompareContacts_3:
   \   0000007C   000056E0           SUBS     R0,R6,R0
   \   00000080   7080BD18           POPNE    {R4-R6,PC}
    246              {
    247                return(c);
    248              }
    249              break;
    250            }
    251            
    252            return(strcmp_nocase(t->name,p->name));
   \                     ??CompareContacts_4:
   \   00000084   141085E2           ADD      R1,R5,#+20
   \   00000088   140084E2           ADD      R0,R4,#+20
   \   0000008C   ........           _BLF     strcmp_nocase,??strcmp_nocase??rA
   \   00000090   7080BDE8           POP      {R4-R6,PC}       ;; return
   \                     ??CompareContacts_1:
   \   00000094   ........           DC32     SORT_CLIST
    253          }
    254          
    255          

   \                                 In segment CODE, align 4, keep-with-next
    256          CLIST *AddContactOrGroup(CLIST **top, CLIST *p)
    257          {
   \                     AddContactOrGroup:
   \   00000000   70402DE9           PUSH     {R4-R6,LR}
   \   00000004   0040A0E1           MOV      R4,R0
    258            CLIST *t;
    259            CLIST *pr;
    260            t=*top;
   \   00000008   006094E5           LDR      R6,[R4, #+0]
   \   0000000C   0150A0E1           MOV      R5,R1
    261            if (t)
   \   00000010   000056E3           CMP      R6,#+0
   \   00000014   0200001A           BNE      ??AddContactOrGroup_0
    262            {
    263              //Не первый
    264              while(CompareContacts(t,p)<0)
    265              {
    266                if (!(pr=t->next))
    267                {
    268          	//добавляем в конец
    269          	t->next=p;
    270          	p->prev=t;
    271          	return(p);
    272                }
    273                t=pr;
    274              }
    275              if ((pr=t->prev))
    276                pr->next=p;
    277              else
    278                *top=p;
    279              p->prev=pr;
    280              p->next=t;
    281              t->prev=p;
    282            }
    283            else
    284            {
    285              //Первый
    286              *top=p;
   \   00000018   005084E5           STR      R5,[R4, #+0]
    287            }
    288            return(p);
   \   0000001C   130000EA           B        ??AddContactOrGroup_1
   \                     ??AddContactOrGroup_2:
   \   00000020   0060A0E1           MOV      R6,R0
   \                     ??AddContactOrGroup_0:
   \   00000024   0510A0E1           MOV      R1,R5
   \   00000028   0600A0E1           MOV      R0,R6
   \   0000002C   ........           BL       CompareContacts
   \   00000030   000050E3           CMP      R0,#+0
   \   00000034   0600005A           BPL      ??AddContactOrGroup_3
   \   00000038   000096E5           LDR      R0,[R6, #+0]
   \   0000003C   000050E3           CMP      R0,#+0
   \   00000040   F6FFFF1A           BNE      ??AddContactOrGroup_2
   \   00000044   005086E5           STR      R5,[R6, #+0]
   \   00000048   046085E5           STR      R6,[R5, #+4]
   \   0000004C   0500A0E1           MOV      R0,R5
   \   00000050   7080BDE8           POP      {R4-R6,PC}
   \                     ??AddContactOrGroup_3:
   \   00000054   040096E5           LDR      R0,[R6, #+4]
   \   00000058   000050E3           CMP      R0,#+0
   \   0000005C   00508015           STRNE    R5,[R0, #+0]
   \   00000060   00508405           STREQ    R5,[R4, #+0]
   \   00000064   040085E5           STR      R0,[R5, #+4]
   \   00000068   006085E5           STR      R6,[R5, #+0]
   \   0000006C   045086E5           STR      R5,[R6, #+4]
   \                     ??AddContactOrGroup_1:
   \   00000070   0500A0E1           MOV      R0,R5
   \   00000074   7080BDE8           POP      {R4-R6,PC}
    289          }
    290          

   \                                 In segment CODE, align 4, keep-with-next
    291          void ResortCL(void)
    292          {
   \                     ResortCL:
   \   00000000   70402DE9           PUSH     {R4-R6,LR}
    293            CLIST *first=NULL;
    294            CLIST *cl=(CLIST *)cltop;
   \   00000004   ........           LDR      R4,??DataTable13  ;; cltop
   \   00000008   04D04DE2           SUB      SP,SP,#+4
   \   0000000C   006094E5           LDR      R6,[R4, #+0]
   \   00000010   0050A0E3           MOV      R5,#+0
   \   00000014   00508DE5           STR      R5,[SP, #+0]
   \   00000018   000056E3           CMP      R6,#+0
   \   0000001C   1000000A           BEQ      ??ResortCL_0
    295            while(cl)
    296            {
    297              CLIST *pr=cl;
   \                     ??ResortCL_1:
   \   00000020   0610A0E1           MOV      R1,R6
    298              cl=cl->next;
   \   00000024   006096E5           LDR      R6,[R6, #+0]
    299              pr->next=0;
   \   00000028   005081E5           STR      R5,[R1, #+0]
    300              pr->prev=0;
   \   0000002C   045081E5           STR      R5,[R1, #+4]
    301              if (pr->isgroup)
   \   00000030   080091E5           LDR      R0,[R1, #+8]
   \   00000034   000050E3           CMP      R0,#+0
   \   00000038   0500000A           BEQ      ??ResortCL_2
    302              {
    303                pr->state=Is_Show_Groups?0xFFFF:0;
   \   0000003C   ........           LDR      R0,??DataTable12  ;; Is_Show_Groups
   \   00000040   000090E5           LDR      R0,[R0, #+0]
   \   00000044   000050E3           CMP      R0,#+0
   \   00000048   FF00A013           MOVNE    R0,#+255
   \   0000004C   FF0C8013           ORRNE    R0,R0,#0xFF00
   \   00000050   B405C1E1           STRH     R0,[R1, #+84]
    304              }
    305              AddContactOrGroup(&first,pr);    
   \                     ??ResortCL_2:
   \   00000054   0D00A0E1           MOV      R0,SP
   \   00000058   ........           BL       AddContactOrGroup
    306            }
   \   0000005C   000056E3           CMP      R6,#+0
   \   00000060   EEFFFF1A           BNE      ??ResortCL_1
    307            cltop=first;
   \                     ??ResortCL_0:
   \   00000064   00009DE5           LDR      R0,[SP, #+0]
   \   00000068   000084E5           STR      R0,[R4, #+0]
    308          }
   \   0000006C   7180BDE8           POP      {R0,R4-R6,PC}    ;; return
    309          

   \                                 In segment CODE, align 4, keep-with-next
    310          CLIST *AddContact(unsigned int uin, char *name)
    311          {
   \                     AddContact:
   \   00000000   70402DE9           PUSH     {R4-R6,LR}
   \   00000004   0040A0E1           MOV      R4,R0
   \   00000008   0150A0E1           MOV      R5,R1
    312            CLIST *p=malloc(sizeof(CLIST));
   \   0000000C   8C00A0E3           MOV      R0,#+140
   \   00000010   140000EF           SWI      +20
   \   00000014   0060A0E1           MOV      R6,R0
    313            zeromem(p,sizeof(CLIST));
   \   00000018   8C10A0E3           MOV      R1,#+140
   \   0000001C   1D0100EF           SWI      +285
    314            p->uin=uin;
    315            p->group=GROUP_CACHE;
   \   00000020   34009FE5           LDR      R0,??AddContact_0  ;; GROUP_CACHE
   \   00000024   0C4086E5           STR      R4,[R6, #+12]
   \   00000028   000090E5           LDR      R0,[R0, #+0]
    316            strncpy(p->name,name,sizeof(p->name)-1);
   \   0000002C   3F20A0E3           MOV      R2,#+63
   \   00000030   100086E5           STR      R0,[R6, #+16]
   \   00000034   0510A0E1           MOV      R1,R5
   \   00000038   140086E2           ADD      R0,R6,#+20
   \   0000003C   160100EF           SWI      +278
    317            p->state=0xFFFF;
   \   00000040   FF00A0E3           MOV      R0,#+255
   \   00000044   FF0C80E3           ORR      R0,R0,#0xFF00
   \   00000048   B405C6E1           STRH     R0,[R6, #+84]
    318            return AddContactOrGroup((CLIST **)&cltop,p);
   \   0000004C   ........           LDR      R0,??DataTable13  ;; cltop
   \   00000050   0610A0E1           MOV      R1,R6
   \   00000054   7040BDE8           POP      {R4-R6,LR}       ;; Pop
   \   00000058   ........           B        AddContactOrGroup  ;; tailcall
   \                     ??AddContact_0:
   \   0000005C   ........           DC32     GROUP_CACHE
    319          }
    320          

   \                                 In segment CODE, align 4, keep-with-next
    321          CLIST *AddGroup(unsigned int grp, char *name)
    322          {
   \                     AddGroup:
   \   00000000   70402DE9           PUSH     {R4-R6,LR}
   \   00000004   0040A0E1           MOV      R4,R0
   \   00000008   0150A0E1           MOV      R5,R1
    323            CLIST *p=malloc(sizeof(CLIST));
   \   0000000C   8C00A0E3           MOV      R0,#+140
   \   00000010   140000EF           SWI      +20
   \   00000014   0060A0E1           MOV      R6,R0
    324            zeromem(p,sizeof(CLIST));
   \   00000018   8C10A0E3           MOV      R1,#+140
   \   0000001C   1D0100EF           SWI      +285
    325            //  p->uin=0;
    326            p->group=grp;
   \   00000020   104086E5           STR      R4,[R6, #+16]
    327            p->isgroup=1;
   \   00000024   0100A0E3           MOV      R0,#+1
   \   00000028   080086E5           STR      R0,[R6, #+8]
    328            strncpy(p->name,name,sizeof(p->name)-1);
   \   0000002C   3F20A0E3           MOV      R2,#+63
   \   00000030   0510A0E1           MOV      R1,R5
   \   00000034   140086E2           ADD      R0,R6,#+20
   \   00000038   160100EF           SWI      +278
    329            if (!Is_Show_Groups) p->state=0;//Открыть группу
   \   0000003C   ........           LDR      R0,??DataTable12  ;; Is_Show_Groups
    330            else
    331              p->state=0xFFFF;
    332            return AddContactOrGroup((CLIST **)&cltop,p);
   \   00000040   0610A0E1           MOV      R1,R6
   \   00000044   000090E5           LDR      R0,[R0, #+0]
   \   00000048   000050E3           CMP      R0,#+0
   \   0000004C   FF00A013           MOVNE    R0,#+255
   \   00000050   FF0C8013           ORRNE    R0,R0,#0xFF00
   \   00000054   B405C6E1           STRH     R0,[R6, #+84]
   \   00000058   ........           LDR      R0,??DataTable13  ;; cltop
   \   0000005C   ........           BL       AddContactOrGroup
   \   00000060   7080BDE8           POP      {R4-R6,PC}       ;; return
    333          }

   \                                 In segment CODE, align 4, keep-with-next
   \                     ??DataTable7:
   \   00000000   ........           DC32     IsActiveUp

   \                                 In segment CODE, align 4, keep-with-next
   \                     ??DataTable12:
   \   00000000   ........           DC32     Is_Show_Groups

   \                                 In segment CODE, align 4, keep-with-next
   \                     ??DataTable13:
   \   00000000   ........           DC32     cltop

   Maximum stack usage in bytes:

     Function             CSTACK
     --------             ------
     AddContact              16
     AddContactOrGroup       16
     AddGroup                16
     ChangeContactPos        12
     CompareContacts         16
     CountContacts            8
     FillAllOffline          16
     FindContactByContact    12
     FindContactByN           8
     FindContactByNS         32
     FindContactByUin         0
     FindGroupByID            0
     FreeCLIST                8
     FreeXText                8
     ResortCL                20
     SwapContacts             0


   Segment part sizes:

     Function/Label       Bytes
     --------------       -----
     FreeXText              36
     FreeCLIST             104
     FillAllOffline        144
     FindContactByUin       44
     FindGroupByID          48
     table_T9Key           256
     FindContactByNS       412
     CountContacts          48
     FindContactByN         92
     FindContactByContact  104
     SwapContacts           52
     ChangeContactPos      128
     CompareContacts       152
     AddContactOrGroup     120
     ResortCL              112
     AddContact             96
     AddGroup              100
     ??DataTable7            4
     ??DataTable12           4
     ??DataTable13           4
      Others               100

 
 1 904 bytes in segment CODE
   256 bytes in segment DATA_C
 
 1 804 bytes of CODE  memory (+ 100 bytes shared)
   256 bytes of CONST memory

Errors: none
Warnings: none
