//////////////////////////////////////////////////////////////////////////////
//                                                                           /
// IAR ARM ANSI C/C++ Compiler V4.42A/W32 EVALUATION   25/Jan/2011  12:39:00 /
// Copyright 1999-2005 IAR Systems. All rights reserved.                     /
//                                                                           /
//    Cpu mode        =  interwork                                           /
//    Endian          =  little                                              /
//    Stack alignment =  4                                                   /
//    Source file     =  C:\arm\pp\main.c                                    /
//    Command line    =  C:\arm\pp\main.c -D NEWSGOLD -lC                    /
//                       C:\arm\pp\Release_NSG\List\ -lA                     /
//                       C:\arm\pp\Release_NSG\List\ -o                      /
//                       C:\arm\pp\Release_NSG\Obj\ -s9 --cpu_mode arm       /
//                       --endian little --cpu ARM926EJ-S --stack_align 4    /
//                       --interwork -e --fpu None --dlib_config             /
//                       "C:\arm2\Embedded Workbench 4.0                     /
//                       Evaluation\ARM\LIB\dl5tpainl8f.h" -I                /
//                       "C:\arm2\Embedded Workbench 4.0                     /
//                       Evaluation\ARM\INC\" --inline_threshold=3           /
//    List file       =  C:\arm\pp\Release_NSG\List\main.s79                 /
//                                                                           /
//                                                                           /
//////////////////////////////////////////////////////////////////////////////

        NAME main

        RTMODEL "StackAlign4", "USED"
        RTMODEL "__cpu_mode", "__pcs__interwork"
        RTMODEL "__data_model", "absolute"
        RTMODEL "__endian", "little"
        RTMODEL "__rt_version", "6"

        RSEG CSTACK:DATA:NOROOT(2)

        PUBWEAK `?*?DATA_ID`
        MULTWEAK ??AI??rT
        MULTWEAK ??DRE??rT
??DataTable0 EQU 0
??DataTable10 EQU 0
??DataTable12 EQU 0
??DataTable13 EQU 0
??DataTable15 EQU 0
??DataTable16 EQU 0
??DataTable17 EQU 0
??DataTable18 EQU 0
??DataTable19 EQU 0
??DataTable2 EQU 0
??DataTable21 EQU 0
??DataTable22 EQU 0
??DataTable27 EQU 0
??DataTable29 EQU 0
??DataTable3 EQU 0
??DataTable31 EQU 0
??DataTable33 EQU 0
??DataTable34 EQU 0
??DataTable35 EQU 0
??DataTable36 EQU 0
??DataTable37 EQU 0
??DataTable38 EQU 0
??DataTable4 EQU 0
??DataTable41 EQU 0
??DataTable42 EQU 0
??DataTable43 EQU 0
??DataTable46 EQU 0
??DataTable47 EQU 0
??DataTable49 EQU 0
??DataTable50 EQU 0
??DataTable51 EQU 0
??DataTable52 EQU 0
??DataTable53 EQU 0
??DataTable54 EQU 0
??DataTable55 EQU 0
??DataTable58 EQU 0
??DataTable59 EQU 0
??DataTable6 EQU 0
??DataTable60 EQU 0
??DataTable61 EQU 0
??DataTable63 EQU 0
??DataTable64 EQU 0
??DataTable65 EQU 0
??DataTable66 EQU 0
??DataTable7 EQU 0
??DataTable8 EQU 0
??DataTable9 EQU 0
        MULTWEAK ??DrwImg??rT
        MULTWEAK ??ElfKiller??rT
        MULTWEAK ??Game??rT
        MULTWEAK ??GetSize??rT
        MULTWEAK ??Init??rT
        MULTWEAK ??InitConfig??rA
        MULTWEAK ??Play??rT
        MULTWEAK ??RedrawScreen??rT
        MULTWEAK ??T_Load_IMG??rT
        MULTWEAK ??UpdateCSMname??rT
        MULTWEAK ??__dAdd??rA
        MULTWEAK ??__dEqual??rA
        MULTWEAK ??__dMul??rA
        MULTWEAK ??__doubleToLong??rA
        MULTWEAK ??__longToDouble??rA
        MULTWEAK ??deleteIMGHDR??rT
        MULTWEAK ??delimghdr??rT
        MULTWEAK ??deltimers??rT
        MULTWEAK ??down_but??rT
        MULTWEAK ??enter_but??rT
        MULTWEAK ??exit??rT
        MULTWEAK ??gameover??rT
        MULTWEAK ??green_but??rT
        MULTWEAK ??kill_data??rA
        MULTWEAK ??left_but??rT
        MULTWEAK ??left_soft??rT
        MULTWEAK ??lgpInitLangPack??rT
        MULTWEAK ??loadNastr??rT
        MULTWEAK ??loadSettings??rT
        MULTWEAK ??load_lang??rT
        MULTWEAK ??loading??rT
        MULTWEAK ??main??rT
        MULTWEAK ??malloclang??rT
        MULTWEAK ??method8??rT
        MULTWEAK ??method9??rT
        MULTWEAK ??mfreeImages??rT
        MULTWEAK ??mfreelang??rT
        MULTWEAK ??move_ball??rT
        MULTWEAK ??move_block??rT
        MULTWEAK ??openconf??rT
        MULTWEAK ??outtextxy??rT
        MULTWEAK ??parserecord??rT
        MULTWEAK ??png??rT
        MULTWEAK ??resh_but??rT
        MULTWEAK ??right_but??rT
        MULTWEAK ??right_soft??rT
        MULTWEAK ??saveSettings??rT
        MULTWEAK ??savedata??rT
        MULTWEAK ??setgame??rT
        MULTWEAK ??setpause??rT
        MULTWEAK ??shift_block??rT
        MULTWEAK ??shift_cpu??rT
        MULTWEAK ??start_vibra??rT
        MULTWEAK ??startcont??rT
        MULTWEAK ??stop??rT
        MULTWEAK ??stop_vibra??rT
        MULTWEAK ??up_but??rT
        MULTWEAK ??win??rT
        PUBWEAK ?init?tab?DATA_I
        PUBWEAK ?init?tab?DATA_Z
        PUBLIC AI
        FUNCTION AI,0201H
        LOCFRAME CSTACK, 20, STACK
        PUBLIC AI_line
        PUBLIC DRE
        FUNCTION DRE,0203H
        LOCFRAME CSTACK, 24, STACK
        PUBLIC DrwImg
        FUNCTION DrwImg,0203H
        LOCFRAME CSTACK, 56, STACK
        PUBLIC ElfKiller
        FUNCTION ElfKiller,0603H
        LOCFRAME CSTACK, 4, STACK
        PUBLIC Game
        FUNCTION Game,0601H
        LOCFRAME CSTACK, 28, STACK
        PUBLIC GetSize
        FUNCTION GetSize,0201H
        PUBLIC Init
        FUNCTION Init,0201H
        LOCFRAME CSTACK, 36, STACK
        PUBLIC MAINCSM_ID
        PUBLIC MAINGUI_ID
        FUNCTION OnKey,0603H
        LOCFRAME CSTACK, 8, STACK
        FUNCTION OnRedraw,0603H
        PUBLIC PLAY_ID
        PUBLIC Play
        FUNCTION Play,0203H
        LOCFRAME CSTACK, 72, STACK
        PUBLIC RedrawScreen
        FUNCTION RedrawScreen,0201H
        LOCFRAME CSTACK, 84, STACK
        PUBLIC T_Load_IMG
        FUNCTION T_Load_IMG,0601H
        LOCFRAME CSTACK, 12, STACK
        PUBLIC Time
        PUBLIC UpdateCSMname
        FUNCTION UpdateCSMname,0203H
        LOCFRAME CSTACK, 8, STACK
        PUBLIC ball
        PUBLIC bgcol
        PUBLIC bgcol_lang_cur
        PUBLIC clear
        PUBLIC color_frame
        PUBLIC cpu
        PUBLIC cur_x
        PUBLIC cur_y
        PUBLIC def_vol
        PUBLIC deleteIMGHDR
        FUNCTION deleteIMGHDR,0203H
        LOCFRAME CSTACK, 8, STACK
        PUBLIC delimghdr
        FUNCTION delimghdr,0201H
        LOCFRAME CSTACK, 12, STACK
        PUBLIC deltimers
        FUNCTION deltimers,0201H
        LOCFRAME CSTACK, 12, STACK
        PUBLIC difficult
        PUBLIC down_but
        FUNCTION down_but,0201H
        LOCFRAME CSTACK, 24, STACK
        PUBLIC enter_but
        FUNCTION enter_but,0201H
        LOCFRAME CSTACK, 8, STACK
        PUBLIC error_count
        PUBLIC exit
        FUNCTION exit,0201H
        PUBLIC exiting
        PUBLIC folders
        PUBLIC game_new_cont
        PUBLIC gameover
        FUNCTION gameover,0201H
        LOCFRAME CSTACK, 16, STACK
        PUBLIC gdy
        PUBLIC green_but
        FUNCTION green_but,0201H
        LOCFRAME CSTACK, 4, STACK
        PUBLIC gui_methods
        PUBLIC idle
        PUBLIC images
        PUBLIC img_count
        PUBLIC isload
        PUBLIC lang
        PUBLIC langenru
        PUBLIC left_but
        FUNCTION left_but,0201H
        LOCFRAME CSTACK, 12, STACK
        PUBLIC left_soft
        FUNCTION left_soft,0201H
        LOCFRAME CSTACK, 12, STACK
        PUBLIC lgpInitLangPack
        FUNCTION lgpInitLangPack,0201H
        LOCFRAME CSTACK, 16, STACK
        PUBLIC linecol2
        PUBLIC lives
        PUBLIC loadNastr
        FUNCTION loadNastr,0201H
        LOCFRAME CSTACK, 12, STACK
        PUBLIC loadSettings
        FUNCTION loadSettings,0201H
        LOCFRAME CSTACK, 12, STACK
        PUBLIC load_lang
        FUNCTION load_lang,0201H
        LOCFRAME CSTACK, 60, STACK
        PUBLIC loading
        FUNCTION loading,0203H
        LOCFRAME CSTACK, 116, STACK
        PUBLIC main
        FUNCTION main,0a01H
        LOCFRAME CSTACK, 48, STACK
        PUBLIC main_y
        PUBLIC maincsm_name_body
        FUNCTION maincsm_onclose,0603H
        LOCFRAME CSTACK, 8, STACK
        FUNCTION maincsm_oncreate,0603H
        LOCFRAME CSTACK, 12, STACK
        FUNCTION maincsm_onmessage,0603H
        LOCFRAME CSTACK, 4, STACK
        PUBLIC malloclang
        FUNCTION malloclang,0201H
        LOCFRAME CSTACK, 8, STACK
        PUBLIC method8
        FUNCTION method8,0603H
        PUBLIC method9
        FUNCTION method9,0603H
        PUBLIC mfreeImages
        FUNCTION mfreeImages,0201H
        LOCFRAME CSTACK, 8, STACK
        PUBLIC mfreelang
        FUNCTION mfreelang,0201H
        LOCFRAME CSTACK, 8, STACK
        PUBLIC minus11
        PUBLIC mode
        PUBLIC move_ball
        FUNCTION move_ball,0201H
        LOCFRAME CSTACK, 40, STACK
        PUBLIC move_block
        FUNCTION move_block,0201H
        LOCFRAME CSTACK, 16, STACK
        FUNCTION onClose,0603H
        LOCFRAME CSTACK, 8, STACK
        FUNCTION onCreate,0603H
        LOCFRAME CSTACK, 8, STACK
        FUNCTION onFocus,0603H
        LOCFRAME CSTACK, 12, STACK
        FUNCTION onUnfocus,0603H
        LOCFRAME CSTACK, 8, STACK
        PUBLIC on_off_sound
        PUBLIC openconf
        FUNCTION openconf,0201H
        LOCFRAME CSTACK, 12, STACK
        PUBLIC outtextxy
        FUNCTION outtextxy,0203H
        LOCFRAME CSTACK, 32, STACK
        PUBLIC parserecord
        FUNCTION parserecord,0203H
        LOCFRAME CSTACK, 36, STACK
        PUBLIC per_s
        PUBLIC perc_t
        PUBLIC pics
        PUBLIC png
        FUNCTION png,0203H
        LOCFRAME CSTACK, 8, STACK
        PUBLIC record
        PUBLIC resh_but
        FUNCTION resh_but,0201H
        LOCFRAME CSTACK, 8, STACK
        PUBLIC right_but
        FUNCTION right_but,0201H
        LOCFRAME CSTACK, 12, STACK
        PUBLIC right_soft
        FUNCTION right_soft,0201H
        LOCFRAME CSTACK, 4, STACK
        PUBLIC rndindex
        PUBLIC rndtable
        PUBLIC running
        PUBLIC saveSettings
        FUNCTION saveSettings,0201H
        LOCFRAME CSTACK, 12, STACK
        PUBLIC savedata
        FUNCTION savedata,0203H
        LOCFRAME CSTACK, 12, STACK
        PUBLIC saveload
        PUBLIC setgame
        FUNCTION setgame,0203H
        LOCFRAME CSTACK, 16, STACK
        PUBLIC setpause
        FUNCTION setpause,0201H
        LOCFRAME CSTACK, 12, STACK
        PUBLIC shift_block
        FUNCTION shift_block,0203H
        LOCFRAME CSTACK, 4, STACK
        PUBLIC shift_cpu
        FUNCTION shift_cpu,0203H
        LOCFRAME CSTACK, 4, STACK
        PUBLIC speed_game
        PUBLIC start_vibra
        FUNCTION start_vibra,0203H
        LOCFRAME CSTACK, 16, STACK
        PUBLIC startcont
        FUNCTION startcont,0201H
        LOCFRAME CSTACK, 12, STACK
        PUBLIC status
        PUBLIC stop
        FUNCTION stop,0203H
        LOCFRAME CSTACK, 16, STACK
        PUBLIC stop_vibra
        FUNCTION stop_vibra,0603H
        LOCFRAME CSTACK, 4, STACK
        PUBLIC tmr
        PUBLIC up_but
        FUNCTION up_but,0201H
        LOCFRAME CSTACK, 24, STACK
        PUBLIC user
        PUBLIC vibr
        PUBLIC vibra
        PUBLIC win
        FUNCTION win,0201H
        LOCFRAME CSTACK, 56, STACK
        
        CFI Names cfiNames0
        CFI StackFrame CFA R13 HUGEDATA
        CFI Resource R0:32, R1:32, R2:32, R3:32, R4:32, R5:32, R6:32, R7:32
        CFI Resource R8:32, R9:32, R10:32, R11:32, R12:32, CPSR:32, R13:32
        CFI Resource R14:32, SPSR:32
        CFI VirtualResource ?RET:32
        CFI EndNames cfiNames0
        
        CFI Common cfiCommon0 Using cfiNames0
        CFI CodeAlign 2
        CFI DataAlign 4
        CFI ReturnAddress ?RET CODE
        CFI CFA R13+0
        CFI R0 Undefined
        CFI R1 Undefined
        CFI R2 Undefined
        CFI R3 Undefined
        CFI R4 SameValue
        CFI R5 SameValue
        CFI R6 SameValue
        CFI R7 SameValue
        CFI R8 SameValue
        CFI R9 SameValue
        CFI R10 SameValue
        CFI R11 SameValue
        CFI R12 Undefined
        CFI CPSR SameValue
        CFI R14 Undefined
        CFI SPSR SameValue
        CFI ?RET R14
        CFI EndCommon cfiCommon0
        
        
        CFI Common cfiCommon1 Using cfiNames0
        CFI CodeAlign 4
        CFI DataAlign 4
        CFI ReturnAddress ?RET CODE
        CFI CFA R13+0
        CFI R0 Undefined
        CFI R1 Undefined
        CFI R2 Undefined
        CFI R3 Undefined
        CFI R4 SameValue
        CFI R5 SameValue
        CFI R6 SameValue
        CFI R7 SameValue
        CFI R8 SameValue
        CFI R9 SameValue
        CFI R10 SameValue
        CFI R11 SameValue
        CFI R12 Undefined
        CFI CPSR SameValue
        CFI R14 Undefined
        CFI SPSR SameValue
        CFI ?RET R14
        CFI EndCommon cfiCommon1
        
InitConfig          SYMBOL "InitConfig"
__dAdd              SYMBOL "__dAdd"
__dEqual            SYMBOL "__dEqual"
__dMul              SYMBOL "__dMul"
__doubleToLong      SYMBOL "__doubleToLong"
__longToDouble      SYMBOL "__longToDouble"
kill_data           SYMBOL "kill_data"
AI                  SYMBOL "AI"
??AI??rT            SYMBOL "??rT", AI
DRE                 SYMBOL "DRE"
??DRE??rT           SYMBOL "??rT", DRE
DrwImg              SYMBOL "DrwImg"
??DrwImg??rT        SYMBOL "??rT", DrwImg
ElfKiller           SYMBOL "ElfKiller"
??ElfKiller??rT     SYMBOL "??rT", ElfKiller
Game                SYMBOL "Game"
??Game??rT          SYMBOL "??rT", Game
GetSize             SYMBOL "GetSize"
??GetSize??rT       SYMBOL "??rT", GetSize
Init                SYMBOL "Init"
??Init??rT          SYMBOL "??rT", Init
??InitConfig??rA    SYMBOL "??rA", InitConfig
Play                SYMBOL "Play"
??Play??rT          SYMBOL "??rT", Play
RedrawScreen        SYMBOL "RedrawScreen"
??RedrawScreen??rT  SYMBOL "??rT", RedrawScreen
T_Load_IMG          SYMBOL "T_Load_IMG"
??T_Load_IMG??rT    SYMBOL "??rT", T_Load_IMG
UpdateCSMname       SYMBOL "UpdateCSMname"
??UpdateCSMname??rT SYMBOL "??rT", UpdateCSMname
??__dAdd??rA        SYMBOL "??rA", __dAdd
??__dEqual??rA      SYMBOL "??rA", __dEqual
??__dMul??rA        SYMBOL "??rA", __dMul
??__doubleToLong??rA SYMBOL "??rA", __doubleToLong
??__longToDouble??rA SYMBOL "??rA", __longToDouble
deleteIMGHDR        SYMBOL "deleteIMGHDR"
??deleteIMGHDR??rT  SYMBOL "??rT", deleteIMGHDR
delimghdr           SYMBOL "delimghdr"
??delimghdr??rT     SYMBOL "??rT", delimghdr
deltimers           SYMBOL "deltimers"
??deltimers??rT     SYMBOL "??rT", deltimers
down_but            SYMBOL "down_but"
??down_but??rT      SYMBOL "??rT", down_but
enter_but           SYMBOL "enter_but"
??enter_but??rT     SYMBOL "??rT", enter_but
exit                SYMBOL "exit"
??exit??rT          SYMBOL "??rT", exit
gameover            SYMBOL "gameover"
??gameover??rT      SYMBOL "??rT", gameover
green_but           SYMBOL "green_but"
??green_but??rT     SYMBOL "??rT", green_but
??kill_data??rA     SYMBOL "??rA", kill_data
left_but            SYMBOL "left_but"
??left_but??rT      SYMBOL "??rT", left_but
left_soft           SYMBOL "left_soft"
??left_soft??rT     SYMBOL "??rT", left_soft
lgpInitLangPack     SYMBOL "lgpInitLangPack"
??lgpInitLangPack??rT SYMBOL "??rT", lgpInitLangPack
loadNastr           SYMBOL "loadNastr"
??loadNastr??rT     SYMBOL "??rT", loadNastr
loadSettings        SYMBOL "loadSettings"
??loadSettings??rT  SYMBOL "??rT", loadSettings
load_lang           SYMBOL "load_lang"
??load_lang??rT     SYMBOL "??rT", load_lang
loading             SYMBOL "loading"
??loading??rT       SYMBOL "??rT", loading
main                SYMBOL "main"
??main??rT          SYMBOL "??rT", main
malloclang          SYMBOL "malloclang"
??malloclang??rT    SYMBOL "??rT", malloclang
method8             SYMBOL "method8"
??method8??rT       SYMBOL "??rT", method8
method9             SYMBOL "method9"
??method9??rT       SYMBOL "??rT", method9
mfreeImages         SYMBOL "mfreeImages"
??mfreeImages??rT   SYMBOL "??rT", mfreeImages
mfreelang           SYMBOL "mfreelang"
??mfreelang??rT     SYMBOL "??rT", mfreelang
move_ball           SYMBOL "move_ball"
??move_ball??rT     SYMBOL "??rT", move_ball
move_block          SYMBOL "move_block"
??move_block??rT    SYMBOL "??rT", move_block
openconf            SYMBOL "openconf"
??openconf??rT      SYMBOL "??rT", openconf
outtextxy           SYMBOL "outtextxy"
??outtextxy??rT     SYMBOL "??rT", outtextxy
parserecord         SYMBOL "parserecord"
??parserecord??rT   SYMBOL "??rT", parserecord
png                 SYMBOL "png"
??png??rT           SYMBOL "??rT", png
resh_but            SYMBOL "resh_but"
??resh_but??rT      SYMBOL "??rT", resh_but
right_but           SYMBOL "right_but"
??right_but??rT     SYMBOL "??rT", right_but
right_soft          SYMBOL "right_soft"
??right_soft??rT    SYMBOL "??rT", right_soft
saveSettings        SYMBOL "saveSettings"
??saveSettings??rT  SYMBOL "??rT", saveSettings
savedata            SYMBOL "savedata"
??savedata??rT      SYMBOL "??rT", savedata
setgame             SYMBOL "setgame"
??setgame??rT       SYMBOL "??rT", setgame
setpause            SYMBOL "setpause"
??setpause??rT      SYMBOL "??rT", setpause
shift_block         SYMBOL "shift_block"
??shift_block??rT   SYMBOL "??rT", shift_block
shift_cpu           SYMBOL "shift_cpu"
??shift_cpu??rT     SYMBOL "??rT", shift_cpu
start_vibra         SYMBOL "start_vibra"
??start_vibra??rT   SYMBOL "??rT", start_vibra
startcont           SYMBOL "startcont"
??startcont??rT     SYMBOL "??rT", startcont
stop                SYMBOL "stop"
??stop??rT          SYMBOL "??rT", stop
stop_vibra          SYMBOL "stop_vibra"
??stop_vibra??rT    SYMBOL "??rT", stop_vibra
up_but              SYMBOL "up_but"
??up_but??rT        SYMBOL "??rT", up_but
win                 SYMBOL "win"
??win??rT           SYMBOL "??rT", win

        EXTERN ELF_BEGIN
        EXTERN InitConfig
        FUNCTION InitConfig,0200H
        EXTERN __dAdd
        FUNCTION __dAdd,0202H
        EXTERN __dEqual
        FUNCTION __dEqual,0202H
        EXTERN __dMul
        FUNCTION __dMul,0202H
        EXTERN __doubleToLong
        FUNCTION __doubleToLong,0202H
        EXTERN __longToDouble
        FUNCTION __longToDouble,0202H
        EXTERN folder
        EXTERN kill_data
        FUNCTION kill_data,0602H
        EXTERN name
        EXTERN successed_config_filename


        RSEG DATA_C:CONST:SORT:NOROOT(2)
`?<Constant "\\317\\363\\362\\374">`:
        DATA
        DC8 "\317\363\362\374"
        DC8 0, 0, 0
        DC8 "\321\353\356\346\355\356\361\362\374"
        DC8 0, 0
        DC8 "\313\345\343\352\356 >"
        DC8 "< \321\360\345\344\355\345 >"
        DC8 0
        DC8 "< \321\353\356\346\355\356"
        DC8 0, 0, 0
        DC8 "\321\352\356\360\356\361\362\374"
        DC8 0, 0, 0
        DC8 "\314\345\344\353\345\355\355\356 >"
        DC8 0
        DC8 "< \301\373\361\362\360\356 >"
        DC8 0
        DC8 "< \316\367\345\355\374 \341\373\361\362\360\356"
        DC8 0
        DC8 "\306\350\347\355\350"
        DC8 0, 0
        DC8 "\302\373\341\360\340\355 \360\345\346\350\354 \355\340 \356\367\352\350"
        DC8 0, 0, 0
        DC8 "\307\342\363\352\350"
        DC8 0, 0
        DC8 "\315\340\361\362\360\356\350\362\374"
        DC8 0, 0
        DC8 "\302\352\353. \347\342\363\352?"
        DC8 0
        DC8 "\315\345\362 >"
        DC8 0, 0
        DC8 "< \304\340"
        DC8 0, 0, 0
        DC8 "< \307\342\363\352\350 >"
        DC8 0, 0
        DC8 "< \314\363\347\373\352\340"
        DC8 0, 0, 0
        DC8 "\303\360\356\354\352\356\361\362\374"
        DC8 0, 0
        DC8 "\302\350\341\360\340\366\350\377"
        DC8 0, 0, 0
        DC8 "\320\345\352\356\360\344\373"
        DC8 "< \317\363\361\362\356 >"
        DC8 0, 0
        DC8 "\316\367\350\371\345\355\356"
        DC8 "\307\340\343\360\363\347\352\340."
        DC8 0, 0
        DC8 "Sounds"
        DC8 0
        DC8 "\307\340\343\360\363\347\352\340.."
        DC8 0
        DC8 "\307\340\343\360\363\347\352\340...."
        DC8 0, 0, 0
        DC8 "\347\340\343\360\363\346\345\355"
        DC8 0, 0, 0
        DC8 "\355\345 \355\340\351\344\345\355!"
        DC8 0
        DC8 "\316\370\350\341\352\340!\316\362\361\363\362\361\362\342\363\345\362 \343\360\340\364\350\352\340!"
        DC8 "\310\343\360\340 \347\340\343\360\363\346\345\355\340"
        DC8 0
        DC8 "\316\370\350\341\352\340!\012\316\362\361\363\362\361\362\342\363\345\362 \343\360\340\364\350\352\340!\012\012\322\360\345\341\363\345\354\373\351 \357\363\362\374\015\012"
        DC8 0
        DC8 "\317\360\356\350\343\360\340\353"
        DC8 0, 0, 0
        DC8 "\342\373\350\343\360\340\353"
        DC8 "\315\340\346\354\350\362\345 '0'"
        DC8 "\357\340\363\347\340"
        DC8 0, 0
        DC8 "\362\345\341\345 \343\356\353"
        DC8 0, 0, 0
        DC8 "\352\356\354\357 \357\356\362\345\360\377\353 \370\340\360\350\352:-)"
        DC8 0, 0
        DC8 0EDH, 0E5H, 0ECH, 0EEH, 0E3H, 0F3H, 20H, 0F1H
        DC8 0EEH, 0F5H, 0F0H, 0E0H, 0EDH, 0E8H, 0F2H, 0FCH
        DC8 20H, 64H, 61H, 74H, 61H, 2EH, 73H, 79H
        DC8 73H, 21H, 0CFH, 0F0H, 0EEH, 0E2H, 0E5H, 0F0H
        DC8 0FCH, 0F2H, 0E5H, 20H, 0EFH, 0F3H, 0F2H, 0FCH
        DC8 20H, 0E2H, 20H, 0EAH, 0EEH, 0EDH, 0F4H, 0E8H
        DC8 0E3H, 0E5H, 21H, 0
        DC8 0EDH, 0E5H, 0ECH, 0EEH, 0E3H, 0F3H, 20H, 0E7H
        DC8 0E0H, 0E3H, 0F0H, 0F3H, 0E7H, 0E8H, 0F2H, 0FCH
        DC8 20H, 64H, 61H, 74H, 61H, 2EH, 73H, 79H
        DC8 73H, 21H, 0CFH, 0F0H, 0EEH, 0E2H, 0E5H, 0F0H
        DC8 0FCH, 0F2H, 0E5H, 20H, 0EFH, 0F3H, 0F2H, 0FCH
        DC8 20H, 0E2H, 20H, 0EAH, 0EEH, 0EDH, 0F4H, 0E8H
        DC8 0E3H, 0E5H, 21H, 0
        DC8 "\310\343\360\340 \363\361\357\345\370\355\356 \361\356\365\360\340\355\345\355\340!"
        DC8 0EDH, 0E5H, 0ECH, 0EEH, 0E3H, 0F3H, 20H, 0F1H
        DC8 0EEH, 0F5H, 0F0H, 0E0H, 0EDH, 0E8H, 0F2H, 0FCH
        DC8 20H, 73H, 61H, 76H, 65H, 64H, 61H, 74H
        DC8 61H, 2EH, 70H, 70H, 21H, 0CFH, 0F0H, 0EEH
        DC8 0E2H, 0E5H, 0F0H, 0FCH, 0F2H, 0E5H, 20H, 0EFH
        DC8 0F3H, 0F2H, 0FCH, 20H, 0E2H, 20H, 0EAH, 0EEH
        DC8 0EDH, 0F4H, 0E8H, 0E3H, 0E5H, 21H, 0
        DC8 0
        DC8 "\310\343\360\340 \363\361\357\345\370\355\356 \347\340\343\360\363\346\345\355\340!"
        DC8 0EDH, 0E5H, 20H, 0ECH, 0EEH, 0E3H, 0F3H, 20H
        DC8 0E7H, 0E0H, 0E3H, 0F0H, 0F3H, 0E7H, 0E8H, 0F2H
        DC8 0FCH, 20H, 73H, 61H, 76H, 65H, 64H, 61H
        DC8 74H, 61H, 2EH, 70H, 70H, 21H, 0CFH, 0F0H
        DC8 0EEH, 0E2H, 0E5H, 0F0H, 0FCH, 0F2H, 0E5H, 20H
        DC8 0EFH, 0F3H, 0F2H, 0FCH, 20H, 0E2H, 20H, 0EAH
        DC8 0EEH, 0EDH, 0F4H, 0E8H, 0E3H, 0E5H, 21H, 0
        DC8 "Ping-Pong"
        DC8 0, 0
        DC8 "Newgame"
        DC8 "Newgame >"
        DC8 0, 0
        DC8 "< Continue >"
        DC8 0, 0, 0
        DC8 "< Save"
        DC8 0
        DC8 "Load >"
        DC8 0
        DC8 "< Lives"
        DC8 "< Career"
        DC8 0, 0, 0
        DC8 "Points >"
        DC8 0, 0, 0
        DC8 "Best Record"
        DC8 "Preferences"
        DC8 "Exit"
        DC8 0, 0, 0
        DC8 "Parametrs of game"
        DC8 0, 0
        DC8 "Image"
        DC8 0, 0
        DC8 "Path"
        DC8 0, 0, 0
        DC8 "Complexity"
        DC8 0
        DC8 "Easy >"
        DC8 0
        DC8 "< Normal >"
        DC8 0
        DC8 "< Hard"
        DC8 0
        DC8 "Speed"
        DC8 0, 0
        DC8 "Slow >"
        DC8 0
        DC8 "< Fast >"
        DC8 0, 0, 0
        DC8 "< Veryfast"
        DC8 0
        DC8 "Lives"
        DC8 0, 0
        DC8 "Selected for the points"
        DC8 "\307\340\343\360\363\347\352\340..."
        DC8 "Customize"
        DC8 0, 0
        DC8 "Inc. sound?"
        DC8 "No >"
        DC8 0, 0, 0
        DC8 "< Yes"
        DC8 0, 0
        DC8 "< Sounds >"
        DC8 0
        DC8 "< Music"
        DC8 "Volume"
        DC8 0
        DC8 "Vibration"
        DC8 0, 0
        DC8 "records"
        DC8 "< Empty >"
        DC8 0, 0
        DC8 "Scavenged"
        DC8 0, 0
        DC8 "Loading."
        DC8 0, 0, 0
        DC8 "Loading.."
        DC8 0, 0
        DC8 "Loading..."
        DC8 0
        DC8 "Loading...."
        DC8 "loaded"
        DC8 0
        DC8 "Notfound!"
        DC8 0, 0
        DC8 "Error!Missing graphics!"
        DC8 "The game loaded"
        DC8 "Error!\012Missing graphics!\012\012There quired path\012\012"
        DC8 0, 0
        DC8 "lost:("
        DC8 0
        DC8 "You won:)"
        DC8 0, 0
        DC8 "Press'0'"
        DC8 0, 0, 0
        DC8 "pause"
        DC8 0, 0
        DC8 "your goal("
        DC8 0
        DC8 "PC loser:-)"
        DC8 "can not save data.sys!Check path in the config!"
        DC8 "can not load data.sys!Check path in the config!"
        DC8 "The game successfully saved!"
        DC8 0, 0, 0
        DC8 63H, 61H, 6EH, 20H, 6EH, 6FH, 74H, 20H
        DC8 73H, 61H, 76H, 65H, 20H, 73H, 61H, 76H
        DC8 65H, 64H, 61H, 74H, 61H, 2EH, 70H, 70H
        DC8 21H, 43H, 68H, 65H, 63H, 6BH, 20H, 70H
        DC8 61H, 74H, 68H, 20H, 69H, 6EH, 20H, 74H
        DC8 68H, 65H, 20H, 63H, 6FH, 6EH, 66H, 69H
        DC8 67H, 21H, 0
        DC8 0
        DC8 "The game has successfully loaded!"
        DC8 0, 0
        DC8 63H, 61H, 6EH, 20H, 6EH, 6FH, 74H, 20H
        DC8 6CH, 6FH, 61H, 64H, 20H, 73H, 61H, 76H
        DC8 65H, 64H, 61H, 74H, 61H, 2EH, 70H, 70H
        DC8 21H, 43H, 68H, 65H, 63H, 6BH, 20H, 74H
        DC8 68H, 65H, 20H, 70H, 61H, 74H, 68H, 20H
        DC8 69H, 6EH, 20H, 74H, 68H, 65H, 20H, 63H
        DC8 6FH, 6EH, 66H, 69H, 67H, 21H, 0
        DC8 0
        DC8 "\317\350\355\343-\317\356\355\343"
        DC8 0, 0
        DC8 "\315\356\342\340\377 \350\343\360\340"
        DC8 0
        DC8 "\315\356\342\340\377 \350\343\360\340 >"
        DC8 0, 0, 0
        DC8 "< \317\360\356\344\356\353\346\350\362\374 >"
        DC8 0
        DC8 "< \321\356\365\360\340\355\350\362\374"
        DC8 "\307\340\343\360\363\347\350\362\374 >"
        DC8 "< \306\350\347\355\350"
        DC8 "< \312\340\360\374\345\360\340"
        DC8 0, 0
        DC8 "\316\367\352\350 >"
        DC8 0
        DC8 "\313\363\367\370\350\345 \360\345\352\356\360\344\373"
        DC8 0
        DC8 "\315\340\361\362\360\356\351\352\350"
        DC8 0, 0
        DC8 "\302\373\365\356\344"
        DC8 0, 0
        DC8 "\317\340\360\340\354\345\362\360\373 \350\343\360\373"
        DC8 0
        DC8 "\303\360\340\364\350\352\340"
// C:\arm\pp\main.c
//    1 /*
//    2 * (c) Danil e71
//    3 * 2009 - 2010
//    4 * Спасибо огромное за помощь в разработке Half, Gangster
//    5 * Tails [sc], Snoop-Cat и многим другим за тестирование
//    6 * Dj_Shell за графику
//    7 * http://team-sc.ru/
//    8 * http://code.google.com/p/sieelf-dev/
//    9 */
//   10 
//   11 #include "..\inc\swilib.h"
//   12 #include "conf_loader.h"
//   13 #include "rect_patcher.h"
//   14 #include "main.h"

        RSEG DATA_C:CONST:SORT:NOROOT(2)
`?<Constant "kick.mid">`:
        DATA
        DC8 "kick.mid"
        DC8 0, 0, 0
        DC8 "game.mid"
        DC8 0, 0, 0
        DC8 "Sounds\\"
        DC8 "img\\logo.png"
        DC8 0, 0, 0
        DC8 "img\\cursor.png"
        DC8 0
        DC8 "img\\fon.png"
        DC8 "img\\user2.png"
        DC8 0, 0
        DC8 "img\\user1.png"
        DC8 0, 0
        DC8 "img\\ball.png"
        DC8 0, 0, 0
// char const __data per_s[5]
per_s:
        DC8 "%s%s"
        DC8 0, 0, 0

        RSEG DATA_Z:DATA:SORT:NOROOT(2)
// unsigned short __data maincsm_name_body[140]
maincsm_name_body:
        DS8 280

        RSEG DATA_Z:DATA:SORT:NOROOT(2)
// unsigned int __data MAINCSM_ID
MAINCSM_ID:
        DS8 4

        RSEG DATA_Z:DATA:SORT:NOROOT(2)
// unsigned int __data MAINGUI_ID
MAINGUI_ID:
        DS8 4

        RSEG DATA_I:DATA:SORT:NOROOT(2)
// char *__data lang[60]
lang:
        DS8 240
        REQUIRE `?<Initializer for lang>`
//   15 #include "save.c"
// struct <unnamed> __data record
record:
        DS8 116
        REQUIRE `?<Initializer for record>`
// Mytype __data ball
ball:
        DS8 36
        REQUIRE `?<Initializer for ball>`
// Mytype __data user
user:
        DS8 36
        REQUIRE `?<Initializer for user>`
// Mytype __data cpu
cpu:
        DS8 36
        REQUIRE `?<Initializer for cpu>`
// struct <unnamed> *__data pics[6]
pics:
        DS8 24
        REQUIRE `?<Initializer for pics>`
// char *__data images[6]
images:
        DS8 24
        REQUIRE `?<Initializer for images>`
// struct <unnamed> __data Time
Time:
        DS8 20
        REQUIRE `?<Initializer for Time>`
// int __data color_frame[8]
color_frame:
        DS8 32
        REQUIRE `?<Initializer for color_frame>`
// int __data clear
clear:
        DS8 4
        REQUIRE `?<Initializer for clear>`
// int __data rndindex
rndindex:
        DS8 4
        REQUIRE `?<Initializer for rndindex>`
// int volatile __data running
running:
        DS8 4
        REQUIRE `?<Initializer for running>`
// int __data cur_x
cur_x:
        DS8 4
        REQUIRE `?<Initializer for cur_x>`
// int __data cur_y
cur_y:
        DS8 4
        REQUIRE `?<Initializer for cur_y>`
// int __data main_y
main_y:
        DS8 4
        REQUIRE `?<Initializer for main_y>`
// int __data difficult
difficult:
        DS8 4
        REQUIRE `?<Initializer for difficult>`
// int __data lives
lives:
        DS8 4
        REQUIRE `?<Initializer for lives>`
// int __data mode
mode:
        DS8 4
        REQUIRE `?<Initializer for mode>`
// int __data speed_game
speed_game:
        DS8 4
        REQUIRE `?<Initializer for speed_game>`
// int __data gdy
gdy:
        DS8 4
        REQUIRE `?<Initializer for gdy>`
// int __data def_vol
def_vol:
        DS8 4
        REQUIRE `?<Initializer for def_vol>`
// int __data on_off_sound
on_off_sound:
        DS8 4
        REQUIRE `?<Initializer for on_off_sound>`
// int __data PLAY_ID
PLAY_ID:
        DS8 4
        REQUIRE `?<Initializer for PLAY_ID>`
// int __data saveload
saveload:
        DS8 4
        REQUIRE `?<Initializer for saveload>`
// int __data img_count
img_count:
        DS8 4
        REQUIRE `?<Initializer for img_count>`
// int __data game_new_cont
game_new_cont:
        DS8 4
        REQUIRE `?<Initializer for game_new_cont>`
// int __data langenru
langenru:
        DS8 4
        REQUIRE `?<Initializer for langenru>`
// int __data vibra
vibra:
        DS8 4
        REQUIRE `?<Initializer for vibra>`
// int __data exiting
exiting:
        DS8 4
        REQUIRE `?<Initializer for exiting>`
// int __data error_count
error_count:
        DS8 4
        REQUIRE `?<Initializer for error_count>`
// int __data AI_line
AI_line:
        DS8 4
        REQUIRE `?<Initializer for AI_line>`
// int __data isload
isload:
        DS8 4
        REQUIRE `?<Initializer for isload>`
// char *__data folders
folders:
        DS8 4
        REQUIRE `?<Initializer for folders>`
// int __data idle
idle:
        DS8 4
        REQUIRE `?<Initializer for idle>`
// enum <unnamed> __data status
status:
        DS8 1
        REQUIRE `?<Initializer for status>`
        DS8 3
// GBSTMR __data tmr
tmr:
        DS8 16
        REQUIRE `?<Initializer for tmr>`
// GBSTMR __data vibr
vibr:
        DS8 16
        REQUIRE `?<Initializer for vibr>`

        RSEG CODE:CODE:NOROOT(2)
        CFI Block cfiBlock0 Using cfiCommon0
        CFI NoFunction
        THUMB
??parserecord??rT:
        BX       PC
        Nop      
        CFI EndBlock cfiBlock0
        REQUIRE parserecord

        RSEG CODE:CODE:NOROOT(2)
        CFI Block cfiBlock1 Using cfiCommon1
        CFI Function parserecord
        ARM
// __??Code32?? __code __interwork __atpcs void parserecord(int)
parserecord:
        PUSH     {R4-R11,LR}
        CFI ?RET Frame(CFA, -4)
        CFI R11 Frame(CFA, -8)
        CFI R10 Frame(CFA, -12)
        CFI R9 Frame(CFA, -16)
        CFI R8 Frame(CFA, -20)
        CFI R7 Frame(CFA, -24)
        CFI R6 Frame(CFA, -28)
        CFI R5 Frame(CFA, -32)
        CFI R4 Frame(CFA, -36)
        CFI CFA R13+36
        LDR      R7,??DataTable20  ;; lang
        MOV      R4,#+448
        MOV      R5,#+412
        MOV      R6,#+332
        MOV      R8,#+0
        CMP      R0,#+1
        BNE      ??parserecord_0
        MOV      R10,#+0
        B        ??parserecord_1
??parserecord_2:
        ADD      R10,R10,#+1
        CMP      R10,#+5
        BGE      ??parserecord_3
??parserecord_1:
        LDR      R1,[R5, +R7]
        ADD      R9,R7,R10, LSL #+2
        LDR      R0,[R6, +R9]
        CMP      R0,R1
        LDRGE    R1,[R4, +R7]
        CMPGE    R0,R1
        BGE      ??parserecord_2
        MOV      R11,#+5
??parserecord_4:
        RSB      R0,R11,R11, LSL #+4
        ADD      R0,R0,R7
        ADD      R1,R0,#+225
        ADD      R0,R0,#+240
        SWI      +26
        SUB      R0,R11,#+1
        ADD      R2,R7,R0, LSL #+2
        LDR      R2,[R6, +R2]
        ADD      R1,R7,R11, LSL #+2
        STR      R2,[R6, +R1]
        MOV      R11,R0
        CMP      R10,R11
        BLT      ??parserecord_4
        LDR      R1,[R6, +R9]
        RSB      R0,R10,R10, LSL #+4
        ADD      R10,R0,R7
        LDR      R0,[R5, +R7]
        CMP      R0,R1
        LDRGE    R1,[R4, +R7]
        CMPGE    R0,R1
        BLT      ??parserecord_5
        LDR      R1,??DataTable1  ;; name
        ADD      R0,R10,#+240
        SWI      +26
        LDR      R0,[R5, +R7]
        STR      R0,[R6, +R9]
??parserecord_5:
        LDR      R0,[R4, +R7]
        LDR      R1,[R6, +R9]
        CMP      R1,R0
        LDRLT    R1,[R5, +R7]
        CMPLT    R1,R0
        BGE      ??parserecord_3
        ADR      R1,??parserecord_6  ;; "Cpu"
        ADD      R0,R10,#+240
        SWI      +26
        LDR      R0,[R4, +R7]
        STR      R0,[R6, +R9]
        STR      R8,[R4, +R7]
        STR      R8,[R5, +R7]
        POP      {R4-R11,PC}
??parserecord_0:
        MOV      R9,#+0
??parserecord_7:
        LDR      R1,[R7, #+144]
        RSB      R0,R9,R9, LSL #+4
        ADD      R0,R0,R7
        ADD      R0,R0,#+240
        SWI      +26
        ADD      R0,R7,R9, LSL #+2
        STR      R8,[R6, +R0]
        ADD      R9,R9,#+1
        CMP      R9,#+5
        BLT      ??parserecord_7
??parserecord_3:
        STR      R8,[R4, +R7]
        STR      R8,[R5, +R7]
        POP      {R4-R11,PC}      ;; return
        DATA
??parserecord_6:
        DC8      "Cpu"
        CFI EndBlock cfiBlock1

        RSEG CODE:CODE:NOROOT(2)
        DATA
??DataTable1:
        DC32     name

        RSEG CODE:CODE:NOROOT(2)
        CFI Block cfiBlock2 Using cfiCommon0
        CFI NoFunction
        THUMB
??savedata??rT:
        BX       PC
        Nop      
        CFI EndBlock cfiBlock2
        REQUIRE savedata

        RSEG CODE:CODE:NOROOT(2)
        CFI Block cfiBlock3 Using cfiCommon1
        CFI Function savedata
        ARM
// __??Code32?? __code __interwork __atpcs void savedata(int)
savedata:
        PUSH     {R4,R5,LR}
        CFI ?RET Frame(CFA, -4)
        CFI R5 Frame(CFA, -8)
        CFI R4 Frame(CFA, -12)
        CFI CFA R13+12
        LDR      R4,??DataTable5  ;; `?<Constant "data.sys">`
        LDR      R5,??DataTable23  ;; lang
        BL       parserecord
        MOV      R0,R4
        SWI      +27
        ADD      R0,R0,#+129
        SWI      +20
        LDR      R1,??DataTable25  ;; folder
        STR      R0,[R5, #+656]
        SWI      +26
        LDR      R0,[R5, #+656]
        MOV      R1,R4
        SWI      +23
        LDR      R0,[R5, #+656]
        MOV      R3,#+0
        MOV      R2,#+256
        MOV      R1,#+1
        ORR      R1,R1,#0x8300
        SWI      +10
        MOV      R4,R0
        CMN      R4,#+1
        BEQ      ??savedata_0
        MOV      R3,#+0
        MOV      R2,#+4
        ADD      R1,R5,#+632
        SWI      +12
        MOV      R3,#+0
        MOV      R2,#+4
        ADD      R1,R5,#+620
        MOV      R0,R4
        SWI      +12
        MOV      R3,#+0
        MOV      R2,#+4
        ADD      R1,R5,#+596
        MOV      R0,R4
        SWI      +12
        MOV      R3,#+0
        MOV      R2,#+4
        ADD      R1,R5,#+612
        MOV      R0,R4
        SWI      +12
        MOV      R3,#+0
        MOV      R2,#+4
        ADD      R1,R5,#+588
        MOV      R0,R4
        SWI      +12
        MOV      R3,#+0
        MOV      R2,#+4
        ADD      R1,R5,#+600
        MOV      R0,R4
        SWI      +12
        MOV      R3,#+0
        MOV      R2,#+4
        ADD      R1,R5,#+592
        MOV      R0,R4
        SWI      +12
        MOV      R3,#+0
        MOV      R2,#+4
        ADD      R1,R5,#+608
        MOV      R0,R4
        SWI      +12
        MOV      R3,#+0
        MOV      R2,#+4
        ADD      R1,R5,#+636
        MOV      R0,R4
        SWI      +12
        MOV      R3,#+0
        MOV      R2,#+116
        ADD      R1,R5,#+240
        MOV      R0,R4
        SWI      +12
        MOV      R1,#+0
        MOV      R0,R4
        SWI      +13
??savedata_0:
        LDR      R0,[R5, #+656]
        SWI      +21
        POP      {R4,R5,PC}       ;; return
        CFI EndBlock cfiBlock3

        RSEG CODE:CODE:NOROOT(2)
        CFI Block cfiBlock4 Using cfiCommon0
        CFI NoFunction
        THUMB
??loadNastr??rT:
        BX       PC
        Nop      
        CFI EndBlock cfiBlock4
        REQUIRE loadNastr

        RSEG CODE:CODE:NOROOT(2)
        CFI Block cfiBlock5 Using cfiCommon1
        CFI Function loadNastr
        ARM
// __??Code32?? __code __interwork __atpcs void loadNastr()
loadNastr:
        PUSH     {R4,R5,LR}
        CFI ?RET Frame(CFA, -4)
        CFI R5 Frame(CFA, -8)
        CFI R4 Frame(CFA, -12)
        CFI CFA R13+12
        LDR      R4,??DataTable5  ;; `?<Constant "data.sys">`
        LDR      R5,??DataTable23  ;; lang
        MOV      R0,R4
        SWI      +27
        ADD      R0,R0,#+129
        SWI      +20
        LDR      R1,??DataTable25  ;; folder
        STR      R0,[R5, #+656]
        SWI      +26
        LDR      R0,[R5, #+656]
        MOV      R1,R4
        SWI      +23
        LDR      R0,[R5, #+656]
        MOV      R3,#+0
        MOV      R2,#+128
        MOV      R1,#+32768
        SWI      +10
        MOV      R4,R0
        CMN      R4,#+1
        BEQ      ??loadNastr_0
        MOV      R3,#+0
        MOV      R2,#+4
        ADD      R1,R5,#+632
        SWI      +11
        MOV      R3,#+0
        MOV      R2,#+4
        ADD      R1,R5,#+620
        MOV      R0,R4
        SWI      +11
        MOV      R3,#+0
        MOV      R2,#+4
        ADD      R1,R5,#+596
        MOV      R0,R4
        SWI      +11
        MOV      R3,#+0
        MOV      R2,#+4
        ADD      R1,R5,#+612
        MOV      R0,R4
        SWI      +11
        MOV      R3,#+0
        MOV      R2,#+4
        ADD      R1,R5,#+588
        MOV      R0,R4
        SWI      +11
        MOV      R3,#+0
        MOV      R2,#+4
        ADD      R1,R5,#+600
        MOV      R0,R4
        SWI      +11
        MOV      R3,#+0
        MOV      R2,#+4
        ADD      R1,R5,#+592
        MOV      R0,R4
        SWI      +11
        MOV      R3,#+0
        MOV      R2,#+4
        ADD      R1,R5,#+608
        MOV      R0,R4
        SWI      +11
        MOV      R3,#+0
        MOV      R2,#+4
        ADD      R1,R5,#+636
        MOV      R0,R4
        SWI      +11
        MOV      R3,#+0
        MOV      R2,#+116
        ADD      R1,R5,#+240
        MOV      R0,R4
        SWI      +11
        MOV      R1,#+0
        MOV      R0,R4
        SWI      +13
        BL       lgpInitLangPack
        BL       T_Load_IMG
        LDR      R0,[R5, #+656]
        SWI      +21
        POP      {R4,R5,PC}
??loadNastr_0:
        MOV      R0,#+1
        STR      R0,[R5, #+652]
        BL       load_lang
        LDR      R0,[R5, #+656]
        SWI      +21
        POP      {R4,R5,PC}       ;; return
        CFI EndBlock cfiBlock5

        RSEG CODE:CODE:NOROOT(2)
        DATA
??DataTable5:
        DC32     `?<Constant "data.sys">`

        RSEG CODE:CODE:NOROOT(2)
        CFI Block cfiBlock6 Using cfiCommon0
        CFI NoFunction
        THUMB
??saveSettings??rT:
        BX       PC
        Nop      
        CFI EndBlock cfiBlock6
        REQUIRE saveSettings

        RSEG CODE:CODE:NOROOT(2)
        CFI Block cfiBlock7 Using cfiCommon1
        CFI Function saveSettings
        ARM
// __??Code32?? __code __interwork __atpcs void saveSettings()
saveSettings:
        PUSH     {R4,R5,LR}
        CFI ?RET Frame(CFA, -4)
        CFI R5 Frame(CFA, -8)
        CFI R4 Frame(CFA, -12)
        CFI CFA R13+12
        LDR      R4,??DataTable11  ;; `?<Constant "save\\\\savedata.pp">`
        LDR      R5,??DataTable23  ;; lang
        MOV      R0,R4
        SWI      +27
        ADD      R0,R0,#+129
        SWI      +20
        LDR      R1,??DataTable25  ;; folder
        STR      R0,[R5, #+656]
        SWI      +26
        LDR      R0,[R5, #+656]
        MOV      R1,R4
        SWI      +23
        LDR      R0,[R5, #+656]
        MOV      R3,#+0
        MOV      R2,#+256
        MOV      R1,#+1
        ORR      R1,R1,#0x8300
        SWI      +10
        MOV      R4,R0
        CMN      R4,#+1
        BEQ      ??saveSettings_0
        MOV      R3,#+0
        MOV      R2,#+36
        ADD      R1,R5,#+392
        SWI      +12
        MOV      R3,#+0
        MOV      R2,#+36
        ADD      R1,R5,#+428
        MOV      R0,R4
        SWI      +12
        MOV      R3,#+0
        MOV      R2,#+36
        ADD      R1,R5,#+356
        MOV      R0,R4
        SWI      +12
        MOV      R3,#+0
        MOV      R2,#+4
        ADD      R1,R5,#+596
        MOV      R0,R4
        SWI      +12
        MOV      R3,#+0
        MOV      R2,#+4
        ADD      R1,R5,#+612
        MOV      R0,R4
        SWI      +12
        MOV      R3,#+0
        MOV      R2,#+4
        ADD      R1,R5,#+648
        MOV      R0,R4
        SWI      +12
        MOV      R3,#+0
        MOV      R2,#+20
        ADD      R1,R5,#+512
        MOV      R0,R4
        SWI      +12
        MOV      R1,#+0
        MOV      R0,R4
        SWI      +13
??saveSettings_0:
        LDR      R0,[R5, #+656]
        SWI      +21
        MOV      R0,#+2
        STR      R0,[R5, #+620]
        BL       RedrawScreen
        POP      {R4,R5,PC}       ;; return
        CFI EndBlock cfiBlock7

        RSEG CODE:CODE:NOROOT(2)
        CFI Block cfiBlock8 Using cfiCommon0
        CFI NoFunction
        THUMB
??loadSettings??rT:
        BX       PC
        Nop      
        CFI EndBlock cfiBlock8
        REQUIRE loadSettings

        RSEG CODE:CODE:NOROOT(2)
        CFI Block cfiBlock9 Using cfiCommon1
        CFI Function loadSettings
        ARM
// __??Code32?? __code __interwork __atpcs void loadSettings()
loadSettings:
        PUSH     {R4,R5,LR}
        CFI ?RET Frame(CFA, -4)
        CFI R5 Frame(CFA, -8)
        CFI R4 Frame(CFA, -12)
        CFI CFA R13+12
        LDR      R4,??DataTable11  ;; `?<Constant "save\\\\savedata.pp">`
        LDR      R5,??DataTable23  ;; lang
        MOV      R0,R4
        SWI      +27
        ADD      R0,R0,#+129
        SWI      +20
        LDR      R1,??DataTable25  ;; folder
        STR      R0,[R5, #+656]
        SWI      +26
        LDR      R0,[R5, #+656]
        MOV      R1,R4
        SWI      +23
        LDR      R0,[R5, #+656]
        MOV      R3,#+0
        MOV      R2,#+128
        MOV      R1,#+32768
        SWI      +10
        MOV      R4,R0
        CMN      R4,#+1
        BEQ      ??loadSettings_0
        MOV      R3,#+0
        MOV      R2,#+36
        ADD      R1,R5,#+392
        SWI      +11
        MOV      R3,#+0
        MOV      R2,#+36
        ADD      R1,R5,#+428
        MOV      R0,R4
        SWI      +11
        MOV      R3,#+0
        MOV      R2,#+36
        ADD      R1,R5,#+356
        MOV      R0,R4
        SWI      +11
        MOV      R3,#+0
        MOV      R2,#+4
        ADD      R1,R5,#+596
        MOV      R0,R4
        SWI      +11
        MOV      R3,#+0
        MOV      R2,#+4
        ADD      R1,R5,#+612
        MOV      R0,R4
        SWI      +11
        MOV      R3,#+0
        MOV      R2,#+4
        ADD      R1,R5,#+648
        MOV      R0,R4
        SWI      +11
        MOV      R3,#+0
        MOV      R2,#+20
        ADD      R1,R5,#+512
        MOV      R0,R4
        SWI      +11
        MOV      R1,#+0
        MOV      R0,R4
        SWI      +13
        MOV      R0,#+1
        STR      R0,[R5, #+620]
        MOV      R0,#+3
        STR      R0,[R5, #+628]
??loadSettings_0:
        BL       RedrawScreen
        LDR      R0,[R5, #+656]
        SWI      +21
        POP      {R4,R5,PC}       ;; return
        CFI EndBlock cfiBlock9

        RSEG CODE:CODE:NOROOT(2)
        DATA
??DataTable11:
        DC32     `?<Constant "save\\\\savedata.pp">`

        RSEG CODE:CODE:NOROOT(2)
        CFI Block cfiBlock10 Using cfiCommon0
        CFI NoFunction
        THUMB
??DRE??rT:
        BX       PC
        Nop      
        CFI EndBlock cfiBlock10
        REQUIRE DRE
//   16 #include "Redraw.c"

        RSEG CODE:CODE:NOROOT(2)
        CFI Block cfiBlock11 Using cfiCommon1
        CFI Function DRE
        ARM
// __??Code32?? __code __interwork __atpcs void DRE(int, int)
DRE:
        PUSH     {R4,R5,LR}
        CFI ?RET Frame(CFA, -4)
        CFI R5 Frame(CFA, -8)
        CFI R4 Frame(CFA, -12)
        CFI CFA R13+12
        MOV      R4,R0
        MOV      R0,R1
        SWI      +302
        MOV      R5,R0
        MOV      R0,#+22
        SWI      +302
        PUSH     {R5}
        CFI CFA R13+16
        PUSH     {R0}
        CFI CFA R13+20
        MOV      R0,#+0
        PUSH     {R0}
        CFI CFA R13+24
        MOV      R0,R4
        _BLF     __longToDouble,??__longToDouble??rA
        MOV      R2,#+0
        MOV      R3,#+1073741824
        ORR      R3,R3,#0x140000
        _BLF     __dAdd,??__dAdd??rA
        _BLF     __doubleToLong,??__doubleToLong??rA
        MOV      R2,R0
        MOV      R3,#+132
        MOV      R1,#+110
        MOV      R0,R4
        SWI      +436
        POP      {R0-R2,R4,R5,PC}  ;; return
        CFI EndBlock cfiBlock11

        RSEG CODE:CODE:NOROOT(2)
        CFI Block cfiBlock12 Using cfiCommon0
        CFI NoFunction
        THUMB
??outtextxy??rT:
        BX       PC
        Nop      
        CFI EndBlock cfiBlock12
        REQUIRE outtextxy

        RSEG CODE:CODE:NOROOT(2)
        CFI Block cfiBlock13 Using cfiCommon1
        CFI Function outtextxy
        ARM
// __??Code32?? __code __interwork __atpcs void outtextxy(char *)
outtextxy:
        PUSH     {R4,R5,LR}
        CFI ?RET Frame(CFA, -4)
        CFI R5 Frame(CFA, -8)
        CFI R4 Frame(CFA, -12)
        CFI CFA R13+12
        MOV      R4,R0
        SWI      +27
        ADD      R0,R0,#+1
        SWI      +293
        LDR      R1,??DataTable14  ;; perc_t
        MOV      R5,R0
        MOV      R2,R4
        SWI      +292
        MOV      R0,#+6
        SWI      +302
        MOV      R1,#+0
        PUSH     {R1}
        CFI CFA R13+16
        PUSH     {R0}
        CFI CFA R13+20
        MOV      R3,#+119
        MOV      R2,#+65
        MOV      R0,#+2
        PUSH     {R0}
        CFI CFA R13+24
        MOV      R0,#+5
        PUSH     {R0}
        CFI CFA R13+28
        MOV      R0,#+155
        PUSH     {R0}
        CFI CFA R13+32
        MOV      R0,R5
        SWI      +332
        MOV      R0,R5
        SWI      +297
        ADD      SP,SP,#+20
        CFI CFA R13+12
        POP      {R4,R5,PC}       ;; return
        CFI EndBlock cfiBlock13

        RSEG CODE:CODE:NOROOT(2)
        DATA
??DataTable14:
        DC32     perc_t

        RSEG CODE:CODE:NOROOT(2)
        CFI Block cfiBlock14 Using cfiCommon0
        CFI NoFunction
        THUMB
??png??rT:
        BX       PC
        Nop      
        CFI EndBlock cfiBlock14
        REQUIRE png

        RSEG CODE:CODE:NOROOT(2)
        CFI Block cfiBlock15 Using cfiCommon1
        CFI Function png
        ARM
// __??Code32?? __code __interwork __atpcs void png(int)
png:
        PUSH     {R4,LR}
        CFI ?RET Frame(CFA, -4)
        CFI R4 Frame(CFA, -8)
        CFI CFA R13+8
        LDR      R4,??DataTable23  ;; lang
        CMP      R0,#+5
        LDR      R1,[R4, #+564]
        ADD      R1,R1,#+1
        STR      R1,[R4, #+564]
        POPHI    {R4,PC}
        ADR      R1,??png_0
        LDRB     R1,[R1, R0]
        ADD      PC,PC,R1, LSL #+2
        DATA
??png_0:
        DC8      +21,+16,+26,+6
        DC8      +1,+11,+0,+0
        ARM
??png_1:
        LDR      R0,[R4, #+504]
        MOV      R1,#+2
        SWI      +489
        STR      R0,[R4, #+464]
        POP      {R4,PC}
??png_2:
        LDR      R0,[R4, #+500]
        MOV      R1,#+2
        SWI      +489
        STR      R0,[R4, #+468]
        POP      {R4,PC}
??png_3:
        LDR      R0,[R4, #+508]
        MOV      R1,#+2
        SWI      +489
        STR      R0,[R4, #+472]
        POP      {R4,PC}
??png_4:
        LDR      R0,[R4, #+492]
        MOV      R1,#+2
        SWI      +489
        STR      R0,[R4, #+476]
        POP      {R4,PC}
??png_5:
        LDR      R0,[R4, #+488]
        MOV      R1,#+2
        SWI      +489
        STR      R0,[R4, #+480]
        POP      {R4,PC}
??png_6:
        LDR      R0,[R4, #+496]
        MOV      R1,#+2
        SWI      +489
        STR      R0,[R4, #+484]
??png_7:
        POP      {R4,PC}          ;; return
        CFI EndBlock cfiBlock15

        RSEG CODE:CODE:NOROOT(2)
        CFI Block cfiBlock16 Using cfiCommon0
        CFI NoFunction
        THUMB
??T_Load_IMG??rT:
        BX       PC
        Nop      
        CFI EndBlock cfiBlock16
        REQUIRE T_Load_IMG

        RSEG CODE:CODE:NOROOT(2)
        CFI Block cfiBlock17 Using cfiCommon1
        CFI Function T_Load_IMG
        ARM
// __??Code32?? __code __interwork __atpcs void T_Load_IMG()
T_Load_IMG:
        PUSH     {R4,R5,LR}
        CFI ?RET Frame(CFA, -4)
        CFI R5 Frame(CFA, -8)
        CFI R4 Frame(CFA, -12)
        CFI CFA R13+12
        LDR      R4,??DataTable23  ;; lang
        MOV      R5,#+668
        LDR      R0,[R4, #+624]
        BL       loading
        LDR      R0,[R4, #+624]
        ADD      R0,R0,#+1
        STR      R0,[R4, #+624]
        CMP      R0,#+8
        BGE      ??T_Load_IMG_0
        LDR      R2,??T_Load_IMG_1  ;; T_Load_IMG
        MOV      R1,#+12
        ADD      R0,R5,R4
        SWI      +77
??T_Load_IMG_0:
        LDR      R0,[R4, #+624]
        CMP      R0,#+8
        POPNE    {R4,R5,PC}
        ADD      R0,R5,R4
        SWI      +396
        POP      {R4,R5,PC}       ;; return
        DATA
??T_Load_IMG_1:
        DC32     T_Load_IMG
        CFI EndBlock cfiBlock17

        RSEG CODE:CODE:NOROOT(2)
        CFI Block cfiBlock18 Using cfiCommon0
        CFI NoFunction
        THUMB
??DrwImg??rT:
        BX       PC
        Nop      
        CFI EndBlock cfiBlock18
        REQUIRE DrwImg

        RSEG CODE:CODE:NOROOT(2)
        CFI Block cfiBlock19 Using cfiCommon1
        CFI Function DrwImg
        ARM
// __??Code32?? __code __interwork __atpcs void DrwImg(struct <unnamed> *, int, int)
DrwImg:
        PUSH     {R4,LR}
        CFI ?RET Frame(CFA, -4)
        CFI R4 Frame(CFA, -8)
        CFI CFA R13+8
        SUB      SP,SP,#+44
        CFI CFA R13+52
        MOV      R4,R0
        LDRB     R0,[R4, #+1]
        PUSH     {R0}
        CFI CFA R13+56
        LDRB     R3,[R4, #+0]
        ADD      R0,SP,#+4
        SWI      +307
        MOV      R3,R4
        MOV      R2,#+0
        ADD      R1,SP,#+4
        ADD      R0,SP,#+12
        SWI      +337
        ADD      R0,SP,#+12
        SWI      +298
        ADD      SP,SP,#+48
        CFI CFA R13+8
        POP      {R4,PC}          ;; return
        CFI EndBlock cfiBlock19

        RSEG CODE:CODE:NOROOT(2)
        CFI Block cfiBlock20 Using cfiCommon0
        CFI NoFunction
        THUMB
??Game??rT:
        BX       PC
        Nop      
        CFI EndBlock cfiBlock20
        REQUIRE Game

        RSEG CODE:CODE:NOROOT(2)
        CFI Block cfiBlock21 Using cfiCommon1
        CFI Function Game
        ARM
// __??Code32?? __code __interwork __atpcs void Game()
Game:
        PUSH     {R4-R7,LR}
        CFI ?RET Frame(CFA, -4)
        CFI R7 Frame(CFA, -8)
        CFI R6 Frame(CFA, -12)
        CFI R5 Frame(CFA, -16)
        CFI R4 Frame(CFA, -20)
        CFI CFA R13+20
        LDR      R4,??DataTable23  ;; lang
        MOV      R0,#+512
        LDR      R1,[R0, +R4]
        MOV      R6,#+520
        ADD      R2,R1,#+1
        MOV      R1,#+524
        LDR      R3,[R1, +R4]
        CMP      R2,#+3
        MOVGE    R2,#+0
        STR      R2,[R0, +R4]
        LDR      R0,[R6, +R4]
        ADDGE    R3,R3,#+1
        CMP      R3,#+60
        ADDEQ    R0,R0,#+1
        MOVEQ    R3,#+0
        STR      R3,[R1, +R4]
        MOV      R2,#+516
        CMP      R0,#+60
        BNE      ??Game_0
        LDR      R0,[R2, +R4]
        ADD      R0,R0,#+1
        STR      R0,[R2, +R4]
        MOV      R0,#+0
??Game_0:
        LDR      R2,[R2, +R4]
        LDR      R5,??Game_1      ;; `?<Constant "%d \\367 %d \\354 %d \\361">`
        STR      R0,[R6, +R4]
        MOV      R0,#+528
        CMP      R2,#+1
        BLT      ??Game_2
        MOV      R1,R3
        PUSH     {R1}
        CFI CFA R13+24
        LDR      R3,[R6, +R4]
        LDR      R0,[R0, +R4]
        MOV      R1,R5
        SWI      +22
        ADD      SP,SP,#+4
        CFI CFA R13+20
        B        ??Game_3
??Game_2:
        LDR      R2,[R6, +R4]
        LDR      R0,[R0, +R4]
        CMP      R2,#+1
        BLT      ??Game_4
        ADD      R1,R5,#+16
        SWI      +22
        B        ??Game_3
??Game_4:
        MOV      R2,R3
        ADD      R1,R5,#+28
        SWI      +22
??Game_3:
        LDR      R0,[R4, #+484]
        MOV      R2,#+0
        MOV      R1,#+0
        BL       DrwImg
        BL       move_ball
        LDR      R1,[R4, #+436]
        LDR      R2,[R4, #+400]
        MOV      R6,#+432
        LDR      R0,[R6, +R4]
        RSB      R1,R1,#+176
        SUB      R1,R1,R2
        SUB      R7,R1,R0
        ADD      R1,R7,R7, LSR #+31
        ADD      R1,R0,R1, ASR #+1
        ADD      R0,R5,#+36
        PUSH     {R0}
        CFI CFA R13+24
        MOV      R3,R1
        MOV      R2,#+131
        MOV      R0,#+0
        PUSH     {R0}
        CFI CFA R13+28
        MOV      R0,#+1
        SWI      +435
        LDR      R2,[R4, #+396]
        LDR      R1,[R4, #+392]
        LDR      R0,[R4, #+464]
        BL       DrwImg
        LDR      R2,[R4, #+360]
        LDR      R1,[R4, #+356]
        LDR      R0,[R4, #+472]
        BL       DrwImg
        LDR      R2,[R6, +R4]
        LDR      R1,[R4, #+428]
        LDR      R0,[R4, #+468]
        BL       DrwImg
        LDR      R0,[R4, #+572]
        ADD      SP,SP,#+8
        CFI CFA R13+20
        CMP      R0,#+1
        POPNE    {R4-R7,PC}
        BL       move_block
        LDR      R2,??Game_1+0x4  ;; Game
        MOV      R1,#+12
        ADD      R0,R4,#+668
        SWI      +77
        POP      {R4-R7,PC}       ;; return
        DATA
??Game_1:
        DC32     `?<Constant "%d \\367 %d \\354 %d \\361">`
        DC32     Game
        CFI EndBlock cfiBlock21

        RSEG CODE:CODE:NOROOT(2)
        CFI Block cfiBlock22 Using cfiCommon0
        CFI NoFunction
        THUMB
??mfreeImages??rT:
        BX       PC
        Nop      
        CFI EndBlock cfiBlock22
        REQUIRE mfreeImages

        RSEG CODE:CODE:NOROOT(2)
        CFI Block cfiBlock23 Using cfiCommon1
        CFI Function mfreeImages
        ARM
// __??Code32?? __code __interwork __atpcs void mfreeImages()
mfreeImages:
        PUSH     {R4,LR}
        CFI ?RET Frame(CFA, -4)
        CFI R4 Frame(CFA, -8)
        CFI CFA R13+8
        MOV      R4,#+0
??mfreeImages_0:
        LDR      R0,??DataTable23  ;; lang
        ADD      R0,R0,R4, LSL #+2
        LDR      R0,[R0, #+488]
        ADD      R4,R4,#+1
        SWI      +21
        CMP      R4,#+5
        BLT      ??mfreeImages_0
        POP      {R4,PC}          ;; return
        CFI EndBlock cfiBlock23

        RSEG CODE:CODE:NOROOT(2)
        CFI Block cfiBlock24 Using cfiCommon0
        CFI NoFunction
        THUMB
??mfreelang??rT:
        BX       PC
        Nop      
        CFI EndBlock cfiBlock24
        REQUIRE mfreelang

        RSEG CODE:CODE:NOROOT(2)
        CFI Block cfiBlock25 Using cfiCommon1
        CFI Function mfreelang
        ARM
// __??Code32?? __code __interwork __atpcs void mfreelang()
mfreelang:
        PUSH     {R4,LR}
        CFI ?RET Frame(CFA, -4)
        CFI R4 Frame(CFA, -8)
        CFI CFA R13+8
        MOV      R4,#+0
??mfreelang_0:
        LDR      R0,??DataTable20  ;; lang
        LDR      R0,[R0, +R4, LSL #+2]
        ADD      R4,R4,#+1
        SWI      +21
        CMP      R4,#+58
        BLT      ??mfreelang_0
        POP      {R4,PC}          ;; return
        CFI EndBlock cfiBlock25

        RSEG CODE:CODE:NOROOT(2)
        CFI Block cfiBlock26 Using cfiCommon0
        CFI NoFunction
        THUMB
??malloclang??rT:
        BX       PC
        Nop      
        CFI EndBlock cfiBlock26
        REQUIRE malloclang

        RSEG CODE:CODE:NOROOT(2)
        CFI Block cfiBlock27 Using cfiCommon1
        CFI Function malloclang
        ARM
// __??Code32?? __code __interwork __atpcs void malloclang()
malloclang:
        PUSH     {R4,LR}
        CFI ?RET Frame(CFA, -4)
        CFI R4 Frame(CFA, -8)
        CFI CFA R13+8
        MOV      R4,#+0
??malloclang_0:
        MOV      R0,#+60
        SWI      +20
        LDR      R1,??DataTable20  ;; lang
        STR      R0,[R1, +R4, LSL #+2]
        ADD      R4,R4,#+1
        CMP      R4,#+59
        BLT      ??malloclang_0
        POP      {R4,PC}          ;; return
        CFI EndBlock cfiBlock27

        RSEG CODE:CODE:NOROOT(2)
        DATA
??DataTable20:
        DC32     lang

        RSEG CODE:CODE:NOROOT(2)
        CFI Block cfiBlock28 Using cfiCommon0
        CFI NoFunction
        THUMB
??deleteIMGHDR??rT:
        BX       PC
        Nop      
        CFI EndBlock cfiBlock28
        REQUIRE deleteIMGHDR

        RSEG CODE:CODE:NOROOT(2)
        CFI Block cfiBlock29 Using cfiCommon1
        CFI Function deleteIMGHDR
        ARM
// __??Code32?? __code __interwork __atpcs void deleteIMGHDR(struct <unnamed> *)
deleteIMGHDR:
        PUSH     {R4,LR}
        CFI ?RET Frame(CFA, -4)
        CFI R4 Frame(CFA, -8)
        CFI CFA R13+8
        MOVS     R4,R0
        LDRNE    R0,[R4, #+4]
        CMPNE    R0,#+0
        POPEQ    {R4,PC}
        SWI      +21
        MOV      R0,R4
        SWI      +21
        POP      {R4,PC}          ;; return
        CFI EndBlock cfiBlock29

        RSEG CODE:CODE:NOROOT(2)
        CFI Block cfiBlock30 Using cfiCommon0
        CFI NoFunction
        THUMB
??delimghdr??rT:
        BX       PC
        Nop      
        CFI EndBlock cfiBlock30
        REQUIRE delimghdr

        RSEG CODE:CODE:NOROOT(2)
        CFI Block cfiBlock31 Using cfiCommon1
        CFI Function delimghdr
        ARM
// __??Code32?? __code __interwork __atpcs void delimghdr()
delimghdr:
        PUSH     {R4,R5,LR}
        CFI ?RET Frame(CFA, -4)
        CFI R5 Frame(CFA, -8)
        CFI R4 Frame(CFA, -12)
        CFI CFA R13+12
        LDR      R5,??DataTable23  ;; lang
        MOV      R4,#+0
        LDR      R0,[R5, #+564]
        CMP      R0,#+1
        BGE      ??delimghdr_0
        POP      {R4,R5,PC}
??delimghdr_1:
        ADD      R0,R5,R4, LSL #+2
        LDR      R0,[R0, #+464]
        ADD      R4,R4,#+1
        BL       deleteIMGHDR
??delimghdr_0:
        LDR      R0,[R5, #+564]
        CMP      R4,R0
        BLT      ??delimghdr_1
        POP      {R4,R5,PC}       ;; return
        CFI EndBlock cfiBlock31

        RSEG CODE:CODE:NOROOT(2)
        CFI Block cfiBlock32 Using cfiCommon0
        CFI NoFunction
        THUMB
??GetSize??rT:
        BX       PC
        Nop      
        CFI EndBlock cfiBlock32
        REQUIRE GetSize

        RSEG CODE:CODE:NOROOT(2)
        CFI Block cfiBlock33 Using cfiCommon1
        CFI Function GetSize
        ARM
// __??Code32?? __code __interwork __atpcs void GetSize()
GetSize:
        LDR      R0,??DataTable23  ;; lang
        LDR      R1,[R0, #+464]
        LDRB     R2,[R1, #+0]
        STR      R2,[R0, #+404]
        LDRB     R2,[R1, #+1]
        STR      R2,[R0, #+400]
        LDR      R2,[R0, #+468]
        LDRB     R2,[R2, #+0]
        STR      R2,[R0, #+440]
        LDRB     R1,[R1, #+1]
        STR      R1,[R0, #+436]
        LDR      R1,[R0, #+472]
        LDRB     R2,[R1, #+0]
        STR      R2,[R0, #+368]
        LDRB     R1,[R1, #+1]
        STR      R1,[R0, #+364]
        BX       LR               ;; return
        CFI EndBlock cfiBlock33

        RSEG CODE:CODE:NOROOT(2)
        CFI Block cfiBlock34 Using cfiCommon0
        CFI NoFunction
        THUMB
??Init??rT:
        BX       PC
        Nop      
        CFI EndBlock cfiBlock34
        REQUIRE Init

        RSEG CODE:CODE:NOROOT(2)
        CFI Block cfiBlock35 Using cfiCommon1
        CFI Function Init
        ARM
// __??Code32?? __code __interwork __atpcs void Init()
Init:
        PUSH     {R4-R11,LR}
        CFI ?RET Frame(CFA, -4)
        CFI R11 Frame(CFA, -8)
        CFI R10 Frame(CFA, -12)
        CFI R9 Frame(CFA, -16)
        CFI R8 Frame(CFA, -20)
        CFI R7 Frame(CFA, -24)
        CFI R6 Frame(CFA, -28)
        CFI R5 Frame(CFA, -32)
        CFI R4 Frame(CFA, -36)
        CFI CFA R13+36
        LDR      R4,??DataTable23  ;; lang
        LDR      R5,??DataTable24  ;; `?<Constant "kick.mid">`
        LDR      R11,??DataTable25  ;; folder
        MOV      R0,#+112
        STR      R0,[R4, #+580]
        MOV      R0,#+0
        STRB     R0,[R4, #+664]
        BL       malloclang
        ADD      R0,R5,#+32
        SWI      +27
        ADD      R0,R0,#+129
        SWI      +20
        STR      R0,[R4, #+488]
        ADD      R0,R5,#+48
        SWI      +27
        MOV      R6,#+492
        ADD      R0,R0,#+129
        SWI      +20
        STR      R0,[R6, +R4]
        ADD      R0,R5,#+64
        SWI      +27
        MOV      R7,#+496
        ADD      R0,R0,#+129
        SWI      +20
        STR      R0,[R7, +R4]
        ADD      R0,R5,#+76
        SWI      +27
        MOV      R8,#+500
        ADD      R0,R0,#+129
        SWI      +20
        STR      R0,[R8, +R4]
        ADD      R0,R5,#+92
        SWI      +27
        MOV      R9,#+504
        ADD      R0,R0,#+129
        SWI      +20
        STR      R0,[R9, +R4]
        ADD      R0,R5,#+108
        SWI      +27
        MOV      R10,#+508
        ADD      R0,R0,#+129
        SWI      +20
        STR      R0,[R10, +R4]
        LDR      R0,[R4, #+488]
        ADD      R3,R5,#+32
        MOV      R2,R11
        ADD      R1,R5,#+124
        SWI      +22
        LDR      R0,[R6, +R4]
        ADD      R3,R5,#+48
        MOV      R2,R11
        ADD      R1,R5,#+124
        SWI      +22
        LDR      R0,[R7, +R4]
        ADD      R3,R5,#+64
        MOV      R2,R11
        ADD      R1,R5,#+124
        SWI      +22
        LDR      R0,[R8, +R4]
        ADD      R3,R5,#+76
        MOV      R2,R11
        ADD      R1,R5,#+124
        SWI      +22
        LDR      R0,[R9, +R4]
        ADD      R3,R5,#+92
        MOV      R2,R11
        ADD      R1,R5,#+124
        SWI      +22
        LDR      R0,[R10, +R4]
        ADD      R3,R5,#+108
        MOV      R2,R11
        ADD      R1,R5,#+124
        SWI      +22
        BL       loadNastr
        POP      {R4-R11,PC}      ;; return
        CFI EndBlock cfiBlock35

        RSEG CODE:CODE:NOROOT(2)
        DATA
??DataTable23:
        DC32     lang

        RSEG CODE:CODE:NOROOT(2)
        DATA
??DataTable24:
        DC32     `?<Constant "kick.mid">`

        RSEG CODE:CODE:NOROOT(2)
        DATA
??DataTable25:
        DC32     folder

        RSEG CODE:CODE:NOROOT(2)
        CFI Block cfiBlock36 Using cfiCommon0
        CFI NoFunction
        THUMB
??RedrawScreen??rT:
        BX       PC
        Nop      
        CFI EndBlock cfiBlock36
        REQUIRE RedrawScreen

        RSEG CODE:CODE:NOROOT(2)
        CFI Block cfiBlock37 Using cfiCommon1
        CFI Function RedrawScreen
        ARM
// __??Code32?? __code __interwork __atpcs void RedrawScreen()
RedrawScreen:
        PUSH     {R4-R11,LR}
        CFI ?RET Frame(CFA, -4)
        CFI R11 Frame(CFA, -8)
        CFI R10 Frame(CFA, -12)
        CFI R9 Frame(CFA, -16)
        CFI R8 Frame(CFA, -20)
        CFI R7 Frame(CFA, -24)
        CFI R6 Frame(CFA, -28)
        CFI R5 Frame(CFA, -32)
        CFI R4 Frame(CFA, -36)
        CFI CFA R13+36
        LDR      R5,??DataTable26  ;; lang
        SUB      SP,SP,#+8
        CFI CFA R13+44
        MOV      R0,#+32
        SWI      +293
        MOV      R4,R0
        LDRB     R0,[R5, #+664]
        CMP      R0,#+5
        BEQ      ??RedrawScreen_1
        LDR      R0,[R5, #+480]
        MOV      R2,#+0
        MOV      R1,#+0
        BL       DrwImg
        B        ??RedrawScreen_2
??RedrawScreen_1:
        BL       Game
??RedrawScreen_2:
        LDRB     R3,[R5, #+664]
        LDR      R0,[R5, #+476]
        LDR      R1,[R5, #+576]
        LDR      R2,[R5, #+580]
        LDR      R6,??DataTable28  ;; perc_t
        SUB      R3,R3,#+1
        CMP      R3,#+5
        BHI      ??RedrawScreen_3
        ADR      R7,??RedrawScreen_0
        MOV      R3,R3, LSL #+1
        LDRH     R7,[R7, R3]
        ADD      PC,PC,R7, LSL #+2
        DATA
??RedrawScreen_0:
        DC16     +2,+200,+250,+464
        DC16     +727,+630
        ARM
??RedrawScreen_4:
        BL       DrwImg
        LDR      R0,[R5, #+628]
        SUBS     R0,R0,#+1
        BEQ      ??RedrawScreen_5
        SUBS     R0,R0,#+1
        BEQ      ??RedrawScreen_6
        SUBS     R0,R0,#+1
        BEQ      ??RedrawScreen_7
        B        ??RedrawScreen_8
??RedrawScreen_5:
        LDR      R2,[R5, #+4]
        B        ??RedrawScreen_9
??RedrawScreen_6:
        LDR      R2,[R5, #+8]
        B        ??RedrawScreen_9
??RedrawScreen_7:
        LDR      R2,[R5, #+12]
??RedrawScreen_9:
        MOV      R1,R6
        MOV      R0,R4
        SWI      +292
??RedrawScreen_8:
        MOV      R0,#+23
        SWI      +302
        MOV      R7,R0
        MOV      R0,#+2
        SWI      +302
        PUSH     {R7}
        CFI CFA R13+48
        PUSH     {R0}
        CFI CFA R13+52
        MOV      R3,#+132
        MOV      R1,#+0
        MOV      R0,#+2
        PUSH     {R0}
        CFI CFA R13+56
        MOV      R0,#+5
        PUSH     {R0}
        CFI CFA R13+60
        MOV      R0,#+176
        PUSH     {R0}
        CFI CFA R13+64
        LDR      R2,[R5, #+584]
        MOV      R0,R4
        SWI      +332
        LDR      R0,[R5, #+620]
        ADD      SP,SP,#+20
        CFI CFA R13+44
        CMP      R0,#+2
        LDREQ    R2,[R5, #+20]
        MOV      R1,R6
        LDRNE    R2,[R5, #+16]
        MOV      R0,R4
        SWI      +292
        MOV      R0,#+23
        SWI      +302
        MOV      R7,R0
        MOV      R0,#+2
        SWI      +302
        PUSH     {R7}
        CFI CFA R13+48
        PUSH     {R0}
        CFI CFA R13+52
        MOV      R0,#+2
        PUSH     {R0}
        CFI CFA R13+56
        MOV      R0,#+5
        PUSH     {R0}
        CFI CFA R13+60
        MOV      R0,#+176
        PUSH     {R0}
        CFI CFA R13+64
        LDR      R0,[R5, #+584]
        _BLF     __longToDouble,??__longToDouble??rA
        MOV      R2,#+0
        MOV      R3,#+1073741824
        ORR      R3,R3,#0x340000
        _BLF     __dAdd,??__dAdd??rA
        _BLF     __doubleToLong,??__doubleToLong??rA
        MOV      R2,R0
        MOV      R3,#+132
        MOV      R1,#+0
        MOV      R0,R4
        SWI      +332
        LDR      R0,[R5, #+596]
        ADD      SP,SP,#+20
        CFI CFA R13+44
        CMP      R0,#+0
        BEQ      ??RedrawScreen_10
        SUBS     R0,R0,#+1
        BNE      ??RedrawScreen_11
        LDR      R2,[R5, #+24]
        B        ??RedrawScreen_12
??RedrawScreen_10:
        LDR      R2,[R5, #+32]
??RedrawScreen_12:
        MOV      R1,R6
        MOV      R0,R4
        SWI      +292
??RedrawScreen_11:
        MOV      R0,#+23
        SWI      +302
        MOV      R7,R0
        MOV      R0,#+2
        SWI      +302
        PUSH     {R7}
        CFI CFA R13+48
        PUSH     {R0}
        CFI CFA R13+52
        MOV      R0,#+2
        PUSH     {R0}
        CFI CFA R13+56
        MOV      R0,#+5
        PUSH     {R0}
        CFI CFA R13+60
        MOV      R0,#+176
        PUSH     {R0}
        CFI CFA R13+64
        LDR      R0,[R5, #+584]
        _BLF     __longToDouble,??__longToDouble??rA
        MOV      R2,#+0
        MOV      R3,#+1073741824
        ORR      R3,R3,#0x440000
        _BLF     __dAdd,??__dAdd??rA
        _BLF     __doubleToLong,??__doubleToLong??rA
        MOV      R2,R0
        MOV      R3,#+132
        MOV      R1,#+0
        MOV      R0,R4
        SWI      +332
        LDR      R2,[R5, #+36]
        MOV      R1,R6
        MOV      R0,R4
        SWI      +292
        MOV      R0,#+23
        SWI      +302
        MOV      R7,R0
        MOV      R0,#+2
        SWI      +302
        PUSH     {R7}
        CFI CFA R13+68
        PUSH     {R0}
        CFI CFA R13+72
        MOV      R0,#+2
        PUSH     {R0}
        CFI CFA R13+76
        MOV      R7,#+132
        MOV      R0,#+5
        PUSH     {R0}
        CFI CFA R13+80
        MOV      R0,#+176
        PUSH     {R0}
        CFI CFA R13+84
        LDR      R0,[R5, #+584]
        _BLF     __longToDouble,??__longToDouble??rA
        MOV      R2,#+0
        MOV      R3,#+1073741824
        ORR      R3,R3,#0x4E0000
        _BLF     __dAdd,??__dAdd??rA
        _BLF     __doubleToLong,??__doubleToLong??rA
        MOV      R2,R0
        MOV      R3,R7
        MOV      R1,#+0
        MOV      R0,R4
        SWI      +332
        ADD      SP,SP,#+40
        CFI CFA R13+44
        LDR      R2,[R5, #+40]
        MOV      R1,R6
        MOV      R0,R4
        SWI      +292
        MOV      R0,#+23
        SWI      +302
        MOV      R7,R0
        MOV      R0,#+2
        SWI      +302
        PUSH     {R7}
        CFI CFA R13+48
        PUSH     {R0}
        CFI CFA R13+52
        MOV      R3,#+132
        MOV      R7,R3
        MOV      R0,#+2
        PUSH     {R0}
        CFI CFA R13+56
        MOV      R0,#+5
        PUSH     {R0}
        CFI CFA R13+60
        MOV      R0,#+176
        PUSH     {R0}
        CFI CFA R13+64
        LDR      R0,[R5, #+584]
        _BLF     __longToDouble,??__longToDouble??rA
        MOV      R2,#+0
        MOV      R3,#+1073741824
        ORR      R3,R3,#0x540000
        _BLF     __dAdd,??__dAdd??rA
        _BLF     __doubleToLong,??__doubleToLong??rA
        MOV      R2,R0
        MOV      R3,R7
        MOV      R1,#+0
        MOV      R0,R4
        SWI      +332
        LDR      R2,[R5, #+44]
        MOV      R1,R6
        MOV      R0,R4
        SWI      +292
        MOV      R0,#+23
        SWI      +302
        MOV      R6,R0
        MOV      R0,#+2
        SWI      +302
        PUSH     {R6}
        CFI CFA R13+68
        PUSH     {R0}
        CFI CFA R13+72
        MOV      R0,#+2
        PUSH     {R0}
        CFI CFA R13+76
        MOV      R0,#+5
        PUSH     {R0}
        CFI CFA R13+80
        MOV      R0,#+176
        PUSH     {R0}
        CFI CFA R13+84
        LDR      R0,[R5, #+584]
        _BLF     __longToDouble,??__longToDouble??rA
        MOV      R2,#+0
        MOV      R3,#+1073741824
        ORR      R3,R3,#0x590000
        _BLF     __dAdd,??__dAdd??rA
        _BLF     __doubleToLong,??__doubleToLong??rA
        MOV      R2,R0
        MOV      R3,R7
??RedrawScreen_13:
        MOV      R1,#+0
        MOV      R0,R4
        SWI      +332
        ADD      SP,SP,#+40
        CFI CFA R13+44
        B        ??RedrawScreen_14
??RedrawScreen_15:
        BL       DrwImg
        LDR      R2,[R5, #+48]
        MOV      R1,R6
        MOV      R0,R4
        SWI      +292
        MOV      R0,#+23
        SWI      +302
        MOV      R7,R0
        MOV      R0,#+2
        SWI      +302
        PUSH     {R7}
        CFI CFA R13+48
        PUSH     {R0}
        CFI CFA R13+52
        MOV      R3,#+132
        MOV      R1,#+0
        MOV      R0,#+2
        PUSH     {R0}
        CFI CFA R13+56
        MOV      R0,#+5
        PUSH     {R0}
        CFI CFA R13+60
        MOV      R0,#+176
        PUSH     {R0}
        CFI CFA R13+64
        LDR      R2,[R5, #+584]
        MOV      R0,R4
        SWI      +332
        LDR      R2,[R5, #+104]
        MOV      R1,R6
        MOV      R0,R4
        SWI      +292
        MOV      R0,#+23
        SWI      +302
        MOV      R6,R0
        MOV      R0,#+2
        SWI      +302
        PUSH     {R6}
        CFI CFA R13+68
        PUSH     {R0}
        CFI CFA R13+72
        MOV      R0,#+2
        PUSH     {R0}
        CFI CFA R13+76
        MOV      R0,#+5
        PUSH     {R0}
        CFI CFA R13+80
        MOV      R0,#+176
        PUSH     {R0}
        CFI CFA R13+84
        LDR      R0,[R5, #+584]
        _BLF     __longToDouble,??__longToDouble??rA
        MOV      R2,#+0
        MOV      R3,#+1073741824
        ORR      R3,R3,#0x340000
        _BLF     __dAdd,??__dAdd??rA
        _BLF     __doubleToLong,??__doubleToLong??rA
        MOV      R2,R0
        MOV      R3,#+132
        B        ??RedrawScreen_13
        CFI CFA R13+44
??RedrawScreen_16:
        BL       DrwImg
        LDR      R2,[R5, #+60]
        MOV      R1,R6
        MOV      R0,R4
        SWI      +292
        MOV      R0,#+23
        SWI      +302
        MOV      R7,R0
        MOV      R0,#+3
        SWI      +302
        PUSH     {R7}
        CFI CFA R13+48
        PUSH     {R0}
        CFI CFA R13+52
        MOV      R3,#+132
        MOV      R1,#+0
        MOV      R0,#+2
        PUSH     {R0}
        CFI CFA R13+56
        MOV      R0,#+5
        PUSH     {R0}
        CFI CFA R13+60
        MOV      R0,#+176
        PUSH     {R0}
        CFI CFA R13+64
        LDR      R2,[R5, #+584]
        MOV      R0,R4
        SWI      +332
        LDR      R0,[R5, #+588]
        ADD      SP,SP,#+20
        CFI CFA R13+44
        CMP      R0,#+0
        BEQ      ??RedrawScreen_17
        SUBS     R0,R0,#+1
        BEQ      ??RedrawScreen_18
        SUBS     R0,R0,#+1
        BEQ      ??RedrawScreen_19
        B        ??RedrawScreen_20
??RedrawScreen_17:
        LDR      R2,[R5, #+64]
        B        ??RedrawScreen_21
??RedrawScreen_18:
        LDR      R2,[R5, #+68]
        B        ??RedrawScreen_21
??RedrawScreen_19:
        LDR      R2,[R5, #+72]
??RedrawScreen_21:
        MOV      R1,R6
        MOV      R0,R4
        SWI      +292
??RedrawScreen_20:
        MOV      R0,#+23
        SWI      +302
        MOV      R7,R0
        MOV      R0,#+2
        SWI      +302
        PUSH     {R7}
        CFI CFA R13+48
        PUSH     {R0}
        CFI CFA R13+52
        MOV      R0,#+2
        PUSH     {R0}
        CFI CFA R13+56
        MOV      R0,#+5
        PUSH     {R0}
        CFI CFA R13+60
        MOV      R0,#+176
        PUSH     {R0}
        CFI CFA R13+64
        LDR      R0,[R5, #+584]
        _BLF     __longToDouble,??__longToDouble??rA
        MOV      R2,#+0
        MOV      R3,#+1073741824
        ORR      R3,R3,#0x340000
        _BLF     __dAdd,??__dAdd??rA
        _BLF     __doubleToLong,??__doubleToLong??rA
        MOV      R2,R0
        MOV      R3,#+132
        MOV      R1,#+0
        MOV      R0,R4
        SWI      +332
        LDR      R2,[R5, #+76]
        MOV      R1,R6
        MOV      R0,R4
        SWI      +292
        MOV      R0,#+23
        SWI      +302
        MOV      R7,R0
        MOV      R0,#+3
        SWI      +302
        PUSH     {R7}
        CFI CFA R13+68
        PUSH     {R0}
        CFI CFA R13+72
        MOV      R0,#+2
        PUSH     {R0}
        CFI CFA R13+76
        MOV      R7,#+132
        MOV      R0,#+5
        PUSH     {R0}
        CFI CFA R13+80
        MOV      R0,#+176
        PUSH     {R0}
        CFI CFA R13+84
        LDR      R0,[R5, #+584]
        _BLF     __longToDouble,??__longToDouble??rA
        MOV      R2,#+0
        MOV      R3,#+1073741824
        ORR      R3,R3,#0x440000
        _BLF     __dAdd,??__dAdd??rA
        _BLF     __doubleToLong,??__doubleToLong??rA
        MOV      R2,R0
        MOV      R3,R7
        MOV      R1,#+0
        MOV      R0,R4
        SWI      +332
        ADD      SP,SP,#+40
        CFI CFA R13+44
        LDR      R0,[R5, #+600]
        CMP      R0,#+0
        BEQ      ??RedrawScreen_22
        SUBS     R0,R0,#+1
        BEQ      ??RedrawScreen_23
        SUBS     R0,R0,#+1
        BEQ      ??RedrawScreen_24
        SUBS     R0,R0,#+1
        BEQ      ??RedrawScreen_25
        B        ??RedrawScreen_26
??RedrawScreen_22:
        LDR      R2,[R5, #+80]
        B        ??RedrawScreen_27
??RedrawScreen_23:
        LDR      R2,[R5, #+84]
        B        ??RedrawScreen_27
??RedrawScreen_24:
        LDR      R2,[R5, #+88]
        B        ??RedrawScreen_27
??RedrawScreen_25:
        LDR      R2,[R5, #+92]
??RedrawScreen_27:
        MOV      R1,R6
        MOV      R0,R4
        SWI      +292
??RedrawScreen_26:
        MOV      R0,#+23
        SWI      +302
        MOV      R7,R0
        MOV      R0,#+2
        SWI      +302
        PUSH     {R7}
        CFI CFA R13+48
        PUSH     {R0}
        CFI CFA R13+52
        MOV      R0,#+2
        PUSH     {R0}
        CFI CFA R13+56
        MOV      R0,#+5
        PUSH     {R0}
        CFI CFA R13+60
        MOV      R0,#+176
        PUSH     {R0}
        CFI CFA R13+64
        LDR      R0,[R5, #+584]
        _BLF     __longToDouble,??__longToDouble??rA
        MOV      R2,#+0
        MOV      R3,#+1073741824
        ORR      R3,R3,#0x4E0000
        _BLF     __dAdd,??__dAdd??rA
        _BLF     __doubleToLong,??__doubleToLong??rA
        MOV      R2,R0
        MOV      R3,#+132
        MOV      R1,#+0
        MOV      R0,R4
        SWI      +332
        LDR      R2,[R5, #+96]
        MOV      R1,R6
        MOV      R0,R4
        SWI      +292
        MOV      R0,#+23
        SWI      +302
        MOV      R7,R0
        MOV      R0,#+3
        SWI      +302
        PUSH     {R7}
        CFI CFA R13+68
        PUSH     {R0}
        CFI CFA R13+72
        MOV      R0,#+2
        PUSH     {R0}
        CFI CFA R13+76
        MOV      R7,#+132
        MOV      R0,#+5
        PUSH     {R0}
        CFI CFA R13+80
        MOV      R0,#+176
        PUSH     {R0}
        CFI CFA R13+84
        LDR      R0,[R5, #+584]
        _BLF     __longToDouble,??__longToDouble??rA
        MOV      R2,#+0
        MOV      R3,#+1073741824
        ORR      R3,R3,#0x540000
        _BLF     __dAdd,??__dAdd??rA
        _BLF     __doubleToLong,??__doubleToLong??rA
        MOV      R2,R0
        MOV      R3,R7
        MOV      R1,#+0
        MOV      R0,R4
        SWI      +332
        ADD      SP,SP,#+40
        CFI CFA R13+44
        LDR      R0,[R5, #+596]
        CMP      R0,#+0
        BEQ      ??RedrawScreen_28
        SUBS     R0,R0,#+1
        BEQ      ??RedrawScreen_29
        B        ??RedrawScreen_30
??RedrawScreen_28:
        LDR      R2,[R5, #+100]
        MOV      R1,R6
        B        ??RedrawScreen_31
??RedrawScreen_29:
        LDR      R2,[R5, #+592]
        ADD      R1,R6,#+48
??RedrawScreen_31:
        MOV      R0,R4
??RedrawScreen_32:
        SWI      +292
??RedrawScreen_30:
        MOV      R0,#+23
        SWI      +302
        MOV      R6,R0
        MOV      R0,#+2
        SWI      +302
        PUSH     {R6}
        CFI CFA R13+48
        PUSH     {R0}
        CFI CFA R13+52
        MOV      R0,#+2
        PUSH     {R0}
        CFI CFA R13+56
        MOV      R0,#+5
        PUSH     {R0}
        CFI CFA R13+60
        MOV      R0,#+176
        PUSH     {R0}
        CFI CFA R13+64
        LDR      R0,[R5, #+584]
        _BLF     __longToDouble,??__longToDouble??rA
        MOV      R2,#+0
        MOV      R3,#+1073741824
        ORR      R3,R3,#0x590000
        _BLF     __dAdd,??__dAdd??rA
        _BLF     __doubleToLong,??__doubleToLong??rA
        MOV      R2,R0
        MOV      R3,#+132
        MOV      R1,#+0
        MOV      R0,R4
        SWI      +332
        ADD      SP,SP,#+20
        CFI CFA R13+44
??RedrawScreen_14:
        MOV      R0,R4
        SWI      +297
        POP      {R0,R1,R4-R11,PC}
??RedrawScreen_33:
        BL       DrwImg
        LDR      R2,[R5, #+112]
        MOV      R1,R6
        MOV      R0,R4
        SWI      +292
        MOV      R0,#+23
        SWI      +302
        MOV      R7,R0
        MOV      R0,#+3
        SWI      +302
        PUSH     {R7}
        CFI CFA R13+48
        PUSH     {R0}
        CFI CFA R13+52
        MOV      R3,#+132
        MOV      R1,#+0
        MOV      R0,#+2
        PUSH     {R0}
        CFI CFA R13+56
        MOV      R0,#+5
        PUSH     {R0}
        CFI CFA R13+60
        MOV      R0,#+176
        PUSH     {R0}
        CFI CFA R13+64
        LDR      R2,[R5, #+584]
        MOV      R0,R4
        SWI      +332
        LDR      R0,[R5, #+612]
        ADD      SP,SP,#+20
        CFI CFA R13+44
        CMP      R0,#+0
        BEQ      ??RedrawScreen_34
        SUBS     R0,R0,#+1
        BEQ      ??RedrawScreen_35
        SUBS     R0,R0,#+1
        BEQ      ??RedrawScreen_36
        B        ??RedrawScreen_37
??RedrawScreen_34:
        LDR      R2,[R5, #+116]
        B        ??RedrawScreen_38
??RedrawScreen_35:
        LDR      R2,[R5, #+124]
        B        ??RedrawScreen_38
??RedrawScreen_36:
        LDR      R2,[R5, #+128]
??RedrawScreen_38:
        MOV      R1,R6
        MOV      R0,R4
        SWI      +292
??RedrawScreen_37:
        MOV      R0,#+23
        SWI      +302
        MOV      R7,R0
        MOV      R0,#+2
        SWI      +302
        PUSH     {R7}
        CFI CFA R13+48
        PUSH     {R0}
        CFI CFA R13+52
        MOV      R0,#+2
        PUSH     {R0}
        CFI CFA R13+56
        MOV      R0,#+5
        PUSH     {R0}
        CFI CFA R13+60
        MOV      R0,#+176
        PUSH     {R0}
        CFI CFA R13+64
        LDR      R0,[R5, #+584]
        _BLF     __longToDouble,??__longToDouble??rA
        MOV      R2,#+0
        MOV      R3,#+1073741824
        ORR      R3,R3,#0x340000
        _BLF     __dAdd,??__dAdd??rA
        _BLF     __doubleToLong,??__doubleToLong??rA
        MOV      R2,R0
        MOV      R3,#+132
        MOV      R1,#+0
        MOV      R0,R4
        SWI      +332
        LDR      R2,[R5, #+132]
        MOV      R1,R6
        MOV      R0,R4
        SWI      +292
        MOV      R0,#+23
        SWI      +302
        MOV      R7,R0
        MOV      R0,#+3
        SWI      +302
        PUSH     {R7}
        CFI CFA R13+68
        PUSH     {R0}
        CFI CFA R13+72
        MOV      R0,#+2
        PUSH     {R0}
        CFI CFA R13+76
        MOV      R7,#+132
        MOV      R0,#+5
        PUSH     {R0}
        CFI CFA R13+80
        MOV      R0,#+176
        PUSH     {R0}
        CFI CFA R13+84
        LDR      R0,[R5, #+584]
        _BLF     __longToDouble,??__longToDouble??rA
        MOV      R2,#+0
        MOV      R3,#+1073741824
        ORR      R3,R3,#0x440000
        _BLF     __dAdd,??__dAdd??rA
        _BLF     __doubleToLong,??__doubleToLong??rA
        MOV      R2,R0
        MOV      R3,R7
        MOV      R1,#+0
        MOV      R0,R4
        SWI      +332
        ADD      SP,SP,#+40
        CFI CFA R13+44
        LDR      R2,[R5, #+608]
        ADD      R1,R6,#+48
        MOV      R0,R4
        SWI      +292
        MOV      R0,#+23
        SWI      +302
        MOV      R7,R0
        MOV      R0,#+2
        SWI      +302
        PUSH     {R7}
        CFI CFA R13+48
        PUSH     {R0}
        CFI CFA R13+52
        MOV      R3,#+132
        MOV      R7,R3
        MOV      R0,#+2
        PUSH     {R0}
        CFI CFA R13+56
        MOV      R0,#+5
        PUSH     {R0}
        CFI CFA R13+60
        MOV      R0,#+176
        PUSH     {R0}
        CFI CFA R13+64
        LDR      R0,[R5, #+584]
        _BLF     __longToDouble,??__longToDouble??rA
        MOV      R2,#+0
        MOV      R3,#+1073741824
        ORR      R3,R3,#0x4E0000
        _BLF     __dAdd,??__dAdd??rA
        _BLF     __doubleToLong,??__doubleToLong??rA
        MOV      R2,R0
        MOV      R3,R7
        MOV      R1,#+0
        MOV      R0,R4
        SWI      +332
        LDR      R2,[R5, #+136]
        MOV      R1,R6
        MOV      R0,R4
        SWI      +292
        MOV      R0,#+23
        SWI      +302
        MOV      R7,R0
        MOV      R0,#+3
        SWI      +302
        PUSH     {R7}
        CFI CFA R13+68
        PUSH     {R0}
        CFI CFA R13+72
        MOV      R3,#+132
        MOV      R7,R3
        MOV      R0,#+2
        PUSH     {R0}
        CFI CFA R13+76
        MOV      R0,#+5
        PUSH     {R0}
        CFI CFA R13+80
        MOV      R0,#+176
        PUSH     {R0}
        CFI CFA R13+84
        LDR      R0,[R5, #+584]
        _BLF     __longToDouble,??__longToDouble??rA
        MOV      R2,#+0
        MOV      R3,#+1073741824
        ORR      R3,R3,#0x540000
        _BLF     __dAdd,??__dAdd??rA
        _BLF     __doubleToLong,??__doubleToLong??rA
        MOV      R2,R0
        MOV      R3,R7
        MOV      R1,#+0
        MOV      R0,R4
        SWI      +332
        ADD      SP,SP,#+40
        CFI CFA R13+44
        LDR      R0,[R5, #+636]
        MOV      R1,R6
        CMP      R0,#+1
        LDREQ    R2,[R5, #+120]
        MOV      R0,R4
        LDRNE    R2,[R5, #+116]
        B        ??RedrawScreen_32
??RedrawScreen_39:
        LDR      R2,[R5, #+140]
        MOV      R1,R6
        MOV      R0,R4
        SWI      +292
        MOV      R0,#+23
        SWI      +302
        MOV      R7,R0
        MOV      R0,#+2
        SWI      +302
        PUSH     {R7}
        CFI CFA R13+48
        PUSH     {R0}
        CFI CFA R13+52
        MOV      R3,#+132
        MOV      R2,#+8
        MOV      R1,#+0
        MOV      R0,#+2
        PUSH     {R0}
        CFI CFA R13+56
        MOV      R7,#+0
        MOV      R0,#+5
        PUSH     {R0}
        CFI CFA R13+60
        MOV      R0,#+176
        PUSH     {R0}
        CFI CFA R13+64
        MOV      R0,R4
        SWI      +332
        ADD      SP,SP,#+20
        CFI CFA R13+44
??RedrawScreen_40:
        ADD      R0,R5,R7, LSL #+2
        LDR      R0,[R0, #+332]
        ADD      R2,R7,#+1
        PUSH     {R0}
        CFI CFA R13+48
        ADD      R1,R6,#+60
        RSB      R0,R7,R7, LSL #+4
        ADD      R0,R0,R5
        ADD      R3,R0,#+240
        MOV      R0,R4
        SWI      +292
        MOV      R0,#+23
        SWI      +302
        STR      R0,[SP, #+4]
        MOV      R0,#+3
        SWI      +302
        STR      R0,[SP, #+8]
        MOV      R0,#+5
        SWI      +453
        MOV      R11,R0
        MOV      R1,#+5
        MOV      R0,R4
        SWI      +520
        MOV      R10,R0
        MOV      R1,#+30
        MUL      R0,R1,R7
        ADD      R7,R7,#+1
        _BLF     __longToDouble,??__longToDouble??rA
        MOV      R2,R0
        MOV      R3,R1
        MOV      R0,#+0
        MOV      R1,#+1073741824
        ORR      R1,R1,#0x328000
        _BLF     __dAdd,??__dAdd??rA
        MOV      R8,R0
        LDR      R0,[SP, #+4]
        MOV      R9,R1
        PUSH     {R0}
        CFI CFA R13+52
        MOV      R2,#+2
        LDR      R0,[SP, #+12]
        MOV      R1,#+5
        PUSH     {R0}
        CFI CFA R13+56
        PUSH     {R1}
        CFI CFA R13+60
        PUSH     {R2}
        CFI CFA R13+64
        MOV      R0,R11
        _BLF     __longToDouble,??__longToDouble??rA
        MOV      R2,R8
        MOV      R3,R9
        _BLF     __dAdd,??__dAdd??rA
        _BLF     __doubleToLong,??__doubleToLong??rA
        POP      {R2}
        CFI CFA R13+60
        POP      {R1}
        CFI CFA R13+56
        PUSH     {R0-R2}
        CFI CFA R13+68
        MOV      R0,R10
        _BLF     __longToDouble,??__longToDouble??rA
        MOV      R2,R0
        MOV      R3,R1
        MOV      R0,#+0
        MOV      R1,#+1073741824
        ORR      R1,R1,#0x318000
        _BLF     __dAdd,??__dAdd??rA
        _BLF     __doubleToLong,??__doubleToLong??rA
        MOV      R10,R0
        MOV      R0,R8
        MOV      R1,R9
        _BLF     __doubleToLong,??__doubleToLong??rA
        MOV      R2,R0
        MOV      R3,R10
        MOV      R1,#+17
        MOV      R0,R4
        SWI      +332
        CMP      R7,#+5
        ADD      SP,SP,#+24
        CFI CFA R13+44
        BLT      ??RedrawScreen_40
??RedrawScreen_3:
        MOV      R0,R4
        SWI      +297
        POP      {R0,R1,R4-R11,PC}  ;; return
        CFI EndBlock cfiBlock37

        RSEG CODE:CODE:NOROOT(2)
        DATA
??DataTable26:
        DC32     lang

        RSEG CODE:CODE:NOROOT(2)
        CFI Block cfiBlock38 Using cfiCommon0
        CFI NoFunction
        THUMB
??load_lang??rT:
        BX       PC
        Nop      
        CFI EndBlock cfiBlock38
        REQUIRE load_lang

        RSEG CODE:CODE:NOROOT(2)
        CFI Block cfiBlock39 Using cfiCommon1
        CFI Function load_lang
        ARM
// __??Code32?? __code __interwork __atpcs void load_lang()
load_lang:
        PUSH     {R4-R7,LR}
        CFI ?RET Frame(CFA, -4)
        CFI R7 Frame(CFA, -8)
        CFI R6 Frame(CFA, -12)
        CFI R5 Frame(CFA, -16)
        CFI R4 Frame(CFA, -20)
        CFI CFA R13+20
        LDR      R6,??DataTable28  ;; perc_t
        LDR      R7,??DataTable39  ;; lang
        MOV      R0,#+64
        SWI      +293
        MOV      R5,R0
        ADD      R0,R6,#+148
        PUSH     {R0}
        CFI CFA R13+24
        MOV      R3,#+176
        MOV      R2,#+132
        MOV      R1,#+0
        MOV      R0,#+0
        PUSH     {R0}
        CFI CFA R13+28
        PUSH     {R0}
        CFI CFA R13+32
        PUSH     {R0}
        CFI CFA R13+36
        PUSH     {R0}
        CFI CFA R13+40
        SWI      +336
        LDR      R4,[R7, #+580]
        ADD      R0,R6,#+144
        PUSH     {R0}
        CFI CFA R13+44
        MOV      R0,#+0
        PUSH     {R0}
        CFI CFA R13+48
        PUSH     {R0}
        CFI CFA R13+52
        PUSH     {R0}
        CFI CFA R13+56
        PUSH     {R0}
        CFI CFA R13+60
        MOV      R0,R4
        _BLF     __longToDouble,??__longToDouble??rA
        MOV      R2,#+0
        MOV      R3,#+1073741824
        ORR      R3,R3,#0x2E0000
        _BLF     __dAdd,??__dAdd??rA
        _BLF     __doubleToLong,??__doubleToLong??rA
        MOV      R3,R0
        LDR      R0,[R7, #+576]
        MOV      R2,#+105
        MOV      R1,R4
        SWI      +336
        ADD      SP,SP,#+40
        CFI CFA R13+20
        LDR      R0,[R7, #+632]
        CMP      R0,#+0
        BEQ      ??load_lang_0
        SUBS     R0,R0,#+1
        BEQ      ??load_lang_1
        B        ??load_lang_2
??load_lang_0:
        ADD      R2,R6,#+72
        B        ??load_lang_3
??load_lang_1:
        ADD      R2,R6,#+88
??load_lang_3:
        MOV      R1,R6
        MOV      R0,R5
        SWI      +292
??load_lang_2:
        MOV      R0,#+23
        SWI      +302
        MOV      R4,R0
        MOV      R0,#+2
        SWI      +302
        PUSH     {R4}
        CFI CFA R13+24
        PUSH     {R0}
        CFI CFA R13+28
        MOV      R3,#+132
        MOV      R2,#+44
        MOV      R1,#+0
        MOV      R0,#+2
        PUSH     {R0}
        CFI CFA R13+32
        MOV      R0,#+5
        PUSH     {R0}
        CFI CFA R13+36
        MOV      R0,#+176
        PUSH     {R0}
        CFI CFA R13+40
        MOV      R0,R5
        SWI      +332
        ADD      R2,R6,#+104
        MOV      R1,R6
        MOV      R0,R5
        SWI      +292
        MOV      R0,#+23
        SWI      +302
        MOV      R4,R0
        MOV      R0,#+2
        SWI      +302
        PUSH     {R4}
        CFI CFA R13+44
        PUSH     {R0}
        CFI CFA R13+48
        MOV      R3,#+132
        MOV      R2,#+64
        MOV      R1,#+0
        MOV      R0,#+2
        PUSH     {R0}
        CFI CFA R13+52
        MOV      R0,#+5
        PUSH     {R0}
        CFI CFA R13+56
        MOV      R0,#+176
        PUSH     {R0}
        CFI CFA R13+60
        MOV      R0,R5
        SWI      +332
        ADD      SP,SP,#+40
        CFI CFA R13+20
        ADD      R2,R6,#+112
        MOV      R1,R6
        MOV      R0,R5
        SWI      +292
        MOV      R0,#+23
        SWI      +302
        MOV      R4,R0
        MOV      R0,#+2
        SWI      +302
        PUSH     {R4}
        CFI CFA R13+24
        PUSH     {R0}
        CFI CFA R13+28
        MOV      R3,#+132
        MOV      R2,#+84
        MOV      R1,#+0
        MOV      R0,#+2
        PUSH     {R0}
        CFI CFA R13+32
        MOV      R0,#+5
        PUSH     {R0}
        CFI CFA R13+36
        MOV      R0,#+176
        PUSH     {R0}
        CFI CFA R13+40
        MOV      R0,R5
        SWI      +332
        MOV      R0,R5
        SWI      +297
        ADD      SP,SP,#+20
        CFI CFA R13+20
        POP      {R4-R7,PC}       ;; return
        CFI EndBlock cfiBlock39

        RSEG CODE:CODE:NOROOT(2)
        DATA
??DataTable28:
        DC32     perc_t

        RSEG CODE:CODE:NOROOT(2)
        CFI Block cfiBlock40 Using cfiCommon0
        CFI NoFunction
        THUMB
??loading??rT:
        BX       PC
        Nop      
        CFI EndBlock cfiBlock40
        REQUIRE loading

        RSEG CODE:CODE:NOROOT(2)
        CFI Block cfiBlock41 Using cfiCommon1
        CFI Function loading
        ARM
// __??Code32?? __code __interwork __atpcs void loading(int)
loading:
        PUSH     {R4-R10,LR}
        CFI ?RET Frame(CFA, -4)
        CFI R10 Frame(CFA, -8)
        CFI R9 Frame(CFA, -12)
        CFI R8 Frame(CFA, -16)
        CFI R7 Frame(CFA, -20)
        CFI R6 Frame(CFA, -24)
        CFI R5 Frame(CFA, -28)
        CFI R4 Frame(CFA, -32)
        CFI CFA R13+32
        LDR      R5,??DataTable30  ;; perc_t
        SUB      SP,SP,#+40
        CFI CFA R13+72
        MOV      R9,R0
        MOV      R0,#+64
        SWI      +293
        MOV      R4,R0
        MOV      R0,#+64
        SWI      +293
        MOV      R8,R0
        ADD      R0,R5,#+148
        PUSH     {R0}
        CFI CFA R13+76
        MOV      R3,#+176
        MOV      R2,#+132
        MOV      R1,#+0
        MOV      R0,#+0
        PUSH     {R0}
        CFI CFA R13+80
        PUSH     {R0}
        CFI CFA R13+84
        PUSH     {R0}
        CFI CFA R13+88
        PUSH     {R0}
        CFI CFA R13+92
        SWI      +336
        MOV      R0,#+23
        SWI      +302
        MOV      R6,R0
        MOV      R0,#+2
        SWI      +302
        PUSH     {R6}
        CFI CFA R13+96
        PUSH     {R0}
        CFI CFA R13+100
        MOV      R3,#+104
        MOV      R2,#+129
        MOV      R1,#+98
        MOV      R0,#+0
        PUSH     {R0}
        CFI CFA R13+104
        MOV      R0,#+3
        SWI      +436
        MOV      R0,#+22
        SWI      +302
        MOV      R6,R0
        MOV      R0,#+2
        SWI      +302
        PUSH     {R6}
        CFI CFA R13+108
        LDR      R6,??DataTable44  ;; lang
        PUSH     {R0}
        CFI CFA R13+112
        MOV      R0,#+0
        PUSH     {R0}
        CFI CFA R13+116
        MOV      R0,R9
        _BLF     __longToDouble,??__longToDouble??rA
        MOV      R2,#+0
        MOV      R3,#+1073741824
        ORR      R3,R3,#0x2D0000
        _BLF     __dMul,??__dMul??rA
        _BLF     __doubleToLong,??__doubleToLong??rA
        _BLF     __longToDouble,??__longToDouble??rA
        MOV      R2,#+0
        MOV      R3,#+1073741824
        ORR      R3,R3,#0x300000
        _BLF     __dAdd,??__dAdd??rA
        _BLF     __doubleToLong,??__doubleToLong??rA
        MOV      R2,R0
        MOV      R3,#+103
        MOV      R1,#+99
        MOV      R0,#+5
        SWI      +436
        ADD      SP,SP,#+44
        CFI CFA R13+72
        LDR      R2,[R6, #+0]
        MOV      R1,R5
        MOV      R0,R8
        SWI      +292
        MOV      R0,#+23
        SWI      +302
        MOV      R7,R0
        MOV      R0,#+2
        SWI      +302
        PUSH     {R7}
        CFI CFA R13+76
        PUSH     {R0}
        CFI CFA R13+80
        MOV      R3,#+132
        MOV      R2,#+35
        MOV      R1,#+0
        MOV      R0,#+2
        PUSH     {R0}
        CFI CFA R13+84
        MOV      R7,#+1
        MOV      R0,#+5
        PUSH     {R0}
        CFI CFA R13+88
        MOV      R0,#+176
        PUSH     {R0}
        CFI CFA R13+92
        MOV      R0,R8
        SWI      +332
        ADD      SP,SP,#+20
        CFI CFA R13+72
??loading_0:
        ADD      R0,R6,R7, LSL #+2
        LDR      R10,[R0, #+532]
        MOV      R1,#+30
        MUL      R0,R1,R7
        ADD      R7,R7,#+1
        _BLF     __longToDouble,??__longToDouble??rA
        MOV      R2,R0
        MOV      R3,R1
        MOV      R0,#+0
        MOV      R1,#+1006632960
        ORR      R1,R1,#0x3F80000
        _BLF     __dAdd,??__dAdd??rA
        _BLF     __doubleToLong,??__doubleToLong??rA
        MOV      R1,R10
        BL       DRE
        CMP      R7,#+7
        BLT      ??loading_0
        LDR      R0,[R6, #+644]
        SUBS     R1,R9,#+6
        BEQ      ??loading_1
        SUBS     R1,R1,#+1
        BEQ      ??loading_2
        B        ??loading_3
??loading_1:
        CMP      R0,#+1
        BLT      ??loading_4
        ADD      R0,R5,#+148
        PUSH     {R0}
        CFI CFA R13+76
        MOV      R3,#+176
        MOV      R2,#+132
        MOV      R1,#+0
        MOV      R0,#+0
        PUSH     {R0}
        CFI CFA R13+80
        PUSH     {R0}
        CFI CFA R13+84
        PUSH     {R0}
        CFI CFA R13+88
        PUSH     {R0}
        CFI CFA R13+92
        SWI      +336
        MOV      R0,#+128
        SWI      +293
        LDR      R2,[R6, #+176]
        MOV      R7,R0
        MOV      R1,R5
        SWI      +292
        MOV      R0,#+23
        SWI      +302
        MOV      R5,R0
        MOV      R0,#+2
        SWI      +302
        PUSH     {R5}
        CFI CFA R13+96
        PUSH     {R0}
        CFI CFA R13+100
        MOV      R3,#+132
        MOV      R2,#+60
        MOV      R1,#+0
        MOV      R0,#+2
        PUSH     {R0}
        CFI CFA R13+104
        MOV      R0,#+5
        PUSH     {R0}
        CFI CFA R13+108
        MOV      R0,#+176
        PUSH     {R0}
        CFI CFA R13+112
        MOV      R0,R7
        SWI      +332
        ADD      SP,SP,#+40
        CFI CFA R13+72
        MOV      R0,R7
        SWI      +297
        B        ??loading_5
??loading_4:
        MOV      R0,#+128
        SWI      +293
        LDR      R2,[R6, #+180]
        MOV      R7,R0
        MOV      R1,R5
        SWI      +292
        MOV      R0,#+23
        SWI      +302
        MOV      R5,R0
        MOV      R0,#+2
        SWI      +302
        PUSH     {R5}
        CFI CFA R13+76
        PUSH     {R0}
        CFI CFA R13+80
        MOV      R3,#+132
        MOV      R2,#+60
        MOV      R1,#+0
        MOV      R0,#+2
        PUSH     {R0}
        CFI CFA R13+84
        MOV      R0,#+5
        PUSH     {R0}
        CFI CFA R13+88
        MOV      R0,#+176
        PUSH     {R0}
        CFI CFA R13+92
        MOV      R0,R7
        SWI      +332
        MOV      R0,R7
        SWI      +297
        ADD      SP,SP,#+20
        CFI CFA R13+72
??loading_5:
        BL       GetSize
        B        ??loading_6
??loading_2:
        CMP      R0,#+1
        BLT      ??loading_7
        ADD      R0,R5,#+148
        PUSH     {R0}
        CFI CFA R13+76
        MOV      R3,#+176
        MOV      R2,#+132
        MOV      R1,#+0
        MOV      R0,#+0
        PUSH     {R0}
        CFI CFA R13+80
        PUSH     {R0}
        CFI CFA R13+84
        PUSH     {R0}
        CFI CFA R13+88
        PUSH     {R0}
        CFI CFA R13+92
        SWI      +336
        MOV      R0,#+128
        SWI      +293
        LDR      R3,??DataTable32  ;; folder
        MOV      R7,R0
        ADD      R0,R5,#+128
        PUSH     {R0}
        CFI CFA R13+96
        LDR      R2,[R6, #+184]
        ADD      R1,R5,#+120
        MOV      R0,R7
        SWI      +292
        MOV      R0,#+23
        SWI      +302
        MOV      R5,R0
        MOV      R0,#+2
        SWI      +302
        PUSH     {R5}
        CFI CFA R13+100
        PUSH     {R0}
        CFI CFA R13+104
        MOV      R3,#+132
        MOV      R2,#+15
        MOV      R1,#+0
        MOV      R0,#+2
        PUSH     {R0}
        CFI CFA R13+108
        MOV      R0,#+5
        PUSH     {R0}
        CFI CFA R13+112
        MOV      R0,#+176
        PUSH     {R0}
        CFI CFA R13+116
        MOV      R0,R7
        SWI      +332
        ADD      SP,SP,#+44
        CFI CFA R13+72
        MOV      R0,R7
        SWI      +297
        B        ??loading_6
??loading_7:
        MOV      R0,#+52
        STR      R0,[R6, #+580]
        MOV      R0,#+1
        STRB     R0,[R6, #+664]
        BL       RedrawScreen
        B        ??loading_6
??loading_3:
        ADD      R7,R6,R9, LSL #+2
        LDR      R0,[R7, #+488]
        MOV      R2,#+0
        MOV      R1,SP
        SWI      +132
        CMN      R0,#+1
        BEQ      ??loading_8
        LDR      R3,[R6, #+168]
        LDR      R2,[R7, #+488]
        ADD      R1,R5,#+136
        MOV      R0,R4
        SWI      +292
        MOV      R0,R9
        BL       png
        MOV      R0,#+4
        STR      R0,[R7, #+536]
        B        ??loading_9
??loading_8:
        LDR      R0,[R6, #+644]
        ADD      R1,R5,#+136
        ADD      R0,R0,#+1
        STR      R0,[R6, #+644]
        MOV      R0,#+2
        STR      R0,[R7, #+536]
        LDR      R3,[R6, #+172]
        LDR      R2,[R7, #+488]
        MOV      R0,R4
        SWI      +292
??loading_9:
        MOV      R0,#+23
        SWI      +302
        MOV      R5,R0
        MOV      R0,#+2
        SWI      +302
        PUSH     {R5}
        CFI CFA R13+76
        PUSH     {R0}
        CFI CFA R13+80
        MOV      R3,#+132
        MOV      R2,#+58
        MOV      R1,#+0
        MOV      R0,#+2
        PUSH     {R0}
        CFI CFA R13+84
        MOV      R0,#+5
        PUSH     {R0}
        CFI CFA R13+88
        MOV      R0,#+176
        PUSH     {R0}
        CFI CFA R13+92
        MOV      R0,R4
        SWI      +332
        ADD      SP,SP,#+20
        CFI CFA R13+72
??loading_6:
        MOV      R0,R4
        SWI      +297
        MOV      R0,R8
        SWI      +297
        ADD      SP,SP,#+40
        CFI CFA R13+32
        POP      {R4-R10,PC}      ;; return
        CFI EndBlock cfiBlock41

        RSEG CODE:CODE:NOROOT(2)
        DATA
??DataTable30:
        DC32     perc_t

        RSEG CODE:CODE:NOROOT(2)
        DATA
??DataTable32:
        DC32     folder

        RSEG CODE:CODE:NOROOT(2)
        CFI Block cfiBlock42 Using cfiCommon0
        CFI NoFunction
        THUMB
??move_block??rT:
        BX       PC
        Nop      
        CFI EndBlock cfiBlock42
        REQUIRE move_block
//   17 #include "pp.c"

        RSEG CODE:CODE:NOROOT(2)
        CFI Block cfiBlock43 Using cfiCommon1
        CFI Function move_block
        ARM
// __??Code32?? __code __interwork __atpcs void move_block()
move_block:
        PUSH     {R4-R6,LR}
        CFI ?RET Frame(CFA, -4)
        CFI R6 Frame(CFA, -8)
        CFI R5 Frame(CFA, -12)
        CFI R4 Frame(CFA, -16)
        CFI CFA R13+16
        LDR      R6,??DataTable39  ;; lang
        MOV      R5,#+420
        LDR      R0,[R5, +R6]
        MOV      R4,#+408
        CMP      R0,#+1
        BNE      ??move_block_0
        LDR      R0,[R4, +R6]
        RSB      R0,R0,#+0
        BL       shift_block
??move_block_0:
        LDR      R0,[R5, +R6]
        CMP      R0,#+2
        POPNE    {R4-R6,PC}
        LDR      R0,[R4, +R6]
        BL       shift_block
        POP      {R4-R6,PC}       ;; return
        CFI EndBlock cfiBlock43

        RSEG CODE:CODE:NOROOT(2)
        CFI Block cfiBlock44 Using cfiCommon0
        CFI NoFunction
        THUMB
??shift_block??rT:
        BX       PC
        Nop      
        CFI EndBlock cfiBlock44
        REQUIRE shift_block

        RSEG CODE:CODE:NOROOT(2)
        CFI Block cfiBlock45 Using cfiCommon1
        CFI Function shift_block
        ARM
// __??Code32?? __code __interwork __atpcs void shift_block(int)
shift_block:
        LDR      R2,??DataTable39  ;; lang
        PUSH     {R4}
        CFI R4 Frame(CFA, -4)
        CFI CFA R13+4
        MOV      R1,#+392
        LDR      R3,[R1, +R2]
        MOV      R12,R0
        RSB      R12,R12,#+0
        CMP      R3,R12
        MOVLT    R3,#+0
        BLT      ??shift_block_0
        LDR      R12,[R2, #+404]
        ADD      R3,R0,R3
        ADD      R4,R12,R3
        CMP      R4,#+133
        CMPGE    R0,#+1
        RSBGE    R3,R12,#+132
??shift_block_0:
        STR      R3,[R1, +R2]
        POP      {R4}
        CFI R4 SameValue
        CFI CFA R13+0
        BX       LR               ;; return
        CFI EndBlock cfiBlock45

        RSEG CODE:CODE:NOROOT(2)
        CFI Block cfiBlock46 Using cfiCommon0
        CFI NoFunction
        THUMB
??shift_cpu??rT:
        BX       PC
        Nop      
        CFI EndBlock cfiBlock46
        REQUIRE shift_cpu

        RSEG CODE:CODE:NOROOT(2)
        CFI Block cfiBlock47 Using cfiCommon1
        CFI Function shift_cpu
        ARM
// __??Code32?? __code __interwork __atpcs void shift_cpu(int)
shift_cpu:
        LDR      R2,??DataTable39  ;; lang
        PUSH     {R4}
        CFI R4 Frame(CFA, -4)
        CFI CFA R13+4
        MOV      R1,#+428
        LDR      R3,[R1, +R2]
        MOV      R12,R0
        RSB      R12,R12,#+0
        CMP      R3,R12
        MOVLT    R3,#+0
        BLT      ??shift_cpu_0
        LDR      R12,[R2, #+440]
        ADD      R3,R0,R3
        ADD      R4,R12,R3
        CMP      R4,#+133
        CMPGE    R0,#+1
        RSBGE    R3,R12,#+132
??shift_cpu_0:
        STR      R3,[R1, +R2]
        POP      {R4}
        CFI R4 SameValue
        CFI CFA R13+0
        BX       LR               ;; return
        CFI EndBlock cfiBlock47

        RSEG CODE:CODE:NOROOT(2)
        CFI Block cfiBlock48 Using cfiCommon0
        CFI NoFunction
        THUMB
??move_ball??rT:
        BX       PC
        Nop      
        CFI EndBlock cfiBlock48
        REQUIRE move_ball

        RSEG CODE:CODE:NOROOT(2)
        CFI Block cfiBlock49 Using cfiCommon1
        CFI Function move_ball
        ARM
// __??Code32?? __code __interwork __atpcs void move_ball()
move_ball:
        PUSH     {R4-R11,LR}
        CFI ?RET Frame(CFA, -4)
        CFI R11 Frame(CFA, -8)
        CFI R10 Frame(CFA, -12)
        CFI R9 Frame(CFA, -16)
        CFI R8 Frame(CFA, -20)
        CFI R7 Frame(CFA, -24)
        CFI R6 Frame(CFA, -28)
        CFI R5 Frame(CFA, -32)
        CFI R4 Frame(CFA, -36)
        CFI CFA R13+36
        LDR      R5,??DataTable39  ;; lang
        SUB      SP,SP,#+4
        CFI CFA R13+40
        MOV      R4,#+388
        LDR      R0,[R4, +R5]
        MOV      R6,#+360
        LDR      R1,[R6, +R5]
        MOV      R2,R0
        ADD      R12,R0,R1
        LDR      R0,[R5, #+368]
        MOV      R9,#+392
        LDR      R3,[R9, +R5]
        MOV      R7,#+356
        LDR      R1,[R7, +R5]
        RSB      R2,R2,#+0
        STR      R2,[SP, #+0]
        MOV      R8,#+384
        ADD      R2,R0,R1
        CMP      R2,R3
        BLT      ??move_ball_0
        MOV      R2,#+404
        LDR      R10,[R2, +R5]
        ADD      R3,R10,R3
        CMP      R3,R1
        BLT      ??move_ball_0
        LDR      LR,[R5, #+400]
        MOV      R3,#+396
        LDR      R10,[R3, +R5]
        SUB      R10,R10,LR
        CMP      R10,R12
        BGE      ??move_ball_0
        LDR      R10,[SP, #+0]
        LDR      R9,[R9, +R5]
        STR      R10,[R4, +R5]
        ADD      R10,R0,R0, LSR #+31
        ASR      R12,R10,#+1
        SUB      R10,R9,R12
        CMP      R10,R1
        LDRGE    R10,[R8, +R5]
        CMPGE    R10,#+1
        BGE      ??move_ball_1
        LDR      R2,[R2, +R5]
        LDR      LR,[R8, +R5]
        ADD      R2,R2,R9
        SUB      R2,R2,R12
        CMP      R1,R2
        BLT      ??move_ball_2
        CMP      LR,#+0
        BPL      ??move_ball_2
??move_ball_1:
        LDR      R0,[R8, +R5]
        LDR      R1,[R5, #+364]
        RSB      R0,R0,#+0
        STR      R0,[R8, +R5]
        LDR      R0,[R3, +R5]
        SUB      R0,R0,R1
??move_ball_3:
        STR      R0,[R6, +R5]
        B        ??move_ball_4
??move_ball_2:
        LDR      R0,[R5, #+420]
        SUBS     R0,R0,#+1
        BEQ      ??move_ball_5
        SUBS     R0,R0,#+1
        BEQ      ??move_ball_6
        B        ??move_ball_4
??move_ball_5:
        SUB      R0,LR,#+2
        B        ??move_ball_7
??move_ball_6:
        ADD      R0,LR,#+2
??move_ball_7:
        STR      R0,[R8, +R5]
??move_ball_4:
        LDR      R0,[R5, #+612]
        CMP      R0,#+1
        BNE      ??move_ball_8
        BL       Play
??move_ball_8:
        MOV      R1,#+2
        MOV      R0,#+0
        BL       start_vibra
??move_ball_9:
        LDR      R0,[R8, +R5]
        CMP      R0,#+8
        BLT      ??move_ball_10
        MOV      R0,#+7
        STR      R0,[R8, +R5]
        B        ??move_ball_11
??move_ball_0:
        MOV      R9,#+428
        LDR      R2,[R9, +R5]
        CMP      R1,R2
        BLT      ??move_ball_9
        MOV      LR,#+440
        LDR      R3,[LR, +R5]
        ADD      R2,R3,R2
        CMP      R2,R1
        BLT      ??move_ball_9
        MOV      R2,#+436
        LDR      R11,[R2, +R5]
        MOV      R3,#+432
        LDR      R10,[R3, +R5]
        ADD      R10,R11,R10
        CMP      R12,R10
        BGE      ??move_ball_9
        LDR      R10,[SP, #+0]
        LDR      R9,[R9, +R5]
        STR      R10,[R4, +R5]
        ADD      R10,R0,R0, LSR #+31
        ASR      R12,R10,#+1
        SUB      R10,R9,R12
        CMP      R10,R1
        LDRGE    R10,[R8, +R5]
        CMPGE    R10,#+1
        BGE      ??move_ball_12
        LDR      R10,[LR, +R5]
        LDR      LR,[R8, +R5]
        ADD      R11,R10,R9
        SUB      R11,R11,R12
        CMP      R1,R11
        BLT      ??move_ball_13
        CMP      LR,#+0
        BPL      ??move_ball_13
??move_ball_12:
        LDR      R0,[R8, +R5]
        LDR      R1,[R2, +R5]
        RSB      R0,R0,#+0
        STR      R0,[R8, +R5]
        LDR      R0,[R3, +R5]
        ADD      R0,R1,R0
        B        ??move_ball_3
??move_ball_13:
        ADD      R0,R10,R10, LSR #+31
        ADD      R0,R9,R0, ASR #+1
        CMP      R1,R0
        SUBLT    R0,LR,#+1
        ADDGE    R0,LR,#+1
        B        ??move_ball_7
??move_ball_10:
        MVN      R1,#+6
        CMP      R0,R1
        STRLT    R1,[R8, +R5]
??move_ball_11:
        LDR      R0,[R8, +R5]
        LDR      R1,[R7, +R5]
        ADD      R1,R0,R1
        CMP      R1,#+2
        BGE      ??move_ball_14
        MOV      R1,#+1
        STR      R1,[R7, +R5]
        RSB      R0,R0,#+0
        STR      R0,[R8, +R5]
??move_ball_14:
        LDR      R0,[R5, #+368]
        LDR      R1,[R8, +R5]
        LDR      R2,[R7, +R5]
        RSB      R0,R0,#+131
        ADD      R2,R1,R2
        CMP      R2,R0
        STRGE    R0,[R7, +R5]
        RSBGE    R0,R1,#+0
        STRGE    R0,[R8, +R5]
        LDR      R0,[R7, +R5]
        LDR      R1,[R8, +R5]
        ADD      R0,R1,R0
        LDR      R1,[R4, +R5]
        STR      R0,[R7, +R5]
        LDR      R0,[R6, +R5]
        ADD      R0,R1,R0
        STR      R0,[R6, +R5]
        BL       AI
        BL       win
        POP      {R0,R4-R11,PC}   ;; return
        CFI EndBlock cfiBlock49

        RSEG CODE:CODE:NOROOT(2)
        CFI Block cfiBlock50 Using cfiCommon0
        CFI NoFunction
        THUMB
??AI??rT:
        BX       PC
        Nop      
        CFI EndBlock cfiBlock50
        REQUIRE AI

        RSEG CODE:CODE:NOROOT(2)
        CFI Block cfiBlock51 Using cfiCommon1
        CFI Function AI
        ARM
// __??Code32?? __code __interwork __atpcs void AI()
AI:
        PUSH     {R4-R7,LR}
        CFI ?RET Frame(CFA, -4)
        CFI R7 Frame(CFA, -8)
        CFI R6 Frame(CFA, -12)
        CFI R5 Frame(CFA, -16)
        CFI R4 Frame(CFA, -20)
        CFI CFA R13+20
        LDR      R4,??DataTable39  ;; lang
        LDR      R1,[R4, #+360]
        LDR      R12,[R4, #+648]
        MOV      R5,#+444
        LDR      R0,[R5, +R4]
        MOV      R7,#+440
        LDR      R3,[R7, +R4]
        MOV      R6,#+428
        LDR      R2,[R6, +R4]
        CMP      R1,R12
        BGE      ??AI_0
        LDR      R5,[R4, #+368]
        ADD      R1,R3,R3, LSR #+31
        ADD      R6,R2,R1, ASR #+1
        ADD      R1,R5,R5, LSR #+31
        ASR      R7,R1,#+1
        LDR      R1,[R4, #+384]
        LDR      R4,[R4, #+356]
        ADD      R12,R7,R6
        CMP      R4,R12
        BLT      ??AI_1
        CMP      R1,R0
        BGE      ??AI_2
        ADD      R3,R3,R3, LSL #+1
        ASR      R5,R3,#+1
        ADD      R3,R3,R5, LSR #+30
        ADD      R2,R2,R3, ASR #+2
        CMP      R4,R2
        BGE      ??AI_2
        CMP      R1,#+0
        BMI      ??AI_2
??AI_3:
        MOV      R0,R1
??AI_4:
        B        ??AI_2
??AI_1:
        SUB      R6,R6,R7
        CMP      R6,R4
        POPLT    {R4-R7,PC}
        RSB      R0,R0,#+0
        CMP      R0,R1
        BGE      ??AI_2
        ASR      R5,R3,#+1
        ADD      R3,R3,R5, LSR #+30
        ADD      R2,R2,R3, ASR #+2
        CMP      R2,R4
        BGE      ??AI_2
        CMP      R1,#+1
        BLT      ??AI_3
        BL       shift_cpu
        POP      {R4-R7,PC}
??AI_0:
        ADD      R1,R3,R3, LSR #+31
        CMP      R2,R1, ASR #+1
        BGE      ??AI_5
        BL       shift_cpu
??AI_5:
        LDR      R0,[R7, +R4]
        MOV      R1,#+132
        ADD      R2,R0,R0, LSR #+31
        SUB      R1,R1,R2, ASR #+1
        LDR      R2,[R6, +R4]
        ADD      R0,R0,R2
        CMP      R1,R0
        POPGE    {R4-R7,PC}
        LDR      R0,[R5, +R4]
        RSB      R0,R0,#+0
??AI_2:
        BL       shift_cpu
        POP      {R4-R7,PC}       ;; return
        CFI EndBlock cfiBlock51

        RSEG CODE:CODE:NOROOT(2)
        CFI Block cfiBlock52 Using cfiCommon0
        CFI NoFunction
        THUMB
??start_vibra??rT:
        BX       PC
        Nop      
        CFI EndBlock cfiBlock52
        REQUIRE start_vibra

        RSEG CODE:CODE:NOROOT(2)
        CFI Block cfiBlock53 Using cfiCommon1
        CFI Function start_vibra
        ARM
// __??Code32?? __code __interwork __atpcs void start_vibra(int, int)
start_vibra:
        PUSH     {R4-R6,LR}
        CFI ?RET Frame(CFA, -4)
        CFI R6 Frame(CFA, -8)
        CFI R5 Frame(CFA, -12)
        CFI R4 Frame(CFA, -16)
        CFI CFA R13+16
        LDR      R6,??DataTable39  ;; lang
        MOV      R4,R0
        LDR      R0,[R6, #+636]
        MOV      R5,R1
        CMP      R0,#+0
        POPEQ    {R4-R6,PC}
        SWI      +110
        CMP      R0,#+0
        POPNE    {R4-R6,PC}
        CMP      R4,#+0
        BEQ      ??start_vibra_0
        SUBS     R4,R4,#+1
        BNE      ??start_vibra_1
        MOV      R0,#+15
        B        ??start_vibra_2
??start_vibra_0:
        MOV      R0,#+40
??start_vibra_2:
        SWI      +124
??start_vibra_1:
        LDR      R2,??start_vibra_3  ;; stop_vibra
        MOV      R0,#+108
        ASR      R1,R0,R5
        ADD      R0,R6,#+684
        SWI      +77
        POP      {R4-R6,PC}       ;; return
        DATA
??start_vibra_3:
        DC32     stop_vibra
        CFI EndBlock cfiBlock53

        RSEG CODE:CODE:NOROOT(2)
        CFI Block cfiBlock54 Using cfiCommon0
        CFI NoFunction
        THUMB
??stop_vibra??rT:
        BX       PC
        Nop      
        CFI EndBlock cfiBlock54
        REQUIRE stop_vibra

        RSEG CODE:CODE:NOROOT(2)
        CFI Block cfiBlock55 Using cfiCommon1
        CFI Function stop_vibra
        ARM
// __??Code32?? __code __interwork __atpcs void stop_vibra(void)
stop_vibra:
        PUSH     {LR}
        CFI ?RET Frame(CFA, -4)
        CFI CFA R13+4
        MOV      R0,#+0
        SWI      +124
        POP      {PC}             ;; return
        CFI EndBlock cfiBlock55

        RSEG CODE:CODE:NOROOT(2)
        CFI Block cfiBlock56 Using cfiCommon0
        CFI NoFunction
        THUMB
??win??rT:
        BX       PC
        Nop      
        CFI EndBlock cfiBlock56
        REQUIRE win

        RSEG CODE:CODE:NOROOT(2)
        CFI Block cfiBlock57 Using cfiCommon1
        CFI Function win
        ARM
// __??Code32?? __code __interwork __atpcs void win()
win:
        PUSH     {R4-R11,LR}
        CFI ?RET Frame(CFA, -4)
        CFI R11 Frame(CFA, -8)
        CFI R10 Frame(CFA, -12)
        CFI R9 Frame(CFA, -16)
        CFI R8 Frame(CFA, -20)
        CFI R7 Frame(CFA, -24)
        CFI R6 Frame(CFA, -28)
        CFI R5 Frame(CFA, -32)
        CFI R4 Frame(CFA, -36)
        CFI CFA R13+36
        LDR      R9,??DataTable39  ;; lang
        LDR      R5,??DataTable40  ;; name
        MOV      R0,#+48
        SWI      +293
        MOV      R4,R0
        LDR      R0,[R9, #+596]
        MOV      R6,#+412
        MOV      R7,#+448
        MOV      R8,#+1
        CMP      R0,#+1
        BNE      ??win_0
        LDR      R0,[R9, #+528]
        LDR      R1,??win_1       ;; `?<Constant "%t:%d %d cpu:%d %d \\302\\360...">`
        PUSH     {R0}
        CFI CFA R13+40
        MOV      R11,#+452
        LDR      R0,[R11, +R9]
        MOV      R10,#+416
        PUSH     {R0}
        CFI CFA R13+44
        LDR      R0,[R7, +R9]
        MOV      R2,R5
        PUSH     {R0}
        CFI CFA R13+48
        LDR      R0,[R10, +R9]
        PUSH     {R0}
        CFI CFA R13+52
        LDR      R3,[R6, +R9]
        MOV      R0,R4
        SWI      +292
        LDR      R1,[R9, #+400]
        LDR      R0,[R9, #+360]
        LDR      R2,[R9, #+396]
        ADD      R1,R1,R1, LSR #+31
        ADD      R1,R2,R1, ASR #+1
        CMP      R1,R0
        ADD      SP,SP,#+16
        CFI CFA R13+36
        BGE      ??win_2
        LDR      R0,[R6, +R9]
        MOV      R1,#+1
        SUB      R0,R0,#+1
        STR      R0,[R6, +R9]
        MOV      R0,R1
        BL       start_vibra
        MOV      R0,#+0
        STR      R0,[R9, #+604]
        BL       setgame
        MOV      R0,R8
        B        ??win_3
??win_2:
        LDR      R1,[R9, #+436]
        LDR      R2,[R9, #+432]
        ADD      R1,R1,R1, LSR #+31
        SUB      R1,R2,R1, ASR #+1
        CMP      R0,R1
        BGE      ??win_4
        LDR      R0,[R7, +R9]
        MOV      R1,#+1
        SUB      R0,R0,#+1
        STR      R0,[R7, +R9]
        MOV      R0,R1
        BL       start_vibra
        STR      R8,[R9, #+604]
        MOV      R0,#+0
        BL       setgame
        MOV      R0,#+2
??win_3:
        BL       stop
??win_4:
        LDR      R0,[R6, +R9]
        CMP      R0,#+0
        BNE      ??win_5
        BL       gameover
        LDR      R0,[R11, +R9]
        ADD      R0,R0,#+1
        STR      R0,[R11, +R9]
??win_5:
        LDR      R0,[R7, +R9]
        CMP      R0,#+0
        BNE      ??win_0
        BL       gameover
        LDR      R0,[R10, +R9]
        ADD      R0,R0,#+1
        STR      R0,[R10, +R9]
??win_0:
        LDR      R0,[R9, #+596]
        CMP      R0,#+0
        BNE      ??win_6
        LDR      R1,[R9, #+400]
        LDR      R0,[R9, #+360]
        LDR      R2,[R9, #+396]
        ADD      R1,R1,R1, LSR #+31
        ADD      R1,R2,R1, ASR #+1
        CMP      R1,R0
        BGE      ??win_7
        LDR      R0,[R7, +R9]
        MOV      R1,#+1
        ADD      R0,R0,#+1
        STR      R0,[R7, +R9]
        MOV      R0,R1
        BL       start_vibra
        MOV      R0,#+0
        STR      R0,[R9, #+604]
        BL       setgame
        MOV      R0,R8
        B        ??win_8
??win_7:
        LDR      R1,[R9, #+436]
        LDR      R2,[R9, #+432]
        ADD      R1,R1,R1, LSR #+31
        SUB      R1,R2,R1, ASR #+1
        CMP      R0,R1
        BGE      ??win_9
        LDR      R0,[R6, +R9]
        MOV      R1,#+1
        ADD      R0,R0,#+1
        STR      R0,[R6, +R9]
        MOV      R0,R1
        BL       start_vibra
        LDR      R0,[R9, #+648]
        STR      R8,[R9, #+604]
        SUB      R0,R0,#+3
        STR      R0,[R9, #+648]
        MOV      R0,#+444
        LDR      R1,[R0, +R9]
        ADD      R1,R1,#+1
        STR      R1,[R0, +R9]
        MOV      R0,#+408
        LDR      R1,[R0, +R9]
        CMP      R1,#+6
        SUBGE    R1,R1,#+1
        STRGE    R1,[R0, +R9]
        MOV      R0,#+0
        BL       setgame
        MOV      R0,#+2
??win_8:
        BL       stop
??win_9:
        LDR      R0,[R9, #+528]
        LDR      R1,??win_1+0x4   ;; `?<Constant "%t:%d %d cpu:%d %d \\302\\360...">` + 32
        PUSH     {R0}
        CFI CFA R13+40
        LDR      R0,[R7, +R9]
        MOV      R2,R5
        PUSH     {R0}
        CFI CFA R13+44
        LDR      R3,[R6, +R9]
        MOV      R0,R4
        SWI      +292
        ADD      SP,SP,#+8
        CFI CFA R13+36
??win_6:
        MOV      R0,#+9
        SWI      +302
        MOV      R5,R0
        MOV      R0,#+5
        SWI      +453
        MOV      R6,R0
        MOV      R1,#+5
        MOV      R0,R4
        SWI      +520
        MOV      R1,#+0
        PUSH     {R1}
        CFI CFA R13+40
        PUSH     {R5}
        CFI CFA R13+44
        ADD      R3,R0,#+2
        MOV      R1,#+1
        PUSH     {R1}
        CFI CFA R13+48
        MOV      R2,R8
        MOV      R0,R4
        MOV      R1,#+5
        PUSH     {R1}
        CFI CFA R13+52
        ADD      R1,R6,#+1
        PUSH     {R1}
        CFI CFA R13+56
        MOV      R1,#+2
        SWI      +332
        MOV      R0,R4
        SWI      +297
        ADD      SP,SP,#+20
        CFI CFA R13+36
        POP      {R4-R11,PC}      ;; return
        DATA
??win_1:
        DC32     `?<Constant "%t:%d %d cpu:%d %d \\302\\360...">`
        DC32     `?<Constant "%t:%d %d cpu:%d %d \\302\\360...">` + 32
        CFI EndBlock cfiBlock57

        RSEG CODE:CODE:NOROOT(2)
        DATA
??DataTable39:
        DC32     lang

        RSEG CODE:CODE:NOROOT(2)
        DATA
??DataTable40:
        DC32     name

        RSEG CODE:CODE:NOROOT(2)
        CFI Block cfiBlock58 Using cfiCommon0
        CFI NoFunction
        THUMB
??gameover??rT:
        BX       PC
        Nop      
        CFI EndBlock cfiBlock58
        REQUIRE gameover

        RSEG CODE:CODE:NOROOT(2)
        CFI Block cfiBlock59 Using cfiCommon1
        CFI Function gameover
        ARM
// __??Code32?? __code __interwork __atpcs void gameover()
gameover:
        PUSH     {R4-R6,LR}
        CFI ?RET Frame(CFA, -4)
        CFI R6 Frame(CFA, -8)
        CFI R5 Frame(CFA, -12)
        CFI R4 Frame(CFA, -16)
        CFI CFA R13+16
        LDR      R6,??DataTable44  ;; lang
        MOV      R5,#+412
        LDR      R0,[R5, +R6]
        MOV      R4,#+448
        CMP      R0,#+0
        LDREQ    R0,[R6, #+188]
        BEQ      ??gameover_0
        LDR      R0,[R4, +R6]
        CMP      R0,#+0
        BNE      ??gameover_1
        LDR      R0,[R6, #+192]
??gameover_0:
        BL       outtextxy
??gameover_1:
        LDR      R0,[R6, #+592]
        STR      R0,[R4, +R6]
        STR      R0,[R5, +R6]
        POP      {R4-R6,PC}       ;; return
        CFI EndBlock cfiBlock59

        RSEG CODE:CODE:NOROOT(2)
        CFI Block cfiBlock60 Using cfiCommon0
        CFI NoFunction
        THUMB
??setgame??rT:
        BX       PC
        Nop      
        CFI EndBlock cfiBlock60
        REQUIRE setgame

        RSEG CODE:CODE:NOROOT(2)
        CFI Block cfiBlock61 Using cfiCommon1
        CFI Function setgame
        ARM
// __??Code32?? __code __interwork __atpcs void setgame(int)
setgame:
        LDR      R1,??DataTable48  ;; lang
        PUSH     {R4-R7}
        CFI R7 Frame(CFA, -4)
        CFI R6 Frame(CFA, -8)
        CFI R5 Frame(CFA, -12)
        CFI R4 Frame(CFA, -16)
        CFI CFA R13+16
        LDR      R7,[R1, #+596]
        MOV      R2,#+12
        MOV      R3,#+17
        MOV      R12,#+10
        MOV      R5,#+412
        MOV      R6,#+448
        MOV      R4,#+0
        CMP      R7,#+0
        BEQ      ??setgame_0
        SUBS     R7,R7,#+1
        BNE      ??setgame_1
        CMP      R0,#+0
        LDRNE    R0,[R1, #+592]
        STRNE    R0,[R6, +R1]
        LDR      R6,[R1, #+588]
        STRNE    R0,[R5, +R1]
        MOV      R0,#+444
        MOV      R5,#+408
        CMP      R6,#+0
        BEQ      ??setgame_2
        SUBS     R6,R6,#+1
        BEQ      ??setgame_3
        SUBS     R6,R6,#+1
        BEQ      ??setgame_4
        B        ??setgame_1
??setgame_2:
        MOV      R6,#+70
        STR      R6,[R1, #+648]
        STR      R2,[R5, +R1]
        STR      R12,[R0, +R1]
        B        ??setgame_1
??setgame_3:
        MOV      R6,#+55
        STR      R6,[R1, #+648]
        MOV      R6,#+11
        STR      R6,[R5, +R1]
        STR      R6,[R0, +R1]
        B        ??setgame_1
??setgame_4:
        MOV      R6,#+45
        STR      R6,[R1, #+648]
        STR      R12,[R5, +R1]
        STR      R3,[R0, +R1]
        B        ??setgame_1
??setgame_0:
        MOV      R7,#+60
        STR      R7,[R1, #+648]
        CMP      R0,#+0
        STRNE    R4,[R6, +R1]
        STRNE    R4,[R5, +R1]
??setgame_1:
        LDR      R0,[R1, #+404]
        LDR      R7,[R1, #+568]
        MOV      R5,#+400
        LDR      R6,[R5, +R1]
        RSB      R0,R0,#+132
        ADD      R0,R0,R0, LSR #+31
        ASR      R0,R0,#+1
        STR      R0,[R1, #+392]
        MOV      R0,#+396
        RSB      R6,R6,#+175
        STR      R6,[R0, +R1]
        LDR      R6,[R1, #+368]
        STR      R4,[R1, #+420]
        RSB      R6,R6,#+132
        ADD      R6,R6,R6, LSR #+31
        ASR      R6,R6,#+1
        STR      R6,[R1, #+356]
        LDR      R6,[R1, #+440]
        CMP      R7,#+64
        LDR      R7,??setgame_5   ;; rndtable
        STREQ    R4,[R1, #+568]
        LDR      R4,[R1, #+568]
        RSB      R6,R6,#+132
        ADD      R6,R6,R6, LSR #+31
        ASR      R6,R6,#+1
        STR      R6,[R1, #+428]
        MOV      R6,#+432
        STR      R2,[R6, +R1]
        ADD      R4,R4,#+1
        STR      R4,[R1, #+568]
        ADD      R4,R7,R4, LSL #+2
        LDR      R4,[R4, #-20]
        LDR      R7,[R1, #+600]
        STR      R4,[R1, #+384]
        MOV      R4,#+388
        CMP      R7,#+0
        BEQ      ??setgame_6
        SUBS     R7,R7,#+1
        BEQ      ??setgame_7
        SUBS     R7,R7,#+1
        BEQ      ??setgame_8
        SUBS     R7,R7,#+1
        STREQ    R3,[R4, +R1]
        B        ??setgame_9
??setgame_6:
        STR      R12,[R4, +R1]
        B        ??setgame_9
??setgame_7:
        STR      R2,[R4, +R1]
        B        ??setgame_9
??setgame_8:
        MOV      R2,#+14
        B        ??setgame_7
??setgame_9:
        LDR      R3,[R1, #+604]
        MOV      R2,#+360
        CMP      R3,#+0
        BEQ      ??setgame_10
        SUBS     R3,R3,#+1
        BNE      ??setgame_11
        LDR      R3,[R4, +R1]
        LDR      R0,[R0, +R1]
        RSB      R3,R3,#+0
        STR      R3,[R4, +R1]
        LDR      R3,[R5, +R1]
        SUB      R0,R0,R3
        B        ??setgame_12
??setgame_10:
        LDR      R0,[R6, +R1]
        LDR      R3,[R1, #+436]
        ADD      R0,R3,R0
??setgame_12:
        STR      R0,[R2, +R1]
??setgame_11:
        MOV      R0,#+5
        STRB     R0,[R1, #+664]
        POP      {R4-R7}
        CFI R4 SameValue
        CFI R5 SameValue
        CFI R6 SameValue
        CFI R7 SameValue
        CFI CFA R13+0
        BX       LR               ;; return
        DATA
??setgame_5:
        DC32     rndtable
        CFI EndBlock cfiBlock61

        RSEG CODE:CODE:NOROOT(2)
        CFI Block cfiBlock62 Using cfiCommon0
        CFI NoFunction
        THUMB
??setpause??rT:
        BX       PC
        Nop      
        CFI EndBlock cfiBlock62
        REQUIRE setpause

        RSEG CODE:CODE:NOROOT(2)
        CFI Block cfiBlock63 Using cfiCommon1
        CFI Function setpause
        ARM
// __??Code32?? __code __interwork __atpcs void setpause()
setpause:
        PUSH     {R4,R5,LR}
        CFI ?RET Frame(CFA, -4)
        CFI R5 Frame(CFA, -8)
        CFI R4 Frame(CFA, -12)
        CFI CFA R13+12
        LDR      R4,??DataTable44  ;; lang
        LDR      R0,[R4, #+572]
        CMP      R0,#+0
        BEQ      ??setpause_0
        MOV      R0,#+0
        STR      R0,[R4, #+572]
        BL       RedrawScreen
        MOV      R5,#+668
        ADD      R0,R5,R4
        SWI      +422
        CMP      R0,#+0
        BEQ      ??setpause_1
        ADD      R0,R5,R4
        SWI      +324
??setpause_1:
        LDR      R0,[R4, #+616]
        SWI      +551
        LDR      R0,[R4, #+200]
        BL       outtextxy
        POP      {R4,R5,PC}
??setpause_0:
        MOV      R0,#+5
        STRB     R0,[R4, #+664]
        MOV      R0,#+1
        STR      R0,[R4, #+572]
        LDR      R0,[R4, #+612]
        CMP      R0,#+0
        BEQ      ??setpause_2
        LDR      R0,[R4, #+616]
        SWI      +552
??setpause_2:
        BL       RedrawScreen
        POP      {R4,R5,PC}       ;; return
        CFI EndBlock cfiBlock63

        RSEG CODE:CODE:NOROOT(2)
        CFI Block cfiBlock64 Using cfiCommon0
        CFI NoFunction
        THUMB
??stop??rT:
        BX       PC
        Nop      
        CFI EndBlock cfiBlock64
        REQUIRE stop

        RSEG CODE:CODE:NOROOT(2)
        CFI Block cfiBlock65 Using cfiCommon1
        CFI Function stop
        ARM
// __??Code32?? __code __interwork __atpcs void stop(int)
stop:
        PUSH     {R4-R6,LR}
        CFI ?RET Frame(CFA, -4)
        CFI R6 Frame(CFA, -8)
        CFI R5 Frame(CFA, -12)
        CFI R4 Frame(CFA, -16)
        CFI CFA R13+16
        LDR      R5,??DataTable44  ;; lang
        MOV      R4,R0
        LDR      R0,[R5, #+572]
        CMP      R0,#+0
        BEQ      ??stop_0
        MOV      R0,#+0
        STR      R0,[R5, #+572]
        BL       RedrawScreen
        MOV      R6,#+668
        ADD      R0,R6,R5
        SWI      +422
        CMP      R0,#+0
        BEQ      ??stop_0
        ADD      R0,R6,R5
        SWI      +396
??stop_0:
        SUBS     R4,R4,#+1
        BEQ      ??stop_1
        SUBS     R4,R4,#+1
        BEQ      ??stop_2
        POP      {R4-R6,PC}
??stop_1:
        LDR      R0,[R5, #+204]
        BL       outtextxy
        POP      {R4-R6,PC}
??stop_2:
        LDR      R0,[R5, #+208]
        BL       outtextxy
        POP      {R4-R6,PC}       ;; return
        CFI EndBlock cfiBlock65

        RSEG CODE:CODE:NOROOT(2)
        DATA
??DataTable44:
        DC32     lang

        RSEG CODE:CODE:NOROOT(2)
        CFI Block cfiBlock66 Using cfiCommon0
        CFI NoFunction
        THUMB
??lgpInitLangPack??rT:
        BX       PC
        Nop      
        CFI EndBlock cfiBlock66
        REQUIRE lgpInitLangPack
//   18 #include "lang.c"

        RSEG CODE:CODE:NOROOT(2)
        CFI Block cfiBlock67 Using cfiCommon1
        CFI Function lgpInitLangPack
        ARM
// __??Code32?? __code __interwork __atpcs void lgpInitLangPack()
lgpInitLangPack:
        PUSH     {R4-R6,LR}
        CFI ?RET Frame(CFA, -4)
        CFI R6 Frame(CFA, -8)
        CFI R5 Frame(CFA, -12)
        CFI R4 Frame(CFA, -16)
        CFI CFA R13+16
        LDR      R4,??DataTable45  ;; lang
        LDR      R5,??lgpInitLangPack_0  ;; `?<Constant "\\317\\363\\362\\374">`
        LDR      R1,[R4, #+632]
        LDR      R0,[R4, #+0]
        CMP      R1,#+1
        BNE      ??lgpInitLangPack_1
        ADD      R1,R5,#+764
        SWI      +26
        LDR      R0,[R4, #+4]
        ADD      R1,R5,#+776
        SWI      +26
        LDR      R0,[R4, #+8]
        ADD      R1,R5,#+784
        SWI      +26
        LDR      R0,[R4, #+12]
        ADD      R1,R5,#+796
        SWI      +26
        LDR      R0,[R4, #+16]
        ADD      R1,R5,#+812
        SWI      +26
        LDR      R0,[R4, #+20]
        ADD      R1,R5,#+820
        SWI      +26
        LDR      R0,[R4, #+24]
        ADD      R1,R5,#+828
        SWI      +26
        LDR      R0,[R4, #+28]
        ADD      R1,R5,#+836
        SWI      +26
        LDR      R0,[R4, #+32]
        ADD      R1,R5,#+848
        SWI      +26
        LDR      R0,[R4, #+36]
        ADD      R1,R5,#+860
        SWI      +26
        LDR      R0,[R4, #+40]
        ADD      R1,R5,#+872
        SWI      +26
        LDR      R0,[R4, #+44]
        ADD      R1,R5,#+884
        SWI      +26
        LDR      R0,[R4, #+48]
        ADD      R1,R5,#+892
        SWI      +26
        LDR      R0,[R4, #+52]
        ADD      R1,R5,#+912
        SWI      +26
        LDR      R0,[R4, #+56]
        ADD      R1,R5,#+920
        SWI      +26
        LDR      R0,[R4, #+60]
        ADD      R1,R5,#+928
        SWI      +26
        LDR      R0,[R4, #+64]
        ADD      R1,R5,#+940
        SWI      +26
        LDR      R0,[R4, #+68]
        MOV      R6,#+948
        ADD      R1,R6,R5
        SWI      +26
        LDR      R0,[R4, #+72]
        ADD      R1,R5,#+960
        SWI      +26
        LDR      R0,[R4, #+76]
        ADD      R1,R5,#+968
        SWI      +26
        LDR      R0,[R4, #+80]
        ADD      R1,R5,#+976
        SWI      +26
        LDR      R0,[R4, #+84]
        ADD      R1,R6,R5
        SWI      +26
        LDR      R0,[R4, #+88]
        ADD      R1,R5,#+984
        SWI      +26
        LDR      R0,[R4, #+92]
        ADD      R1,R5,#+996
        SWI      +26
        LDR      R0,[R4, #+96]
        ADD      R1,R5,#+1008
        SWI      +26
        LDR      R0,[R4, #+100]
        ADD      R1,R5,#+1016
        SWI      +26
        LDR      R0,[R4, #+104]
        ADD      R1,R5,#+272
        SWI      +26
        ADD      R0,R6,#+104
        ADD      R1,R0,R5
        LDR      R0,[R4, #+108]
        SWI      +26
        ADD      R0,R6,#+116
        ADD      R1,R0,R5
        LDR      R0,[R4, #+112]
        SWI      +26
        ADD      R0,R6,#+128
        ADD      R1,R0,R5
        LDR      R0,[R4, #+116]
        SWI      +26
        ADD      R0,R6,#+136
        ADD      R1,R0,R5
        LDR      R0,[R4, #+120]
        SWI      +26
        ADD      R0,R6,#+144
        ADD      R1,R0,R5
        LDR      R0,[R4, #+124]
        SWI      +26
        LDR      R0,[R4, #+128]
        ADD      R1,R5,#+1104
        SWI      +26
        ADD      R0,R6,#+164
        ADD      R1,R0,R5
        LDR      R0,[R4, #+132]
        SWI      +26
        LDR      R0,[R4, #+136]
        ADD      R1,R5,#+1120
        SWI      +26
        ADD      R0,R6,#+184
        ADD      R1,R0,R5
        LDR      R0,[R4, #+140]
        SWI      +26
        ADD      R0,R6,#+192
        ADD      R1,R0,R5
        LDR      R0,[R4, #+144]
        SWI      +26
        LDR      R0,[R4, #+148]
        ADD      R1,R5,#+1152
        SWI      +26
        ADD      R0,R6,#+216
        ADD      R1,R0,R5
        LDR      R0,[R4, #+152]
        SWI      +26
        ADD      R0,R6,#+228
        ADD      R1,R0,R5
        LDR      R0,[R4, #+156]
        SWI      +26
        ADD      R0,R6,#+240
        ADD      R1,R0,R5
        LDR      R0,[R4, #+160]
        SWI      +26
        LDR      R0,[R4, #+164]
        ADD      R1,R5,#+1200
        SWI      +26
        ADD      R0,R6,#+264
        ADD      R1,R0,R5
        LDR      R0,[R4, #+168]
        SWI      +26
        ADD      R0,R6,#+272
        ADD      R1,R0,R5
        LDR      R0,[R4, #+172]
        SWI      +26
        LDR      R0,[R4, #+176]
        ADD      R1,R5,#+1232
        SWI      +26
        ADD      R0,R6,#+308
        ADD      R1,R0,R5
        LDR      R0,[R4, #+180]
        SWI      +26
        ADD      R0,R6,#+324
        ADD      R1,R0,R5
        LDR      R0,[R4, #+184]
        SWI      +26
        ADD      R0,R6,#+372
        ADD      R1,R0,R5
        LDR      R0,[R4, #+188]
        SWI      +26
        LDR      R0,[R4, #+192]
        ADD      R1,R5,#+1328
        SWI      +26
        ADD      R0,R6,#+392
        ADD      R1,R0,R5
        LDR      R0,[R4, #+196]
        SWI      +26
        ADD      R0,R6,#+404
        ADD      R1,R0,R5
        LDR      R0,[R4, #+200]
        SWI      +26
        LDR      R0,[R4, #+204]
        ADD      R1,R5,#+1360
        SWI      +26
        ADD      R0,R6,#+424
        ADD      R1,R0,R5
        LDR      R0,[R4, #+208]
        SWI      +26
        ADD      R0,R6,#+436
        ADD      R1,R0,R5
        LDR      R0,[R4, #+212]
        SWI      +26
        ADD      R0,R6,#+484
        ADD      R1,R0,R5
        LDR      R0,[R4, #+216]
        SWI      +26
        ADD      R0,R6,#+532
        ADD      R1,R0,R5
        LDR      R0,[R4, #+220]
        SWI      +26
        ADD      R0,R6,#+564
        ADD      R1,R0,R5
        LDR      R0,[R4, #+224]
        SWI      +26
        ADD      R0,R6,#+616
        ADD      R1,R0,R5
        LDR      R0,[R4, #+228]
        SWI      +26
        LDR      R0,[R4, #+232]
        ADD      R1,R5,#+1600
        SWI      +26
        POP      {R4-R6,PC}
??lgpInitLangPack_1:
        MOV      R1,#+120
        ORR      R1,R1,#0x600
        ADD      R1,R1,R5
        SWI      +26
        MOV      R0,#+132
        ORR      R0,R0,#0x600
        ADD      R1,R0,R5
        LDR      R0,[R4, #+4]
        SWI      +26
        LDR      R0,[R4, #+8]
        ADD      R1,R5,#+1680
        SWI      +26
        LDR      R0,[R4, #+12]
        ADD      R1,R5,#+1696
        SWI      +26
        LDR      R0,[R4, #+16]
        ADD      R1,R5,#+1712
        SWI      +26
        MOV      R0,#+188
        ORR      R0,R0,#0x600
        ADD      R1,R0,R5
        LDR      R0,[R4, #+20]
        SWI      +26
        MOV      R0,#+200
        ORR      R0,R0,#0x600
        ADD      R1,R0,R5
        LDR      R0,[R4, #+24]
        SWI      +26
        LDR      R0,[R4, #+28]
        ADD      R1,R5,#+1744
        SWI      +26
        MOV      R0,#+220
        ORR      R0,R0,#0x600
        ADD      R1,R0,R5
        LDR      R0,[R4, #+32]
        SWI      +26
        MOV      R0,#+228
        ORR      R0,R0,#0x600
        ADD      R1,R0,R5
        LDR      R0,[R4, #+36]
        SWI      +26
        MOV      R0,#+244
        ORR      R0,R0,#0x600
        ADD      R1,R0,R5
        LDR      R0,[R4, #+40]
        SWI      +26
        LDR      R0,[R4, #+44]
        ADD      R1,R5,#+1792
        SWI      +26
        MOV      R0,#+8
        ORR      R0,R0,#0x700
        ADD      R1,R0,R5
        LDR      R0,[R4, #+48]
        SWI      +26
        MOV      R0,#+24
        ORR      R0,R0,#0x700
        ADD      R1,R0,R5
        LDR      R0,[R4, #+52]
        SWI      +26
        LDR      R0,[R4, #+56]
        MOV      R1,R5
        SWI      +26
        LDR      R0,[R4, #+60]
        ADD      R1,R5,#+8
        SWI      +26
        LDR      R0,[R4, #+64]
        ADD      R1,R5,#+20
        SWI      +26
        LDR      R0,[R4, #+68]
        ADD      R1,R5,#+28
        SWI      +26
        LDR      R0,[R4, #+72]
        ADD      R1,R5,#+40
        SWI      +26
        LDR      R0,[R4, #+76]
        ADD      R1,R5,#+52
        SWI      +26
        LDR      R0,[R4, #+80]
        ADD      R1,R5,#+64
        SWI      +26
        LDR      R0,[R4, #+84]
        ADD      R1,R5,#+28
        SWI      +26
        LDR      R0,[R4, #+88]
        ADD      R1,R5,#+76
        SWI      +26
        LDR      R0,[R4, #+92]
        ADD      R1,R5,#+88
        SWI      +26
        LDR      R0,[R4, #+96]
        ADD      R1,R5,#+104
        SWI      +26
        LDR      R0,[R4, #+100]
        ADD      R1,R5,#+112
        SWI      +26
        LDR      R0,[R4, #+104]
        ADD      R1,R5,#+136
        SWI      +26
        LDR      R0,[R4, #+108]
        ADD      R1,R5,#+144
        SWI      +26
        LDR      R0,[R4, #+112]
        ADD      R1,R5,#+156
        SWI      +26
        LDR      R0,[R4, #+116]
        ADD      R1,R5,#+168
        SWI      +26
        LDR      R0,[R4, #+120]
        ADD      R1,R5,#+176
        SWI      +26
        LDR      R0,[R4, #+124]
        ADD      R1,R5,#+184
        SWI      +26
        LDR      R0,[R4, #+128]
        ADD      R1,R5,#+196
        SWI      +26
        LDR      R0,[R4, #+132]
        ADD      R1,R5,#+208
        SWI      +26
        LDR      R0,[R4, #+136]
        ADD      R1,R5,#+220
        SWI      +26
        LDR      R0,[R4, #+140]
        ADD      R1,R5,#+232
        SWI      +26
        LDR      R0,[R4, #+144]
        ADD      R1,R5,#+240
        SWI      +26
        LDR      R0,[R4, #+148]
        ADD      R1,R5,#+252
        SWI      +26
        LDR      R0,[R4, #+152]
        ADD      R1,R5,#+260
        SWI      +26
        LDR      R0,[R4, #+156]
        ADD      R1,R5,#+280
        SWI      +26
        LDR      R0,[R4, #+160]
        ADD      R1,R5,#+1040
        SWI      +26
        LDR      R0,[R4, #+164]
        ADD      R1,R5,#+292
        SWI      +26
        LDR      R0,[R4, #+168]
        ADD      R1,R5,#+308
        SWI      +26
        LDR      R0,[R4, #+172]
        ADD      R1,R5,#+320
        SWI      +26
        LDR      R0,[R4, #+176]
        ADD      R1,R5,#+332
        SWI      +26
        LDR      R0,[R4, #+180]
        ADD      R1,R5,#+360
        SWI      +26
        LDR      R0,[R4, #+184]
        ADD      R1,R5,#+376
        SWI      +26
        LDR      R0,[R4, #+188]
        ADD      R1,R5,#+424
        SWI      +26
        LDR      R0,[R4, #+192]
        ADD      R1,R5,#+436
        SWI      +26
        LDR      R0,[R4, #+196]
        ADD      R1,R5,#+444
        SWI      +26
        LDR      R0,[R4, #+200]
        ADD      R1,R5,#+456
        SWI      +26
        LDR      R0,[R4, #+204]
        ADD      R1,R5,#+464
        SWI      +26
        LDR      R0,[R4, #+208]
        ADD      R1,R5,#+476
        SWI      +26
        LDR      R0,[R4, #+212]
        ADD      R1,R5,#+500
        SWI      +26
        LDR      R0,[R4, #+216]
        ADD      R1,R5,#+552
        SWI      +26
        LDR      R0,[R4, #+220]
        ADD      R1,R5,#+604
        SWI      +26
        LDR      R0,[R4, #+224]
        ADD      R1,R5,#+628
        SWI      +26
        LDR      R0,[R4, #+228]
        ADD      R1,R5,#+684
        SWI      +26
        LDR      R0,[R4, #+232]
        ADD      R1,R5,#+708
        SWI      +26
        POP      {R4-R6,PC}       ;; return
        DATA
??lgpInitLangPack_0:
        DC32     `?<Constant "\\317\\363\\362\\374">`
        CFI EndBlock cfiBlock67

        RSEG CODE:CODE:NOROOT(2)
        DATA
??DataTable45:
        DC32     lang

        RSEG CODE:CODE:NOROOT(2)
        CFI Block cfiBlock68 Using cfiCommon0
        CFI NoFunction
        THUMB
??left_but??rT:
        BX       PC
        Nop      
        CFI EndBlock cfiBlock68
        REQUIRE left_but
//   19 #include "keys.c"

        RSEG CODE:CODE:NOROOT(2)
        CFI Block cfiBlock69 Using cfiCommon1
        CFI Function left_but
        ARM
// __??Code32?? __code __interwork __atpcs void left_but()
left_but:
        LDR      R0,??DataTable48  ;; lang
        PUSH     {R4,R5,LR}
        CFI ?RET Frame(CFA, -4)
        CFI R5 Frame(CFA, -8)
        CFI R4 Frame(CFA, -12)
        CFI CFA R13+12
        LDR      R1,[R0, #+596]
        LDR      R2,[R0, #+580]
        LDRB     R5,[R0, #+664]
        MOV      R3,#+2
        MOV      R12,#+0
        MOV      R4,#+1
        SUBS     R5,R5,#+1
        BEQ      ??left_but_0
        SUBS     R5,R5,#+2
        BEQ      ??left_but_1
        SUBS     R5,R5,#+1
        BEQ      ??left_but_2
        SUBS     R5,R5,#+1
        POPNE    {R4,R5,PC}
        LDR      R2,[R0, #+392]
        MOV      R1,#+420
        CMP      R2,#+1
        STRNE    R4,[R1, +R0]
        POPNE    {R4,R5,PC}
        STR      R12,[R1, +R0]
        POP      {R4,R5,PC}
??left_but_0:
        CMP      R2,#+26
        BNE      ??left_but_3
        LDR      R1,[R0, #+628]
        CMP      R1,#+3
        STREQ    R3,[R0, #+628]
        BEQ      ??left_but_4
        CMP      R1,#+4
        BNE      ??left_but_4
        MOV      R1,#+3
        STR      R1,[R0, #+628]
        B        ??left_but_5
??left_but_3:
        CMP      R2,#+46
        BNE      ??left_but_6
        LDR      R1,[R0, #+620]
        CMP      R1,#+1
        BNE      ??left_but_4
        STR      R3,[R0, #+620]
??left_but_5:
        BL       RedrawScreen
        POP      {R4,R5,PC}
??left_but_6:
        CMP      R2,#+66
        BNE      ??left_but_4
        CMP      R1,#+1
        STREQ    R12,[R0, #+596]
        STR      R12,[R0, #+592]
        STR      R4,[R0, #+628]
??left_but_4:
        BL       RedrawScreen
        POP      {R4,R5,PC}
??left_but_1:
        LDR      R5,[R0, #+592]
        CMP      R2,#+46
        BNE      ??left_but_7
        LDR      R2,[R0, #+588]
        SUBS     R2,R2,#+1
        BEQ      ??left_but_8
        SUBS     R2,R2,#+1
        STREQ    R4,[R0, #+588]
        B        ??left_but_9
??left_but_8:
        STR      R12,[R0, #+588]
        B        ??left_but_9
??left_but_7:
        CMP      R2,#+86
        BNE      ??left_but_10
        LDR      R2,[R0, #+600]
        SUBS     R2,R2,#+1
        BEQ      ??left_but_11
        SUBS     R2,R2,#+1
        BEQ      ??left_but_12
        SUBS     R2,R2,#+1
        STREQ    R3,[R0, #+600]
        B        ??left_but_9
??left_but_11:
        STR      R12,[R0, #+600]
        B        ??left_but_9
??left_but_12:
        STR      R4,[R0, #+600]
        B        ??left_but_9
??left_but_10:
        CMP      R2,#+126
        BNE      ??left_but_9
        CMP      R1,#+1
        SUBEQ    R5,R5,#+1
        CMP      R5,#+1
        MOVLT    R5,#+99
??left_but_9:
        STR      R5,[R0, #+592]
        STR      R4,[R0, #+628]
        CMP      R1,#+0
        BNE      ??left_but_4
        MOV      R0,#+1
        BL       savedata
        B        ??left_but_5
??left_but_2:
        CMP      R2,#+46
        BNE      ??left_but_13
        LDR      R1,[R0, #+612]
        CMP      R1,#+1
        STREQ    R12,[R0, #+612]
        BEQ      ??left_but_4
        CMP      R1,#+2
        BNE      ??left_but_4
        STR      R4,[R0, #+612]
        B        ??left_but_5
??left_but_13:
        CMP      R2,#+86
        BNE      ??left_but_14
        LDR      R1,[R0, #+608]
        SUBS     R1,R1,#+1
        STR      R1,[R0, #+608]
        BPL      ??left_but_4
        MOV      R1,#+6
        STR      R1,[R0, #+608]
        B        ??left_but_5
??left_but_14:
        CMP      R2,#+126
        LDREQ    R1,[R0, #+636]
        CMPEQ    R1,#+1
        BNE      ??left_but_4
        STR      R12,[R0, #+636]
        B        ??left_but_5
        CFI EndBlock cfiBlock69

        RSEG CODE:CODE:NOROOT(2)
        CFI Block cfiBlock70 Using cfiCommon0
        CFI NoFunction
        THUMB
??right_but??rT:
        BX       PC
        Nop      
        CFI EndBlock cfiBlock70
        REQUIRE right_but

        RSEG CODE:CODE:NOROOT(2)
        CFI Block cfiBlock71 Using cfiCommon1
        CFI Function right_but
        ARM
// __??Code32?? __code __interwork __atpcs void right_but()
right_but:
        PUSH     {R4,R5,LR}
        CFI ?RET Frame(CFA, -4)
        CFI R5 Frame(CFA, -8)
        CFI R4 Frame(CFA, -12)
        CFI CFA R13+12
        LDR      R4,??DataTable48  ;; lang
        MOV      R0,#+2
        LDRB     R1,[R4, #+664]
        MOV      R2,#+0
        CMP      R1,#+5
        BNE      ??right_but_0
        LDR      R3,[R4, #+392]
        LDR      R5,[R4, #+404]
        MOV      R1,#+420
        RSB      R5,R5,#+131
        CMP      R3,R5
        STRNE    R0,[R1, +R4]
        POPNE    {R4,R5,PC}
        STR      R2,[R1, +R4]
        POP      {R4,R5,PC}
??right_but_0:
        LDR      R3,[R4, #+596]
        LDR      R12,[R4, #+580]
        MOV      LR,#+3
        MOV      R5,#+1
        SUBS     R1,R1,#+1
        BEQ      ??right_but_1
        SUBS     R1,R1,#+2
        BEQ      ??right_but_2
        SUBS     R1,R1,#+1
        BEQ      ??right_but_3
        POP      {R4,R5,PC}
??right_but_1:
        CMP      R12,#+26
        BNE      ??right_but_4
        LDR      R0,[R4, #+628]
        CMP      R0,#+2
        STREQ    LR,[R4, #+628]
        BEQ      ??right_but_5
        CMP      R0,#+3
        BNE      ??right_but_5
        MOV      R0,#+4
        STR      R0,[R4, #+628]
        B        ??right_but_6
??right_but_4:
        CMP      R12,#+46
        BNE      ??right_but_7
        LDR      R0,[R4, #+620]
        CMP      R0,#+2
        BNE      ??right_but_5
        STR      R5,[R4, #+620]
??right_but_6:
        BL       RedrawScreen
        POP      {R4,R5,PC}
??right_but_7:
        CMP      R12,#+66
        CMPEQ    R3,#+0
        BNE      ??right_but_5
        MOV      R0,#+1
        BL       savedata
        STR      R5,[R4, #+596]
        MOV      R0,#+7
        STR      R0,[R4, #+592]
        STR      R5,[R4, #+628]
??right_but_5:
        BL       RedrawScreen
        POP      {R4,R5,PC}
??right_but_2:
        CMP      R12,#+46
        BNE      ??right_but_8
        LDR      R1,[R4, #+588]
        CMP      R1,#+1
        STREQ    R0,[R4, #+588]
        BEQ      ??right_but_9
        CMP      R1,#+0
        BNE      ??right_but_9
        STR      R5,[R4, #+588]
        B        ??right_but_9
??right_but_8:
        CMP      R12,#+86
        BNE      ??right_but_10
        LDR      R1,[R4, #+600]
        CMP      R1,#+2
        STREQ    LR,[R4, #+600]
        BEQ      ??right_but_9
        CMP      R1,#+1
        STREQ    R0,[R4, #+600]
        BEQ      ??right_but_9
        CMP      R1,#+0
        BNE      ??right_but_9
        STR      R5,[R4, #+600]
        B        ??right_but_9
??right_but_10:
        CMP      R12,#+126
        CMPEQ    R3,#+1
        BNE      ??right_but_9
        LDR      R0,[R4, #+592]
        ADD      R0,R0,#+1
        STR      R0,[R4, #+592]
        CMP      R0,#+100
        STRGE    R5,[R4, #+592]
??right_but_9:
        STR      R5,[R4, #+628]
        CMP      R3,#+0
        BNE      ??right_but_5
        MOV      R0,#+1
        BL       savedata
        B        ??right_but_6
??right_but_3:
        CMP      R12,#+46
        BNE      ??right_but_11
        LDR      R1,[R4, #+612]
        CMP      R1,#+1
        STREQ    R0,[R4, #+612]
        BEQ      ??right_but_5
        CMP      R1,#+0
        BNE      ??right_but_5
        STR      R5,[R4, #+612]
        B        ??right_but_6
??right_but_11:
        CMP      R12,#+86
        BNE      ??right_but_12
        LDR      R0,[R4, #+608]
        ADD      R0,R0,#+1
        STR      R0,[R4, #+608]
        CMP      R0,#+7
        BLT      ??right_but_5
        STR      R2,[R4, #+608]
        B        ??right_but_6
??right_but_12:
        CMP      R12,#+126
        LDREQ    R0,[R4, #+636]
        CMPEQ    R0,#+0
        BNE      ??right_but_5
        STR      R5,[R4, #+636]
        B        ??right_but_6
        CFI EndBlock cfiBlock71

        RSEG CODE:CODE:NOROOT(2)
        CFI Block cfiBlock72 Using cfiCommon0
        CFI NoFunction
        THUMB
??up_but??rT:
        BX       PC
        Nop      
        CFI EndBlock cfiBlock72
        REQUIRE up_but

        RSEG CODE:CODE:NOROOT(2)
        CFI Block cfiBlock73 Using cfiCommon1
        CFI Function up_but
        ARM
// __??Code32?? __code __interwork __atpcs void up_but()
up_but:
        PUSH     {R4-R6,R8,R9,LR}
        CFI ?RET Frame(CFA, -4)
        CFI R9 Frame(CFA, -8)
        CFI R8 Frame(CFA, -12)
        CFI R6 Frame(CFA, -16)
        CFI R5 Frame(CFA, -20)
        CFI R4 Frame(CFA, -24)
        CFI CFA R13+24
        LDR      R4,??DataTable48  ;; lang
        MOV      R5,#+126
        LDR      R0,[R4, #+580]
        _BLF     __longToDouble,??__longToDouble??rA
        LDRB     R2,[R4, #+664]
        CMP      R2,#+4
        POPHI    {R4-R6,R8,R9,PC}
        ADR      R3,??up_but_0
        LDRB     R3,[R3, R2]
        ADD      PC,PC,R3, LSL #+2
        DATA
??up_but_0:
        DC8      +1,+22,+32,+44
        DC8      +82,+0,+0,+0
        ARM
??up_but_1:
        LDR      R2,[R4, #+652]
        CMP      R2,#+0
        POPEQ    {R4-R6,R8,R9,PC}
        MOV      R2,#+0
        MOV      R3,#-1073741824
        ORR      R3,R3,#0x340000
        _BLF     __dAdd,??__dAdd??rA
        _BLF     __doubleToLong,??__doubleToLong??rA
        STR      R0,[R4, #+580]
        CMP      R0,#+56
        MOVLT    R0,#+76
        STRLT    R0,[R4, #+580]
        BLT      ??up_but_2
        MOVEQ    R0,#+0
        BEQ      ??up_but_3
        CMP      R0,#+76
        BNE      ??up_but_4
??up_but_2:
        MOV      R0,#+1
??up_but_3:
        STR      R0,[R4, #+632]
??up_but_4:
        BL       load_lang
??up_but_5:
        POP      {R4-R6,R8,R9,PC}  ;; return
??up_but_6:
        MOV      R2,#+0
        MOV      R3,#-1073741824
        ORR      R3,R3,#0x340000
        _BLF     __dAdd,??__dAdd??rA
        _BLF     __doubleToLong,??__doubleToLong??rA
        STR      R0,[R4, #+580]
        CMP      R0,#+26
        STRLT    R5,[R4, #+580]
??up_but_7:
        BL       RedrawScreen
        POP      {R4-R6,R8,R9,PC}
??up_but_8:
        MOV      R2,#+0
        MOV      R3,#-1073741824
        ORR      R3,R3,#0x340000
        _BLF     __dAdd,??__dAdd??rA
        _BLF     __doubleToLong,??__doubleToLong??rA
        STR      R0,[R4, #+580]
        CMP      R0,#+26
        BGE      ??up_but_7
        MOV      R0,#+46
        STR      R0,[R4, #+580]
        BL       RedrawScreen
        POP      {R4-R6,R8,R9,PC}
??up_but_9:
        MOV      R2,#+0
        MOV      R3,#-1073741824
        ORR      R3,R3,#0x340000
        _BLF     __dAdd,??__dAdd??rA
        _BLF     __doubleToLong,??__doubleToLong??rA
        STR      R0,[R4, #+580]
        CMP      R0,#+66
        STRLT    R5,[R4, #+580]
        MOV      R5,#+0
??up_but_10:
        MOV      R0,#+40
        MUL      R6,R0,R5
        LDR      R0,[R4, #+580]
        _BLF     __longToDouble,??__longToDouble??rA
        MOV      R8,R0
        MOV      R9,R1
        ADD      R0,R6,#+52
        _BLF     __longToDouble,??__longToDouble??rA
        MOV      R2,#+0
        MOV      R3,#+805306368
        ORR      R3,R3,#0xFE00000
        _BLF     __dMul,??__dMul??rA
        MOV      R2,R8
        MOV      R3,R9
        _BLF     __dEqual,??__dEqual??rA
        CMP      R0,#+0
        BEQ      ??up_but_11
        ADD      R0,R6,#+12
        _BLF     __longToDouble,??__longToDouble??rA
        MOV      R2,#+0
        MOV      R3,#+805306368
        ORR      R3,R3,#0xFE00000
        _BLF     __dMul,??__dMul??rA
        _BLF     __doubleToLong,??__doubleToLong??rA
        STR      R0,[R4, #+580]
??up_but_11:
        ADD      R5,R5,#+2
        CMP      R5,#+5
        BGE      ??up_but_7
        B        ??up_but_10
??up_but_12:
        MOV      R2,#+0
        MOV      R3,#-1073741824
        ORR      R3,R3,#0x340000
        _BLF     __dAdd,??__dAdd??rA
        _BLF     __doubleToLong,??__doubleToLong??rA
        STR      R0,[R4, #+580]
        CMP      R0,#+66
        STRLT    R5,[R4, #+580]
        MOV      R5,#+0
??up_but_13:
        MOV      R0,#+40
        MUL      R6,R0,R5
        LDR      R0,[R4, #+580]
        _BLF     __longToDouble,??__longToDouble??rA
        MOV      R8,R0
        MOV      R9,R1
        ADD      R0,R6,#+52
        _BLF     __longToDouble,??__longToDouble??rA
        MOV      R2,#+0
        MOV      R3,#+805306368
        ORR      R3,R3,#0xFE00000
        _BLF     __dMul,??__dMul??rA
        MOV      R2,R8
        MOV      R3,R9
        _BLF     __dEqual,??__dEqual??rA
        CMP      R0,#+0
        BEQ      ??up_but_14
        ADD      R0,R6,#+12
        _BLF     __longToDouble,??__longToDouble??rA
        MOV      R2,#+0
        MOV      R3,#+805306368
        ORR      R3,R3,#0xFE00000
        _BLF     __dMul,??__dMul??rA
        _BLF     __doubleToLong,??__doubleToLong??rA
        STR      R0,[R4, #+580]
??up_but_14:
        ADD      R5,R5,#+2
        CMP      R5,#+5
        BGE      ??up_but_7
        B        ??up_but_13
        CFI EndBlock cfiBlock73

        RSEG CODE:CODE:NOROOT(2)
        DATA
??DataTable48:
        DC32     lang

        RSEG CODE:CODE:NOROOT(2)
        CFI Block cfiBlock74 Using cfiCommon0
        CFI NoFunction
        THUMB
??down_but??rT:
        BX       PC
        Nop      
        CFI EndBlock cfiBlock74
        REQUIRE down_but

        RSEG CODE:CODE:NOROOT(2)
        CFI Block cfiBlock75 Using cfiCommon1
        CFI Function down_but
        ARM
// __??Code32?? __code __interwork __atpcs void down_but()
down_but:
        PUSH     {R4-R6,R8,R9,LR}
        CFI ?RET Frame(CFA, -4)
        CFI R9 Frame(CFA, -8)
        CFI R8 Frame(CFA, -12)
        CFI R6 Frame(CFA, -16)
        CFI R5 Frame(CFA, -20)
        CFI R4 Frame(CFA, -24)
        CFI CFA R13+24
        LDR      R4,??DataTable68  ;; lang
        MOV      R5,#+26
        LDR      R0,[R4, #+580]
        _BLF     __longToDouble,??__longToDouble??rA
        LDRB     R2,[R4, #+664]
        CMP      R2,#+4
        POPHI    {R4-R6,R8,R9,PC}
        ADR      R3,??down_but_0
        LDRB     R3,[R3, R2]
        ADD      PC,PC,R3, LSL #+2
        DATA
??down_but_0:
        DC8      +1,+24,+34,+42
        DC8      +80,+0,+0,+0
        ARM
??down_but_1:
        LDR      R2,[R4, #+652]
        CMP      R2,#+1
        POPNE    {R4-R6,R8,R9,PC}
        MOV      R2,#+0
        MOV      R3,#+1073741824
        ORR      R3,R3,#0x340000
        _BLF     __dAdd,??__dAdd??rA
        _BLF     __doubleToLong,??__doubleToLong??rA
        STR      R0,[R4, #+580]
        CMP      R0,#+77
        MOVGE    R0,#+56
        STRGE    R0,[R4, #+580]
        BGE      ??down_but_2
        CMP      R0,#+56
        BNE      ??down_but_3
??down_but_2:
        MOV      R0,#+0
        B        ??down_but_4
??down_but_3:
        CMP      R0,#+76
        BNE      ??down_but_5
        MOV      R0,#+1
??down_but_4:
        STR      R0,[R4, #+632]
??down_but_5:
        BL       load_lang
??down_but_6:
        POP      {R4-R6,R8,R9,PC}  ;; return
??down_but_7:
        MOV      R2,#+0
        MOV      R3,#+1073741824
        ORR      R3,R3,#0x340000
        _BLF     __dAdd,??__dAdd??rA
        _BLF     __doubleToLong,??__doubleToLong??rA
        STR      R0,[R4, #+580]
        CMP      R0,#+64
??down_but_8:
        STRGE    R5,[R4, #+580]
??down_but_9:
        BL       RedrawScreen
        POP      {R4-R6,R8,R9,PC}
??down_but_10:
        MOV      R2,#+0
        MOV      R3,#+1073741824
        ORR      R3,R3,#0x340000
        _BLF     __dAdd,??__dAdd??rA
        _BLF     __doubleToLong,??__doubleToLong??rA
        STR      R0,[R4, #+580]
        CMP      R0,#+24
        B        ??down_but_8
??down_but_11:
        MOV      R2,#+0
        MOV      R3,#+1073741824
        ORR      R3,R3,#0x340000
        _BLF     __dAdd,??__dAdd??rA
        _BLF     __doubleToLong,??__doubleToLong??rA
        STR      R0,[R4, #+580]
        CMP      R0,#+127
        STRGE    R5,[R4, #+580]
        MOV      R5,#+0
??down_but_12:
        MOV      R0,#+40
        MUL      R6,R0,R5
        LDR      R0,[R4, #+580]
        _BLF     __longToDouble,??__longToDouble??rA
        MOV      R8,R0
        MOV      R9,R1
        ADD      R0,R6,#+52
        _BLF     __longToDouble,??__longToDouble??rA
        MOV      R2,#+0
        MOV      R3,#+805306368
        ORR      R3,R3,#0xFE00000
        _BLF     __dMul,??__dMul??rA
        MOV      R2,R8
        MOV      R3,R9
        _BLF     __dEqual,??__dEqual??rA
        CMP      R0,#+0
        BEQ      ??down_but_13
        ADD      R0,R6,#+92
        _BLF     __longToDouble,??__longToDouble??rA
        MOV      R2,#+0
        MOV      R3,#+805306368
        ORR      R3,R3,#0xFE00000
        _BLF     __dMul,??__dMul??rA
        _BLF     __doubleToLong,??__doubleToLong??rA
        STR      R0,[R4, #+580]
??down_but_13:
        ADD      R5,R5,#+2
        CMP      R5,#+5
        BGE      ??down_but_9
        B        ??down_but_12
??down_but_14:
        MOV      R2,#+0
        MOV      R3,#+1073741824
        ORR      R3,R3,#0x340000
        _BLF     __dAdd,??__dAdd??rA
        _BLF     __doubleToLong,??__doubleToLong??rA
        STR      R0,[R4, #+580]
        CMP      R0,#+127
        STRGE    R5,[R4, #+580]
        MOV      R5,#+0
??down_but_15:
        MOV      R0,#+40
        MUL      R6,R0,R5
        LDR      R0,[R4, #+580]
        _BLF     __longToDouble,??__longToDouble??rA
        MOV      R8,R0
        MOV      R9,R1
        ADD      R0,R6,#+52
        _BLF     __longToDouble,??__longToDouble??rA
        MOV      R2,#+0
        MOV      R3,#+805306368
        ORR      R3,R3,#0xFE00000
        _BLF     __dMul,??__dMul??rA
        MOV      R2,R8
        MOV      R3,R9
        _BLF     __dEqual,??__dEqual??rA
        CMP      R0,#+0
        BEQ      ??down_but_16
        ADD      R0,R6,#+92
        _BLF     __longToDouble,??__longToDouble??rA
        MOV      R2,#+0
        MOV      R3,#+805306368
        ORR      R3,R3,#0xFE00000
        _BLF     __dMul,??__dMul??rA
        _BLF     __doubleToLong,??__doubleToLong??rA
        STR      R0,[R4, #+580]
??down_but_16:
        ADD      R5,R5,#+2
        CMP      R5,#+5
        BGE      ??down_but_9
        B        ??down_but_15
        CFI EndBlock cfiBlock75

        RSEG CODE:CODE:NOROOT(2)
        CFI Block cfiBlock76 Using cfiCommon0
        CFI NoFunction
        THUMB
??enter_but??rT:
        BX       PC
        Nop      
        CFI EndBlock cfiBlock76
        REQUIRE enter_but

        RSEG CODE:CODE:NOROOT(2)
        CFI Block cfiBlock77 Using cfiCommon1
        CFI Function enter_but
        ARM
// __??Code32?? __code __interwork __atpcs void enter_but()
enter_but:
        PUSH     {R4,LR}
        CFI ?RET Frame(CFA, -4)
        CFI R4 Frame(CFA, -8)
        CFI CFA R13+8
        LDR      R4,??DataTable68  ;; lang
        LDR      R0,[R4, #+580]
        LDRB     R1,[R4, #+664]
        CMP      R1,#+0
        BEQ      ??enter_but_0
        SUBS     R1,R1,#+1
        BEQ      ??enter_but_1
        SUBS     R1,R1,#+1
        BEQ      ??enter_but_2
        POP      {R4,PC}
??enter_but_0:
        LDR      R0,[R4, #+652]
        CMP      R0,#+1
        POPNE    {R4,PC}
        BL       lgpInitLangPack
        MOV      R0,#+2
        BL       savedata
        MOV      R0,#+0
        STR      R0,[R4, #+652]
        BL       T_Load_IMG
        POP      {R4,PC}          ;; return
??enter_but_1:
        CMP      R0,#+26
        BNE      ??enter_but_3
        BL       startcont
??enter_but_3:
        LDR      R0,[R4, #+580]
        CMP      R0,#+126
        MOVEQ    R0,#+1
        STREQ    R0,[R4, #+640]
        BEQ      ??enter_but_4
        CMP      R0,#+46
        BNE      ??enter_but_5
        LDR      R0,[R4, #+620]
        CMP      R0,#+1
        BNE      ??enter_but_6
        BL       saveSettings
        B        ??enter_but_5
??enter_but_6:
        CMP      R0,#+2
        BNE      ??enter_but_4
        BL       loadSettings
??enter_but_5:
        LDR      R0,[R4, #+580]
        MOV      R1,#+26
        CMP      R0,#+86
        MOVEQ    R0,#+6
        BEQ      ??enter_but_7
        CMP      R0,#+106
        BNE      ??enter_but_4
        MOV      R0,#+2
??enter_but_7:
        STRB     R0,[R4, #+664]
        STR      R1,[R4, #+580]
??enter_but_4:
        BL       RedrawScreen
        POP      {R4,PC}
??enter_but_2:
        CMP      R0,#+26
        BNE      ??enter_but_8
        MOV      R0,#+3
        STRB     R0,[R4, #+664]
        MOV      R0,#+46
        STR      R0,[R4, #+580]
        B        ??enter_but_9
??enter_but_8:
        CMP      R0,#+46
        BNE      ??enter_but_4
        MOV      R0,#+4
        STRB     R0,[R4, #+664]
??enter_but_9:
        BL       RedrawScreen
        POP      {R4,PC}
        CFI EndBlock cfiBlock77

        RSEG CODE:CODE:NOROOT(2)
        CFI Block cfiBlock78 Using cfiCommon0
        CFI NoFunction
        THUMB
??left_soft??rT:
        BX       PC
        Nop      
        CFI EndBlock cfiBlock78
        REQUIRE left_soft

        RSEG CODE:CODE:NOROOT(2)
        CFI Block cfiBlock79 Using cfiCommon1
        CFI Function left_soft
        ARM
// __??Code32?? __code __interwork __atpcs void left_soft()
left_soft:
        PUSH     {R4,R5,LR}
        CFI ?RET Frame(CFA, -4)
        CFI R5 Frame(CFA, -8)
        CFI R4 Frame(CFA, -12)
        CFI CFA R13+12
        LDR      R4,??DataTable68  ;; lang
        LDRB     R0,[R4, #+664]
        CMP      R0,#+5
        POPNE    {R4,R5,PC}
        MOV      R0,#+0
        STR      R0,[R4, #+572]
        LDR      R0,[R4, #+616]
        MOV      R5,#+668
        SWI      +551
        ADD      R0,R5,R4
        SWI      +422
        CMP      R0,#+0
        BEQ      ??left_soft_0
        ADD      R0,R5,R4
        SWI      +324
??left_soft_0:
        MOV      R0,#+1
        STRB     R0,[R4, #+664]
        MOV      R0,#+3
        STR      R0,[R4, #+628]
        BL       RedrawScreen
        POP      {R4,R5,PC}       ;; return
        CFI EndBlock cfiBlock79

        RSEG CODE:CODE:NOROOT(2)
        CFI Block cfiBlock80 Using cfiCommon0
        CFI NoFunction
        THUMB
??right_soft??rT:
        BX       PC
        Nop      
        CFI EndBlock cfiBlock80
        REQUIRE right_soft

        RSEG CODE:CODE:NOROOT(2)
        CFI Block cfiBlock81 Using cfiCommon1
        CFI Function right_soft
        ARM
// __??Code32?? __code __interwork __atpcs void right_soft()
right_soft:
        LDR      R1,??DataTable68  ;; lang
        LDRB     R2,[R1, #+664]
        MOV      R0,#+26
        SUBS     R2,R2,#+2
        BEQ      ??right_soft_0
        SUB      R2,R2,#+1
        CMP      R2,#+1
        BLS      ??right_soft_1
        SUBS     R2,R2,#+3
        BXNE     LR
??right_soft_0:
        MOV      R2,#+1
        B        ??right_soft_2
??right_soft_1:
        MOV      R2,#+2
??right_soft_2:
        STRB     R2,[R1, #+664]
        STR      R0,[R1, #+580]
        B        RedrawScreen     ;; tailcall
        CFI EndBlock cfiBlock81

        RSEG CODE:CODE:NOROOT(2)
        CFI Block cfiBlock82 Using cfiCommon0
        CFI NoFunction
        THUMB
??green_but??rT:
        BX       PC
        Nop      
        CFI EndBlock cfiBlock82
        REQUIRE green_but

        RSEG CODE:CODE:NOROOT(2)
        CFI Block cfiBlock83 Using cfiCommon1
        CFI Function green_but
        ARM
// __??Code32?? __code __interwork __atpcs void green_but()
green_but:
        LDR      R0,??green_but_0  ;; lang + 664
        PUSH     {LR}
        CFI ?RET Frame(CFA, -4)
        CFI CFA R13+4
        LDRB     R0,[R0, #+0]
        CMP      R0,#+6
        POPNE    {PC}
        MOV      R0,#+0
        BL       savedata
        BL       RedrawScreen
        POP      {PC}             ;; return
        DATA
??green_but_0:
        DC32     lang + 664
        CFI EndBlock cfiBlock83

        RSEG CODE:CODE:NOROOT(2)
        CFI Block cfiBlock84 Using cfiCommon0
        CFI NoFunction
        THUMB
??resh_but??rT:
        BX       PC
        Nop      
        CFI EndBlock cfiBlock84
        REQUIRE resh_but

        RSEG CODE:CODE:NOROOT(2)
        CFI Block cfiBlock85 Using cfiCommon1
        CFI Function resh_but
        ARM
// __??Code32?? __code __interwork __atpcs void resh_but()
resh_but:
        PUSH     {R4,LR}
        CFI ?RET Frame(CFA, -4)
        CFI R4 Frame(CFA, -8)
        CFI CFA R13+8
        LDR      R4,??DataTable68  ;; lang
        LDRB     R0,[R4, #+664]
        CMP      R0,#+1
        POPNE    {R4,PC}
        BL       openconf
        MOV      R0,#+0
        STR      R0,[R4, #+572]
        POP      {R4,PC}          ;; return
        CFI EndBlock cfiBlock85

        RSEG CODE:CODE:NOROOT(2)
        CFI Block cfiBlock86 Using cfiCommon0
        CFI NoFunction
        THUMB
??deltimers??rT:
        BX       PC
        Nop      
        CFI EndBlock cfiBlock86
        REQUIRE deltimers
//   20 #include "other.c"

        RSEG CODE:CODE:NOROOT(2)
        CFI Block cfiBlock87 Using cfiCommon1
        CFI Function deltimers
        ARM
// __??Code32?? __code __interwork __atpcs void deltimers()
deltimers:
        PUSH     {R4,R5,LR}
        CFI ?RET Frame(CFA, -4)
        CFI R5 Frame(CFA, -8)
        CFI R4 Frame(CFA, -12)
        CFI CFA R13+12
        LDR      R5,??DataTable68  ;; lang
        MOV      R4,#+668
        ADD      R0,R4,R5
        SWI      +422
        CMP      R0,#+0
        BEQ      ??deltimers_0
        ADD      R0,R4,R5
        SWI      +396
??deltimers_0:
        MOV      R4,#+684
        ADD      R0,R4,R5
        SWI      +422
        CMP      R0,#+0
        POPEQ    {R4,R5,PC}
        ADD      R0,R4,R5
        SWI      +396
        POP      {R4,R5,PC}       ;; return
        CFI EndBlock cfiBlock87

        RSEG CODE:CODE:NOROOT(2)
        CFI Block cfiBlock88 Using cfiCommon0
        CFI NoFunction
        THUMB
??Play??rT:
        BX       PC
        Nop      
        CFI EndBlock cfiBlock88
        REQUIRE Play

        RSEG CODE:CODE:NOROOT(2)
        CFI Block cfiBlock89 Using cfiCommon1
        CFI Function Play
        ARM
// __??Code32?? __code __interwork __atpcs void Play(int)
Play:
        PUSH     {R4-R9,LR}
        CFI ?RET Frame(CFA, -4)
        CFI R9 Frame(CFA, -8)
        CFI R8 Frame(CFA, -12)
        CFI R7 Frame(CFA, -16)
        CFI R6 Frame(CFA, -20)
        CFI R5 Frame(CFA, -24)
        CFI R4 Frame(CFA, -28)
        CFI CFA R13+28
        LDR      R4,??DataTable68  ;; lang
        SUB      SP,SP,#+36
        CFI CFA R13+64
        MOV      R7,R0
        LDR      R0,[R4, #+612]
        CMP      R0,#+0
        BEQ      ??Play_0
        LDR      R9,??DataTable56  ;; `?<Constant "kick.mid">`
        MOV      R0,#+128
        SWI      +293
        MOV      R5,R0
        MOV      R0,#+128
        SWI      +293
        MOV      R6,R0
        CMP      R7,#+1
        MOVEQ    R8,#+1
        MOVEQ    R1,R9
        BEQ      ??Play_1
        CMP      R7,#+2
        BNE      ??Play_2
        MOV      R8,#+231
        ORR      R8,R8,#0x300
        ADD      R1,R9,#+12
??Play_1:
        SWI      +292
??Play_2:
        LDR      R2,??DataTable57  ;; folder
        ADD      R3,R9,#+24
        ADD      R1,R9,#+124
        MOV      R0,R5
        SWI      +292
        MOV      R1,#+36
        MOV      R0,SP
        SWI      +285
        STRH     R8,[SP, #+0]
        MOV      R0,#+0
        STR      R0,[SP, #+4]
        STR      R0,[SP, #+8]
        LDR      R1,[R4, #+608]
        MOV      R0,#+1
        STR      R1,[SP, #+12]
        STR      R0,[SP, #+20]
        STR      R0,[SP, #+24]
        MOV      R1,#+2
        STR      R1,[SP, #+32]
        SWI      +325
        MOV      R1,SP
        PUSH     {R1}
        CFI CFA R13+68
        MOV      R3,R0
        MOV      R2,R6
        MOV      R0,#+16
        MOV      R1,#+188
        ORR      R1,R1,#0x7000
        PUSH     {R1}
        CFI CFA R13+72
        MOV      R1,R5
        SWI      +74
        STR      R0,[R4, #+616]
        MOV      R0,R5
        SWI      +297
        MOV      R0,R6
        SWI      +297
        ADD      SP,SP,#+8
        CFI CFA R13+64
??Play_0:
        ADD      SP,SP,#+36       ;; stack cleaning
        CFI CFA R13+28
        POP      {R4-R9,PC}       ;; return
        CFI EndBlock cfiBlock89

        RSEG CODE:CODE:NOROOT(2)
        DATA
??DataTable56:
        DC32     `?<Constant "kick.mid">`

        RSEG CODE:CODE:NOROOT(2)
        DATA
??DataTable57:
        DC32     folder

        RSEG CODE:CODE:NOROOT(2)
        CFI Block cfiBlock90 Using cfiCommon0
        CFI NoFunction
        THUMB
??openconf??rT:
        BX       PC
        Nop      
        CFI EndBlock cfiBlock90
        REQUIRE openconf

        RSEG CODE:CODE:NOROOT(2)
        CFI Block cfiBlock91 Using cfiCommon1
        CFI Function openconf
        ARM
// __??Code32?? __code __interwork __atpcs int openconf()
openconf:
        PUSH     {R4,R5,LR}
        CFI ?RET Frame(CFA, -4)
        CFI R5 Frame(CFA, -8)
        CFI R4 Frame(CFA, -12)
        CFI CFA R13+12
        LDR      R4,??DataTable67  ;; successed_config_filename
        LDR      R0,[R4, #+0]
        SWI      +27
        ADD      R0,R0,#+1
        SWI      +293
        LDR      R2,[R4, #+0]
        LDR      R1,??DataTable69  ;; perc_t
        MOV      R5,R0
        SWI      +292
        MOV      R2,#+0
        MOV      R1,#+0
        MOV      R0,R5
        SWI      +148
        MOV      R0,R5
        SWI      +297
        MOV      R0,#+0
        POP      {R4,R5,PC}       ;; return
        CFI EndBlock cfiBlock91

        RSEG CODE:CODE:NOROOT(2)
        CFI Block cfiBlock92 Using cfiCommon0
        CFI NoFunction
        THUMB
??startcont??rT:
        BX       PC
        Nop      
        CFI EndBlock cfiBlock92
        REQUIRE startcont

        RSEG CODE:CODE:NOROOT(2)
        CFI Block cfiBlock93 Using cfiCommon1
        CFI Function startcont
        ARM
// __??Code32?? __code __interwork __atpcs void startcont()
startcont:
        PUSH     {R4,R5,LR}
        CFI ?RET Frame(CFA, -4)
        CFI R5 Frame(CFA, -8)
        CFI R4 Frame(CFA, -12)
        CFI CFA R13+12
        LDR      R5,??DataTable68  ;; lang
        MOV      R4,#+0
        LDR      R0,[R5, #+628]
        SUB      R0,R0,#+1
        CMP      R0,#+1
        BLS      ??startcont_0
        SUBS     R0,R0,#+2
        MOVEQ    R0,#+5
        STRBEQ   R0,[R5, #+664]
        STREQ    R4,[R5, #+572]
        B        ??startcont_1
??startcont_0:
        MOV      R0,#+1
        BL       setgame
        STR      R4,[R5, #+524]
        STR      R4,[R5, #+512]
        STR      R4,[R5, #+516]
        STR      R4,[R5, #+520]
??startcont_1:
        LDR      R0,[R5, #+612]
        CMP      R0,#+2
        POPNE    {R4,R5,PC}
        BL       Play
        POP      {R4,R5,PC}       ;; return
        CFI EndBlock cfiBlock93

        RSEG CODE:CODE:NOROOT(2)
        CFI Block cfiBlock94 Using cfiCommon0
        CFI NoFunction
        THUMB
??exit??rT:
        BX       PC
        Nop      
        CFI EndBlock cfiBlock94
        REQUIRE exit

        RSEG CODE:CODE:NOROOT(2)
        CFI Block cfiBlock95 Using cfiCommon1
        CFI Function exit
        ARM
// __??Code32?? __code __interwork __atpcs void exit()
exit:
        LDR      R0,??exit_0      ;; lang + 640
        MOV      R1,#+1
        STR      R1,[R0, #+0]
        BX       LR               ;; return
        DATA
??exit_0:
        DC32     lang + 640
        CFI EndBlock cfiBlock95

        RSEG CODE:CODE:NOROOT(2)
        CFI Block cfiBlock96 Using cfiCommon0
        CFI NoFunction
        THUMB
??OnRedraw??rT:
        BX       PC
        Nop      
        CFI EndBlock cfiBlock96
        REQUIRE OnRedraw
//   21 
//   22 
//   23 
//   24 

        RSEG CODE:CODE:NOROOT(2)
        CFI Block cfiBlock97 Using cfiCommon1
        CFI Function OnRedraw
        ARM
//   25 static void OnRedraw(MAIN_GUI *data){}//Не использую)
OnRedraw:
        BX       LR               ;; return
        CFI EndBlock cfiBlock97

        RSEG CODE:CODE:NOROOT(2)
        CFI Block cfiBlock98 Using cfiCommon0
        CFI NoFunction
        THUMB
??onCreate??rT:
        BX       PC
        Nop      
        CFI EndBlock cfiBlock98
        REQUIRE onCreate

        RSEG CODE:CODE:NOROOT(2)
        CFI Block cfiBlock99 Using cfiCommon1
        CFI Function onCreate
        ARM
//   26 static void onCreate(MAIN_GUI *data, void *(*malloc_adr)(int))//Тут делаем что либо при создании гуи
//   27 {
onCreate:
        PUSH     {R4,LR}
        CFI ?RET Frame(CFA, -4)
        CFI R4 Frame(CFA, -8)
        CFI CFA R13+8
        MOV      R4,R0
//   28   #ifdef ELKA//Если елка,то отключаем иконбар
//   29   DisableIconBar(1);
//   30   #endif
//   31   Time.str=malloc(24);
        MOV      R0,#+24
        SWI      +20
        LDR      R1,??DataTable62  ;; lang + 528
        STR      R0,[R1, #+0]
//   32   data->ws1=AllocWS(256);//Выделяем память под строку
        MOV      R0,#+256
        SWI      +293
        STR      R0,[R4, #+52]
//   33   data->gui.state=1;
        MOV      R0,#+1
        STRB     R0,[R4, #+12]
//   34 }
        POP      {R4,PC}          ;; return
        CFI EndBlock cfiBlock99

        RSEG CODE:CODE:NOROOT(2)
        CFI Block cfiBlock100 Using cfiCommon0
        CFI NoFunction
        THUMB
??onClose??rT:
        BX       PC
        Nop      
        CFI EndBlock cfiBlock100
        REQUIRE onClose

        RSEG CODE:CODE:NOROOT(2)
        CFI Block cfiBlock101 Using cfiCommon1
        CFI Function onClose
        ARM
//   35 static void onClose(MAIN_GUI *data, void (*mfree_adr)(void *))//Сдесь делаем что нить при закрытии гуи:)
//   36 {
onClose:
        PUSH     {R4,LR}
        CFI ?RET Frame(CFA, -4)
        CFI R4 Frame(CFA, -8)
        CFI CFA R13+8
        MOV      R4,R0
//   37   data->gui.state=0;
        MOV      R0,#+0
        STRB     R0,[R4, #+12]
//   38   mfree(Time.str);
        LDR      R0,??DataTable62  ;; lang + 528
        LDR      R0,[R0, #+0]
        SWI      +21
//   39   FreeWS(data->ws1);//например, освобождаем память
        LDR      R0,[R4, #+52]
        SWI      +297
//   40   FreeWS(data->ws5);
        LDR      R0,[R4, #+60]
        SWI      +297
//   41 }
        POP      {R4,PC}          ;; return
        CFI EndBlock cfiBlock101

        RSEG CODE:CODE:NOROOT(2)
        DATA
??DataTable62:
        DC32     lang + 528

        RSEG CODE:CODE:NOROOT(2)
        CFI Block cfiBlock102 Using cfiCommon0
        CFI NoFunction
        THUMB
??onFocus??rT:
        BX       PC
        Nop      
        CFI EndBlock cfiBlock102
        REQUIRE onFocus
//   42 

        RSEG CODE:CODE:NOROOT(2)
        CFI Block cfiBlock103 Using cfiCommon1
        CFI Function onFocus
        ARM
//   43 static void onFocus(MAIN_GUI *data, void *(*malloc_adr)(int), void (*mfree_adr)(void *))//Если гуи на верху то опять же делаем что нужно
//   44 {
onFocus:
        PUSH     {R4,R5,LR}
        CFI ?RET Frame(CFA, -4)
        CFI R5 Frame(CFA, -8)
        CFI R4 Frame(CFA, -12)
        CFI CFA R13+12
//   45   #ifdef ELKA//Если елка,то отключаем иконбар
//   46   DisableIconBar(1);
//   47   #endif
//   48   if(idle==0){RedrawScreen();idle=1;}
        LDR      R5,??DataTable68  ;; lang
        MOV      R4,R0
        LDR      R0,[R5, #+660]
        CMP      R0,#+0
        BNE      ??onFocus_0
        BL       RedrawScreen
        MOV      R0,#+1
        STR      R0,[R5, #+660]
//   49   data->gui.state=2;
??onFocus_0:
        MOV      R0,#+2
        STRB     R0,[R4, #+12]
//   50   DisableIDLETMR();//отключаем таймер,иначе через 2 минуты эльф закроется
        SWI      +383
//   51 }
        POP      {R4,R5,PC}       ;; return
        CFI EndBlock cfiBlock103

        RSEG CODE:CODE:NOROOT(2)
        CFI Block cfiBlock104 Using cfiCommon0
        CFI NoFunction
        THUMB
??onUnfocus??rT:
        BX       PC
        Nop      
        CFI EndBlock cfiBlock104
        REQUIRE onUnfocus
//   52 

        RSEG CODE:CODE:NOROOT(2)
        CFI Block cfiBlock105 Using cfiCommon1
        CFI Function onUnfocus
        ARM
//   53 static void onUnfocus(MAIN_GUI *data, void (*mfree_adr)(void *))//а если гуи не вверху,то можно закрыть эльф например:)
//   54 {
onUnfocus:
        PUSH     {R4,LR}
        CFI ?RET Frame(CFA, -4)
        CFI R4 Frame(CFA, -8)
        CFI CFA R13+8
        MOV      R4,R0
//   55   UpdateCSMname();//обновляем имя для хтаска
        BL       UpdateCSMname
//   56   deltimers();
        BL       deltimers
//   57   if(idle==1)idle=0;
        LDR      R0,??DataTable68  ;; lang
        LDR      R1,[R0, #+660]
//   58   if(status==load)exit();//антилаг
        LDRB     R2,[R0, #+664]
        CMP      R1,#+1
        MOVEQ    R1,#+0
        STREQ    R1,[R0, #+660]
        MOV      R1,#+1
        CMP      R2,#+0
        STREQ    R1,[R0, #+640]
//   59   if (data->gui.state!=2) return;
        LDRB     R0,[R4, #+12]
        CMP      R0,#+2
//   60   data->gui.state=1;
        STRBEQ   R1,[R4, #+12]
//   61 }
        POP      {R4,PC}          ;; return
        CFI EndBlock cfiBlock105

        RSEG CODE:CODE:NOROOT(2)
        CFI Block cfiBlock106 Using cfiCommon0
        CFI NoFunction
        THUMB
??OnKey??rT:
        BX       PC
        Nop      
        CFI EndBlock cfiBlock106
        REQUIRE OnKey
//   62 
//   63 
//   64 

        RSEG CODE:CODE:NOROOT(2)
        CFI Block cfiBlock107 Using cfiCommon1
        CFI Function OnKey
        ARM
//   65 static int OnKey(MAIN_GUI *data, GUI_MSG *msg)//Ну это кей хук
//   66 {
OnKey:
        PUSH     {R4,LR}
        CFI ?RET Frame(CFA, -4)
        CFI R4 Frame(CFA, -8)
        CFI CFA R13+8
//   67   switch(msg->gbsmsg->msg)
        LDR      R0,[R1, #+4]
        LDR      R4,??DataTable68  ;; lang
        LDR      R1,[R0, #+4]
        MOV      R2,#+147
        ORR      R2,R2,#0x100
        CMP      R1,R2
        BEQ      ??OnKey_1
        CMP      R1,#+404
        BEQ      ??OnKey_2
        ADD      R2,R2,#+2
        CMP      R1,R2
        BEQ      ??OnKey_1
        MOV      R0,#+0
        POP      {R4,PC}
//   68   {
//   69    case KEY_UP: user.dx=STOP_SIDE; break;
??OnKey_2:
        MOV      R0,#+0
        STR      R0,[R4, #+420]
//   70    case LONG_PRESS: // Клавиша удерживается долго (повтор)
//   71    case KEY_DOWN: // Клавиша нажата
//   72          switch(msg->gbsmsg->submess)
//   73          { 
//   74          case RIGHT_SOFT:right_soft();break;
//   75          case LEFT_SOFT:left_soft();break;
//   76          case UP_BUTTON: case '2':up_but();break;
//   77          case DOWN_BUTTON: case '8':down_but();break; 
//   78          case ENTER_BUTTON:enter_but();break;
//   79          case LEFT_BUTTON: case '4':left_but();break;
//   80          case RIGHT_BUTTON: case '6':right_but();break;
//   81          case GREEN_BUTTON:green_but();break; 
//   82          case '0':if(status==game)setpause();break;  
//   83          case '#':if(msg->gbsmsg->msg==LONG_PRESS)resh_but();break;
//   84          }
//   85          if(exiting) return 1;
//   86    }
//   87    
//   88  
//   89   return(0);
        MOV      R0,#+0
        POP      {R4,PC}          ;; return
??OnKey_1:
        LDR      R1,[R0, #+8]
        SUB      R1,R1,#+1
        CMP      R1,#+61
        BHI      ??OnKey_3
        ADR      R2,??OnKey_0
        LDRB     R2,[R2, R1]
        ADD      PC,PC,R2, LSL #+2
        DATA
??OnKey_0:
        DC8      +17,+42,+42,+15
        DC8      +42,+42,+42,+42
        DC8      +42,+42,+29,+42
        DC8      +42,+42,+42,+42
        DC8      +42,+42,+42,+42
        DC8      +42,+42,+42,+42
        DC8      +42,+23,+42,+42
        DC8      +42,+42,+42,+42
        DC8      +42,+42,+36,+42
        DC8      +42,+42,+42,+42
        DC8      +42,+42,+42,+42
        DC8      +42,+42,+42,+31
        DC8      +42,+19,+42,+25
        DC8      +42,+27,+42,+21
        DC8      +42,+42,+19,+21
        DC8      +25,+27,+0,+0
        ARM
??OnKey_4:
        BL       right_soft
        B        ??OnKey_3
??OnKey_5:
        BL       left_soft
        B        ??OnKey_3
??OnKey_6:
        BL       up_but
        B        ??OnKey_3
??OnKey_7:
        BL       down_but
        B        ??OnKey_3
??OnKey_8:
        BL       enter_but
        B        ??OnKey_3
??OnKey_9:
        BL       left_but
        B        ??OnKey_3
??OnKey_10:
        BL       right_but
        B        ??OnKey_3
??OnKey_11:
        BL       green_but
        B        ??OnKey_3
??OnKey_12:
        LDRB     R0,[R4, #+664]
        CMP      R0,#+5
        BNE      ??OnKey_3
        BL       setpause
        B        ??OnKey_3
??OnKey_13:
        LDR      R0,[R0, #+4]
        MOV      R1,#+149
        ORR      R1,R1,#0x100
        CMP      R0,R1
        BNE      ??OnKey_3
        BL       resh_but
??OnKey_3:
        LDR      R0,[R4, #+640]
        CMP      R0,#+0
        POPEQ    {R4,PC}
        MOV      R0,#+1
        POP      {R4,PC}
        CFI EndBlock cfiBlock107
//   90 }

        RSEG CODE:CODE:NOROOT(2)
        CFI Block cfiBlock108 Using cfiCommon0
        CFI NoFunction
        THUMB
??method8??rT:
        BX       PC
        Nop      
        CFI EndBlock cfiBlock108
        REQUIRE method8
//   91   
//   92 
//   93 extern void kill_data(void *p, void (*func_p)(void *));
//   94 

        RSEG CODE:CODE:NOROOT(2)
        CFI Block cfiBlock109 Using cfiCommon1
        CFI Function method8
        ARM
//   95 int method8(void){return(0);}
method8:
        MOV      R0,#+0
        BX       LR               ;; return
        CFI EndBlock cfiBlock109

        RSEG CODE:CODE:NOROOT(2)
        CFI Block cfiBlock110 Using cfiCommon0
        CFI NoFunction
        THUMB
??method9??rT:
        BX       PC
        Nop      
        CFI EndBlock cfiBlock110
        REQUIRE method9

        RSEG CODE:CODE:NOROOT(2)
        CFI Block cfiBlock111 Using cfiCommon1
        CFI Function method9
        ARM
//   96 int method9(void){return(0);}
method9:
        MOV      R0,#+0
        BX       LR               ;; return
        CFI EndBlock cfiBlock111

        RSEG CODE:CODE:NOROOT(2)
        CFI Block cfiBlock112 Using cfiCommon0
        CFI NoFunction
        THUMB
??maincsm_oncreate??rT:
        BX       PC
        Nop      
        CFI EndBlock cfiBlock112
        REQUIRE maincsm_oncreate
//   97 
//   98 const void * const gui_methods[11]={
//   99   (void *)OnRedraw,
//  100   (void *)onCreate,
//  101   (void *)onClose,
//  102   (void *)onFocus,
//  103   (void *)onUnfocus,
//  104   (void *)OnKey,
//  105   0,
//  106   (void *)kill_data,
//  107   (void *)method8,
//  108   (void *)method9,
//  109   0
//  110 };
//  111 

        RSEG CODE:CODE:NOROOT(2)
        CFI Block cfiBlock113 Using cfiCommon1
        CFI Function maincsm_oncreate
        ARM
//  112 static void maincsm_oncreate(CSM_RAM *data)
//  113 {
maincsm_oncreate:
        PUSH     {R4,R5,LR}
        CFI ?RET Frame(CFA, -4)
        CFI R5 Frame(CFA, -8)
        CFI R4 Frame(CFA, -12)
        CFI CFA R13+12
        MOV      R4,R0
//  114   static const RECT Canvas={0,0,max_width-1,max_height-1};
//  115   MAIN_GUI *main_gui=malloc(sizeof(MAIN_GUI));
        MOV      R0,#+68
        SWI      +20
        MOV      R5,R0
//  116   MAIN_CSM*csm=(MAIN_CSM*)data;
//  117   zeromem(main_gui,sizeof(MAIN_GUI));
        MOV      R1,#+68
        SWI      +285
//  118   main_gui->gui.canvas=(void *)(&Canvas);
        LDR      R0,??maincsm_oncreate_0  ;; gui_methods
        ADD      R1,R0,#+44
        STR      R1,[R5, #+0]
//  119   main_gui->gui.flag30=2;
        MOV      R1,#+2
        STR      R1,[R5, #+48]
//  120   main_gui->gui.methods=(void *)gui_methods;
        STR      R0,[R5, #+4]
//  121   main_gui->gui.item_ll.data_mfree=(void (*)(void *))mfree_adr();
        SWI      +32789
        STR      R0,[R5, #+32]
//  122   csm->csm.state=0;
        MOV      R0,#+0
        STR      R0,[R4, #+16]
//  123   csm->csm.unk1=0;
        STR      R0,[R4, #+20]
//  124   csm->gui_id=CreateGUI(main_gui);
        MOV      R0,R5
        SWI      +311
        STR      R0,[R4, #+40]
//  125 }
        POP      {R4,R5,PC}       ;; return
        DATA
??maincsm_oncreate_0:
        DC32     gui_methods
        CFI EndBlock cfiBlock113

        RSEG CODE:CODE:NOROOT(2)
        CFI Block cfiBlock114 Using cfiCommon0
        CFI NoFunction
        THUMB
??ElfKiller??rT:
        BX       PC
        Nop      
        CFI EndBlock cfiBlock114
        REQUIRE ElfKiller
//  126 
//  127 

        RSEG CODE:CODE:NOROOT(2)
        CFI Block cfiBlock115 Using cfiCommon1
        CFI Function ElfKiller
        ARM
//  128 void ElfKiller(void)
//  129 {
ElfKiller:
        PUSH     {LR}
        CFI ?RET Frame(CFA, -4)
        CFI CFA R13+4
//  130   extern void *ELF_BEGIN;
//  131   kill_data(&ELF_BEGIN,(void (*)(void *))mfree_adr());
        SWI      +32789
        MOV      R1,R0
        LDR      R0,??ElfKiller_0  ;; ELF_BEGIN
        POP      {LR}             ;; Pop
        CFI ?RET R14
        CFI CFA R13+0
        _BF      kill_data,??kill_data??rA  ;; tailcall
        DATA
??ElfKiller_0:
        DC32     ELF_BEGIN
        CFI EndBlock cfiBlock115
//  132 }

        RSEG CODE:CODE:NOROOT(2)
        CFI Block cfiBlock116 Using cfiCommon0
        CFI NoFunction
        THUMB
??maincsm_onclose??rT:
        BX       PC
        Nop      
        CFI EndBlock cfiBlock116
        REQUIRE maincsm_onclose
//  133 

        RSEG CODE:CODE:NOROOT(2)
        CFI Block cfiBlock117 Using cfiCommon1
        CFI Function maincsm_onclose
        ARM
//  134 static void maincsm_onclose(CSM_RAM *csm)
//  135 {
maincsm_onclose:
        PUSH     {R4,LR}
        CFI ?RET Frame(CFA, -4)
        CFI R4 Frame(CFA, -8)
        CFI CFA R13+8
//  136   mfreeImages();
//  137   mfreelang();
//  138   deltimers();
//  139   SetVibration(0);
//  140   delimghdr();
//  141   PlayMelody_StopPlayback(PLAY_ID);
        LDR      R4,??DataTable68  ;; lang
        BL       mfreeImages
        BL       mfreelang
        BL       deltimers
        MOV      R0,#+0
        SWI      +124
        BL       delimghdr
        LDR      R0,[R4, #+616]
        SWI      +550
//  142   if(mode==0)savedata(1);
        LDR      R0,[R4, #+596]
        CMP      R0,#+0
        BNE      ??maincsm_onclose_0
        MOV      R0,#+1
        BL       savedata
//  143   SUBPROC((void *)ElfKiller);
??maincsm_onclose_0:
        LDR      R0,??maincsm_onclose_1  ;; ElfKiller
        SWI      +369
//  144 }
        POP      {R4,PC}          ;; return
        DATA
??maincsm_onclose_1:
        DC32     ElfKiller
        CFI EndBlock cfiBlock117

        RSEG CODE:CODE:NOROOT(2)
        CFI Block cfiBlock118 Using cfiCommon0
        CFI NoFunction
        THUMB
??maincsm_onmessage??rT:
        BX       PC
        Nop      
        CFI EndBlock cfiBlock118
        REQUIRE maincsm_onmessage
//  145 

        RSEG CODE:CODE:NOROOT(2)
        CFI Block cfiBlock119 Using cfiCommon1
        CFI Function maincsm_onmessage
        ARM
//  146 static int maincsm_onmessage(CSM_RAM *data, GBS_MSG *msg)
//  147 {
maincsm_onmessage:
        PUSH     {LR}
        CFI ?RET Frame(CFA, -4)
        CFI CFA R13+4
//  148 
//  149   MAIN_CSM *csm=(MAIN_CSM*)data;
//  150   if ((msg->msg==MSG_GUI_DESTROYED)&&((int)msg->data0==csm->gui_id))
        LDR      R2,[R1, #+4]
        MOV      R3,#+14
        ORR      R3,R3,#0x6400
        CMP      R2,R3
        BNE      ??maincsm_onmessage_0
        LDR      R2,[R1, #+12]
        LDR      R3,[R0, #+40]
        CMP      R2,R3
        BNE      ??maincsm_onmessage_1
//  151   {
//  152     csm->csm.state=-3;
        MVN      R2,#+2
        STR      R2,[R0, #+16]
//  153   }
//  154  if (msg->msg==MSG_RECONFIGURE_REQ)
??maincsm_onmessage_0:
        LDR      R0,[R1, #+4]
        MOV      R2,#+175
        ORR      R2,R2,#0xDE00
        CMP      R0,R2
        BNE      ??maincsm_onmessage_1
//  155   {
//  156     extern const char *successed_config_filename;
//  157     if (strcmp_nocase(successed_config_filename,(char *)msg->data0)==0)
        LDR      R0,[R1, #+12]
        LDR      R1,??DataTable67  ;; successed_config_filename
        LDR      R1,[R1, #+0]
??maincsm_onmessage_2:
        LDRB     R2,[R1, #+0]
        CMP      R2,#+97
        BLT      ??maincsm_onmessage_3
        CMP      R2,#+123
        SUBLT    R2,R2,#+32
??maincsm_onmessage_3:
        LDRB     R3,[R0, #+0]
        ADD      R1,R1,#+1
        CMP      R3,#+97
        BLT      ??maincsm_onmessage_4
        CMP      R3,#+123
        SUBLT    R3,R3,#+32
??maincsm_onmessage_4:
        ADD      R0,R0,#+1
        SUBS     R3,R2,R3
        BNE      ??maincsm_onmessage_1
        CMP      R2,#+0
        BNE      ??maincsm_onmessage_2
//  158     {
//  159       InitConfig();
        _BLF     InitConfig,??InitConfig??rA
//  160       RedrawScreen();
        BL       RedrawScreen
//  161     }
//  162   }
//  163    return(1);
??maincsm_onmessage_1:
        MOV      R0,#+1
        POP      {PC}             ;; return
        CFI EndBlock cfiBlock119
//  164 }

        RSEG CODE:CODE:NOROOT(2)
        DATA
??DataTable67:
        DC32     successed_config_filename

        RSEG CODE:CODE:NOROOT(2)
        CFI Block cfiBlock120 Using cfiCommon0
        CFI NoFunction
        THUMB
??UpdateCSMname??rT:
        BX       PC
        Nop      
        CFI EndBlock cfiBlock120
        REQUIRE UpdateCSMname

        RSEG DATA_C:CONST:SORT:NOROOT(2)
// char const __data perc_t[3]
perc_t:
        DATA
        DC8 "%t"
        DC8 0
        DC8 "%t: %d vs Cpu: %d "
        DC8 0
        DC8 "Ping-Pong Last Edition"
        DC8 0
        DC8 "<  %d  >"
        DC8 0, 0, 0
        DC8 "%d.  %s  %d"
        DC8 "\302\373\341\345\360\350\362\345 \377\347\373\352"
        DC8 0, 0
        DC8 "Select language"
        DC8 "\320\363\361\361\352\350\351"
        DC8 "English"
        DC8 "%t%s%s"
        DC8 0
        DC8 "img\\"
        DC8 0, 0, 0
        DC8 "%s: %t"
        DC8 0
// char const __data bgcol_lang_cur[4]
bgcol_lang_cur:
        DC8 1, 1, 1, 100
// char const __data bgcol[4]
bgcol:
        DC8 50, 50, 50, 255
        DC32 maincsm_onmessage, maincsm_oncreate, 0, 0, 0, 0, maincsm_onclose
        DC32 44, 1, minus11, maincsm_name_body, 55AACCCCH, 3333AA55H, 0
        DC16 139
        DC8 0, 0

        RSEG DATA_C:CONST:SORT:NOROOT(2)
        DATA
        DC8 "Cpu"

        RSEG DATA_C:CONST:SORT:NOROOT(2)
`?<Constant "data.sys">`:
        DATA
        DC8 "data.sys"
        DC8 0, 0, 0

        RSEG DATA_C:CONST:SORT:NOROOT(2)
`?<Constant "save\\\\savedata.pp">`:
        DATA
        DC8 "save\\savedata.pp"
        DC8 0, 0, 0

        RSEG DATA_C:CONST:SORT:NOROOT(2)
`?<Constant "%d \\367 %d \\354 %d \\361">`:
        DATA
        DC8 "%d \367 %d \354 %d \361"
        DC8 0
        DC8 "%d \354 %d \361"
        DC8 0, 0
        DC8 "%d \361"
        DC8 0, 0, 0
// char const __data linecol2[4]
linecol2:
        DC8 100, 0, 0, 100

        RSEG DATA_C:CONST:SORT:NOROOT(2)
`?<Constant "%t:%d %d cpu:%d %d \\302\\360...">`:
        DATA
        DC8 "%t:%d %d cpu:%d %d \302\360\345\354\377: %s"
        DC8 0, 0, 0
        DC8 "%t:%d cpu:%d \302\360\345\354\377: %s"
        DC8 0

        RSEG DATA_C:CONST:SORT:NOROOT(2)
// int const __data rndtable[64]
rndtable:
        DATA
        DC32 0, 1, 6, -3, 7, -2, 5, -1, 3, 4, 2, -7, -5, 0, 4, 1, 3, -4, 4, 6
        DC32 -1, 2, 7, -3, -7, -5, -3, 0, 3, 0, 2, 4, -7, 1, 5, 3, 0, 2, -5, -2
        DC32 5, 7, -1, 2, -5, 3, 1, 4, -3, -7, 2, 6, 0, -2, 1, 3, 5, -4, -1, 2
        DC32 0, -3, 4, -6

        RSEG DATA_C:CONST:SORT:NOROOT(2)
// int const __data minus11
minus11:
        DATA
        DC32 -11

        RSEG DATA_C:CONST:SORT:NOROOT(2)
gui_methods:
        DATA
        DC32 OnRedraw, onCreate, onClose, onFocus, onUnfocus, OnKey, 0H
        DC32 kill_data, method8, method9, 0H
        DC16 0, 0, 131, 175
//  165 
//  166 
//  167 static const struct
//  168 {
//  169   CSM_DESC maincsm;
//  170   WSHDR maincsm_name;
//  171 }MAINCSM =
//  172 {
//  173   {
//  174   maincsm_onmessage,
//  175   maincsm_oncreate,
//  176 #ifdef NEWSGOLD
//  177   0,
//  178   0,
//  179   0,
//  180   0,
//  181 #endif
//  182   maincsm_onclose,
//  183   sizeof(MAIN_CSM),
//  184   1,
//  185   &minus11
//  186   },
//  187   {
//  188     maincsm_name_body,
//  189     NAMECSM_MAGIC1,
//  190     NAMECSM_MAGIC2,
//  191     0x0,
//  192     139
//  193   }
//  194 };

        RSEG CODE:CODE:NOROOT(2)
        CFI Block cfiBlock121 Using cfiCommon1
        CFI Function UpdateCSMname
        ARM
//  195 void UpdateCSMname(void)
//  196 {
//  197   if (status==game)wsprintf((WSHDR *)(&MAINCSM.maincsm_name),"%t: %d vs Cpu: %d ",name,user.lifetime,cpu.lifetime);
UpdateCSMname:
        LDR      R1,??DataTable68  ;; lang
        LDR      R0,??DataTable69  ;; perc_t
        PUSH     {LR}
        CFI ?RET Frame(CFA, -4)
        CFI CFA R13+4
        LDRB     R2,[R1, #+664]
        CMP      R2,#+5
        BNE      ??UpdateCSMname_0
        LDR      R2,[R1, #+448]
        PUSH     {R2}
        CFI CFA R13+8
        LDR      R3,[R1, #+412]
        LDR      R2,??DataTable70  ;; name
        ADD      R1,R0,#+4
        ADD      R0,R0,#+192
        SWI      +292
        ADD      SP,SP,#+4
        CFI CFA R13+4
        POP      {PC}
//  198   else wsprintf((WSHDR *)(&MAINCSM.maincsm_name),perc_t,"Ping-Pong Last Edition");
??UpdateCSMname_0:
        ADD      R2,R0,#+24
        MOV      R1,R0
        ADD      R0,R0,#+192
        SWI      +292
//  199 }
        POP      {PC}             ;; return
        CFI EndBlock cfiBlock121

        RSEG CODE:CODE:NOROOT(2)
        DATA
??DataTable68:
        DC32     lang

        RSEG CODE:CODE:NOROOT(2)
        DATA
??DataTable69:
        DC32     perc_t

        RSEG CODE:CODE:NOROOT(2)
        DATA
??DataTable70:
        DC32     name

        RSEG CODE:CODE:NOROOT(2)
        CFI Block cfiBlock122 Using cfiCommon0
        CFI NoFunction
        THUMB
??main??rT:
        BX       PC
        Nop      
        CFI EndBlock cfiBlock122
        REQUIRE main
//  200 
//  201 

        RSEG CODE:CODE:NOROOT(2)
        CFI Block cfiBlock123 Using cfiCommon1
        CFI Function main
        ARM
//  202 int main()
//  203 {
main:
        PUSH     {LR}
        CFI ?RET Frame(CFA, -4)
        CFI CFA R13+4
        SUB      SP,SP,#+44
        CFI CFA R13+48
//  204   MAIN_CSM main_csm;
//  205   UpdateCSMname();
        BL       UpdateCSMname
//  206   CreateCSM(&MAINCSM.maincsm,&main_csm,0);
        LDR      R0,??main_0      ;; perc_t + 152
        MOV      R2,#+0
        MOV      R1,SP
        SWI      +263
//  207   InitConfig();
        _BLF     InitConfig,??InitConfig??rA
//  208   Init();
        BL       Init
//  209   return 0;
        MOV      R0,#+0
        ADD      SP,SP,#+44
        CFI CFA R13+4
        POP      {PC}             ;; return
        DATA
??main_0:
        DC32     perc_t + 152
        CFI EndBlock cfiBlock123
//  210 }

        RSEG CODE:CODE:NOROOT(2)
        CFI Block cfiBlock124 Using cfiCommon1
        CFI NoFunction
        ARM
??__longToDouble??rA:
        LDR      R3,??Subroutine62_0  ;; __longToDouble
        BX       R3
        DATA
??Subroutine62_0:
        DC32     __longToDouble
        CFI EndBlock cfiBlock124

        RSEG CODE:CODE:NOROOT(2)
        CFI Block cfiBlock125 Using cfiCommon1
        CFI NoFunction
        ARM
??__dAdd??rA:
        LDR      R12,??Subroutine63_0  ;; __dAdd
        BX       R12
        DATA
??Subroutine63_0:
        DC32     __dAdd
        CFI EndBlock cfiBlock125

        RSEG CODE:CODE:NOROOT(2)
        CFI Block cfiBlock126 Using cfiCommon1
        CFI NoFunction
        ARM
??__doubleToLong??rA:
        LDR      R3,??Subroutine64_0  ;; __doubleToLong
        BX       R3
        DATA
??Subroutine64_0:
        DC32     __doubleToLong
        CFI EndBlock cfiBlock126

        RSEG CODE:CODE:NOROOT(2)
        CFI Block cfiBlock127 Using cfiCommon1
        CFI NoFunction
        ARM
??__dMul??rA:
        LDR      R12,??Subroutine65_0  ;; __dMul
        BX       R12
        DATA
??Subroutine65_0:
        DC32     __dMul
        CFI EndBlock cfiBlock127

        RSEG CODE:CODE:NOROOT(2)
        CFI Block cfiBlock128 Using cfiCommon1
        CFI NoFunction
        ARM
??__dEqual??rA:
        LDR      R12,??Subroutine66_0  ;; __dEqual
        BX       R12
        DATA
??Subroutine66_0:
        DC32     __dEqual
        CFI EndBlock cfiBlock128

        RSEG CODE:CODE:NOROOT(2)
        CFI Block cfiBlock129 Using cfiCommon1
        CFI NoFunction
        ARM
??kill_data??rA:
        LDR      R12,??Subroutine67_0  ;; kill_data
        BX       R12
        DATA
??Subroutine67_0:
        DC32     kill_data
        CFI EndBlock cfiBlock129

        RSEG CODE:CODE:NOROOT(2)
        CFI Block cfiBlock130 Using cfiCommon1
        CFI NoFunction
        ARM
??InitConfig??rA:
        LDR      R12,??Subroutine68_0  ;; InitConfig
        BX       R12
        DATA
??Subroutine68_0:
        DC32     InitConfig
        CFI EndBlock cfiBlock130

        RSEG DATA_ID:CONST:SORT:NOROOT(2)
`?<Initializer for lang>`:
        DATA
        DC8 0, 0, 0, 0, 0, 0, 0, 0, 0, 0, 0, 0, 0, 0, 0, 0
        DC8 0, 0, 0, 0, 0, 0, 0, 0, 0, 0, 0, 0, 0, 0, 0, 0
        DC8 0, 0, 0, 0, 0, 0, 0, 0, 0, 0, 0, 0, 0, 0, 0, 0
        DC8 0, 0, 0, 0, 0, 0, 0, 0, 0, 0, 0, 0, 0, 0, 0, 0
        DC8 0, 0, 0, 0, 0, 0, 0, 0, 0, 0, 0, 0, 0, 0, 0, 0
        DC8 0, 0, 0, 0, 0, 0, 0, 0, 0, 0, 0, 0, 0, 0, 0, 0
        DC8 0, 0, 0, 0, 0, 0, 0, 0, 0, 0, 0, 0, 0, 0, 0, 0
        DC8 0, 0, 0, 0, 0, 0, 0, 0, 0, 0, 0, 0, 0, 0, 0, 0
        DC8 0, 0, 0, 0, 0, 0, 0, 0, 0, 0, 0, 0, 0, 0, 0, 0
        DC8 0, 0, 0, 0, 0, 0, 0, 0, 0, 0, 0, 0, 0, 0, 0, 0
        DC8 0, 0, 0, 0, 0, 0, 0, 0, 0, 0, 0, 0, 0, 0, 0, 0
        DC8 0, 0, 0, 0, 0, 0, 0, 0, 0, 0, 0, 0, 0, 0, 0, 0
        DC8 0, 0, 0, 0, 0, 0, 0, 0, 0, 0, 0, 0, 0, 0, 0, 0
        DC8 0, 0, 0, 0, 0, 0, 0, 0, 0, 0, 0, 0, 0, 0, 0, 0
        DC8 0, 0, 0, 0, 0, 0, 0, 0, 0, 0, 0, 0, 0, 0, 0, 0
`?<Initializer for record>`:
        DC8 0, 0, 0, 0, 0, 0, 0, 0, 0, 0, 0, 0, 0, 0, 0, 0
        DC8 0, 0, 0, 0, 0, 0, 0, 0, 0, 0, 0, 0, 0, 0, 0, 0
        DC8 0, 0, 0, 0, 0, 0, 0, 0, 0, 0, 0, 0, 0, 0, 0, 0
        DC8 0, 0, 0, 0, 0, 0, 0, 0, 0, 0, 0, 0, 0, 0, 0, 0
        DC8 0, 0, 0, 0, 0, 0, 0, 0, 0, 0, 0, 0, 0, 0, 0, 0
        DC8 0, 0, 0, 0, 0, 0, 0, 0, 0, 0, 0, 0, 0, 0, 0, 0
        DC8 0, 0, 0, 0, 0, 0, 0, 0, 0, 0, 0, 0, 0, 0, 0, 0, 0, 0, 0, 0
`?<Initializer for ball>`:
        DC8 0, 0, 0, 0, 0, 0, 0, 0, 0, 0, 0, 0, 0, 0, 0, 0
        DC8 0, 0, 0, 0, 0, 0, 0, 0, 0, 0, 0, 0, 0, 0, 0, 0, 0, 0, 0, 0
`?<Initializer for user>`:
        DC8 0, 0, 0, 0, 0, 0, 0, 0, 0, 0, 0, 0, 0, 0, 0, 0
        DC8 0, 0, 0, 0, 0, 0, 0, 0, 0, 0, 0, 0, 0, 0, 0, 0, 0, 0, 0, 0
`?<Initializer for cpu>`:
        DC8 0, 0, 0, 0, 0, 0, 0, 0, 0, 0, 0, 0, 0, 0, 0, 0
        DC8 0, 0, 0, 0, 0, 0, 0, 0, 0, 0, 0, 0, 0, 0, 0, 0, 0, 0, 0, 0
`?<Initializer for pics>`:
        DC8 0, 0, 0, 0, 0, 0, 0, 0, 0, 0, 0, 0, 0, 0, 0, 0
        DC8 0, 0, 0, 0, 0, 0, 0, 0
`?<Initializer for images>`:
        DC8 0, 0, 0, 0, 0, 0, 0, 0, 0, 0, 0, 0, 0, 0, 0, 0
        DC8 0, 0, 0, 0, 0, 0, 0, 0
`?<Initializer for Time>`:
        DC8 0, 0, 0, 0, 0, 0, 0, 0, 0, 0, 0, 0, 0, 0, 0, 0, 0, 0, 0, 0
`?<Initializer for color_frame>`:
        DC32 23, 23, 23, 23, 23, 23, 23, 23
`?<Initializer for clear>`:
        DC32 0
`?<Initializer for rndindex>`:
        DC32 0
`?<Initializer for running>`:
        DC32 0
`?<Initializer for cur_x>`:
        DC32 56
`?<Initializer for cur_y>`:
        DC32 26
`?<Initializer for main_y>`:
        DC32 30
`?<Initializer for difficult>`:
        DC32 0
`?<Initializer for lives>`:
        DC32 7
`?<Initializer for mode>`:
        DC32 0
`?<Initializer for speed_game>`:
        DC32 0
`?<Initializer for gdy>`:
        DC8 0, 0, 0, 0
`?<Initializer for def_vol>`:
        DC32 0
`?<Initializer for on_off_sound>`:
        DC32 0
`?<Initializer for PLAY_ID>`:
        DC32 4095
`?<Initializer for saveload>`:
        DC32 1
`?<Initializer for img_count>`:
        DC8 0, 0, 0, 0
`?<Initializer for game_new_cont>`:
        DC32 1
`?<Initializer for langenru>`:
        DC32 0
`?<Initializer for vibra>`:
        DC8 0, 0, 0, 0
`?<Initializer for exiting>`:
        DC32 0
`?<Initializer for error_count>`:
        DC32 0
`?<Initializer for AI_line>`:
        DC32 0
`?<Initializer for isload>`:
        DC32 0
`?<Initializer for folders>`:
        DC8 0, 0, 0, 0
`?<Initializer for idle>`:
        DC32 1
`?<Initializer for status>`:
        DC8 0
        DC8 0, 0, 0
`?<Initializer for tmr>`:
        DC8 0, 0, 0, 0, 0, 0, 0, 0, 0, 0, 0, 0, 0, 0, 0, 0
`?<Initializer for vibr>`:
        DC8 0, 0, 0, 0, 0, 0, 0, 0, 0, 0, 0, 0, 0, 0, 0, 0

        RSEG INITTAB:CODE:ROOT(2)
        DATA
?init?tab?DATA_Z:
        DCD      sfe(DATA_Z) - sfb(DATA_Z), sfb(DATA_Z), sfb(DATA_Z)

        RSEG DATA_ID:CONST:SORT:NOROOT(2)
`?*?DATA_ID`:

        RSEG INITTAB:CODE:ROOT(2)
        DATA
?init?tab?DATA_I:
        DCD      sfe(DATA_I) - sfb(DATA_I), sfb(DATA_I), sfb(DATA_ID)

        END
// 
// 16 292 bytes in segment CODE
//  2 612 bytes in segment DATA_C
//    700 bytes in segment DATA_I
//    700 bytes in segment DATA_ID
//    288 bytes in segment DATA_Z
//     24 bytes in segment INITTAB
// 
// 15 960 bytes of CODE  memory (+ 356 bytes shared)
//  3 312 bytes of CONST memory
//    988 bytes of DATA  memory
//
//Errors: none
//Warnings: none
