##############################################################################
#                                                                            #
# IAR ARM ANSI C/C++ Compiler V4.42A/W32 EVALUATION    26/Sep/2009  09:14:31 #
# Copyright 1999-2005 IAR Systems. All rights reserved.                      #
#                                                                            #
#    Cpu mode        =  interwork                                            #
#    Endian          =  little                                               #
#    Stack alignment =  4                                                    #
#    Source file     =  C:\arm\n_xtask_final(all platforms)\main.c           #
#    Command line    =  "C:\arm\n_xtask_final(all platforms)\main.c" -D      #
#                       NEWSGOLD -D ELKA -D EVILFOX -lC                      #
#                       "C:\arm\n_xtask_final(all                            #
#                       platforms)\Release_ELKA\List\" -o                    #
#                       "C:\arm\n_xtask_final(all                            #
#                       platforms)\Release_ELKA\Obj\" -s9 --no_unroll        #
#                       --no_clustering --cpu_mode arm --endian little       #
#                       --cpu ARM926EJ-S --stack_align 4 --interwork -e      #
#                       --fpu None --dlib_config "C:\arm2\Embedded           #
#                       Workbench 4.0 Evaluation\ARM\LIB\dl5tpainl8n.h" -I   #
#                       "C:\arm2\Embedded Workbench 4.0                      #
#                       Evaluation\ARM\INC\" --inline_threshold=2            #
#    List file       =  C:\arm\n_xtask_final(all platforms)\Release_ELKA\Lis #
#                       t\main.lst                                           #
#    Object file     =  C:\arm\n_xtask_final(all platforms)\Release_ELKA\Obj #
#                       \main.r79                                            #
#                                                                            #
#                                                                            #
##############################################################################

C:\arm\n_xtask_final(all platforms)\main.c
      1          #include "..\inc\swilib.h"
      2          #include "..\inc\xtask_ipc.h"
      3          #include "swaper.h"
      4          #include "gui.h"
      5          #include "main.h"
      6          #include "conf_loader.h"
      7          #include "reboot_loader.h"

   \                                 In segment DATA_Z, align 4, align-sorted
      8          int a=0;
   \                     a:
   \   00000000                      DS8 4
      9          
     10          #ifdef ELKA
     11          #else
     12          #ifdef NEWSGOLD
     13          int font=11;
     14          #else
     15          int font=7;
     16          #endif
     17          #endif
     18          

   \                                 In segment DATA_Z, align 4, align-sorted
     19          int book_show;
   \                     book_show:
   \   00000000                      DS8 4

   \                                 In segment DATA_I, align 4, align-sorted
     20          int time_not=1;
   \                     time_not:
   \   00000000                      DS8 4
   \   00000004                      REQUIRE `?<Initializer for time_not>`

   \                                 In segment DATA_Z, align 4, align-sorted
     21          GBSTMR start_tmr;
   \                     start_tmr:
   \   00000000                      DS8 16
     22          extern const char ctasks[4];
     23          extern const char cdaemons[4];
     24          extern const char cinfo[4];
     25          extern const int cleseri;
     26          extern const int use_idle;
     27          extern const int use_green;

   \                                 In segment DATA_Z, align 4, align-sorted
     28          int lock_other;
   \                     lock_other:
   \   00000000                      DS8 4
     29          extern const char path_file[128];

   \                                 In segment DATA_Z, align 4, align-sorted
     30          IMGHDR *reboot1, *shutdown1, *task_img, *ram_img, *clock_img, *batt_img, *background_img, *tasks_img, *bookmarks_img, *cursor_img, *selection_img;
   \                     reboot1:
   \   00000000                      DS8 4

   \                                 In segment DATA_Z, align 4, align-sorted
   \                     shutdown1:
   \   00000000                      DS8 4

   \                                 In segment DATA_Z, align 4, align-sorted
   \                     task_img:
   \   00000000                      DS8 4

   \                                 In segment DATA_Z, align 4, align-sorted
   \                     ram_img:
   \   00000000                      DS8 4

   \                                 In segment DATA_Z, align 4, align-sorted
   \                     clock_img:
   \   00000000                      DS8 4

   \                                 In segment DATA_Z, align 4, align-sorted
   \                     batt_img:
   \   00000000                      DS8 4

   \                                 In segment DATA_Z, align 4, align-sorted
   \                     background_img:
   \   00000000                      DS8 4

   \                                 In segment DATA_Z, align 4, align-sorted
   \                     tasks_img:
   \   00000000                      DS8 4

   \                                 In segment DATA_Z, align 4, align-sorted
   \                     bookmarks_img:
   \   00000000                      DS8 4

   \                                 In segment DATA_Z, align 4, align-sorted
   \                     cursor_img:
   \   00000000                      DS8 4

   \                                 In segment DATA_Z, align 4, align-sorted
   \                     selection_img:
   \   00000000                      DS8 4

   \                                 In segment DATA_Z, align 4, align-sorted
     31          char soft_list_path[128];
   \                     soft_list_path:
   \   00000000                      DS8 128

   \                                 In segment DATA_Z, align 4, align-sorted
     32          char bokmark_list_path[128];
   \                     bokmark_list_path:
   \   00000000                      DS8 128

   \                                 In segment DATA_Z, align 4, align-sorted
     33          char icon_list_path[128];
   \                     icon_list_path:
   \   00000000                      DS8 128
     34          extern const int horizontality;
     35          #ifdef ELKA

   \                                 In segment DATA_Z, align 4, align-sorted
     36          char icon_list_ms[128];
   \                     icon_list_ms:
   \   00000000                      DS8 128

   \                                 In segment DATA_Z, align 4, align-sorted
     37          char icon_list_xtask[128];
   \                     icon_list_xtask:
   \   00000000                      DS8 128
     38          extern const char ctasksi[4];
     39          #else
     40          IMGHDR *shutdown_logo, *shutdown2;
     41          #endif
     42          

   \                                 In segment CODE, align 4, keep-with-next
     43          static DrwImage(int x, int y, IMGHDR *img, char *pen, char *brush)
     44          {
   \                     DrwImage:
   \   00000000   70402DE9           PUSH     {R4-R6,LR}
   \   00000004   2CD04DE2           SUB      SP,SP,#+44
   \   00000008   3C609DE5           LDR      R6,[SP, #+60]
   \   0000000C   0240A0E1           MOV      R4,R2
     45            RECT rc;
     46            DRWOBJ drwobj;
     47            StoreXYWHtoRECT(&rc,x,y,img->w,img->h);
   \   00000010   B220D4E1           LDRH     R2,[R4, #+2]
   \   00000014   0350A0E1           MOV      R5,R3
   \   00000018   04002DE9           PUSH     {R2}
   \   0000001C   B030D4E1           LDRH     R3,[R4, #+0]
   \   00000020   0120A0E1           MOV      R2,R1
   \   00000024   0010A0E1           MOV      R1,R0
   \   00000028   04008DE2           ADD      R0,SP,#+4
   \   0000002C   330100EF           SWI      +307
     48            SetPropTo_Obj5(&drwobj,&rc,0,img);
   \   00000030   0430A0E1           MOV      R3,R4
   \   00000034   0020A0E3           MOV      R2,#+0
   \   00000038   04108DE2           ADD      R1,SP,#+4
   \   0000003C   0C008DE2           ADD      R0,SP,#+12
   \   00000040   510100EF           SWI      +337
     49            SetColor(&drwobj,pen,brush);
   \   00000044   0620A0E1           MOV      R2,R6
   \   00000048   0510A0E1           MOV      R1,R5
   \   0000004C   0C008DE2           ADD      R0,SP,#+12
   \   00000050   4B0100EF           SWI      +331
     50            DrawObject(&drwobj);
   \   00000054   0C008DE2           ADD      R0,SP,#+12
   \   00000058   2A0100EF           SWI      +298
     51          }
   \   0000005C   30D08DE2           ADD      SP,SP,#+48
   \   00000060   7080BDE8           POP      {R4-R6,PC}       ;; return
     52          
     53          extern const int use_trans;
     54          

   \                                 In segment CODE, align 4, keep-with-next
     55          void init_paths()
     56          {
     57           
     58            char z[128];
     59            sprintf(z, "%sturnoff\\shutdown1.png", path_file);
   \                     init_paths:
   \   00000000   00129FE5           LDR      R1,??init_paths_0  ;; `?<Constant "%sturnoff\\\\shutdown1.png">`
   \   00000004   30402DE9           PUSH     {R4,R5,LR}
   \   00000008   FC419FE5           LDR      R4,??init_paths_0+0x4  ;; path_file
   \   0000000C   80D04DE2           SUB      SP,SP,#+128
   \   00000010   0420A0E1           MOV      R2,R4
   \   00000014   0D00A0E1           MOV      R0,SP
   \   00000018   160000EF           SWI      +22
     60            shutdown1=CreateIMGHDRFromPngFile(z, 2); 
   \   0000001C   0210A0E3           MOV      R1,#+2
   \   00000020   0D00A0E1           MOV      R0,SP
   \   00000024   E90100EF           SWI      +489
   \   00000028   ........           LDR      R1,??DataTable0  ;; shutdown1
     61          #ifdef ELKA
     62          #else
     63            sprintf(z, "%sturnoff\\shutdown_logo.png", path_file);
     64            shutdown_logo=CreateIMGHDRFromPngFile(z, 2); 
     65            sprintf(z, "%sturnoff\\shutdown2.png", path_file);
     66            shutdown2=CreateIMGHDRFromPngFile(z, 2); 
     67          #endif
     68            sprintf(z, "%sturnoff\\reboot1.png", path_file);
   \   0000002C   0420A0E1           MOV      R2,R4
   \   00000030   000081E5           STR      R0,[R1, #+0]
   \   00000034   D4119FE5           LDR      R1,??init_paths_0+0x8  ;; `?<Constant "%sturnoff\\\\reboot1.png">`
   \   00000038   0D00A0E1           MOV      R0,SP
   \   0000003C   160000EF           SWI      +22
     69            reboot1=CreateIMGHDRFromPngFile(z, 2); 
   \   00000040   0210A0E3           MOV      R1,#+2
   \   00000044   0D00A0E1           MOV      R0,SP
   \   00000048   E90100EF           SWI      +489
   \   0000004C   ........           LDR      R1,??DataTable1  ;; reboot1
     70            sprintf(z, "%sother\\taski.png", path_file);
   \   00000050   0420A0E1           MOV      R2,R4
   \   00000054   000081E5           STR      R0,[R1, #+0]
   \   00000058   B4119FE5           LDR      R1,??init_paths_0+0xC  ;; `?<Constant "%sother\\\\taski.png">`
   \   0000005C   0D00A0E1           MOV      R0,SP
   \   00000060   160000EF           SWI      +22
     71            task_img=CreateIMGHDRFromPngFile(z, 2); 
   \   00000064   0210A0E3           MOV      R1,#+2
   \   00000068   0D00A0E1           MOV      R0,SP
   \   0000006C   E90100EF           SWI      +489
   \   00000070   ........           LDR      R1,??DataTable2  ;; task_img
     72            sprintf(z, "%sother\\rami.png", path_file);
   \   00000074   0420A0E1           MOV      R2,R4
   \   00000078   000081E5           STR      R0,[R1, #+0]
   \   0000007C   94119FE5           LDR      R1,??init_paths_0+0x10  ;; `?<Constant "%sother\\\\rami.png">`
   \   00000080   0D00A0E1           MOV      R0,SP
   \   00000084   160000EF           SWI      +22
     73            ram_img=CreateIMGHDRFromPngFile(z, 2); 
   \   00000088   0210A0E3           MOV      R1,#+2
   \   0000008C   0D00A0E1           MOV      R0,SP
   \   00000090   E90100EF           SWI      +489
   \   00000094   ........           LDR      R1,??DataTable3  ;; ram_img
     74            sprintf(z, "%sother\\clocki.png", path_file);
   \   00000098   0420A0E1           MOV      R2,R4
   \   0000009C   000081E5           STR      R0,[R1, #+0]
   \   000000A0   74119FE5           LDR      R1,??init_paths_0+0x14  ;; `?<Constant "%sother\\\\clocki.png">`
   \   000000A4   0D00A0E1           MOV      R0,SP
   \   000000A8   160000EF           SWI      +22
     75            clock_img=CreateIMGHDRFromPngFile(z, 2); 
   \   000000AC   0210A0E3           MOV      R1,#+2
   \   000000B0   0D00A0E1           MOV      R0,SP
   \   000000B4   E90100EF           SWI      +489
   \   000000B8   ........           LDR      R1,??DataTable4  ;; clock_img
     76            sprintf(z, "%sother\\batti.png", path_file);
   \   000000BC   0420A0E1           MOV      R2,R4
   \   000000C0   000081E5           STR      R0,[R1, #+0]
   \   000000C4   54119FE5           LDR      R1,??init_paths_0+0x18  ;; `?<Constant "%sother\\\\batti.png">`
   \   000000C8   0D00A0E1           MOV      R0,SP
   \   000000CC   160000EF           SWI      +22
     77            batt_img=CreateIMGHDRFromPngFile(z, 2); 
   \   000000D0   0210A0E3           MOV      R1,#+2
   \   000000D4   0D00A0E1           MOV      R0,SP
   \   000000D8   E90100EF           SWI      +489
   \   000000DC   ........           LDR      R1,??DataTable5  ;; batt_img
     78            sprintf(z, "%sbackground.png", path_file);
   \   000000E0   0420A0E1           MOV      R2,R4
   \   000000E4   000081E5           STR      R0,[R1, #+0]
   \   000000E8   34119FE5           LDR      R1,??init_paths_0+0x1C  ;; `?<Constant "%sbackground.png">`
   \   000000EC   0D00A0E1           MOV      R0,SP
   \   000000F0   160000EF           SWI      +22
     79            if(use_trans)
   \   000000F4   2C019FE5           LDR      R0,??init_paths_0+0x20  ;; use_trans
   \   000000F8   005090E5           LDR      R5,[R0, #+0]
     80            background_img=CreateIMGHDRFromPngFile(z, 0); 
     81            else
     82              background_img=CreateIMGHDRFromPngFile(z, 2); 
   \   000000FC   0D00A0E1           MOV      R0,SP
   \   00000100   000055E3           CMP      R5,#+0
   \   00000104   0010A013           MOVNE    R1,#+0
   \   00000108   0210A003           MOVEQ    R1,#+2
   \   0000010C   E90100EF           SWI      +489
   \   00000110   ........           LDR      R1,??DataTable60  ;; background_img
     83            sprintf(z, "%stasks.png", path_file);
   \   00000114   0420A0E1           MOV      R2,R4
   \   00000118   000081E5           STR      R0,[R1, #+0]
   \   0000011C   08119FE5           LDR      R1,??init_paths_0+0x24  ;; `?<Constant "%stasks.png">`
   \   00000120   0D00A0E1           MOV      R0,SP
   \   00000124   160000EF           SWI      +22
     84            tasks_img=CreateIMGHDRFromPngFile(z, 2); 
   \   00000128   0210A0E3           MOV      R1,#+2
   \   0000012C   0D00A0E1           MOV      R0,SP
   \   00000130   E90100EF           SWI      +489
   \   00000134   ........           LDR      R1,??DataTable53  ;; tasks_img
     85            sprintf(z, "%sbookmarks.png", path_file);
   \   00000138   0420A0E1           MOV      R2,R4
   \   0000013C   000081E5           STR      R0,[R1, #+0]
   \   00000140   E8109FE5           LDR      R1,??init_paths_0+0x28  ;; `?<Constant "%sbookmarks.png">`
   \   00000144   0D00A0E1           MOV      R0,SP
   \   00000148   160000EF           SWI      +22
     86            bookmarks_img=CreateIMGHDRFromPngFile(z, 2);
   \   0000014C   0210A0E3           MOV      R1,#+2
   \   00000150   0D00A0E1           MOV      R0,SP
   \   00000154   E90100EF           SWI      +489
   \   00000158   ........           LDR      R1,??DataTable54  ;; bookmarks_img
     87            sprintf(z, "%scursor.png", path_file);
   \   0000015C   0420A0E1           MOV      R2,R4
   \   00000160   000081E5           STR      R0,[R1, #+0]
   \   00000164   C8109FE5           LDR      R1,??init_paths_0+0x2C  ;; `?<Constant "%scursor.png">`
   \   00000168   0D00A0E1           MOV      R0,SP
   \   0000016C   160000EF           SWI      +22
     88            if(use_trans)
   \   00000170   000055E3           CMP      R5,#+0
     89            cursor_img=CreateIMGHDRFromPngFile(z, 0);
   \   00000174   0010A013           MOVNE    R1,#+0
     90            else
     91              cursor_img=CreateIMGHDRFromPngFile(z, 2);
   \   00000178   0210A003           MOVEQ    R1,#+2
   \   0000017C   0D00A0E1           MOV      R0,SP
   \   00000180   E90100EF           SWI      +489
   \   00000184   ........           LDR      R1,??DataTable61  ;; cursor_img
     92            sprintf(z, "%sselection.png", path_file);
   \   00000188   0420A0E1           MOV      R2,R4
   \   0000018C   000081E5           STR      R0,[R1, #+0]
   \   00000190   A0109FE5           LDR      R1,??init_paths_0+0x30  ;; `?<Constant "%sselection.png">`
   \   00000194   0D00A0E1           MOV      R0,SP
   \   00000198   160000EF           SWI      +22
     93            selection_img=CreateIMGHDRFromPngFile(z, 2);
   \   0000019C   0210A0E3           MOV      R1,#+2
   \   000001A0   0D00A0E1           MOV      R0,SP
   \   000001A4   E90100EF           SWI      +489
   \   000001A8   ........           LDR      R1,??DataTable10  ;; selection_img
     94          #ifdef ELKA
     95            sprintf(icon_list_ms, "%sicons_m\\", path_file);
   \   000001AC   0420A0E1           MOV      R2,R4
   \   000001B0   000081E5           STR      R0,[R1, #+0]
   \   000001B4   80109FE5           LDR      R1,??init_paths_0+0x34  ;; `?<Constant "%sicons_m\\\\">`
   \   000001B8   ........           LDR      R0,??DataTable68  ;; icon_list_ms
   \   000001BC   160000EF           SWI      +22
     96            sprintf(icon_list_xtask, "%sicons_x\\", path_file);
   \   000001C0   78109FE5           LDR      R1,??init_paths_0+0x38  ;; `?<Constant "%sicons_x\\\\">`
   \   000001C4   ........           LDR      R0,??DataTable71  ;; icon_list_xtask
   \   000001C8   0420A0E1           MOV      R2,R4
   \   000001CC   160000EF           SWI      +22
     97          #endif
     98            sprintf(icon_list_path, "%sicon_list.txt", path_file);
   \   000001D0   6C109FE5           LDR      R1,??init_paths_0+0x3C  ;; `?<Constant "%sicon_list.txt">`
   \   000001D4   ........           LDR      R0,??DataTable13  ;; icon_list_path
   \   000001D8   0420A0E1           MOV      R2,R4
   \   000001DC   160000EF           SWI      +22
     99            sprintf(bokmark_list_path, "%sbookmark_list.txt", path_file);
   \   000001E0   60109FE5           LDR      R1,??init_paths_0+0x40  ;; `?<Constant "%sbookmark_list.txt">`
   \   000001E4   ........           LDR      R0,??DataTable14  ;; bokmark_list_path
   \   000001E8   0420A0E1           MOV      R2,R4
   \   000001EC   160000EF           SWI      +22
    100            sprintf(soft_list_path, "%ssoft_list.txt", path_file);
   \   000001F0   54109FE5           LDR      R1,??init_paths_0+0x44  ;; `?<Constant "%ssoft_list.txt">`
   \   000001F4   54009FE5           LDR      R0,??init_paths_0+0x48  ;; soft_list_path
   \   000001F8   0420A0E1           MOV      R2,R4
   \   000001FC   160000EF           SWI      +22
    101          }
   \   00000200   80D08DE2           ADD      SP,SP,#+128
   \   00000204   3080BDE8           POP      {R4,R5,PC}       ;; return
   \                     ??init_paths_0:
   \   00000208   ........           DC32     `?<Constant "%sturnoff\\\\shutdown1.png">`
   \   0000020C   ........           DC32     path_file
   \   00000210   ........           DC32     `?<Constant "%sturnoff\\\\reboot1.png">`
   \   00000214   ........           DC32     `?<Constant "%sother\\\\taski.png">`
   \   00000218   ........           DC32     `?<Constant "%sother\\\\rami.png">`
   \   0000021C   ........           DC32     `?<Constant "%sother\\\\clocki.png">`
   \   00000220   ........           DC32     `?<Constant "%sother\\\\batti.png">`
   \   00000224   ........           DC32     `?<Constant "%sbackground.png">`
   \   00000228   ........           DC32     use_trans
   \   0000022C   ........           DC32     `?<Constant "%stasks.png">`
   \   00000230   ........           DC32     `?<Constant "%sbookmarks.png">`
   \   00000234   ........           DC32     `?<Constant "%scursor.png">`
   \   00000238   ........           DC32     `?<Constant "%sselection.png">`
   \   0000023C   ........           DC32     `?<Constant "%sicons_m\\\\">`
   \   00000240   ........           DC32     `?<Constant "%sicons_x\\\\">`
   \   00000244   ........           DC32     `?<Constant "%sicon_list.txt">`
   \   00000248   ........           DC32     `?<Constant "%sbookmark_list.txt">`
   \   0000024C   ........           DC32     `?<Constant "%ssoft_list.txt">`
   \   00000250   ........           DC32     soft_list_path
    102          
    103          //=================================bookmarks

   \                                 In segment DATA_Z, align 4, align-sorted
    104          char BM1NAME[32];
   \                     BM1NAME:
   \   00000000                      DS8 32

   \                                 In segment DATA_Z, align 4, align-sorted
    105          char BM1FILE[128];
   \                     BM1FILE:
   \   00000000                      DS8 128

   \                                 In segment DATA_Z, align 4, align-sorted
    106          char BM2NAME[32];
   \                     BM2NAME:
   \   00000000                      DS8 32

   \                                 In segment DATA_Z, align 4, align-sorted
    107          char BM2FILE[128];
   \                     BM2FILE:
   \   00000000                      DS8 128

   \                                 In segment DATA_Z, align 4, align-sorted
    108          char BM3NAME[32];
   \                     BM3NAME:
   \   00000000                      DS8 32

   \                                 In segment DATA_Z, align 4, align-sorted
    109          char BM3FILE[128];
   \                     BM3FILE:
   \   00000000                      DS8 128

   \                                 In segment DATA_Z, align 4, align-sorted
    110          char BM4NAME[32];
   \                     BM4NAME:
   \   00000000                      DS8 32

   \                                 In segment DATA_Z, align 4, align-sorted
    111          char BM4FILE[128];
   \                     BM4FILE:
   \   00000000                      DS8 128

   \                                 In segment DATA_Z, align 4, align-sorted
    112          char BM5NAME[32];
   \                     BM5NAME:
   \   00000000                      DS8 32

   \                                 In segment DATA_Z, align 4, align-sorted
    113          char BM5FILE[128];
   \                     BM5FILE:
   \   00000000                      DS8 128

   \                                 In segment DATA_Z, align 4, align-sorted
    114          char BM6NAME[32];
   \                     BM6NAME:
   \   00000000                      DS8 32

   \                                 In segment DATA_Z, align 4, align-sorted
    115          char BM6FILE[128];
   \                     BM6FILE:
   \   00000000                      DS8 128

   \                                 In segment DATA_Z, align 4, align-sorted
    116          char BM7NAME[32];
   \                     BM7NAME:
   \   00000000                      DS8 32

   \                                 In segment DATA_Z, align 4, align-sorted
    117          char BM7FILE[128];
   \                     BM7FILE:
   \   00000000                      DS8 128

   \                                 In segment DATA_Z, align 4, align-sorted
    118          char BM8NAME[32];
   \                     BM8NAME:
   \   00000000                      DS8 32

   \                                 In segment DATA_Z, align 4, align-sorted
    119          char BM8FILE[128];
   \                     BM8FILE:
   \   00000000                      DS8 128

   \                                 In segment DATA_Z, align 4, align-sorted
    120          char BM9NAME[32];
   \                     BM9NAME:
   \   00000000                      DS8 32

   \                                 In segment DATA_Z, align 4, align-sorted
    121          char BM9FILE[128];
   \                     BM9FILE:
   \   00000000                      DS8 128

   \                                 In segment DATA_Z, align 4, align-sorted
    122          char BM0NAME[32];
   \                     BM0NAME:
   \   00000000                      DS8 32

   \                                 In segment DATA_Z, align 4, align-sorted
    123          char BM0FILE[128];
   \                     BM0FILE:
   \   00000000                      DS8 128
    124          #ifdef ELKA

   \                                 In segment DATA_Z, align 4, align-sorted
    125          char BM11NAME[32];
   \                     BM11NAME:
   \   00000000                      DS8 32

   \                                 In segment DATA_Z, align 4, align-sorted
    126          char BM11FILE[128];
   \                     BM11FILE:
   \   00000000                      DS8 128

   \                                 In segment DATA_Z, align 4, align-sorted
    127          char BM12NAME[32];
   \                     BM12NAME:
   \   00000000                      DS8 32

   \                                 In segment DATA_Z, align 4, align-sorted
    128          char BM12FILE[128];
   \                     BM12FILE:
   \   00000000                      DS8 128

   \                                 In segment DATA_Z, align 4, align-sorted
    129          char BM13NAME[32];
   \                     BM13NAME:
   \   00000000                      DS8 32

   \                                 In segment DATA_Z, align 4, align-sorted
    130          char BM13FILE[128];
   \                     BM13FILE:
   \   00000000                      DS8 128

   \                                 In segment DATA_Z, align 4, align-sorted
    131          char BM14NAME[32];
   \                     BM14NAME:
   \   00000000                      DS8 32

   \                                 In segment DATA_Z, align 4, align-sorted
    132          char BM14FILE[128];
   \                     BM14FILE:
   \   00000000                      DS8 128

   \                                 In segment DATA_Z, align 4, align-sorted
    133          char BM15NAME[32];
   \                     BM15NAME:
   \   00000000                      DS8 32

   \                                 In segment DATA_Z, align 4, align-sorted
    134          char BM15FILE[128];
   \                     BM15FILE:
   \   00000000                      DS8 128

   \                                 In segment DATA_Z, align 4, align-sorted
    135          char BM16NAME[32];
   \                     BM16NAME:
   \   00000000                      DS8 32

   \                                 In segment DATA_Z, align 4, align-sorted
    136          char BM16FILE[128];
   \                     BM16FILE:
   \   00000000                      DS8 128

   \                                 In segment DATA_Z, align 4, align-sorted
    137          char BM17NAME[32];
   \                     BM17NAME:
   \   00000000                      DS8 32

   \                                 In segment DATA_Z, align 4, align-sorted
    138          char BM17FILE[128];
   \                     BM17FILE:
   \   00000000                      DS8 128

   \                                 In segment DATA_Z, align 4, align-sorted
    139          char BM18NAME[32];
   \                     BM18NAME:
   \   00000000                      DS8 32

   \                                 In segment DATA_Z, align 4, align-sorted
    140          char BM18FILE[128];
   \                     BM18FILE:
   \   00000000                      DS8 128

   \                                 In segment DATA_Z, align 4, align-sorted
    141          char BM19NAME[32];
   \                     BM19NAME:
   \   00000000                      DS8 32

   \                                 In segment DATA_Z, align 4, align-sorted
    142          char BM19FILE[128];
   \                     BM19FILE:
   \   00000000                      DS8 128

   \                                 In segment DATA_Z, align 4, align-sorted
    143          char BM20NAME[32];
   \                     BM20NAME:
   \   00000000                      DS8 32

   \                                 In segment DATA_Z, align 4, align-sorted
    144          char BM20FILE[128];
   \                     BM20FILE:
   \   00000000                      DS8 128

   \                                 In segment DATA_Z, align 4, align-sorted
    145          char BM21NAME[32];
   \                     BM21NAME:
   \   00000000                      DS8 32

   \                                 In segment DATA_Z, align 4, align-sorted
    146          char BM21FILE[128];
   \                     BM21FILE:
   \   00000000                      DS8 128

   \                                 In segment DATA_Z, align 4, align-sorted
    147          char BM22NAME[32];
   \                     BM22NAME:
   \   00000000                      DS8 32

   \                                 In segment DATA_Z, align 4, align-sorted
    148          char BM22FILE[128];
   \                     BM22FILE:
   \   00000000                      DS8 128

   \                                 In segment DATA_Z, align 4, align-sorted
    149          char BM23NAME[32];
   \                     BM23NAME:
   \   00000000                      DS8 32

   \                                 In segment DATA_Z, align 4, align-sorted
    150          char BM23FILE[128];
   \                     BM23FILE:
   \   00000000                      DS8 128

   \                                 In segment DATA_Z, align 4, align-sorted
    151          char BM24NAME[32];
   \                     BM24NAME:
   \   00000000                      DS8 32

   \                                 In segment DATA_Z, align 4, align-sorted
    152          char BM24FILE[128];
   \                     BM24FILE:
   \   00000000                      DS8 128

   \                                 In segment DATA_Z, align 4, align-sorted
    153          char BM25NAME[32];
   \                     BM25NAME:
   \   00000000                      DS8 32

   \                                 In segment DATA_Z, align 4, align-sorted
    154          char BM25FILE[128];
   \                     BM25FILE:
   \   00000000                      DS8 128

   \                                 In segment DATA_Z, align 4, align-sorted
    155          char BM26NAME[32];
   \                     BM26NAME:
   \   00000000                      DS8 32

   \                                 In segment DATA_Z, align 4, align-sorted
    156          char BM26FILE[128];
   \                     BM26FILE:
   \   00000000                      DS8 128

   \                                 In segment DATA_Z, align 4, align-sorted
    157          char BM27NAME[32];
   \                     BM27NAME:
   \   00000000                      DS8 32

   \                                 In segment DATA_Z, align 4, align-sorted
    158          char BM27FILE[128];
   \                     BM27FILE:
   \   00000000                      DS8 128

   \                                 In segment DATA_Z, align 4, align-sorted
    159          char BM28NAME[32];
   \                     BM28NAME:
   \   00000000                      DS8 32

   \                                 In segment DATA_Z, align 4, align-sorted
    160          char BM28FILE[128];
   \                     BM28FILE:
   \   00000000                      DS8 128

   \                                 In segment DATA_Z, align 4, align-sorted
    161          char BM29NAME[32];
   \                     BM29NAME:
   \   00000000                      DS8 32

   \                                 In segment DATA_Z, align 4, align-sorted
    162          char BM29FILE[128];
   \                     BM29FILE:
   \   00000000                      DS8 128

   \                                 In segment DATA_Z, align 4, align-sorted
    163          char BM30NAME[32];
   \                     BM30NAME:
   \   00000000                      DS8 32

   \                                 In segment DATA_Z, align 4, align-sorted
    164          char BM30FILE[128];
   \                     BM30FILE:
   \   00000000                      DS8 128
    165          #endif
    166          

   \                                 In segment CODE, align 4, keep-with-next
    167          void Start_bookmark(int casa)
    168          {
   \                     Start_bookmark:
   \   00000000   10402DE9           PUSH     {R4,LR}
    169            switch(casa)
   \   00000004   010040E2           SUB      R0,R0,#+1
   \   00000008   1D0050E3           CMP      R0,#+29
   \   0000000C   1080BD88           POPHI    {R4,PC}
   \   00000010   011F8FE2           ADR      R1,??Start_bookmark_0
   \   00000014   0010D1E7           LDRB     R1,[R1, R0]
   \   00000018   01F18FE0           ADD      PC,PC,R1, LSL #+2
   \                     ??Start_bookmark_0:
   \   0000001C   070B171B           DC8      +7,+11,+23,+27
   \   00000020   1F23272B           DC8      +31,+35,+39,+43
   \   00000024   2F33373B           DC8      +47,+51,+55,+59
   \   00000028   3F43474B           DC8      +63,+67,+71,+75
   \   0000002C   4F53575B           DC8      +79,+83,+87,+91
   \   00000030   5F63676B           DC8      +95,+99,+103,+107
   \   00000034   6F73777B           DC8      +111,+115,+119,+123
   \   00000038   7F830000           DC8      +127,+131,+0,+0
    170            {
    171            case 1:
    172              {
    173              WSHDR *elfname=AllocWS(256);
   \                     ??Start_bookmark_1:
   \   0000003C   400FA0E3           MOV      R0,#+256
   \   00000040   250100EF           SWI      +293
    174              wsprintf(elfname, BM1FILE);
   \   00000044   ........           LDR      R1,??DataTable15  ;; BM1FILE
   \   00000048   020000EA           B        ??Start_bookmark_2
    175              ExecuteFile(elfname,NULL,NULL);
    176              FreeWS(elfname);
    177              }
    178              break;
    179            case 2:
    180              {
    181              WSHDR *elfname=AllocWS(256);
   \                     ??Start_bookmark_3:
   \   0000004C   400FA0E3           MOV      R0,#+256
   \   00000050   250100EF           SWI      +293
    182              wsprintf(elfname, BM2FILE);
   \   00000054   ........           LDR      R1,??DataTable16  ;; BM2FILE
   \                     ??Start_bookmark_2:
   \   00000058   0040A0E1           MOV      R4,R0
   \   0000005C   240100EF           SWI      +292
    183              ExecuteFile(elfname,NULL,NULL);
   \   00000060   0020A0E3           MOV      R2,#+0
   \   00000064   0010A0E3           MOV      R1,#+0
   \   00000068   0400A0E1           MOV      R0,R4
   \   0000006C   940000EF           SWI      +148
    184              FreeWS(elfname);
   \   00000070   0400A0E1           MOV      R0,R4
   \   00000074   290100EF           SWI      +297
   \   00000078   1080BDE8           POP      {R4,PC}
    185              }
    186              break;
    187            case 3:
    188              {
    189              WSHDR *elfname=AllocWS(256);
   \                     ??Start_bookmark_4:
   \   0000007C   400FA0E3           MOV      R0,#+256
   \   00000080   250100EF           SWI      +293
    190              wsprintf(elfname, BM3FILE);
   \   00000084   ........           LDR      R1,??DataTable17  ;; BM3FILE
   \   00000088   F2FFFFEA           B        ??Start_bookmark_2
    191              ExecuteFile(elfname,NULL,NULL);
    192              FreeWS(elfname);
    193              }
    194              break;
    195            case 4:
    196              {
    197              WSHDR *elfname=AllocWS(256);
   \                     ??Start_bookmark_5:
   \   0000008C   400FA0E3           MOV      R0,#+256
   \   00000090   250100EF           SWI      +293
    198              wsprintf(elfname, BM4FILE);
   \   00000094   ........           LDR      R1,??DataTable18  ;; BM4FILE
   \   00000098   EEFFFFEA           B        ??Start_bookmark_2
    199              ExecuteFile(elfname,NULL,NULL);
    200              FreeWS(elfname);
    201              }
    202              break;
    203            case 5:
    204              {
    205              WSHDR *elfname=AllocWS(256);
   \                     ??Start_bookmark_6:
   \   0000009C   400FA0E3           MOV      R0,#+256
   \   000000A0   250100EF           SWI      +293
    206              wsprintf(elfname, BM5FILE);
   \   000000A4   ........           LDR      R1,??DataTable19  ;; BM5FILE
   \   000000A8   EAFFFFEA           B        ??Start_bookmark_2
    207              ExecuteFile(elfname,NULL,NULL);
    208              FreeWS(elfname);
    209              }
    210              break;
    211            case 6:
    212              {
    213              WSHDR *elfname=AllocWS(256);
   \                     ??Start_bookmark_7:
   \   000000AC   400FA0E3           MOV      R0,#+256
   \   000000B0   250100EF           SWI      +293
    214              wsprintf(elfname, BM6FILE);
   \   000000B4   ........           LDR      R1,??DataTable20  ;; BM6FILE
   \   000000B8   E6FFFFEA           B        ??Start_bookmark_2
    215              ExecuteFile(elfname,NULL,NULL);
    216              FreeWS(elfname);
    217              }
    218              break;
    219            case 7:
    220              {
    221              WSHDR *elfname=AllocWS(256);
   \                     ??Start_bookmark_8:
   \   000000BC   400FA0E3           MOV      R0,#+256
   \   000000C0   250100EF           SWI      +293
    222              wsprintf(elfname, BM7FILE);
   \   000000C4   ........           LDR      R1,??DataTable21  ;; BM7FILE
   \   000000C8   E2FFFFEA           B        ??Start_bookmark_2
    223              ExecuteFile(elfname,NULL,NULL);
    224              FreeWS(elfname);
    225              }
    226              break;
    227            case 8:
    228              {
    229              WSHDR *elfname=AllocWS(256);
   \                     ??Start_bookmark_9:
   \   000000CC   400FA0E3           MOV      R0,#+256
   \   000000D0   250100EF           SWI      +293
    230              wsprintf(elfname, BM8FILE);
   \   000000D4   ........           LDR      R1,??DataTable22  ;; BM8FILE
   \   000000D8   DEFFFFEA           B        ??Start_bookmark_2
    231              ExecuteFile(elfname,NULL,NULL);
    232              FreeWS(elfname);
    233              }
    234              break;
    235            case 9:
    236              {
    237              WSHDR *elfname=AllocWS(256);
   \                     ??Start_bookmark_10:
   \   000000DC   400FA0E3           MOV      R0,#+256
   \   000000E0   250100EF           SWI      +293
    238              wsprintf(elfname, BM9FILE);
   \   000000E4   ........           LDR      R1,??DataTable23  ;; BM9FILE
   \   000000E8   DAFFFFEA           B        ??Start_bookmark_2
    239              ExecuteFile(elfname,NULL,NULL);
    240              FreeWS(elfname);
    241              }
    242              break;
    243            case 10:
    244              {
    245              WSHDR *elfname=AllocWS(256);
   \                     ??Start_bookmark_11:
   \   000000EC   400FA0E3           MOV      R0,#+256
   \   000000F0   250100EF           SWI      +293
    246              wsprintf(elfname, BM0FILE);
   \   000000F4   ........           LDR      R1,??DataTable24  ;; BM0FILE
   \   000000F8   D6FFFFEA           B        ??Start_bookmark_2
    247              ExecuteFile(elfname,NULL,NULL);
    248              FreeWS(elfname);
    249              }
    250              break;
    251          #ifdef ELKA
    252            case 11:
    253              {
    254              WSHDR *elfname=AllocWS(256);
   \                     ??Start_bookmark_12:
   \   000000FC   400FA0E3           MOV      R0,#+256
   \   00000100   250100EF           SWI      +293
    255              wsprintf(elfname, BM11FILE);
   \   00000104   ........           LDR      R1,??DataTable25  ;; BM11FILE
   \   00000108   D2FFFFEA           B        ??Start_bookmark_2
    256              ExecuteFile(elfname,NULL,NULL);
    257              FreeWS(elfname);
    258              }
    259              break;
    260            case 12:
    261              {
    262              WSHDR *elfname=AllocWS(256);
   \                     ??Start_bookmark_13:
   \   0000010C   400FA0E3           MOV      R0,#+256
   \   00000110   250100EF           SWI      +293
    263              wsprintf(elfname, BM12FILE);
   \   00000114   ........           LDR      R1,??DataTable26  ;; BM12FILE
   \   00000118   CEFFFFEA           B        ??Start_bookmark_2
    264              ExecuteFile(elfname,NULL,NULL);
    265              FreeWS(elfname);
    266              }
    267              break;
    268            case 13:
    269              {
    270              WSHDR *elfname=AllocWS(256);
   \                     ??Start_bookmark_14:
   \   0000011C   400FA0E3           MOV      R0,#+256
   \   00000120   250100EF           SWI      +293
    271              wsprintf(elfname, BM13FILE);
   \   00000124   ........           LDR      R1,??DataTable27  ;; BM13FILE
   \   00000128   CAFFFFEA           B        ??Start_bookmark_2
    272              ExecuteFile(elfname,NULL,NULL);
    273              FreeWS(elfname);
    274              }
    275              break;
    276            case 14:
    277              {
    278              WSHDR *elfname=AllocWS(256);
   \                     ??Start_bookmark_15:
   \   0000012C   400FA0E3           MOV      R0,#+256
   \   00000130   250100EF           SWI      +293
    279              wsprintf(elfname, BM14FILE);
   \   00000134   ........           LDR      R1,??DataTable28  ;; BM14FILE
   \   00000138   C6FFFFEA           B        ??Start_bookmark_2
    280              ExecuteFile(elfname,NULL,NULL);
    281              FreeWS(elfname);
    282              }
    283              break;
    284            case 15:
    285              {
    286              WSHDR *elfname=AllocWS(256);
   \                     ??Start_bookmark_16:
   \   0000013C   400FA0E3           MOV      R0,#+256
   \   00000140   250100EF           SWI      +293
    287              wsprintf(elfname, BM15FILE);
   \   00000144   ........           LDR      R1,??DataTable29  ;; BM15FILE
   \   00000148   C2FFFFEA           B        ??Start_bookmark_2
    288              ExecuteFile(elfname,NULL,NULL);
    289              FreeWS(elfname);
    290              }
    291              break;
    292            case 16:
    293              {
    294              WSHDR *elfname=AllocWS(256);
   \                     ??Start_bookmark_17:
   \   0000014C   400FA0E3           MOV      R0,#+256
   \   00000150   250100EF           SWI      +293
    295              wsprintf(elfname, BM16FILE);
   \   00000154   ........           LDR      R1,??DataTable30  ;; BM16FILE
   \   00000158   BEFFFFEA           B        ??Start_bookmark_2
    296              ExecuteFile(elfname,NULL,NULL);
    297              FreeWS(elfname);
    298              }
    299              break;
    300            case 17:
    301              {
    302              WSHDR *elfname=AllocWS(256);
   \                     ??Start_bookmark_18:
   \   0000015C   400FA0E3           MOV      R0,#+256
   \   00000160   250100EF           SWI      +293
    303              wsprintf(elfname, BM17FILE);
   \   00000164   ........           LDR      R1,??DataTable31  ;; BM17FILE
   \   00000168   BAFFFFEA           B        ??Start_bookmark_2
    304              ExecuteFile(elfname,NULL,NULL);
    305              FreeWS(elfname);
    306              }
    307              break;
    308            case 18:
    309              {
    310              WSHDR *elfname=AllocWS(256);
   \                     ??Start_bookmark_19:
   \   0000016C   400FA0E3           MOV      R0,#+256
   \   00000170   250100EF           SWI      +293
    311              wsprintf(elfname, BM18FILE);
   \   00000174   ........           LDR      R1,??DataTable32  ;; BM18FILE
   \   00000178   B6FFFFEA           B        ??Start_bookmark_2
    312              ExecuteFile(elfname,NULL,NULL);
    313              FreeWS(elfname);
    314              }
    315              break;
    316            case 19:
    317              {
    318              WSHDR *elfname=AllocWS(256);
   \                     ??Start_bookmark_20:
   \   0000017C   400FA0E3           MOV      R0,#+256
   \   00000180   250100EF           SWI      +293
    319              wsprintf(elfname, BM19FILE);
   \   00000184   ........           LDR      R1,??DataTable33  ;; BM19FILE
   \   00000188   B2FFFFEA           B        ??Start_bookmark_2
    320              ExecuteFile(elfname,NULL,NULL);
    321              FreeWS(elfname);
    322              }
    323              break;
    324            case 20:
    325              {
    326              WSHDR *elfname=AllocWS(256);
   \                     ??Start_bookmark_21:
   \   0000018C   400FA0E3           MOV      R0,#+256
   \   00000190   250100EF           SWI      +293
    327              wsprintf(elfname, BM20FILE);
   \   00000194   ........           LDR      R1,??DataTable34  ;; BM20FILE
   \   00000198   AEFFFFEA           B        ??Start_bookmark_2
    328              ExecuteFile(elfname,NULL,NULL);
    329              FreeWS(elfname);
    330              }
    331              break;
    332              case 21:
    333              {
    334              WSHDR *elfname=AllocWS(256);
   \                     ??Start_bookmark_22:
   \   0000019C   400FA0E3           MOV      R0,#+256
   \   000001A0   250100EF           SWI      +293
    335              wsprintf(elfname, BM21FILE);
   \   000001A4   ........           LDR      R1,??DataTable35  ;; BM21FILE
   \   000001A8   AAFFFFEA           B        ??Start_bookmark_2
    336              ExecuteFile(elfname,NULL,NULL);
    337              FreeWS(elfname);
    338              }
    339              break;
    340            case 22:
    341              {
    342              WSHDR *elfname=AllocWS(256);
   \                     ??Start_bookmark_23:
   \   000001AC   400FA0E3           MOV      R0,#+256
   \   000001B0   250100EF           SWI      +293
    343              wsprintf(elfname, BM22FILE);
   \   000001B4   ........           LDR      R1,??DataTable36  ;; BM22FILE
   \   000001B8   A6FFFFEA           B        ??Start_bookmark_2
    344              ExecuteFile(elfname,NULL,NULL);
    345              FreeWS(elfname);
    346              }
    347              break;
    348            case 23:
    349              {
    350              WSHDR *elfname=AllocWS(256);
   \                     ??Start_bookmark_24:
   \   000001BC   400FA0E3           MOV      R0,#+256
   \   000001C0   250100EF           SWI      +293
    351              wsprintf(elfname, BM23FILE);
   \   000001C4   ........           LDR      R1,??DataTable37  ;; BM23FILE
   \   000001C8   A2FFFFEA           B        ??Start_bookmark_2
    352              ExecuteFile(elfname,NULL,NULL);
    353              FreeWS(elfname);
    354              }
    355              break;
    356            case 24:
    357              {
    358              WSHDR *elfname=AllocWS(256);
   \                     ??Start_bookmark_25:
   \   000001CC   400FA0E3           MOV      R0,#+256
   \   000001D0   250100EF           SWI      +293
    359              wsprintf(elfname, BM24FILE);
   \   000001D4   ........           LDR      R1,??DataTable38  ;; BM24FILE
   \   000001D8   9EFFFFEA           B        ??Start_bookmark_2
    360              ExecuteFile(elfname,NULL,NULL);
    361              FreeWS(elfname);
    362              }
    363              break;
    364            case 25:
    365              {
    366              WSHDR *elfname=AllocWS(256);
   \                     ??Start_bookmark_26:
   \   000001DC   400FA0E3           MOV      R0,#+256
   \   000001E0   250100EF           SWI      +293
    367              wsprintf(elfname, BM25FILE);
   \   000001E4   ........           LDR      R1,??DataTable39  ;; BM25FILE
   \   000001E8   9AFFFFEA           B        ??Start_bookmark_2
    368              ExecuteFile(elfname,NULL,NULL);
    369              FreeWS(elfname);
    370              }
    371              break;
    372            case 26:
    373              {
    374              WSHDR *elfname=AllocWS(256);
   \                     ??Start_bookmark_27:
   \   000001EC   400FA0E3           MOV      R0,#+256
   \   000001F0   250100EF           SWI      +293
    375              wsprintf(elfname, BM26FILE);
   \   000001F4   ........           LDR      R1,??DataTable40  ;; BM26FILE
   \   000001F8   96FFFFEA           B        ??Start_bookmark_2
    376              ExecuteFile(elfname,NULL,NULL);
    377              FreeWS(elfname);
    378              }
    379              break;
    380            case 27:
    381              {
    382              WSHDR *elfname=AllocWS(256);
   \                     ??Start_bookmark_28:
   \   000001FC   400FA0E3           MOV      R0,#+256
   \   00000200   250100EF           SWI      +293
    383              wsprintf(elfname, BM27FILE);
   \   00000204   ........           LDR      R1,??DataTable41  ;; BM27FILE
   \   00000208   92FFFFEA           B        ??Start_bookmark_2
    384              ExecuteFile(elfname,NULL,NULL);
    385              FreeWS(elfname);
    386              }
    387              break;
    388            case 28:
    389              {
    390              WSHDR *elfname=AllocWS(256);
   \                     ??Start_bookmark_29:
   \   0000020C   400FA0E3           MOV      R0,#+256
   \   00000210   250100EF           SWI      +293
    391              wsprintf(elfname, BM28FILE);
   \   00000214   ........           LDR      R1,??DataTable42  ;; BM28FILE
   \   00000218   8EFFFFEA           B        ??Start_bookmark_2
    392              ExecuteFile(elfname,NULL,NULL);
    393              FreeWS(elfname);
    394              }
    395              break;
    396            case 29:
    397              {
    398              WSHDR *elfname=AllocWS(256);
   \                     ??Start_bookmark_30:
   \   0000021C   400FA0E3           MOV      R0,#+256
   \   00000220   250100EF           SWI      +293
    399              wsprintf(elfname, BM29FILE);
   \   00000224   ........           LDR      R1,??DataTable43  ;; BM29FILE
   \   00000228   8AFFFFEA           B        ??Start_bookmark_2
    400              ExecuteFile(elfname,NULL,NULL);
    401              FreeWS(elfname);
    402              }
    403              break;
    404            case 30:
    405              {
    406              WSHDR *elfname=AllocWS(256);
   \                     ??Start_bookmark_31:
   \   0000022C   400FA0E3           MOV      R0,#+256
   \   00000230   250100EF           SWI      +293
    407              wsprintf(elfname, BM30FILE);
   \   00000234   ........           LDR      R1,??DataTable44  ;; BM30FILE
   \   00000238   0040A0E1           MOV      R4,R0
   \   0000023C   240100EF           SWI      +292
    408              ExecuteFile(elfname,NULL,NULL);
   \   00000240   0020A0E3           MOV      R2,#+0
   \   00000244   0010A0E3           MOV      R1,#+0
   \   00000248   0400A0E1           MOV      R0,R4
   \   0000024C   940000EF           SWI      +148
    409              FreeWS(elfname);
   \   00000250   0400A0E1           MOV      R0,R4
   \   00000254   290100EF           SWI      +297
    410              }
    411              break;
    412          #endif
    413            }
    414          }
   \                     ??Start_bookmark_32:
   \   00000258   1080BDE8           POP      {R4,PC}          ;; return
    415          //=================================bookmarks
    416          
    417          

   \                                 In segment DATA_I, align 4, align-sorted
    418          IMGHDR screen2={0,0,8,""};
   \                     screen2:
   \   00000000                      DS8 12
   \   0000000C                      REQUIRE `?<Initializer for screen2>`
    419          

   \                                 In segment DATA_I, align 4, align-sorted
    420          IMGHDR screen3={0,0,8,""};
   \                     screen3:
   \   00000000                      DS8 12
   \   0000000C                      REQUIRE `?<Initializer for screen3>`

   \                                 In segment DATA_Z, align 4, align-sorted
    421          int tasks;
   \                     tasks:
   \   00000000                      DS8 4

   \                                 In segment DATA_Z, align 4, align-sorted
    422          char icon_text[32768];
   \                     icon_text:
   \   00000000                      DS8 32768

   \                                 In segment DATA_I, align 4, align-sorted
    423          int task_list=1;
   \                     task_list:
   \   00000000                      DS8 4
   \   00000004                      REQUIRE `?<Initializer for task_list>`
    424          

   \                                 In segment CODE, align 4, keep-with-next
    425          void DoScreen2()
    426          {
   \                     DoScreen2:
   \   00000000   F0402DE9           PUSH     {R4-R7,LR}
    427              int ScrH=ScreenH();
    428              int ScrW=ScreenW();
    429              char *ms=RamScreenBuffer();
    430              screen2.w=ScrW;
   \   00000004   ........           LDR      R7,??DataTable59  ;; screen2
   \   00000008   898100EF           SWI      +33161
   \   0000000C   0040A0E1           MOV      R4,R0
   \   00000010   888100EF           SWI      +33160
   \   00000014   0050A0E1           MOV      R5,R0
   \   00000018   E08000EF           SWI      +32992
   \   0000001C   0060A0E1           MOV      R6,R0
    431              screen2.h=ScrH;
    432              screen2.bitmap=malloc(ScrW*ScrH*2);
   \   00000020   940500E0           MUL      R0,R4,R5
   \   00000024   B050C7E1           STRH     R5,[R7, #+0]
   \   00000028   B240C7E1           STRH     R4,[R7, #+2]
   \   0000002C   8040A0E1           LSL      R4,R0,#+1
   \   00000030   0400A0E1           MOV      R0,R4
   \   00000034   140000EF           SWI      +20
   \   00000038   080087E5           STR      R0,[R7, #+8]
    433              memcpy(screen2.bitmap, ms, ScrW*ScrH*2);
   \   0000003C   0420A0E1           MOV      R2,R4
   \   00000040   0610A0E1           MOV      R1,R6
   \   00000044   1E0100EF           SWI      +286
    434          }
   \   00000048   F080BDE8           POP      {R4-R7,PC}       ;; return
    435          

   \                                 In segment CODE, align 4, keep-with-next
    436          void DoScreen3()
    437          {
   \                     DoScreen3:
   \   00000000   30402DE9           PUSH     {R4,R5,LR}
    438              int ScrH=40;
    439              int ScrW=40;
    440              char *ms=RamScreenBuffer();
    441              screen3.w=ScrW;
   \   00000004   2C509FE5           LDR      R5,??DoScreen3_0  ;; screen3
   \   00000008   E08000EF           SWI      +32992
   \   0000000C   0040A0E1           MOV      R4,R0
   \   00000010   2800A0E3           MOV      R0,#+40
   \   00000014   B000C5E1           STRH     R0,[R5, #+0]
    442              screen3.h=ScrH;
   \   00000018   B200C5E1           STRH     R0,[R5, #+2]
    443              screen3.bitmap=malloc(ScrW*ScrH*2);
   \   0000001C   C80EA0E3           MOV      R0,#+3200
   \   00000020   140000EF           SWI      +20
   \   00000024   080085E5           STR      R0,[R5, #+8]
    444              memcpy(screen3.bitmap, ms, ScrW*ScrH*2);
   \   00000028   C82EA0E3           MOV      R2,#+3200
   \   0000002C   0410A0E1           MOV      R1,R4
   \   00000030   1E0100EF           SWI      +286
    445          }
   \   00000034   3080BDE8           POP      {R4,R5,PC}       ;; return
   \                     ??DoScreen3_0:
   \   00000038   ........           DC32     screen3
    446          

   \                                 In segment DATA_C, align 4, align-sorted
    447          const int minus11=-11; //   =)
   \                     minus11:
   \   00000000   F5FFFFFF           DC32 -11

   \                                 In segment DATA_Z, align 4, align-sorted
    448          unsigned short maincsm_name_body[140];
   \                     maincsm_name_body:
   \   00000000                      DS8 280
    449          extern unsigned long  strtoul (const char *nptr,char **endptr,int base);
    450          

   \                                 In segment DATA_Z, align 4, align-sorted
    451          unsigned int MAINCSM_ID = 0;
   \                     MAINCSM_ID:
   \   00000000                      DS8 4
    452          
    453          typedef struct
    454          {
    455            CSM_RAM csm;
    456            int gui_id;
    457          }MAIN_CSM;
    458          
    459          typedef struct
    460          {
    461            GUI gui;
    462            WSHDR *ws1;
    463            WSHDR *ws2;
    464            int i1;
    465          }MAIN_GUI;
    466          
    467          extern NAMELIST * volatile nltop;

   \                                 In segment DATA_I, align 4, align-sorted
    468          int pos=1;
   \                     pos:
   \   00000000                      DS8 4
   \   00000004                      REQUIRE `?<Initializer for pos>`

   \                                 In segment DATA_I, align 4, align-sorted
    469          int total_pos=1;
   \                     total_pos:
   \   00000000                      DS8 4
   \   00000004                      REQUIRE `?<Initializer for total_pos>`

   \                                 In segment DATA_Z, align 4, align-sorted
    470          int total_d;
   \                     total_d:
   \   00000000                      DS8 4

   \                                 In segment DATA_Z, align 4, align-sorted
    471          int move_skip;
   \                     move_skip:
   \   00000000                      DS8 4
    472          void redrit(void);

   \                                 In segment DATA_Z, align 4, align-sorted
    473          int sm;
   \                     sm:
   \   00000000                      DS8 4

   \                                 In segment DATA_Z, align 4, align-sorted
    474          int forward;
   \                     forward:
   \   00000000                      DS8 4

   \                                 In segment DATA_Z, align 4, align-sorted
    475          int halt;
   \                     halt:
   \   00000000                      DS8 4

   \                                 In segment DATA_Z, align 4, align-sorted
    476          int shutd;
   \                     shutd:
   \   00000000                      DS8 4

   \                                 In segment DATA_Z, align 4, align-sorted
    477          int logout;
   \                     logout:
   \   00000000                      DS8 4
    478          
    479          #include "strings2.h"
    480          

   \                                 In segment DATA_Z, align 4, align-sorted
    481          WSHDR *data4;
   \                     data4:
   \   00000000                      DS8 4

   \                                 In segment DATA_Z, align 4, align-sorted
    482          WSHDR *data5;
   \                     data5:
   \   00000000                      DS8 4

   \                                 In segment DATA_Z, align 4, align-sorted
    483          int draw_rec;
   \                     draw_rec:
   \   00000000                      DS8 4

   \                                 In segment DATA_Z, align 4, align-sorted
    484          int this_rec;
   \                     this_rec:
   \   00000000                      DS8 4
    485          
    486          //=====================reboot========================

   \                                 In segment CODE, align 4, keep-with-next
    487          void SaveRebootList(WSHDR *ramed)
    488          {
   \                     SaveRebootList:
   \   00000000   00402DE9           PUSH     {LR}
   \   00000004   88D04DE2           SUB      SP,SP,#+136
    489            char buffer[128];
    490            convWS_to_ANSI(ramed, buffer);
   \   00000008   08108DE2           ADD      R1,SP,#+8
   \   0000000C   ........           _BLF     convWS_to_ANSI,??convWS_to_ANSI??rA
    491            volatile int hFile;
    492            unsigned int io_error = 0;
   \   00000010   0010A0E3           MOV      R1,#+0
   \   00000014   00108DE5           STR      R1,[SP, #+0]
    493            sprintf(buffer,"%s|", buffer);
   \   00000018   08208DE2           ADD      R2,SP,#+8
   \   0000001C   171F8FE2           ADR      R1,??SaveRebootList_0  ;; "%s|"
   \   00000020   08008DE2           ADD      R0,SP,#+8
   \   00000024   160000EF           SWI      +22
    494            hFile = fopen("0:\\system\\data.bin",A_ReadWrite + A_Create + A_Append + A_BIN,P_READ+P_WRITE, &io_error);
   \   00000028   54009FE5           LDR      R0,??SaveRebootList_0+0x4  ;; `?<Constant "0:\\\\system\\\\data.bin">`
   \   0000002C   0D30A0E1           MOV      R3,SP
   \   00000030   602FA0E3           MOV      R2,#+384
   \   00000034   0A10A0E3           MOV      R1,#+10
   \   00000038   811C81E3           ORR      R1,R1,#0x8100
   \   0000003C   0A0000EF           SWI      +10
   \   00000040   04008DE5           STR      R0,[SP, #+4]
    495            if(hFile!=-1)
   \   00000044   04009DE5           LDR      R0,[SP, #+4]
   \   00000048   010070E3           CMN      R0,#+1
   \   0000004C   0900000A           BEQ      ??SaveRebootList_1
    496            {
    497              fwrite(hFile, buffer, strlen(buffer), &io_error);
   \   00000050   08008DE2           ADD      R0,SP,#+8
   \   00000054   1B0000EF           SWI      +27
   \   00000058   0D30A0E1           MOV      R3,SP
   \   0000005C   0020A0E1           MOV      R2,R0
   \   00000060   04009DE5           LDR      R0,[SP, #+4]
   \   00000064   08108DE2           ADD      R1,SP,#+8
   \   00000068   0C0000EF           SWI      +12
    498              fclose(hFile, &io_error);
   \   0000006C   04009DE5           LDR      R0,[SP, #+4]
   \   00000070   0D10A0E1           MOV      R1,SP
   \   00000074   0D0000EF           SWI      +13
    499            }
    500          }
   \                     ??SaveRebootList_1:
   \   00000078   88D08DE2           ADD      SP,SP,#+136      ;; stack cleaning
   \   0000007C   0080BDE8           POP      {PC}             ;; return
   \                     ??SaveRebootList_0:
   \   00000080   25737C00           DC8      "%s|"
   \   00000084   ........           DC32     `?<Constant "0:\\\\system\\\\data.bin">`
    501          //=====================reboot========================
    502          
    503          extern const char rebc[4];
    504          

   \                                 In segment CODE, align 4, keep-with-next
    505          void DrawProgress(WSHDR *dat, int casi)
    506          {
   \                     DrawProgress:
   \   00000000   F0432DE9           PUSH     {R4-R9,LR}
    507          #ifdef ELKA
    508            if (casi)
   \   00000004   ........           LDR      R7,??DataTable46  ;; data4
   \   00000008   ........           LDR      R5,??DataTable47  ;; ctasks
   \   0000000C   F0419FE5           LDR      R4,??DrawProgress_0+0x4  ;; this_rec
   \   00000010   0060A0E1           MOV      R6,R0
   \   00000014   000097E5           LDR      R0,[R7, #+0]
   \   00000018   0120B0E1           MOVS     R2,R1
   \   0000001C   771F8FE2           ADR      R1,??DrawProgress_0  ;; "%t"
   \   00000020   4A00000A           BEQ      ??DrawProgress_1
    509            {
    510              this_rec++;
   \   00000024   002094E5           LDR      R2,[R4, #+0]
   \   00000028   012082E2           ADD      R2,R2,#+1
   \   0000002C   002084E5           STR      R2,[R4, #+0]
    511              wsprintf(data4,"%t", "...");
   \   00000030   D0219FE5           LDR      R2,??DrawProgress_0+0x8  ;; `?<Constant "\\307\\340\\352\\360\\373\\362\\350\\345..`
   \   00000034   240100EF           SWI      +292
    512              DrawScrollString(data4,37,154,160,154+GetFontYSIZE(9),1,9,TEXT_ALIGNLEFT,ctasks,GetPaletteAdrByColorIndex(23));
   \   00000038   1700A0E3           MOV      R0,#+23
   \   0000003C   2E0100EF           SWI      +302
   \   00000040   0080A0E1           MOV      R8,R0
   \   00000044   0900A0E3           MOV      R0,#+9
   \   00000048   C50100EF           SWI      +453
   \   0000004C   00012DE9           PUSH     {R8}
   \   00000050   0510A0E1           MOV      R1,R5
   \   00000054   02002DE9           PUSH     {R1}
   \   00000058   9A0080E2           ADD      R0,R0,#+154
   \   0000005C   A030A0E3           MOV      R3,#+160
   \   00000060   9A20A0E3           MOV      R2,#+154
   \   00000064   0110A0E3           MOV      R1,#+1
   \   00000068   02002DE9           PUSH     {R1}
   \   0000006C   0910A0E3           MOV      R1,#+9
   \   00000070   02002DE9           PUSH     {R1}
   \   00000074   0110A0E3           MOV      R1,#+1
   \   00000078   02002DE9           PUSH     {R1}
   \   0000007C   01002DE9           PUSH     {R0}
   \   00000080   000097E5           LDR      R0,[R7, #+0]
   \   00000084   2510A0E3           MOV      R1,#+37
   \   00000088   070200EF           SWI      +519
    513              wsprintf(data4,"[OK]");
   \   0000008C   000097E5           LDR      R0,[R7, #+0]
   \   00000090   74119FE5           LDR      R1,??DrawProgress_0+0xC  ;; `?<Constant "[OK]">`
   \   00000094   240100EF           SWI      +292
    514              DrawString(data4,204-Get_WS_width(data4,9),174,207,174+GetFontYSIZE(9)+1,9,0,ctasks,GetPaletteAdrByColorIndex(23));
   \   00000098   1700A0E3           MOV      R0,#+23
   \   0000009C   2E0100EF           SWI      +302
   \   000000A0   0090A0E1           MOV      R9,R0
   \   000000A4   0900A0E3           MOV      R0,#+9
   \   000000A8   C50100EF           SWI      +453
   \   000000AC   0080A0E1           MOV      R8,R0
   \   000000B0   000097E5           LDR      R0,[R7, #+0]
   \   000000B4   0910A0E3           MOV      R1,#+9
   \   000000B8   080200EF           SWI      +520
   \   000000BC   00022DE9           PUSH     {R9}
   \   000000C0   0510A0E1           MOV      R1,R5
   \   000000C4   02002DE9           PUSH     {R1}
   \   000000C8   CF30A0E3           MOV      R3,#+207
   \   000000CC   AE20A0E3           MOV      R2,#+174
   \   000000D0   0010A0E3           MOV      R1,#+0
   \   000000D4   02002DE9           PUSH     {R1}
   \   000000D8   0910A0E3           MOV      R1,#+9
   \   000000DC   02002DE9           PUSH     {R1}
   \   000000E0   AF1088E2           ADD      R1,R8,#+175
   \   000000E4   02002DE9           PUSH     {R1}
   \   000000E8   CC1060E2           RSB      R1,R0,#+204
   \   000000EC   000097E5           LDR      R0,[R7, #+0]
   \   000000F0   4C0100EF           SWI      +332
   \   000000F4   2CD08DE2           ADD      SP,SP,#+44
    515              DrawScrollString(dat,37,174,160,174+GetFontYSIZE(9),1,9,0,ctasks,GetPaletteAdrByColorIndex(23)); 
   \   000000F8   1700A0E3           MOV      R0,#+23
   \   000000FC   2E0100EF           SWI      +302
   \   00000100   0070A0E1           MOV      R7,R0
   \   00000104   0900A0E3           MOV      R0,#+9
   \   00000108   C50100EF           SWI      +453
   \   0000010C   80002DE9           PUSH     {R7}
   \   00000110   20002DE9           PUSH     {R5}
   \   00000114   0010A0E3           MOV      R1,#+0
   \   00000118   02002DE9           PUSH     {R1}
   \   0000011C   AE0080E2           ADD      R0,R0,#+174
   \   00000120   A030A0E3           MOV      R3,#+160
   \   00000124   AE20A0E3           MOV      R2,#+174
   \   00000128   0910A0E3           MOV      R1,#+9
   \   0000012C   02002DE9           PUSH     {R1}
   \   00000130   0110A0E3           MOV      R1,#+1
   \   00000134   02002DE9           PUSH     {R1}
   \   00000138   01002DE9           PUSH     {R0}
   \   0000013C   2510A0E3           MOV      R1,#+37
   \   00000140   0600A0E1           MOV      R0,R6
   \   00000144   070200EF           SWI      +519
   \   00000148   18D08DE2           ADD      SP,SP,#+24
   \   0000014C   180000EA           B        ??DrawProgress_2
    516            }
    517            else
    518            {
    519              if(shutd) wsprintf(data4,"%t","......");
   \                     ??DrawProgress_1:
   \   00000150   ........           LDR      R2,??DataTable57  ;; shutd
   \   00000154   002092E5           LDR      R2,[R2, #+0]
   \   00000158   000052E3           CMP      R2,#+0
   \   0000015C   AC209F15           LDRNE    R2,??DrawProgress_0+0x10  ;; `?<Constant "\\302\\373\\352\\353\\376\\367\\345\\355\\3`
    520              else wsprintf(data4,"%t","......");
   \   00000160   AC209F05           LDREQ    R2,??DrawProgress_0+0x14  ;; `?<Constant "\\317\\345\\360\\345\\347\\340\\343\\360\\3`
   \   00000164   240100EF           SWI      +292
    521              DrawString(data4,37,174,200,174+GetFontYSIZE(9)+1,9,0,ctasks,GetPaletteAdrByColorIndex(23));
   \   00000168   1700A0E3           MOV      R0,#+23
   \   0000016C   2E0100EF           SWI      +302
   \   00000170   0060A0E1           MOV      R6,R0
   \   00000174   0900A0E3           MOV      R0,#+9
   \   00000178   C50100EF           SWI      +453
   \   0000017C   40002DE9           PUSH     {R6}
   \   00000180   20002DE9           PUSH     {R5}
   \   00000184   0010A0E3           MOV      R1,#+0
   \   00000188   02002DE9           PUSH     {R1}
   \   0000018C   AF0080E2           ADD      R0,R0,#+175
   \   00000190   C830A0E3           MOV      R3,#+200
   \   00000194   AE20A0E3           MOV      R2,#+174
   \   00000198   0910A0E3           MOV      R1,#+9
   \   0000019C   02002DE9           PUSH     {R1}
   \   000001A0   01002DE9           PUSH     {R0}
   \   000001A4   000097E5           LDR      R0,[R7, #+0]
   \   000001A8   2510A0E3           MOV      R1,#+37
   \   000001AC   4C0100EF           SWI      +332
   \   000001B0   14D08DE2           ADD      SP,SP,#+20
    522            }
    523            DrawRectangle(35,202,(202 * this_rec)/draw_rec,223,0,GetPaletteAdrByColorIndex(23),rebc);
   \                     ??DrawProgress_2:
   \   000001B4   1700A0E3           MOV      R0,#+23
   \   000001B8   2E0100EF           SWI      +302
   \   000001BC   54109FE5           LDR      R1,??DrawProgress_0+0x18  ;; rebc
   \   000001C0   DF30A0E3           MOV      R3,#+223
   \   000001C4   02002DE9           PUSH     {R1}
   \   000001C8   01002DE9           PUSH     {R0}
   \   000001CC   0000A0E3           MOV      R0,#+0
   \   000001D0   01002DE9           PUSH     {R0}
   \   000001D4   000094E5           LDR      R0,[R4, #+0]
   \   000001D8   CA10A0E3           MOV      R1,#+202
   \   000001DC   910000E0           MUL      R0,R1,R0
   \   000001E0   ........           LDR      R1,??DataTable55  ;; draw_rec
   \   000001E4   001091E5           LDR      R1,[R1, #+0]
   \   000001E8   ........           _BLF     ??div32_a,??rA??div32_a
   \   000001EC   0120A0E1           MOV      R2,R1
   \   000001F0   CA10A0E3           MOV      R1,#+202
   \   000001F4   2300A0E3           MOV      R0,#+35
   \   000001F8   B40100EF           SWI      +436
    524          #else
    525            if (casi)
    526            {
    527              this_rec++;
    528              wsprintf(data4, "...");
    529              DrawScrollString(data4,17,97,100,97+GetFontYSIZE(font),1,font,TEXT_ALIGNLEFT,ctasks,GetPaletteAdrByColorIndex(23));
    530              wsprintf(data4,"[OK]");
    531              DrawString(data4,115-Get_WS_width(data4,font),109,115+3,109+GetFontYSIZE(font)+1,font,0,ctasks,GetPaletteAdrByColorIndex(23));
    532              DrawScrollString(dat,17,109,87,109+GetFontYSIZE(font),1,font,TEXT_ALIGNLEFT,ctasks,GetPaletteAdrByColorIndex(23)); 
    533            }
    534            else
    535            {
    536              if(shutd) wsprintf(data4,"......");
    537              else wsprintf(data4,"Restarting......");
    538              DrawString(data4,17,109,115,109+GetFontYSIZE(font)+1,font,0,ctasks,GetPaletteAdrByColorIndex(23));
    539            }
    540            DrawRectangle(18,125,(115 * this_rec)/draw_rec,135,0,GetPaletteAdrByColorIndex(23),rebc);
    541          #endif
    542          }
   \   000001FC   F783BDE8           POP      {R0-R2,R4-R9,PC}  ;; return
   \                     ??DrawProgress_0:
   \   00000200   25740000           DC8      "%t",+0
   \   00000204   ........           DC32     this_rec
   \   00000208   ........           DC32     `?<Constant "\\307\\340\\352\\360\\373\\362\\350\\345..`
   \   0000020C   ........           DC32     `?<Constant "[OK]">`
   \   00000210   ........           DC32     `?<Constant "\\302\\373\\352\\353\\376\\367\\345\\355\\3`
   \   00000214   ........           DC32     `?<Constant "\\317\\345\\360\\345\\347\\340\\343\\360\\3`
   \   00000218   ........           DC32     rebc

   \                                 In segment DATA_C, align 1, align-sorted
    543          const char perc[]="%d";
   \                     perc:
   \   00000000   256400             DC8 "%d"

   \                                 In segment DATA_Z, align 4, align-sorted
    544          int zin;
   \                     zin:
   \   00000000                      DS8 4

   \                                 In segment DATA_I, align 4, align-sorted
    545          int init_rec=1;
   \                     init_rec:
   \   00000000                      DS8 4
   \   00000004                      REQUIRE `?<Initializer for init_rec>`
    546          

   \                                 In segment CODE, align 4, keep-with-next
    547          void task_list3()
    548          {
   \                     task_list3:
   \   00000000   70402DE9           PUSH     {R4-R6,LR}
    549            DrwImage(0, 0,&screen2, NULL, NULL);
   \   00000004   ........           LDR      R2,??DataTable59  ;; screen2
    550          #ifdef ELKA
    551            DrwImage(30, 50,background_img,0,0);  //12,37
    552            DrwImage(155,65,tasks_img,0,0);
    553            DrwImage(180,65,bookmarks_img,0,0);
    554          #else
    555            DrwImage(12, 26,background_img,0,0);  //12,37
    556            DrwImage(83,40,tasks_img,0,0);
    557            DrwImage(101,40,bookmarks_img,0,0);
    558          #endif
    559            total_d=GetNumberOfDialogs()-2;
   \   00000008   ........           LDR      R4,??DataTable75  ;; total_d
   \   0000000C   0000A0E3           MOV      R0,#+0
   \   00000010   01002DE9           PUSH     {R0}
   \   00000014   0030A0E3           MOV      R3,#+0
   \   00000018   0010A0E1           MOV      R1,R0
   \   0000001C   ........           BL       DrwImage
   \   00000020   0000A0E3           MOV      R0,#+0
   \   00000024   01002DE9           PUSH     {R0}
   \   00000028   0030A0E1           MOV      R3,R0
   \   0000002C   ........           LDR      R0,??DataTable60  ;; background_img
   \   00000030   3210A0E3           MOV      R1,#+50
   \   00000034   002090E5           LDR      R2,[R0, #+0]
   \   00000038   1E00A0E3           MOV      R0,#+30
   \   0000003C   ........           BL       DrwImage
   \   00000040   0000A0E3           MOV      R0,#+0
   \   00000044   01002DE9           PUSH     {R0}
   \   00000048   0030A0E1           MOV      R3,R0
   \   0000004C   ........           LDR      R0,??DataTable53  ;; tasks_img
   \   00000050   4110A0E3           MOV      R1,#+65
   \   00000054   002090E5           LDR      R2,[R0, #+0]
   \   00000058   9B00A0E3           MOV      R0,#+155
   \   0000005C   ........           BL       DrwImage
   \   00000060   0000A0E3           MOV      R0,#+0
   \   00000064   01002DE9           PUSH     {R0}
   \   00000068   0030A0E1           MOV      R3,R0
   \   0000006C   ........           LDR      R0,??DataTable54  ;; bookmarks_img
   \   00000070   4110A0E3           MOV      R1,#+65
   \   00000074   002090E5           LDR      R2,[R0, #+0]
   \   00000078   B400A0E3           MOV      R0,#+180
   \   0000007C   ........           BL       DrwImage
   \   00000080   ........           _BLF     GetNumberOfDialogs,??GetNumberOfDialogs??rA
   \   00000084   020040E2           SUB      R0,R0,#+2
   \   00000088   000084E5           STR      R0,[R4, #+0]
    560            if(init_rec) {draw_rec=total_d; init_rec=0;}
   \   0000008C   E4009FE5           LDR      R0,??task_list3_0  ;; init_rec
   \   00000090   001090E5           LDR      R1,[R0, #+0]
   \   00000094   10D08DE2           ADD      SP,SP,#+16
   \   00000098   000051E3           CMP      R1,#+0
   \   0000009C   0400000A           BEQ      ??task_list3_1
   \   000000A0   ........           LDR      R1,??DataTable55  ;; draw_rec
   \   000000A4   002094E5           LDR      R2,[R4, #+0]
   \   000000A8   002081E5           STR      R2,[R1, #+0]
   \   000000AC   0010A0E3           MOV      R1,#+0
   \   000000B0   001080E5           STR      R1,[R0, #+0]
    561            NAMELIST *nl=nltop;
   \                     ??task_list3_1:
   \   000000B4   ........           LDR      R0,??DataTable76  ;; nltop
    562            if(total_d>0)
   \   000000B8   ........           LDR      R5,??DataTable57  ;; shutd
   \   000000BC   006090E5           LDR      R6,[R0, #+0]
   \   000000C0   000094E5           LDR      R0,[R4, #+0]
   \   000000C4   010050E3           CMP      R0,#+1
   \   000000C8   200000BA           BLT      ??task_list3_2
    563            {
    564              if(a!=1){
   \   000000CC   A8009FE5           LDR      R0,??task_list3_0+0x4  ;; a
   \   000000D0   000090E5           LDR      R0,[R0, #+0]
   \   000000D4   010050E3           CMP      R0,#+1
   \   000000D8   1700000A           BEQ      ??task_list3_3
    565              NAMELIST *p=nl;
    566              nl=p->next;
   \   000000DC   006096E5           LDR      R6,[R6, #+0]
    567              zin=((CSM_RAM *)(nl->p))->id;
   \   000000E0   98409FE5           LDR      R4,??task_list3_0+0x8  ;; zin
   \   000000E4   0C0096E5           LDR      R0,[R6, #+12]
   \   000000E8   0C0090E5           LDR      R0,[R0, #+12]
   \   000000EC   000084E5           STR      R0,[R4, #+0]
    568              if (zin==CSM_root()->idle_id) 
   \   000000F0   068100EF           SWI      +33030
   \   000000F4   001094E5           LDR      R1,[R4, #+0]
   \   000000F8   040090E5           LDR      R0,[R0, #+4]
   \   000000FC   000051E1           CMP      R1,R0
   \   00000100   0300001A           BNE      ??task_list3_4
    569              {
    570                NAMELIST *p=nl;
    571                nl=p->next; 
   \   00000104   006096E5           LDR      R6,[R6, #+0]
    572                zin=((CSM_RAM *)(nl->p))->id;
   \   00000108   0C0096E5           LDR      R0,[R6, #+12]
   \   0000010C   0C0090E5           LDR      R0,[R0, #+12]
   \   00000110   000084E5           STR      R0,[R4, #+0]
    573              }
    574              if(shutd==0) SaveRebootList(nl->name);
   \                     ??task_list3_4:
   \   00000114   000095E5           LDR      R0,[R5, #+0]
   \   00000118   000050E3           CMP      R0,#+0
   \   0000011C   0100001A           BNE      ??task_list3_5
   \   00000120   080096E5           LDR      R0,[R6, #+8]
   \   00000124   ........           BL       SaveRebootList
    575              DrawProgress(nl->name, 1);
   \                     ??task_list3_5:
   \   00000128   080096E5           LDR      R0,[R6, #+8]
   \   0000012C   0110A0E3           MOV      R1,#+1
   \   00000130   ........           BL       DrawProgress
    576              CloseCSM(zin);
   \   00000134   000094E5           LDR      R0,[R4, #+0]
   \   00000138   FC0100EF           SWI      +508
    577              }
    578              GBS_StartTimerProc(&start_tmr, 100, task_list3);
   \                     ??task_list3_3:
   \   0000013C   40209FE5           LDR      R2,??task_list3_0+0xC  ;; task_list3
   \   00000140   ........           LDR      R0,??DataTable63  ;; start_tmr
   \   00000144   6410A0E3           MOV      R1,#+100
   \   00000148   4D0000EF           SWI      +77
   \   0000014C   7080BDE8           POP      {R4-R6,PC}
    579            }
    580            else
    581            {
    582              DrawProgress(NULL, 0);
   \                     ??task_list3_2:
   \   00000150   0010A0E3           MOV      R1,#+0
   \   00000154   0000A0E3           MOV      R0,#+0
   \   00000158   ........           BL       DrawProgress
    583              if (shutd==1) SwitchPhoneOff();
   \   0000015C   000095E5           LDR      R0,[R5, #+0]
   \   00000160   010050E3           CMP      R0,#+1
   \   00000164   0100001A           BNE      ??task_list3_6
   \   00000168   090000EF           SWI      +9
   \   0000016C   7080BDE8           POP      {R4-R6,PC}
    584              else RebootPhone();
   \                     ??task_list3_6:
   \   00000170   930000EF           SWI      +147
    585            }
    586          }
   \   00000174   7080BDE8           POP      {R4-R6,PC}       ;; return
   \                     ??task_list3_0:
   \   00000178   ........           DC32     init_rec
   \   0000017C   ........           DC32     a
   \   00000180   ........           DC32     zin
   \   00000184   ........           DC32     task_list3

   \                                 In segment CODE, align 4, keep-with-next
    587          void close()
    588          {
   \                     close:
   \   00000000   00402DE9           PUSH     {LR}
    589             DrwImage(0, 0,&screen2, NULL, NULL);
   \   00000004   ........           LDR      R2,??DataTable59  ;; screen2
   \   00000008   0000A0E3           MOV      R0,#+0
   \   0000000C   01002DE9           PUSH     {R0}
   \   00000010   0030A0E3           MOV      R3,#+0
   \   00000014   0010A0E1           MOV      R1,R0
   \   00000018   ........           BL       DrwImage
    590             DrwImage(30, 50,background_img,0,0);
   \   0000001C   0000A0E3           MOV      R0,#+0
   \   00000020   01002DE9           PUSH     {R0}
   \   00000024   0030A0E1           MOV      R3,R0
   \   00000028   ........           LDR      R0,??DataTable60  ;; background_img
   \   0000002C   3210A0E3           MOV      R1,#+50
   \   00000030   002090E5           LDR      R2,[R0, #+0]
   \   00000034   1E00A0E3           MOV      R0,#+30
   \   00000038   ........           BL       DrwImage
    591             DrwImage(35,74+(pos*20),cursor_img,0,0);
   \   0000003C   0000A0E3           MOV      R0,#+0
   \   00000040   01002DE9           PUSH     {R0}
   \   00000044   0030A0E1           MOV      R3,R0
   \   00000048   ........           LDR      R0,??DataTable61  ;; cursor_img
   \   0000004C   1410A0E3           MOV      R1,#+20
   \   00000050   002090E5           LDR      R2,[R0, #+0]
   \   00000054   ........           LDR      R0,??DataTable62  ;; pos
   \   00000058   000090E5           LDR      R0,[R0, #+0]
   \   0000005C   910000E0           MUL      R0,R1,R0
   \   00000060   4A1080E2           ADD      R1,R0,#+74
   \   00000064   2300A0E3           MOV      R0,#+35
   \   00000068   ........           BL       DrwImage
    592             GBS_StartTimerProc(&start_tmr, 100, close);
   \   0000006C   0C209FE5           LDR      R2,??close_0     ;; close
   \   00000070   ........           LDR      R0,??DataTable63  ;; start_tmr
   \   00000074   6410A0E3           MOV      R1,#+100
   \   00000078   4D0000EF           SWI      +77
    593          }
   \   0000007C   0780BDE8           POP      {R0-R2,PC}       ;; return
   \                     ??close_0:
   \   00000080   ........           DC32     close
    594          

   \                                 In segment DATA_Z, align 4, align-sorted
    595          int main_poX;
   \                     main_poX:
   \   00000000                      DS8 4

   \                                 In segment DATA_Z, align 4, align-sorted
    596          int main_poY;
   \                     main_poY:
   \   00000000                      DS8 4

   \                                 In segment DATA_Z, align 4, align-sorted
    597          int naticq_icon;
   \                     naticq_icon:
   \   00000000                      DS8 4
    598          

   \                                 In segment CODE, align 4, keep-with-next
    599          void check_name(char *a)
    600          {
    601            if(strstr(a, "Config:")>0) strcpy(a, "CfgEditor");
   \                     check_name:
   \   00000000   F0109FE5           LDR      R1,??check_name_0+0x10  ;; `?<Constant "Config:">`
   \   00000004   30402DE9           PUSH     {R4,R5,LR}
   \   00000008   0040A0E1           MOV      R4,R0
   \   0000000C   180100EF           SWI      +280
   \   00000010   000050E3           CMP      R0,#+0
   \   00000014   0200000A           BEQ      ??check_name_1
   \   00000018   DC109FE5           LDR      R1,??check_name_0+0x14  ;; `?<Constant "CfgEditor">`
   \   0000001C   0400A0E1           MOV      R0,R4
   \   00000020   1A0000EF           SWI      +26
    602            if(strstr(a, "NATICQ")>0) {if(naticq_icon) strcpy(a, "NATICQ2"); else strcpy(a, "NATICQ");}
   \                     ??check_name_1:
   \   00000024   D4509FE5           LDR      R5,??check_name_0+0x18  ;; `?<Constant "NATICQ">`
   \   00000028   0400A0E1           MOV      R0,R4
   \   0000002C   0510A0E1           MOV      R1,R5
   \   00000030   180100EF           SWI      +280
   \   00000034   000050E3           CMP      R0,#+0
   \   00000038   0600000A           BEQ      ??check_name_2
   \   0000003C   ........           LDR      R0,??DataTable64  ;; naticq_icon
   \   00000040   000090E5           LDR      R0,[R0, #+0]
   \   00000044   000050E3           CMP      R0,#+0
   \   00000048   ........           LDRNE    R1,??DataTable65  ;; `?<Constant "NATICQ2">`
   \   0000004C   0400A0E1           MOV      R0,R4
   \   00000050   0510A001           MOVEQ    R1,R5
   \   00000054   1A0000EF           SWI      +26
    603            if(strstr(a, "SieJC")>0) strcpy(a, "SieJC");
   \                     ??check_name_2:
   \   00000058   A4509FE5           LDR      R5,??check_name_0+0x1C  ;; `?<Constant "SieJC">`
   \   0000005C   0400A0E1           MOV      R0,R4
   \   00000060   0510A0E1           MOV      R1,R5
   \   00000064   180100EF           SWI      +280
   \   00000068   000050E3           CMP      R0,#+0
   \   0000006C   0200000A           BEQ      ??check_name_3
   \   00000070   0510A0E1           MOV      R1,R5
   \   00000074   0400A0E1           MOV      R0,R4
   \   00000078   1A0000EF           SWI      +26
    604            if(strstr(a, "MC")>0) strcpy(a, "MC:");
   \                     ??check_name_3:
   \   0000007C   195F8FE2           ADR      R5,??check_name_0  ;; "MC:"
   \   00000080   191F8FE2           ADR      R1,??check_name_0+0x4  ;; "MC"
   \   00000084   0400A0E1           MOV      R0,R4
   \   00000088   180100EF           SWI      +280
   \   0000008C   000050E3           CMP      R0,#+0
   \   00000090   0200000A           BEQ      ??check_name_4
   \   00000094   0510A0E1           MOV      R1,R5
   \   00000098   0400A0E1           MOV      R0,R4
   \   0000009C   1A0000EF           SWI      +26
    605            if(strstr(a, "mc")>0) strcpy(a, "MC:");
   \                     ??check_name_4:
   \   000000A0   121F8FE2           ADR      R1,??check_name_0+0x8  ;; "mc"
   \   000000A4   0400A0E1           MOV      R0,R4
   \   000000A8   180100EF           SWI      +280
   \   000000AC   000050E3           CMP      R0,#+0
   \   000000B0   0200000A           BEQ      ??check_name_5
   \   000000B4   0510A0E1           MOV      R1,R5
   \   000000B8   0400A0E1           MOV      R0,R4
   \   000000BC   1A0000EF           SWI      +26
    606            if(strstr(a, "BM:")>0) strcpy(a, "BM:");
   \                     ??check_name_5:
   \   000000C0   0B5F8FE2           ADR      R5,??check_name_0+0xC  ;; "BM:"
   \   000000C4   0510A0E1           MOV      R1,R5
   \   000000C8   0400A0E1           MOV      R0,R4
   \   000000CC   180100EF           SWI      +280
   \   000000D0   000050E3           CMP      R0,#+0
   \   000000D4   3080BD08           POPEQ    {R4,R5,PC}
   \   000000D8   0510A0E1           MOV      R1,R5
   \   000000DC   0400A0E1           MOV      R0,R4
   \   000000E0   1A0000EF           SWI      +26
    607          }
   \   000000E4   3080BDE8           POP      {R4,R5,PC}       ;; return
   \                     ??check_name_0:
   \   000000E8   4D433A00           DC8      "MC:"
   \   000000EC   4D430000           DC8      "MC",+0
   \   000000F0   6D630000           DC8      "mc",+0
   \   000000F4   424D3A00           DC8      "BM:"
   \   000000F8   ........           DC32     `?<Constant "Config:">`
   \   000000FC   ........           DC32     `?<Constant "CfgEditor">`
   \   00000100   ........           DC32     `?<Constant "NATICQ">`
   \   00000104   ........           DC32     `?<Constant "SieJC">`
    608          

   \                                 In segment DATA_Z, align 4, align-sorted
    609          int use_unknown;
   \                     use_unknown:
   \   00000000                      DS8 4
    610          

   \                                 In segment CODE, align 4, keep-with-next
    611          void SearchIcon(WSHDR *ramed, int w, int show, int main_icon, int mainx, int mainy)
    612          {
   \                     SearchIcon:
   \   00000000   F04F2DE9           PUSH     {R4-R11,LR}
   \   00000004   42DF4DE2           SUB      SP,SP,#+264
   \   00000008   2C519DE5           LDR      R5,[SP, #+300]
   \   0000000C   30619DE5           LDR      R6,[SP, #+304]
    613            char buffer[256];
    614            convWS_to_ANSI(ramed, buffer);
    615            check_name(buffer);
    616            if(main_icon) if(strstr(buffer, "IDLE")>0) strcpy(buffer, "navaico");
   \   00000010   00A29FE5           LDR      R10,??SearchIcon_0  ;; `?<Constant "navaico">`
   \   00000014   0170A0E1           MOV      R7,R1
   \   00000018   0280A0E1           MOV      R8,R2
   \   0000001C   0390A0E1           MOV      R9,R3
   \   00000020   08108DE2           ADD      R1,SP,#+8
   \   00000024   ........           _BLF     convWS_to_ANSI,??convWS_to_ANSI??rA
   \   00000028   08008DE2           ADD      R0,SP,#+8
   \   0000002C   ........           BL       check_name
   \   00000030   000059E3           CMP      R9,#+0
   \   00000034   0700000A           BEQ      ??SearchIcon_1
   \   00000038   DC119FE5           LDR      R1,??SearchIcon_0+0x4  ;; `?<Constant "IDLE">`
   \   0000003C   08008DE2           ADD      R0,SP,#+8
   \   00000040   180100EF           SWI      +280
   \   00000044   000050E3           CMP      R0,#+0
   \   00000048   0200000A           BEQ      ??SearchIcon_1
   \   0000004C   0A10A0E1           MOV      R1,R10
   \   00000050   08008DE2           ADD      R0,SP,#+8
   \   00000054   1A0000EF           SWI      +26
    617            char p2[]="||";
   \                     ??SearchIcon_1:
   \   00000058   C0119FE5           LDR      R1,??SearchIcon_0+0x8  ;; `?<Constant "||">`
   \   0000005C   ........           LDR      R11,??DataTable66  ;; icon_text
   \   00000060   0020D1E5           LDRB     R2,[R1, #0]
   \   00000064   0D00A0E1           MOV      R0,SP
   \   00000068   0020C0E5           STRB     R2,[R0, #+0]
   \   0000006C   0120D1E5           LDRB     R2,[R1, #+1]
   \   00000070   0120C0E5           STRB     R2,[R0, #+1]
   \   00000074   0220D1E5           LDRB     R2,[R1, #+2]
   \   00000078   0220C0E5           STRB     R2,[R0, #+2]
   \   0000007C   020000EA           B        ??SearchIcon_2
    618            char *s,*s1,*s2;
    619            int len;
    620          Sundo:
    621            if((s1=strstr(icon_text,buffer))>0)
    622            {
    623              s1+=strlen(buffer);
    624              if((s2=strstr(s1,p2))>0)
    625              {
    626                len=s2-s1-1;
    627                s=malloc(len+1);
    628                strncpy(s,s1+1,len);
    629                s[len]='\0';
    630                if(main_icon)
    631                {
    632          #ifdef ELKA
    633                  
    634                  char *buffer_icon=malloc(256);
    635                  sprintf(buffer_icon, "%s%s.png", icon_list_ms, s);
    636                  void *canvasdata = BuildCanvas();
    637                  DrawCanvas(canvasdata,mainx,mainy,mainx+GetImgWidth((int)buffer_icon),mainy+20,1);
    638                  DrawImg(mainx,mainy,(int)buffer_icon);
    639                  if(horizontality) main_poX=main_poX+GetImgWidth((int)buffer_icon);
    640                  else main_poY=main_poY+GetImgWidth((int)buffer_icon);
    641                  mfree(buffer_icon);
    642          #else
    643                  void *canvasdata = BuildCanvas();
    644                  DrawCanvas(canvasdata,mainx,mainy,mainx+26,mainy+13,1);
    645                  DrawImg(mainx,mainy,(int)s);
    646                  if(horizontality) main_poX=main_poX+13;
    647                  else main_poY=main_poY+13;
    648          #endif
    649                }
    650                else
    651                {
    652          #ifdef ELKA
    653                char *buffer_icon=malloc(256);
    654                sprintf(buffer_icon, "%s%s.png", icon_list_xtask, s);
    655                if(show) DrawImg(37,w+2,(int)buffer_icon);
    656                DrawImg(181,w+2,(int)buffer_icon);
    657                mfree(buffer_icon);
    658          #else
    659                if(show) DrawImg(17,w+1,(int)s);
    660                DrawImg(102,w+1,(int)s);
    661          #endif  
    662                }
    663                mfree(s);
    664              }
    665            }
    666            else
    667            {
    668              if((strstr(buffer, "navaico")==0)&&(!main_icon))
    669              {
    670                if((!main_icon)&&(use_unknown)) {strcpy(buffer, "UNKNOWN"); goto Sundo;}
   \                     ??SearchIcon_3:
   \   00000080   ........           LDR      R1,??DataTable67  ;; `?<Constant "UNKNOWN">`
   \   00000084   08008DE2           ADD      R0,SP,#+8
   \   00000088   1A0000EF           SWI      +26
   \                     ??SearchIcon_2:
   \   0000008C   08108DE2           ADD      R1,SP,#+8
   \   00000090   0B00A0E1           MOV      R0,R11
   \   00000094   180100EF           SWI      +280
   \   00000098   0040B0E1           MOVS     R4,R0
   \   0000009C   5100000A           BEQ      ??SearchIcon_4
   \   000000A0   08008DE2           ADD      R0,SP,#+8
   \   000000A4   1B0000EF           SWI      +27
   \   000000A8   044080E0           ADD      R4,R0,R4
   \   000000AC   0D10A0E1           MOV      R1,SP
   \   000000B0   0400A0E1           MOV      R0,R4
   \   000000B4   180100EF           SWI      +280
   \   000000B8   000050E3           CMP      R0,#+0
   \   000000BC   5300000A           BEQ      ??SearchIcon_5
   \   000000C0   040040E0           SUB      R0,R0,R4
   \   000000C4   01B040E2           SUB      R11,R0,#+1
   \   000000C8   140000EF           SWI      +20
   \   000000CC   00A0A0E1           MOV      R10,R0
   \   000000D0   0B20A0E1           MOV      R2,R11
   \   000000D4   011084E2           ADD      R1,R4,#+1
   \   000000D8   160100EF           SWI      +278
   \   000000DC   0000A0E3           MOV      R0,#+0
   \   000000E0   0A00CBE7           STRB     R0,[R11, +R10]
   \   000000E4   38B19FE5           LDR      R11,??SearchIcon_0+0xC  ;; `?<Constant "%s%s.png">`
   \   000000E8   000059E3           CMP      R9,#+0
   \   000000EC   400FA0E3           MOV      R0,#+256
   \   000000F0   2500000A           BEQ      ??SearchIcon_6
   \   000000F4   140000EF           SWI      +20
   \   000000F8   ........           LDR      R2,??DataTable68  ;; icon_list_ms
   \   000000FC   0040A0E1           MOV      R4,R0
   \   00000100   0A30A0E1           MOV      R3,R10
   \   00000104   0B10A0E1           MOV      R1,R11
   \   00000108   160000EF           SWI      +22
   \   0000010C   F18000EF           SWI      +33009
   \   00000110   0070A0E1           MOV      R7,R0
   \   00000114   0400A0E1           MOV      R0,R4
   \   00000118   220000EF           SWI      +34
   \   0000011C   0110A0E3           MOV      R1,#+1
   \   00000120   02002DE9           PUSH     {R1}
   \   00000124   053080E0           ADD      R3,R0,R5
   \   00000128   0620A0E1           MOV      R2,R6
   \   0000012C   0700A0E1           MOV      R0,R7
   \   00000130   141086E2           ADD      R1,R6,#+20
   \   00000134   02002DE9           PUSH     {R1}
   \   00000138   0510A0E1           MOV      R1,R5
   \   0000013C   250000EF           SWI      +37
   \   00000140   0420A0E1           MOV      R2,R4
   \   00000144   0610A0E1           MOV      R1,R6
   \   00000148   0500A0E1           MOV      R0,R5
   \   0000014C   230000EF           SWI      +35
   \   00000150   D0009FE5           LDR      R0,??SearchIcon_0+0x10  ;; horizontality
   \   00000154   000090E5           LDR      R0,[R0, #+0]
   \   00000158   08D08DE2           ADD      SP,SP,#+8
   \   0000015C   000050E3           CMP      R0,#+0
   \   00000160   0400A0E1           MOV      R0,R4
   \   00000164   0200000A           BEQ      ??SearchIcon_7
   \   00000168   220000EF           SWI      +34
   \   0000016C   ........           LDR      R1,??DataTable73  ;; main_poX
   \   00000170   010000EA           B        ??SearchIcon_8
   \                     ??SearchIcon_7:
   \   00000174   220000EF           SWI      +34
   \   00000178   ........           LDR      R1,??DataTable74  ;; main_poY
   \                     ??SearchIcon_8:
   \   0000017C   002091E5           LDR      R2,[R1, #+0]
   \   00000180   020080E0           ADD      R0,R0,R2
   \   00000184   000081E5           STR      R0,[R1, #+0]
   \   00000188   100000EA           B        ??SearchIcon_9
   \                     ??SearchIcon_6:
   \   0000018C   140000EF           SWI      +20
   \   00000190   ........           LDR      R2,??DataTable71  ;; icon_list_xtask
   \   00000194   0040A0E1           MOV      R4,R0
   \   00000198   0A30A0E1           MOV      R3,R10
   \   0000019C   0B10A0E1           MOV      R1,R11
   \   000001A0   160000EF           SWI      +22
   \   000001A4   025087E2           ADD      R5,R7,#+2
   \   000001A8   000058E3           CMP      R8,#+0
   \   000001AC   0300000A           BEQ      ??SearchIcon_10
   \   000001B0   0420A0E1           MOV      R2,R4
   \   000001B4   0510A0E1           MOV      R1,R5
   \   000001B8   2500A0E3           MOV      R0,#+37
   \   000001BC   230000EF           SWI      +35
   \                     ??SearchIcon_10:
   \   000001C0   0420A0E1           MOV      R2,R4
   \   000001C4   0510A0E1           MOV      R1,R5
   \   000001C8   B500A0E3           MOV      R0,#+181
   \   000001CC   230000EF           SWI      +35
   \                     ??SearchIcon_9:
   \   000001D0   0400A0E1           MOV      R0,R4
   \   000001D4   150000EF           SWI      +21
   \   000001D8   0A00A0E1           MOV      R0,R10
   \   000001DC   150000EF           SWI      +21
   \   000001E0   42DF8DE2           ADD      SP,SP,#+264
   \   000001E4   F08FBDE8           POP      {R4-R11,PC}
   \                     ??SearchIcon_4:
   \   000001E8   0A10A0E1           MOV      R1,R10
   \   000001EC   08008DE2           ADD      R0,SP,#+8
   \   000001F0   180100EF           SWI      +280
   \   000001F4   000050E3           CMP      R0,#+0
   \   000001F8   00005903           CMPEQ    R9,#+0
   \   000001FC   0300001A           BNE      ??SearchIcon_5
   \   00000200   ........           LDR      R0,??DataTable72  ;; use_unknown
   \   00000204   000090E5           LDR      R0,[R0, #+0]
   \   00000208   000050E3           CMP      R0,#+0
   \   0000020C   9BFFFF1A           BNE      ??SearchIcon_3
    671              }
    672            }
    673          }
   \                     ??SearchIcon_5:
   \   00000210   42DF8DE2           ADD      SP,SP,#+264      ;; stack cleaning
   \   00000214   F08FBDE8           POP      {R4-R11,PC}      ;; return
   \                     ??SearchIcon_0:
   \   00000218   ........           DC32     `?<Constant "navaico">`
   \   0000021C   ........           DC32     `?<Constant "IDLE">`
   \   00000220   ........           DC32     `?<Constant "||">`
   \   00000224   ........           DC32     `?<Constant "%s%s.png">`
   \   00000228   ........           DC32     horizontality
    674          
    675          extern const unsigned int IDLETASKS;
    676          extern const unsigned int IDLET_X;
    677          extern const unsigned int IDLET_Y;
    678          

   \                                 In segment CODE, align 4, keep-with-next
    679          void DrawMainTasks()
    680          {
   \                     DrawMainTasks:
   \   00000000   70402DE9           PUSH     {R4-R6,LR}
    681            total_d=GetNumberOfDialogs()-1;
    682            NAMELIST *nl=nltop;
    683            main_poX=IDLET_X;
   \   00000004   ........           LDR      R5,??DataTable73  ;; main_poX
    684            main_poY=IDLET_Y;
   \   00000008   ........           LDR      R6,??DataTable74  ;; main_poY
   \   0000000C   ........           _BLF     GetNumberOfDialogs,??GetNumberOfDialogs??rA
   \   00000010   ........           LDR      R1,??DataTable75  ;; total_d
   \   00000014   010040E2           SUB      R0,R0,#+1
   \   00000018   000081E5           STR      R0,[R1, #+0]
   \   0000001C   ........           LDR      R0,??DataTable76  ;; nltop
   \   00000020   004090E5           LDR      R4,[R0, #+0]
   \   00000024   5C009FE5           LDR      R0,??DrawMainTasks_0  ;; IDLET_X
   \   00000028   000054E3           CMP      R4,#+0
   \   0000002C   000090E5           LDR      R0,[R0, #+0]
   \   00000030   000085E5           STR      R0,[R5, #+0]
   \   00000034   50009FE5           LDR      R0,??DrawMainTasks_0+0x4  ;; IDLET_Y
   \   00000038   000090E5           LDR      R0,[R0, #+0]
   \   0000003C   000086E5           STR      R0,[R6, #+0]
   \   00000040   7080BD08           POPEQ    {R4-R6,PC}
    685            while(nl)
    686            {
    687              NAMELIST *p=nl;
    688              if(nl->is_daemon) { } else SearchIcon(nl->name, main_poX, 0, 1, main_poX, main_poY);
   \                     ??DrawMainTasks_1:
   \   00000044   100094E5           LDR      R0,[R4, #+16]
   \   00000048   000050E3           CMP      R0,#+0
   \   0000004C   0900001A           BNE      ??DrawMainTasks_2
   \   00000050   001095E5           LDR      R1,[R5, #+0]
   \   00000054   000096E5           LDR      R0,[R6, #+0]
   \   00000058   0130A0E3           MOV      R3,#+1
   \   0000005C   01002DE9           PUSH     {R0}
   \   00000060   0020A0E3           MOV      R2,#+0
   \   00000064   0100A0E1           MOV      R0,R1
   \   00000068   01002DE9           PUSH     {R0}
   \   0000006C   080094E5           LDR      R0,[R4, #+8]
   \   00000070   ........           BL       SearchIcon
   \   00000074   08D08DE2           ADD      SP,SP,#+8
    689              nl=p->next;
   \                     ??DrawMainTasks_2:
   \   00000078   004094E5           LDR      R4,[R4, #+0]
    690            }
   \   0000007C   000054E3           CMP      R4,#+0
   \   00000080   EFFFFF1A           BNE      ??DrawMainTasks_1
    691          }
   \   00000084   7080BDE8           POP      {R4-R6,PC}       ;; return
   \                     ??DrawMainTasks_0:
   \   00000088   ........           DC32     IDLET_X
   \   0000008C   ........           DC32     IDLET_Y
    692          

   \                                 In segment DATA_Z, align 4, align-sorted
    693          int refresh;
   \                     refresh:
   \   00000000                      DS8 4
    694          extern const char Side1[4];
    695          extern const char Side2[4];
    696          

   \                                 In segment CODE, align 4, keep-with-next
    697          void DrawSideProgresbar(int count, int position) //30,50 //172,42 // 172,148  ==  //12,26 //103,33 //103,94
    698          {
   \                     DrawSideProgresbar:
   \   00000000   30402DE9           PUSH     {R4,R5,LR}
   \   00000004   0050A0E1           MOV      R5,R0
   \   00000008   0140A0E1           MOV      R4,R1
    699            if(count>1)
   \   0000000C   020055E3           CMP      R5,#+2
   \   00000010   3080BDB8           POPLT    {R4,R5,PC}
    700            {
    701          #ifdef ELKA
    702              DrawRectangle(202,92,204,198,0,Side1,Side1);
   \   00000014   70009FE5           LDR      R0,??DrawSideProgresbar_0  ;; Side1
   \   00000018   C630A0E3           MOV      R3,#+198
   \   0000001C   0010A0E1           MOV      R1,R0
   \   00000020   02002DE9           PUSH     {R1}
   \   00000024   01002DE9           PUSH     {R0}
   \   00000028   CC20A0E3           MOV      R2,#+204
   \   0000002C   5C10A0E3           MOV      R1,#+92
   \   00000030   0000A0E3           MOV      R0,#+0
   \   00000034   01002DE9           PUSH     {R0}
   \   00000038   CA00A0E3           MOV      R0,#+202
   \   0000003C   B40100EF           SWI      +436
    703              int height1=106/count;
   \   00000040   6A00A0E3           MOV      R0,#+106
   \   00000044   0510A0E1           MOV      R1,R5
   \   00000048   ........           _BLF     ??div32_a,??rA??div32_a
    704              DrawRectangle(202,92+(height1*(position-1)),204,92+(height1*(position)),0,Side2,Side2);
   \   0000004C   3C009FE5           LDR      R0,??DrawSideProgresbar_0+0x4  ;; Side2
   \   00000050   0020A0E1           MOV      R2,R0
   \   00000054   04002DE9           PUSH     {R2}
   \   00000058   01002DE9           PUSH     {R0}
   \   0000005C   0000A0E3           MOV      R0,#+0
   \   00000060   01002DE9           PUSH     {R0}
   \   00000064   CC20A0E3           MOV      R2,#+204
   \   00000068   940100E0           MUL      R0,R4,R1
   \   0000006C   5C3080E2           ADD      R3,R0,#+92
   \   00000070   010044E2           SUB      R0,R4,#+1
   \   00000074   900101E0           MUL      R1,R0,R1
   \   00000078   CA00A0E3           MOV      R0,#+202
   \   0000007C   5C1081E2           ADD      R1,R1,#+92
   \   00000080   B40100EF           SWI      +436
   \   00000084   18D08DE2           ADD      SP,SP,#+24
    705          #else
    706              DrawRectangle(115,59,116,120,0,Side1,Side1);
    707              int height1=60/count;
    708              DrawRectangle(115,59+(height1*(position-1)),116,59+(height1*(position)),0,Side2,Side2);
    709          #endif
    710            }
    711          }
   \   00000088   3080BDE8           POP      {R4,R5,PC}       ;; return
   \                     ??DrawSideProgresbar_0:
   \   0000008C   ........           DC32     Side1
   \   00000090   ........           DC32     Side2
    712          

   \                                 In segment DATA_Z, align 4, align-sorted
    713          int test2;
   \                     test2:
   \   00000000                      DS8 4
    714          

   \                                 In segment CODE, align 4, keep-with-next
    715          void DrawCPU() //182, 3 //186, 182
    716          {
   \                     DrawCPU:
   \   00000000   10402DE9           PUSH     {R4,LR}
    717          #ifdef ELKA
    718            test2 = GetFreeRamAvail();
   \   00000004   5C409FE5           LDR      R4,??DrawCPU_0   ;; test2
   \   00000008   5F0000EF           SWI      +95
   \   0000000C   000084E5           STR      R0,[R4, #+0]
    719            test2=test2/1024;
   \   00000010   C014A0E1           ASR      R1,R0,#+9
   \   00000014   210B80E0           ADD      R0,R0,R1, LSR #+22
    720            DrawRectangle(212, 232-((179*test2)/8000), 216, 232, 0, cinfo, cinfo);
   \   00000018   ........           LDR      R1,??DataTable77  ;; cinfo
   \   0000001C   4005A0E1           ASR      R0,R0,#+10
   \   00000020   000084E5           STR      R0,[R4, #+0]
   \   00000024   0120A0E1           MOV      R2,R1
   \   00000028   04002DE9           PUSH     {R2}
   \   0000002C   02002DE9           PUSH     {R1}
   \   00000030   E830A0E3           MOV      R3,#+232
   \   00000034   D820A0E3           MOV      R2,#+216
   \   00000038   0010A0E3           MOV      R1,#+0
   \   0000003C   02002DE9           PUSH     {R1}
   \   00000040   B310A0E3           MOV      R1,#+179
   \   00000044   910000E0           MUL      R0,R1,R0
   \   00000048   1C109FE5           LDR      R1,??DrawCPU_0+0x4  ;; 0x10624dd3
   \   0000004C   9140CCE0           SMULL    R4,R12,R1,R0
   \   00000050   CCC4A0E1           ASR      R12,R12,#+9
   \   00000054   A00F8CE0           ADD      R0,R12,R0, LSR #+31
   \   00000058   E81060E2           RSB      R1,R0,#+232
   \   0000005C   D400A0E3           MOV      R0,#+212
   \   00000060   B40100EF           SWI      +436
    721          #endif
    722          }
   \   00000064   1780BDE8           POP      {R0-R2,R4,PC}    ;; return
   \                     ??DrawCPU_0:
   \   00000068   ........           DC32     test2
   \   0000006C   D34D6210           DC32     0x10624dd3
    723          

   \                                 In segment CODE, align 4, keep-with-next
    724          void OnRedraw(MAIN_GUI *data)
    725          { 
   \                     OnRedraw:
   \   00000000   200A9FE5           LDR      R0,??OnRedraw_0+0x4  ;; refresh
   \   00000004   F04F2DE9           PUSH     {R4-R11,LR}
   \   00000008   18D04DE2           SUB      SP,SP,#+24
   \   0000000C   185A9FE5           LDR      R5,??OnRedraw_0+0x8  ;; ctasks
   \   00000010   189A9FE5           LDR      R9,??OnRedraw_0+0xC  ;; move_skip
   \   00000014   184A9FE5           LDR      R4,??OnRedraw_0+0x10  ;; selection_img
   \   00000018   186A9FE5           LDR      R6,??OnRedraw_0+0x14  ;; cursor_img
   \   0000001C   187A9FE5           LDR      R7,??OnRedraw_0+0x18  ;; bookmarks_img
   \   00000020   188A9FE5           LDR      R8,??OnRedraw_0+0x1C  ;; tasks_img
   \   00000024   18AA9FE5           LDR      R10,??OnRedraw_0+0x20  ;; background_img
   \   00000028   18BA9FE5           LDR      R11,??OnRedraw_0+0x24  ;; screen2
   \   0000002C   D810A0E3           MOV      R1,#+216
   \   00000030   001080E5           STR      R1,[R0, #+0]
   \   00000034   100A9FE5           LDR      R0,??OnRedraw_0+0x28  ;; task_list
   \   00000038   000090E5           LDR      R0,[R0, #+0]
   \   0000003C   010050E3           CMP      R0,#+1
   \   00000040   E801001A           BNE      ??OnRedraw_1
    726            refresh=216;
    727            if(task_list==1)
    728            {
    729            total_d=GetNumberOfDialogs()-1;
   \   00000044   ........           _BLF     GetNumberOfDialogs,??GetNumberOfDialogs??rA
   \   00000048   001A9FE5           LDR      R1,??OnRedraw_0+0x2C  ;; total_d
   \   0000004C   010040E2           SUB      R0,R0,#+1
   \   00000050   000081E5           STR      R0,[R1, #+0]
    730          //#ifdef NEWSGOLD
    731            DrwImage(0, 0,&screen2, NULL, NULL);
   \   00000054   0000A0E3           MOV      R0,#+0
   \   00000058   01002DE9           PUSH     {R0}
   \   0000005C   0030A0E3           MOV      R3,#+0
   \   00000060   0B20A0E1           MOV      R2,R11
   \   00000064   0010A0E1           MOV      R1,R0
   \   00000068   ........           BL       DrwImage
    732          //#endif
    733          #ifdef ELKA
    734            DrwImage(30, 50,background_img,0,0);  //12,37
   \   0000006C   0000A0E3           MOV      R0,#+0
   \   00000070   01002DE9           PUSH     {R0}
   \   00000074   00209AE5           LDR      R2,[R10, #+0]
   \   00000078   0030A0E1           MOV      R3,R0
   \   0000007C   3210A0E3           MOV      R1,#+50
   \   00000080   1E00A0E3           MOV      R0,#+30
   \   00000084   ........           BL       DrwImage
    735            if(tasks!=0) DrwImage(35,74+(pos*20),cursor_img,0,0);
   \   00000088   C4099FE5           LDR      R0,??OnRedraw_0+0x30  ;; tasks
   \   0000008C   000090E5           LDR      R0,[R0, #+0]
   \   00000090   08D08DE2           ADD      SP,SP,#+8
   \   00000094   000050E3           CMP      R0,#+0
   \   00000098   0B00000A           BEQ      ??OnRedraw_2
   \   0000009C   0000A0E3           MOV      R0,#+0
   \   000000A0   01002DE9           PUSH     {R0}
   \   000000A4   002096E5           LDR      R2,[R6, #+0]
   \   000000A8   A8099FE5           LDR      R0,??OnRedraw_0+0x34  ;; pos
   \   000000AC   1410A0E3           MOV      R1,#+20
   \   000000B0   000090E5           LDR      R0,[R0, #+0]
   \   000000B4   0030A0E3           MOV      R3,#+0
   \   000000B8   910000E0           MUL      R0,R1,R0
   \   000000BC   4A1080E2           ADD      R1,R0,#+74
   \   000000C0   2300A0E3           MOV      R0,#+35
   \   000000C4   ........           BL       DrwImage
   \   000000C8   04D08DE2           ADD      SP,SP,#+4
    736            DrwImage(153,63,selection_img,0,0);
   \                     ??OnRedraw_2:
   \   000000CC   0000A0E3           MOV      R0,#+0
   \   000000D0   01002DE9           PUSH     {R0}
   \   000000D4   002094E5           LDR      R2,[R4, #+0]
   \   000000D8   0030A0E3           MOV      R3,#+0
   \   000000DC   3F10A0E3           MOV      R1,#+63
   \   000000E0   9900A0E3           MOV      R0,#+153
   \   000000E4   ........           BL       DrwImage
    737            DrwImage(155,65,tasks_img,0,0);
   \   000000E8   0000A0E3           MOV      R0,#+0
   \   000000EC   01002DE9           PUSH     {R0}
   \   000000F0   002098E5           LDR      R2,[R8, #+0]
   \   000000F4   0030A0E1           MOV      R3,R0
   \   000000F8   4110A0E3           MOV      R1,#+65
   \   000000FC   9B00A0E3           MOV      R0,#+155
   \   00000100   ........           BL       DrwImage
    738            DrwImage(180,65,bookmarks_img,0,0);
   \   00000104   0000A0E3           MOV      R0,#+0
   \   00000108   01002DE9           PUSH     {R0}
   \   0000010C   002097E5           LDR      R2,[R7, #+0]
   \   00000110   0030A0E1           MOV      R3,R0
   \   00000114   4110A0E3           MOV      R1,#+65
   \   00000118   B400A0E3           MOV      R0,#+180
   \   0000011C   ........           BL       DrwImage
    739          #else
    740            DrwImage(12, 26,background_img,0,0);  //12,37
    741            if(tasks!=0) DrwImage(16,48+(pos*12),cursor_img,0,0);
    742            DrwImage(82,39,selection_img,0,0);
    743            DrwImage(83,40,tasks_img,0,0);
    744            DrwImage(101,40,bookmarks_img,0,0);
    745          #endif
    746            int show=1;
    747            NAMELIST *nl=nltop;
   \   00000120   34099FE5           LDR      R0,??OnRedraw_0+0x38  ;; nltop
   \   00000124   0160A0E3           MOV      R6,#+1
   \   00000128   008090E5           LDR      R8,[R0, #+0]
    748          #ifdef ELKA
    749            int i=94;
    750          #else
    751            int i=60;
    752          #endif
    753            WSHDR *ws=AllocWS(64);
   \   0000012C   4000A0E3           MOV      R0,#+64
   \   00000130   250100EF           SWI      +293
    754            int skip=move_skip+1;
   \   00000134   001099E5           LDR      R1,[R9, #+0]
   \   00000138   0040A0E1           MOV      R4,R0
    755            if(total_d==0)
   \   0000013C   0C099FE5           LDR      R0,??OnRedraw_0+0x2C  ;; total_d
   \   00000140   011081E2           ADD      R1,R1,#+1
   \   00000144   14108DE5           STR      R1,[SP, #+20]
   \   00000148   000090E5           LDR      R0,[R0, #+0]
   \   0000014C   5E70A0E3           MOV      R7,#+94
   \   00000150   000050E3           CMP      R0,#+0
   \   00000154   0CD08DE2           ADD      SP,SP,#+12
   \   00000158   7900001A           BNE      ??OnRedraw_3
    756            {
    757          #ifdef ELKA
    758              wsprintf(ws, "No Tasks");
   \   0000015C   FC189FE5           LDR      R1,??OnRedraw_0+0x3C  ;; `?<Constant "No Tasks">`
   \   00000160   0400A0E1           MOV      R0,R4
   \   00000164   240100EF           SWI      +292
    759              DrawString(ws,120-(Get_WS_width(ws,9)/2),134,120+(Get_WS_width(ws,9)/2)+3,134+GetFontYSIZE(9)+2,9,0,ctasks,GetPaletteAdrByColorIndex(23)); 
   \   00000168   1700A0E3           MOV      R0,#+23
   \   0000016C   2E0100EF           SWI      +302
   \   00000170   0070A0E1           MOV      R7,R0
   \   00000174   0900A0E3           MOV      R0,#+9
   \   00000178   C50100EF           SWI      +453
   \   0000017C   0080A0E1           MOV      R8,R0
   \   00000180   0910A0E3           MOV      R1,#+9
   \   00000184   0400A0E1           MOV      R0,R4
   \   00000188   080200EF           SWI      +520
   \   0000018C   0060A0E1           MOV      R6,R0
   \   00000190   0910A0E3           MOV      R1,#+9
   \   00000194   0400A0E1           MOV      R0,R4
   \   00000198   080200EF           SWI      +520
   \   0000019C   80002DE9           PUSH     {R7}
   \   000001A0   20002DE9           PUSH     {R5}
   \   000001A4   0010A0E3           MOV      R1,#+0
   \   000001A8   02002DE9           PUSH     {R1}
   \   000001AC   7B20A0E3           MOV      R2,#+123
   \   000001B0   A00F80E0           ADD      R0,R0,R0, LSR #+31
   \   000001B4   0910A0E3           MOV      R1,#+9
   \   000001B8   02002DE9           PUSH     {R1}
   \   000001BC   881088E2           ADD      R1,R8,#+136
   \   000001C0   02002DE9           PUSH     {R1}
   \   000001C4   A61F86E0           ADD      R1,R6,R6, LSR #+31
   \   000001C8   C13082E0           ADD      R3,R2,R1, ASR #+1
   \   000001CC   8620A0E3           MOV      R2,#+134
   \   000001D0   7810A0E3           MOV      R1,#+120
   \   000001D4   C01041E0           SUB      R1,R1,R0, ASR #+1
   \   000001D8   0400A0E1           MOV      R0,R4
   \   000001DC   4C0100EF           SWI      +332
   \   000001E0   14D08DE2           ADD      SP,SP,#+20
    760          #else
    761              wsprintf(ws, "No Tasks");
    762              DrawString(ws,66-(Get_WS_width(ws,font)/2),84,66+(Get_WS_width(ws,font)/2)+3,84+GetFontYSIZE(font)+2,font,0,ctasks,GetPaletteAdrByColorIndex(23));        
    763          #endif
    764            }
    765            else
    766            while((nl)&&(show<=5))
    767            {
    768              NAMELIST *p=nl;
    769              if(!skip) 
    770              {
    771          #ifdef ELKA
    772                if(Get_WS_width(nl->name,9)<140)
    773                  {
    774                    if(pos!=show)
    775                    {
    776                    if(nl->is_daemon) DrawString(nl->name,37,i+1,178,i+GetFontYSIZE(8),8,0,cdaemons,GetPaletteAdrByColorIndex(23));
    777                    else
    778                  DrawString(nl->name,37,i+1,178,i+GetFontYSIZE(8),8,0,ctasks,GetPaletteAdrByColorIndex(23));
    779                    }
    780                    else
    781                      {
    782                    if(nl->is_daemon) DrawString(nl->name,37,i+1,178,i+GetFontYSIZE(9),9,0,cdaemons,GetPaletteAdrByColorIndex(23));
    783                    else
    784                  DrawString(nl->name,37,i+1,178,i+GetFontYSIZE(9),9,0,ctasksi,GetPaletteAdrByColorIndex(23));
    785                    }
    786                  }
    787                  else
    788                  {
    789                    if(pos!=show)
    790                    {
    791                      if(nl->is_daemon) DrawScrollString(nl->name,37,i+1,178,i+GetFontYSIZE(8),1,8,TEXT_ALIGNLEFT,cdaemons,GetPaletteAdrByColorIndex(23)); else
    792                    DrawScrollString(nl->name,37,i+1,178,i+GetFontYSIZE(8),1,8,TEXT_ALIGNLEFT,ctasks,GetPaletteAdrByColorIndex(23));
    793                    }
    794                    else
    795                    {
    796                      if(nl->is_daemon) DrawScrollString(nl->name,37,i+1,178,i+GetFontYSIZE(9),sm+1,9,TEXT_ALIGNLEFT,cdaemons,GetPaletteAdrByColorIndex(23)); else
    797                      DrawScrollString(nl->name,37,i+1,178,i+GetFontYSIZE(9),sm+1,9,TEXT_ALIGNLEFT,ctasksi,GetPaletteAdrByColorIndex(23));
    798                      refresh=10;
    799                      if(forward==1) sm=sm+2;
    800                      if(forward==0) sm=sm-2;
    801                      if(forward==2)
    802                      {
    803                        if(halt) halt--;
    804                        else forward=3;
    805                      }
    806                      if ((sm>Get_WS_width(nl->name,9)-140)&&(forward==1)) {forward=2; halt=5;}
    807                      if (forward==3) {
    808                        if (sm==0) {forward=4; halt=5;}
    809                        else sm=sm-2;
    810                      }
    811                      if(forward==4)
    812                      {
    813                        if(halt) halt--;
    814                        else forward=1;
    815                      }
    816                    }
    817                  }
    818                  SearchIcon(nl->name, i, 0, NULL, NULL, NULL);
    819                show++;
    820                i=i+20;
    821          #else
    822                  if(Get_WS_width(nl->name,font)<85)
    823                  {
    824                    if(nl->is_daemon) DrawString(nl->name,17,i+1,115,i+GetFontYSIZE(font),font,0,cdaemons,GetPaletteAdrByColorIndex(23));
    825                    else
    826                  DrawString(nl->name,17,i+1,115,i+GetFontYSIZE(font),font,0,ctasks,GetPaletteAdrByColorIndex(23));
    827                  }
    828                  else
    829                  {
    830                    if(pos!=show)
    831                    {
    832                      if(nl->is_daemon) DrawScrollString(nl->name,17,i+1,100,i+GetFontYSIZE(font),1,font,TEXT_ALIGNLEFT,cdaemons,GetPaletteAdrByColorIndex(23)); else
    833                    DrawScrollString(nl->name,17,i+1,100,i+GetFontYSIZE(font),1,font,TEXT_ALIGNLEFT,ctasks,GetPaletteAdrByColorIndex(23));
    834                    }
    835                    else
    836                    {
    837                      if(nl->is_daemon) DrawScrollString(nl->name,17,i+1,100,i+GetFontYSIZE(font),sm+1,font,TEXT_ALIGNLEFT,cdaemons,GetPaletteAdrByColorIndex(23)); else
    838                      DrawScrollString(nl->name,17,i+1,100,i+GetFontYSIZE(font),sm+1,font,TEXT_ALIGNLEFT,ctasks,GetPaletteAdrByColorIndex(23));
    839                      refresh=10;
    840                      if(forward==1) sm=sm+2;
    841                      if(forward==0) sm=sm-2;
    842                      if(forward==2)
    843                      {
    844                        if(halt) halt--;
    845                        else forward=3;
    846                      }
    847                      if ((sm>Get_WS_width(nl->name,font)-85)&&(forward==1)) {forward=2; halt=5;}
    848                      if (forward==3) {
    849                        if (sm==0) {forward=4; halt=5;}
    850                        else sm=sm-2;
    851                      }
    852                      if(forward==4)
    853                      {
    854                        if(halt) halt--;
    855                        else forward=1;
    856                      }
    857                    }
    858                  }
    859                  SearchIcon(nl->name, i, 0, NULL, NULL, NULL);
    860                show++;
    861                i=i+12;
    862          #endif
    863              }
    864          
    865              else skip--;
    866              nl=p->next;
    867            }
    868            DrawSideProgresbar(total_d, total_pos);
   \                     ??OnRedraw_4:
   \   000001E4   78089FE5           LDR      R0,??OnRedraw_0+0x40  ;; total_pos
   \   000001E8   001090E5           LDR      R1,[R0, #+0]
   \   000001EC   5C089FE5           LDR      R0,??OnRedraw_0+0x2C  ;; total_d
   \   000001F0   000090E5           LDR      R0,[R0, #+0]
   \   000001F4   ........           BL       DrawSideProgresbar
    869            DrawCPU();
   \   000001F8   ........           BL       DrawCPU
    870            if(time_not)
   \   000001FC   64089FE5           LDR      R0,??OnRedraw_0+0x44  ;; time_not
   \   00000200   000090E5           LDR      R0,[R0, #+0]
   \   00000204   000050E3           CMP      R0,#+0
   \   00000208   2801000A           BEQ      ??OnRedraw_5
    871            {
    872          #ifdef ELKA
    873            wsprintf(ws, "%d", tasks);
   \   0000020C   40089FE5           LDR      R0,??OnRedraw_0+0x30  ;; tasks
   \   00000210   C71F8FE2           ADR      R1,??OnRedraw_6  ;; "%d"
   \   00000214   002090E5           LDR      R2,[R0, #+0]
   \   00000218   0400A0E1           MOV      R0,R4
   \   0000021C   240100EF           SWI      +292
    874            DrwImage(37, 203,task_img,0,0);
   \   00000220   0000A0E3           MOV      R0,#+0
   \   00000224   01002DE9           PUSH     {R0}
   \   00000228   3C089FE5           LDR      R0,??OnRedraw_0+0x48  ;; task_img
   \   0000022C   0030A0E3           MOV      R3,#+0
   \   00000230   002090E5           LDR      R2,[R0, #+0]
   \   00000234   CB10A0E3           MOV      R1,#+203
   \   00000238   2500A0E3           MOV      R0,#+37
   \   0000023C   ........           BL       DrwImage
    875            DrawString(ws,56,202,56+Get_WS_width(ws,9)+3,202+GetFontYSIZE(9)+1,9,0,cinfo,GetPaletteAdrByColorIndex(23));
   \   00000240   1700A0E3           MOV      R0,#+23
   \   00000244   2E0100EF           SWI      +302
   \   00000248   0050A0E1           MOV      R5,R0
   \   0000024C   0900A0E3           MOV      R0,#+9
   \   00000250   C50100EF           SWI      +453
   \   00000254   0060A0E1           MOV      R6,R0
   \   00000258   0910A0E3           MOV      R1,#+9
   \   0000025C   0400A0E1           MOV      R0,R4
   \   00000260   080200EF           SWI      +520
   \   00000264   04189FE5           LDR      R1,??OnRedraw_0+0x4C  ;; cinfo
   \   00000268   20002DE9           PUSH     {R5}
   \   0000026C   02002DE9           PUSH     {R1}
   \   00000270   3B3080E2           ADD      R3,R0,#+59
   \   00000274   CA20A0E3           MOV      R2,#+202
   \   00000278   0400A0E1           MOV      R0,R4
   \   0000027C   0010A0E3           MOV      R1,#+0
   \   00000280   02002DE9           PUSH     {R1}
   \   00000284   0910A0E3           MOV      R1,#+9
   \   00000288   02002DE9           PUSH     {R1}
   \   0000028C   CB1086E2           ADD      R1,R6,#+203
   \   00000290   02002DE9           PUSH     {R1}
   \   00000294   3810A0E3           MOV      R1,#+56
   \   00000298   4C0100EF           SWI      +332
    876            int ram = GetFreeRamAvail();
   \   0000029C   5F0000EF           SWI      +95
    877            ram=ram/1024;
    878            wsprintf(ws,"%dKb", ram);
   \   000002A0   C014A0E1           ASR      R1,R0,#+9
   \   000002A4   210B80E0           ADD      R0,R0,R1, LSR #+22
   \   000002A8   C4179FE5           LDR      R1,??OnRedraw_0+0x50  ;; `?<Constant "%dKb">`
   \   000002AC   4025A0E1           ASR      R2,R0,#+10
   \   000002B0   0400A0E1           MOV      R0,R4
   \   000002B4   240100EF           SWI      +292
    879            DrawString(ws,204-Get_WS_width(ws,9),202,207,202+GetFontYSIZE(9)+1,9,0,cinfo,GetPaletteAdrByColorIndex(23));
   \   000002B8   1700A0E3           MOV      R0,#+23
   \   000002BC   2E0100EF           SWI      +302
   \   000002C0   0050A0E1           MOV      R5,R0
   \   000002C4   0900A0E3           MOV      R0,#+9
   \   000002C8   C50100EF           SWI      +453
   \   000002CC   0060A0E1           MOV      R6,R0
   \   000002D0   0910A0E3           MOV      R1,#+9
   \   000002D4   0400A0E1           MOV      R0,R4
   \   000002D8   080200EF           SWI      +520
   \   000002DC   8C179FE5           LDR      R1,??OnRedraw_0+0x4C  ;; cinfo
   \   000002E0   20002DE9           PUSH     {R5}
   \   000002E4   02002DE9           PUSH     {R1}
   \   000002E8   CF30A0E3           MOV      R3,#+207
   \   000002EC   CA20A0E3           MOV      R2,#+202
   \   000002F0   0010A0E3           MOV      R1,#+0
   \   000002F4   02002DE9           PUSH     {R1}
   \   000002F8   0910A0E3           MOV      R1,#+9
   \   000002FC   02002DE9           PUSH     {R1}
   \   00000300   CB1086E2           ADD      R1,R6,#+203
   \   00000304   02002DE9           PUSH     {R1}
   \   00000308   CC1060E2           RSB      R1,R0,#+204
   \   0000030C   0400A0E1           MOV      R0,R4
   \   00000310   4C0100EF           SWI      +332
   \   00000314   2CD08DE2           ADD      SP,SP,#+44
    880            DrwImage(185-Get_WS_width(ws,9), 203, ram_img,0,0);
   \   00000318   0910A0E3           MOV      R1,#+9
   \   0000031C   0400A0E1           MOV      R0,R4
   \   00000320   080200EF           SWI      +520
   \   00000324   0010A0E3           MOV      R1,#+0
   \   00000328   02002DE9           PUSH     {R1}
   \   0000032C   0130A0E1           MOV      R3,R1
   \   00000330   40179FE5           LDR      R1,??OnRedraw_0+0x54  ;; ram_img
   \   00000334   7B0800EA           B        ??OnRedraw_7
    881          #else
    882            wsprintf(ws, "%d", tasks);
    883            DrwImage(16, 124, task_img,0,0);
    884            DrawString(ws,29,124,29+Get_WS_width(ws,font)+3,124+GetFontYSIZE(font)+1,font,0,cinfo,GetPaletteAdrByColorIndex(23));
    885            int ram = GetFreeRamAvail();
    886            ram=ram/1024;
    887            wsprintf(ws,"%dKb", ram);
    888            DrawString(ws,115-Get_WS_width(ws,font),124,115+3,124+GetFontYSIZE(font)+1,font,0,cinfo,GetPaletteAdrByColorIndex(23));
    889            DrwImage(115-Get_WS_width(ws,font)-13, 124,ram_img,0,0);
    890          #endif
    891            }
   \                     ??OnRedraw_8:
   \   00000338   011040E2           SUB      R1,R0,#+1
   \   0000033C   08108DE5           STR      R1,[SP, #+8]
   \                     ??OnRedraw_9:
   \   00000340   008098E5           LDR      R8,[R8, #+0]
   \                     ??OnRedraw_3:
   \   00000344   000058E3           CMP      R8,#+0
   \   00000348   A5FFFF0A           BEQ      ??OnRedraw_4
   \   0000034C   060056E3           CMP      R6,#+6
   \   00000350   A3FFFFAA           BGE      ??OnRedraw_4
   \   00000354   08009DE5           LDR      R0,[SP, #+8]
   \   00000358   000050E3           CMP      R0,#+0
   \   0000035C   F5FFFF1A           BNE      ??OnRedraw_8
   \   00000360   080098E5           LDR      R0,[R8, #+8]
   \   00000364   10A79FE5           LDR      R10,??OnRedraw_0+0x58  ;; cdaemons
   \   00000368   0910A0E3           MOV      R1,#+9
   \   0000036C   080200EF           SWI      +520
   \   00000370   E0169FE5           LDR      R1,??OnRedraw_0+0x34  ;; pos
   \   00000374   019087E2           ADD      R9,R7,#+1
   \   00000378   001091E5           LDR      R1,[R1, #+0]
   \   0000037C   8C0050E3           CMP      R0,#+140
   \   00000380   100098E5           LDR      R0,[R8, #+16]
   \   00000384   3C0000AA           BGE      ??OnRedraw_10
   \   00000388   060051E1           CMP      R1,R6
   \   0000038C   1D00000A           BEQ      ??OnRedraw_11
   \   00000390   000050E3           CMP      R0,#+0
   \   00000394   1700A0E3           MOV      R0,#+23
   \   00000398   1200000A           BEQ      ??OnRedraw_12
   \   0000039C   2E0100EF           SWI      +302
   \   000003A0   00B0A0E1           MOV      R11,R0
   \   000003A4   0800A0E3           MOV      R0,#+8
   \   000003A8   C50100EF           SWI      +453
   \   000003AC   00082DE9           PUSH     {R11}
   \   000003B0   00042DE9           PUSH     {R10}
   \                     ??OnRedraw_13:
   \   000003B4   0010A0E3           MOV      R1,#+0
   \   000003B8   02002DE9           PUSH     {R1}
   \   000003BC   0810A0E3           MOV      R1,#+8
   \                     ??OnRedraw_14:
   \   000003C0   02002DE9           PUSH     {R1}
   \   000003C4   070080E0           ADD      R0,R0,R7
   \   000003C8   01002DE9           PUSH     {R0}
   \   000003CC   B230A0E3           MOV      R3,#+178
   \   000003D0   0920A0E1           MOV      R2,R9
   \                     ??OnRedraw_15:
   \   000003D4   080098E5           LDR      R0,[R8, #+8]
   \   000003D8   2510A0E3           MOV      R1,#+37
   \   000003DC   4C0100EF           SWI      +332
   \   000003E0   14D08DE2           ADD      SP,SP,#+20
   \   000003E4   A50000EA           B        ??OnRedraw_16
   \                     ??OnRedraw_12:
   \   000003E8   2E0100EF           SWI      +302
   \   000003EC   00A0A0E1           MOV      R10,R0
   \   000003F0   0800A0E3           MOV      R0,#+8
   \   000003F4   C50100EF           SWI      +453
   \   000003F8   00042DE9           PUSH     {R10}
   \   000003FC   0510A0E1           MOV      R1,R5
   \   00000400   02002DE9           PUSH     {R1}
   \   00000404   EAFFFFEA           B        ??OnRedraw_13
   \                     ??OnRedraw_11:
   \   00000408   000050E3           CMP      R0,#+0
   \   0000040C   1700A0E3           MOV      R0,#+23
   \   00000410   0E00000A           BEQ      ??OnRedraw_17
   \   00000414   2E0100EF           SWI      +302
   \   00000418   00B0A0E1           MOV      R11,R0
   \   0000041C   0900A0E3           MOV      R0,#+9
   \   00000420   C50100EF           SWI      +453
   \   00000424   00082DE9           PUSH     {R11}
   \   00000428   00042DE9           PUSH     {R10}
   \   0000042C   0010A0E3           MOV      R1,#+0
   \   00000430   02002DE9           PUSH     {R1}
   \   00000434   070080E0           ADD      R0,R0,R7
   \   00000438   B230A0E3           MOV      R3,#+178
   \   0000043C   0920A0E1           MOV      R2,R9
   \   00000440   0910A0E3           MOV      R1,#+9
   \   00000444   02002DE9           PUSH     {R1}
   \   00000448   01002DE9           PUSH     {R0}
   \   0000044C   E0FFFFEA           B        ??OnRedraw_15
   \                     ??OnRedraw_17:
   \   00000450   2E0100EF           SWI      +302
   \   00000454   00A0A0E1           MOV      R10,R0
   \   00000458   0900A0E3           MOV      R0,#+9
   \   0000045C   C50100EF           SWI      +453
   \   00000460   18169FE5           LDR      R1,??OnRedraw_0+0x5C  ;; ctasksi
   \   00000464   00042DE9           PUSH     {R10}
   \   00000468   02002DE9           PUSH     {R1}
   \   0000046C   0010A0E3           MOV      R1,#+0
   \   00000470   02002DE9           PUSH     {R1}
   \   00000474   0910A0E3           MOV      R1,#+9
   \   00000478   D0FFFFEA           B        ??OnRedraw_14
   \                     ??OnRedraw_10:
   \   0000047C   060051E1           CMP      R1,R6
   \   00000480   1F00000A           BEQ      ??OnRedraw_18
   \   00000484   000050E3           CMP      R0,#+0
   \   00000488   1700A0E3           MOV      R0,#+23
   \   0000048C   1400000A           BEQ      ??OnRedraw_19
   \   00000490   2E0100EF           SWI      +302
   \   00000494   00B0A0E1           MOV      R11,R0
   \   00000498   0800A0E3           MOV      R0,#+8
   \   0000049C   C50100EF           SWI      +453
   \   000004A0   00082DE9           PUSH     {R11}
   \   000004A4   00042DE9           PUSH     {R10}
   \                     ??OnRedraw_20:
   \   000004A8   0110A0E3           MOV      R1,#+1
   \   000004AC   02002DE9           PUSH     {R1}
   \   000004B0   070080E0           ADD      R0,R0,R7
   \   000004B4   B230A0E3           MOV      R3,#+178
   \   000004B8   0920A0E1           MOV      R2,R9
   \   000004BC   0810A0E3           MOV      R1,#+8
   \   000004C0   02002DE9           PUSH     {R1}
   \   000004C4   0110A0E3           MOV      R1,#+1
   \   000004C8   02002DE9           PUSH     {R1}
   \   000004CC   01002DE9           PUSH     {R0}
   \   000004D0   080098E5           LDR      R0,[R8, #+8]
   \   000004D4   2510A0E3           MOV      R1,#+37
   \   000004D8   070200EF           SWI      +519
   \   000004DC   18D08DE2           ADD      SP,SP,#+24
   \   000004E0   660000EA           B        ??OnRedraw_16
   \                     ??OnRedraw_19:
   \   000004E4   2E0100EF           SWI      +302
   \   000004E8   00A0A0E1           MOV      R10,R0
   \   000004EC   0800A0E3           MOV      R0,#+8
   \   000004F0   C50100EF           SWI      +453
   \   000004F4   00042DE9           PUSH     {R10}
   \   000004F8   0510A0E1           MOV      R1,R5
   \   000004FC   02002DE9           PUSH     {R1}
   \   00000500   E8FFFFEA           B        ??OnRedraw_20
   \                     ??OnRedraw_18:
   \   00000504   78B59FE5           LDR      R11,??OnRedraw_0+0x60  ;; sm
   \   00000508   000050E3           CMP      R0,#+0
   \   0000050C   1700A0E3           MOV      R0,#+23
   \   00000510   0800000A           BEQ      ??OnRedraw_21
   \   00000514   2E0100EF           SWI      +302
   \   00000518   14008DE5           STR      R0,[SP, #+20]
   \   0000051C   0900A0E3           MOV      R0,#+9
   \   00000520   C50100EF           SWI      +453
   \   00000524   14109DE5           LDR      R1,[SP, #+20]
   \   00000528   02002DE9           PUSH     {R1}
   \   0000052C   00042DE9           PUSH     {R10}
   \   00000530   070000EA           B        ??OnRedraw_22
   \                     ??OnRedraw_6:
   \   00000534   25640000           DC8      "%d",+0
   \                     ??OnRedraw_21:
   \   00000538   2E0100EF           SWI      +302
   \   0000053C   00A0A0E1           MOV      R10,R0
   \   00000540   0900A0E3           MOV      R0,#+9
   \   00000544   C50100EF           SWI      +453
   \   00000548   30159FE5           LDR      R1,??OnRedraw_0+0x5C  ;; ctasksi
   \   0000054C   00042DE9           PUSH     {R10}
   \   00000550   02002DE9           PUSH     {R1}
   \                     ??OnRedraw_22:
   \   00000554   0110A0E3           MOV      R1,#+1
   \   00000558   02002DE9           PUSH     {R1}
   \   0000055C   070080E0           ADD      R0,R0,R7
   \   00000560   B230A0E3           MOV      R3,#+178
   \   00000564   0920A0E1           MOV      R2,R9
   \   00000568   18959FE5           LDR      R9,??OnRedraw_0+0x64  ;; forward
   \   0000056C   0910A0E3           MOV      R1,#+9
   \   00000570   02002DE9           PUSH     {R1}
   \   00000574   00109BE5           LDR      R1,[R11, #+0]
   \   00000578   011081E2           ADD      R1,R1,#+1
   \   0000057C   02002DE9           PUSH     {R1}
   \   00000580   01002DE9           PUSH     {R0}
   \   00000584   080098E5           LDR      R0,[R8, #+8]
   \   00000588   2510A0E3           MOV      R1,#+37
   \   0000058C   070200EF           SWI      +519
   \   00000590   90049FE5           LDR      R0,??OnRedraw_0+0x4  ;; refresh
   \   00000594   18D08DE2           ADD      SP,SP,#+24
   \   00000598   0A10A0E3           MOV      R1,#+10
   \   0000059C   001080E5           STR      R1,[R0, #+0]
   \   000005A0   00009BE5           LDR      R0,[R11, #+0]
   \   000005A4   001099E5           LDR      R1,[R9, #+0]
   \   000005A8   010051E3           CMP      R1,#+1
   \   000005AC   02008002           ADDEQ    R0,R0,#+2
   \   000005B0   0100000A           BEQ      ??OnRedraw_23
   \   000005B4   000051E3           CMP      R1,#+0
   \   000005B8   02004002           SUBEQ    R0,R0,#+2
   \                     ??OnRedraw_23:
   \   000005BC   C8A49FE5           LDR      R10,??OnRedraw_0+0x68  ;; halt
   \   000005C0   00008BE5           STR      R0,[R11, #+0]
   \   000005C4   020051E3           CMP      R1,#+2
   \   000005C8   0500001A           BNE      ??OnRedraw_24
   \   000005CC   00009AE5           LDR      R0,[R10, #+0]
   \   000005D0   000050E3           CMP      R0,#+0
   \   000005D4   01004012           SUBNE    R0,R0,#+1
   \   000005D8   00008A15           STRNE    R0,[R10, #+0]
   \   000005DC   0300A003           MOVEQ    R0,#+3
   \   000005E0   00008905           STREQ    R0,[R9, #+0]
   \                     ??OnRedraw_24:
   \   000005E4   080098E5           LDR      R0,[R8, #+8]
   \   000005E8   0910A0E3           MOV      R1,#+9
   \   000005EC   080200EF           SWI      +520
   \   000005F0   00109BE5           LDR      R1,[R11, #+0]
   \   000005F4   0520A0E3           MOV      R2,#+5
   \   000005F8   8B30E0E3           MVN      R3,#+139
   \   000005FC   000083E0           ADD      R0,R3,R0
   \   00000600   010050E1           CMP      R0,R1
   \   00000604   060000AA           BGE      ??OnRedraw_25
   \   00000608   000099E5           LDR      R0,[R9, #+0]
   \   0000060C   010050E3           CMP      R0,#+1
   \   00000610   0300001A           BNE      ??OnRedraw_25
   \   00000614   0200A0E3           MOV      R0,#+2
   \   00000618   000089E5           STR      R0,[R9, #+0]
   \   0000061C   00208AE5           STR      R2,[R10, #+0]
   \   00000620   160000EA           B        ??OnRedraw_16
   \                     ??OnRedraw_25:
   \   00000624   000099E5           LDR      R0,[R9, #+0]
   \   00000628   030050E3           CMP      R0,#+3
   \   0000062C   0800001A           BNE      ??OnRedraw_26
   \   00000630   000051E3           CMP      R1,#+0
   \   00000634   0300001A           BNE      ??OnRedraw_27
   \   00000638   0400A0E3           MOV      R0,#+4
   \   0000063C   000089E5           STR      R0,[R9, #+0]
   \   00000640   00208AE5           STR      R2,[R10, #+0]
   \   00000644   070000EA           B        ??OnRedraw_28
   \                     ??OnRedraw_27:
   \   00000648   020041E2           SUB      R0,R1,#+2
   \   0000064C   00008BE5           STR      R0,[R11, #+0]
   \   00000650   0A0000EA           B        ??OnRedraw_16
   \                     ??OnRedraw_26:
   \   00000654   040050E3           CMP      R0,#+4
   \   00000658   0800001A           BNE      ??OnRedraw_16
   \   0000065C   00009AE5           LDR      R0,[R10, #+0]
   \   00000660   000050E3           CMP      R0,#+0
   \   00000664   0300000A           BEQ      ??OnRedraw_29
   \                     ??OnRedraw_28:
   \   00000668   00009AE5           LDR      R0,[R10, #+0]
   \   0000066C   010040E2           SUB      R0,R0,#+1
   \   00000670   00008AE5           STR      R0,[R10, #+0]
   \   00000674   010000EA           B        ??OnRedraw_16
   \                     ??OnRedraw_29:
   \   00000678   0100A0E3           MOV      R0,#+1
   \   0000067C   000089E5           STR      R0,[R9, #+0]
   \                     ??OnRedraw_16:
   \   00000680   0000A0E3           MOV      R0,#+0
   \   00000684   01002DE9           PUSH     {R0}
   \   00000688   01002DE9           PUSH     {R0}
   \   0000068C   0030A0E3           MOV      R3,#+0
   \   00000690   0020A0E1           MOV      R2,R0
   \   00000694   0710A0E1           MOV      R1,R7
   \   00000698   080098E5           LDR      R0,[R8, #+8]
   \   0000069C   016086E2           ADD      R6,R6,#+1
   \   000006A0   ........           BL       SearchIcon
   \   000006A4   147087E2           ADD      R7,R7,#+20
   \   000006A8   08D08DE2           ADD      SP,SP,#+8
   \   000006AC   23FFFFEA           B        ??OnRedraw_9
    892            else
    893              {
    894                int battery = *RamCap();
   \                     ??OnRedraw_5:
   \   000006B0   C88000EF           SWI      +32968
   \   000006B4   B020D0E1           LDRH     R2,[R0, #+0]
    895                wsprintf(ws,"%d%", battery);
   \   000006B8   D91F8FE2           ADR      R1,??OnRedraw_0  ;; "%d%"
   \   000006BC   0400A0E1           MOV      R0,R4
   \   000006C0   240100EF           SWI      +292
    896          #ifdef ELKA
    897                DrwImage(37, 203,batt_img,0,0);
   \   000006C4   0000A0E3           MOV      R0,#+0
   \   000006C8   01002DE9           PUSH     {R0}
   \   000006CC   BC039FE5           LDR      R0,??OnRedraw_0+0x6C  ;; batt_img
   \   000006D0   0030A0E3           MOV      R3,#+0
   \   000006D4   002090E5           LDR      R2,[R0, #+0]
   \   000006D8   CB10A0E3           MOV      R1,#+203
   \   000006DC   2500A0E3           MOV      R0,#+37
   \   000006E0   ........           BL       DrwImage
    898                DrawString(ws,56,202,56+Get_WS_width(ws,9)+3,202+GetFontYSIZE(9)+1,9,0,cinfo,GetPaletteAdrByColorIndex(23));
   \   000006E4   1700A0E3           MOV      R0,#+23
   \   000006E8   2E0100EF           SWI      +302
   \   000006EC   0050A0E1           MOV      R5,R0
   \   000006F0   0900A0E3           MOV      R0,#+9
   \   000006F4   C50100EF           SWI      +453
   \   000006F8   0060A0E1           MOV      R6,R0
   \   000006FC   0910A0E3           MOV      R1,#+9
   \   00000700   0400A0E1           MOV      R0,R4
   \   00000704   080200EF           SWI      +520
   \   00000708   60139FE5           LDR      R1,??OnRedraw_0+0x4C  ;; cinfo
   \   0000070C   20002DE9           PUSH     {R5}
   \   00000710   02002DE9           PUSH     {R1}
   \   00000714   3B3080E2           ADD      R3,R0,#+59
   \   00000718   CA20A0E3           MOV      R2,#+202
   \   0000071C   0400A0E1           MOV      R0,R4
   \   00000720   0010A0E3           MOV      R1,#+0
   \   00000724   02002DE9           PUSH     {R1}
   \   00000728   0910A0E3           MOV      R1,#+9
   \   0000072C   02002DE9           PUSH     {R1}
   \   00000730   CB1086E2           ADD      R1,R6,#+203
   \   00000734   02002DE9           PUSH     {R1}
   \   00000738   3810A0E3           MOV      R1,#+56
   \   0000073C   4C0100EF           SWI      +332
    899          #else
    900                DrwImage(16, 124,batt_img,0,0);
    901                DrawString(ws,29,124,29+Get_WS_width(ws,font)+3,124+GetFontYSIZE(font)+1,font,0,cinfo,GetPaletteAdrByColorIndex(23));
    902          #endif
    903                TTime time;
    904                TDate date;
    905                GetDateTime(&date, &time);
   \   00000740   18108DE2           ADD      R1,SP,#+24
   \   00000744   24008DE2           ADD      R0,SP,#+36
   \   00000748   B40000EF           SWI      +180
    906                wsprintf(ws, "%02d:%02d:%02d", time.hour, time.min, time.sec);
   \   0000074C   1A00DDE5           LDRB     R0,[SP, #+26]
   \   00000750   3C139FE5           LDR      R1,??OnRedraw_0+0x70  ;; `?<Constant "%02d:%02d:%02d">`
   \   00000754   01002DE9           PUSH     {R0}
   \   00000758   1D30DDE5           LDRB     R3,[SP, #+29]
   \   0000075C   1C20DDE5           LDRB     R2,[SP, #+28]
   \   00000760   0400A0E1           MOV      R0,R4
   \   00000764   240100EF           SWI      +292
    907          #ifdef ELKA
    908                DrawString(ws,204-Get_WS_width(ws,9),202,207,202+GetFontYSIZE(9)+1,9,0,cinfo,GetPaletteAdrByColorIndex(23));
   \   00000768   1700A0E3           MOV      R0,#+23
   \   0000076C   2E0100EF           SWI      +302
   \   00000770   0050A0E1           MOV      R5,R0
   \   00000774   0900A0E3           MOV      R0,#+9
   \   00000778   C50100EF           SWI      +453
   \   0000077C   0060A0E1           MOV      R6,R0
   \   00000780   0910A0E3           MOV      R1,#+9
   \   00000784   0400A0E1           MOV      R0,R4
   \   00000788   080200EF           SWI      +520
   \   0000078C   DC129FE5           LDR      R1,??OnRedraw_0+0x4C  ;; cinfo
   \   00000790   20002DE9           PUSH     {R5}
   \   00000794   02002DE9           PUSH     {R1}
   \   00000798   CF30A0E3           MOV      R3,#+207
   \   0000079C   CA20A0E3           MOV      R2,#+202
   \   000007A0   0010A0E3           MOV      R1,#+0
   \   000007A4   02002DE9           PUSH     {R1}
   \   000007A8   0910A0E3           MOV      R1,#+9
   \   000007AC   02002DE9           PUSH     {R1}
   \   000007B0   CB1086E2           ADD      R1,R6,#+203
   \   000007B4   02002DE9           PUSH     {R1}
   \   000007B8   CC1060E2           RSB      R1,R0,#+204
   \   000007BC   0400A0E1           MOV      R0,R4
   \   000007C0   4C0100EF           SWI      +332
   \   000007C4   30D08DE2           ADD      SP,SP,#+48
    909                DrwImage(185-Get_WS_width(ws,9), 203, clock_img,0,0);
   \   000007C8   0910A0E3           MOV      R1,#+9
   \   000007CC   0400A0E1           MOV      R0,R4
   \   000007D0   080200EF           SWI      +520
   \   000007D4   0010A0E3           MOV      R1,#+0
   \   000007D8   02002DE9           PUSH     {R1}
   \   000007DC   0130A0E1           MOV      R3,R1
   \   000007E0   B0129FE5           LDR      R1,??OnRedraw_0+0x74  ;; clock_img
   \                     ??OnRedraw_30:
   \   000007E4   4F0700EA           B        ??OnRedraw_7
    910          #else
    911                DrawString(ws,115-Get_WS_width(ws,font),124,115+3,124+GetFontYSIZE(font)+1,font,0,cinfo,GetPaletteAdrByColorIndex(23));
    912                DrwImage(102-Get_WS_width(ws,font), 124,clock_img,0,0);
    913          #endif
    914              }
    915            FreeWS(ws);
    916            }
    917            else
    918              if(task_list==0)
   \                     ??OnRedraw_1:
   \   000007E8   000050E3           CMP      R0,#+0
   \   000007EC   8106001A           BNE      ??OnRedraw_31
    919            {//===============================do the links
    920              DrwImage(0, 0,&screen2, NULL, NULL);
   \   000007F0   01002DE9           PUSH     {R0}
   \   000007F4   0030A0E3           MOV      R3,#+0
   \   000007F8   0B20A0E1           MOV      R2,R11
   \   000007FC   0010A0E3           MOV      R1,#+0
   \   00000800   ........           BL       DrwImage
    921          #ifdef ELKA
    922              DrwImage(30, 50,background_img,0,0);  //12,37
   \   00000804   0000A0E3           MOV      R0,#+0
   \   00000808   01002DE9           PUSH     {R0}
   \   0000080C   00209AE5           LDR      R2,[R10, #+0]
   \   00000810   0030A0E1           MOV      R3,R0
   \   00000814   3210A0E3           MOV      R1,#+50
   \   00000818   1E00A0E3           MOV      R0,#+30
   \   0000081C   ........           BL       DrwImage
    923              DrwImage(35,74+(pos*20),cursor_img,0,0);
   \   00000820   0000A0E3           MOV      R0,#+0
   \   00000824   01002DE9           PUSH     {R0}
   \   00000828   002096E5           LDR      R2,[R6, #+0]
    924              DrwImage(178,63,selection_img,0,0);
    925              DrwImage(155,65,tasks_img,0,0);
    926              DrwImage(180,65,bookmarks_img,0,0);
    927          #else
    928              DrwImage(12, 26,background_img,0,0);  //12,37
    929              DrwImage(16,48+(pos*12),cursor_img,0,0);
    930              DrwImage(100,39,selection_img,0,0);
    931              DrwImage(83,40,tasks_img,0,0);
    932              DrwImage(101,40,bookmarks_img,0,0);
    933          #endif
    934              int show=0;
    935          #ifdef ELKA
    936              int i=94;
    937          #else
    938              int i=60;
    939          #endif
    940              int len;
    941              int skip=move_skip;
    942              WSHDR *ws=AllocWS(32);
    943          #ifdef ELKA
    944              if((!skip)&&(book_show>=1)&&(show<5))
   \   0000082C   68629FE5           LDR      R6,??OnRedraw_0+0x78  ;; book_show
   \   00000830   0030A0E1           MOV      R3,R0
   \   00000834   1C029FE5           LDR      R0,??OnRedraw_0+0x34  ;; pos
   \   00000838   1410A0E3           MOV      R1,#+20
   \   0000083C   000090E5           LDR      R0,[R0, #+0]
   \   00000840   910000E0           MUL      R0,R1,R0
   \   00000844   4A1080E2           ADD      R1,R0,#+74
   \   00000848   2300A0E3           MOV      R0,#+35
   \   0000084C   ........           BL       DrwImage
   \   00000850   0000A0E3           MOV      R0,#+0
   \   00000854   01002DE9           PUSH     {R0}
   \   00000858   002094E5           LDR      R2,[R4, #+0]
   \   0000085C   0030A0E1           MOV      R3,R0
   \   00000860   3F10A0E3           MOV      R1,#+63
   \   00000864   B200A0E3           MOV      R0,#+178
   \   00000868   ........           BL       DrwImage
   \   0000086C   0000A0E3           MOV      R0,#+0
   \   00000870   01002DE9           PUSH     {R0}
   \   00000874   002098E5           LDR      R2,[R8, #+0]
   \   00000878   0030A0E1           MOV      R3,R0
   \   0000087C   4110A0E3           MOV      R1,#+65
   \   00000880   9B00A0E3           MOV      R0,#+155
   \   00000884   ........           BL       DrwImage
   \   00000888   0000A0E3           MOV      R0,#+0
   \   0000088C   01002DE9           PUSH     {R0}
   \   00000890   002097E5           LDR      R2,[R7, #+0]
   \   00000894   0030A0E1           MOV      R3,R0
   \   00000898   4110A0E3           MOV      R1,#+65
   \   0000089C   B400A0E3           MOV      R0,#+180
   \   000008A0   ........           BL       DrwImage
   \   000008A4   009099E5           LDR      R9,[R9, #+0]
   \   000008A8   0070A0E3           MOV      R7,#+0
   \   000008AC   5E80A0E3           MOV      R8,#+94
   \   000008B0   2000A0E3           MOV      R0,#+32
   \   000008B4   250100EF           SWI      +293
   \   000008B8   0040A0E1           MOV      R4,R0
   \   000008BC   000059E3           CMP      R9,#+0
   \   000008C0   18D08DE2           ADD      SP,SP,#+24
   \   000008C4   2900001A           BNE      ??OnRedraw_32
   \   000008C8   000096E5           LDR      R0,[R6, #+0]
   \   000008CC   010050E3           CMP      R0,#+1
   \   000008D0   260000BA           BLT      ??OnRedraw_32
    945              {
    946                  wsprintf(ws, BM1NAME);
   \   000008D4   C4119FE5           LDR      R1,??OnRedraw_0+0x7C  ;; BM1NAME
   \   000008D8   0400A0E1           MOV      R0,R4
   \   000008DC   240100EF           SWI      +292
    947                  len=Get_WS_width(ws,9)/2;
   \   000008E0   0910A0E3           MOV      R1,#+9
   \   000008E4   0400A0E1           MOV      R0,R4
   \   000008E8   080200EF           SWI      +520
   \   000008EC   A00F80E0           ADD      R0,R0,R0, LSR #+31
   \   000008F0   C0A0A0E1           ASR      R10,R0,#+1
    948                  DrawString(ws,120-len,i+1,120+len+3,i+GetFontYSIZE(9)+2,9,0,ctasks,GetPaletteAdrByColorIndex(23));
   \   000008F4   1700A0E3           MOV      R0,#+23
   \   000008F8   2E0100EF           SWI      +302
   \   000008FC   0070A0E1           MOV      R7,R0
   \   00000900   0900A0E3           MOV      R0,#+9
   \   00000904   C50100EF           SWI      +453
   \   00000908   80002DE9           PUSH     {R7}
   \   0000090C   0510A0E1           MOV      R1,R5
   \   00000910   02002DE9           PUSH     {R1}
   \   00000914   600080E2           ADD      R0,R0,#+96
   \   00000918   7B308AE2           ADD      R3,R10,#+123
   \   0000091C   5F20A0E3           MOV      R2,#+95
   \   00000920   0010A0E3           MOV      R1,#+0
   \   00000924   02002DE9           PUSH     {R1}
    949                  SearchIcon(ws, i, 1, NULL, NULL, NULL);
    950                  show++;
   \   00000928   0170A0E3           MOV      R7,#+1
   \   0000092C   0910A0E3           MOV      R1,#+9
   \   00000930   02002DE9           PUSH     {R1}
   \   00000934   01002DE9           PUSH     {R0}
   \   00000938   78106AE2           RSB      R1,R10,#+120
   \   0000093C   0400A0E1           MOV      R0,R4
   \   00000940   4C0100EF           SWI      +332
   \   00000944   0000A0E3           MOV      R0,#+0
   \   00000948   01002DE9           PUSH     {R0}
   \   0000094C   01002DE9           PUSH     {R0}
   \   00000950   0030A0E3           MOV      R3,#+0
   \   00000954   0120A0E3           MOV      R2,#+1
   \   00000958   0810A0E1           MOV      R1,R8
   \   0000095C   0400A0E1           MOV      R0,R4
   \   00000960   ........           BL       SearchIcon
    951                  i=i+20;
   \   00000964   7280A0E3           MOV      R8,#+114
   \   00000968   1CD08DE2           ADD      SP,SP,#+28
   \   0000096C   010000EA           B        ??OnRedraw_33
    952              }
    953              else
    954                skip--;
   \                     ??OnRedraw_32:
   \   00000970   019059E2           SUBS     R9,R9,#+1
    955              if((!skip)&&(book_show>=2)&&(show<5))
   \   00000974   4B00001A           BNE      ??OnRedraw_34
   \                     ??OnRedraw_33:
   \   00000978   000096E5           LDR      R0,[R6, #+0]
   \   0000097C   020050E3           CMP      R0,#+2
   \   00000980   480000BA           BLT      ??OnRedraw_34
    956              {
    957                  wsprintf(ws, BM2NAME);
   \   00000984   18119FE5           LDR      R1,??OnRedraw_0+0x80  ;; BM2NAME
   \   00000988   0400A0E1           MOV      R0,R4
   \   0000098C   240100EF           SWI      +292
    958                //  DrawString(ws,17,i+1,115,i+GetFontYSIZE(11)+2,11,0,ctasks,GetPaletteAdrByColorIndex(23));
    959                  len=Get_WS_width(ws,9)/2;
   \   00000990   0910A0E3           MOV      R1,#+9
   \   00000994   0400A0E1           MOV      R0,R4
   \   00000998   080200EF           SWI      +520
   \   0000099C   A00F80E0           ADD      R0,R0,R0, LSR #+31
   \   000009A0   C0A0A0E1           ASR      R10,R0,#+1
    960                  DrawString(ws,120-len,i+1,120+len+3,i+GetFontYSIZE(9)+2,9,0,ctasks,GetPaletteAdrByColorIndex(23));
   \   000009A4   1700A0E3           MOV      R0,#+23
   \   000009A8   2E0100EF           SWI      +302
   \   000009AC   00B0A0E1           MOV      R11,R0
   \   000009B0   0900A0E3           MOV      R0,#+9
   \   000009B4   C50100EF           SWI      +453
   \   000009B8   00082DE9           PUSH     {R11}
   \   000009BC   0510A0E1           MOV      R1,R5
   \   000009C0   02002DE9           PUSH     {R1}
   \   000009C4   080080E0           ADD      R0,R0,R8
   \   000009C8   020080E2           ADD      R0,R0,#+2
   \   000009CC   7B308AE2           ADD      R3,R10,#+123
   \   000009D0   0010A0E3           MOV      R1,#+0
   \   000009D4   02002DE9           PUSH     {R1}
   \   000009D8   012088E2           ADD      R2,R8,#+1
    961                  SearchIcon(ws, i, 1, NULL, NULL, NULL);
    962                  show++;
   \   000009DC   017087E2           ADD      R7,R7,#+1
   \   000009E0   0910A0E3           MOV      R1,#+9
   \   000009E4   02002DE9           PUSH     {R1}
   \   000009E8   01002DE9           PUSH     {R0}
   \   000009EC   78106AE2           RSB      R1,R10,#+120
   \   000009F0   0400A0E1           MOV      R0,R4
   \   000009F4   4C0100EF           SWI      +332
   \   000009F8   0000A0E3           MOV      R0,#+0
   \   000009FC   01002DE9           PUSH     {R0}
   \   00000A00   01002DE9           PUSH     {R0}
   \   00000A04   0030A0E3           MOV      R3,#+0
   \   00000A08   0120A0E3           MOV      R2,#+1
   \   00000A0C   0810A0E1           MOV      R1,R8
   \   00000A10   0400A0E1           MOV      R0,R4
   \   00000A14   ........           BL       SearchIcon
    963                  i=i+20;
   \   00000A18   148088E2           ADD      R8,R8,#+20
   \   00000A1C   1CD08DE2           ADD      SP,SP,#+28
   \   00000A20   220000EA           B        ??OnRedraw_35
   \                     ??OnRedraw_0:
   \   00000A24   25642500           DC8      "%d%"
   \   00000A28   ........           DC32     refresh
   \   00000A2C   ........           DC32     ctasks
   \   00000A30   ........           DC32     move_skip
   \   00000A34   ........           DC32     selection_img
   \   00000A38   ........           DC32     cursor_img
   \   00000A3C   ........           DC32     bookmarks_img
   \   00000A40   ........           DC32     tasks_img
   \   00000A44   ........           DC32     background_img
   \   00000A48   ........           DC32     screen2
   \   00000A4C   ........           DC32     task_list
   \   00000A50   ........           DC32     total_d
   \   00000A54   ........           DC32     tasks
   \   00000A58   ........           DC32     pos
   \   00000A5C   ........           DC32     nltop
   \   00000A60   ........           DC32     `?<Constant "No Tasks">`
   \   00000A64   ........           DC32     total_pos
   \   00000A68   ........           DC32     time_not
   \   00000A6C   ........           DC32     task_img
   \   00000A70   ........           DC32     cinfo
   \   00000A74   ........           DC32     `?<Constant "%dKb">`
   \   00000A78   ........           DC32     ram_img
   \   00000A7C   ........           DC32     cdaemons
   \   00000A80   ........           DC32     ctasksi
   \   00000A84   ........           DC32     sm
   \   00000A88   ........           DC32     forward
   \   00000A8C   ........           DC32     halt
   \   00000A90   ........           DC32     batt_img
   \   00000A94   ........           DC32     `?<Constant "%02d:%02d:%02d">`
   \   00000A98   ........           DC32     clock_img
   \   00000A9C   ........           DC32     book_show
   \   00000AA0   ........           DC32     BM1NAME
   \   00000AA4   ........           DC32     BM2NAME
    964              }
    965              else
    966                skip--;
   \                     ??OnRedraw_34:
   \   00000AA8   019059E2           SUBS     R9,R9,#+1
    967              if((!skip)&&(book_show>=3)&&(show<5))
   \   00000AAC   2C00001A           BNE      ??OnRedraw_36
   \                     ??OnRedraw_35:
   \   00000AB0   000096E5           LDR      R0,[R6, #+0]
   \   00000AB4   030050E3           CMP      R0,#+3
   \   00000AB8   290000BA           BLT      ??OnRedraw_36
   \   00000ABC   050057E3           CMP      R7,#+5
   \   00000AC0   270000AA           BGE      ??OnRedraw_36
    968              {
    969                  wsprintf(ws, BM3NAME);
   \   00000AC4   481F9FE5           LDR      R1,??OnRedraw_37  ;; BM3NAME
   \   00000AC8   0400A0E1           MOV      R0,R4
   \   00000ACC   240100EF           SWI      +292
    970                //  DrawString(ws,17,i+1,115,i+GetFontYSIZE(11)+2,11,0,ctasks,GetPaletteAdrByColorIndex(23));
    971                  len=Get_WS_width(ws,9)/2;
   \   00000AD0   0910A0E3           MOV      R1,#+9
   \   00000AD4   0400A0E1           MOV      R0,R4
   \   00000AD8   080200EF           SWI      +520
   \   00000ADC   A00F80E0           ADD      R0,R0,R0, LSR #+31
   \   00000AE0   C0A0A0E1           ASR      R10,R0,#+1
    972                  DrawString(ws,120-len,i+1,120+len+3,i+GetFontYSIZE(9)+2,9,0,ctasks,GetPaletteAdrByColorIndex(23));
   \   00000AE4   1700A0E3           MOV      R0,#+23
   \   00000AE8   2E0100EF           SWI      +302
   \   00000AEC   00B0A0E1           MOV      R11,R0
   \   00000AF0   0900A0E3           MOV      R0,#+9
   \   00000AF4   C50100EF           SWI      +453
   \   00000AF8   00082DE9           PUSH     {R11}
   \   00000AFC   0510A0E1           MOV      R1,R5
   \   00000B00   02002DE9           PUSH     {R1}
   \   00000B04   080080E0           ADD      R0,R0,R8
   \   00000B08   020080E2           ADD      R0,R0,#+2
   \   00000B0C   7B308AE2           ADD      R3,R10,#+123
   \   00000B10   0010A0E3           MOV      R1,#+0
   \   00000B14   02002DE9           PUSH     {R1}
   \   00000B18   012088E2           ADD      R2,R8,#+1
    973                  SearchIcon(ws, i, 1, NULL, NULL, NULL);
    974                  show++;
   \   00000B1C   017087E2           ADD      R7,R7,#+1
   \   00000B20   0910A0E3           MOV      R1,#+9
   \   00000B24   02002DE9           PUSH     {R1}
   \   00000B28   01002DE9           PUSH     {R0}
   \   00000B2C   78106AE2           RSB      R1,R10,#+120
   \   00000B30   0400A0E1           MOV      R0,R4
   \   00000B34   4C0100EF           SWI      +332
   \   00000B38   0000A0E3           MOV      R0,#+0
   \   00000B3C   01002DE9           PUSH     {R0}
   \   00000B40   01002DE9           PUSH     {R0}
   \   00000B44   0030A0E3           MOV      R3,#+0
   \   00000B48   0120A0E3           MOV      R2,#+1
   \   00000B4C   0810A0E1           MOV      R1,R8
   \   00000B50   0400A0E1           MOV      R0,R4
   \   00000B54   ........           BL       SearchIcon
    975                  i=i+20;
   \   00000B58   148088E2           ADD      R8,R8,#+20
   \   00000B5C   1CD08DE2           ADD      SP,SP,#+28
   \   00000B60   010000EA           B        ??OnRedraw_38
    976              }
    977              else
    978                skip--;
   \                     ??OnRedraw_36:
   \   00000B64   019059E2           SUBS     R9,R9,#+1
    979              if((!skip)&&(book_show>=4)&&(show<5))
   \   00000B68   2C00001A           BNE      ??OnRedraw_39
   \                     ??OnRedraw_38:
   \   00000B6C   000096E5           LDR      R0,[R6, #+0]
   \   00000B70   040050E3           CMP      R0,#+4
   \   00000B74   290000BA           BLT      ??OnRedraw_39
   \   00000B78   050057E3           CMP      R7,#+5
   \   00000B7C   270000AA           BGE      ??OnRedraw_39
    980              {
    981                  wsprintf(ws, BM4NAME);
   \   00000B80   901E9FE5           LDR      R1,??OnRedraw_37+0x4  ;; BM4NAME
   \   00000B84   0400A0E1           MOV      R0,R4
   \   00000B88   240100EF           SWI      +292
    982                //  DrawString(ws,17,i+1,115,i+GetFontYSIZE(11)+2,11,0,ctasks,GetPaletteAdrByColorIndex(23));
    983                  len=Get_WS_width(ws,9)/2;
   \   00000B8C   0910A0E3           MOV      R1,#+9
   \   00000B90   0400A0E1           MOV      R0,R4
   \   00000B94   080200EF           SWI      +520
   \   00000B98   A00F80E0           ADD      R0,R0,R0, LSR #+31
   \   00000B9C   C0A0A0E1           ASR      R10,R0,#+1
    984                  DrawString(ws,120-len,i+1,120+len+3,i+GetFontYSIZE(9)+2,9,0,ctasks,GetPaletteAdrByColorIndex(23));
   \   00000BA0   1700A0E3           MOV      R0,#+23
   \   00000BA4   2E0100EF           SWI      +302
   \   00000BA8   00B0A0E1           MOV      R11,R0
   \   00000BAC   0900A0E3           MOV      R0,#+9
   \   00000BB0   C50100EF           SWI      +453
   \   00000BB4   00082DE9           PUSH     {R11}
   \   00000BB8   0510A0E1           MOV      R1,R5
   \   00000BBC   02002DE9           PUSH     {R1}
   \   00000BC0   080080E0           ADD      R0,R0,R8
   \   00000BC4   020080E2           ADD      R0,R0,#+2
   \   00000BC8   7B308AE2           ADD      R3,R10,#+123
   \   00000BCC   0010A0E3           MOV      R1,#+0
   \   00000BD0   02002DE9           PUSH     {R1}
   \   00000BD4   012088E2           ADD      R2,R8,#+1
    985                  SearchIcon(ws, i, 1, NULL, NULL, NULL);
    986                  show++;
   \   00000BD8   017087E2           ADD      R7,R7,#+1
   \   00000BDC   0910A0E3           MOV      R1,#+9
   \   00000BE0   02002DE9           PUSH     {R1}
   \   00000BE4   01002DE9           PUSH     {R0}
   \   00000BE8   78106AE2           RSB      R1,R10,#+120
   \   00000BEC   0400A0E1           MOV      R0,R4
   \   00000BF0   4C0100EF           SWI      +332
   \   00000BF4   0000A0E3           MOV      R0,#+0
   \   00000BF8   01002DE9           PUSH     {R0}
   \   00000BFC   01002DE9           PUSH     {R0}
   \   00000C00   0030A0E3           MOV      R3,#+0
   \   00000C04   0120A0E3           MOV      R2,#+1
   \   00000C08   0810A0E1           MOV      R1,R8
   \   00000C0C   0400A0E1           MOV      R0,R4
   \   00000C10   ........           BL       SearchIcon
    987                  i=i+20;
   \   00000C14   148088E2           ADD      R8,R8,#+20
   \   00000C18   1CD08DE2           ADD      SP,SP,#+28
   \   00000C1C   010000EA           B        ??OnRedraw_40
    988              }
    989              else
    990                skip--;
   \                     ??OnRedraw_39:
   \   00000C20   019059E2           SUBS     R9,R9,#+1
    991              if((!skip)&&(book_show>=5)&&(show<5))
   \   00000C24   2C00001A           BNE      ??OnRedraw_41
   \                     ??OnRedraw_40:
   \   00000C28   000096E5           LDR      R0,[R6, #+0]
   \   00000C2C   050050E3           CMP      R0,#+5
   \   00000C30   290000BA           BLT      ??OnRedraw_41
   \   00000C34   050057E3           CMP      R7,#+5
   \   00000C38   270000AA           BGE      ??OnRedraw_41
    992              {
    993                  wsprintf(ws, BM5NAME);
   \   00000C3C   D81D9FE5           LDR      R1,??OnRedraw_37+0x8  ;; BM5NAME
   \   00000C40   0400A0E1           MOV      R0,R4
   \   00000C44   240100EF           SWI      +292
    994                //  DrawString(ws,17,i+1,115,i+GetFontYSIZE(11)+2,11,0,ctasks,GetPaletteAdrByColorIndex(23));
    995                  len=Get_WS_width(ws,9)/2;
   \   00000C48   0910A0E3           MOV      R1,#+9
   \   00000C4C   0400A0E1           MOV      R0,R4
   \   00000C50   080200EF           SWI      +520
   \   00000C54   A00F80E0           ADD      R0,R0,R0, LSR #+31
   \   00000C58   C0A0A0E1           ASR      R10,R0,#+1
    996                  DrawString(ws,120-len,i+1,120+len+3,i+GetFontYSIZE(9)+2,9,0,ctasks,GetPaletteAdrByColorIndex(23));
   \   00000C5C   1700A0E3           MOV      R0,#+23
   \   00000C60   2E0100EF           SWI      +302
   \   00000C64   00B0A0E1           MOV      R11,R0
   \   00000C68   0900A0E3           MOV      R0,#+9
   \   00000C6C   C50100EF           SWI      +453
   \   00000C70   00082DE9           PUSH     {R11}
   \   00000C74   0510A0E1           MOV      R1,R5
   \   00000C78   02002DE9           PUSH     {R1}
   \   00000C7C   080080E0           ADD      R0,R0,R8
   \   00000C80   020080E2           ADD      R0,R0,#+2
   \   00000C84   7B308AE2           ADD      R3,R10,#+123
   \   00000C88   0010A0E3           MOV      R1,#+0
   \   00000C8C   02002DE9           PUSH     {R1}
   \   00000C90   012088E2           ADD      R2,R8,#+1
    997                  SearchIcon(ws, i, 1, NULL, NULL, NULL);
    998                  show++;
   \   00000C94   017087E2           ADD      R7,R7,#+1
   \   00000C98   0910A0E3           MOV      R1,#+9
   \   00000C9C   02002DE9           PUSH     {R1}
   \   00000CA0   01002DE9           PUSH     {R0}
   \   00000CA4   78106AE2           RSB      R1,R10,#+120
   \   00000CA8   0400A0E1           MOV      R0,R4
   \   00000CAC   4C0100EF           SWI      +332
   \   00000CB0   0000A0E3           MOV      R0,#+0
   \   00000CB4   01002DE9           PUSH     {R0}
   \   00000CB8   01002DE9           PUSH     {R0}
   \   00000CBC   0030A0E3           MOV      R3,#+0
   \   00000CC0   0120A0E3           MOV      R2,#+1
   \   00000CC4   0810A0E1           MOV      R1,R8
   \   00000CC8   0400A0E1           MOV      R0,R4
   \   00000CCC   ........           BL       SearchIcon
    999                  i=i+20;
   \   00000CD0   148088E2           ADD      R8,R8,#+20
   \   00000CD4   1CD08DE2           ADD      SP,SP,#+28
   \   00000CD8   010000EA           B        ??OnRedraw_42
   1000              }
   1001              else
   1002                skip--;
   \                     ??OnRedraw_41:
   \   00000CDC   019059E2           SUBS     R9,R9,#+1
   1003              if((!skip)&&(book_show>=6)&&(show<5))
   \   00000CE0   2C00001A           BNE      ??OnRedraw_43
   \                     ??OnRedraw_42:
   \   00000CE4   000096E5           LDR      R0,[R6, #+0]
   \   00000CE8   060050E3           CMP      R0,#+6
   \   00000CEC   290000BA           BLT      ??OnRedraw_43
   \   00000CF0   050057E3           CMP      R7,#+5
   \   00000CF4   270000AA           BGE      ??OnRedraw_43
   1004              {
   1005                  wsprintf(ws, BM6NAME);
   \   00000CF8   201D9FE5           LDR      R1,??OnRedraw_37+0xC  ;; BM6NAME
   \   00000CFC   0400A0E1           MOV      R0,R4
   \   00000D00   240100EF           SWI      +292
   1006                //  DrawString(ws,17,i+1,115,i+GetFontYSIZE(11)+2,11,0,ctasks,GetPaletteAdrByColorIndex(23));
   1007                  len=Get_WS_width(ws,9)/2;
   \   00000D04   0910A0E3           MOV      R1,#+9
   \   00000D08   0400A0E1           MOV      R0,R4
   \   00000D0C   080200EF           SWI      +520
   \   00000D10   A00F80E0           ADD      R0,R0,R0, LSR #+31
   \   00000D14   C0A0A0E1           ASR      R10,R0,#+1
   1008                  DrawString(ws,120-len,i+1,120+len+3,i+GetFontYSIZE(9)+2,9,0,ctasks,GetPaletteAdrByColorIndex(23));
   \   00000D18   1700A0E3           MOV      R0,#+23
   \   00000D1C   2E0100EF           SWI      +302
   \   00000D20   00B0A0E1           MOV      R11,R0
   \   00000D24   0900A0E3           MOV      R0,#+9
   \   00000D28   C50100EF           SWI      +453
   \   00000D2C   00082DE9           PUSH     {R11}
   \   00000D30   0510A0E1           MOV      R1,R5
   \   00000D34   02002DE9           PUSH     {R1}
   \   00000D38   080080E0           ADD      R0,R0,R8
   \   00000D3C   020080E2           ADD      R0,R0,#+2
   \   00000D40   7B308AE2           ADD      R3,R10,#+123
   \   00000D44   0010A0E3           MOV      R1,#+0
   \   00000D48   02002DE9           PUSH     {R1}
   \   00000D4C   012088E2           ADD      R2,R8,#+1
   1009                  SearchIcon(ws, i, 1, NULL, NULL, NULL);
   1010                  show++;
   \   00000D50   017087E2           ADD      R7,R7,#+1
   \   00000D54   0910A0E3           MOV      R1,#+9
   \   00000D58   02002DE9           PUSH     {R1}
   \   00000D5C   01002DE9           PUSH     {R0}
   \   00000D60   78106AE2           RSB      R1,R10,#+120
   \   00000D64   0400A0E1           MOV      R0,R4
   \   00000D68   4C0100EF           SWI      +332
   \   00000D6C   0000A0E3           MOV      R0,#+0
   \   00000D70   01002DE9           PUSH     {R0}
   \   00000D74   01002DE9           PUSH     {R0}
   \   00000D78   0030A0E3           MOV      R3,#+0
   \   00000D7C   0120A0E3           MOV      R2,#+1
   \   00000D80   0810A0E1           MOV      R1,R8
   \   00000D84   0400A0E1           MOV      R0,R4
   \   00000D88   ........           BL       SearchIcon
   1011                  i=i+20;
   \   00000D8C   148088E2           ADD      R8,R8,#+20
   \   00000D90   1CD08DE2           ADD      SP,SP,#+28
   \   00000D94   010000EA           B        ??OnRedraw_44
   1012              }
   1013              else
   1014                skip--;
   \                     ??OnRedraw_43:
   \   00000D98   019059E2           SUBS     R9,R9,#+1
   1015              if((!skip)&&(book_show>=7)&&(show<5))
   \   00000D9C   2C00001A           BNE      ??OnRedraw_45
   \                     ??OnRedraw_44:
   \   00000DA0   000096E5           LDR      R0,[R6, #+0]
   \   00000DA4   070050E3           CMP      R0,#+7
   \   00000DA8   290000BA           BLT      ??OnRedraw_45
   \   00000DAC   050057E3           CMP      R7,#+5
   \   00000DB0   270000AA           BGE      ??OnRedraw_45
   1016              {
   1017                  wsprintf(ws, BM7NAME);
   \   00000DB4   681C9FE5           LDR      R1,??OnRedraw_37+0x10  ;; BM7NAME
   \   00000DB8   0400A0E1           MOV      R0,R4
   \   00000DBC   240100EF           SWI      +292
   1018                //  DrawString(ws,17,i+1,115,i+GetFontYSIZE(11)+2,11,0,ctasks,GetPaletteAdrByColorIndex(23));
   1019                  len=Get_WS_width(ws,9)/2;
   \   00000DC0   0910A0E3           MOV      R1,#+9
   \   00000DC4   0400A0E1           MOV      R0,R4
   \   00000DC8   080200EF           SWI      +520
   \   00000DCC   A00F80E0           ADD      R0,R0,R0, LSR #+31
   \   00000DD0   C0A0A0E1           ASR      R10,R0,#+1
   1020                  DrawString(ws,120-len,i+1,120+len+3,i+GetFontYSIZE(9)+2,9,0,ctasks,GetPaletteAdrByColorIndex(23));
   \   00000DD4   1700A0E3           MOV      R0,#+23
   \   00000DD8   2E0100EF           SWI      +302
   \   00000DDC   00B0A0E1           MOV      R11,R0
   \   00000DE0   0900A0E3           MOV      R0,#+9
   \   00000DE4   C50100EF           SWI      +453
   \   00000DE8   00082DE9           PUSH     {R11}
   \   00000DEC   0510A0E1           MOV      R1,R5
   \   00000DF0   02002DE9           PUSH     {R1}
   \   00000DF4   080080E0           ADD      R0,R0,R8
   \   00000DF8   020080E2           ADD      R0,R0,#+2
   \   00000DFC   7B308AE2           ADD      R3,R10,#+123
   \   00000E00   0010A0E3           MOV      R1,#+0
   \   00000E04   02002DE9           PUSH     {R1}
   \   00000E08   012088E2           ADD      R2,R8,#+1
   1021                  SearchIcon(ws, i, 1, NULL, NULL, NULL);
   1022                  show++;
   \   00000E0C   017087E2           ADD      R7,R7,#+1
   \   00000E10   0910A0E3           MOV      R1,#+9
   \   00000E14   02002DE9           PUSH     {R1}
   \   00000E18   01002DE9           PUSH     {R0}
   \   00000E1C   78106AE2           RSB      R1,R10,#+120
   \   00000E20   0400A0E1           MOV      R0,R4
   \   00000E24   4C0100EF           SWI      +332
   \   00000E28   0000A0E3           MOV      R0,#+0
   \   00000E2C   01002DE9           PUSH     {R0}
   \   00000E30   01002DE9           PUSH     {R0}
   \   00000E34   0030A0E3           MOV      R3,#+0
   \   00000E38   0120A0E3           MOV      R2,#+1
   \   00000E3C   0810A0E1           MOV      R1,R8
   \   00000E40   0400A0E1           MOV      R0,R4
   \   00000E44   ........           BL       SearchIcon
   1023                  i=i+20;
   \   00000E48   148088E2           ADD      R8,R8,#+20
   \   00000E4C   1CD08DE2           ADD      SP,SP,#+28
   \   00000E50   010000EA           B        ??OnRedraw_46
   1024              }
   1025              else
   1026                skip--;
   \                     ??OnRedraw_45:
   \   00000E54   019059E2           SUBS     R9,R9,#+1
   1027              if((!skip)&&(book_show>=8)&&(show<5))
   \   00000E58   2C00001A           BNE      ??OnRedraw_47
   \                     ??OnRedraw_46:
   \   00000E5C   000096E5           LDR      R0,[R6, #+0]
   \   00000E60   080050E3           CMP      R0,#+8
   \   00000E64   290000BA           BLT      ??OnRedraw_47
   \   00000E68   050057E3           CMP      R7,#+5
   \   00000E6C   270000AA           BGE      ??OnRedraw_47
   1028              {
   1029                  wsprintf(ws, BM8NAME);
   \   00000E70   B01B9FE5           LDR      R1,??OnRedraw_37+0x14  ;; BM8NAME
   \   00000E74   0400A0E1           MOV      R0,R4
   \   00000E78   240100EF           SWI      +292
   1030                //  DrawString(ws,17,i+1,115,i+GetFontYSIZE(11)+2,11,0,ctasks,GetPaletteAdrByColorIndex(23));
   1031                  len=Get_WS_width(ws,9)/2;
   \   00000E7C   0910A0E3           MOV      R1,#+9
   \   00000E80   0400A0E1           MOV      R0,R4
   \   00000E84   080200EF           SWI      +520
   \   00000E88   A00F80E0           ADD      R0,R0,R0, LSR #+31
   \   00000E8C   C0A0A0E1           ASR      R10,R0,#+1
   1032                  DrawString(ws,120-len,i+1,120+len+3,i+GetFontYSIZE(9)+2,9,0,ctasks,GetPaletteAdrByColorIndex(23));
   \   00000E90   1700A0E3           MOV      R0,#+23
   \   00000E94   2E0100EF           SWI      +302
   \   00000E98   00B0A0E1           MOV      R11,R0
   \   00000E9C   0900A0E3           MOV      R0,#+9
   \   00000EA0   C50100EF           SWI      +453
   \   00000EA4   00082DE9           PUSH     {R11}
   \   00000EA8   0510A0E1           MOV      R1,R5
   \   00000EAC   02002DE9           PUSH     {R1}
   \   00000EB0   080080E0           ADD      R0,R0,R8
   \   00000EB4   020080E2           ADD      R0,R0,#+2
   \   00000EB8   7B308AE2           ADD      R3,R10,#+123
   \   00000EBC   0010A0E3           MOV      R1,#+0
   \   00000EC0   02002DE9           PUSH     {R1}
   \   00000EC4   012088E2           ADD      R2,R8,#+1
   1033                  SearchIcon(ws, i, 1, NULL, NULL, NULL);
   1034                  show++;
   \   00000EC8   017087E2           ADD      R7,R7,#+1
   \   00000ECC   0910A0E3           MOV      R1,#+9
   \   00000ED0   02002DE9           PUSH     {R1}
   \   00000ED4   01002DE9           PUSH     {R0}
   \   00000ED8   78106AE2           RSB      R1,R10,#+120
   \   00000EDC   0400A0E1           MOV      R0,R4
   \   00000EE0   4C0100EF           SWI      +332
   \   00000EE4   0000A0E3           MOV      R0,#+0
   \   00000EE8   01002DE9           PUSH     {R0}
   \   00000EEC   01002DE9           PUSH     {R0}
   \   00000EF0   0030A0E3           MOV      R3,#+0
   \   00000EF4   0120A0E3           MOV      R2,#+1
   \   00000EF8   0810A0E1           MOV      R1,R8
   \   00000EFC   0400A0E1           MOV      R0,R4
   \   00000F00   ........           BL       SearchIcon
   1035                  i=i+20;
   \   00000F04   148088E2           ADD      R8,R8,#+20
   \   00000F08   1CD08DE2           ADD      SP,SP,#+28
   \   00000F0C   010000EA           B        ??OnRedraw_48
   1036              }
   1037              else
   1038                skip--;
   \                     ??OnRedraw_47:
   \   00000F10   019059E2           SUBS     R9,R9,#+1
   1039              if((!skip)&&(book_show>=9)&&(show<5))
   \   00000F14   2C00001A           BNE      ??OnRedraw_49
   \                     ??OnRedraw_48:
   \   00000F18   000096E5           LDR      R0,[R6, #+0]
   \   00000F1C   090050E3           CMP      R0,#+9
   \   00000F20   290000BA           BLT      ??OnRedraw_49
   \   00000F24   050057E3           CMP      R7,#+5
   \   00000F28   270000AA           BGE      ??OnRedraw_49
   1040              {
   1041                  wsprintf(ws, BM9NAME);
   \   00000F2C   F81A9FE5           LDR      R1,??OnRedraw_37+0x18  ;; BM9NAME
   \   00000F30   0400A0E1           MOV      R0,R4
   \   00000F34   240100EF           SWI      +292
   1042                //  DrawString(ws,17,i+1,115,i+GetFontYSIZE(11)+2,11,0,ctasks,GetPaletteAdrByColorIndex(23));
   1043                  len=Get_WS_width(ws,9)/2;
   \   00000F38   0910A0E3           MOV      R1,#+9
   \   00000F3C   0400A0E1           MOV      R0,R4
   \   00000F40   080200EF           SWI      +520
   \   00000F44   A00F80E0           ADD      R0,R0,R0, LSR #+31
   \   00000F48   C0A0A0E1           ASR      R10,R0,#+1
   1044                  DrawString(ws,120-len,i+1,120+len+3,i+GetFontYSIZE(9)+2,9,0,ctasks,GetPaletteAdrByColorIndex(23));
   \   00000F4C   1700A0E3           MOV      R0,#+23
   \   00000F50   2E0100EF           SWI      +302
   \   00000F54   00B0A0E1           MOV      R11,R0
   \   00000F58   0900A0E3           MOV      R0,#+9
   \   00000F5C   C50100EF           SWI      +453
   \   00000F60   00082DE9           PUSH     {R11}
   \   00000F64   0510A0E1           MOV      R1,R5
   \   00000F68   02002DE9           PUSH     {R1}
   \   00000F6C   080080E0           ADD      R0,R0,R8
   \   00000F70   020080E2           ADD      R0,R0,#+2
   \   00000F74   7B308AE2           ADD      R3,R10,#+123
   \   00000F78   0010A0E3           MOV      R1,#+0
   \   00000F7C   02002DE9           PUSH     {R1}
   \   00000F80   012088E2           ADD      R2,R8,#+1
   1045                  SearchIcon(ws, i, 1, NULL, NULL, NULL);
   1046                  show++;
   \   00000F84   017087E2           ADD      R7,R7,#+1
   \   00000F88   0910A0E3           MOV      R1,#+9
   \   00000F8C   02002DE9           PUSH     {R1}
   \   00000F90   01002DE9           PUSH     {R0}
   \   00000F94   78106AE2           RSB      R1,R10,#+120
   \   00000F98   0400A0E1           MOV      R0,R4
   \   00000F9C   4C0100EF           SWI      +332
   \   00000FA0   0000A0E3           MOV      R0,#+0
   \   00000FA4   01002DE9           PUSH     {R0}
   \   00000FA8   01002DE9           PUSH     {R0}
   \   00000FAC   0030A0E3           MOV      R3,#+0
   \   00000FB0   0120A0E3           MOV      R2,#+1
   \   00000FB4   0810A0E1           MOV      R1,R8
   \   00000FB8   0400A0E1           MOV      R0,R4
   \   00000FBC   ........           BL       SearchIcon
   1047                  i=i+20;
   \   00000FC0   148088E2           ADD      R8,R8,#+20
   \   00000FC4   1CD08DE2           ADD      SP,SP,#+28
   \   00000FC8   010000EA           B        ??OnRedraw_50
   1048              }
   1049              else
   1050                skip--;
   \                     ??OnRedraw_49:
   \   00000FCC   019059E2           SUBS     R9,R9,#+1
   1051              if((!skip)&&(book_show>=10)&&(show<5))
   \   00000FD0   2C00001A           BNE      ??OnRedraw_51
   \                     ??OnRedraw_50:
   \   00000FD4   000096E5           LDR      R0,[R6, #+0]
   \   00000FD8   0A0050E3           CMP      R0,#+10
   \   00000FDC   290000BA           BLT      ??OnRedraw_51
   \   00000FE0   050057E3           CMP      R7,#+5
   \   00000FE4   270000AA           BGE      ??OnRedraw_51
   1052              {
   1053                  wsprintf(ws, BM0NAME);
   \   00000FE8   401A9FE5           LDR      R1,??OnRedraw_37+0x1C  ;; BM0NAME
   \   00000FEC   0400A0E1           MOV      R0,R4
   \   00000FF0   240100EF           SWI      +292
   1054                //  DrawString(ws,17,i+1,115,i+GetFontYSIZE(11)+2,11,0,ctasks,GetPaletteAdrByColorIndex(23));
   1055                  len=Get_WS_width(ws,9)/2;
   \   00000FF4   0910A0E3           MOV      R1,#+9
   \   00000FF8   0400A0E1           MOV      R0,R4
   \   00000FFC   080200EF           SWI      +520
   \   00001000   A00F80E0           ADD      R0,R0,R0, LSR #+31
   \   00001004   C0A0A0E1           ASR      R10,R0,#+1
   1056                  DrawString(ws,120-len,i+1,120+len+3,i+GetFontYSIZE(9)+2,9,0,ctasks,GetPaletteAdrByColorIndex(23));
   \   00001008   1700A0E3           MOV      R0,#+23
   \   0000100C   2E0100EF           SWI      +302
   \   00001010   00B0A0E1           MOV      R11,R0
   \   00001014   0900A0E3           MOV      R0,#+9
   \   00001018   C50100EF           SWI      +453
   \   0000101C   00082DE9           PUSH     {R11}
   \   00001020   0510A0E1           MOV      R1,R5
   \   00001024   02002DE9           PUSH     {R1}
   \   00001028   080080E0           ADD      R0,R0,R8
   \   0000102C   020080E2           ADD      R0,R0,#+2
   \   00001030   7B308AE2           ADD      R3,R10,#+123
   \   00001034   0010A0E3           MOV      R1,#+0
   \   00001038   02002DE9           PUSH     {R1}
   \   0000103C   012088E2           ADD      R2,R8,#+1
   1057                  SearchIcon(ws, i, 1, NULL, NULL, NULL);
   1058                  show++;
   \   00001040   017087E2           ADD      R7,R7,#+1
   \   00001044   0910A0E3           MOV      R1,#+9
   \   00001048   02002DE9           PUSH     {R1}
   \   0000104C   01002DE9           PUSH     {R0}
   \   00001050   78106AE2           RSB      R1,R10,#+120
   \   00001054   0400A0E1           MOV      R0,R4
   \   00001058   4C0100EF           SWI      +332
   \   0000105C   0000A0E3           MOV      R0,#+0
   \   00001060   01002DE9           PUSH     {R0}
   \   00001064   01002DE9           PUSH     {R0}
   \   00001068   0030A0E3           MOV      R3,#+0
   \   0000106C   0120A0E3           MOV      R2,#+1
   \   00001070   0810A0E1           MOV      R1,R8
   \   00001074   0400A0E1           MOV      R0,R4
   \   00001078   ........           BL       SearchIcon
   1059                  i=i+20;
   \   0000107C   148088E2           ADD      R8,R8,#+20
   \   00001080   1CD08DE2           ADD      SP,SP,#+28
   \   00001084   010000EA           B        ??OnRedraw_52
   1060              }
   1061              else
   1062                skip--;
   \                     ??OnRedraw_51:
   \   00001088   019059E2           SUBS     R9,R9,#+1
   1063              if((!skip)&&(book_show>=11)&&(show<5))
   \   0000108C   2C00001A           BNE      ??OnRedraw_53
   \                     ??OnRedraw_52:
   \   00001090   000096E5           LDR      R0,[R6, #+0]
   \   00001094   0B0050E3           CMP      R0,#+11
   \   00001098   290000BA           BLT      ??OnRedraw_53
   \   0000109C   050057E3           CMP      R7,#+5
   \   000010A0   270000AA           BGE      ??OnRedraw_53
   1064              {
   1065                  wsprintf(ws, BM11NAME);
   \   000010A4   88199FE5           LDR      R1,??OnRedraw_37+0x20  ;; BM11NAME
   \   000010A8   0400A0E1           MOV      R0,R4
   \   000010AC   240100EF           SWI      +292
   1066                //  DrawString(ws,17,i+1,115,i+GetFontYSIZE(11)+2,11,0,ctasks,GetPaletteAdrByColorIndex(23));
   1067                  len=Get_WS_width(ws,9)/2;
   \   000010B0   0910A0E3           MOV      R1,#+9
   \   000010B4   0400A0E1           MOV      R0,R4
   \   000010B8   080200EF           SWI      +520
   \   000010BC   A00F80E0           ADD      R0,R0,R0, LSR #+31
   \   000010C0   C0A0A0E1           ASR      R10,R0,#+1
   1068                  DrawString(ws,120-len,i+1,120+len+3,i+GetFontYSIZE(9)+2,9,0,ctasks,GetPaletteAdrByColorIndex(23));
   \   000010C4   1700A0E3           MOV      R0,#+23
   \   000010C8   2E0100EF           SWI      +302
   \   000010CC   00B0A0E1           MOV      R11,R0
   \   000010D0   0900A0E3           MOV      R0,#+9
   \   000010D4   C50100EF           SWI      +453
   \   000010D8   00082DE9           PUSH     {R11}
   \   000010DC   0510A0E1           MOV      R1,R5
   \   000010E0   02002DE9           PUSH     {R1}
   \   000010E4   080080E0           ADD      R0,R0,R8
   \   000010E8   020080E2           ADD      R0,R0,#+2
   \   000010EC   7B308AE2           ADD      R3,R10,#+123
   \   000010F0   0010A0E3           MOV      R1,#+0
   \   000010F4   02002DE9           PUSH     {R1}
   \   000010F8   012088E2           ADD      R2,R8,#+1
   1069                  SearchIcon(ws, i, 1, NULL, NULL, NULL);
   1070                  show++;
   \   000010FC   017087E2           ADD      R7,R7,#+1
   \   00001100   0910A0E3           MOV      R1,#+9
   \   00001104   02002DE9           PUSH     {R1}
   \   00001108   01002DE9           PUSH     {R0}
   \   0000110C   78106AE2           RSB      R1,R10,#+120
   \   00001110   0400A0E1           MOV      R0,R4
   \   00001114   4C0100EF           SWI      +332
   \   00001118   0000A0E3           MOV      R0,#+0
   \   0000111C   01002DE9           PUSH     {R0}
   \   00001120   01002DE9           PUSH     {R0}
   \   00001124   0030A0E3           MOV      R3,#+0
   \   00001128   0120A0E3           MOV      R2,#+1
   \   0000112C   0810A0E1           MOV      R1,R8
   \   00001130   0400A0E1           MOV      R0,R4
   \   00001134   ........           BL       SearchIcon
   1071                  i=i+20;
   \   00001138   148088E2           ADD      R8,R8,#+20
   \   0000113C   1CD08DE2           ADD      SP,SP,#+28
   \   00001140   010000EA           B        ??OnRedraw_54
   1072              }
   1073              else
   1074                skip--;
   \                     ??OnRedraw_53:
   \   00001144   019059E2           SUBS     R9,R9,#+1
   1075              if((!skip)&&(book_show>=12)&&(show<5))
   \   00001148   2C00001A           BNE      ??OnRedraw_55
   \                     ??OnRedraw_54:
   \   0000114C   000096E5           LDR      R0,[R6, #+0]
   \   00001150   0C0050E3           CMP      R0,#+12
   \   00001154   290000BA           BLT      ??OnRedraw_55
   \   00001158   050057E3           CMP      R7,#+5
   \   0000115C   270000AA           BGE      ??OnRedraw_55
   1076              {
   1077                  wsprintf(ws, BM12NAME);
   \   00001160   D0189FE5           LDR      R1,??OnRedraw_37+0x24  ;; BM12NAME
   \   00001164   0400A0E1           MOV      R0,R4
   \   00001168   240100EF           SWI      +292
   1078                //  DrawString(ws,17,i+1,115,i+GetFontYSIZE(11)+2,11,0,ctasks,GetPaletteAdrByColorIndex(23));
   1079                  len=Get_WS_width(ws,9)/2;
   \   0000116C   0910A0E3           MOV      R1,#+9
   \   00001170   0400A0E1           MOV      R0,R4
   \   00001174   080200EF           SWI      +520
   \   00001178   A00F80E0           ADD      R0,R0,R0, LSR #+31
   \   0000117C   C0A0A0E1           ASR      R10,R0,#+1
   1080                  DrawString(ws,120-len,i+1,120+len+3,i+GetFontYSIZE(9)+2,9,0,ctasks,GetPaletteAdrByColorIndex(23));
   \   00001180   1700A0E3           MOV      R0,#+23
   \   00001184   2E0100EF           SWI      +302
   \   00001188   00B0A0E1           MOV      R11,R0
   \   0000118C   0900A0E3           MOV      R0,#+9
   \   00001190   C50100EF           SWI      +453
   \   00001194   00082DE9           PUSH     {R11}
   \   00001198   0510A0E1           MOV      R1,R5
   \   0000119C   02002DE9           PUSH     {R1}
   \   000011A0   080080E0           ADD      R0,R0,R8
   \   000011A4   020080E2           ADD      R0,R0,#+2
   \   000011A8   7B308AE2           ADD      R3,R10,#+123
   \   000011AC   0010A0E3           MOV      R1,#+0
   \   000011B0   02002DE9           PUSH     {R1}
   \   000011B4   012088E2           ADD      R2,R8,#+1
   1081                  SearchIcon(ws, i, 1, NULL, NULL, NULL);
   1082                  show++;
   \   000011B8   017087E2           ADD      R7,R7,#+1
   \   000011BC   0910A0E3           MOV      R1,#+9
   \   000011C0   02002DE9           PUSH     {R1}
   \   000011C4   01002DE9           PUSH     {R0}
   \   000011C8   78106AE2           RSB      R1,R10,#+120
   \   000011CC   0400A0E1           MOV      R0,R4
   \   000011D0   4C0100EF           SWI      +332
   \   000011D4   0000A0E3           MOV      R0,#+0
   \   000011D8   01002DE9           PUSH     {R0}
   \   000011DC   01002DE9           PUSH     {R0}
   \   000011E0   0030A0E3           MOV      R3,#+0
   \   000011E4   0120A0E3           MOV      R2,#+1
   \   000011E8   0810A0E1           MOV      R1,R8
   \   000011EC   0400A0E1           MOV      R0,R4
   \   000011F0   ........           BL       SearchIcon
   1083                  i=i+20;
   \   000011F4   148088E2           ADD      R8,R8,#+20
   \   000011F8   1CD08DE2           ADD      SP,SP,#+28
   \   000011FC   010000EA           B        ??OnRedraw_56
   1084              }
   1085              else
   1086                skip--;
   \                     ??OnRedraw_55:
   \   00001200   019059E2           SUBS     R9,R9,#+1
   1087              if((!skip)&&(book_show>=13)&&(show<5))
   \   00001204   2C00001A           BNE      ??OnRedraw_57
   \                     ??OnRedraw_56:
   \   00001208   000096E5           LDR      R0,[R6, #+0]
   \   0000120C   0D0050E3           CMP      R0,#+13
   \   00001210   290000BA           BLT      ??OnRedraw_57
   \   00001214   050057E3           CMP      R7,#+5
   \   00001218   270000AA           BGE      ??OnRedraw_57
   1088              {
   1089                  wsprintf(ws, BM13NAME);
   \   0000121C   18189FE5           LDR      R1,??OnRedraw_37+0x28  ;; BM13NAME
   \   00001220   0400A0E1           MOV      R0,R4
   \   00001224   240100EF           SWI      +292
   1090                //  DrawString(ws,17,i+1,115,i+GetFontYSIZE(11)+2,11,0,ctasks,GetPaletteAdrByColorIndex(23));
   1091                  len=Get_WS_width(ws,9)/2;
   \   00001228   0910A0E3           MOV      R1,#+9
   \   0000122C   0400A0E1           MOV      R0,R4
   \   00001230   080200EF           SWI      +520
   \   00001234   A00F80E0           ADD      R0,R0,R0, LSR #+31
   \   00001238   C0A0A0E1           ASR      R10,R0,#+1
   1092                  DrawString(ws,120-len,i+1,120+len+3,i+GetFontYSIZE(9)+2,9,0,ctasks,GetPaletteAdrByColorIndex(23));
   \   0000123C   1700A0E3           MOV      R0,#+23
   \   00001240   2E0100EF           SWI      +302
   \   00001244   00B0A0E1           MOV      R11,R0
   \   00001248   0900A0E3           MOV      R0,#+9
   \   0000124C   C50100EF           SWI      +453
   \   00001250   00082DE9           PUSH     {R11}
   \   00001254   0510A0E1           MOV      R1,R5
   \   00001258   02002DE9           PUSH     {R1}
   \   0000125C   080080E0           ADD      R0,R0,R8
   \   00001260   020080E2           ADD      R0,R0,#+2
   \   00001264   7B308AE2           ADD      R3,R10,#+123
   \   00001268   0010A0E3           MOV      R1,#+0
   \   0000126C   02002DE9           PUSH     {R1}
   \   00001270   012088E2           ADD      R2,R8,#+1
   1093                  SearchIcon(ws, i, 1, NULL, NULL, NULL);
   1094                  show++;
   \   00001274   017087E2           ADD      R7,R7,#+1
   \   00001278   0910A0E3           MOV      R1,#+9
   \   0000127C   02002DE9           PUSH     {R1}
   \   00001280   01002DE9           PUSH     {R0}
   \   00001284   78106AE2           RSB      R1,R10,#+120
   \   00001288   0400A0E1           MOV      R0,R4
   \   0000128C   4C0100EF           SWI      +332
   \   00001290   0000A0E3           MOV      R0,#+0
   \   00001294   01002DE9           PUSH     {R0}
   \   00001298   01002DE9           PUSH     {R0}
   \   0000129C   0030A0E3           MOV      R3,#+0
   \   000012A0   0120A0E3           MOV      R2,#+1
   \   000012A4   0810A0E1           MOV      R1,R8
   \   000012A8   0400A0E1           MOV      R0,R4
   \   000012AC   ........           BL       SearchIcon
   1095                  i=i+20;
   \   000012B0   148088E2           ADD      R8,R8,#+20
   \   000012B4   1CD08DE2           ADD      SP,SP,#+28
   \   000012B8   010000EA           B        ??OnRedraw_58
   1096              }
   1097              else
   1098                skip--;
   \                     ??OnRedraw_57:
   \   000012BC   019059E2           SUBS     R9,R9,#+1
   1099              if((!skip)&&(book_show>=14)&&(show<5))
   \   000012C0   2C00001A           BNE      ??OnRedraw_59
   \                     ??OnRedraw_58:
   \   000012C4   000096E5           LDR      R0,[R6, #+0]
   \   000012C8   0E0050E3           CMP      R0,#+14
   \   000012CC   290000BA           BLT      ??OnRedraw_59
   \   000012D0   050057E3           CMP      R7,#+5
   \   000012D4   270000AA           BGE      ??OnRedraw_59
   1100              {
   1101                  wsprintf(ws, BM14NAME);
   \   000012D8   60179FE5           LDR      R1,??OnRedraw_37+0x2C  ;; BM14NAME
   \   000012DC   0400A0E1           MOV      R0,R4
   \   000012E0   240100EF           SWI      +292
   1102                //  DrawString(ws,17,i+1,115,i+GetFontYSIZE(11)+2,11,0,ctasks,GetPaletteAdrByColorIndex(23));
   1103                  len=Get_WS_width(ws,9)/2;
   \   000012E4   0910A0E3           MOV      R1,#+9
   \   000012E8   0400A0E1           MOV      R0,R4
   \   000012EC   080200EF           SWI      +520
   \   000012F0   A00F80E0           ADD      R0,R0,R0, LSR #+31
   \   000012F4   C0A0A0E1           ASR      R10,R0,#+1
   1104                  DrawString(ws,120-len,i+1,120+len+3,i+GetFontYSIZE(9)+2,9,0,ctasks,GetPaletteAdrByColorIndex(23));
   \   000012F8   1700A0E3           MOV      R0,#+23
   \   000012FC   2E0100EF           SWI      +302
   \   00001300   00B0A0E1           MOV      R11,R0
   \   00001304   0900A0E3           MOV      R0,#+9
   \   00001308   C50100EF           SWI      +453
   \   0000130C   00082DE9           PUSH     {R11}
   \   00001310   0510A0E1           MOV      R1,R5
   \   00001314   02002DE9           PUSH     {R1}
   \   00001318   080080E0           ADD      R0,R0,R8
   \   0000131C   020080E2           ADD      R0,R0,#+2
   \   00001320   7B308AE2           ADD      R3,R10,#+123
   \   00001324   0010A0E3           MOV      R1,#+0
   \   00001328   02002DE9           PUSH     {R1}
   \   0000132C   012088E2           ADD      R2,R8,#+1
   1105                  SearchIcon(ws, i, 1, NULL, NULL, NULL);
   1106                  show++;
   \   00001330   017087E2           ADD      R7,R7,#+1
   \   00001334   0910A0E3           MOV      R1,#+9
   \   00001338   02002DE9           PUSH     {R1}
   \   0000133C   01002DE9           PUSH     {R0}
   \   00001340   78106AE2           RSB      R1,R10,#+120
   \   00001344   0400A0E1           MOV      R0,R4
   \   00001348   4C0100EF           SWI      +332
   \   0000134C   0000A0E3           MOV      R0,#+0
   \   00001350   01002DE9           PUSH     {R0}
   \   00001354   01002DE9           PUSH     {R0}
   \   00001358   0030A0E3           MOV      R3,#+0
   \   0000135C   0120A0E3           MOV      R2,#+1
   \   00001360   0810A0E1           MOV      R1,R8
   \   00001364   0400A0E1           MOV      R0,R4
   \   00001368   ........           BL       SearchIcon
   1107                  i=i+20;
   \   0000136C   148088E2           ADD      R8,R8,#+20
   \   00001370   1CD08DE2           ADD      SP,SP,#+28
   \   00001374   010000EA           B        ??OnRedraw_60
   1108              }
   1109              else
   1110                skip--;
   \                     ??OnRedraw_59:
   \   00001378   019059E2           SUBS     R9,R9,#+1
   1111              if((!skip)&&(book_show>=15)&&(show<5))
   \   0000137C   2C00001A           BNE      ??OnRedraw_61
   \                     ??OnRedraw_60:
   \   00001380   000096E5           LDR      R0,[R6, #+0]
   \   00001384   0F0050E3           CMP      R0,#+15
   \   00001388   290000BA           BLT      ??OnRedraw_61
   \   0000138C   050057E3           CMP      R7,#+5
   \   00001390   270000AA           BGE      ??OnRedraw_61
   1112              {
   1113                  wsprintf(ws, BM15NAME);
   \   00001394   A8169FE5           LDR      R1,??OnRedraw_37+0x30  ;; BM15NAME
   \   00001398   0400A0E1           MOV      R0,R4
   \   0000139C   240100EF           SWI      +292
   1114                //  DrawString(ws,17,i+1,115,i+GetFontYSIZE(11)+2,11,0,ctasks,GetPaletteAdrByColorIndex(23));
   1115                  len=Get_WS_width(ws,9)/2;
   \   000013A0   0910A0E3           MOV      R1,#+9
   \   000013A4   0400A0E1           MOV      R0,R4
   \   000013A8   080200EF           SWI      +520
   \   000013AC   A00F80E0           ADD      R0,R0,R0, LSR #+31
   \   000013B0   C0A0A0E1           ASR      R10,R0,#+1
   1116                  DrawString(ws,120-len,i+1,120+len+3,i+GetFontYSIZE(9)+2,9,0,ctasks,GetPaletteAdrByColorIndex(23));
   \   000013B4   1700A0E3           MOV      R0,#+23
   \   000013B8   2E0100EF           SWI      +302
   \   000013BC   00B0A0E1           MOV      R11,R0
   \   000013C0   0900A0E3           MOV      R0,#+9
   \   000013C4   C50100EF           SWI      +453
   \   000013C8   00082DE9           PUSH     {R11}
   \   000013CC   0510A0E1           MOV      R1,R5
   \   000013D0   02002DE9           PUSH     {R1}
   \   000013D4   080080E0           ADD      R0,R0,R8
   \   000013D8   020080E2           ADD      R0,R0,#+2
   \   000013DC   7B308AE2           ADD      R3,R10,#+123
   \   000013E0   0010A0E3           MOV      R1,#+0
   \   000013E4   02002DE9           PUSH     {R1}
   \   000013E8   012088E2           ADD      R2,R8,#+1
   1117                  SearchIcon(ws, i, 1, NULL, NULL, NULL);
   1118                  show++;
   \   000013EC   017087E2           ADD      R7,R7,#+1
   \   000013F0   0910A0E3           MOV      R1,#+9
   \   000013F4   02002DE9           PUSH     {R1}
   \   000013F8   01002DE9           PUSH     {R0}
   \   000013FC   78106AE2           RSB      R1,R10,#+120
   \   00001400   0400A0E1           MOV      R0,R4
   \   00001404   4C0100EF           SWI      +332
   \   00001408   0000A0E3           MOV      R0,#+0
   \   0000140C   01002DE9           PUSH     {R0}
   \   00001410   01002DE9           PUSH     {R0}
   \   00001414   0030A0E3           MOV      R3,#+0
   \   00001418   0120A0E3           MOV      R2,#+1
   \   0000141C   0810A0E1           MOV      R1,R8
   \   00001420   0400A0E1           MOV      R0,R4
   \   00001424   ........           BL       SearchIcon
   1119                  i=i+20;
   \   00001428   148088E2           ADD      R8,R8,#+20
   \   0000142C   1CD08DE2           ADD      SP,SP,#+28
   \   00001430   010000EA           B        ??OnRedraw_62
   1120              }
   1121              else
   1122                skip--;
   \                     ??OnRedraw_61:
   \   00001434   019059E2           SUBS     R9,R9,#+1
   1123              if((!skip)&&(book_show>=16)&&(show<5))
   \   00001438   2C00001A           BNE      ??OnRedraw_63
   \                     ??OnRedraw_62:
   \   0000143C   000096E5           LDR      R0,[R6, #+0]
   \   00001440   100050E3           CMP      R0,#+16
   \   00001444   290000BA           BLT      ??OnRedraw_63
   \   00001448   050057E3           CMP      R7,#+5
   \   0000144C   270000AA           BGE      ??OnRedraw_63
   1124              {
   1125                  wsprintf(ws, BM16NAME);
   \   00001450   901D9FE5           LDR      R1,??OnRedraw_64+0x4  ;; BM16NAME
   \   00001454   0400A0E1           MOV      R0,R4
   \   00001458   240100EF           SWI      +292
   1126                //  DrawString(ws,17,i+1,115,i+GetFontYSIZE(11)+2,11,0,ctasks,GetPaletteAdrByColorIndex(23));
   1127                  len=Get_WS_width(ws,9)/2;
   \   0000145C   0910A0E3           MOV      R1,#+9
   \   00001460   0400A0E1           MOV      R0,R4
   \   00001464   080200EF           SWI      +520
   \   00001468   A00F80E0           ADD      R0,R0,R0, LSR #+31
   \   0000146C   C0A0A0E1           ASR      R10,R0,#+1
   1128                  DrawString(ws,120-len,i+1,120+len+3,i+GetFontYSIZE(9)+2,9,0,ctasks,GetPaletteAdrByColorIndex(23));
   \   00001470   1700A0E3           MOV      R0,#+23
   \   00001474   2E0100EF           SWI      +302
   \   00001478   00B0A0E1           MOV      R11,R0
   \   0000147C   0900A0E3           MOV      R0,#+9
   \   00001480   C50100EF           SWI      +453
   \   00001484   00082DE9           PUSH     {R11}
   \   00001488   0510A0E1           MOV      R1,R5
   \   0000148C   02002DE9           PUSH     {R1}
   \   00001490   080080E0           ADD      R0,R0,R8
   \   00001494   020080E2           ADD      R0,R0,#+2
   \   00001498   7B308AE2           ADD      R3,R10,#+123
   \   0000149C   0010A0E3           MOV      R1,#+0
   \   000014A0   02002DE9           PUSH     {R1}
   \   000014A4   012088E2           ADD      R2,R8,#+1
   1129                  SearchIcon(ws, i, 1, NULL, NULL, NULL);
   1130                  show++;
   \   000014A8   017087E2           ADD      R7,R7,#+1
   \   000014AC   0910A0E3           MOV      R1,#+9
   \   000014B0   02002DE9           PUSH     {R1}
   \   000014B4   01002DE9           PUSH     {R0}
   \   000014B8   78106AE2           RSB      R1,R10,#+120
   \   000014BC   0400A0E1           MOV      R0,R4
   \   000014C0   4C0100EF           SWI      +332
   \   000014C4   0000A0E3           MOV      R0,#+0
   \   000014C8   01002DE9           PUSH     {R0}
   \   000014CC   01002DE9           PUSH     {R0}
   \   000014D0   0030A0E3           MOV      R3,#+0
   \   000014D4   0120A0E3           MOV      R2,#+1
   \   000014D8   0810A0E1           MOV      R1,R8
   \   000014DC   0400A0E1           MOV      R0,R4
   \   000014E0   ........           BL       SearchIcon
   1131                  i=i+20;
   \   000014E4   148088E2           ADD      R8,R8,#+20
   \   000014E8   1CD08DE2           ADD      SP,SP,#+28
   \   000014EC   010000EA           B        ??OnRedraw_65
   1132              }
   1133              else
   1134                skip--;
   \                     ??OnRedraw_63:
   \   000014F0   019059E2           SUBS     R9,R9,#+1
   1135              if((!skip)&&(book_show>=17)&&(show<5))
   \   000014F4   2C00001A           BNE      ??OnRedraw_66
   \                     ??OnRedraw_65:
   \   000014F8   000096E5           LDR      R0,[R6, #+0]
   \   000014FC   110050E3           CMP      R0,#+17
   \   00001500   290000BA           BLT      ??OnRedraw_66
   \   00001504   050057E3           CMP      R7,#+5
   \   00001508   270000AA           BGE      ??OnRedraw_66
   1136              {
   1137                  wsprintf(ws, BM17NAME);
   \   0000150C   DC1C9FE5           LDR      R1,??OnRedraw_64+0xC  ;; BM17NAME
   \   00001510   0400A0E1           MOV      R0,R4
   \   00001514   240100EF           SWI      +292
   1138                //  DrawString(ws,17,i+1,115,i+GetFontYSIZE(11)+2,11,0,ctasks,GetPaletteAdrByColorIndex(23));
   1139                  len=Get_WS_width(ws,9)/2;
   \   00001518   0910A0E3           MOV      R1,#+9
   \   0000151C   0400A0E1           MOV      R0,R4
   \   00001520   080200EF           SWI      +520
   \   00001524   A00F80E0           ADD      R0,R0,R0, LSR #+31
   \   00001528   C0A0A0E1           ASR      R10,R0,#+1
   1140                  DrawString(ws,120-len,i+1,120+len+3,i+GetFontYSIZE(9)+2,9,0,ctasks,GetPaletteAdrByColorIndex(23));
   \   0000152C   1700A0E3           MOV      R0,#+23
   \   00001530   2E0100EF           SWI      +302
   \   00001534   00B0A0E1           MOV      R11,R0
   \   00001538   0900A0E3           MOV      R0,#+9
   \   0000153C   C50100EF           SWI      +453
   \   00001540   00082DE9           PUSH     {R11}
   \   00001544   0510A0E1           MOV      R1,R5
   \   00001548   02002DE9           PUSH     {R1}
   \   0000154C   080080E0           ADD      R0,R0,R8
   \   00001550   020080E2           ADD      R0,R0,#+2
   \   00001554   7B308AE2           ADD      R3,R10,#+123
   \   00001558   0010A0E3           MOV      R1,#+0
   \   0000155C   02002DE9           PUSH     {R1}
   \   00001560   012088E2           ADD      R2,R8,#+1
   1141                  SearchIcon(ws, i, 1, NULL, NULL, NULL);
   1142                  show++;
   \   00001564   017087E2           ADD      R7,R7,#+1
   \   00001568   0910A0E3           MOV      R1,#+9
   \   0000156C   02002DE9           PUSH     {R1}
   \   00001570   01002DE9           PUSH     {R0}
   \   00001574   78106AE2           RSB      R1,R10,#+120
   \   00001578   0400A0E1           MOV      R0,R4
   \   0000157C   4C0100EF           SWI      +332
   \   00001580   0000A0E3           MOV      R0,#+0
   \   00001584   01002DE9           PUSH     {R0}
   \   00001588   01002DE9           PUSH     {R0}
   \   0000158C   0030A0E3           MOV      R3,#+0
   \   00001590   0120A0E3           MOV      R2,#+1
   \   00001594   0810A0E1           MOV      R1,R8
   \   00001598   0400A0E1           MOV      R0,R4
   \   0000159C   ........           BL       SearchIcon
   1143                  i=i+20;
   \   000015A0   148088E2           ADD      R8,R8,#+20
   \   000015A4   1CD08DE2           ADD      SP,SP,#+28
   \   000015A8   010000EA           B        ??OnRedraw_67
   1144              }
   1145              else
   1146                skip--;
   \                     ??OnRedraw_66:
   \   000015AC   019059E2           SUBS     R9,R9,#+1
   1147              if((!skip)&&(book_show>=18)&&(show<5))
   \   000015B0   2C00001A           BNE      ??OnRedraw_68
   \                     ??OnRedraw_67:
   \   000015B4   000096E5           LDR      R0,[R6, #+0]
   \   000015B8   120050E3           CMP      R0,#+18
   \   000015BC   290000BA           BLT      ??OnRedraw_68
   \   000015C0   050057E3           CMP      R7,#+5
   \   000015C4   270000AA           BGE      ??OnRedraw_68
   1148              {
   1149                  wsprintf(ws, BM18NAME);
   \   000015C8   241C9FE5           LDR      R1,??OnRedraw_64+0x10  ;; BM18NAME
   \   000015CC   0400A0E1           MOV      R0,R4
   \   000015D0   240100EF           SWI      +292
   1150                //  DrawString(ws,17,i+1,115,i+GetFontYSIZE(11)+2,11,0,ctasks,GetPaletteAdrByColorIndex(23));
   1151                  len=Get_WS_width(ws,9)/2;
   \   000015D4   0910A0E3           MOV      R1,#+9
   \   000015D8   0400A0E1           MOV      R0,R4
   \   000015DC   080200EF           SWI      +520
   \   000015E0   A00F80E0           ADD      R0,R0,R0, LSR #+31
   \   000015E4   C0A0A0E1           ASR      R10,R0,#+1
   1152                  DrawString(ws,120-len,i+1,120+len+3,i+GetFontYSIZE(9)+2,9,0,ctasks,GetPaletteAdrByColorIndex(23));
   \   000015E8   1700A0E3           MOV      R0,#+23
   \   000015EC   2E0100EF           SWI      +302
   \   000015F0   00B0A0E1           MOV      R11,R0
   \   000015F4   0900A0E3           MOV      R0,#+9
   \   000015F8   C50100EF           SWI      +453
   \   000015FC   00082DE9           PUSH     {R11}
   \   00001600   0510A0E1           MOV      R1,R5
   \   00001604   02002DE9           PUSH     {R1}
   \   00001608   080080E0           ADD      R0,R0,R8
   \   0000160C   020080E2           ADD      R0,R0,#+2
   \   00001610   7B308AE2           ADD      R3,R10,#+123
   \   00001614   0010A0E3           MOV      R1,#+0
   \   00001618   02002DE9           PUSH     {R1}
   \   0000161C   012088E2           ADD      R2,R8,#+1
   1153                  SearchIcon(ws, i, 1, NULL, NULL, NULL);
   1154                  show++;
   \   00001620   017087E2           ADD      R7,R7,#+1
   \   00001624   0910A0E3           MOV      R1,#+9
   \   00001628   02002DE9           PUSH     {R1}
   \   0000162C   01002DE9           PUSH     {R0}
   \   00001630   78106AE2           RSB      R1,R10,#+120
   \   00001634   0400A0E1           MOV      R0,R4
   \   00001638   4C0100EF           SWI      +332
   \   0000163C   0000A0E3           MOV      R0,#+0
   \   00001640   01002DE9           PUSH     {R0}
   \   00001644   01002DE9           PUSH     {R0}
   \   00001648   0030A0E3           MOV      R3,#+0
   \   0000164C   0120A0E3           MOV      R2,#+1
   \   00001650   0810A0E1           MOV      R1,R8
   \   00001654   0400A0E1           MOV      R0,R4
   \   00001658   ........           BL       SearchIcon
   1155                  i=i+20;
   \   0000165C   148088E2           ADD      R8,R8,#+20
   \   00001660   1CD08DE2           ADD      SP,SP,#+28
   \   00001664   010000EA           B        ??OnRedraw_69
   1156              }
   1157              else
   1158                skip--;
   \                     ??OnRedraw_68:
   \   00001668   019059E2           SUBS     R9,R9,#+1
   1159              if((!skip)&&(book_show>=19)&&(show<5))
   \   0000166C   2C00001A           BNE      ??OnRedraw_70
   \                     ??OnRedraw_69:
   \   00001670   000096E5           LDR      R0,[R6, #+0]
   \   00001674   130050E3           CMP      R0,#+19
   \   00001678   290000BA           BLT      ??OnRedraw_70
   \   0000167C   050057E3           CMP      R7,#+5
   \   00001680   270000AA           BGE      ??OnRedraw_70
   1160              {
   1161                  wsprintf(ws, BM19NAME);
   \   00001684   E41E9FE5           LDR      R1,??OnRedraw_71  ;; BM19NAME
   \   00001688   0400A0E1           MOV      R0,R4
   \   0000168C   240100EF           SWI      +292
   1162                //  DrawString(ws,17,i+1,115,i+GetFontYSIZE(11)+2,11,0,ctasks,GetPaletteAdrByColorIndex(23));
   1163                  len=Get_WS_width(ws,9)/2;
   \   00001690   0910A0E3           MOV      R1,#+9
   \   00001694   0400A0E1           MOV      R0,R4
   \   00001698   080200EF           SWI      +520
   \   0000169C   A00F80E0           ADD      R0,R0,R0, LSR #+31
   \   000016A0   C0A0A0E1           ASR      R10,R0,#+1
   1164                  DrawString(ws,120-len,i+1,120+len+3,i+GetFontYSIZE(9)+2,9,0,ctasks,GetPaletteAdrByColorIndex(23));
   \   000016A4   1700A0E3           MOV      R0,#+23
   \   000016A8   2E0100EF           SWI      +302
   \   000016AC   00B0A0E1           MOV      R11,R0
   \   000016B0   0900A0E3           MOV      R0,#+9
   \   000016B4   C50100EF           SWI      +453
   \   000016B8   00082DE9           PUSH     {R11}
   \   000016BC   0510A0E1           MOV      R1,R5
   \   000016C0   02002DE9           PUSH     {R1}
   \   000016C4   080080E0           ADD      R0,R0,R8
   \   000016C8   020080E2           ADD      R0,R0,#+2
   \   000016CC   7B308AE2           ADD      R3,R10,#+123
   \   000016D0   0010A0E3           MOV      R1,#+0
   \   000016D4   02002DE9           PUSH     {R1}
   \   000016D8   012088E2           ADD      R2,R8,#+1
   1165                  SearchIcon(ws, i, 1, NULL, NULL, NULL);
   1166                  show++;
   \   000016DC   017087E2           ADD      R7,R7,#+1
   \   000016E0   0910A0E3           MOV      R1,#+9
   \   000016E4   02002DE9           PUSH     {R1}
   \   000016E8   01002DE9           PUSH     {R0}
   \   000016EC   78106AE2           RSB      R1,R10,#+120
   \   000016F0   0400A0E1           MOV      R0,R4
   \   000016F4   4C0100EF           SWI      +332
   \   000016F8   0000A0E3           MOV      R0,#+0
   \   000016FC   01002DE9           PUSH     {R0}
   \   00001700   01002DE9           PUSH     {R0}
   \   00001704   0030A0E3           MOV      R3,#+0
   \   00001708   0120A0E3           MOV      R2,#+1
   \   0000170C   0810A0E1           MOV      R1,R8
   \   00001710   0400A0E1           MOV      R0,R4
   \   00001714   ........           BL       SearchIcon
   1167                  i=i+20;
   \   00001718   148088E2           ADD      R8,R8,#+20
   \   0000171C   1CD08DE2           ADD      SP,SP,#+28
   \   00001720   010000EA           B        ??OnRedraw_72
   1168              }
   1169              else
   1170                skip--;
   \                     ??OnRedraw_70:
   \   00001724   019059E2           SUBS     R9,R9,#+1
   1171              if((!skip)&&(book_show>=20)&&(show<5))
   \   00001728   2C00001A           BNE      ??OnRedraw_73
   \                     ??OnRedraw_72:
   \   0000172C   000096E5           LDR      R0,[R6, #+0]
   \   00001730   140050E3           CMP      R0,#+20
   \   00001734   290000BA           BLT      ??OnRedraw_73
   \   00001738   050057E3           CMP      R7,#+5
   \   0000173C   270000AA           BGE      ??OnRedraw_73
   1172              {
   1173                  wsprintf(ws, BM20NAME);
   \   00001740   301E9FE5           LDR      R1,??OnRedraw_71+0x8  ;; BM20NAME
   \   00001744   0400A0E1           MOV      R0,R4
   \   00001748   240100EF           SWI      +292
   1174                //  DrawString(ws,17,i+1,115,i+GetFontYSIZE(11)+2,11,0,ctasks,GetPaletteAdrByColorIndex(23));
   1175                  len=Get_WS_width(ws,9)/2;
   \   0000174C   0910A0E3           MOV      R1,#+9
   \   00001750   0400A0E1           MOV      R0,R4
   \   00001754   080200EF           SWI      +520
   \   00001758   A00F80E0           ADD      R0,R0,R0, LSR #+31
   \   0000175C   C0A0A0E1           ASR      R10,R0,#+1
   1176                  DrawString(ws,120-len,i+1,120+len+3,i+GetFontYSIZE(9)+2,9,0,ctasks,GetPaletteAdrByColorIndex(23));
   \   00001760   1700A0E3           MOV      R0,#+23
   \   00001764   2E0100EF           SWI      +302
   \   00001768   00B0A0E1           MOV      R11,R0
   \   0000176C   0900A0E3           MOV      R0,#+9
   \   00001770   C50100EF           SWI      +453
   \   00001774   00082DE9           PUSH     {R11}
   \   00001778   0510A0E1           MOV      R1,R5
   \   0000177C   02002DE9           PUSH     {R1}
   \   00001780   080080E0           ADD      R0,R0,R8
   \   00001784   020080E2           ADD      R0,R0,#+2
   \   00001788   7B308AE2           ADD      R3,R10,#+123
   \   0000178C   0010A0E3           MOV      R1,#+0
   \   00001790   02002DE9           PUSH     {R1}
   \   00001794   012088E2           ADD      R2,R8,#+1
   1177                  SearchIcon(ws, i, 1, NULL, NULL, NULL);
   1178                  show++;
   \   00001798   017087E2           ADD      R7,R7,#+1
   \   0000179C   0910A0E3           MOV      R1,#+9
   \   000017A0   02002DE9           PUSH     {R1}
   \   000017A4   01002DE9           PUSH     {R0}
   \   000017A8   78106AE2           RSB      R1,R10,#+120
   \   000017AC   0400A0E1           MOV      R0,R4
   \   000017B0   4C0100EF           SWI      +332
   \   000017B4   0000A0E3           MOV      R0,#+0
   \   000017B8   01002DE9           PUSH     {R0}
   \   000017BC   01002DE9           PUSH     {R0}
   \   000017C0   0030A0E3           MOV      R3,#+0
   \   000017C4   0120A0E3           MOV      R2,#+1
   \   000017C8   0810A0E1           MOV      R1,R8
   \   000017CC   0400A0E1           MOV      R0,R4
   \   000017D0   ........           BL       SearchIcon
   1179                  i=i+20;
   \   000017D4   148088E2           ADD      R8,R8,#+20
   \   000017D8   1CD08DE2           ADD      SP,SP,#+28
   \   000017DC   010000EA           B        ??OnRedraw_74
   1180              }
   1181              else
   1182                skip--;
   \                     ??OnRedraw_73:
   \   000017E0   019059E2           SUBS     R9,R9,#+1
   1183              if((!skip)&&(book_show>=21)&&(show<5))
   \   000017E4   2C00001A           BNE      ??OnRedraw_75
   \                     ??OnRedraw_74:
   \   000017E8   000096E5           LDR      R0,[R6, #+0]
   \   000017EC   150050E3           CMP      R0,#+21
   \   000017F0   290000BA           BLT      ??OnRedraw_75
   \   000017F4   050057E3           CMP      R7,#+5
   \   000017F8   270000AA           BGE      ??OnRedraw_75
   1184              {
   1185                  wsprintf(ws, BM21NAME);
   \   000017FC   ........           LDR      R1,??DataTable78  ;; BM21NAME
   \   00001800   0400A0E1           MOV      R0,R4
   \   00001804   240100EF           SWI      +292
   1186                //  DrawString(ws,17,i+1,115,i+GetFontYSIZE(11)+2,11,0,ctasks,GetPaletteAdrByColorIndex(23));
   1187                  len=Get_WS_width(ws,9)/2;
   \   00001808   0910A0E3           MOV      R1,#+9
   \   0000180C   0400A0E1           MOV      R0,R4
   \   00001810   080200EF           SWI      +520
   \   00001814   A00F80E0           ADD      R0,R0,R0, LSR #+31
   \   00001818   C0A0A0E1           ASR      R10,R0,#+1
   1188                  DrawString(ws,120-len,i+1,120+len+3,i+GetFontYSIZE(9)+2,9,0,ctasks,GetPaletteAdrByColorIndex(23));
   \   0000181C   1700A0E3           MOV      R0,#+23
   \   00001820   2E0100EF           SWI      +302
   \   00001824   00B0A0E1           MOV      R11,R0
   \   00001828   0900A0E3           MOV      R0,#+9
   \   0000182C   C50100EF           SWI      +453
   \   00001830   00082DE9           PUSH     {R11}
   \   00001834   0510A0E1           MOV      R1,R5
   \   00001838   02002DE9           PUSH     {R1}
   \   0000183C   080080E0           ADD      R0,R0,R8
   \   00001840   020080E2           ADD      R0,R0,#+2
   \   00001844   7B308AE2           ADD      R3,R10,#+123
   \   00001848   0010A0E3           MOV      R1,#+0
   \   0000184C   02002DE9           PUSH     {R1}
   \   00001850   012088E2           ADD      R2,R8,#+1
   1189                  SearchIcon(ws, i, 1, NULL, NULL, NULL);
   1190                  show++;
   \   00001854   017087E2           ADD      R7,R7,#+1
   \   00001858   0910A0E3           MOV      R1,#+9
   \   0000185C   02002DE9           PUSH     {R1}
   \   00001860   01002DE9           PUSH     {R0}
   \   00001864   78106AE2           RSB      R1,R10,#+120
   \   00001868   0400A0E1           MOV      R0,R4
   \   0000186C   4C0100EF           SWI      +332
   \   00001870   0000A0E3           MOV      R0,#+0
   \   00001874   01002DE9           PUSH     {R0}
   \   00001878   01002DE9           PUSH     {R0}
   \   0000187C   0030A0E3           MOV      R3,#+0
   \   00001880   0120A0E3           MOV      R2,#+1
   \   00001884   0810A0E1           MOV      R1,R8
   \   00001888   0400A0E1           MOV      R0,R4
   \   0000188C   ........           BL       SearchIcon
   1191                  i=i+20;
   \   00001890   148088E2           ADD      R8,R8,#+20
   \   00001894   1CD08DE2           ADD      SP,SP,#+28
   \   00001898   010000EA           B        ??OnRedraw_76
   1192              }
   1193              else
   1194                skip--;
   \                     ??OnRedraw_75:
   \   0000189C   019059E2           SUBS     R9,R9,#+1
   1195              if((!skip)&&(book_show>=22)&&(show<5))
   \   000018A0   2C00001A           BNE      ??OnRedraw_77
   \                     ??OnRedraw_76:
   \   000018A4   000096E5           LDR      R0,[R6, #+0]
   \   000018A8   160050E3           CMP      R0,#+22
   \   000018AC   290000BA           BLT      ??OnRedraw_77
   \   000018B0   050057E3           CMP      R7,#+5
   \   000018B4   270000AA           BGE      ??OnRedraw_77
   1196              {
   1197                  wsprintf(ws, BM22NAME);
   \   000018B8   ........           LDR      R1,??DataTable79  ;; BM22NAME
   \   000018BC   0400A0E1           MOV      R0,R4
   \   000018C0   240100EF           SWI      +292
   1198                //  DrawString(ws,17,i+1,115,i+GetFontYSIZE(11)+2,11,0,ctasks,GetPaletteAdrByColorIndex(23));
   1199                  len=Get_WS_width(ws,9)/2;
   \   000018C4   0910A0E3           MOV      R1,#+9
   \   000018C8   0400A0E1           MOV      R0,R4
   \   000018CC   080200EF           SWI      +520
   \   000018D0   A00F80E0           ADD      R0,R0,R0, LSR #+31
   \   000018D4   C0A0A0E1           ASR      R10,R0,#+1
   1200                  DrawString(ws,120-len,i+1,120+len+3,i+GetFontYSIZE(9)+2,9,0,ctasks,GetPaletteAdrByColorIndex(23));
   \   000018D8   1700A0E3           MOV      R0,#+23
   \   000018DC   2E0100EF           SWI      +302
   \   000018E0   00B0A0E1           MOV      R11,R0
   \   000018E4   0900A0E3           MOV      R0,#+9
   \   000018E8   C50100EF           SWI      +453
   \   000018EC   00082DE9           PUSH     {R11}
   \   000018F0   0510A0E1           MOV      R1,R5
   \   000018F4   02002DE9           PUSH     {R1}
   \   000018F8   080080E0           ADD      R0,R0,R8
   \   000018FC   020080E2           ADD      R0,R0,#+2
   \   00001900   7B308AE2           ADD      R3,R10,#+123
   \   00001904   0010A0E3           MOV      R1,#+0
   \   00001908   02002DE9           PUSH     {R1}
   \   0000190C   012088E2           ADD      R2,R8,#+1
   1201                  SearchIcon(ws, i, 1, NULL, NULL, NULL);
   1202                  show++;
   \   00001910   017087E2           ADD      R7,R7,#+1
   \   00001914   0910A0E3           MOV      R1,#+9
   \   00001918   02002DE9           PUSH     {R1}
   \   0000191C   01002DE9           PUSH     {R0}
   \   00001920   78106AE2           RSB      R1,R10,#+120
   \   00001924   0400A0E1           MOV      R0,R4
   \   00001928   4C0100EF           SWI      +332
   \   0000192C   0000A0E3           MOV      R0,#+0
   \   00001930   01002DE9           PUSH     {R0}
   \   00001934   01002DE9           PUSH     {R0}
   \   00001938   0030A0E3           MOV      R3,#+0
   \   0000193C   0120A0E3           MOV      R2,#+1
   \   00001940   0810A0E1           MOV      R1,R8
   \   00001944   0400A0E1           MOV      R0,R4
   \   00001948   ........           BL       SearchIcon
   1203                  i=i+20;
   \   0000194C   148088E2           ADD      R8,R8,#+20
   \   00001950   1CD08DE2           ADD      SP,SP,#+28
   \   00001954   010000EA           B        ??OnRedraw_78
   1204              }
   1205              else
   1206                skip--;
   \                     ??OnRedraw_77:
   \   00001958   019059E2           SUBS     R9,R9,#+1
   1207              if((!skip)&&(book_show>=23)&&(show<5))
   \   0000195C   3900001A           BNE      ??OnRedraw_79
   \                     ??OnRedraw_78:
   \   00001960   000096E5           LDR      R0,[R6, #+0]
   \   00001964   170050E3           CMP      R0,#+23
   \   00001968   360000BA           BLT      ??OnRedraw_79
   \   0000196C   050057E3           CMP      R7,#+5
   \   00001970   340000AA           BGE      ??OnRedraw_79
   1208              {
   1209                  wsprintf(ws, BM23NAME);
   \   00001974   ........           LDR      R1,??DataTable80  ;; BM23NAME
   \   00001978   0400A0E1           MOV      R0,R4
   \   0000197C   240100EF           SWI      +292
   1210                //  DrawString(ws,17,i+1,115,i+GetFontYSIZE(11)+2,11,0,ctasks,GetPaletteAdrByColorIndex(23));
   1211                  len=Get_WS_width(ws,9)/2;
   \   00001980   0910A0E3           MOV      R1,#+9
   \   00001984   0400A0E1           MOV      R0,R4
   \   00001988   080200EF           SWI      +520
   \   0000198C   A00F80E0           ADD      R0,R0,R0, LSR #+31
   \   00001990   C0A0A0E1           ASR      R10,R0,#+1
   1212                  DrawString(ws,120-len,i+1,120+len+3,i+GetFontYSIZE(9)+2,9,0,ctasks,GetPaletteAdrByColorIndex(23));
   \   00001994   1700A0E3           MOV      R0,#+23
   \   00001998   2E0100EF           SWI      +302
   \   0000199C   00B0A0E1           MOV      R11,R0
   \   000019A0   0900A0E3           MOV      R0,#+9
   \   000019A4   C50100EF           SWI      +453
   \   000019A8   00082DE9           PUSH     {R11}
   \   000019AC   0510A0E1           MOV      R1,R5
   \   000019B0   02002DE9           PUSH     {R1}
   \   000019B4   080080E0           ADD      R0,R0,R8
   \   000019B8   020080E2           ADD      R0,R0,#+2
   \   000019BC   7B308AE2           ADD      R3,R10,#+123
   \   000019C0   0010A0E3           MOV      R1,#+0
   \   000019C4   02002DE9           PUSH     {R1}
   \   000019C8   012088E2           ADD      R2,R8,#+1
   1213                  SearchIcon(ws, i, 1, NULL, NULL, NULL);
   1214                  show++;
   \   000019CC   017087E2           ADD      R7,R7,#+1
   \   000019D0   0910A0E3           MOV      R1,#+9
   \   000019D4   02002DE9           PUSH     {R1}
   \   000019D8   01002DE9           PUSH     {R0}
   \   000019DC   78106AE2           RSB      R1,R10,#+120
   \   000019E0   0400A0E1           MOV      R0,R4
   \   000019E4   4C0100EF           SWI      +332
   \   000019E8   0000A0E3           MOV      R0,#+0
   \   000019EC   01002DE9           PUSH     {R0}
   \   000019F0   01002DE9           PUSH     {R0}
   \   000019F4   0030A0E3           MOV      R3,#+0
   \   000019F8   0120A0E3           MOV      R2,#+1
   \   000019FC   0810A0E1           MOV      R1,R8
   \   00001A00   0400A0E1           MOV      R0,R4
   \   00001A04   ........           BL       SearchIcon
   1215                  i=i+20;
   \   00001A08   148088E2           ADD      R8,R8,#+20
   \   00001A0C   1CD08DE2           ADD      SP,SP,#+28
   \   00001A10   0E0000EA           B        ??OnRedraw_80
   \                     ??OnRedraw_37:
   \   00001A14   ........           DC32     BM3NAME
   \   00001A18   ........           DC32     BM4NAME
   \   00001A1C   ........           DC32     BM5NAME
   \   00001A20   ........           DC32     BM6NAME
   \   00001A24   ........           DC32     BM7NAME
   \   00001A28   ........           DC32     BM8NAME
   \   00001A2C   ........           DC32     BM9NAME
   \   00001A30   ........           DC32     BM0NAME
   \   00001A34   ........           DC32     BM11NAME
   \   00001A38   ........           DC32     BM12NAME
   \   00001A3C   ........           DC32     BM13NAME
   \   00001A40   ........           DC32     BM14NAME
   \   00001A44   ........           DC32     BM15NAME
   1216              }
   1217              else
   1218                skip--;
   \                     ??OnRedraw_79:
   \   00001A48   019059E2           SUBS     R9,R9,#+1
   1219              if((!skip)&&(book_show>=24)&&(show<5))
   \   00001A4C   2C00001A           BNE      ??OnRedraw_81
   \                     ??OnRedraw_80:
   \   00001A50   000096E5           LDR      R0,[R6, #+0]
   \   00001A54   180050E3           CMP      R0,#+24
   \   00001A58   290000BA           BLT      ??OnRedraw_81
   \   00001A5C   050057E3           CMP      R7,#+5
   \   00001A60   270000AA           BGE      ??OnRedraw_81
   1220              {
   1221                  wsprintf(ws, BM24NAME);
   \   00001A64   ........           LDR      R1,??DataTable81  ;; BM24NAME
   \   00001A68   0400A0E1           MOV      R0,R4
   \   00001A6C   240100EF           SWI      +292
   1222                //  DrawString(ws,17,i+1,115,i+GetFontYSIZE(11)+2,11,0,ctasks,GetPaletteAdrByColorIndex(23));
   1223                  len=Get_WS_width(ws,9)/2;
   \   00001A70   0910A0E3           MOV      R1,#+9
   \   00001A74   0400A0E1           MOV      R0,R4
   \   00001A78   080200EF           SWI      +520
   \   00001A7C   A00F80E0           ADD      R0,R0,R0, LSR #+31
   \   00001A80   C0A0A0E1           ASR      R10,R0,#+1
   1224                  DrawString(ws,120-len,i+1,120+len+3,i+GetFontYSIZE(9)+2,9,0,ctasks,GetPaletteAdrByColorIndex(23));
   \   00001A84   1700A0E3           MOV      R0,#+23
   \   00001A88   2E0100EF           SWI      +302
   \   00001A8C   00B0A0E1           MOV      R11,R0
   \   00001A90   0900A0E3           MOV      R0,#+9
   \   00001A94   C50100EF           SWI      +453
   \   00001A98   00082DE9           PUSH     {R11}
   \   00001A9C   0510A0E1           MOV      R1,R5
   \   00001AA0   02002DE9           PUSH     {R1}
   \   00001AA4   080080E0           ADD      R0,R0,R8
   \   00001AA8   020080E2           ADD      R0,R0,#+2
   \   00001AAC   7B308AE2           ADD      R3,R10,#+123
   \   00001AB0   0010A0E3           MOV      R1,#+0
   \   00001AB4   02002DE9           PUSH     {R1}
   \   00001AB8   012088E2           ADD      R2,R8,#+1
   1225                  SearchIcon(ws, i, 1, NULL, NULL, NULL);
   1226                  show++;
   \   00001ABC   017087E2           ADD      R7,R7,#+1
   \   00001AC0   0910A0E3           MOV      R1,#+9
   \   00001AC4   02002DE9           PUSH     {R1}
   \   00001AC8   01002DE9           PUSH     {R0}
   \   00001ACC   78106AE2           RSB      R1,R10,#+120
   \   00001AD0   0400A0E1           MOV      R0,R4
   \   00001AD4   4C0100EF           SWI      +332
   \   00001AD8   0000A0E3           MOV      R0,#+0
   \   00001ADC   01002DE9           PUSH     {R0}
   \   00001AE0   01002DE9           PUSH     {R0}
   \   00001AE4   0030A0E3           MOV      R3,#+0
   \   00001AE8   0120A0E3           MOV      R2,#+1
   \   00001AEC   0810A0E1           MOV      R1,R8
   \   00001AF0   0400A0E1           MOV      R0,R4
   \   00001AF4   ........           BL       SearchIcon
   1227                  i=i+20;
   \   00001AF8   148088E2           ADD      R8,R8,#+20
   \   00001AFC   1CD08DE2           ADD      SP,SP,#+28
   \   00001B00   010000EA           B        ??OnRedraw_82
   1228              }
   1229              else
   1230                skip--;
   \                     ??OnRedraw_81:
   \   00001B04   019059E2           SUBS     R9,R9,#+1
   1231              if((!skip)&&(book_show>=25)&&(show<5))
   \   00001B08   2C00001A           BNE      ??OnRedraw_83
   \                     ??OnRedraw_82:
   \   00001B0C   000096E5           LDR      R0,[R6, #+0]
   \   00001B10   190050E3           CMP      R0,#+25
   \   00001B14   290000BA           BLT      ??OnRedraw_83
   \   00001B18   050057E3           CMP      R7,#+5
   \   00001B1C   270000AA           BGE      ??OnRedraw_83
   1232              {
   1233                  wsprintf(ws, BM25NAME);
   \   00001B20   ........           LDR      R1,??DataTable82  ;; BM25NAME
   \   00001B24   0400A0E1           MOV      R0,R4
   \   00001B28   240100EF           SWI      +292
   1234                //  DrawString(ws,17,i+1,115,i+GetFontYSIZE(11)+2,11,0,ctasks,GetPaletteAdrByColorIndex(23));
   1235                  len=Get_WS_width(ws,9)/2;
   \   00001B2C   0910A0E3           MOV      R1,#+9
   \   00001B30   0400A0E1           MOV      R0,R4
   \   00001B34   080200EF           SWI      +520
   \   00001B38   A00F80E0           ADD      R0,R0,R0, LSR #+31
   \   00001B3C   C0A0A0E1           ASR      R10,R0,#+1
   1236                  DrawString(ws,120-len,i+1,120+len+3,i+GetFontYSIZE(9)+2,9,0,ctasks,GetPaletteAdrByColorIndex(23));
   \   00001B40   1700A0E3           MOV      R0,#+23
   \   00001B44   2E0100EF           SWI      +302
   \   00001B48   00B0A0E1           MOV      R11,R0
   \   00001B4C   0900A0E3           MOV      R0,#+9
   \   00001B50   C50100EF           SWI      +453
   \   00001B54   00082DE9           PUSH     {R11}
   \   00001B58   0510A0E1           MOV      R1,R5
   \   00001B5C   02002DE9           PUSH     {R1}
   \   00001B60   080080E0           ADD      R0,R0,R8
   \   00001B64   020080E2           ADD      R0,R0,#+2
   \   00001B68   7B308AE2           ADD      R3,R10,#+123
   \   00001B6C   0010A0E3           MOV      R1,#+0
   \   00001B70   02002DE9           PUSH     {R1}
   \   00001B74   012088E2           ADD      R2,R8,#+1
   1237                  SearchIcon(ws, i, 1, NULL, NULL, NULL);
   1238                  show++;
   \   00001B78   017087E2           ADD      R7,R7,#+1
   \   00001B7C   0910A0E3           MOV      R1,#+9
   \   00001B80   02002DE9           PUSH     {R1}
   \   00001B84   01002DE9           PUSH     {R0}
   \   00001B88   78106AE2           RSB      R1,R10,#+120
   \   00001B8C   0400A0E1           MOV      R0,R4
   \   00001B90   4C0100EF           SWI      +332
   \   00001B94   0000A0E3           MOV      R0,#+0
   \   00001B98   01002DE9           PUSH     {R0}
   \   00001B9C   01002DE9           PUSH     {R0}
   \   00001BA0   0030A0E3           MOV      R3,#+0
   \   00001BA4   0120A0E3           MOV      R2,#+1
   \   00001BA8   0810A0E1           MOV      R1,R8
   \   00001BAC   0400A0E1           MOV      R0,R4
   \   00001BB0   ........           BL       SearchIcon
   1239                  i=i+20;
   \   00001BB4   148088E2           ADD      R8,R8,#+20
   \   00001BB8   1CD08DE2           ADD      SP,SP,#+28
   \   00001BBC   010000EA           B        ??OnRedraw_84
   1240              }
   1241              else
   1242                skip--;
   \                     ??OnRedraw_83:
   \   00001BC0   019059E2           SUBS     R9,R9,#+1
   1243              if((!skip)&&(book_show>=26)&&(show<5))
   \   00001BC4   2C00001A           BNE      ??OnRedraw_85
   \                     ??OnRedraw_84:
   \   00001BC8   000096E5           LDR      R0,[R6, #+0]
   \   00001BCC   1A0050E3           CMP      R0,#+26
   \   00001BD0   290000BA           BLT      ??OnRedraw_85
   \   00001BD4   050057E3           CMP      R7,#+5
   \   00001BD8   270000AA           BGE      ??OnRedraw_85
   1244              {
   1245                  wsprintf(ws, BM26NAME);
   \   00001BDC   ........           LDR      R1,??DataTable83  ;; BM26NAME
   \   00001BE0   0400A0E1           MOV      R0,R4
   \   00001BE4   240100EF           SWI      +292
   1246                //  DrawString(ws,17,i+1,115,i+GetFontYSIZE(11)+2,11,0,ctasks,GetPaletteAdrByColorIndex(23));
   1247                  len=Get_WS_width(ws,9)/2;
   \   00001BE8   0910A0E3           MOV      R1,#+9
   \   00001BEC   0400A0E1           MOV      R0,R4
   \   00001BF0   080200EF           SWI      +520
   \   00001BF4   A00F80E0           ADD      R0,R0,R0, LSR #+31
   \   00001BF8   C0A0A0E1           ASR      R10,R0,#+1
   1248                  DrawString(ws,120-len,i+1,120+len+3,i+GetFontYSIZE(9)+2,9,0,ctasks,GetPaletteAdrByColorIndex(23));
   \   00001BFC   1700A0E3           MOV      R0,#+23
   \   00001C00   2E0100EF           SWI      +302
   \   00001C04   00B0A0E1           MOV      R11,R0
   \   00001C08   0900A0E3           MOV      R0,#+9
   \   00001C0C   C50100EF           SWI      +453
   \   00001C10   00082DE9           PUSH     {R11}
   \   00001C14   0510A0E1           MOV      R1,R5
   \   00001C18   02002DE9           PUSH     {R1}
   \   00001C1C   080080E0           ADD      R0,R0,R8
   \   00001C20   020080E2           ADD      R0,R0,#+2
   \   00001C24   7B308AE2           ADD      R3,R10,#+123
   \   00001C28   0010A0E3           MOV      R1,#+0
   \   00001C2C   02002DE9           PUSH     {R1}
   \   00001C30   012088E2           ADD      R2,R8,#+1
   1249                  SearchIcon(ws, i, 1, NULL, NULL, NULL);
   1250                  show++;
   \   00001C34   017087E2           ADD      R7,R7,#+1
   \   00001C38   0910A0E3           MOV      R1,#+9
   \   00001C3C   02002DE9           PUSH     {R1}
   \   00001C40   01002DE9           PUSH     {R0}
   \   00001C44   78106AE2           RSB      R1,R10,#+120
   \   00001C48   0400A0E1           MOV      R0,R4
   \   00001C4C   4C0100EF           SWI      +332
   \   00001C50   0000A0E3           MOV      R0,#+0
   \   00001C54   01002DE9           PUSH     {R0}
   \   00001C58   01002DE9           PUSH     {R0}
   \   00001C5C   0030A0E3           MOV      R3,#+0
   \   00001C60   0120A0E3           MOV      R2,#+1
   \   00001C64   0810A0E1           MOV      R1,R8
   \   00001C68   0400A0E1           MOV      R0,R4
   \   00001C6C   ........           BL       SearchIcon
   1251                  i=i+20;
   \   00001C70   148088E2           ADD      R8,R8,#+20
   \   00001C74   1CD08DE2           ADD      SP,SP,#+28
   \   00001C78   010000EA           B        ??OnRedraw_86
   1252              }
   1253              else
   1254                skip--;
   \                     ??OnRedraw_85:
   \   00001C7C   019059E2           SUBS     R9,R9,#+1
   1255              if((!skip)&&(book_show>=27)&&(show<5))
   \   00001C80   2C00001A           BNE      ??OnRedraw_87
   \                     ??OnRedraw_86:
   \   00001C84   000096E5           LDR      R0,[R6, #+0]
   \   00001C88   1B0050E3           CMP      R0,#+27
   \   00001C8C   290000BA           BLT      ??OnRedraw_87
   \   00001C90   050057E3           CMP      R7,#+5
   \   00001C94   270000AA           BGE      ??OnRedraw_87
   1256              {
   1257                  wsprintf(ws, BM27NAME);
   \   00001C98   ........           LDR      R1,??DataTable84  ;; BM27NAME
   \   00001C9C   0400A0E1           MOV      R0,R4
   \   00001CA0   240100EF           SWI      +292
   1258                //  DrawString(ws,17,i+1,115,i+GetFontYSIZE(11)+2,11,0,ctasks,GetPaletteAdrByColorIndex(23));
   1259                  len=Get_WS_width(ws,9)/2;
   \   00001CA4   0910A0E3           MOV      R1,#+9
   \   00001CA8   0400A0E1           MOV      R0,R4
   \   00001CAC   080200EF           SWI      +520
   \   00001CB0   A00F80E0           ADD      R0,R0,R0, LSR #+31
   \   00001CB4   C0A0A0E1           ASR      R10,R0,#+1
   1260                  DrawString(ws,120-len,i+1,120+len+3,i+GetFontYSIZE(9)+2,9,0,ctasks,GetPaletteAdrByColorIndex(23));
   \   00001CB8   1700A0E3           MOV      R0,#+23
   \   00001CBC   2E0100EF           SWI      +302
   \   00001CC0   00B0A0E1           MOV      R11,R0
   \   00001CC4   0900A0E3           MOV      R0,#+9
   \   00001CC8   C50100EF           SWI      +453
   \   00001CCC   00082DE9           PUSH     {R11}
   \   00001CD0   0510A0E1           MOV      R1,R5
   \   00001CD4   02002DE9           PUSH     {R1}
   \   00001CD8   080080E0           ADD      R0,R0,R8
   \   00001CDC   020080E2           ADD      R0,R0,#+2
   \   00001CE0   7B308AE2           ADD      R3,R10,#+123
   \   00001CE4   0010A0E3           MOV      R1,#+0
   \   00001CE8   02002DE9           PUSH     {R1}
   \   00001CEC   012088E2           ADD      R2,R8,#+1
   1261                  SearchIcon(ws, i, 1, NULL, NULL, NULL);
   1262                  show++;
   \   00001CF0   017087E2           ADD      R7,R7,#+1
   \   00001CF4   0910A0E3           MOV      R1,#+9
   \   00001CF8   02002DE9           PUSH     {R1}
   \   00001CFC   01002DE9           PUSH     {R0}
   \   00001D00   78106AE2           RSB      R1,R10,#+120
   \   00001D04   0400A0E1           MOV      R0,R4
   \   00001D08   4C0100EF           SWI      +332
   \   00001D0C   0000A0E3           MOV      R0,#+0
   \   00001D10   01002DE9           PUSH     {R0}
   \   00001D14   01002DE9           PUSH     {R0}
   \   00001D18   0030A0E3           MOV      R3,#+0
   \   00001D1C   0120A0E3           MOV      R2,#+1
   \   00001D20   0810A0E1           MOV      R1,R8
   \   00001D24   0400A0E1           MOV      R0,R4
   \   00001D28   ........           BL       SearchIcon
   1263                  i=i+20;
   \   00001D2C   148088E2           ADD      R8,R8,#+20
   \   00001D30   1CD08DE2           ADD      SP,SP,#+28
   \   00001D34   010000EA           B        ??OnRedraw_88
   1264              }
   1265              else
   1266                skip--;
   \                     ??OnRedraw_87:
   \   00001D38   019059E2           SUBS     R9,R9,#+1
   1267              if((!skip)&&(book_show>=28)&&(show<5))
   \   00001D3C   2C00001A           BNE      ??OnRedraw_89
   \                     ??OnRedraw_88:
   \   00001D40   000096E5           LDR      R0,[R6, #+0]
   \   00001D44   1C0050E3           CMP      R0,#+28
   \   00001D48   290000BA           BLT      ??OnRedraw_89
   \   00001D4C   050057E3           CMP      R7,#+5
   \   00001D50   270000AA           BGE      ??OnRedraw_89
   1268              {
   1269                  wsprintf(ws, BM28NAME);
   \   00001D54   ........           LDR      R1,??DataTable85  ;; BM28NAME
   \   00001D58   0400A0E1           MOV      R0,R4
   \   00001D5C   240100EF           SWI      +292
   1270                //  DrawString(ws,17,i+1,115,i+GetFontYSIZE(11)+2,11,0,ctasks,GetPaletteAdrByColorIndex(23));
   1271                  len=Get_WS_width(ws,9)/2;
   \   00001D60   0910A0E3           MOV      R1,#+9
   \   00001D64   0400A0E1           MOV      R0,R4
   \   00001D68   080200EF           SWI      +520
   \   00001D6C   A00F80E0           ADD      R0,R0,R0, LSR #+31
   \   00001D70   C0A0A0E1           ASR      R10,R0,#+1
   1272                  DrawString(ws,120-len,i+1,120+len+3,i+GetFontYSIZE(9)+2,9,0,ctasks,GetPaletteAdrByColorIndex(23));
   \   00001D74   1700A0E3           MOV      R0,#+23
   \   00001D78   2E0100EF           SWI      +302
   \   00001D7C   00B0A0E1           MOV      R11,R0
   \   00001D80   0900A0E3           MOV      R0,#+9
   \   00001D84   C50100EF           SWI      +453
   \   00001D88   00082DE9           PUSH     {R11}
   \   00001D8C   0510A0E1           MOV      R1,R5
   \   00001D90   02002DE9           PUSH     {R1}
   \   00001D94   080080E0           ADD      R0,R0,R8
   \   00001D98   020080E2           ADD      R0,R0,#+2
   \   00001D9C   7B308AE2           ADD      R3,R10,#+123
   \   00001DA0   0010A0E3           MOV      R1,#+0
   \   00001DA4   02002DE9           PUSH     {R1}
   \   00001DA8   012088E2           ADD      R2,R8,#+1
   1273                  SearchIcon(ws, i, 1, NULL, NULL, NULL);
   1274                  show++;
   \   00001DAC   017087E2           ADD      R7,R7,#+1
   \   00001DB0   0910A0E3           MOV      R1,#+9
   \   00001DB4   02002DE9           PUSH     {R1}
   \   00001DB8   01002DE9           PUSH     {R0}
   \   00001DBC   78106AE2           RSB      R1,R10,#+120
   \   00001DC0   0400A0E1           MOV      R0,R4
   \   00001DC4   4C0100EF           SWI      +332
   \   00001DC8   0000A0E3           MOV      R0,#+0
   \   00001DCC   01002DE9           PUSH     {R0}
   \   00001DD0   01002DE9           PUSH     {R0}
   \   00001DD4   0030A0E3           MOV      R3,#+0
   \   00001DD8   0120A0E3           MOV      R2,#+1
   \   00001DDC   0810A0E1           MOV      R1,R8
   \   00001DE0   0400A0E1           MOV      R0,R4
   \   00001DE4   ........           BL       SearchIcon
   1275                  i=i+20;
   \   00001DE8   148088E2           ADD      R8,R8,#+20
   \   00001DEC   1CD08DE2           ADD      SP,SP,#+28
   \   00001DF0   010000EA           B        ??OnRedraw_90
   1276              }
   1277              else
   1278                skip--;
   \                     ??OnRedraw_89:
   \   00001DF4   019059E2           SUBS     R9,R9,#+1
   1279              if((!skip)&&(book_show>=29)&&(show<5))
   \   00001DF8   2C00001A           BNE      ??OnRedraw_91
   \                     ??OnRedraw_90:
   \   00001DFC   000096E5           LDR      R0,[R6, #+0]
   \   00001E00   1D0050E3           CMP      R0,#+29
   \   00001E04   290000BA           BLT      ??OnRedraw_91
   \   00001E08   050057E3           CMP      R7,#+5
   \   00001E0C   270000AA           BGE      ??OnRedraw_91
   1280              {
   1281                  wsprintf(ws, BM29NAME);
   \   00001E10   ........           LDR      R1,??DataTable86  ;; BM29NAME
   \   00001E14   0400A0E1           MOV      R0,R4
   \   00001E18   240100EF           SWI      +292
   1282                //  DrawString(ws,17,i+1,115,i+GetFontYSIZE(11)+2,11,0,ctasks,GetPaletteAdrByColorIndex(23));
   1283                  len=Get_WS_width(ws,9)/2;
   \   00001E1C   0910A0E3           MOV      R1,#+9
   \   00001E20   0400A0E1           MOV      R0,R4
   \   00001E24   080200EF           SWI      +520
   \   00001E28   A00F80E0           ADD      R0,R0,R0, LSR #+31
   \   00001E2C   C0A0A0E1           ASR      R10,R0,#+1
   1284                  DrawString(ws,120-len,i+1,120+len+3,i+GetFontYSIZE(9)+2,9,0,ctasks,GetPaletteAdrByColorIndex(23));
   \   00001E30   1700A0E3           MOV      R0,#+23
   \   00001E34   2E0100EF           SWI      +302
   \   00001E38   0090A0E1           MOV      R9,R0
   \   00001E3C   0900A0E3           MOV      R0,#+9
   \   00001E40   C50100EF           SWI      +453
   \   00001E44   00022DE9           PUSH     {R9}
   \   00001E48   0510A0E1           MOV      R1,R5
   \   00001E4C   02002DE9           PUSH     {R1}
   \   00001E50   080080E0           ADD      R0,R0,R8
   \   00001E54   020080E2           ADD      R0,R0,#+2
   \   00001E58   7B308AE2           ADD      R3,R10,#+123
   \   00001E5C   0010A0E3           MOV      R1,#+0
   \   00001E60   02002DE9           PUSH     {R1}
   \   00001E64   012088E2           ADD      R2,R8,#+1
   1285                  SearchIcon(ws, i, 1, NULL, NULL, NULL);
   1286                  show++;
   \   00001E68   017087E2           ADD      R7,R7,#+1
   \   00001E6C   0910A0E3           MOV      R1,#+9
   \   00001E70   02002DE9           PUSH     {R1}
   \   00001E74   01002DE9           PUSH     {R0}
   \   00001E78   78106AE2           RSB      R1,R10,#+120
   \   00001E7C   0400A0E1           MOV      R0,R4
   \   00001E80   4C0100EF           SWI      +332
   \   00001E84   0000A0E3           MOV      R0,#+0
   \   00001E88   01002DE9           PUSH     {R0}
   \   00001E8C   01002DE9           PUSH     {R0}
   \   00001E90   0030A0E3           MOV      R3,#+0
   \   00001E94   0120A0E3           MOV      R2,#+1
   \   00001E98   0810A0E1           MOV      R1,R8
   \   00001E9C   0400A0E1           MOV      R0,R4
   \   00001EA0   ........           BL       SearchIcon
   1287                  i=i+20;
   \   00001EA4   148088E2           ADD      R8,R8,#+20
   \   00001EA8   1CD08DE2           ADD      SP,SP,#+28
   \   00001EAC   010000EA           B        ??OnRedraw_92
   1288              }
   1289              else
   1290                skip--;
   1291              if((!skip)&&(book_show>=30)&&(show<5))
   \                     ??OnRedraw_91:
   \   00001EB0   010059E2           SUBS     R0,R9,#+1
   \   00001EB4   2800001A           BNE      ??OnRedraw_93
   \                     ??OnRedraw_92:
   \   00001EB8   000096E5           LDR      R0,[R6, #+0]
   \   00001EBC   1E0050E3           CMP      R0,#+30
   \   00001EC0   250000BA           BLT      ??OnRedraw_93
   \   00001EC4   050057E3           CMP      R7,#+5
   \   00001EC8   230000AA           BGE      ??OnRedraw_93
   1292              {
   1293                  wsprintf(ws, BM30NAME);
   \   00001ECC   ........           LDR      R1,??DataTable87  ;; BM30NAME
   \   00001ED0   0400A0E1           MOV      R0,R4
   \   00001ED4   240100EF           SWI      +292
   1294                //  DrawString(ws,17,i+1,115,i+GetFontYSIZE(11)+2,11,0,ctasks,GetPaletteAdrByColorIndex(23));
   1295                  len=Get_WS_width(ws,9)/2;
   \   00001ED8   0910A0E3           MOV      R1,#+9
   \   00001EDC   0400A0E1           MOV      R0,R4
   \   00001EE0   080200EF           SWI      +520
   \   00001EE4   A00F80E0           ADD      R0,R0,R0, LSR #+31
   \   00001EE8   C0A0A0E1           ASR      R10,R0,#+1
   1296                  DrawString(ws,120-len,i+1,120+len+3,i+GetFontYSIZE(9)+2,9,0,ctasks,GetPaletteAdrByColorIndex(23));
   \   00001EEC   1700A0E3           MOV      R0,#+23
   \   00001EF0   2E0100EF           SWI      +302
   \   00001EF4   0070A0E1           MOV      R7,R0
   \   00001EF8   0900A0E3           MOV      R0,#+9
   \   00001EFC   C50100EF           SWI      +453
   \   00001F00   80002DE9           PUSH     {R7}
   \   00001F04   20002DE9           PUSH     {R5}
   \   00001F08   0010A0E3           MOV      R1,#+0
   \   00001F0C   02002DE9           PUSH     {R1}
   \   00001F10   080080E0           ADD      R0,R0,R8
   \   00001F14   020080E2           ADD      R0,R0,#+2
   \   00001F18   7B308AE2           ADD      R3,R10,#+123
   \   00001F1C   0910A0E3           MOV      R1,#+9
   \   00001F20   02002DE9           PUSH     {R1}
   \   00001F24   01002DE9           PUSH     {R0}
   \   00001F28   012088E2           ADD      R2,R8,#+1
   \   00001F2C   78106AE2           RSB      R1,R10,#+120
   \   00001F30   0400A0E1           MOV      R0,R4
   \   00001F34   4C0100EF           SWI      +332
   1297                  SearchIcon(ws, i, 1, NULL, NULL, NULL);
   \   00001F38   0000A0E3           MOV      R0,#+0
   \   00001F3C   01002DE9           PUSH     {R0}
   \   00001F40   01002DE9           PUSH     {R0}
   \   00001F44   0030A0E3           MOV      R3,#+0
   \   00001F48   0120A0E3           MOV      R2,#+1
   \   00001F4C   0810A0E1           MOV      R1,R8
   \   00001F50   0400A0E1           MOV      R0,R4
   \   00001F54   ........           BL       SearchIcon
   1298                  show++;
   1299                  i=i+20;
   \   00001F58   1CD08DE2           ADD      SP,SP,#+28
   1300              }
   1301              else
   1302                skip--;
   1303          #else
   1304              if((!skip)&&(book_show>=1)&&(show<5))
   1305              {
   1306                  wsprintf(ws, BM1NAME);
   1307                //  DrawString(ws,17,i+1,115,i+GetFontYSIZE(11)+2,11,0,ctasks,GetPaletteAdrByColorIndex(23));
   1308                  len=Get_WS_width(ws,font)/2;
   1309                  DrawString(ws,66-len,i+1,66+len,i+GetFontYSIZE(font)+2,font,0,ctasks,GetPaletteAdrByColorIndex(23));
   1310                  SearchIcon(ws, i, 1, NULL, NULL, NULL);
   1311                  show++;
   1312                  i=i+12;
   1313              }
   1314              else
   1315                skip--;
   1316              if((!skip)&&(book_show>=2)&&(show<5))
   1317              {
   1318                  wsprintf(ws, BM2NAME);
   1319                  len=Get_WS_width(ws,font)/2;
   1320                  DrawString(ws,66-len,i+1,66+len,i+GetFontYSIZE(font)+2,font,0,ctasks,GetPaletteAdrByColorIndex(23));
   1321                  SearchIcon(ws, i, 1, NULL, NULL, NULL);
   1322                  show++;
   1323                  i=i+12;
   1324              }
   1325              else
   1326                skip--;
   1327              if((!skip)&&(book_show>=3)&&(show<5))
   1328              {
   1329                  wsprintf(ws, BM3NAME);
   1330                  len=Get_WS_width(ws,font)/2;
   1331                  DrawString(ws,66-len,i+1,66+len,i+GetFontYSIZE(font)+2,font,0,ctasks,GetPaletteAdrByColorIndex(23));
   1332                  SearchIcon(ws, i, 1, NULL, NULL, NULL);
   1333                  show++;
   1334                  i=i+12;
   1335              }
   1336              else
   1337                skip--;
   1338              if((!skip)&&(book_show>=4)&&(show<5))
   1339              {
   1340                  wsprintf(ws, BM4NAME);
   1341                  len=Get_WS_width(ws,font)/2;
   1342                  DrawString(ws,66-len,i+1,66+len,i+GetFontYSIZE(font)+2,font,0,ctasks,GetPaletteAdrByColorIndex(23));
   1343                  SearchIcon(ws, i ,1, NULL, NULL, NULL);
   1344                  show++;
   1345                  i=i+12;
   1346              }
   1347              else
   1348                skip--;
   1349              if((!skip)&&(book_show>=5)&&(show<5))
   1350              {
   1351                  wsprintf(ws, BM5NAME);
   1352                  len=Get_WS_width(ws,font)/2;
   1353                  DrawString(ws,66-len,i+1,66+len,i+GetFontYSIZE(font)+2,font,0,ctasks,GetPaletteAdrByColorIndex(23));
   1354                  SearchIcon(ws, i, 1, NULL, NULL, NULL);
   1355                  show++;
   1356                  i=i+12;
   1357              }
   1358              else
   1359                skip--;
   1360              if((!skip)&&(book_show>=6)&&(show<5))
   1361              {
   1362                  wsprintf(ws, BM6NAME);
   1363                  len=Get_WS_width(ws,font)/2;
   1364                  DrawString(ws,66-len,i+1,66+len,i+GetFontYSIZE(font)+2,font,0,ctasks,GetPaletteAdrByColorIndex(23));
   1365                  SearchIcon(ws, i, 1, NULL, NULL, NULL);
   1366                  show++;
   1367                  i=i+12;
   1368              }
   1369              else
   1370                skip--;
   1371              if((!skip)&&(book_show>=7)&&(show<5))
   1372              {
   1373                  wsprintf(ws, BM7NAME);
   1374                  len=Get_WS_width(ws,font)/2;
   1375                  DrawString(ws,66-len,i+1,66+len,i+GetFontYSIZE(font)+2,font,0,ctasks,GetPaletteAdrByColorIndex(23));
   1376                  SearchIcon(ws, i, 1, NULL, NULL, NULL);
   1377                  show++;
   1378                  i=i+12;
   1379              }
   1380              else
   1381                skip--;
   1382              if((!skip)&&(book_show>=8)&&(show<5))
   1383              {
   1384                  wsprintf(ws, BM8NAME);
   1385                  len=Get_WS_width(ws,font)/2;
   1386                  DrawString(ws,66-len,i+1,66+len,i+GetFontYSIZE(font)+2,font,0,ctasks,GetPaletteAdrByColorIndex(23));
   1387                  SearchIcon(ws, i, 1, NULL, NULL, NULL);
   1388                  show++;
   1389                  i=i+12;
   1390              }
   1391              else
   1392                skip--;
   1393              if((!skip)&&(book_show>=9)&&(show<5))
   1394              {
   1395                  wsprintf(ws, BM9NAME);
   1396                  len=Get_WS_width(ws,font)/2;
   1397                  DrawString(ws,66-len,i+1,66+len,i+GetFontYSIZE(font)+2,font,0,ctasks,GetPaletteAdrByColorIndex(23));
   1398                  SearchIcon(ws, i, 1, NULL, NULL, NULL);
   1399                  show++;
   1400                  i=i+12;
   1401              }
   1402              else
   1403                skip--;
   1404              if((!skip)&&(book_show>=10)&&(show<5))
   1405              {
   1406                  wsprintf(ws, BM0NAME);
   1407                  len=Get_WS_width(ws,font)/2;
   1408                  DrawString(ws,66-len,i+1,66+len,i+GetFontYSIZE(font)+2,font,0,ctasks,GetPaletteAdrByColorIndex(23));
   1409                  SearchIcon(ws, i, 1, NULL, NULL, NULL);
   1410                  show++;
   1411                  i=i+12;
   1412              }
   1413              else
   1414                skip--;
   1415          #endif
   1416              DrawSideProgresbar(book_show, total_pos);
   \                     ??OnRedraw_93:
   \   00001F5C   ........           LDR      R0,??DataTable115  ;; total_pos
   \   00001F60   001090E5           LDR      R1,[R0, #+0]
   \   00001F64   000096E5           LDR      R0,[R6, #+0]
   \   00001F68   ........           BL       DrawSideProgresbar
   1417              DrawCPU();
   \   00001F6C   ........           BL       DrawCPU
   1418              if(time_not)
   \   00001F70   ........           LDR      R0,??DataTable118  ;; time_not
   \   00001F74   000090E5           LDR      R0,[R0, #+0]
   \   00001F78   000050E3           CMP      R0,#+0
   \   00001F7C   4A00000A           BEQ      ??OnRedraw_94
   1419            {
   1420          #ifdef ELKA
   1421          //    if(!style) wsprintf(ws, "Tasks:%d", tasks);
   1422            wsprintf(ws, "%d", tasks);
   \   00001F80   F8059FE5           LDR      R0,??OnRedraw_71+0x10  ;; tasks
   \   00001F84   961F8FE2           ADR      R1,??OnRedraw_64  ;; "%d"
   \   00001F88   002090E5           LDR      R2,[R0, #+0]
   \   00001F8C   0400A0E1           MOV      R0,R4
   \   00001F90   240100EF           SWI      +292
   1423            DrwImage(37, 203, task_img,0,0);
   \   00001F94   0000A0E3           MOV      R0,#+0
   \   00001F98   01002DE9           PUSH     {R0}
   \   00001F9C   ........           LDR      R0,??DataTable102  ;; task_img
   \   00001FA0   0030A0E3           MOV      R3,#+0
   \   00001FA4   002090E5           LDR      R2,[R0, #+0]
   \   00001FA8   CB10A0E3           MOV      R1,#+203
   \   00001FAC   2500A0E3           MOV      R0,#+37
   \   00001FB0   ........           BL       DrwImage
   1424            DrawString(ws,56,202,56+Get_WS_width(ws,9)+3,202+GetFontYSIZE(9)+1,9,0,cinfo,GetPaletteAdrByColorIndex(23));
   \   00001FB4   1700A0E3           MOV      R0,#+23
   \   00001FB8   2E0100EF           SWI      +302
   \   00001FBC   0050A0E1           MOV      R5,R0
   \   00001FC0   0900A0E3           MOV      R0,#+9
   \   00001FC4   C50100EF           SWI      +453
   \   00001FC8   0060A0E1           MOV      R6,R0
   \   00001FCC   0910A0E3           MOV      R1,#+9
   \   00001FD0   0400A0E1           MOV      R0,R4
   \   00001FD4   080200EF           SWI      +520
   \   00001FD8   ........           LDR      R1,??DataTable108  ;; cinfo
   \   00001FDC   20002DE9           PUSH     {R5}
   \   00001FE0   02002DE9           PUSH     {R1}
   \   00001FE4   3B3080E2           ADD      R3,R0,#+59
   \   00001FE8   CA20A0E3           MOV      R2,#+202
   \   00001FEC   0400A0E1           MOV      R0,R4
   \   00001FF0   0010A0E3           MOV      R1,#+0
   \   00001FF4   02002DE9           PUSH     {R1}
   \   00001FF8   0910A0E3           MOV      R1,#+9
   \   00001FFC   02002DE9           PUSH     {R1}
   \   00002000   CB1086E2           ADD      R1,R6,#+203
   \   00002004   02002DE9           PUSH     {R1}
   \   00002008   3810A0E3           MOV      R1,#+56
   \   0000200C   4C0100EF           SWI      +332
   1425            int ram = GetFreeRamAvail();
   \   00002010   5F0000EF           SWI      +95
   1426            ram=ram/1024;
   1427            wsprintf(ws,"%dKb", ram);
   \   00002014   C014A0E1           ASR      R1,R0,#+9
   \   00002018   210B80E0           ADD      R0,R0,R1, LSR #+22
   \   0000201C   60159FE5           LDR      R1,??OnRedraw_71+0x14  ;; `?<Constant "%dKb">`
   \   00002020   4025A0E1           ASR      R2,R0,#+10
   \   00002024   0400A0E1           MOV      R0,R4
   \   00002028   240100EF           SWI      +292
   1428            DrawString(ws,204-Get_WS_width(ws,9),202,207,202+GetFontYSIZE(9)+1,9,0,cinfo,GetPaletteAdrByColorIndex(23));
   \   0000202C   1700A0E3           MOV      R0,#+23
   \   00002030   2E0100EF           SWI      +302
   \   00002034   0050A0E1           MOV      R5,R0
   \   00002038   0900A0E3           MOV      R0,#+9
   \   0000203C   C50100EF           SWI      +453
   \   00002040   0060A0E1           MOV      R6,R0
   \   00002044   0910A0E3           MOV      R1,#+9
   \   00002048   0400A0E1           MOV      R0,R4
   \   0000204C   080200EF           SWI      +520
   \   00002050   ........           LDR      R1,??DataTable108  ;; cinfo
   \   00002054   20002DE9           PUSH     {R5}
   \   00002058   02002DE9           PUSH     {R1}
   \   0000205C   CF30A0E3           MOV      R3,#+207
   \   00002060   CA20A0E3           MOV      R2,#+202
   \   00002064   0010A0E3           MOV      R1,#+0
   \   00002068   02002DE9           PUSH     {R1}
   \   0000206C   0910A0E3           MOV      R1,#+9
   \   00002070   02002DE9           PUSH     {R1}
   \   00002074   CB1086E2           ADD      R1,R6,#+203
   \   00002078   02002DE9           PUSH     {R1}
   \   0000207C   CC1060E2           RSB      R1,R0,#+204
   \   00002080   0400A0E1           MOV      R0,R4
   \   00002084   4C0100EF           SWI      +332
   \   00002088   2CD08DE2           ADD      SP,SP,#+44
   1429            DrwImage(185-Get_WS_width(ws,9), 203, ram_img,0,0);
   \   0000208C   0910A0E3           MOV      R1,#+9
   \   00002090   0400A0E1           MOV      R0,R4
   \   00002094   080200EF           SWI      +520
   \   00002098   0010A0E3           MOV      R1,#+0
   \   0000209C   02002DE9           PUSH     {R1}
   \   000020A0   0130A0E1           MOV      R3,R1
   \   000020A4   ........           LDR      R1,??DataTable105  ;; ram_img
   \   000020A8   1E0100EA           B        ??OnRedraw_7
   1430          #else
   1431            wsprintf(ws, "%d", tasks);
   1432            DrwImage(16, 124, task_img,0,0);
   1433            DrawString(ws,29,124,29+Get_WS_width(ws,font)+3,124+GetFontYSIZE(font)+1,font,0,cinfo,GetPaletteAdrByColorIndex(23));
   1434            int ram = GetFreeRamAvail();
   1435            ram=ram/1024;
   1436            wsprintf(ws,"%dKb", ram);
   1437            DrawString(ws,115-Get_WS_width(ws,font),124,115+3,124+GetFontYSIZE(font)+1,font,0,cinfo,GetPaletteAdrByColorIndex(23));
   1438            DrwImage(115-Get_WS_width(ws,font)-13, 124,ram_img,0,0);
   1439          #endif
   1440            }
   1441            else
   1442              {
   1443                int battery = *RamCap();
   \                     ??OnRedraw_94:
   \   000020AC   C88000EF           SWI      +32968
   \   000020B0   B020D0E1           LDRH     R2,[R0, #+0]
   1444                wsprintf(ws,"%d%", battery);
   \   000020B4   4C1F8FE2           ADR      R1,??OnRedraw_64+0x8  ;; "%d%"
   \   000020B8   0400A0E1           MOV      R0,R4
   \   000020BC   240100EF           SWI      +292
   1445          #ifdef ELKA
   1446                DrwImage(37, 203,batt_img,0,0);
   \   000020C0   0000A0E3           MOV      R0,#+0
   \   000020C4   01002DE9           PUSH     {R0}
   \   000020C8   ........           LDR      R0,??DataTable106  ;; batt_img
   \   000020CC   0030A0E3           MOV      R3,#+0
   \   000020D0   002090E5           LDR      R2,[R0, #+0]
   \   000020D4   CB10A0E3           MOV      R1,#+203
   \   000020D8   2500A0E3           MOV      R0,#+37
   \   000020DC   ........           BL       DrwImage
   1447                DrawString(ws,56,202,56+Get_WS_width(ws,9)+3,202+GetFontYSIZE(9)+1,9,0,cinfo,GetPaletteAdrByColorIndex(23));
   \   000020E0   1700A0E3           MOV      R0,#+23
   \   000020E4   2E0100EF           SWI      +302
   \   000020E8   0050A0E1           MOV      R5,R0
   \   000020EC   0900A0E3           MOV      R0,#+9
   \   000020F0   C50100EF           SWI      +453
   \   000020F4   0060A0E1           MOV      R6,R0
   \   000020F8   0910A0E3           MOV      R1,#+9
   \   000020FC   0400A0E1           MOV      R0,R4
   \   00002100   080200EF           SWI      +520
   \   00002104   ........           LDR      R1,??DataTable108  ;; cinfo
   \   00002108   20002DE9           PUSH     {R5}
   \   0000210C   02002DE9           PUSH     {R1}
   \   00002110   3B3080E2           ADD      R3,R0,#+59
   \   00002114   CA20A0E3           MOV      R2,#+202
   \   00002118   0400A0E1           MOV      R0,R4
   \   0000211C   0010A0E3           MOV      R1,#+0
   \   00002120   02002DE9           PUSH     {R1}
   \   00002124   0910A0E3           MOV      R1,#+9
   \   00002128   02002DE9           PUSH     {R1}
   \   0000212C   CB1086E2           ADD      R1,R6,#+203
   \   00002130   02002DE9           PUSH     {R1}
   \   00002134   3810A0E3           MOV      R1,#+56
   \   00002138   4C0100EF           SWI      +332
   1448          #else
   1449                DrwImage(16, 124,batt_img,0,0);
   1450                DrawString(ws,29,124,29+Get_WS_width(ws,font)+3,124+GetFontYSIZE(font)+1,font,0,cinfo,GetPaletteAdrByColorIndex(23));
   1451          #endif
   1452                TTime time;
   1453                TDate date;
   1454                GetDateTime(&date, &time);
   \   0000213C   18108DE2           ADD      R1,SP,#+24
   \   00002140   24008DE2           ADD      R0,SP,#+36
   \   00002144   B40000EF           SWI      +180
   1455                wsprintf(ws, "%02d:%02d:%02d", time.hour, time.min, time.sec);
   \   00002148   1A00DDE5           LDRB     R0,[SP, #+26]
   \   0000214C   34149FE5           LDR      R1,??OnRedraw_71+0x18  ;; `?<Constant "%02d:%02d:%02d">`
   \   00002150   01002DE9           PUSH     {R0}
   \   00002154   1D30DDE5           LDRB     R3,[SP, #+29]
   \   00002158   1C20DDE5           LDRB     R2,[SP, #+28]
   \   0000215C   0400A0E1           MOV      R0,R4
   \   00002160   240100EF           SWI      +292
   1456          #ifdef ELKA
   1457                DrawString(ws,204-Get_WS_width(ws,9),202,207,202+GetFontYSIZE(9)+1,9,0,cinfo,GetPaletteAdrByColorIndex(23));
   \   00002164   1700A0E3           MOV      R0,#+23
   \   00002168   2E0100EF           SWI      +302
   \   0000216C   0050A0E1           MOV      R5,R0
   \   00002170   0900A0E3           MOV      R0,#+9
   \   00002174   C50100EF           SWI      +453
   \   00002178   0060A0E1           MOV      R6,R0
   \   0000217C   0910A0E3           MOV      R1,#+9
   \   00002180   0400A0E1           MOV      R0,R4
   \   00002184   080200EF           SWI      +520
   \   00002188   ........           LDR      R1,??DataTable108  ;; cinfo
   \   0000218C   20002DE9           PUSH     {R5}
   \   00002190   02002DE9           PUSH     {R1}
   \   00002194   CF30A0E3           MOV      R3,#+207
   \   00002198   CA20A0E3           MOV      R2,#+202
   \   0000219C   0010A0E3           MOV      R1,#+0
   \   000021A0   02002DE9           PUSH     {R1}
   \   000021A4   0910A0E3           MOV      R1,#+9
   \   000021A8   02002DE9           PUSH     {R1}
   \   000021AC   CB1086E2           ADD      R1,R6,#+203
   \   000021B0   02002DE9           PUSH     {R1}
   \   000021B4   CC1060E2           RSB      R1,R0,#+204
   \   000021B8   0400A0E1           MOV      R0,R4
   \   000021BC   4C0100EF           SWI      +332
   \   000021C0   30D08DE2           ADD      SP,SP,#+48
   1458                DrwImage(185-Get_WS_width(ws,9), 203,clock_img,0,0);
   \   000021C4   0910A0E3           MOV      R1,#+9
   \   000021C8   0400A0E1           MOV      R0,R4
   \   000021CC   080200EF           SWI      +520
   \   000021D0   0010A0E3           MOV      R1,#+0
   \   000021D4   02002DE9           PUSH     {R1}
   \   000021D8   0130A0E1           MOV      R3,R1
   \   000021DC   ........           LDR      R1,??DataTable109  ;; clock_img
   \                     ??OnRedraw_95:
   \   000021E0   D00000EA           B        ??OnRedraw_7
   \                     ??OnRedraw_64:
   \   000021E4   25640000           DC8      "%d",+0
   \   000021E8   ........           DC32     BM16NAME
   \   000021EC   25642500           DC8      "%d%"
   \   000021F0   ........           DC32     BM17NAME
   \   000021F4   ........           DC32     BM18NAME
   1459          #else
   1460                DrawString(ws,115-Get_WS_width(ws,font),124,115+3,124+GetFontYSIZE(font)+1,font,0,cinfo,GetPaletteAdrByColorIndex(23));
   1461                DrwImage(102-Get_WS_width(ws,font), 124,clock_img,0,0);
   1462          #endif
   1463          //      GBS_StartTimerProc(&start_tmr, 30, redrit); 
   1464              }
   1465            FreeWS(ws);
   1466            }//===============================end do links
   1467            else
   1468              if(task_list==2)
   \                     ??OnRedraw_31:
   \   000021F8   020050E3           CMP      R0,#+2
   \   000021FC   D000001A           BNE      ??OnRedraw_96
   1469              {
   1470                DrwImage(0, 0,&screen2, NULL, NULL);
   \   00002200   0000A0E3           MOV      R0,#+0
   \   00002204   01002DE9           PUSH     {R0}
   \   00002208   0030A0E3           MOV      R3,#+0
   \   0000220C   0B20A0E1           MOV      R2,R11
   \   00002210   0010A0E1           MOV      R1,R0
   \   00002214   ........           BL       DrwImage
   1471          #ifdef ELKA
   1472                DrwImage(30, 50,background_img,0,0);  //12,37
   \   00002218   0000A0E3           MOV      R0,#+0
   \   0000221C   01002DE9           PUSH     {R0}
   \   00002220   00209AE5           LDR      R2,[R10, #+0]
   \   00002224   0030A0E1           MOV      R3,R0
   \   00002228   3210A0E3           MOV      R1,#+50
   \   0000222C   1E00A0E3           MOV      R0,#+30
   \   00002230   ........           BL       DrwImage
   1473                DrwImage(155,65,tasks_img,0,0);
   \   00002234   0000A0E3           MOV      R0,#+0
   \   00002238   01002DE9           PUSH     {R0}
   \   0000223C   002098E5           LDR      R2,[R8, #+0]
   \   00002240   0030A0E1           MOV      R3,R0
   \   00002244   4110A0E3           MOV      R1,#+65
   \   00002248   9B00A0E3           MOV      R0,#+155
   \   0000224C   ........           BL       DrwImage
   1474                DrwImage(180,65,bookmarks_img,0,0);
   \   00002250   0000A0E3           MOV      R0,#+0
   \   00002254   01002DE9           PUSH     {R0}
   \   00002258   002097E5           LDR      R2,[R7, #+0]
   \   0000225C   0030A0E1           MOV      R3,R0
   \   00002260   4110A0E3           MOV      R1,#+65
   \   00002264   B400A0E3           MOV      R0,#+180
   \   00002268   ........           BL       DrwImage
   1475                if(shutd) DrwImage(37,124,shutdown1,0,0);
   \   0000226C   ........           LDR      R0,??DataTable149  ;; shutd
   1476                else
   1477                DrwImage(37,124,reboot1,0,0);
   \   00002270   7C10A0E3           MOV      R1,#+124
   \   00002274   000090E5           LDR      R0,[R0, #+0]
   \   00002278   10D08DE2           ADD      SP,SP,#+16
   \   0000227C   000050E3           CMP      R0,#+0
   \   00002280   0000A0E3           MOV      R0,#+0
   \   00002284   01002DE9           PUSH     {R0}
   \   00002288   0030A0E1           MOV      R3,R0
   \   0000228C   ........           LDRNE    R0,??DataTable99  ;; shutdown1
   \   00002290   ........           LDREQ    R0,??DataTable100  ;; reboot1
   \   00002294   002090E5           LDR      R2,[R0, #+0]
   \   00002298   2500A0E3           MOV      R0,#+37
   \   0000229C   ........           BL       DrwImage
   \   000022A0   04D08DE2           ADD      SP,SP,#+4
   1478          #else
   1479                DrwImage(12, 26,background_img,0,0);  //12,37
   1480                DrwImage(83,40,tasks_img,0,0);
   1481                DrwImage(101,40,bookmarks_img,0,0);
   1482          //      DrwImage(23, 60,shutdown2,0,0);
   1483          //      DrwImage(68, 60,shutdown2,0,0);
   1484                WSHDR *ews=AllocWS(64);
   1485                if(shutd) wsprintf(ews, "Shutdown");
   1486                else wsprintf(ews, "Restart");
   1487                DrawString(ews,45,70,47+Get_WS_width(ews,font),70+GetFontYSIZE(font)+1,font,0,ctasks,GetPaletteAdrByColorIndex(23));
   1488                if(shutd) DrwImage(16,91,shutdown1,0,0);
   1489                else
   1490                DrwImage(16,91,reboot1,0,0);
   1491                FreeWS(ews);
   1492          #endif
   1493                WSHDR *ws=AllocWS(32);
   \   000022A4   2000A0E3           MOV      R0,#+32
   \   000022A8   250100EF           SWI      +293
   \   000022AC   0040A0E1           MOV      R4,R0
   1494          //      ClockDraw();
   1495                DrawCPU();
   \   000022B0   ........           BL       DrawCPU
   1496                if(time_not)
   \   000022B4   ........           LDR      R0,??DataTable118  ;; time_not
   \   000022B8   000090E5           LDR      R0,[R0, #+0]
   \   000022BC   000050E3           CMP      R0,#+0
   \   000022C0   4B00000A           BEQ      ??OnRedraw_97
   1497            {
   1498          #ifdef ELKA
   1499          //    if(!style) wsprintf(ws, "Tasks:%d", tasks);
   1500            wsprintf(ws, "%d", tasks+1);
   \   000022C4   B4029FE5           LDR      R0,??OnRedraw_71+0x10  ;; tasks
   \   000022C8   A91F8FE2           ADR      R1,??OnRedraw_71+0x4  ;; "%d"
   \   000022CC   000090E5           LDR      R0,[R0, #+0]
   \   000022D0   012080E2           ADD      R2,R0,#+1
   \   000022D4   0400A0E1           MOV      R0,R4
   \   000022D8   240100EF           SWI      +292
   1501            DrwImage(37, 203, task_img,0,0);
   \   000022DC   0000A0E3           MOV      R0,#+0
   \   000022E0   01002DE9           PUSH     {R0}
   \   000022E4   ........           LDR      R0,??DataTable102  ;; task_img
   \   000022E8   0030A0E3           MOV      R3,#+0
   \   000022EC   002090E5           LDR      R2,[R0, #+0]
   \   000022F0   CB10A0E3           MOV      R1,#+203
   \   000022F4   2500A0E3           MOV      R0,#+37
   \   000022F8   ........           BL       DrwImage
   1502            DrawString(ws,56,202,56+Get_WS_width(ws,9)+3,202+GetFontYSIZE(9)+1,9,0,cinfo,GetPaletteAdrByColorIndex(23));
   \   000022FC   1700A0E3           MOV      R0,#+23
   \   00002300   2E0100EF           SWI      +302
   \   00002304   0050A0E1           MOV      R5,R0
   \   00002308   0900A0E3           MOV      R0,#+9
   \   0000230C   C50100EF           SWI      +453
   \   00002310   0060A0E1           MOV      R6,R0
   \   00002314   0910A0E3           MOV      R1,#+9
   \   00002318   0400A0E1           MOV      R0,R4
   \   0000231C   080200EF           SWI      +520
   \   00002320   ........           LDR      R1,??DataTable108  ;; cinfo
   \   00002324   20002DE9           PUSH     {R5}
   \   00002328   02002DE9           PUSH     {R1}
   \   0000232C   3B3080E2           ADD      R3,R0,#+59
   \   00002330   CA20A0E3           MOV      R2,#+202
   \   00002334   0400A0E1           MOV      R0,R4
   \   00002338   0010A0E3           MOV      R1,#+0
   \   0000233C   02002DE9           PUSH     {R1}
   \   00002340   0910A0E3           MOV      R1,#+9
   \   00002344   02002DE9           PUSH     {R1}
   \   00002348   CB1086E2           ADD      R1,R6,#+203
   \   0000234C   02002DE9           PUSH     {R1}
   \   00002350   3810A0E3           MOV      R1,#+56
   \   00002354   4C0100EF           SWI      +332
   1503            int ram = GetFreeRamAvail();
   \   00002358   5F0000EF           SWI      +95
   1504            ram=ram/1024;
   1505            wsprintf(ws,"%dKb", ram);
   \   0000235C   C014A0E1           ASR      R1,R0,#+9
   \   00002360   210B80E0           ADD      R0,R0,R1, LSR #+22
   \   00002364   18129FE5           LDR      R1,??OnRedraw_71+0x14  ;; `?<Constant "%dKb">`
   \   00002368   4025A0E1           ASR      R2,R0,#+10
   \   0000236C   0400A0E1           MOV      R0,R4
   \   00002370   240100EF           SWI      +292
   1506            DrawString(ws,204-Get_WS_width(ws,9),202,207,202+GetFontYSIZE(9)+1,9,0,cinfo,GetPaletteAdrByColorIndex(23));
   \   00002374   1700A0E3           MOV      R0,#+23
   \   00002378   2E0100EF           SWI      +302
   \   0000237C   0050A0E1           MOV      R5,R0
   \   00002380   0900A0E3           MOV      R0,#+9
   \   00002384   C50100EF           SWI      +453
   \   00002388   0060A0E1           MOV      R6,R0
   \   0000238C   0910A0E3           MOV      R1,#+9
   \   00002390   0400A0E1           MOV      R0,R4
   \   00002394   080200EF           SWI      +520
   \   00002398   ........           LDR      R1,??DataTable108  ;; cinfo
   \   0000239C   20002DE9           PUSH     {R5}
   \   000023A0   02002DE9           PUSH     {R1}
   \   000023A4   CF30A0E3           MOV      R3,#+207
   \   000023A8   CA20A0E3           MOV      R2,#+202
   \   000023AC   0010A0E3           MOV      R1,#+0
   \   000023B0   02002DE9           PUSH     {R1}
   \   000023B4   0910A0E3           MOV      R1,#+9
   \   000023B8   02002DE9           PUSH     {R1}
   \   000023BC   CB1086E2           ADD      R1,R6,#+203
   \   000023C0   02002DE9           PUSH     {R1}
   \   000023C4   CC1060E2           RSB      R1,R0,#+204
   \   000023C8   0400A0E1           MOV      R0,R4
   \   000023CC   4C0100EF           SWI      +332
   \   000023D0   2CD08DE2           ADD      SP,SP,#+44
   1507            DrwImage(185-Get_WS_width(ws,9), 203,ram_img,0,0);
   \   000023D4   0910A0E3           MOV      R1,#+9
   \   000023D8   0400A0E1           MOV      R0,R4
   \   000023DC   080200EF           SWI      +520
   \   000023E0   0010A0E3           MOV      R1,#+0
   \   000023E4   02002DE9           PUSH     {R1}
   \   000023E8   0130A0E1           MOV      R3,R1
   \   000023EC   ........           LDR      R1,??DataTable105  ;; ram_img
   \   000023F0   4C0000EA           B        ??OnRedraw_7
   1508          #else
   1509            wsprintf(ws, "%d", tasks+1);
   1510            DrwImage(16, 124,task_img,0,0);
   1511            DrawString(ws,29,124,29+Get_WS_width(ws,font)+3,124+GetFontYSIZE(font)+1,font,0,cinfo,GetPaletteAdrByColorIndex(23));
   1512            int ram = GetFreeRamAvail();
   1513            ram=ram/1024;
   1514            wsprintf(ws,"%dKb", ram);
   1515            DrawString(ws,115-Get_WS_width(ws,font),124,115+3,124+GetFontYSIZE(font)+1,font,0,cinfo,GetPaletteAdrByColorIndex(23));
   1516            DrwImage(115-Get_WS_width(ws,font)-13, 124,ram_img,0,0);
   1517          #endif
   1518            }
   1519            else
   1520              {
   1521                int battery = *RamCap();
   \                     ??OnRedraw_97:
   \   000023F4   C88000EF           SWI      +32968
   \   000023F8   B020D0E1           LDRH     R2,[R0, #+0]
   1522                wsprintf(ws,"%d%", battery);
   \   000023FC   5E1F8FE2           ADR      R1,??OnRedraw_71+0xC  ;; "%d%"
   \   00002400   0400A0E1           MOV      R0,R4
   \   00002404   240100EF           SWI      +292
   1523          #ifdef ELKA
   1524                DrwImage(37, 203,batt_img,0,0);
   \   00002408   0000A0E3           MOV      R0,#+0
   \   0000240C   01002DE9           PUSH     {R0}
   \   00002410   ........           LDR      R0,??DataTable106  ;; batt_img
   \   00002414   0030A0E3           MOV      R3,#+0
   \   00002418   002090E5           LDR      R2,[R0, #+0]
   \   0000241C   CB10A0E3           MOV      R1,#+203
   \   00002420   2500A0E3           MOV      R0,#+37
   \   00002424   ........           BL       DrwImage
   1525                DrawString(ws,56,202,56+Get_WS_width(ws,9)+3,202+GetFontYSIZE(9)+1,9,0,cinfo,GetPaletteAdrByColorIndex(23));
   \   00002428   1700A0E3           MOV      R0,#+23
   \   0000242C   2E0100EF           SWI      +302
   \   00002430   0050A0E1           MOV      R5,R0
   \   00002434   0900A0E3           MOV      R0,#+9
   \   00002438   C50100EF           SWI      +453
   \   0000243C   0060A0E1           MOV      R6,R0
   \   00002440   0910A0E3           MOV      R1,#+9
   \   00002444   0400A0E1           MOV      R0,R4
   \   00002448   080200EF           SWI      +520
   \   0000244C   ........           LDR      R1,??DataTable108  ;; cinfo
   \   00002450   20002DE9           PUSH     {R5}
   \   00002454   02002DE9           PUSH     {R1}
   \   00002458   3B3080E2           ADD      R3,R0,#+59
   \   0000245C   CA20A0E3           MOV      R2,#+202
   \   00002460   0400A0E1           MOV      R0,R4
   \   00002464   0010A0E3           MOV      R1,#+0
   \   00002468   02002DE9           PUSH     {R1}
   \   0000246C   0910A0E3           MOV      R1,#+9
   \   00002470   02002DE9           PUSH     {R1}
   \   00002474   CB1086E2           ADD      R1,R6,#+203
   \   00002478   02002DE9           PUSH     {R1}
   \   0000247C   3810A0E3           MOV      R1,#+56
   \   00002480   4C0100EF           SWI      +332
   1526          #else
   1527                DrwImage(16, 124,batt_img,0,0);
   1528                DrawString(ws,29,124,29+Get_WS_width(ws,font)+3,124+GetFontYSIZE(font)+1,font,0,cinfo,GetPaletteAdrByColorIndex(23));
   1529          #endif
   1530                TTime time;
   1531                TDate date;
   1532                GetDateTime(&date, &time);
   \   00002484   18108DE2           ADD      R1,SP,#+24
   \   00002488   24008DE2           ADD      R0,SP,#+36
   \   0000248C   B40000EF           SWI      +180
   1533                wsprintf(ws, "%02d:%02d:%02d", time.hour, time.min, time.sec);
   \   00002490   1A00DDE5           LDRB     R0,[SP, #+26]
   \   00002494   EC109FE5           LDR      R1,??OnRedraw_71+0x18  ;; `?<Constant "%02d:%02d:%02d">`
   \   00002498   01002DE9           PUSH     {R0}
   \   0000249C   1D30DDE5           LDRB     R3,[SP, #+29]
   \   000024A0   1C20DDE5           LDRB     R2,[SP, #+28]
   \   000024A4   0400A0E1           MOV      R0,R4
   \   000024A8   240100EF           SWI      +292
   1534          #ifdef ELKA
   1535                DrawString(ws,204-Get_WS_width(ws,9),202,207,202+GetFontYSIZE(9)+1,9,0,cinfo,GetPaletteAdrByColorIndex(23));
   \   000024AC   1700A0E3           MOV      R0,#+23
   \   000024B0   2E0100EF           SWI      +302
   \   000024B4   0050A0E1           MOV      R5,R0
   \   000024B8   0900A0E3           MOV      R0,#+9
   \   000024BC   C50100EF           SWI      +453
   \   000024C0   0060A0E1           MOV      R6,R0
   \   000024C4   0910A0E3           MOV      R1,#+9
   \   000024C8   0400A0E1           MOV      R0,R4
   \   000024CC   080200EF           SWI      +520
   \   000024D0   ........           LDR      R1,??DataTable108  ;; cinfo
   \   000024D4   20002DE9           PUSH     {R5}
   \   000024D8   02002DE9           PUSH     {R1}
   \   000024DC   CF30A0E3           MOV      R3,#+207
   \   000024E0   CA20A0E3           MOV      R2,#+202
   \   000024E4   0010A0E3           MOV      R1,#+0
   \   000024E8   02002DE9           PUSH     {R1}
   \   000024EC   0910A0E3           MOV      R1,#+9
   \   000024F0   02002DE9           PUSH     {R1}
   \   000024F4   CB1086E2           ADD      R1,R6,#+203
   \   000024F8   02002DE9           PUSH     {R1}
   \   000024FC   CC1060E2           RSB      R1,R0,#+204
   \   00002500   0400A0E1           MOV      R0,R4
   \   00002504   4C0100EF           SWI      +332
   \   00002508   30D08DE2           ADD      SP,SP,#+48
   1536                DrwImage(185-Get_WS_width(ws,9), 203, clock_img,0,0);
   \   0000250C   0910A0E3           MOV      R1,#+9
   \   00002510   0400A0E1           MOV      R0,R4
   \   00002514   080200EF           SWI      +520
   \   00002518   0010A0E3           MOV      R1,#+0
   \   0000251C   02002DE9           PUSH     {R1}
   \   00002520   0130A0E1           MOV      R3,R1
   \   00002524   ........           LDR      R1,??DataTable109  ;; clock_img
   \                     ??OnRedraw_7:
   \   00002528   B90060E2           RSB      R0,R0,#+185
   \   0000252C   002091E5           LDR      R2,[R1, #+0]
   \   00002530   CB10A0E3           MOV      R1,#+203
   \   00002534   ........           BL       DrwImage
   \   00002538   04D08DE2           ADD      SP,SP,#+4
   1537          #else
   1538                DrawString(ws,115-Get_WS_width(ws,font),124,115+3,124+GetFontYSIZE(font)+1,font,0,cinfo,GetPaletteAdrByColorIndex(23));
   1539                DrwImage(102-Get_WS_width(ws,font), 124,clock_img,0,0);
   1540          #endif
   1541          //      GBS_StartTimerProc(&start_tmr, 30, redrit); 
   1542              }
   1543                FreeWS(ws);
   \   0000253C   0400A0E1           MOV      R0,R4
   \   00002540   290100EF           SWI      +297
   1544              }
   1545            if(task_list!=3) GBS_StartTimerProc(&start_tmr, refresh, redrit); 
   \                     ??OnRedraw_96:
   \   00002544   ........           LDR      R0,??DataTable151  ;; task_list
   \   00002548   000090E5           LDR      R0,[R0, #+0]
   \   0000254C   030050E3           CMP      R0,#+3
   \   00002550   0400000A           BEQ      ??OnRedraw_98
   \   00002554   30009FE5           LDR      R0,??OnRedraw_71+0x1C  ;; refresh
   \   00002558   ........           LDR      R2,??DataTable130  ;; redrit
   \   0000255C   001090E5           LDR      R1,[R0, #+0]
   \   00002560   ........           LDR      R0,??DataTable131  ;; start_tmr
   \   00002564   4D0000EF           SWI      +77
   1546          }
   \                     ??OnRedraw_98:
   \   00002568   18D08DE2           ADD      SP,SP,#+24       ;; stack cleaning
   \   0000256C   F08FBDE8           POP      {R4-R11,PC}      ;; return
   \                     ??OnRedraw_71:
   \   00002570   ........           DC32     BM19NAME
   \   00002574   25640000           DC8      "%d",+0
   \   00002578   ........           DC32     BM20NAME
   \   0000257C   25642500           DC8      "%d%"
   \   00002580   ........           DC32     tasks
   \   00002584   ........           DC32     `?<Constant "%dKb">`
   \   00002588   ........           DC32     `?<Constant "%02d:%02d:%02d">`
   \   0000258C   ........           DC32     refresh
   1547          

   \                                 In segment CODE, align 4, keep-with-next
   1548          void onCreate(MAIN_GUI *data, void *(*malloc_adr)(int)) //Create
   1549          {
   1550            data->gui.state=1;
   \                     onCreate:
   \   00000000   0110A0E3           MOV      R1,#+1
   \   00000004   0C10C0E5           STRB     R1,[R0, #+12]
   1551          }
   \   00000008   1EFF2FE1           BX       LR               ;; return
   1552          

   \                                 In segment CODE, align 4, keep-with-next
   1553          void onClose(MAIN_GUI *data, void (*mfree_adr)(void *)) //Close
   1554          {
   \                     onClose:
   \   00000000   10402DE9           PUSH     {R4,LR}
   \   00000004   0040A0E1           MOV      R4,R0
   1555          //#ifdef NEWSGOLD
   1556            mfree(screen2.bitmap);
   \   00000008   28009FE5           LDR      R0,??onClose_0   ;; screen2 + 8
   \   0000000C   000090E5           LDR      R0,[R0, #+0]
   \   00000010   150000EF           SWI      +21
   1557          //#endif
   1558            #ifdef ELKA
   1559            char* ramIconBar = RamIconBar();
   1560            *ramIconBar = 1;
   \   00000014   378200EF           SWI      +33335
   \   00000018   0110A0E3           MOV      R1,#+1
   \   0000001C   0010C0E5           STRB     R1,[R0, #+0]
   1561            #endif
   1562            ClearNL();
   \   00000020   ........           _BLF     ClearNL,??ClearNL??rA
   1563            MAINCSM_ID = 0;
   \   00000024   ........           LDR      R1,??DataTable142  ;; MAINCSM_ID
   \   00000028   0000A0E3           MOV      R0,#+0
   \   0000002C   000081E5           STR      R0,[R1, #+0]
   1564            data->gui.state=0;
   \   00000030   0C00C4E5           STRB     R0,[R4, #+12]
   1565          }
   \   00000034   1080BDE8           POP      {R4,PC}          ;; return
   \                     ??onClose_0:
   \   00000038   ........           DC32     screen2 + 8
   1566          

   \                                 In segment CODE, align 4, keep-with-next
   1567          void onFocus(MAIN_GUI *data, void *(*malloc_adr)(int), void (*mfree_adr)(void *))//Focus
   1568          {
   1569            data->gui.state=2;
   \                     onFocus:
   \   00000000   0210A0E3           MOV      R1,#+2
   \   00000004   0C10C0E5           STRB     R1,[R0, #+12]
   1570           //  DisableIDLETMR();
   1571          }
   \   00000008   1EFF2FE1           BX       LR               ;; return
   1572          

   \                                 In segment CODE, align 4, keep-with-next
   1573          void onUnfocus(MAIN_GUI *data, void (*mfree_adr)(void *)) //Unfocus
   1574          {
   \                     onUnfocus:
   \   00000000   00402DE9           PUSH     {LR}
   1575            
   1576            if (data->gui.state!=2) return;
   \   00000004   0C10D0E5           LDRB     R1,[R0, #+12]
   \   00000008   020051E3           CMP      R1,#+2
   \   0000000C   0080BD18           POPNE    {PC}
   1577            data->gui.state=1;
   \   00000010   0110A0E3           MOV      R1,#+1
   \   00000014   0C10C0E5           STRB     R1,[R0, #+12]
   1578            CloseCSM(MAINCSM_ID);
   \   00000018   ........           LDR      R0,??DataTable142  ;; MAINCSM_ID
   \   0000001C   000090E5           LDR      R0,[R0, #+0]
   \   00000020   FC0100EF           SWI      +508
   1579          }
   \   00000024   0080BDE8           POP      {PC}             ;; return
   1580          

   \                                 In segment DATA_Z, align 4, align-sorted
   1581          int closing;
   \                     closing:
   \   00000000                      DS8 4

   \                                 In segment DATA_Z, align 4, align-sorted
   1582          int show_daemons;
   \                     show_daemons:
   \   00000000                      DS8 4
   1583          
   1584          

   \                                 In segment CODE, align 4, keep-with-next
   1585          void redrit()
   1586          {
   \                     redrit:
   \   00000000   00402DE9           PUSH     {LR}
   1587            DirectRedrawGUI();
   \   00000004   3F0100EF           SWI      +319
   1588          }
   \   00000008   0080BDE8           POP      {PC}             ;; return
   1589          

   \                                 In segment CODE, align 4, keep-with-next
   1590          int OnKey(MAIN_GUI *data, GUI_MSG *msg) //OnKey
   1591          {
   \                     OnKey:
   \   00000000   F04F2DE9           PUSH     {R4-R11,LR}
   1592            if ((msg->gbsmsg->msg==KEY_DOWN)||((msg->gbsmsg->msg==LONG_PRESS)&&((msg->gbsmsg->submess==UP_BUTTON)||(msg->gbsmsg->submess==DOWN_BUTTON))))
   \   00000004   042091E5           LDR      R2,[R1, #+4]
   \   00000008   9310A0E3           MOV      R1,#+147
   \   0000000C   040092E5           LDR      R0,[R2, #+4]
   \   00000010   401F81E3           ORR      R1,R1,#0x100
   \   00000014   010050E1           CMP      R0,R1
   \   00000018   0600000A           BEQ      ??OnKey_3
   \   0000001C   021081E2           ADD      R1,R1,#+2
   \   00000020   010050E1           CMP      R0,R1
   \   00000024   CC01001A           BNE      ??OnKey_4
   \   00000028   080092E5           LDR      R0,[R2, #+8]
   \   0000002C   3B0050E3           CMP      R0,#+59
   \   00000030   3C005013           CMPNE    R0,#+60
   \   00000034   C801001A           BNE      ??OnKey_4
   1593            {
   1594              if(task_list==1)
   \                     ??OnKey_3:
   \   00000038   ........           LDR      R5,??DataTable115  ;; total_pos
   \   0000003C   ........           LDR      R10,??DataTable151  ;; task_list
   \   00000040   000095E5           LDR      R0,[R5, #+0]
   \   00000044   ........           LDR      R1,??DataTable117  ;; book_show
   \   00000048   00B09AE5           LDR      R11,[R10, #+0]
   \   0000004C   00E091E5           LDR      LR,[R1, #+0]
   \   00000050   ........           LDR      R1,??DataTable118  ;; time_not
   \   00000054   ........           LDR      R6,??DataTable144  ;; sm
   \   00000058   ........           LDR      R7,??DataTable148  ;; move_skip
   \   0000005C   ........           LDR      R8,??DataTable145  ;; pos
   \   00000060   013080E2           ADD      R3,R0,#+1
   \   00000064   01C040E2           SUB      R12,R0,#+1
   \   00000068   0090A0E3           MOV      R9,#+0
   \   0000006C   0140A0E3           MOV      R4,#+1
   \   00000070   01005BE3           CMP      R11,#+1
   \   00000074   1A01001A           BNE      ??OnKey_5
   1595              {
   1596              switch(msg->gbsmsg->submess)
   \   00000078   ........           LDR      R0,??DataTable157  ;; total_d
   \   0000007C   082092E5           LDR      R2,[R2, #+8]
   \   00000080   000090E5           LDR      R0,[R0, #+0]
   \   00000084   012042E2           SUB      R2,R2,#+1
   \   00000088   3D0052E3           CMP      R2,#+61
   \   0000008C   B201008A           BHI      ??OnKey_4
   \   00000090   02BF8FE2           ADR      R11,??OnKey_0
   \   00000094   8220A0E1           MOV      R2,R2, LSL #+1
   \   00000098   B2B09BE1           LDRH     R11,[R11, R2]
   \   0000009C   0BF18FE0           ADD      PC,PC,R11, LSL #+2
   \                     ??OnKey_0:
   \   000000A0   0201AE01AE01       DC16     +258,+430,+430,+254
   \              FE00        
   \   000000A8   AE01AE01AE01       DC16     +430,+430,+430,+430
   \              AE01        
   \   000000B0   AE01AE010801       DC16     +430,+430,+264,+430
   \              AE01        
   \   000000B8   AE01AE01AE01       DC16     +430,+430,+430,+430
   \              AE01        
   \   000000C0   AE01AE01AE01       DC16     +430,+430,+430,+430
   \              AE01        
   \   000000C8   AE01AE01AE01       DC16     +430,+430,+430,+430
   \              AE01        
   \   000000D0   AE01B300AE01       DC16     +430,+179,+430,+430
   \              AE01        
   \   000000D8   AE01AE01AE01       DC16     +430,+430,+430,+430
   \              AE01        
   \   000000E0   AE01AE01AF00       DC16     +430,+430,+175,+430
   \              AE01        
   \   000000E8   AE01AE01AE01       DC16     +430,+430,+430,+430
   \              AE01        
   \   000000F0   AE017000AE01       DC16     +430,+112,+430,+430
   \              AE01        
   \   000000F8   AE01AE01AE01       DC16     +430,+430,+430,+128
   \              8000        
   \   00000100   850089008F00       DC16     +133,+137,+143,+147
   \              9300        
   \   00000108   97009B009F00       DC16     +151,+155,+159,+163
   \              A300        
   \   00000110   A700AE013E00       DC16     +167,+430,+62,+35
   \              2300        
   \   00000118   AB001E00           DC16     +171,+30
   1597              {
   1598              case RIGHT_BUTTON:
   1599                pos=1;
   \                     ??OnKey_6:
   \   0000011C   004088E5           STR      R4,[R8, #+0]
   1600                total_pos=1;
   \   00000120   004085E5           STR      R4,[R5, #+0]
   1601                move_skip=0;
   \   00000124   009087E5           STR      R9,[R7, #+0]
   1602                task_list=0;
   \   00000128   00908AE5           STR      R9,[R10, #+0]
   1603                DirectRedrawGUI();
   \                     ??OnKey_7:
   \   0000012C   590000EA           B        ??OnKey_8
   1604                break;
   1605              case DOWN_BUTTON:
   1606                if(total_d!=0)
   \                     ??OnKey_9:
   \   00000130   000050E3           CMP      R0,#+0
   \   00000134   F08FBD08           POPEQ    {R4-R11,PC}
   1607                {
   1608                total_pos++;
   \   00000138   003085E5           STR      R3,[R5, #+0]
   1609                if(total_pos<=total_d)
   \   0000013C   030050E1           CMP      R0,R3
   \   00000140   0E0000BA           BLT      ??OnKey_10
   1610                {
   1611                if((total_pos<=3)||(total_pos>total_d-2)) pos++;
   \   00000144   020040E2           SUB      R0,R0,#+2
   \   00000148   040053E3           CMP      R3,#+4
   \   0000014C   030050A1           CMPGE    R0,R3
   \   00000150   040000AA           BGE      ??OnKey_11
   \   00000154   001098E5           LDR      R1,[R8, #+0]
   1612                if((total_pos>3)&&(total_pos<=total_d-2)) move_skip++;
   \   00000158   040053E3           CMP      R3,#+4
   \   0000015C   011081E2           ADD      R1,R1,#+1
   \   00000160   001088E5           STR      R1,[R8, #+0]
   \   00000164   080000BA           BLT      ??OnKey_12
   \                     ??OnKey_11:
   \   00000168   030050E1           CMP      R0,R3
   \   0000016C   060000BA           BLT      ??OnKey_12
   \   00000170   000097E5           LDR      R0,[R7, #+0]
   \   00000174   010080E2           ADD      R0,R0,#+1
   \                     ??OnKey_13:
   \   00000178   000087E5           STR      R0,[R7, #+0]
   \   0000017C   020000EA           B        ??OnKey_12
   1613                }
   1614                else
   1615                  //================addon prokrutka
   1616                {
   1617                  pos=1;
   \                     ??OnKey_10:
   \   00000180   004088E5           STR      R4,[R8, #+0]
   1618                  total_pos=1;
   \   00000184   004085E5           STR      R4,[R5, #+0]
   1619                  move_skip=0;
   \   00000188   009087E5           STR      R9,[R7, #+0]
   1620                }
   1621          //        total_pos--;
   1622                sm=0;
   1623                forward=1;
   \                     ??OnKey_12:
   \   0000018C   ........           LDR      R0,??DataTable146  ;; forward
   \   00000190   009086E5           STR      R9,[R6, #+0]
   \                     ??OnKey_14:
   \   00000194   004080E5           STR      R4,[R0, #+0]
   1624                DirectRedrawGUI();
   \   00000198   3E0000EA           B        ??OnKey_8
   1625                }
   1626                break;
   1627              case UP_BUTTON:
   1628                if(total_d!=0)
   \                     ??OnKey_15:
   \   0000019C   000050E3           CMP      R0,#+0
   \   000001A0   F08FBD08           POPEQ    {R4-R11,PC}
   1629                {
   1630                total_pos--;
   \   000001A4   00C085E5           STR      R12,[R5, #+0]
   1631                if(total_pos)
   \   000001A8   00005CE3           CMP      R12,#+0
   \   000001AC   0E00000A           BEQ      ??OnKey_16
   1632                {
   1633                if((total_pos<3)||(total_pos>=total_d-2)) pos--;
   \   000001B0   020040E2           SUB      R0,R0,#+2
   \   000001B4   03005CE3           CMP      R12,#+3
   \   000001B8   010000BA           BLT      ??OnKey_17
   \   000001BC   00005CE1           CMP      R12,R0
   \   000001C0   040000BA           BLT      ??OnKey_18
   \                     ??OnKey_17:
   \   000001C4   001098E5           LDR      R1,[R8, #+0]
   1634                if((total_pos>=3)&&(total_pos<total_d-2)) move_skip--;
   \   000001C8   03005CE3           CMP      R12,#+3
   \   000001CC   011041E2           SUB      R1,R1,#+1
   \   000001D0   001088E5           STR      R1,[R8, #+0]
   \   000001D4   ECFFFFBA           BLT      ??OnKey_12
   \                     ??OnKey_18:
   \   000001D8   00005CE1           CMP      R12,R0
   \   000001DC   EAFFFFAA           BGE      ??OnKey_12
   \   000001E0   000097E5           LDR      R0,[R7, #+0]
   \   000001E4   010040E2           SUB      R0,R0,#+1
   \   000001E8   E2FFFFEA           B        ??OnKey_13
   1635                }
   1636                else
   1637                  //===========addon prokrutka
   1638                {
   1639                  total_pos=total_pos+2;
   \                     ??OnKey_16:
   \   000001EC   0210A0E3           MOV      R1,#+2
   \   000001F0   001085E5           STR      R1,[R5, #+0]
   \   000001F4   020050E3           CMP      R0,#+2
   \   000001F8   040000AA           BGE      ??OnKey_19
   \   000001FC   140000EA           B        ??OnKey_20
   1640                  while(total_pos<=total_d)
   1641                {
   1642                if((total_pos<=3)||(total_pos>total_d-2)) pos++;
   \                     ??OnKey_21:
   \   00000200   040051E3           CMP      R1,#+4
   \   00000204   022040A2           SUBGE    R2,R0,#+2
   \   00000208   010052A1           CMPGE    R2,R1
   \   0000020C   050000AA           BGE      ??OnKey_22
   \                     ??OnKey_19:
   \   00000210   001098E5           LDR      R1,[R8, #+0]
   \   00000214   011081E2           ADD      R1,R1,#+1
   \   00000218   001088E5           STR      R1,[R8, #+0]
   1643                if((total_pos>3)&&(total_pos<=total_d-2)) move_skip++;
   \   0000021C   001095E5           LDR      R1,[R5, #+0]
   \   00000220   040051E3           CMP      R1,#+4
   \   00000224   050000BA           BLT      ??OnKey_23
   \                     ??OnKey_22:
   \   00000228   002095E5           LDR      R2,[R5, #+0]
   \   0000022C   021040E2           SUB      R1,R0,#+2
   \   00000230   020051E1           CMP      R1,R2
   \   00000234   001097A5           LDRGE    R1,[R7, #+0]
   \   00000238   011081A2           ADDGE    R1,R1,#+1
   \   0000023C   001087A5           STRGE    R1,[R7, #+0]
   1644                total_pos++;
   \                     ??OnKey_23:
   \   00000240   001095E5           LDR      R1,[R5, #+0]
   \   00000244   011081E2           ADD      R1,R1,#+1
   \   00000248   001085E5           STR      R1,[R5, #+0]
   1645                }
   \   0000024C   010050E1           CMP      R0,R1
   \   00000250   EAFFFFAA           BGE      ??OnKey_21
   1646                total_pos--;
   \                     ??OnKey_20:
   \   00000254   000095E5           LDR      R0,[R5, #+0]
   \   00000258   010040E2           SUB      R0,R0,#+1
   \   0000025C   000085E5           STR      R0,[R5, #+0]
   \   00000260   C9FFFFEA           B        ??OnKey_12
   1647                }
   1648            //      total_pos++;
   1649                sm=0;
   1650                forward=1;
   1651                DirectRedrawGUI();
   1652                }
   1653                break;
   1654              case '*':
   1655                show_daemons=!show_daemons;
   \                     ??OnKey_24:
   \   00000264   ........           LDR      R0,??DataTable139  ;; show_daemons
   \   00000268   ........           LDR      R1,??DataTable139  ;; show_daemons
   \   0000026C   000090E5           LDR      R0,[R0, #+0]
   1656                pos=1;
   \   00000270   004088E5           STR      R4,[R8, #+0]
   \   00000274   000050E3           CMP      R0,#+0
   \   00000278   0100A003           MOVEQ    R0,#+1
   \   0000027C   0000A013           MOVNE    R0,#+0
   \   00000280   000081E5           STR      R0,[R1, #+0]
   1657                total_pos=1;
   1658                move_skip=0;
   1659                sm=0;
   1660                forward=1;
   \   00000284   ........           LDR      R0,??DataTable146  ;; forward
   \   00000288   004085E5           STR      R4,[R5, #+0]
   \   0000028C   009087E5           STR      R9,[R7, #+0]
   \   00000290   009086E5           STR      R9,[R6, #+0]
   \   00000294   004080E5           STR      R4,[R0, #+0]
   1661                DirectRedrawGUI();
   \                     ??OnKey_8:
   \   00000298   3F0100EF           SWI      +319
   \                     ??OnKey_25:
   \   0000029C   0000A0E3           MOV      R0,#+0
   \   000002A0   F08FBDE8           POP      {R4-R11,PC}
   1662                break;
   1663              case 0x30:
   1664                time_not=!time_not;
   \                     ??OnKey_26:
   \   000002A4   000091E5           LDR      R0,[R1, #+0]
   \   000002A8   000050E3           CMP      R0,#+0
   \   000002AC   0040A013           MOVNE    R4,#+0
   \   000002B0   004081E5           STR      R4,[R1, #+0]
   1665                DirectRedrawGUI();
   \   000002B4   F7FFFFEA           B        ??OnKey_8
   1666                break;
   1667                      case 0x31:
   1668                  if(book_show>=1) 
   \                     ??OnKey_27:
   \   000002B8   01005EE3           CMP      LR,#+1
   \   000002BC   260100BA           BLT      ??OnKey_4
   1669                  {
   1670                    Start_bookmark(1);
   \   000002C0   0100A0E3           MOV      R0,#+1
   \   000002C4   020000EA           B        ??OnKey_28
   1671                    return(1);
   1672                  }
   1673                  break;
   1674                        case 0x32:
   1675                  if(book_show>=2) 
   \                     ??OnKey_29:
   \   000002C8   02005EE3           CMP      LR,#+2
   \   000002CC   220100BA           BLT      ??OnKey_4
   1676                  {
   1677                    Start_bookmark(2);
   \   000002D0   0200A0E3           MOV      R0,#+2
   \                     ??OnKey_28:
   \   000002D4   ........           BL       Start_bookmark
   1678                    return(1);
   \                     ??OnKey_30:
   \   000002D8   0100A0E3           MOV      R0,#+1
   \   000002DC   F08FBDE8           POP      {R4-R11,PC}
   1679                  }
   1680                  break;
   1681                        case 0x33:
   1682                  if(book_show>=3) 
   \                     ??OnKey_31:
   \   000002E0   03005EE3           CMP      LR,#+3
   \   000002E4   1C0100BA           BLT      ??OnKey_4
   1683                  {
   1684                    Start_bookmark(3);
   \   000002E8   0300A0E3           MOV      R0,#+3
   \   000002EC   F8FFFFEA           B        ??OnKey_28
   1685                    return(1);
   1686                  }
   1687                  break;
   1688                        case 0x34:
   1689                  if(book_show>=4) 
   \                     ??OnKey_32:
   \   000002F0   04005EE3           CMP      LR,#+4
   \   000002F4   180100BA           BLT      ??OnKey_4
   1690                  {
   1691                    Start_bookmark(4);
   \   000002F8   0400A0E3           MOV      R0,#+4
   \   000002FC   F4FFFFEA           B        ??OnKey_28
   1692                    return(1);
   1693                  }
   1694                  break;
   1695                        case 0x35:
   1696                  if(book_show>=5) 
   \                     ??OnKey_33:
   \   00000300   05005EE3           CMP      LR,#+5
   \   00000304   140100BA           BLT      ??OnKey_4
   1697                  {
   1698                    Start_bookmark(5);
   \   00000308   0500A0E3           MOV      R0,#+5
   \   0000030C   F0FFFFEA           B        ??OnKey_28
   1699                    return(1);
   1700                  }
   1701                  break;
   1702                        case 0x36:
   1703                  if(book_show>=6) 
   \                     ??OnKey_34:
   \   00000310   06005EE3           CMP      LR,#+6
   \   00000314   100100BA           BLT      ??OnKey_4
   1704                  {
   1705                    Start_bookmark(6);
   \   00000318   0600A0E3           MOV      R0,#+6
   \   0000031C   ECFFFFEA           B        ??OnKey_28
   1706                    return(1);
   1707                  }
   1708                  break;
   1709                        case 0x37:
   1710                  if(book_show>=7) 
   \                     ??OnKey_35:
   \   00000320   07005EE3           CMP      LR,#+7
   \   00000324   0C0100BA           BLT      ??OnKey_4
   1711                  {
   1712                    Start_bookmark(7);
   \   00000328   0700A0E3           MOV      R0,#+7
   \   0000032C   E8FFFFEA           B        ??OnKey_28
   1713                    return(1);
   1714                  }
   1715                  break;
   1716                        case 0x38:
   1717                  if(book_show>=8) 
   \                     ??OnKey_36:
   \   00000330   08005EE3           CMP      LR,#+8
   \   00000334   080100BA           BLT      ??OnKey_4
   1718                  {
   1719                    Start_bookmark(8);
   \   00000338   0800A0E3           MOV      R0,#+8
   \   0000033C   E4FFFFEA           B        ??OnKey_28
   1720                    return(1);
   1721                  }
   1722                  break;
   1723                        case 0x39:
   1724                  if(book_show>=9) 
   \                     ??OnKey_37:
   \   00000340   09005EE3           CMP      LR,#+9
   \   00000344   040100BA           BLT      ??OnKey_4
   1725                  {
   1726                    Start_bookmark(9);
   \   00000348   0900A0E3           MOV      R0,#+9
   \   0000034C   E0FFFFEA           B        ??OnKey_28
   1727                    return(1);
   1728                  }
   1729                  break;
   1730                  case LEFT_BUTTON:
   1731                if(!cleseri) break;
   \                     ??OnKey_38:
   \   00000350   0C149FE5           LDR      R1,??OnKey_39    ;; cleseri
   \   00000354   001091E5           LDR      R1,[R1, #+0]
   \   00000358   000051E3           CMP      R1,#+0
   \   0000035C   FE00000A           BEQ      ??OnKey_4
   1732              case '#':
   1733                if(total_d!=0)
   \                     ??OnKey_40:
   \   00000360   000050E3           CMP      R0,#+0
   1734                {
   1735                 closing=1;
   \   00000364   FC039F15           LDRNE    R0,??OnKey_39+0x4  ;; closing
   \   00000368   00408015           STRNE    R4,[R0, #+0]
   \   0000036C   0100001A           BNE      ??OnKey_41
   1736                }
   1737              case ENTER_BUTTON:
   1738                if(total_d!=0)
   \                     ??OnKey_42:
   \   00000370   000050E3           CMP      R0,#+0
   \   00000374   F08FBD08           POPEQ    {R4-R11,PC}
   1739                {
   1740                minine:
   1741                  {
   1742                NAMELIST *nl=nltop;
   \                     ??OnKey_41:
   \   00000378   ........           LDR      R0,??DataTable158  ;; nltop
   \   0000037C   000090E5           LDR      R0,[R0, #+0]
   1743                int skip_run=total_pos;
   \   00000380   001095E5           LDR      R1,[R5, #+0]
   \   00000384   010000EA           B        ??OnKey_43
   1744                while(nl)
   1745                {
   1746                   NAMELIST *p=nl;
   1747                   if(skip_run)
   1748                   {
   1749                     skip_run--;
   1750                     nl=p->next;
   \                     ??OnKey_44:
   \   00000388   000090E5           LDR      R0,[R0, #+0]
   \   0000038C   011041E2           SUB      R1,R1,#+1
   1751                   }
   \                     ??OnKey_43:
   \   00000390   000050E3           CMP      R0,#+0
   \   00000394   00005113           CMPNE    R1,#+0
   \   00000398   FAFFFF1A           BNE      ??OnKey_44
   1752                   else
   1753                     goto don;
   1754                }
   1755                don:
   1756                if ((!nl->is_daemon)||((closing)&&(nl->is_daemon)))
   \   0000039C   C4139FE5           LDR      R1,??OnKey_39+0x4  ;; closing
   \   000003A0   102090E5           LDR      R2,[R0, #+16]
   \   000003A4   001091E5           LDR      R1,[R1, #+0]
   \   000003A8   000052E3           CMP      R2,#+0
   \   000003AC   0100000A           BEQ      ??OnKey_45
   \   000003B0   000051E3           CMP      R1,#+0
   \   000003B4   E800000A           BEQ      ??OnKey_4
   1757                {
   1758                  if(closing)
   \                     ??OnKey_45:
   \   000003B8   0C0090E5           LDR      R0,[R0, #+12]
   \   000003BC   000051E3           CMP      R1,#+0
   \   000003C0   3100000A           BEQ      ??OnKey_46
   1759                  {
   1760                    int i;
   1761                    closing=0;
   \   000003C4   9C139FE5           LDR      R1,??OnKey_39+0x4  ;; closing
   \   000003C8   009081E5           STR      R9,[R1, #+0]
   1762                    i=((CSM_RAM *)(nl->p))->id;
   \   000003CC   0CA090E5           LDR      R10,[R0, #+12]
   1763                    if (i!=CSM_root()->idle_id) 
   \   000003D0   068100EF           SWI      +33030
   \   000003D4   040090E5           LDR      R0,[R0, #+4]
   \   000003D8   00005AE1           CMP      R10,R0
   \   000003DC   DE00000A           BEQ      ??OnKey_4
   1764                    {
   1765                      CloseCSM(i);
   \   000003E0   0A00A0E1           MOV      R0,R10
   \   000003E4   FC0100EF           SWI      +508
   1766                      int rem_pso=total_pos-1;
   \   000003E8   000095E5           LDR      R0,[R5, #+0]
   1767                      pos=1;
   \   000003EC   004088E5           STR      R4,[R8, #+0]
   \   000003F0   010050E2           SUBS     R0,R0,#+1
   1768                      total_pos=1;
   \   000003F4   004085E5           STR      R4,[R5, #+0]
   1769                      move_skip=0;
   \   000003F8   009087E5           STR      R9,[R7, #+0]
   \   000003FC   1A00000A           BEQ      ??OnKey_47
   1770                      while(rem_pso!=0)
   1771                      {
   1772                      total_pos++;
   1773                      if(total_pos<=total_d-1)
   \                     ??OnKey_48:
   \   00000400   ........           LDR      R2,??DataTable157  ;; total_d
   \   00000404   001095E5           LDR      R1,[R5, #+0]
   \   00000408   002092E5           LDR      R2,[R2, #+0]
   \   0000040C   011081E2           ADD      R1,R1,#+1
   \   00000410   001085E5           STR      R1,[R5, #+0]
   \   00000414   013042E2           SUB      R3,R2,#+1
   \   00000418   010053E1           CMP      R3,R1
   \   0000041C   0E0000BA           BLT      ??OnKey_49
   1774                      {
   1775                        if((total_pos<=3)||(total_pos>total_d-3)) pos++;
   \   00000420   032042E2           SUB      R2,R2,#+3
   \   00000424   040051E3           CMP      R1,#+4
   \   00000428   010052A1           CMPGE    R2,R1
   \   0000042C   040000AA           BGE      ??OnKey_50
   \   00000430   003098E5           LDR      R3,[R8, #+0]
   1776                        if((total_pos>3)&&(total_pos<=total_d-3)) move_skip++;
   \   00000434   040051E3           CMP      R1,#+4
   \   00000438   013083E2           ADD      R3,R3,#+1
   \   0000043C   003088E5           STR      R3,[R8, #+0]
   \   00000440   070000BA           BLT      ??OnKey_51
   \                     ??OnKey_50:
   \   00000444   010052E1           CMP      R2,R1
   \   00000448   050000BA           BLT      ??OnKey_51
   \   0000044C   001097E5           LDR      R1,[R7, #+0]
   \   00000450   011081E2           ADD      R1,R1,#+1
   \   00000454   001087E5           STR      R1,[R7, #+0]
   \   00000458   010000EA           B        ??OnKey_51
   1777                      }
   1778                      else
   1779                      {
   1780                      total_pos--;
   \                     ??OnKey_49:
   \   0000045C   011041E2           SUB      R1,R1,#+1
   \   00000460   001085E5           STR      R1,[R5, #+0]
   1781                      }
   1782                      rem_pso--;
   \                     ??OnKey_51:
   \   00000464   010050E2           SUBS     R0,R0,#+1
   1783                      }
   \   00000468   E4FFFF1A           BNE      ??OnKey_48
   1784                      sm=0;
   1785                      forward=1;
   \                     ??OnKey_47:
   \   0000046C   ........           LDR      R0,??DataTable146  ;; forward
   1786                      GBS_StartTimerProc(&start_tmr, 30, redrit); 
   \   00000470   ........           LDR      R2,??DataTable130  ;; redrit
   \   00000474   009086E5           STR      R9,[R6, #+0]
   \   00000478   004080E5           STR      R4,[R0, #+0]
   \   0000047C   ........           LDR      R0,??DataTable131  ;; start_tmr
   \   00000480   1E10A0E3           MOV      R1,#+30
   \   00000484   4D0000EF           SWI      +77
   \   00000488   83FFFFEA           B        ??OnKey_25
   1787                    }
   1788                  }
   1789                  else
   1790                  {
   1791          	CSMtoTop(((CSM_RAM *)(nl->p))->id,-1);
   \                     ??OnKey_46:
   \   0000048C   0C0090E5           LDR      R0,[R0, #+12]
   \   00000490   001064E2           RSB      R1,R4,#+0
   \   00000494   ........           _BLF     CSMtoTop,??CSMtoTop??rA
   \   00000498   8EFFFFEA           B        ??OnKey_30
   1792                  return(1);
   1793                  }
   1794                }
   1795                else
   1796                  closing=0;
   1797                }
   1798                }
   1799                break;
   1800              case LEFT_SOFT:
   1801                CSMtoTop(CSM_root()->idle_id,-1);
   1802                return(1);
   1803              case RIGHT_SOFT:
   1804                if(total_d!=0)
   \                     ??OnKey_52:
   \   0000049C   000050E3           CMP      R0,#+0
   \   000004A0   0100000A           BEQ      ??OnKey_53
   1805                {
   1806                total_pos=1;
   \                     ??OnKey_54:
   \   000004A4   004085E5           STR      R4,[R5, #+0]
   1807                goto minine;
   \   000004A8   B2FFFFEA           B        ??OnKey_41
   1808                }
   1809                else
   1810                {
   1811                  CSMtoTop(CSM_root()->idle_id,-1);
   \                     ??OnKey_53:
   \   000004AC   068100EF           SWI      +33030
   \   000004B0   040090E5           LDR      R0,[R0, #+4]
   \   000004B4   001064E2           RSB      R1,R4,#+0
   \   000004B8   ........           _BLF     CSMtoTop,??CSMtoTop??rA
   1812                return(1);
   \   000004BC   0100A0E3           MOV      R0,#+1
   \   000004C0   F08FBDE8           POP      {R4-R11,PC}
   1813                }
   1814               // break;
   1815                case GREEN_BUTTON:
   1816                 if(use_green)
   \                     ??OnKey_55:
   \   000004C4   A0029FE5           LDR      R0,??OnKey_39+0x8  ;; use_green
   \   000004C8   000090E5           LDR      R0,[R0, #+0]
   \   000004CC   000050E3           CMP      R0,#+0
   \   000004D0   F08FBD08           POPEQ    {R4-R11,PC}
   1817                 {
   1818                    task_list=2;
   \   000004D4   0200A0E3           MOV      R0,#+2
   \   000004D8   00008AE5           STR      R0,[R10, #+0]
   1819                    shutd=1;
   \   000004DC   ........           LDR      R0,??DataTable149  ;; shutd
   \   000004E0   2BFFFFEA           B        ??OnKey_14
   1820                    DirectRedrawGUI();
   1821                 }
   1822                  break;
   1823           //     return(1);
   1824              }
   1825              }
   1826              else//=======================================do the links
   1827                if(task_list==0)
   \                     ??OnKey_5:
   \   000004E4   00005BE3           CMP      R11,#+0
   \   000004E8   5C00001A           BNE      ??OnKey_56
   1828              {
   1829                switch(msg->gbsmsg->submess)
   \   000004EC   082092E5           LDR      R2,[R2, #+8]
   \   000004F0   012042E2           SUB      R2,R2,#+1
   \   000004F4   3C0052E3           CMP      R2,#+60
   \   000004F8   9700008A           BHI      ??OnKey_4
   \   000004FC   02BF8FE2           ADR      R11,??OnKey_1
   \   00000500   8220A0E1           MOV      R2,R2, LSL #+1
   \   00000504   F2B09BE1           LDRSH    R11,[R11, R2]
   \   00000508   0BF18FE0           ADD      PC,PC,R11, LSL #+2
   \                     ??OnKey_1:
   \   0000050C   E7FF93009300       DC16     +65511,+147,+147,+65509
   \              E5FF        
   \   00000514   930093009300       DC16     +147,+147,+147,+147
   \              9300        
   \   0000051C   93009300EDFF       DC16     +147,+147,+65517,+147
   \              9300        
   \   00000524   930093009300       DC16     +147,+147,+147,+147
   \              9300        
   \   0000052C   930093009300       DC16     +147,+147,+147,+147
   \              9300        
   \   00000534   930093009300       DC16     +147,+147,+147,+147
   \              9300        
   \   0000053C   930071FF9300       DC16     +147,+65393,+147,+147
   \              9300        
   \   00000544   930093009300       DC16     +147,+147,+147,+147
   \              9300        
   \   0000054C   930093009300       DC16     +147,+147,+147,+147
   \              9300        
   \   00000554   930093009300       DC16     +147,+147,+147,+147
   \              9300        
   \   0000055C   930093009300       DC16     +147,+147,+147,+147
   \              9300        
   \   00000564   930093009300       DC16     +147,+147,+147,+79
   \              4F00        
   \   0000056C   930093009300       DC16     +147,+147,+147,+147
   \              9300        
   \   00000574   930093009300       DC16     +147,+147,+147,+147
   \              9300        
   \   0000057C   930093003A00       DC16     +147,+147,+58,+38
   \              2600        
   \   00000584   1E000000           DC16     +30,+0
   1830                {
   1831                case LEFT_BUTTON:
   1832                  pos=1;
   1833                  total_pos=1;
   1834                  move_skip=0;
   1835                  task_list=1;
   1836                  sm=0;
   1837                  forward=1;
   \                     ??OnKey_57:
   \   00000588   ........           LDR      R0,??DataTable146  ;; forward
   \   0000058C   004088E5           STR      R4,[R8, #+0]
   \   00000590   004085E5           STR      R4,[R5, #+0]
   \   00000594   009087E5           STR      R9,[R7, #+0]
   \   00000598   00408AE5           STR      R4,[R10, #+0]
   \   0000059C   009086E5           STR      R9,[R6, #+0]
   \   000005A0   004080E5           STR      R4,[R0, #+0]
   1838                  DirectRedrawGUI();
   \   000005A4   3BFFFFEA           B        ??OnKey_8
   1839                  break;
   1840                case DOWN_BUTTON:
   1841                total_pos++;
   \                     ??OnKey_58:
   \   000005A8   003085E5           STR      R3,[R5, #+0]
   1842                if(total_pos<=book_show)
   \   000005AC   03005EE1           CMP      LR,R3
   \   000005B0   0E0000BA           BLT      ??OnKey_59
   1843                {
   1844                if((total_pos<=3)||(total_pos>book_show-2)) pos++;
   \   000005B4   02004EE2           SUB      R0,LR,#+2
   \   000005B8   040053E3           CMP      R3,#+4
   \   000005BC   030050A1           CMPGE    R0,R3
   \   000005C0   040000AA           BGE      ??OnKey_60
   \   000005C4   001098E5           LDR      R1,[R8, #+0]
   1845                if((total_pos>3)&&(total_pos<=book_show-2)) move_skip++;
   \   000005C8   040053E3           CMP      R3,#+4
   \   000005CC   011081E2           ADD      R1,R1,#+1
   \   000005D0   001088E5           STR      R1,[R8, #+0]
   \   000005D4   2FFFFFBA           BLT      ??OnKey_8
   \                     ??OnKey_60:
   \   000005D8   030050E1           CMP      R0,R3
   \   000005DC   2DFFFFBA           BLT      ??OnKey_8
   \   000005E0   000097E5           LDR      R0,[R7, #+0]
   \   000005E4   010080E2           ADD      R0,R0,#+1
   \   000005E8   000087E5           STR      R0,[R7, #+0]
   \   000005EC   29FFFFEA           B        ??OnKey_8
   1846                }
   1847                else
   1848                  total_pos--;
   \                     ??OnKey_59:
   \   000005F0   000085E5           STR      R0,[R5, #+0]
   1849                DirectRedrawGUI();
   \   000005F4   27FFFFEA           B        ??OnKey_8
   1850                break;
   1851              case UP_BUTTON:
   1852                total_pos--;
   \                     ??OnKey_61:
   \   000005F8   00C085E5           STR      R12,[R5, #+0]
   1853                if(total_pos)
   \   000005FC   00005CE3           CMP      R12,#+0
   \   00000600   0F00000A           BEQ      ??OnKey_62
   1854                {
   1855                if((total_pos<3)||(total_pos>=book_show-2)) pos--;
   \   00000604   02004EE2           SUB      R0,LR,#+2
   \   00000608   03005CE3           CMP      R12,#+3
   \   0000060C   010000BA           BLT      ??OnKey_63
   \   00000610   00005CE1           CMP      R12,R0
   \   00000614   040000BA           BLT      ??OnKey_64
   \                     ??OnKey_63:
   \   00000618   001098E5           LDR      R1,[R8, #+0]
   1856                if((total_pos>=3)&&(total_pos<book_show-2)) move_skip--;
   \   0000061C   03005CE3           CMP      R12,#+3
   \   00000620   011041E2           SUB      R1,R1,#+1
   \   00000624   001088E5           STR      R1,[R8, #+0]
   \   00000628   1AFFFFBA           BLT      ??OnKey_8
   \                     ??OnKey_64:
   \   0000062C   00005CE1           CMP      R12,R0
   \   00000630   18FFFFAA           BGE      ??OnKey_8
   \   00000634   000097E5           LDR      R0,[R7, #+0]
   \   00000638   010040E2           SUB      R0,R0,#+1
   \   0000063C   000087E5           STR      R0,[R7, #+0]
   \   00000640   14FFFFEA           B        ??OnKey_8
   1857                }
   1858                else
   1859                  total_pos++;
   \                     ??OnKey_62:
   \   00000644   004085E5           STR      R4,[R5, #+0]
   1860                DirectRedrawGUI();
   \   00000648   12FFFFEA           B        ??OnKey_8
   1861                break;
   1862              case 0x30:
   1863                time_not=!time_not;
   \                     ??OnKey_65:
   \   0000064C   000091E5           LDR      R0,[R1, #+0]
   \   00000650   000050E3           CMP      R0,#+0
   \   00000654   0040A013           MOVNE    R4,#+0
   \   00000658   004081E5           STR      R4,[R1, #+0]
   1864                DirectRedrawGUI();
   \   0000065C   0DFFFFEA           B        ??OnKey_8
   1865                break;
   1866              case LEFT_SOFT:
   1867                CSMtoTop(CSM_root()->idle_id,-1);
   1868                return(1);
   1869              case RIGHT_SOFT:
   1870                total_pos=1;
   1871                goto minine;
   1872                case ENTER_BUTTON:
   1873                  Start_bookmark(total_pos);
   1874                  return(1);
   1875                  case GREEN_BUTTON:
   1876                    if(use_green)
   1877                 {
   1878                    task_list=2;
   1879                    shutd=1;
   1880                    DirectRedrawGUI();
   1881                 }
   1882                  break;
   1883                }
   1884              }//==========================================end links
   1885              else
   1886                if(task_list==2)
   \                     ??OnKey_56:
   \   00000660   02005BE3           CMP      R11,#+2
   \   00000664   3C00001A           BNE      ??OnKey_4
   1887                {
   1888                  switch(msg->gbsmsg->submess)
   \   00000668   ........           LDR      R0,??DataTable150  ;; lock_other
   \   0000066C   082092E5           LDR      R2,[R2, #+8]
   \   00000670   000090E5           LDR      R0,[R0, #+0]
   \   00000674   042042E2           SUB      R2,R2,#+4
   \   00000678   3A0052E3           CMP      R2,#+58
   \   0000067C   3600008A           BHI      ??OnKey_4
   \   00000680   013F8FE2           ADR      R3,??OnKey_2
   \   00000684   0230D3E7           LDRB     R3,[R3, R2]
   \   00000688   03F18FE0           ADD      PC,PC,R3, LSL #+2
   \                     ??OnKey_2:
   \   0000068C   18333333           DC8      +24,+51,+51,+51
   \   00000690   3333330E           DC8      +51,+51,+51,+14
   \   00000694   33333333           DC8      +51,+51,+51,+51
   \   00000698   33333333           DC8      +51,+51,+51,+51
   \   0000069C   33333333           DC8      +51,+51,+51,+51
   \   000006A0   33332633           DC8      +51,+51,+38,+51
   \   000006A4   33333333           DC8      +51,+51,+51,+51
   \   000006A8   33333333           DC8      +51,+51,+51,+51
   \   000006AC   33333333           DC8      +51,+51,+51,+51
   \   000006B0   33333333           DC8      +51,+51,+51,+51
   \   000006B4   33333333           DC8      +51,+51,+51,+51
   \   000006B8   1B333333           DC8      +27,+51,+51,+51
   \   000006BC   33333333           DC8      +51,+51,+51,+51
   \   000006C0   33333333           DC8      +51,+51,+51,+51
   \   000006C4   33202000           DC8      +51,+32,+32,+0
   1889                {
   1890                case GREEN_BUTTON:
   1891                  if(!lock_other)  //===========testing switch
   \                     ??OnKey_66:
   \   000006C8   000050E3           CMP      R0,#+0
   \   000006CC   1500001A           BNE      ??OnKey_67
   1892                  {
   1893                  pos=1;
   1894                  total_pos=1;
   1895                  move_skip=0;
   1896                  task_list=1;
   1897                  sm=0;
   1898                  forward=1;
   \   000006D0   ........           LDR      R0,??DataTable146  ;; forward
   \   000006D4   004088E5           STR      R4,[R8, #+0]
   \   000006D8   004085E5           STR      R4,[R5, #+0]
   \   000006DC   009087E5           STR      R9,[R7, #+0]
   \   000006E0   009086E5           STR      R9,[R6, #+0]
   \   000006E4   004080E5           STR      R4,[R0, #+0]
   1899                  task_list=1;
   \   000006E8   00408AE5           STR      R4,[R10, #+0]
   1900                  DirectRedrawGUI();
   \   000006EC   E9FEFFEA           B        ??OnKey_8
   1901                  }
   1902                  else
   1903                    goto enga;
   1904                  break;
   1905                case RIGHT_SOFT:
   1906                  if(lock_other)
   \                     ??OnKey_68:
   \   000006F0   000050E3           CMP      R0,#+0
   \   000006F4   F08FBD08           POPEQ    {R4-R11,PC}
   1907                  return(1);
   \   000006F8   F6FEFFEA           B        ??OnKey_30
   1908                  break;
   1909                case 0x30:
   1910                time_not=!time_not;
   \                     ??OnKey_69:
   \   000006FC   000091E5           LDR      R0,[R1, #+0]
   \   00000700   000050E3           CMP      R0,#+0
   \   00000704   0040A013           MOVNE    R4,#+0
   \   00000708   004081E5           STR      R4,[R1, #+0]
   1911                DirectRedrawGUI();
   \   0000070C   E1FEFFEA           B        ??OnKey_8
   1912                break;
   1913                case RIGHT_BUTTON:
   1914                case LEFT_BUTTON:
   1915                  shutd=!shutd;
   \                     ??OnKey_70:
   \   00000710   ........           LDR      R0,??DataTable149  ;; shutd
   \   00000714   000090E5           LDR      R0,[R0, #+0]
   \   00000718   000050E3           CMP      R0,#+0
   \   0000071C   ........           LDR      R0,??DataTable149  ;; shutd
   \   00000720   0040A013           MOVNE    R4,#+0
   \   00000724   9AFEFFEA           B        ??OnKey_14
   1916                  DirectRedrawGUI();
   1917                  break;
   1918                case ENTER_BUTTON:
   1919                  {
   1920                  enga:
   1921                  task_list=3;
   \                     ??OnKey_67:
   \   00000728   0300A0E3           MOV      R0,#+3
   \   0000072C   00008AE5           STR      R0,[R10, #+0]
   1922                  data4=AllocWS(128);
   \   00000730   8000A0E3           MOV      R0,#+128
   \   00000734   250100EF           SWI      +293
   \   00000738   ........           LDR      R1,??DataTable138  ;; data4
   \   0000073C   000081E5           STR      R0,[R1, #+0]
   1923                  data5=AllocWS(128);
   \   00000740   8000A0E3           MOV      R0,#+128
   \   00000744   250100EF           SWI      +293
   \   00000748   20109FE5           LDR      R1,??OnKey_39+0xC  ;; data5
   \   0000074C   000081E5           STR      R0,[R1, #+0]
   1924                  show_daemons=1;
   \   00000750   ........           LDR      R0,??DataTable139  ;; show_daemons
   \   00000754   004080E5           STR      R4,[R0, #+0]
   1925                  task_list3();
   \   00000758   ........           BL       task_list3
   1926                  }
   1927                  break;
   1928                }
   1929                }
   1930            }
   1931            return(0);
   \                     ??OnKey_4:
   \   0000075C   0000A0E3           MOV      R0,#+0
   \   00000760   F08FBDE8           POP      {R4-R11,PC}      ;; return
   \                     ??OnKey_39:
   \   00000764   ........           DC32     cleseri
   \   00000768   ........           DC32     closing
   \   0000076C   ........           DC32     use_green
   \   00000770   ........           DC32     data5
   1932          }
   1933          
   1934          extern void kill_data(void *p, void (*func_p)(void *));

   \                                 In segment CODE, align 4, keep-with-next
   1935          void ElfKiller(void)
   1936          {
   \                     ElfKiller:
   \   00000000   00402DE9           PUSH     {LR}
   1937            extern void *ELF_BEGIN;
   1938            kill_data(&ELF_BEGIN,(void (*)(void *))mfree_adr());
   \   00000004   158000EF           SWI      +32789
   \   00000008   0010A0E1           MOV      R1,R0
   \   0000000C   ........           LDR      R0,??DataTable172  ;; ELF_BEGIN
   \   00000010   0040BDE8           POP      {LR}             ;; Pop
   \   00000014   ........           _BF      kill_data,??kill_data??rA  ;; tailcall
   1939          }
   1940          

   \                                 In segment CODE, align 4, keep-with-next
   1941          int method8(void){return(0);}
   \                     method8:
   \   00000000   0000A0E3           MOV      R0,#+0
   \   00000004   1EFF2FE1           BX       LR               ;; return
   1942          

   \                                 In segment CODE, align 4, keep-with-next
   1943          int method9(void){return(0);}
   \                     method9:
   \   00000000   0000A0E3           MOV      R0,#+0
   \   00000004   1EFF2FE1           BX       LR               ;; return
   1944          

   \                                 In segment DATA_C, align 4, align-sorted
   1945          const void * const gui_methods[11]={
   \                     gui_methods:
   \   00000000   ............       DC32 OnRedraw, onCreate, onClose, onFocus, onUnfocus, OnKey, 0H
   \              ............
   \              ............
   \              ............
   \              00000000    
   \   0000001C   ............       DC32 kill_data, method8, method9, 0H
   \              ............
   \              00000000    
   1946            (void *)OnRedraw,	//Redraw
   1947            (void *)onCreate,	//Create
   1948            (void *)onClose,	//Close
   1949            (void *)onFocus,	//Focus
   1950            (void *)onUnfocus,	//Unfocus
   1951            (void *)OnKey,	//OnKey
   1952            0,
   1953            (void *)kill_data,	//Destroy
   1954            (void *)method8,
   1955            (void *)method9,
   1956            0
   1957          };
   1958          

   \                                 In segment DATA_C, align 4, align-sorted
   1959          const RECT Canvas={0,0,132,176};
   \                     Canvas:
   \   00000000   000000008400       DC16 0, 0, 132, 176
   \              B000        
   1960          
   1961          #pragma inline
   1962          void patch_rect(const RECT*rcc,int x,int y, int x2, int y2)
   1963          {
   1964            RECT *rc=(RECT *)rcc;
   1965            rc->x=x;
   1966            rc->y=y;
   1967            rc->x2=x2;
   1968            rc->y2=y2;
   1969          }
   1970          

   \                                 In segment CODE, align 4, keep-with-next
   1971          void maincsm_oncreate(CSM_RAM *data)
   1972          {
   \                     maincsm_oncreate:
   \   00000000   F0402DE9           PUSH     {R4-R7,LR}
   1973          //#ifdef NEWSGOLD
   1974            DoScreen2();
   1975          //#endif
   1976            MAIN_GUI *main_gui=malloc(sizeof(MAIN_GUI));
   1977            MAIN_CSM*csm=(MAIN_CSM*)data;
   1978            zeromem(main_gui,sizeof(MAIN_GUI));
   1979            main_gui->gui.canvas=(void *)(&Canvas);
   \   00000004   70609FE5           LDR      R6,??maincsm_oncreate_0  ;; Canvas
   \   00000008   0040A0E1           MOV      R4,R0
   \   0000000C   ........           BL       DoScreen2
   \   00000010   4000A0E3           MOV      R0,#+64
   \   00000014   140000EF           SWI      +20
   \   00000018   0050A0E1           MOV      R5,R0
   \   0000001C   4010A0E3           MOV      R1,#+64
   \   00000020   1D0100EF           SWI      +285
   1980            main_gui->gui.methods=(void *)gui_methods;
   \   00000024   54009FE5           LDR      R0,??maincsm_oncreate_0+0x4  ;; gui_methods
   \   00000028   006085E5           STR      R6,[R5, #+0]
   \   0000002C   040085E5           STR      R0,[R5, #+4]
   1981            main_gui->gui.item_ll.data_mfree=(void (*)(void *))mfree_adr();
   \   00000030   158000EF           SWI      +32789
   \   00000034   200085E5           STR      R0,[R5, #+32]
   1982            patch_rect((RECT*)&Canvas,0,YDISP,ScreenW()-1,ScreenH()-1);
   \   00000038   898100EF           SWI      +33161
   \   0000003C   0070A0E1           MOV      R7,R0
   \   00000040   888100EF           SWI      +33160
   \   00000044   011047E2           SUB      R1,R7,#+1
   \   00000048   010040E2           SUB      R0,R0,#+1
   \   0000004C   0020A0E3           MOV      R2,#+0
   \   00000050   B020C6E1           STRH     R2,[R6, #+0]
   \   00000054   1830A0E3           MOV      R3,#+24
   \   00000058   B230C6E1           STRH     R3,[R6, #+2]
   \   0000005C   B400C6E1           STRH     R0,[R6, #+4]
   \   00000060   B610C6E1           STRH     R1,[R6, #+6]
   1983            csm->csm.state=0;
   \   00000064   102084E5           STR      R2,[R4, #+16]
   1984            csm->csm.unk1=0;
   \   00000068   142084E5           STR      R2,[R4, #+20]
   1985            csm->gui_id=CreateGUI(main_gui);
   \   0000006C   0500A0E1           MOV      R0,R5
   \   00000070   370100EF           SWI      +311
   \   00000074   280084E5           STR      R0,[R4, #+40]
   1986          }
   \   00000078   F080BDE8           POP      {R4-R7,PC}       ;; return
   \                     ??maincsm_oncreate_0:
   \   0000007C   ........           DC32     Canvas
   \   00000080   ........           DC32     gui_methods
   1987          
   1988          

   \                                 In segment CODE, align 4, keep-with-next
   1989          void maincsm_onclose(CSM_RAM *csm)
   1990          {
   1991            //SUBPROC((void *)ElfKiller);
   1992          }
   \                     maincsm_onclose:
   \   00000000   1EFF2FE1           BX       LR               ;; return
   1993          

   \                                 In segment CODE, align 4, keep-with-next
   1994          int maincsm_onmessage(CSM_RAM *data, GBS_MSG *msg)
   1995          {
   1996            MAIN_CSM *csm=(MAIN_CSM*)data;
   1997             if ((msg->msg==MSG_GUI_DESTROYED)&&((int)msg->data0==csm->gui_id))
   \                     maincsm_onmessage:
   \   00000000   043091E5           LDR      R3,[R1, #+4]
   \   00000004   0220E0E3           MVN      R2,#+2
   \   00000008   0EC0A0E3           MOV      R12,#+14
   \   0000000C   64CC8CE3           ORR      R12,R12,#0x6400
   \   00000010   0C0053E1           CMP      R3,R12
   \   00000014   0400001A           BNE      ??maincsm_onmessage_0
   \   00000018   0C3091E5           LDR      R3,[R1, #+12]
   \   0000001C   28C090E5           LDR      R12,[R0, #+40]
   \   00000020   0C0053E1           CMP      R3,R12
   \   00000024   0300001A           BNE      ??maincsm_onmessage_1
   1998            {
   1999              csm->csm.state=-3;
   \   00000028   102080E5           STR      R2,[R0, #+16]
   2000            } 
   2001            if (msg->msg==MSG_INCOMMING_CALL)
   \                     ??maincsm_onmessage_0:
   \   0000002C   041091E5           LDR      R1,[R1, #+4]
   \   00000030   600C51E3           CMP      R1,#+24576
   2002            {
   2003              csm->csm.state=-3;
   \   00000034   10208005           STREQ    R2,[R0, #+16]
   2004            }
   2005            return(1); 
   \                     ??maincsm_onmessage_1:
   \   00000038   0100A0E3           MOV      R0,#+1
   \   0000003C   1EFF2FE1           BX       LR               ;; return
   2006          }
   2007          
   2008          const struct
   2009          {
   2010            CSM_DESC maincsm;
   2011            WSHDR maincsm_name;

   \                                 In segment DATA_C, align 4, align-sorted
   2012          }MAINCSM =
   \                     MAINCSM:
   \   00000000   ............       DC32 maincsm_onmessage, maincsm_oncreate, 0, 0, 0, 0, maincsm_onclose
   \              ....00000000
   \              000000000000
   \              000000000000
   \              ........    
   \   0000001C   2C0000000100       DC32 44, 1, minus11, maincsm_name_body, 55AACCCCH, 3333AA55H, 0
   \              0000........
   \              ........CCCC
   \              AA5555AA3333
   \              00000000    
   \   00000038   8B00               DC16 139
   \   0000003A   0000               DC8 0, 0
   2013          {
   2014            {
   2015            maincsm_onmessage,
   2016            maincsm_oncreate,
   2017          #ifdef NEWSGOLD
   2018            0,
   2019            0,
   2020            0,
   2021            0,
   2022          #endif
   2023            maincsm_onclose,
   2024            sizeof(MAIN_CSM),
   2025            1,
   2026            &minus11
   2027            },
   2028            {
   2029              maincsm_name_body,
   2030              NAMECSM_MAGIC1,
   2031              NAMECSM_MAGIC2,
   2032              0x0,
   2033              139
   2034            }
   2035          };
   2036          

   \                                 In segment CODE, align 4, keep-with-next
   2037          void UpdateCSMname(void)
   2038          {
   \                     UpdateCSMname:
   \   00000000   10402DE9           PUSH     {R4,LR}
   2039            WSHDR *ws=AllocWS(256);
   \   00000004   400FA0E3           MOV      R0,#+256
   \   00000008   250100EF           SWI      +293
   2040            wsprintf((WSHDR *)(&MAINCSM.maincsm_name),"xtask 3 mod");
   \   0000000C   14109FE5           LDR      R1,??UpdateCSMname_0  ;; `?<Constant "xtask 3 mod">`
   \   00000010   0040A0E1           MOV      R4,R0
   \   00000014   10009FE5           LDR      R0,??UpdateCSMname_0+0x4  ;; MAINCSM + 40
   \   00000018   240100EF           SWI      +292
   2041            FreeWS(ws);
   \   0000001C   0400A0E1           MOV      R0,R4
   \   00000020   290100EF           SWI      +297
   2042          }
   \   00000024   1080BDE8           POP      {R4,PC}          ;; return
   \                     ??UpdateCSMname_0:
   \   00000028   ........           DC32     `?<Constant "xtask 3 mod">`
   \   0000002C   ........           DC32     MAINCSM + 40
   2043          /*
   2044          CSM_RAM *GetUnderIdleCSM(void)
   2045          {
   2046            CSM_RAM *u;
   2047            CSM_DESC *UnderIdleDesc;
   2048            UnderIdleDesc=(CSM_DESC *)strtoul((char *)"A042B384",0,0x10);
   2049            LockSched();
   2050            u=CSM_root()->csm_q->csm.first;
   2051            while(u && u->constr!=UnderIdleDesc) u=u->next;
   2052            UnlockSched();
   2053            return u;
   2054          }*/
   2055          
   2056          extern const char UNDER_IDLE_CONSTR[];
   2057          extern const char *successed_config_filename;
   2058          

   \                                 In segment CODE, align 4, keep-with-next
   2059          CSM_RAM *GetUnderIdleCSM(void)
   2060          {
   \                     GetUnderIdleCSM:
   \   00000000   30402DE9           PUSH     {R4,R5,LR}
   2061            CSM_RAM *u;
   2062            CSM_DESC *UnderIdleDesc;
   2063            if (strlen((char *)UNDER_IDLE_CONSTR)==8)
   \   00000004   88409FE5           LDR      R4,??GetUnderIdleCSM_0  ;; UNDER_IDLE_CONSTR
   \   00000008   0400A0E1           MOV      R0,R4
   \   0000000C   1B0000EF           SWI      +27
   \   00000010   080050E3           CMP      R0,#+8
   \   00000014   0500001A           BNE      ??GetUnderIdleCSM_1
   2064            {
   2065              UnderIdleDesc=(CSM_DESC *)strtoul((char *)UNDER_IDLE_CONSTR,0,0x10);
   \   00000018   1020A0E3           MOV      R2,#+16
   \   0000001C   0010A0E3           MOV      R1,#+0
   \   00000020   0400A0E1           MOV      R0,R4
   \   00000024   ........           _BLF     strtoul,??strtoul??rA
   \   00000028   0050A0E1           MOV      R5,R0
   \   0000002C   0B0000EA           B        ??GetUnderIdleCSM_2
   2066            }
   2067            else
   2068            {
   2069              UnderIdleDesc=((CSM_RAM *)(FindCSMbyID(CSM_root()->idle_id))->prev)->constr;
   \                     ??GetUnderIdleCSM_1:
   \   00000030   068100EF           SWI      +33030
   \   00000034   040090E5           LDR      R0,[R0, #+4]
   \   00000038   080100EF           SWI      +264
   \   0000003C   040090E5           LDR      R0,[R0, #+4]
   2070              sprintf((char *)UNDER_IDLE_CONSTR,"%08X",UnderIdleDesc);
   \   00000040   50109FE5           LDR      R1,??GetUnderIdleCSM_0+0x4  ;; `?<Constant "%08X">`
   \   00000044   085090E5           LDR      R5,[R0, #+8]
   \   00000048   0400A0E1           MOV      R0,R4
   \   0000004C   0520A0E1           MOV      R2,R5
   \   00000050   160000EF           SWI      +22
   2071              SaveConfigData(successed_config_filename);
   \   00000054   ........           LDR      R0,??DataTable166  ;; successed_config_filename
   \   00000058   000090E5           LDR      R0,[R0, #+0]
   \   0000005C   ........           _BLF     SaveConfigData,??SaveConfigData??rA
   2072            }
   2073            LockSched();
   \                     ??GetUnderIdleCSM_2:
   \   00000060   460100EF           SWI      +326
   2074            u=CSM_root()->csm_q->csm.first;
   \   00000064   068100EF           SWI      +33030
   \   00000068   080090E5           LDR      R0,[R0, #+8]
   \   0000006C   084090E5           LDR      R4,[R0, #+8]
   \   00000070   000000EA           B        ??GetUnderIdleCSM_3
   2075            while(u && u->constr!=UnderIdleDesc) u=u->next;
   \                     ??GetUnderIdleCSM_4:
   \   00000074   004094E5           LDR      R4,[R4, #+0]
   \                     ??GetUnderIdleCSM_3:
   \   00000078   000054E3           CMP      R4,#+0
   \   0000007C   08009415           LDRNE    R0,[R4, #+8]
   \   00000080   05005011           CMPNE    R0,R5
   \   00000084   FAFFFF1A           BNE      ??GetUnderIdleCSM_4
   2076            UnlockSched();
   \   00000088   470100EF           SWI      +327
   2077            return u;
   \   0000008C   0400A0E1           MOV      R0,R4
   \   00000090   3080BDE8           POP      {R4,R5,PC}       ;; return
   \                     ??GetUnderIdleCSM_0:
   \   00000094   ........           DC32     UNDER_IDLE_CONSTR
   \   00000098   ........           DC32     `?<Constant "%08X">`
   2078          }
   2079          
   2080          //------------add on---------------------------//
   2081          #ifdef NEWSGOLD
   2082           #define USE_ONE_KEY
   2083          #endif
   2084          
   2085          #define TMR_SECOND(A) (1300L*A/6)
   2086          

   \                                 In segment DATA_Z, align 4, align-sorted
   2087          volatile int SHOW_LOCK;
   \                     SHOW_LOCK:
   \   00000000                      DS8 4
   2088          

   \                                 In segment DATA_Z, align 4, align-sorted
   2089          CSM_DESC icsmd;
   \                     icsmd:
   \   00000000                      DS8 40

   \                                 In segment DATA_Z, align 4, align-sorted
   2090          int (*old_icsm_onMessage)(CSM_RAM*,GBS_MSG*);
   \                     old_icsm_onMessage:
   \   00000000                      DS8 4

   \                                 In segment DATA_Z, align 4, align-sorted
   2091          void (*old_icsm_onClose)(CSM_RAM*);
   \                     old_icsm_onClose:
   \   00000000                      DS8 4
   2092          
   2093          

   \                                 In segment DATA_Z, align 4, align-sorted
   2094          CSM_RAM *under_idle;
   \                     under_idle:
   \   00000000                      DS8 4
   2095          
   2096          extern const int ACTIVE_KEY;
   2097          extern const int ACTIVE_KEY_STYLE;
   2098          extern const int RED_BUT_MODE;
   2099          extern const int ENA_LONG_PRESS;
   2100          extern const int ENA_LOCK;
   2101          
   2102          extern const char *successed_config_filename;
   2103          
   2104          

   \                                 In segment DATA_Z, align 4, align-sorted
   2105          int mode;
   \                     mode:
   \   00000000                      DS8 4
   2106          

   \                                 In segment DATA_Z, align 4, align-sorted
   2107          int mode_red;
   \                     mode_red:
   \   00000000                      DS8 4
   2108          

   \                                 In segment DATA_Z, align 4, align-sorted
   2109          int mode_enter;
   \                     mode_enter:
   \   00000000                      DS8 4
   2110          
   2111          

   \                                 In segment CODE, align 4, keep-with-next
   2112          void ShowMenu(int casi)
   2113          {
   \                     ShowMenu:
   \   00000000   F0412DE9           PUSH     {R4-R8,LR}
   2114            if(!IsGuiOnTop(MAINCSM_ID))
   \   00000004   ........           LDR      R4,??DataTable142  ;; MAINCSM_ID
   \   00000008   2CD04DE2           SUB      SP,SP,#+44
   \   0000000C   0070A0E1           MOV      R7,R0
   \   00000010   000094E5           LDR      R0,[R4, #+0]
   \   00000014   350100EF           SWI      +309
   \   00000018   000050E3           CMP      R0,#+0
   \   0000001C   2800001A           BNE      ??ShowMenu_0
   2115            {
   2116              if(casi)
   \   00000020   ........           LDR      R8,??DataTable157  ;; total_d
   \   00000024   0160A0E3           MOV      R6,#+1
   \   00000028   0050A0E3           MOV      R5,#+0
   \   0000002C   000057E3           CMP      R7,#+0
   \   00000030   1100000A           BEQ      ??ShowMenu_1
   2117              {
   2118                total_d=GetNumberOfDialogs()-1;
   \   00000034   ........           _BLF     GetNumberOfDialogs,??GetNumberOfDialogs??rA
   2119          #ifdef EVILFOX
   2120                  pos=1;
   2121                  total_pos=1;
   2122                  move_skip=0;
   2123          #else
   2124                  if(total_d>=1)
   2125                  {
   2126                  pos=2;
   2127                  total_pos=2;
   2128                  move_skip=0;
   2129                  }
   2130                  else
   2131                    {
   2132                  pos=1;
   2133                  total_pos=1;
   2134                  move_skip=0;
   2135                  }
   2136          #endif
   2137              task_list=1;
   2138          //    time_not=1;
   2139              sm=0;
   \   00000038   ........           LDR      R1,??DataTable144  ;; sm
   \   0000003C   010040E2           SUB      R0,R0,#+1
   \   00000040   000088E5           STR      R0,[R8, #+0]
   \   00000044   ........           LDR      R0,??DataTable145  ;; pos
   \   00000048   005081E5           STR      R5,[R1, #+0]
   2140              forward=1;
   \   0000004C   ........           LDR      R1,??DataTable146  ;; forward
   \   00000050   006080E5           STR      R6,[R0, #+0]
   \   00000054   ........           LDR      R0,??DataTable147  ;; total_pos
   \   00000058   006081E5           STR      R6,[R1, #+0]
   2141              logout=0;
   \   0000005C   68109FE5           LDR      R1,??ShowMenu_2  ;; logout
   \   00000060   006080E5           STR      R6,[R0, #+0]
   \   00000064   ........           LDR      R0,??DataTable148  ;; move_skip
   \   00000068   005081E5           STR      R5,[R1, #+0]
   \   0000006C   005080E5           STR      R5,[R0, #+0]
   \   00000070   0100A0E3           MOV      R0,#+1
   2142              lock_other=0;
   \   00000074   0510A0E1           MOV      R1,R5
   \   00000078   060000EA           B        ??ShowMenu_3
   2143              }
   2144              else
   2145              {
   2146                total_d=GetNumberOfDialogs()-1;
   \                     ??ShowMenu_1:
   \   0000007C   ........           _BLF     GetNumberOfDialogs,??GetNumberOfDialogs??rA
   2147                task_list=2;
   2148                shutd=1;
   \   00000080   ........           LDR      R1,??DataTable149  ;; shutd
   \   00000084   010040E2           SUB      R0,R0,#+1
   \   00000088   000088E5           STR      R0,[R8, #+0]
   \   0000008C   0200A0E3           MOV      R0,#+2
   \   00000090   006081E5           STR      R6,[R1, #+0]
   2149                lock_other=1;
   \   00000094   0110A0E3           MOV      R1,#+1
   \                     ??ShowMenu_3:
   \   00000098   ........           LDR      R2,??DataTable150  ;; lock_other
   \   0000009C   001082E5           STR      R1,[R2, #+0]
   \   000000A0   ........           LDR      R1,??DataTable151  ;; task_list
   \   000000A4   000081E5           STR      R0,[R1, #+0]
   2150              }
   2151              #ifdef ELKA
   2152            char* ramIconBar = RamIconBar();
   2153            *ramIconBar = 0;
   \   000000A8   378200EF           SWI      +33335
   \   000000AC   0050C0E5           STRB     R5,[R0, #+0]
   2154            #endif
   2155              char dummy[sizeof(MAIN_CSM)];
   2156              MAINCSM_ID = CreateCSM(&MAINCSM.maincsm,dummy,2);
   \   000000B0   18009FE5           LDR      R0,??ShowMenu_2+0x4  ;; MAINCSM
   \   000000B4   0220A0E3           MOV      R2,#+2
   \   000000B8   0D10A0E1           MOV      R1,SP
   \   000000BC   070100EF           SWI      +263
   \   000000C0   000084E5           STR      R0,[R4, #+0]
   2157            }
   2158          }
   \                     ??ShowMenu_0:
   \   000000C4   2CD08DE2           ADD      SP,SP,#+44       ;; stack cleaning
   \   000000C8   F081BDE8           POP      {R4-R8,PC}       ;; return
   \                     ??ShowMenu_2:
   \   000000CC   ........           DC32     logout
   \   000000D0   ........           DC32     MAINCSM
   2159          
   2160          extern const char exept_list[128];
   2161          

   \                                 In segment CODE, align 4, keep-with-next
   2162          void DoClosery()
   2163          {
   \                     DoClosery:
   \   00000000   F0402DE9           PUSH     {R4-R7,LR}
   2164            total_d=GetNumberOfDialogs()-1;
   \   00000004   ........           _BLF     GetNumberOfDialogs,??GetNumberOfDialogs??rA
   \   00000008   ........           LDR      R1,??DataTable157  ;; total_d
   \   0000000C   010040E2           SUB      R0,R0,#+1
   \   00000010   000081E5           STR      R0,[R1, #+0]
   2165            NAMELIST *nl=nltop;
   \   00000014   ........           LDR      R0,??DataTable158  ;; nltop
   \   00000018   004090E5           LDR      R4,[R0, #+0]
   \   0000001C   000054E3           CMP      R4,#+0
   \   00000020   1C00000A           BEQ      ??DoClosery_0
   \   00000024   80509FE5           LDR      R5,??DoClosery_1  ;; exept_list
   2166            while(nl)
   2167            {
   2168               NAMELIST *p=nl;
   2169               char *ramedy=malloc(128);
   \                     ??DoClosery_2:
   \   00000028   8000A0E3           MOV      R0,#+128
   \   0000002C   140000EF           SWI      +20
   \   00000030   0060A0E1           MOV      R6,R0
   2170               convWS_to_ANSI(nl->name, ramedy);
   \   00000034   080094E5           LDR      R0,[R4, #+8]
   \   00000038   0610A0E1           MOV      R1,R6
   \   0000003C   ........           _BLF     convWS_to_ANSI,??convWS_to_ANSI??rA
   2171               check_name(ramedy);
   \   00000040   0600A0E1           MOV      R0,R6
   \   00000044   ........           BL       check_name
   2172               if((strstr(exept_list, ramedy)==0)&&(!nl->is_daemon))
   \   00000048   0610A0E1           MOV      R1,R6
   \   0000004C   0500A0E1           MOV      R0,R5
   \   00000050   180100EF           SWI      +280
   \   00000054   000050E3           CMP      R0,#+0
   \   00000058   10009405           LDREQ    R0,[R4, #+16]
   \   0000005C   00005003           CMPEQ    R0,#+0
   \   00000060   0700001A           BNE      ??DoClosery_3
   2173               {
   2174                 int i;
   2175                 i=((CSM_RAM *)(nl->p))->id;
   \   00000064   0C0094E5           LDR      R0,[R4, #+12]
   \   00000068   0C7090E5           LDR      R7,[R0, #+12]
   2176                 if (i!=CSM_root()->idle_id) 
   \   0000006C   068100EF           SWI      +33030
   \   00000070   040090E5           LDR      R0,[R0, #+4]
   \   00000074   000057E1           CMP      R7,R0
   \   00000078   0100000A           BEQ      ??DoClosery_3
   2177                 {
   2178                   CloseCSM(i);
   \   0000007C   0700A0E1           MOV      R0,R7
   \   00000080   FC0100EF           SWI      +508
   2179                 }
   2180               }
   2181               mfree(ramedy);
   \                     ??DoClosery_3:
   \   00000084   0600A0E1           MOV      R0,R6
   \   00000088   150000EF           SWI      +21
   2182               nl=p->next;
   \   0000008C   004094E5           LDR      R4,[R4, #+0]
   2183            }
   \   00000090   000054E3           CMP      R4,#+0
   \   00000094   E3FFFF1A           BNE      ??DoClosery_2
   2184            CSMtoTop(CSM_root()->idle_id,-1);
   \                     ??DoClosery_0:
   \   00000098   068100EF           SWI      +33030
   \   0000009C   040090E5           LDR      R0,[R0, #+4]
   \   000000A0   0010E0E3           MVN      R1,#+0
   \   000000A4   ........           _BLF     CSMtoTop,??CSMtoTop??rA
   2185          }
   \   000000A8   F080BDE8           POP      {R4-R7,PC}       ;; return
   \                     ??DoClosery_1:
   \   000000AC   ........           DC32     exept_list
   2186          

   \                                 In segment DATA_Z, align 4, align-sorted
   2187          int info;
   \                     info:
   \   00000000                      DS8 4
   2188          

   \                                 In segment CODE, align 4, keep-with-next
   2189          int ShowNaticq()
   2190          {
   \                     ShowNaticq:
   \   00000000   30402DE9           PUSH     {R4,R5,LR}
   2191            total_d=GetNumberOfDialogs()-1;
   \   00000004   ........           _BLF     GetNumberOfDialogs,??GetNumberOfDialogs??rA
   \   00000008   ........           LDR      R1,??DataTable157  ;; total_d
   \   0000000C   010040E2           SUB      R0,R0,#+1
   \   00000010   000081E5           STR      R0,[R1, #+0]
   2192            NAMELIST *nl=nltop;
   \   00000014   ........           LDR      R0,??DataTable158  ;; nltop
   \   00000018   004090E5           LDR      R4,[R0, #+0]
   \   0000001C   020000EA           B        ??ShowNaticq_0
   2193            while(nl)
   2194            {
   2195               NAMELIST *p=nl;
   2196               char *ramedy=malloc(128);
   2197               convWS_to_ANSI(nl->name, ramedy);
   2198               check_name(ramedy);
   2199               if((strstr("NATICQ2", ramedy)!=0)&&(!nl->is_daemon))
   2200               {
   2201                   CSMtoTop(((CSM_RAM *)(nl->p))->id,-1);
   2202                   mfree(ramedy);
   2203                   return 1;
   2204               }
   2205               mfree(ramedy);
   \                     ??ShowNaticq_1:
   \   00000020   0500A0E1           MOV      R0,R5
   \   00000024   150000EF           SWI      +21
   2206               nl=p->next;
   \   00000028   004094E5           LDR      R4,[R4, #+0]
   \                     ??ShowNaticq_0:
   \   0000002C   000054E3           CMP      R4,#+0
   \   00000030   1700000A           BEQ      ??ShowNaticq_2
   \   00000034   8000A0E3           MOV      R0,#+128
   \   00000038   140000EF           SWI      +20
   \   0000003C   0050A0E1           MOV      R5,R0
   \   00000040   080094E5           LDR      R0,[R4, #+8]
   \   00000044   0510A0E1           MOV      R1,R5
   \   00000048   ........           _BLF     convWS_to_ANSI,??convWS_to_ANSI??rA
   \   0000004C   0500A0E1           MOV      R0,R5
   \   00000050   ........           BL       check_name
   \   00000054   ........           LDR      R0,??DataTable156  ;; `?<Constant "NATICQ2">`
   \   00000058   0510A0E1           MOV      R1,R5
   \   0000005C   180100EF           SWI      +280
   \   00000060   000050E3           CMP      R0,#+0
   \   00000064   EDFFFF0A           BEQ      ??ShowNaticq_1
   \   00000068   100094E5           LDR      R0,[R4, #+16]
   \   0000006C   000050E3           CMP      R0,#+0
   \   00000070   EAFFFF1A           BNE      ??ShowNaticq_1
   \   00000074   0C0094E5           LDR      R0,[R4, #+12]
   \   00000078   0010E0E3           MVN      R1,#+0
   \   0000007C   0C0090E5           LDR      R0,[R0, #+12]
   \   00000080   ........           _BLF     CSMtoTop,??CSMtoTop??rA
   \   00000084   0500A0E1           MOV      R0,R5
   \   00000088   150000EF           SWI      +21
   \   0000008C   0100A0E3           MOV      R0,#+1
   \   00000090   3080BDE8           POP      {R4,R5,PC}
   2207            }
   2208           return 0;
   \                     ??ShowNaticq_2:
   \   00000094   0000A0E3           MOV      R0,#+0
   \   00000098   3080BDE8           POP      {R4,R5,PC}       ;; return
   2209          }
   2210          

   \                                 In segment CODE, align 4, keep-with-next
   2211          void SwitchNext()
   2212          {
   \                     SwitchNext:
   \   00000000   30402DE9           PUSH     {R4,R5,LR}
   2213            total_d=GetNumberOfDialogs()-1;
   \   00000004   ........           _BLF     GetNumberOfDialogs,??GetNumberOfDialogs??rA
   \   00000008   ........           LDR      R1,??DataTable157  ;; total_d
   \   0000000C   010040E2           SUB      R0,R0,#+1
   \   00000010   000081E5           STR      R0,[R1, #+0]
   2214            NAMELIST *nl=nltop;
   \   00000014   ........           LDR      R0,??DataTable158  ;; nltop
   \   00000018   004090E5           LDR      R4,[R0, #+0]
   2215            if(nl) {NAMELIST *p=nl; nl=p->next;};
   \   0000001C   000054E3           CMP      R4,#+0
   \   00000020   00409415           LDRNE    R4,[R4, #+0]
   2216            if(nl) {
   \   00000024   000054E3           CMP      R4,#+0
   \   00000028   3080BD08           POPEQ    {R4,R5,PC}
   2217              NAMELIST *p=nl;
   2218              int i;
   2219              i=((CSM_RAM *)(nl->p))->id;
   \   0000002C   0C0094E5           LDR      R0,[R4, #+12]
   \   00000030   0C5090E5           LDR      R5,[R0, #+12]
   2220              if (i!=CSM_root()->idle_id)
   \   00000034   068100EF           SWI      +33030
   \   00000038   040090E5           LDR      R0,[R0, #+4]
   \   0000003C   000055E1           CMP      R5,R0
   \   00000040   0200001A           BNE      ??SwitchNext_0
   2221              {   
   2222              CSMtoTop(((CSM_RAM *)(nl->p))->id,-1);
   2223              }
   2224              else
   2225              {
   2226                nl=p->next;
   \                     ??SwitchNext_1:
   \   00000044   004094E5           LDR      R4,[R4, #+0]
   2227                if(nl)
   \   00000048   000054E3           CMP      R4,#+0
   \   0000004C   3080BD08           POPEQ    {R4,R5,PC}
   2228                {
   2229          //        NAMELIST *p=nl;
   2230                  CSMtoTop(((CSM_RAM *)(nl->p))->id,-1);
   \                     ??SwitchNext_0:
   \   00000050   0C0094E5           LDR      R0,[R4, #+12]
   \   00000054   0010E0E3           MVN      R1,#+0
   \   00000058   0C0090E5           LDR      R0,[R0, #+12]
   \   0000005C   ........           _BLF     CSMtoTop,??CSMtoTop??rA
   2231                }
   2232              }
   2233            }
   2234          }
   \   00000060   3080BDE8           POP      {R4,R5,PC}       ;; return
   2235          
   2236          extern const int use_natioq;
   2237          extern const int LONG_RED_BUT_MODE;
   2238          
   2239          

   \                                 In segment CODE, align 4, keep-with-next
   2240          int my_keyhook(int submsg, int msg)
   2241          {
   \                     my_keyhook:
   \   00000000   F04F2DE9           PUSH     {R4-R11,LR}
   \   00000004   04D04DE2           SUB      SP,SP,#+4
   \   00000008   0040A0E1           MOV      R4,R0
   \   0000000C   0150A0E1           MOV      R5,R1
   2242          #ifdef NEWSGOLD
   2243            void *icsm=FindCSMbyID(CSM_root()->idle_id);
   \   00000010   068100EF           SWI      +33030
   \   00000014   040090E5           LDR      R0,[R0, #+4]
   2244            if ((submsg==RED_BUTTON)&&(IsIdleUiOnTop()&&(use_idle)&&(IsUnlocked())))
   \   00000018   0960A0E3           MOV      R6,#+9
   \   0000001C   080100EF           SWI      +264
   \   00000020   00008DE5           STR      R0,[SP, #+0]
   \   00000024   BC049FE5           LDR      R0,??my_keyhook_0  ;; use_idle
   \   00000028   426C86E3           ORR      R6,R6,#0x4200
   \   0000002C   00A090E5           LDR      R10,[R0, #+0]
   \   00000030   0170A0E3           MOV      R7,#+1
   \   00000034   9380A0E3           MOV      R8,#+147
   \   00000038   408F88E3           ORR      R8,R8,#0x100
   \   0000003C   0090A0E3           MOV      R9,#+0
   \   00000040   0C0054E3           CMP      R4,#+12
   \   00000044   0900001A           BNE      ??my_keyhook_1
   \   00000048   C50000EF           SWI      +197
   \   0000004C   000050E3           CMP      R0,#+0
   \   00000050   00005A13           CMPNE    R10,#+0
   \   00000054   1400000A           BEQ      ??my_keyhook_2
   \   00000058   430000EF           SWI      +67
   \   0000005C   000050E3           CMP      R0,#+0
   \   00000060   1100000A           BEQ      ??my_keyhook_2
   2245            {
   2246              ShowMenu(0);
   \   00000064   0000A0E3           MOV      R0,#+0
   \   00000068   ........           BL       ShowMenu
   2247          //    mode=0;
   2248              return KEYHOOK_BREAK;
   \   0000006C   A90000EA           B        ??my_keyhook_3
   2249            }
   2250            if ((submsg==RED_BUTTON)&&IsIdleUiOnTop()!=1)
   2251            {
   2252              close();
   2253              return KEYHOOK_BREAK;
   2254            }
   2255            if ((submsg==14)&&(IsIdleUiOnTop()&&(use_natioq)&&(use_idle)&&(IsUnlocked())))
   \                     ??my_keyhook_1:
   \   00000070   0E0054E3           CMP      R4,#+14
   \   00000074   2700001A           BNE      ??my_keyhook_4
   \   00000078   C50000EF           SWI      +197
   \   0000007C   000050E3           CMP      R0,#+0
   \   00000080   2400000A           BEQ      ??my_keyhook_4
   \   00000084   60049FE5           LDR      R0,??my_keyhook_0+0x4  ;; use_natioq
   \   00000088   000090E5           LDR      R0,[R0, #+0]
   \   0000008C   000050E3           CMP      R0,#+0
   \   00000090   00005A13           CMPNE    R10,#+0
   \   00000094   1F00000A           BEQ      ??my_keyhook_4
   \   00000098   430000EF           SWI      +67
   \   0000009C   000050E3           CMP      R0,#+0
   \   000000A0   1C00000A           BEQ      ??my_keyhook_4
   2256            {
   2257              ShowNaticq();
   \   000000A4   ........           BL       ShowNaticq
   2258          //    mode=0;
   2259             return KEYHOOK_BREAK;
   \   000000A8   9A0000EA           B        ??my_keyhook_3
   2260            }
   \                     ??my_keyhook_2:
   \   000000AC   C50000EF           SWI      +197
   \   000000B0   010050E3           CMP      R0,#+1
   \   000000B4   0100000A           BEQ      ??my_keyhook_5
   \   000000B8   ........           BL       close
   \   000000BC   950000EA           B        ??my_keyhook_3
   2261            if ((submsg==RED_BUTTON)&&(RED_BUT_MODE))
   \                     ??my_keyhook_5:
   \   000000C0   28049FE5           LDR      R0,??my_keyhook_0+0x8  ;; RED_BUT_MODE
   \   000000C4   00A090E5           LDR      R10,[R0, #+0]
   \   000000C8   00005AE3           CMP      R10,#+0
   \   000000CC   1100000A           BEQ      ??my_keyhook_4
   2262            {
   2263              if ((CSM_root()->csm_q->csm.last==icsm)||(IsCalling())) //(IsGuiOnTop(((int *)icsm)[DISPLACE_OF_IDLEGUI_ID/4]))
   \   000000D0   1CB49FE5           LDR      R11,??my_keyhook_0+0xC  ;; mode_red
   \   000000D4   068100EF           SWI      +33030
   \   000000D8   080090E5           LDR      R0,[R0, #+8]
   \   000000DC   00109DE5           LDR      R1,[SP, #+0]
   \   000000E0   0C0090E5           LDR      R0,[R0, #+12]
   \   000000E4   010050E1           CMP      R0,R1
   \   000000E8   0200000A           BEQ      ??my_keyhook_6
   \   000000EC   6E0000EF           SWI      +110
   \   000000F0   000050E3           CMP      R0,#+0
   \   000000F4   1300000A           BEQ      ??my_keyhook_7
   2264              {
   2265                if (msg==KEY_UP)
   \                     ??my_keyhook_6:
   \   000000F8   650F55E3           CMP      R5,#+404
   \   000000FC   0300001A           BNE      ??my_keyhook_8
   2266                {
   2267          	if (mode_red!=2)
   \   00000100   00009BE5           LDR      R0,[R11, #+0]
   \   00000104   020050E3           CMP      R0,#+2
   \   00000108   0100000A           BEQ      ??my_keyhook_9
   2268          	{
   2269          	  mode_red=0;
   \   0000010C   800000EA           B        ??my_keyhook_10
   2270          	  return KEYHOOK_BREAK;
   2271          	}
   2272                }
   2273                mode_red=2;
   \                     ??my_keyhook_8:
   \   00000110   0200A0E3           MOV      R0,#+2
   \                     ??my_keyhook_9:
   \   00000114   00008BE5           STR      R0,[R11, #+0]
   2274              }
   2275              else
   2276              {
   2277                if (msg==KEY_DOWN)
   2278                {
   2279          	if (mode_red==1)
   2280          	{
   2281          	  mode_red=0;
   2282          	  return KEYHOOK_NEXT; //Long press, continue with REDB PRESS
   2283          	}
   2284                }
   2285                if (msg==KEY_UP)
   2286                {
   2287          	if (mode_red)
   2288          	{
   2289          	  mode_red=0; //Release after longpress
   2290                    if(LONG_RED_BUT_MODE==0) {}
   2291                    if(LONG_RED_BUT_MODE==1) {if((task_list!=3)&&(task_list!=2)&&(!MAINCSM_ID)) CSMtoTop(CSM_root()->idle_id,-1);}
   2292          	  return KEYHOOK_NEXT;
   2293          	}
   2294          	else
   2295          	  //Release after short press
   2296          	{
   2297                    if (RED_BUT_MODE==1)
   2298                    {
   2299          #ifdef EVILFOX
   2300                      if((task_list!=3)&&(task_list!=2)) GBS_SendMessage(MMI_CEPID,KEY_DOWN,RIGHT_SOFT);
   2301          #else
   2302                      if((task_list!=3)) GBS_SendMessage(MMI_CEPID,KEY_DOWN,RIGHT_SOFT);
   2303          #endif
   2304                    }
   2305                    else
   2306                      if(RED_BUT_MODE==2)
   2307                      {
   2308          	      if (!MAINCSM_ID)
   2309          	      {
   2310          	        CSMtoTop(CSM_root()->idle_id,-1);
   2311                        }
   2312                      }
   2313                    else
   2314                      if(RED_BUT_MODE==3)
   2315                      {
   2316                        if (!MAINCSM_ID) DoClosery();
   2317                      }
   2318                    else
   2319                      if(RED_BUT_MODE==4)
   2320                      {
   2321                        if (!MAINCSM_ID) SwitchNext();
   2322                      }
   2323          	}
   2324                }
   2325                if (msg==LONG_PRESS)
   2326                {
   2327          	mode_red=1;
   2328          //        mode_done=1;
   2329                  //if((task_list!=3)&&(task_list!=2)) GBS_SendMessage(MMI_CEPID,KEY_DOWN,RED_BUTTON);
   2330          //        if((task_list!=3)&&(task_list!=2)) SwitchNext();
   2331                }
   2332                return KEYHOOK_BREAK;
   2333              }
   2334            }
   2335          //lul:
   2336          #endif
   2337          //#ifndef NEWSGOLD
   2338            if (ACTIVE_KEY_STYLE==3)
   \                     ??my_keyhook_4:
   \   00000118   D8139FE5           LDR      R1,??my_keyhook_0+0x10  ;; ENA_LOCK
   \   0000011C   ........           LDR      R0,??DataTable162  ;; task_list
   \   00000120   00A091E5           LDR      R10,[R1, #+0]
   \   00000124   D0139FE5           LDR      R1,??my_keyhook_0+0x14  ;; ACTIVE_KEY_STYLE
   \   00000128   000090E5           LDR      R0,[R0, #+0]
   \   0000012C   001091E5           LDR      R1,[R1, #+0]
   \   00000130   ........           LDR      R11,??DataTable247  ;; mode
   \   00000134   030051E3           CMP      R1,#+3
   \   00000138   7800001A           BNE      ??my_keyhook_11
   2339            {
   2340              if (submsg!=ENTER_BUTTON) return KEYHOOK_NEXT;
   \   0000013C   1A0054E3           CMP      R4,#+26
   \   00000140   4100000A           BEQ      ??my_keyhook_12
   \   00000144   1B0000EA           B        ??my_keyhook_13
   \                     ??my_keyhook_7:
   \   00000148   00009BE5           LDR      R0,[R11, #+0]
   \   0000014C   080055E1           CMP      R5,R8
   \   00000150   0200001A           BNE      ??my_keyhook_14
   \   00000154   010050E3           CMP      R0,#+1
   \   00000158   A400001A           BNE      ??my_keyhook_15
   \   0000015C   780000EA           B        ??my_keyhook_16
   \                     ??my_keyhook_14:
   \   00000160   650F55E3           CMP      R5,#+404
   \   00000164   3300001A           BNE      ??my_keyhook_17
   \   00000168   ........           LDR      R1,??DataTable169  ;; MAINCSM_ID
   \   0000016C   ........           LDR      R2,??DataTable162  ;; task_list
   \   00000170   001091E5           LDR      R1,[R1, #+0]
   \   00000174   002092E5           LDR      R2,[R2, #+0]
   \   00000178   000050E3           CMP      R0,#+0
   \   0000017C   0F00000A           BEQ      ??my_keyhook_18
   \   00000180   78039FE5           LDR      R0,??my_keyhook_0+0x18  ;; LONG_RED_BUT_MODE
   \   00000184   00908BE5           STR      R9,[R11, #+0]
   \   00000188   000090E5           LDR      R0,[R0, #+0]
   \   0000018C   010050E3           CMP      R0,#+1
   \   00000190   6C00001A           BNE      ??my_keyhook_19
   \   00000194   030052E3           CMP      R2,#+3
   \   00000198   02005213           CMPNE    R2,#+2
   \   0000019C   6900000A           BEQ      ??my_keyhook_19
   \   000001A0   000051E3           CMP      R1,#+0
   \   000001A4   6700001A           BNE      ??my_keyhook_19
   \   000001A8   068100EF           SWI      +33030
   \   000001AC   040090E5           LDR      R0,[R0, #+4]
   \   000001B0   001067E2           RSB      R1,R7,#+0
   \   000001B4   ........           _BLF     CSMtoTop,??CSMtoTop??rA
   \                     ??my_keyhook_13:
   \   000001B8   0000A0E3           MOV      R0,#+0
   \   000001BC   F28FBDE8           POP      {R1,R4-R11,PC}
   \                     ??my_keyhook_18:
   \   000001C0   01005AE3           CMP      R10,#+1
   \   000001C4   0700001A           BNE      ??my_keyhook_20
   \   000001C8   030052E3           CMP      R2,#+3
   \   000001CC   02005213           CMPNE    R2,#+2
   \   000001D0   8600000A           BEQ      ??my_keyhook_15
   \   000001D4   0420A0E3           MOV      R2,#+4
   \   000001D8   0810A0E1           MOV      R1,R8
   \   000001DC   0600A0E1           MOV      R0,R6
   \   000001E0   000100EF           SWI      +256
   \   000001E4   4B0000EA           B        ??my_keyhook_3
   \                     ??my_keyhook_20:
   \   000001E8   02005AE3           CMP      R10,#+2
   \   000001EC   0600001A           BNE      ??my_keyhook_21
   \   000001F0   000051E3           CMP      R1,#+0
   \   000001F4   7D00001A           BNE      ??my_keyhook_15
   \   000001F8   068100EF           SWI      +33030
   \   000001FC   040090E5           LDR      R0,[R0, #+4]
   \   00000200   001067E2           RSB      R1,R7,#+0
   \   00000204   ........           _BLF     CSMtoTop,??CSMtoTop??rA
   \   00000208   420000EA           B        ??my_keyhook_3
   \                     ??my_keyhook_21:
   \   0000020C   03005AE3           CMP      R10,#+3
   \   00000210   0300001A           BNE      ??my_keyhook_22
   \   00000214   000051E3           CMP      R1,#+0
   \   00000218   7400001A           BNE      ??my_keyhook_15
   \   0000021C   ........           BL       DoClosery
   \   00000220   3C0000EA           B        ??my_keyhook_3
   \                     ??my_keyhook_22:
   \   00000224   04005AE3           CMP      R10,#+4
   \   00000228   00005103           CMPEQ    R1,#+0
   \   0000022C   6F00001A           BNE      ??my_keyhook_15
   \   00000230   ........           BL       SwitchNext
   \   00000234   370000EA           B        ??my_keyhook_3
   \                     ??my_keyhook_17:
   \   00000238   650F87E3           ORR      R0,R7,#0x194
   \   0000023C   000055E1           CMP      R5,R0
   \   00000240   6A00001A           BNE      ??my_keyhook_15
   \   00000244   00708BE5           STR      R7,[R11, #+0]
   \   00000248   320000EA           B        ??my_keyhook_3
   2341          /*    if (my_csm_id)
   2342              {
   2343                if (((CSM_RAM *)(CSM_root()->csm_q->csm.last))->id!=my_csm_id)
   2344                {
   2345                  CloseCSM(my_csm_id);
   2346                }
   2347                return KEYHOOK_NEXT;
   2348              }*/
   2349              switch(msg)
   \                     ??my_keyhook_12:
   \   0000024C   B0229FE5           LDR      R2,??my_keyhook_0+0x1C  ;; mode_enter
   \   00000250   080055E1           CMP      R5,R8
   \   00000254   003092E5           LDR      R3,[R2, #+0]
   \   00000258   0500000A           BEQ      ??my_keyhook_23
   \   0000025C   650F55E3           CMP      R5,#+404
   \   00000260   0C00000A           BEQ      ??my_keyhook_24
   \   00000264   65EF87E3           ORR      LR,R7,#0x194
   \   00000268   0E0055E1           CMP      R5,LR
   \   0000026C   1A00000A           BEQ      ??my_keyhook_25
   \   00000270   2A0000EA           B        ??my_keyhook_11
   2350              {
   2351              case KEY_DOWN:
   2352                if (mode_enter==2)
   \                     ??my_keyhook_23:
   \   00000274   020053E3           CMP      R3,#+2
   \   00000278   0400001A           BNE      ??my_keyhook_26
   2353                { 
   2354          	GBS_SendMessage(MMI_CEPID,KEY_UP,ENTER_BUTTON);
   \   0000027C   1A20A0E3           MOV      R2,#+26
   \   00000280   651FA0E3           MOV      R1,#+404
   \   00000284   0600A0E1           MOV      R0,R6
   \   00000288   000100EF           SWI      +256
   2355          	return KEYHOOK_NEXT;
   \   0000028C   C9FFFFEA           B        ??my_keyhook_13
   2356                }
   2357                mode_enter=0;
   \                     ??my_keyhook_26:
   \   00000290   009082E5           STR      R9,[R2, #+0]
   2358                return KEYHOOK_BREAK;
   \   00000294   1F0000EA           B        ??my_keyhook_3
   2359              case KEY_UP:
   2360                if (mode_enter==0)
   \                     ??my_keyhook_24:
   \   00000298   000053E3           CMP      R3,#+0
   \   0000029C   0A00001A           BNE      ??my_keyhook_27
   2361                {
   2362                  mode_enter=2;
   \   000002A0   0210A0E3           MOV      R1,#+2
   \   000002A4   001082E5           STR      R1,[R2, #+0]
   2363                  if((task_list!=3)&&(task_list!=2)) GBS_SendMessage(MMI_CEPID,KEY_DOWN,ENTER_BUTTON);
   \   000002A8   030050E3           CMP      R0,#+3
   \   000002AC   4F00000A           BEQ      ??my_keyhook_15
   \   000002B0   020050E3           CMP      R0,#+2
   \   000002B4   F28FBD08           POPEQ    {R1,R4-R11,PC}
   \   000002B8   1A20A0E3           MOV      R2,#+26
   \   000002BC   0810A0E1           MOV      R1,R8
   \   000002C0   0600A0E1           MOV      R0,R6
   \   000002C4   000100EF           SWI      +256
   2364                  return KEYHOOK_BREAK;
   \                     ??my_keyhook_28:
   \   000002C8   480000EA           B        ??my_keyhook_15
   2365                }
   2366                if (mode_enter==2)
   \                     ??my_keyhook_27:
   \   000002CC   020053E3           CMP      R3,#+2
   \   000002D0   EEFFFF1A           BNE      ??my_keyhook_26
   2367                {
   2368                  mode_enter=0;
   \   000002D4   009082E5           STR      R9,[R2, #+0]
   2369                  return KEYHOOK_NEXT;
   \   000002D8   B6FFFFEA           B        ??my_keyhook_13
   2370                }
   2371                mode_enter=0;
   2372                return KEYHOOK_BREAK;      
   2373              case LONG_PRESS:
   2374                mode_enter=1;
   \                     ??my_keyhook_25:
   \   000002DC   007082E5           STR      R7,[R2, #+0]
   2375                if ((IsUnlocked()||ENA_LOCK)&&(!MAINCSM_ID)&&(!IsCalling()))
   \   000002E0   430000EF           SWI      +67
   \   000002E4   000050E3           CMP      R0,#+0
   \   000002E8   00005A03           CMPEQ    R10,#+0
   \   000002EC   0800000A           BEQ      ??my_keyhook_10
   \   000002F0   ........           LDR      R0,??DataTable169  ;; MAINCSM_ID
   \   000002F4   000090E5           LDR      R0,[R0, #+0]
   \   000002F8   000050E3           CMP      R0,#+0
   \   000002FC   0400001A           BNE      ??my_keyhook_10
   \   00000300   6E0000EF           SWI      +110
   \   00000304   000050E3           CMP      R0,#+0
   \   00000308   0100001A           BNE      ??my_keyhook_10
   2376                {
   2377                  ShowMenu(1);
   \   0000030C   0100A0E3           MOV      R0,#+1
   \   00000310   ........           BL       ShowMenu
   2378                      
   2379                }
   2380                mode=0;
   \                     ??my_keyhook_10:
   \   00000314   00908BE5           STR      R9,[R11, #+0]
   2381                return KEYHOOK_BREAK;
   \                     ??my_keyhook_3:
   \   00000318   0200A0E3           MOV      R0,#+2
   \   0000031C   F28FBDE8           POP      {R1,R4-R11,PC}
   2382              }
   2383            }
   2384            // * + # implementation
   2385            if ((ACTIVE_KEY_STYLE==2) && !(MAINCSM_ID))
   \                     ??my_keyhook_11:
   \   00000320   ........           LDR      R3,??DataTable169  ;; MAINCSM_ID
   \   00000324   00209BE5           LDR      R2,[R11, #+0]
   \   00000328   003093E5           LDR      R3,[R3, #+0]
   \   0000032C   020051E3           CMP      R1,#+2
   \   00000330   1C00001A           BNE      ??my_keyhook_29
   \   00000334   000053E3           CMP      R3,#+0
   \   00000338   0200001A           BNE      ??my_keyhook_19
   2386            {
   2387              if (msg==KEY_UP)
   \   0000033C   650F55E3           CMP      R5,#+404
   \   00000340   0200001A           BNE      ??my_keyhook_30
   2388              {
   2389                mode=0;
   \                     ??my_keyhook_16:
   \   00000344   00908BE5           STR      R9,[R11, #+0]
   2390                return KEYHOOK_NEXT;
   \                     ??my_keyhook_19:
   \   00000348   0000A0E3           MOV      R0,#+0
   \   0000034C   F28FBDE8           POP      {R1,R4-R11,PC}
   2391              }
   2392              if (msg==KEY_DOWN)
   \                     ??my_keyhook_30:
   \   00000350   080055E1           CMP      R5,R8
   \   00000354   FBFFFF1A           BNE      ??my_keyhook_19
   2393              {
   2394                switch (submsg)
   \   00000358   23C054E2           SUBS     R12,R4,#+35
   \   0000035C   0300000A           BEQ      ??my_keyhook_31
   \   00000360   07C05CE2           SUBS     R12,R12,#+7
   \   00000364   0F00001A           BNE      ??my_keyhook_29
   2395                {
   2396                case '*':
   2397                  mode=1;
   \   00000368   00708BE5           STR      R7,[R11, #+0]
   2398                  return (0);
   \   0000036C   91FFFFEA           B        ??my_keyhook_13
   2399                case '#':
   2400                  if (mode==1)
   \                     ??my_keyhook_31:
   \   00000370   010052E3           CMP      R2,#+1
   \   00000374   F3FFFF1A           BNE      ??my_keyhook_19
   2401                  {
   2402                    if ((IsUnlocked()||ENA_LOCK)&&(!IsCalling()))
   \   00000378   430000EF           SWI      +67
   \   0000037C   000050E3           CMP      R0,#+0
   \   00000380   00005A03           CMPEQ    R10,#+0
   \   00000384   0500000A           BEQ      ??my_keyhook_32
   \   00000388   6E0000EF           SWI      +110
   \   0000038C   000050E3           CMP      R0,#+0
   \   00000390   0200001A           BNE      ??my_keyhook_32
   2403                      ShowMenu(1);
   \   00000394   0100A0E3           MOV      R0,#+1
   \   00000398   ........           BL       ShowMenu
   2404                    else mode=0;
   2405                  }
   2406                  else return KEYHOOK_NEXT;
   2407                }
   2408              }
   2409            }
   2410          //#endif
   2411            if (ACTIVE_KEY_STYLE<2)
   2412            {
   2413              if (submsg!=ACTIVE_KEY) return KEYHOOK_NEXT;
   2414              if (MAINCSM_ID)
   2415              {
   2416          /*      if (((CSM_RAM *)(CSM_root()->csm_q->csm.last))->id!=my_csm_id)
   2417                {
   2418          	CloseCSM(my_csm_id);
   2419                }*/
   2420                if (msg==KEY_UP)
   2421                {
   2422          //        total_pos=2;
   2423          //        if(total_pos>total_d) total_pos--;
   2424                  if((task_list!=3)&&(task_list!=2)) {
   2425          #ifdef ELKA
   2426          #else
   2427                  if(total_d>=2) total_pos=2;
   2428          #endif
   2429                  GBS_SendMessage(MMI_CEPID,KEY_DOWN,ENTER_BUTTON);
   2430                }
   2431                }
   2432                return KEYHOOK_BREAK;
   2433              }
   2434              switch(msg)
   2435              {
   2436              case KEY_DOWN:
   2437                mode=0;
   2438                if (ACTIVE_KEY_STYLE==0)
   2439          	return KEYHOOK_BREAK;
   2440                else 
   2441          	return KEYHOOK_NEXT;
   2442              case KEY_UP:
   2443                if (mode==1)
   2444                {
   2445          	//Release after longpress
   2446          	mode=0;
   2447          	if ((ACTIVE_KEY_STYLE==1) || (ENA_LONG_PRESS==3))
   2448          	{
   2449          	  //Launch on LongPress or Extra on LP - Launch
   2450          	  if ((IsUnlocked()||ENA_LOCK)&&(!IsCalling()))
   2451          	  {
   2452          	    ShowMenu(1);
   2453          	  }
   2454          	  return KEYHOOK_BREAK;
   2455          	}
   2456                  if (ENA_LONG_PRESS==1) return KEYHOOK_BREAK;
   2457          	if (ENA_LONG_PRESS==2)
   2458          	{
   2459                    if ((task_list!=2)&&(task_list!=3)) CSMtoTop(CSM_root()->idle_id,-1);
   2460          	  return KEYHOOK_BREAK;
   2461          	}
   2462                  if (ENA_LONG_PRESS==4)
   2463                  {
   2464                    if ((task_list!=2)&&(task_list!=3)){
   2465                    CSMtoTop(CSM_root()->idle_id,-1);
   2466                    KbdLock();}
   2467                    return KEYHOOK_BREAK;
   2468                  }
   2469          	break;
   2470                }
   2471                if (ACTIVE_KEY_STYLE==0)
   2472                {
   2473          	if ((IsUnlocked()||ENA_LOCK)&&(!IsCalling()))
   2474          	{
   2475          	  ShowMenu(1);
   2476          	}
   2477          	return KEYHOOK_BREAK;
   2478                }
   2479                break;
   2480              case LONG_PRESS:
   2481                mode=1;
   2482          #ifndef NEWSGOLD
   2483                if (ACTIVE_KEY_STYLE==1)
   2484                {
   2485          	if (ENA_LONG_PRESS)
   2486          	  return KEYHOOK_NEXT;
   2487          	else 
   2488          	  return KEYHOOK_BREAK;
   2489                }
   2490          #else
   2491                return KEYHOOK_BREAK;
   2492          #endif
   2493              }
   2494            }
   2495            return KEYHOOK_NEXT;
   \   0000039C   85FFFFEA           B        ??my_keyhook_13
   \                     ??my_keyhook_32:
   \   000003A0   00908BE5           STR      R9,[R11, #+0]
   \   000003A4   83FFFFEA           B        ??my_keyhook_13
   \                     ??my_keyhook_29:
   \   000003A8   020051E3           CMP      R1,#+2
   \   000003AC   E5FFFFAA           BGE      ??my_keyhook_19
   \   000003B0   50C19FE5           LDR      R12,??my_keyhook_0+0x20  ;; ACTIVE_KEY
   \   000003B4   00C09CE5           LDR      R12,[R12, #+0]
   \   000003B8   0C0054E1           CMP      R4,R12
   \   000003BC   E1FFFF1A           BNE      ??my_keyhook_19
   \   000003C0   000053E3           CMP      R3,#+0
   \   000003C4   0B00000A           BEQ      ??my_keyhook_33
   \   000003C8   650F55E3           CMP      R5,#+404
   \   000003CC   0700001A           BNE      ??my_keyhook_15
   \   000003D0   030050E3           CMP      R0,#+3
   \   000003D4   0500000A           BEQ      ??my_keyhook_15
   \   000003D8   020050E3           CMP      R0,#+2
   \   000003DC   F28FBD08           POPEQ    {R1,R4-R11,PC}
   \   000003E0   1A20A0E3           MOV      R2,#+26
   \   000003E4   0810A0E1           MOV      R1,R8
   \   000003E8   0600A0E1           MOV      R0,R6
   \   000003EC   000100EF           SWI      +256
   \                     ??my_keyhook_15:
   \   000003F0   0200A0E3           MOV      R0,#+2
   \   000003F4   F28FBDE8           POP      {R1,R4-R11,PC}
   \                     ??my_keyhook_33:
   \   000003F8   080055E1           CMP      R5,R8
   \   000003FC   0500000A           BEQ      ??my_keyhook_34
   \   00000400   650F55E3           CMP      R5,#+404
   \   00000404   0700000A           BEQ      ??my_keyhook_35
   \   00000408   023088E2           ADD      R3,R8,#+2
   \   0000040C   030055E1           CMP      R5,R3
   \   00000410   3200000A           BEQ      ??my_keyhook_36
   \   00000414   67FFFFEA           B        ??my_keyhook_13
   \                     ??my_keyhook_34:
   \   00000418   00908BE5           STR      R9,[R11, #+0]
   \   0000041C   000051E3           CMP      R1,#+0
   \   00000420   C8FFFF1A           BNE      ??my_keyhook_19
   \   00000424   BBFFFFEA           B        ??my_keyhook_3
   \                     ??my_keyhook_35:
   \   00000428   010052E3           CMP      R2,#+1
   \   0000042C   1F00001A           BNE      ??my_keyhook_37
   \   00000430   00908BE5           STR      R9,[R11, #+0]
   \   00000434   010051E3           CMP      R1,#+1
   \   00000438   1E00000A           BEQ      ??my_keyhook_38
   \   0000043C   C8109FE5           LDR      R1,??my_keyhook_0+0x24  ;; ENA_LONG_PRESS
   \   00000440   001091E5           LDR      R1,[R1, #+0]
   \   00000444   030051E3           CMP      R1,#+3
   \   00000448   1A00000A           BEQ      ??my_keyhook_38
   \   0000044C   010051E3           CMP      R1,#+1
   \   00000450   E6FFFF0A           BEQ      ??my_keyhook_15
   \   00000454   020051E3           CMP      R1,#+2
   \   00000458   0800001A           BNE      ??my_keyhook_39
   \   0000045C   020050E3           CMP      R0,#+2
   \   00000460   F28FBD08           POPEQ    {R1,R4-R11,PC}
   \   00000464   030050E3           CMP      R0,#+3
   \   00000468   E0FFFF0A           BEQ      ??my_keyhook_15
   \   0000046C   068100EF           SWI      +33030
   \   00000470   040090E5           LDR      R0,[R0, #+4]
   \   00000474   001067E2           RSB      R1,R7,#+0
   \   00000478   ........           _BLF     CSMtoTop,??CSMtoTop??rA
   \                     ??my_keyhook_40:
   \   0000047C   DBFFFFEA           B        ??my_keyhook_15
   \                     ??my_keyhook_39:
   \   00000480   040051E3           CMP      R1,#+4
   \   00000484   AFFFFF1A           BNE      ??my_keyhook_19
   \   00000488   020050E3           CMP      R0,#+2
   \   0000048C   F28FBD08           POPEQ    {R1,R4-R11,PC}
   \   00000490   030050E3           CMP      R0,#+3
   \   00000494   D5FFFF0A           BEQ      ??my_keyhook_15
   \   00000498   068100EF           SWI      +33030
   \   0000049C   040090E5           LDR      R0,[R0, #+4]
   \   000004A0   001067E2           RSB      R1,R7,#+0
   \   000004A4   ........           _BLF     CSMtoTop,??CSMtoTop??rA
   \   000004A8   A90000EF           SWI      +169
   \                     ??my_keyhook_41:
   \   000004AC   CFFFFFEA           B        ??my_keyhook_15
   \                     ??my_keyhook_37:
   \   000004B0   000051E3           CMP      R1,#+0
   \   000004B4   A3FFFF1A           BNE      ??my_keyhook_19
   \                     ??my_keyhook_38:
   \   000004B8   430000EF           SWI      +67
   \   000004BC   000050E3           CMP      R0,#+0
   \   000004C0   00005A03           CMPEQ    R10,#+0
   \   000004C4   C9FFFF0A           BEQ      ??my_keyhook_15
   \   000004C8   6E0000EF           SWI      +110
   \   000004CC   000050E3           CMP      R0,#+0
   \   000004D0   C6FFFF1A           BNE      ??my_keyhook_15
   \   000004D4   0100A0E3           MOV      R0,#+1
   \   000004D8   ........           BL       ShowMenu
   \                     ??my_keyhook_42:
   \   000004DC   C3FFFFEA           B        ??my_keyhook_15
   \                     ??my_keyhook_36:
   \   000004E0   00708BE5           STR      R7,[R11, #+0]
   \   000004E4   8BFFFFEA           B        ??my_keyhook_3
   \                     ??my_keyhook_0:
   \   000004E8   ........           DC32     use_idle
   \   000004EC   ........           DC32     use_natioq
   \   000004F0   ........           DC32     RED_BUT_MODE
   \   000004F4   ........           DC32     mode_red
   \   000004F8   ........           DC32     ENA_LOCK
   \   000004FC   ........           DC32     ACTIVE_KEY_STYLE
   \   00000500   ........           DC32     LONG_RED_BUT_MODE
   \   00000504   ........           DC32     mode_enter
   \   00000508   ........           DC32     ACTIVE_KEY
   \   0000050C   ........           DC32     ENA_LONG_PRESS
   2496          }
   2497          

   \                                 In segment DATA_Z, align 4, align-sorted
   2498          volatile int callhide_mode=0;
   \                     callhide_mode:
   \   00000000                      DS8 4
   2499          
   2500          #pragma inline=forced
   2501          int toupper(int c)
   2502          {
   2503            if ((c>='a')&&(c<='z')) c+='A'-'a';
   2504            return(c);
   2505          }
   2506          

   \                                 In segment DATA_Z, align 4, align-sorted
   2507          int reiconize;
   \                     reiconize:
   \   00000000                      DS8 4
   2508          

   \                                 In segment CODE, align 4, keep-with-next
   2509          int strcmp_nocase(const char *s1,const char *s2)
   2510          {
   2511            int i;
   2512            int c;
   2513            while(!(i=(c=toupper(*s1++))-toupper(*s2++))) if (!c) break;
   \                     strcmp_nocase:
   \                     ??strcmp_nocase_0:
   \   00000000   0020D0E5           LDRB     R2,[R0, #+0]
   \   00000004   610052E3           CMP      R2,#+97
   \   00000008   010000BA           BLT      ??strcmp_nocase_1
   \   0000000C   7B0052E3           CMP      R2,#+123
   \   00000010   202042B2           SUBLT    R2,R2,#+32
   \                     ??strcmp_nocase_1:
   \   00000014   00C0D1E5           LDRB     R12,[R1, #+0]
   \   00000018   010080E2           ADD      R0,R0,#+1
   \   0000001C   0230A0E1           MOV      R3,R2
   \   00000020   61005CE3           CMP      R12,#+97
   \   00000024   010000BA           BLT      ??strcmp_nocase_2
   \   00000028   7B005CE3           CMP      R12,#+123
   \   0000002C   20C04CB2           SUBLT    R12,R12,#+32
   \                     ??strcmp_nocase_2:
   \   00000030   011081E2           ADD      R1,R1,#+1
   \   00000034   0C2052E0           SUBS     R2,R2,R12
   \   00000038   0100001A           BNE      ??strcmp_nocase_3
   \   0000003C   000053E3           CMP      R3,#+0
   \   00000040   EEFFFF1A           BNE      ??strcmp_nocase_0
   2514            return(i);
   \                     ??strcmp_nocase_3:
   \   00000044   0200A0E1           MOV      R0,R2
   \   00000048   1EFF2FE1           BX       LR               ;; return
   2515          }
   2516          

   \                                 In segment DATA_C, align 4, align-sorted
   2517          const char my_ipc_name[]=IPC_XTASK_NAME;
   \                     my_ipc_name:
   \   00000000   585461736B00       DC8 "XTask"
   \   00000006   0000               DC8 0, 0
   2518          

   \                                 In segment CODE, align 4, keep-with-next
   2519          int MyIDLECSM_onMessage(CSM_RAM* data,GBS_MSG* msg)
   2520          {
   2521            int csm_result;
   2522            int icgui_id;
   2523            //  int ocgui_id;
   2524            int idlegui_id;
   2525            
   2526          #ifndef NEWSGOLD 
   2527          #define EXT_BUTTON 0x63  
   2528            if ((ACTIVE_KEY_STYLE!=2)&&(ACTIVE_KEY_STYLE!=3)) //?? "* + #" ? ?? "Enter Button"
   2529            {//???? ????? ???? ??????? ??????? ??? ???? ???????
   2530              if (ACTIVE_KEY==EXT_BUTTON) //?????? ?????? ????????
   2531              {
   2532                if (msg->msg==439) //?????? ???????
   2533                {
   2534                  switch (msg->submess) 
   2535                  {
   2536          	case 1:
   2537          	  if((task_list!=3)&&(task_list!=2)) GBS_SendMessage(MMI_CEPID,LONG_PRESS,EXT_BUTTON);
   2538                    break;
   2539          	case 2:
   2540          	  if((task_list!=3)&&(task_list!=2)) GBS_SendMessage(MMI_CEPID,KEY_UP,EXT_BUTTON);
   2541                    break; // ???????? default!!!
   2542                  }
   2543                }
   2544                else //??????? ?? ?????????
   2545          	goto L1;
   2546              }
   2547              else //?????? ?????? ?? ???????? ?????? ??????? ?????? ????????
   2548                goto L1;
   2549            }
   2550            else
   2551          L1:
   2552            csm_result=old_icsm_onMessage(data,msg);
   2553          #else    
   2554            csm_result = old_icsm_onMessage(data, msg); //???????? ?????? ?????????? ???????    
   \                     MyIDLECSM_onMessage:
   \   00000000   ........           LDR      R2,??DataTable245  ;; old_icsm_onMessage
   \   00000004   F04F2DE9           PUSH     {R4-R11,LR}
   2555          #endif
   2556            
   2557            icgui_id=((int *)data)[DISPLACE_OF_INCOMMINGGUI/4];
   2558            idlegui_id=((int *)data)[DISPLACE_OF_IDLEGUI_ID/4];
   2559            //  ocgui_id=((int *)data)[DISPLACE_OF_OUTGOINGGUI/4];
   2560            if (!icgui_id) callhide_mode=0;
   \   00000008   88529FE5           LDR      R5,??MyIDLECSM_onMessage_1+0x4  ;; callhide_mode
   \   0000000C   44D04DE2           SUB      SP,SP,#+68
   \   00000010   002092E5           LDR      R2,[R2, #+0]
   \   00000014   0070A0E1           MOV      R7,R0
   \   00000018   0180A0E1           MOV      R8,R1
   \   0000001C   32FF2FE1           BLX      R2
   \   00000020   349097E5           LDR      R9,[R7, #+52]
   \   00000024   2C1097E5           LDR      R1,[R7, #+44]
   \   00000028   0040A0E1           MOV      R4,R0
   \   0000002C   00108DE5           STR      R1,[SP, #+0]
   \   00000030   0060A0E3           MOV      R6,#+0
   \   00000034   000059E3           CMP      R9,#+0
   \   00000038   00608505           STREQ    R6,[R5, #+0]
   2561            //  if (!ocgui_id) callhide_mode=0;
   2562            
   2563            if(msg->msg == MSG_RECONFIGURE_REQ) 
   \   0000003C   040098E5           LDR      R0,[R8, #+4]
   \   00000040   AF10A0E3           MOV      R1,#+175
   \   00000044   DE1C81E3           ORR      R1,R1,#0xDE00
   \   00000048   010050E1           CMP      R0,R1
   \   0000004C   0A00001A           BNE      ??MyIDLECSM_onMessage_2
   2564            {
   2565              if (strcmp_nocase(successed_config_filename,(char *)msg->data0)==0)
   \   00000050   ........           LDR      R0,??DataTable166  ;; successed_config_filename
   \   00000054   0C1098E5           LDR      R1,[R8, #+12]
   \   00000058   000090E5           LDR      R0,[R0, #+0]
   \   0000005C   ........           BL       strcmp_nocase
   \   00000060   000050E3           CMP      R0,#+0
   \   00000064   0400001A           BNE      ??MyIDLECSM_onMessage_2
   2566              {
   2567                ShowMSG(1,(int)"XTask config updated!");
   \   00000068   2C129FE5           LDR      R1,??MyIDLECSM_onMessage_1+0x8  ;; `?<Constant "XTask config updated!">`
   \   0000006C   0100A0E3           MOV      R0,#+1
   \   00000070   480100EF           SWI      +328
   2568                InitConfig();
   \   00000074   ........           _BLF     InitConfig,??InitConfig??rA
   2569                init_paths();
   \   00000078   ........           BL       init_paths
   2570              }
   2571            }
   2572          #ifdef NEWSGOLD
   2573            if(IsIdleUiOnTop()&&(IDLETASKS))
   \                     ??MyIDLECSM_onMessage_2:
   \   0000007C   1CA29FE5           LDR      R10,??MyIDLECSM_onMessage_1+0xC  ;; reiconize
   \   00000080   C50000EF           SWI      +197
   \   00000084   000050E3           CMP      R0,#+0
   \   00000088   0A00000A           BEQ      ??MyIDLECSM_onMessage_3
   \   0000008C   10029FE5           LDR      R0,??MyIDLECSM_onMessage_1+0x10  ;; IDLETASKS
   \   00000090   000090E5           LDR      R0,[R0, #+0]
   \   00000094   000050E3           CMP      R0,#+0
   \   00000098   0600000A           BEQ      ??MyIDLECSM_onMessage_3
   2574            {
   2575              if(reiconize)
   \   0000009C   00009AE5           LDR      R0,[R10, #+0]
   \   000000A0   000050E3           CMP      R0,#+0
   \   000000A4   0500000A           BEQ      ??MyIDLECSM_onMessage_4
   2576              {
   2577                DrawMainTasks();
   \   000000A8   ........           BL       DrawMainTasks
   2578                reiconize--;
   \   000000AC   00009AE5           LDR      R0,[R10, #+0]
   \   000000B0   010040E2           SUB      R0,R0,#+1
   \   000000B4   000000EA           B        ??MyIDLECSM_onMessage_5
   2579              }
   2580            }
   2581            else
   2582              reiconize=5;
   \                     ??MyIDLECSM_onMessage_3:
   \   000000B8   0500A0E3           MOV      R0,#+5
   \                     ??MyIDLECSM_onMessage_5:
   \   000000BC   00008AE5           STR      R0,[R10, #+0]
   2583          #else
   2584          //  #define idlegui_id (((int *)icsm)[DISPLACE_OF_IDLEGUI_ID/4])
   2585          //  CSM_RAM *icsm=FindCSMbyID(CSM_root()->idle_id);
   2586            if (IsGuiOnTop(idlegui_id)&&(IDLETASKS))
   2587              {
   2588                  if(reiconize)
   2589                  {
   2590                    DrawMainTasks();
   2591                    reiconize--;
   2592                  }
   2593              }
   2594            else
   2595              reiconize--;
   2596          #endif
   2597            //IPC
   2598            if (msg->msg==MSG_IPC)
   \                     ??MyIDLECSM_onMessage_4:
   \   000000C0   040098E5           LDR      R0,[R8, #+4]
   \   000000C4   B010A0E3           MOV      R1,#+176
   \   000000C8   DE1C81E3           ORR      R1,R1,#0xDE00
   \   000000CC   010050E1           CMP      R0,R1
   \   000000D0   5800001A           BNE      ??MyIDLECSM_onMessage_6
   2599            {
   2600              IPC_REQ *ipc;
   2601              if ((ipc=(IPC_REQ*)msg->data0))
   \   000000D4   0CA098E5           LDR      R10,[R8, #+12]
   \   000000D8   00005AE3           CMP      R10,#+0
   \   000000DC   5900000A           BEQ      ??MyIDLECSM_onMessage_7
   2602              {
   2603                if (strcmp(ipc->name_to,my_ipc_name)==0)
   \   000000E0   00009AE5           LDR      R0,[R10, #+0]
   \   000000E4   BC119FE5           LDR      R1,??MyIDLECSM_onMessage_1+0x14  ;; my_ipc_name
   \   000000E8   190000EF           SWI      +25
   \   000000EC   000050E3           CMP      R0,#+0
   \   000000F0   5000001A           BNE      ??MyIDLECSM_onMessage_6
   \   000000F4   ........           LDR      R0,??DataTable169  ;; MAINCSM_ID
   \   000000F8   081098E5           LDR      R1,[R8, #+8]
   \   000000FC   000090E5           LDR      R0,[R0, #+0]
   \   00000100   A4B19FE5           LDR      R11,??MyIDLECSM_onMessage_1+0x18  ;; SHOW_LOCK
   \   00000104   011041E2           SUB      R1,R1,#+1
   \   00000108   060051E3           CMP      R1,#+6
   \   0000010C   4900008A           BHI      ??MyIDLECSM_onMessage_6
   \   00000110   012F8FE2           ADR      R2,??MyIDLECSM_onMessage_0
   \   00000114   0120D2E7           LDRB     R2,[R2, R1]
   \   00000118   02F18FE0           ADD      PC,PC,R2, LSL #+2
   \                     ??MyIDLECSM_onMessage_0:
   \   0000011C   15011D21           DC8      +21,+1,+29,+33
   \   00000120   272A2C00           DC8      +39,+42,+44,+0
   2604                {
   2605          	switch (msg->submess)
   2606          	{
   2607          	case IPC_XTASK_SHOW_CSM:
   2608          	  if (MAINCSM_ID) break;
   \                     ??MyIDLECSM_onMessage_8:
   \   00000124   000050E3           CMP      R0,#+0
   \   00000128   4200001A           BNE      ??MyIDLECSM_onMessage_6
   2609          	  if ((!IsCalling())&&(!SHOW_LOCK))
   \   0000012C   6E0000EF           SWI      +110
   \   00000130   000050E3           CMP      R0,#+0
   \   00000134   00009B05           LDREQ    R0,[R11, #+0]
   \   00000138   00005003           CMPEQ    R0,#+0
   \   0000013C   3D00001A           BNE      ??MyIDLECSM_onMessage_6
   2610          	  {
   2611          	    if ((CSM_root()->csm_q->csm.last!=data)||IsGuiOnTop(idlegui_id))
   \   00000140   068100EF           SWI      +33030
   \   00000144   080090E5           LDR      R0,[R0, #+8]
   \   00000148   0C0090E5           LDR      R0,[R0, #+12]
   \   0000014C   070050E1           CMP      R0,R7
   \   00000150   0300001A           BNE      ??MyIDLECSM_onMessage_9
   \   00000154   00009DE5           LDR      R0,[SP, #+0]
   \   00000158   350100EF           SWI      +309
   \   0000015C   000050E3           CMP      R0,#+0
   \   00000160   3400000A           BEQ      ??MyIDLECSM_onMessage_6
   2612          	    {
   2613          	      CSMtoTop((int)(ipc->data),-1);
   \                     ??MyIDLECSM_onMessage_9:
   \   00000164   08009AE5           LDR      R0,[R10, #+8]
   \                     ??MyIDLECSM_onMessage_10:
   \   00000168   0610E0E1           MVN      R1,R6
   \   0000016C   ........           _BLF     CSMtoTop,??CSMtoTop??rA
   \   00000170   300000EA           B        ??MyIDLECSM_onMessage_6
   2614          	    }
   2615          	  }
   2616          	  break;
   2617          	case IPC_XTASK_IDLE:
   2618          	  if (MAINCSM_ID) break;
   \                     ??MyIDLECSM_onMessage_11:
   \   00000174   000050E3           CMP      R0,#+0
   \   00000178   2E00001A           BNE      ??MyIDLECSM_onMessage_6
   2619          	  if ((!IsCalling())/*&&(!SHOW_LOCK)*/)
   \   0000017C   6E0000EF           SWI      +110
   \   00000180   000050E3           CMP      R0,#+0
   \   00000184   2B00001A           BNE      ??MyIDLECSM_onMessage_6
   2620          	    CSMtoTop(CSM_root()->idle_id,-1);
   \   00000188   068100EF           SWI      +33030
   \   0000018C   040090E5           LDR      R0,[R0, #+4]
   \   00000190   F4FFFFEA           B        ??MyIDLECSM_onMessage_10
   2621          	  break;
   2622          	case IPC_XTASK_LOCK_SHOW:
   2623          	  SHOW_LOCK++;
   \                     ??MyIDLECSM_onMessage_12:
   \   00000194   00009BE5           LDR      R0,[R11, #+0]
   \   00000198   010080E2           ADD      R0,R0,#+1
   \                     ??MyIDLECSM_onMessage_13:
   \   0000019C   00008BE5           STR      R0,[R11, #+0]
   \   000001A0   240000EA           B        ??MyIDLECSM_onMessage_6
   2624          	  break;
   2625          	case IPC_XTASK_UNLOCK_SHOW:
   2626          	  if (SHOW_LOCK) SHOW_LOCK--;
   \                     ??MyIDLECSM_onMessage_14:
   \   000001A4   00009BE5           LDR      R0,[R11, #+0]
   \   000001A8   000050E3           CMP      R0,#+0
   \   000001AC   2100000A           BEQ      ??MyIDLECSM_onMessage_6
   \   000001B0   00009BE5           LDR      R0,[R11, #+0]
   \   000001B4   010040E2           SUB      R0,R0,#+1
   \   000001B8   F7FFFFEA           B        ??MyIDLECSM_onMessage_13
   2627          	  break;
   2628                  case IPC_XTASK_OFFE:
   2629                    ShowMenu(0);
   \                     ??MyIDLECSM_onMessage_15:
   \   000001BC   0000A0E3           MOV      R0,#+0
   \                     ??MyIDLECSM_onMessage_16:
   \   000001C0   ........           BL       ShowMenu
   \   000001C4   1B0000EA           B        ??MyIDLECSM_onMessage_6
   2630                    break;
   2631                  case IPC_XTASK_OPEN:
   2632                    ShowMenu(1);
   \                     ??MyIDLECSM_onMessage_17:
   \   000001C8   0100A0E3           MOV      R0,#+1
   \   000001CC   FBFFFFEA           B        ??MyIDLECSM_onMessage_16
   2633                    break;
   2634                  case IPC_ICON:
   2635                    {
   2636                    char test[64];
   2637                    int len=strlen(ipc->data);
   \                     ??MyIDLECSM_onMessage_18:
   \   000001D0   08009AE5           LDR      R0,[R10, #+8]
   \   000001D4   1B0000EF           SWI      +27
   2638                    sprintf(test,"%s",ipc->data);
   \   000001D8   08209AE5           LDR      R2,[R10, #+8]
   \   000001DC   0070A0E1           MOV      R7,R0
   \   000001E0   2B1F8FE2           ADR      R1,??MyIDLECSM_onMessage_1  ;; "%s"
   \   000001E4   04008DE2           ADD      R0,SP,#+4
   \   000001E8   160000EF           SWI      +22
   2639                    test[len]='\0';
   2640                    if(test[0]==0x31) naticq_icon=1;
   2641                    else naticq_icon=0;
   \   000001EC   ........           LDR      R1,??DataTable168  ;; naticq_icon
   \   000001F0   04008DE2           ADD      R0,SP,#+4
   \   000001F4   0060C7E7           STRB     R6,[R7, +R0]
   \   000001F8   0400DDE5           LDRB     R0,[SP, #+4]
   \   000001FC   310050E3           CMP      R0,#+49
   \   00000200   0100A003           MOVEQ    R0,#+1
   \   00000204   0000A013           MOVNE    R0,#+0
   \   00000208   000081E5           STR      R0,[R1, #+0]
   2642                    if(IsIdleUiOnTop()) DrawMainTasks();
   \   0000020C   C50000EF           SWI      +197
   \   00000210   000050E3           CMP      R0,#+0
   \   00000214   0100000A           BEQ      ??MyIDLECSM_onMessage_19
   \   00000218   ........           BL       DrawMainTasks
   \   0000021C   050000EA           B        ??MyIDLECSM_onMessage_6
   2643                    else
   2644                    if(IsGuiOnTop(MAINCSM_ID)) DirectRedrawGUI();
   \                     ??MyIDLECSM_onMessage_19:
   \   00000220   ........           LDR      R0,??DataTable169  ;; MAINCSM_ID
   \   00000224   000090E5           LDR      R0,[R0, #+0]
   \   00000228   350100EF           SWI      +309
   \   0000022C   000050E3           CMP      R0,#+0
   \   00000230   0000000A           BEQ      ??MyIDLECSM_onMessage_6
   \   00000234   3F0100EF           SWI      +319
   2645                    }
   2646                    break;
   2647          	}
   2648                }
   2649              }
   2650            }
   2651            if (msg->msg==MSG_INCOMMING_CALL)
   \                     ??MyIDLECSM_onMessage_6:
   \   00000238   040098E5           LDR      R0,[R8, #+4]
   \   0000023C   600C50E3           CMP      R0,#+24576
   2652            {
   2653              callhide_mode=1;
   \   00000240   0100A003           MOVEQ    R0,#+1
   \   00000244   00008505           STREQ    R0,[R5, #+0]
   2654            }
   2655            //  #ifdef NEWSGOLD
   2656            //  if ((msg->msg==MSG_STATE_OF_CALL)&&(msg->submess==0)&&((int)msg->data0==3)) callhide_mode=1;
   2657            //  #else
   2658            //if ((msg->msg==MSG_STATE_OF_CALL)&&(msg->submess==0)&&((int)msg->data0==0)) callhide_mode=1;
   2659            //    ?????!!!! ??????!!!
   2660            //  #endif   
   2661            if (callhide_mode)
   \                     ??MyIDLECSM_onMessage_7:
   \   00000248   000095E5           LDR      R0,[R5, #+0]
   \   0000024C   000050E3           CMP      R0,#+0
   \   00000250   0C00000A           BEQ      ??MyIDLECSM_onMessage_20
   2662            {
   2663              if ((IsGuiOnTop(icgui_id))/*||(IsGuiOnTop(ocgui_id))*/)
   \   00000254   0900A0E1           MOV      R0,R9
   \   00000258   350100EF           SWI      +309
   \   0000025C   000050E3           CMP      R0,#+0
   \   00000260   0800000A           BEQ      ??MyIDLECSM_onMessage_20
   2664              {
   2665                CSMtoTop(CSM_root()->idle_id,((CSM_RAM *)(CSM_root()->csm_q->csm.last))->id);
   \   00000264   068100EF           SWI      +33030
   \   00000268   0070A0E1           MOV      R7,R0
   \   0000026C   068100EF           SWI      +33030
   \   00000270   081097E5           LDR      R1,[R7, #+8]
   \   00000274   040090E5           LDR      R0,[R0, #+4]
   \   00000278   0C1091E5           LDR      R1,[R1, #+12]
   \   0000027C   0C1091E5           LDR      R1,[R1, #+12]
   \   00000280   ........           _BLF     CSMtoTop,??CSMtoTop??rA
   2666                callhide_mode=0;
   \   00000284   006085E5           STR      R6,[R5, #+0]
   2667              }
   2668            }
   2669            return csm_result;  
   \                     ??MyIDLECSM_onMessage_20:
   \   00000288   0400A0E1           MOV      R0,R4
   \   0000028C   44D08DE2           ADD      SP,SP,#+68
   \   00000290   F08FBDE8           POP      {R4-R11,PC}      ;; return
   \                     ??MyIDLECSM_onMessage_1:
   \   00000294   25730000           DC8      "%s",+0
   \   00000298   ........           DC32     callhide_mode
   \   0000029C   ........           DC32     `?<Constant "XTask config updated!">`
   \   000002A0   ........           DC32     reiconize
   \   000002A4   ........           DC32     IDLETASKS
   \   000002A8   ........           DC32     my_ipc_name
   \   000002AC   ........           DC32     SHOW_LOCK
   2670          }
   2671          

   \                                 In segment CODE, align 4, keep-with-next
   2672          void MyIDLECSM_onClose(CSM_RAM *data)
   2673          {
   \                     MyIDLECSM_onClose:
   \   00000000   10402DE9           PUSH     {R4,LR}
   \   00000004   0040A0E1           MOV      R4,R0
   2674            extern void seqkill(void *data, void(*next_in_seq)(CSM_RAM *), void *data_to_kill, void *seqkiller);
   2675            extern void *ELF_BEGIN;
   2676            GBS_DelTimer(&start_tmr);
   \   00000008   ........           LDR      R0,??DataTable248  ;; start_tmr
   \   0000000C   8C0100EF           SWI      +396
   2677            RemoveKeybMsgHook((void *)my_keyhook);
   \   00000010   ........           LDR      R0,??DataTable243  ;; my_keyhook
   \   00000014   2D0100EF           SWI      +301
   2678            seqkill(data,old_icsm_onClose,&ELF_BEGIN,SEQKILLER_ADR());
   \   00000018   9C8100EF           SWI      +33180
   \   0000001C   ........           LDR      R2,??DataTable172  ;; ELF_BEGIN
   \   00000020   0030A0E1           MOV      R3,R0
   \   00000024   ........           LDR      R0,??DataTable244  ;; old_icsm_onClose
   \   00000028   001090E5           LDR      R1,[R0, #+0]
   \   0000002C   0400A0E1           MOV      R0,R4
   \   00000030   1040BDE8           POP      {R4,LR}          ;; Pop
   \   00000034   ........           _BF      seqkill,??seqkill??rA  ;; tailcall
   2679          }
   2680          

   \                                 In segment CODE, align 4, keep-with-next
   2681          void load_icon_list()
   2682          {
   \                     load_icon_list:
   \   00000000   F0402DE9           PUSH     {R4-R7,LR}
   2683              int fi;
   2684              int fsizei;
   2685              FSTATS stati;
   2686              unsigned int uli;
   2687              GetFileStats(icon_list_path,&stati,&uli);
   \   00000004   ........           LDR      R5,??DataTable174  ;; icon_list_path
   2688              if(stati.size>0)
   \   00000008   ........           LDR      R4,??DataTable175  ;; icon_text
   \   0000000C   2CD04DE2           SUB      SP,SP,#+44
   \   00000010   0D20A0E1           MOV      R2,SP
   \   00000014   04108DE2           ADD      R1,SP,#+4
   \   00000018   0500A0E1           MOV      R0,R5
   \   0000001C   840000EF           SWI      +132
   \   00000020   08009DE5           LDR      R0,[SP, #+8]
   \   00000024   000050E3           CMP      R0,#+0
   \   00000028   1800000A           BEQ      ??load_icon_list_0
   2689              {
   2690                fi=fopen(icon_list_path,A_ReadOnly+A_BIN,P_READ,&uli);
   \   0000002C   0D30A0E1           MOV      R3,SP
   \   00000030   8020A0E3           MOV      R2,#+128
   \   00000034   801CA0E3           MOV      R1,#+32768
   \   00000038   0500A0E1           MOV      R0,R5
   \   0000003C   0A0000EF           SWI      +10
   2691                fsizei=stati.size;
   \   00000040   08609DE5           LDR      R6,[SP, #+8]
   \   00000044   0050A0E1           MOV      R5,R0
   2692                char *pi=malloc(fsizei);
   \   00000048   0600A0E1           MOV      R0,R6
   \   0000004C   140000EF           SWI      +20
   \   00000050   0070A0E1           MOV      R7,R0
   2693                pi[fread(fi,pi,fsizei,&uli)];
   \   00000054   0D30A0E1           MOV      R3,SP
   \   00000058   0620A0E1           MOV      R2,R6
   \   0000005C   0710A0E1           MOV      R1,R7
   \   00000060   0500A0E1           MOV      R0,R5
   \   00000064   0B0000EF           SWI      +11
   2694                fclose(fi,&uli);
   \   00000068   0D10A0E1           MOV      R1,SP
   \   0000006C   0500A0E1           MOV      R0,R5
   \   00000070   0D0000EF           SWI      +13
   2695                strcpy(icon_text, pi);
   \   00000074   0710A0E1           MOV      R1,R7
   \   00000078   0400A0E1           MOV      R0,R4
   \   0000007C   1A0000EF           SWI      +26
   2696                icon_text[fsizei]='\0';
   \   00000080   0000A0E3           MOV      R0,#+0
   \   00000084   0400C6E7           STRB     R0,[R6, +R4]
   2697                mfree(pi);
   \   00000088   0700A0E1           MOV      R0,R7
   \   0000008C   150000EF           SWI      +21
   2698              }
   2699              if(strstr(icon_text, "UNKNOWN")>0) use_unknown=1; else use_unknown=0;
   \                     ??load_icon_list_0:
   \   00000090   ........           LDR      R1,??DataTable176  ;; `?<Constant "UNKNOWN">`
   \   00000094   0400A0E1           MOV      R0,R4
   \   00000098   180100EF           SWI      +280
   \   0000009C   ........           LDR      R1,??DataTable177  ;; use_unknown
   \   000000A0   000050E3           CMP      R0,#+0
   \   000000A4   0100A013           MOVNE    R0,#+1
   \   000000A8   000081E5           STR      R0,[R1, #+0]
   2700          }
   \   000000AC   2CD08DE2           ADD      SP,SP,#+44
   \   000000B0   F080BDE8           POP      {R4-R7,PC}       ;; return

   \                                 In segment DATA_Z, align 4, align-sorted
   2701          int serti;
   \                     serti:
   \   00000000                      DS8 4
   2702          

   \                                 In segment CODE, align 4, keep-with-next
   2703          void get_bookmark(char *name, char *path, int w, char *search)
   2704          {
   \                     get_bookmark:
   \   00000000   10002DE9           PUSH     {R4}
   2705            int q=0;
   \   00000004   0340D2E7           LDRB     R4,[R2, +R3]
   \   00000008   00C0A0E3           MOV      R12,#+0
   \   0000000C   7C0054E3           CMP      R4,#+124
   \   00000010   0600000A           BEQ      ??get_bookmark_0
   2706            while(search[w]!='|')
   2707            {
   2708              name[q]=search[w];
   \                     ??get_bookmark_1:
   \   00000014   0340D2E7           LDRB     R4,[R2, +R3]
   2709              q++;
   2710              w++;
   \   00000018   012082E2           ADD      R2,R2,#+1
   \   0000001C   0040CCE7           STRB     R4,[R12, +R0]
   2711            }
   \   00000020   0340D2E7           LDRB     R4,[R2, +R3]
   \   00000024   01C08CE2           ADD      R12,R12,#+1
   \   00000028   7C0054E3           CMP      R4,#+124
   \   0000002C   F8FFFF1A           BNE      ??get_bookmark_1
   2712            name[q]='\0';
   \                     ??get_bookmark_0:
   \   00000030   0040A0E3           MOV      R4,#+0
   \   00000034   0040CCE7           STRB     R4,[R12, +R0]
   2713            w++;
   \   00000038   010082E2           ADD      R0,R2,#+1
   2714            q=0;
   \   0000003C   03C0D0E7           LDRB     R12,[R0, +R3]
   \   00000040   0020A0E3           MOV      R2,#+0
   \   00000044   7C005CE3           CMP      R12,#+124
   \   00000048   0600000A           BEQ      ??get_bookmark_2
   2715            while(search[w]!='|')
   2716            {
   2717              path[q]=search[w];
   \                     ??get_bookmark_3:
   \   0000004C   03C0D0E7           LDRB     R12,[R0, +R3]
   2718              q++;
   2719              w++;
   \   00000050   010080E2           ADD      R0,R0,#+1
   \   00000054   01C0C2E7           STRB     R12,[R2, +R1]
   2720            }
   \   00000058   03C0D0E7           LDRB     R12,[R0, +R3]
   \   0000005C   012082E2           ADD      R2,R2,#+1
   \   00000060   7C005CE3           CMP      R12,#+124
   \   00000064   F8FFFF1A           BNE      ??get_bookmark_3
   2721            path[q]='\0';
   \                     ??get_bookmark_2:
   \   00000068   0140C2E7           STRB     R4,[R2, +R1]
   2722            serti=w+3;
   \   0000006C   ........           LDR      R1,??DataTable181  ;; serti
   \   00000070   030080E2           ADD      R0,R0,#+3
   \   00000074   000081E5           STR      R0,[R1, #+0]
   2723            book_show++;
   \   00000078   ........           LDR      R0,??DataTable179  ;; book_show
   \   0000007C   001090E5           LDR      R1,[R0, #+0]
   \   00000080   011081E2           ADD      R1,R1,#+1
   \   00000084   001080E5           STR      R1,[R0, #+0]
   2724          }
   \   00000088   1000BDE8           POP      {R4}
   \   0000008C   1EFF2FE1           BX       LR               ;; return
   2725          

   \                                 In segment CODE, align 4, keep-with-next
   2726          void load_bookmark_list()
   2727          {
   \                     load_bookmark_list:
   \   00000000   70402DE9           PUSH     {R4-R6,LR}
   2728              int f;
   2729              int fsize;
   2730              FSTATS stat;
   2731              unsigned int ul;
   2732              GetFileStats(bokmark_list_path,&stat,&ul);
   \   00000004   ........           LDR      R4,??DataTable180  ;; bokmark_list_path
   \   00000008   2CD04DE2           SUB      SP,SP,#+44
   \   0000000C   0D20A0E1           MOV      R2,SP
   \   00000010   04108DE2           ADD      R1,SP,#+4
   \   00000014   0400A0E1           MOV      R0,R4
   \   00000018   840000EF           SWI      +132
   2733              if(stat.size>0)
   \   0000001C   08009DE5           LDR      R0,[SP, #+8]
   \   00000020   000050E3           CMP      R0,#+0
   \   00000024   E900000A           BEQ      ??load_bookmark_list_0
   2734              {
   2735                f=fopen(bokmark_list_path,A_ReadOnly+A_BIN,P_READ,&ul);
   \   00000028   0D30A0E1           MOV      R3,SP
   \   0000002C   8020A0E3           MOV      R2,#+128
   \   00000030   801CA0E3           MOV      R1,#+32768
   \   00000034   0400A0E1           MOV      R0,R4
   \   00000038   0A0000EF           SWI      +10
   2736                fsize=stat.size;
   \   0000003C   08609DE5           LDR      R6,[SP, #+8]
   \   00000040   0050A0E1           MOV      R5,R0
   2737                char *p=malloc(fsize);
   \   00000044   0600A0E1           MOV      R0,R6
   \   00000048   140000EF           SWI      +20
   \   0000004C   0040A0E1           MOV      R4,R0
   2738                p[fread(f,p,fsize,&ul)];
   \   00000050   0D30A0E1           MOV      R3,SP
   \   00000054   0620A0E1           MOV      R2,R6
   \   00000058   0410A0E1           MOV      R1,R4
   \   0000005C   0500A0E1           MOV      R0,R5
   \   00000060   0B0000EF           SWI      +11
   2739                fclose(f,&ul);
   \   00000064   0500A0E1           MOV      R0,R5
   2740                serti=0;
   \   00000068   ........           LDR      R5,??DataTable181  ;; serti
   \   0000006C   0D10A0E1           MOV      R1,SP
   \   00000070   0D0000EF           SWI      +13
   \   00000074   0000A0E3           MOV      R0,#+0
   \   00000078   000085E5           STR      R0,[R5, #+0]
   2741                if(serti<fsize-2) get_bookmark(BM1NAME, BM1FILE, serti, p);
   \   0000007C   026046E2           SUB      R6,R6,#+2
   \   00000080   010056E3           CMP      R6,#+1
   \   00000084   040000BA           BLT      ??load_bookmark_list_1
   \   00000088   ........           LDR      R1,??DataTable182  ;; BM1FILE
   \   0000008C   ........           LDR      R0,??DataTable183  ;; BM1NAME
   \   00000090   0430A0E1           MOV      R3,R4
   \   00000094   0020A0E3           MOV      R2,#+0
   \   00000098   ........           BL       get_bookmark
   2742                if(serti<fsize-2) get_bookmark(BM2NAME, BM2FILE, serti, p);
   \                     ??load_bookmark_list_1:
   \   0000009C   002095E5           LDR      R2,[R5, #+0]
   \   000000A0   060052E1           CMP      R2,R6
   \   000000A4   030000AA           BGE      ??load_bookmark_list_2
   \   000000A8   ........           LDR      R1,??DataTable184  ;; BM2FILE
   \   000000AC   ........           LDR      R0,??DataTable185  ;; BM2NAME
   \   000000B0   0430A0E1           MOV      R3,R4
   \   000000B4   ........           BL       get_bookmark
   2743                if(serti<fsize-2) get_bookmark(BM3NAME, BM3FILE, serti, p);
   \                     ??load_bookmark_list_2:
   \   000000B8   002095E5           LDR      R2,[R5, #+0]
   \   000000BC   060052E1           CMP      R2,R6
   \   000000C0   030000AA           BGE      ??load_bookmark_list_3
   \   000000C4   ........           LDR      R1,??DataTable186  ;; BM3FILE
   \   000000C8   ........           LDR      R0,??DataTable187  ;; BM3NAME
   \   000000CC   0430A0E1           MOV      R3,R4
   \   000000D0   ........           BL       get_bookmark
   2744                if(serti<fsize-2) get_bookmark(BM4NAME, BM4FILE, serti, p);
   \                     ??load_bookmark_list_3:
   \   000000D4   002095E5           LDR      R2,[R5, #+0]
   \   000000D8   060052E1           CMP      R2,R6
   \   000000DC   030000AA           BGE      ??load_bookmark_list_4
   \   000000E0   ........           LDR      R1,??DataTable188  ;; BM4FILE
   \   000000E4   ........           LDR      R0,??DataTable189  ;; BM4NAME
   \   000000E8   0430A0E1           MOV      R3,R4
   \   000000EC   ........           BL       get_bookmark
   2745                if(serti<fsize-2) get_bookmark(BM5NAME, BM5FILE, serti, p);
   \                     ??load_bookmark_list_4:
   \   000000F0   002095E5           LDR      R2,[R5, #+0]
   \   000000F4   060052E1           CMP      R2,R6
   \   000000F8   030000AA           BGE      ??load_bookmark_list_5
   \   000000FC   ........           LDR      R1,??DataTable190  ;; BM5FILE
   \   00000100   ........           LDR      R0,??DataTable191  ;; BM5NAME
   \   00000104   0430A0E1           MOV      R3,R4
   \   00000108   ........           BL       get_bookmark
   2746                if(serti<fsize-2) get_bookmark(BM6NAME, BM6FILE, serti, p);
   \                     ??load_bookmark_list_5:
   \   0000010C   002095E5           LDR      R2,[R5, #+0]
   \   00000110   060052E1           CMP      R2,R6
   \   00000114   030000AA           BGE      ??load_bookmark_list_6
   \   00000118   ........           LDR      R1,??DataTable192  ;; BM6FILE
   \   0000011C   ........           LDR      R0,??DataTable193  ;; BM6NAME
   \   00000120   0430A0E1           MOV      R3,R4
   \   00000124   ........           BL       get_bookmark
   2747                if(serti<fsize-2) get_bookmark(BM7NAME, BM7FILE, serti, p);
   \                     ??load_bookmark_list_6:
   \   00000128   002095E5           LDR      R2,[R5, #+0]
   \   0000012C   060052E1           CMP      R2,R6
   \   00000130   030000AA           BGE      ??load_bookmark_list_7
   \   00000134   ........           LDR      R1,??DataTable194  ;; BM7FILE
   \   00000138   ........           LDR      R0,??DataTable195  ;; BM7NAME
   \   0000013C   0430A0E1           MOV      R3,R4
   \   00000140   ........           BL       get_bookmark
   2748                if(serti<fsize-2) get_bookmark(BM8NAME, BM8FILE, serti, p);
   \                     ??load_bookmark_list_7:
   \   00000144   002095E5           LDR      R2,[R5, #+0]
   \   00000148   060052E1           CMP      R2,R6
   \   0000014C   030000AA           BGE      ??load_bookmark_list_8
   \   00000150   ........           LDR      R1,??DataTable196  ;; BM8FILE
   \   00000154   ........           LDR      R0,??DataTable197  ;; BM8NAME
   \   00000158   0430A0E1           MOV      R3,R4
   \   0000015C   ........           BL       get_bookmark
   2749                if(serti<fsize-2) get_bookmark(BM9NAME, BM9FILE, serti, p);
   \                     ??load_bookmark_list_8:
   \   00000160   002095E5           LDR      R2,[R5, #+0]
   \   00000164   060052E1           CMP      R2,R6
   \   00000168   030000AA           BGE      ??load_bookmark_list_9
   \   0000016C   ........           LDR      R1,??DataTable198  ;; BM9FILE
   \   00000170   ........           LDR      R0,??DataTable199  ;; BM9NAME
   \   00000174   0430A0E1           MOV      R3,R4
   \   00000178   ........           BL       get_bookmark
   2750                if(serti<fsize-2) get_bookmark(BM0NAME, BM0FILE, serti, p);
   \                     ??load_bookmark_list_9:
   \   0000017C   002095E5           LDR      R2,[R5, #+0]
   \   00000180   060052E1           CMP      R2,R6
   \   00000184   030000AA           BGE      ??load_bookmark_list_10
   \   00000188   ........           LDR      R1,??DataTable200  ;; BM0FILE
   \   0000018C   ........           LDR      R0,??DataTable201  ;; BM0NAME
   \   00000190   0430A0E1           MOV      R3,R4
   \   00000194   ........           BL       get_bookmark
   2751          #ifdef ELKA
   2752                if(serti<fsize-2) get_bookmark(BM11NAME, BM11FILE, serti, p);
   \                     ??load_bookmark_list_10:
   \   00000198   002095E5           LDR      R2,[R5, #+0]
   \   0000019C   060052E1           CMP      R2,R6
   \   000001A0   030000AA           BGE      ??load_bookmark_list_11
   \   000001A4   ........           LDR      R1,??DataTable202  ;; BM11FILE
   \   000001A8   ........           LDR      R0,??DataTable203  ;; BM11NAME
   \   000001AC   0430A0E1           MOV      R3,R4
   \   000001B0   ........           BL       get_bookmark
   2753                if(serti<fsize-2) get_bookmark(BM12NAME, BM12FILE, serti, p);
   \                     ??load_bookmark_list_11:
   \   000001B4   002095E5           LDR      R2,[R5, #+0]
   \   000001B8   060052E1           CMP      R2,R6
   \   000001BC   030000AA           BGE      ??load_bookmark_list_12
   \   000001C0   ........           LDR      R1,??DataTable204  ;; BM12FILE
   \   000001C4   ........           LDR      R0,??DataTable205  ;; BM12NAME
   \   000001C8   0430A0E1           MOV      R3,R4
   \   000001CC   ........           BL       get_bookmark
   2754                if(serti<fsize-2) get_bookmark(BM13NAME, BM13FILE, serti, p);
   \                     ??load_bookmark_list_12:
   \   000001D0   002095E5           LDR      R2,[R5, #+0]
   \   000001D4   060052E1           CMP      R2,R6
   \   000001D8   030000AA           BGE      ??load_bookmark_list_13
   \   000001DC   ........           LDR      R1,??DataTable206  ;; BM13FILE
   \   000001E0   ........           LDR      R0,??DataTable207  ;; BM13NAME
   \   000001E4   0430A0E1           MOV      R3,R4
   \   000001E8   ........           BL       get_bookmark
   2755                if(serti<fsize-2) get_bookmark(BM14NAME, BM14FILE, serti, p);
   \                     ??load_bookmark_list_13:
   \   000001EC   002095E5           LDR      R2,[R5, #+0]
   \   000001F0   060052E1           CMP      R2,R6
   \   000001F4   030000AA           BGE      ??load_bookmark_list_14
   \   000001F8   ........           LDR      R1,??DataTable208  ;; BM14FILE
   \   000001FC   ........           LDR      R0,??DataTable209  ;; BM14NAME
   \   00000200   0430A0E1           MOV      R3,R4
   \   00000204   ........           BL       get_bookmark
   2756                if(serti<fsize-2) get_bookmark(BM15NAME, BM15FILE, serti, p);
   \                     ??load_bookmark_list_14:
   \   00000208   002095E5           LDR      R2,[R5, #+0]
   \   0000020C   060052E1           CMP      R2,R6
   \   00000210   030000AA           BGE      ??load_bookmark_list_15
   \   00000214   ........           LDR      R1,??DataTable210  ;; BM15FILE
   \   00000218   ........           LDR      R0,??DataTable211  ;; BM15NAME
   \   0000021C   0430A0E1           MOV      R3,R4
   \   00000220   ........           BL       get_bookmark
   2757                if(serti<fsize-2) get_bookmark(BM16NAME, BM16FILE, serti, p);
   \                     ??load_bookmark_list_15:
   \   00000224   002095E5           LDR      R2,[R5, #+0]
   \   00000228   060052E1           CMP      R2,R6
   \   0000022C   030000AA           BGE      ??load_bookmark_list_16
   \   00000230   ........           LDR      R1,??DataTable212  ;; BM16FILE
   \   00000234   ........           LDR      R0,??DataTable213  ;; BM16NAME
   \   00000238   0430A0E1           MOV      R3,R4
   \   0000023C   ........           BL       get_bookmark
   2758                if(serti<fsize-2) get_bookmark(BM17NAME, BM17FILE, serti, p);
   \                     ??load_bookmark_list_16:
   \   00000240   002095E5           LDR      R2,[R5, #+0]
   \   00000244   060052E1           CMP      R2,R6
   \   00000248   030000AA           BGE      ??load_bookmark_list_17
   \   0000024C   ........           LDR      R1,??DataTable214  ;; BM17FILE
   \   00000250   ........           LDR      R0,??DataTable215  ;; BM17NAME
   \   00000254   0430A0E1           MOV      R3,R4
   \   00000258   ........           BL       get_bookmark
   2759                if(serti<fsize-2) get_bookmark(BM18NAME, BM18FILE, serti, p);
   \                     ??load_bookmark_list_17:
   \   0000025C   002095E5           LDR      R2,[R5, #+0]
   \   00000260   060052E1           CMP      R2,R6
   \   00000264   030000AA           BGE      ??load_bookmark_list_18
   \   00000268   ........           LDR      R1,??DataTable216  ;; BM18FILE
   \   0000026C   ........           LDR      R0,??DataTable217  ;; BM18NAME
   \   00000270   0430A0E1           MOV      R3,R4
   \   00000274   ........           BL       get_bookmark
   2760                if(serti<fsize-2) get_bookmark(BM19NAME, BM19FILE, serti, p);
   \                     ??load_bookmark_list_18:
   \   00000278   002095E5           LDR      R2,[R5, #+0]
   \   0000027C   060052E1           CMP      R2,R6
   \   00000280   030000AA           BGE      ??load_bookmark_list_19
   \   00000284   ........           LDR      R1,??DataTable218  ;; BM19FILE
   \   00000288   ........           LDR      R0,??DataTable219  ;; BM19NAME
   \   0000028C   0430A0E1           MOV      R3,R4
   \   00000290   ........           BL       get_bookmark
   2761                if(serti<fsize-2) get_bookmark(BM20NAME, BM20FILE, serti, p);
   \                     ??load_bookmark_list_19:
   \   00000294   002095E5           LDR      R2,[R5, #+0]
   \   00000298   060052E1           CMP      R2,R6
   \   0000029C   030000AA           BGE      ??load_bookmark_list_20
   \   000002A0   ........           LDR      R1,??DataTable220  ;; BM20FILE
   \   000002A4   ........           LDR      R0,??DataTable221  ;; BM20NAME
   \   000002A8   0430A0E1           MOV      R3,R4
   \   000002AC   ........           BL       get_bookmark
   2762                if(serti<fsize-2) get_bookmark(BM21NAME, BM21FILE, serti, p);
   \                     ??load_bookmark_list_20:
   \   000002B0   002095E5           LDR      R2,[R5, #+0]
   \   000002B4   060052E1           CMP      R2,R6
   \   000002B8   030000AA           BGE      ??load_bookmark_list_21
   \   000002BC   ........           LDR      R1,??DataTable222  ;; BM21FILE
   \   000002C0   ........           LDR      R0,??DataTable223  ;; BM21NAME
   \   000002C4   0430A0E1           MOV      R3,R4
   \   000002C8   ........           BL       get_bookmark
   2763                if(serti<fsize-2) get_bookmark(BM22NAME, BM22FILE, serti, p);
   \                     ??load_bookmark_list_21:
   \   000002CC   002095E5           LDR      R2,[R5, #+0]
   \   000002D0   060052E1           CMP      R2,R6
   \   000002D4   030000AA           BGE      ??load_bookmark_list_22
   \   000002D8   ........           LDR      R1,??DataTable224  ;; BM22FILE
   \   000002DC   ........           LDR      R0,??DataTable225  ;; BM22NAME
   \   000002E0   0430A0E1           MOV      R3,R4
   \   000002E4   ........           BL       get_bookmark
   2764                if(serti<fsize-2) get_bookmark(BM23NAME, BM23FILE, serti, p);
   \                     ??load_bookmark_list_22:
   \   000002E8   002095E5           LDR      R2,[R5, #+0]
   \   000002EC   060052E1           CMP      R2,R6
   \   000002F0   030000AA           BGE      ??load_bookmark_list_23
   \   000002F4   ........           LDR      R1,??DataTable226  ;; BM23FILE
   \   000002F8   ........           LDR      R0,??DataTable227  ;; BM23NAME
   \   000002FC   0430A0E1           MOV      R3,R4
   \   00000300   ........           BL       get_bookmark
   2765                if(serti<fsize-2) get_bookmark(BM24NAME, BM24FILE, serti, p);
   \                     ??load_bookmark_list_23:
   \   00000304   002095E5           LDR      R2,[R5, #+0]
   \   00000308   060052E1           CMP      R2,R6
   \   0000030C   030000AA           BGE      ??load_bookmark_list_24
   \   00000310   ........           LDR      R1,??DataTable228  ;; BM24FILE
   \   00000314   ........           LDR      R0,??DataTable229  ;; BM24NAME
   \   00000318   0430A0E1           MOV      R3,R4
   \   0000031C   ........           BL       get_bookmark
   2766                if(serti<fsize-2) get_bookmark(BM25NAME, BM25FILE, serti, p);
   \                     ??load_bookmark_list_24:
   \   00000320   002095E5           LDR      R2,[R5, #+0]
   \   00000324   060052E1           CMP      R2,R6
   \   00000328   030000AA           BGE      ??load_bookmark_list_25
   \   0000032C   ........           LDR      R1,??DataTable230  ;; BM25FILE
   \   00000330   ........           LDR      R0,??DataTable231  ;; BM25NAME
   \   00000334   0430A0E1           MOV      R3,R4
   \   00000338   ........           BL       get_bookmark
   2767                if(serti<fsize-2) get_bookmark(BM26NAME, BM26FILE, serti, p);
   \                     ??load_bookmark_list_25:
   \   0000033C   002095E5           LDR      R2,[R5, #+0]
   \   00000340   060052E1           CMP      R2,R6
   \   00000344   030000AA           BGE      ??load_bookmark_list_26
   \   00000348   ........           LDR      R1,??DataTable232  ;; BM26FILE
   \   0000034C   ........           LDR      R0,??DataTable233  ;; BM26NAME
   \   00000350   0430A0E1           MOV      R3,R4
   \   00000354   ........           BL       get_bookmark
   2768                if(serti<fsize-2) get_bookmark(BM27NAME, BM27FILE, serti, p);
   \                     ??load_bookmark_list_26:
   \   00000358   002095E5           LDR      R2,[R5, #+0]
   \   0000035C   060052E1           CMP      R2,R6
   \   00000360   030000AA           BGE      ??load_bookmark_list_27
   \   00000364   ........           LDR      R1,??DataTable234  ;; BM27FILE
   \   00000368   ........           LDR      R0,??DataTable235  ;; BM27NAME
   \   0000036C   0430A0E1           MOV      R3,R4
   \   00000370   ........           BL       get_bookmark
   2769                if(serti<fsize-2) get_bookmark(BM28NAME, BM28FILE, serti, p);
   \                     ??load_bookmark_list_27:
   \   00000374   002095E5           LDR      R2,[R5, #+0]
   \   00000378   060052E1           CMP      R2,R6
   \   0000037C   030000AA           BGE      ??load_bookmark_list_28
   \   00000380   ........           LDR      R1,??DataTable236  ;; BM28FILE
   \   00000384   ........           LDR      R0,??DataTable237  ;; BM28NAME
   \   00000388   0430A0E1           MOV      R3,R4
   \   0000038C   ........           BL       get_bookmark
   2770                if(serti<fsize-2) get_bookmark(BM29NAME, BM29FILE, serti, p);
   \                     ??load_bookmark_list_28:
   \   00000390   002095E5           LDR      R2,[R5, #+0]
   \   00000394   060052E1           CMP      R2,R6
   \   00000398   030000AA           BGE      ??load_bookmark_list_29
   \   0000039C   ........           LDR      R1,??DataTable238  ;; BM29FILE
   \   000003A0   ........           LDR      R0,??DataTable239  ;; BM29NAME
   \   000003A4   0430A0E1           MOV      R3,R4
   \   000003A8   ........           BL       get_bookmark
   2771                if(serti<fsize-2) get_bookmark(BM30NAME, BM30FILE, serti, p);
   \                     ??load_bookmark_list_29:
   \   000003AC   002095E5           LDR      R2,[R5, #+0]
   \   000003B0   060052E1           CMP      R2,R6
   \   000003B4   030000AA           BGE      ??load_bookmark_list_30
   \   000003B8   ........           LDR      R1,??DataTable240  ;; BM30FILE
   \   000003BC   ........           LDR      R0,??DataTable241  ;; BM30NAME
   \   000003C0   0430A0E1           MOV      R3,R4
   \   000003C4   ........           BL       get_bookmark
   2772          #endif
   2773                mfree(p);
   \                     ??load_bookmark_list_30:
   \   000003C8   0400A0E1           MOV      R0,R4
   \   000003CC   150000EF           SWI      +21
   2774              }
   2775          }
   \                     ??load_bookmark_list_0:
   \   000003D0   2CD08DE2           ADD      SP,SP,#+44       ;; stack cleaning
   \   000003D4   7080BDE8           POP      {R4-R6,PC}       ;; return
   2776          

   \                                 In segment CODE, align 4, keep-with-next
   2777          void DoSplices(void)
   2778          {
   \                     DoSplices:
   \   00000000   70402DE9           PUSH     {R4-R6,LR}
   \   00000004   04D04DE2           SUB      SP,SP,#+4
   2779            init_paths();
   \   00000008   ........           BL       init_paths
   2780            extern const int SHOW_DAEMONS;
   2781            extern int show_daemons;
   2782            show_daemons=SHOW_DAEMONS;
   \   0000000C   10119FE5           LDR      R1,??DoSplices_0  ;; SHOW_DAEMONS
   \   00000010   ........           LDR      R0,??DataTable242  ;; show_daemons
   \   00000014   001091E5           LDR      R1,[R1, #+0]
   \   00000018   001080E5           STR      R1,[R0, #+0]
   2783            LockSched();
   \   0000001C   460100EF           SWI      +326
   2784            if (!AddKeybMsgHook_end((void *)my_keyhook))
   \   00000020   ........           LDR      R0,??DataTable243  ;; my_keyhook
   \   00000024   2C0100EF           SWI      +300
   \   00000028   000050E3           CMP      R0,#+0
   \   0000002C   0500001A           BNE      ??DoSplices_1
   2785            {
   2786              ShowMSG(1,(int)"Cant Start Elf!");
   \   00000030   F0109FE5           LDR      R1,??DoSplices_0+0x4  ;; `?<Constant "Cant Start Elf!">`
   \   00000034   0100A0E3           MOV      R0,#+1
   \   00000038   480100EF           SWI      +328
   2787              SUBPROC((void *)ElfKiller);
   \   0000003C   E8009FE5           LDR      R0,??DoSplices_0+0x8  ;; ElfKiller
   \   00000040   710100EF           SWI      +369
   \   00000044   2F0000EA           B        ??DoSplices_2
   2788            }
   2789            else
   2790            {
   2791              {
   2792                CSM_RAM *icsm=FindCSMbyID(CSM_root()->idle_id);
   2793                memcpy(&icsmd,icsm->constr,sizeof(icsmd));
   \                     ??DoSplices_1:
   \   00000048   E0509FE5           LDR      R5,??DoSplices_0+0xC  ;; icsmd
   2794                old_icsm_onClose=icsmd.onClose;
   2795                old_icsm_onMessage=icsmd.onMessage;
   2796                icsmd.onClose=MyIDLECSM_onClose;
   2797                icsmd.onMessage=MyIDLECSM_onMessage;
   2798                icsm->constr=&icsmd;
   2799              }
   2800              load_icon_list();
   2801              load_bookmark_list();
   2802              under_idle=GetUnderIdleCSM(); //???? idle_dialog
   2803              int f;
   2804            int sz=0;
   2805            unsigned int ul;
   2806            extern const char csmlist_fname[128];
   2807            extern char csm_text[32768];
   2808            if ((f=fopen(csmlist_fname,A_ReadOnly+A_BIN,P_READ,&ul))!=-1)
   \   0000004C   E0609FE5           LDR      R6,??DoSplices_0+0x10  ;; csm_text
   \   00000050   068100EF           SWI      +33030
   \   00000054   040090E5           LDR      R0,[R0, #+4]
   \   00000058   080100EF           SWI      +264
   \   0000005C   0040A0E1           MOV      R4,R0
   \   00000060   081094E5           LDR      R1,[R4, #+8]
   \   00000064   2820A0E3           MOV      R2,#+40
   \   00000068   0500A0E1           MOV      R0,R5
   \   0000006C   1E0100EF           SWI      +286
   \   00000070   ........           LDR      R0,??DataTable244  ;; old_icsm_onClose
   \   00000074   181095E5           LDR      R1,[R5, #+24]
   \   00000078   001080E5           STR      R1,[R0, #+0]
   \   0000007C   ........           LDR      R0,??DataTable245  ;; old_icsm_onMessage
   \   00000080   001095E5           LDR      R1,[R5, #+0]
   \   00000084   001080E5           STR      R1,[R0, #+0]
   \   00000088   A8009FE5           LDR      R0,??DoSplices_0+0x14  ;; MyIDLECSM_onClose
   \   0000008C   180085E5           STR      R0,[R5, #+24]
   \   00000090   A4009FE5           LDR      R0,??DoSplices_0+0x18  ;; MyIDLECSM_onMessage
   \   00000094   000085E5           STR      R0,[R5, #+0]
   \   00000098   085084E5           STR      R5,[R4, #+8]
   \   0000009C   ........           BL       load_icon_list
   \   000000A0   ........           BL       load_bookmark_list
   \   000000A4   ........           BL       GetUnderIdleCSM
   \   000000A8   90109FE5           LDR      R1,??DoSplices_0+0x1C  ;; under_idle
   \   000000AC   0040A0E3           MOV      R4,#+0
   \   000000B0   000081E5           STR      R0,[R1, #+0]
   \   000000B4   88009FE5           LDR      R0,??DoSplices_0+0x20  ;; csmlist_fname
   \   000000B8   0D30A0E1           MOV      R3,SP
   \   000000BC   8020A0E3           MOV      R2,#+128
   \   000000C0   801CA0E3           MOV      R1,#+32768
   \   000000C4   0A0000EF           SWI      +10
   \   000000C8   0050A0E1           MOV      R5,R0
   \   000000CC   010075E3           CMN      R5,#+1
   \   000000D0   0A00000A           BEQ      ??DoSplices_3
   2809            {
   2810              sz=fread(f,csm_text,32767,&ul);
   \   000000D4   0D30A0E1           MOV      R3,SP
   \   000000D8   FF20A0E3           MOV      R2,#+255
   \   000000DC   7F2C82E3           ORR      R2,R2,#0x7F00
   \   000000E0   0610A0E1           MOV      R1,R6
   \   000000E4   0B0000EF           SWI      +11
   \   000000E8   0040A0E1           MOV      R4,R0
   2811              fclose(f,&ul);
   \   000000EC   0D10A0E1           MOV      R1,SP
   \   000000F0   0500A0E1           MOV      R0,R5
   \   000000F4   0D0000EF           SWI      +13
   2812            }
   2813            if (sz>=0) csm_text[sz]=0;
   \   000000F8   000054E3           CMP      R4,#+0
   \   000000FC   0100004A           BMI      ??DoSplices_2
   \                     ??DoSplices_3:
   \   00000100   0000A0E3           MOV      R0,#+0
   \   00000104   0600C4E7           STRB     R0,[R4, +R6]
   2814            
   2815            }
   2816            GBS_StartTimerProc(&start_tmr, 216*5, load_reboot_list);
   \                     ??DoSplices_2:
   \   00000108   38209FE5           LDR      R2,??DoSplices_0+0x24  ;; load_reboot_list
   \   0000010C   ........           LDR      R0,??DataTable248  ;; start_tmr
   \   00000110   3810A0E3           MOV      R1,#+56
   \   00000114   401E81E3           ORR      R1,R1,#0x400
   \   00000118   4D0000EF           SWI      +77
   2817            UnlockSched();
   \   0000011C   470100EF           SWI      +327
   2818          }
   \   00000120   7180BDE8           POP      {R0,R4-R6,PC}    ;; return
   \                     ??DoSplices_0:
   \   00000124   ........           DC32     SHOW_DAEMONS
   \   00000128   ........           DC32     `?<Constant "Cant Start Elf!">`
   \   0000012C   ........           DC32     ElfKiller
   \   00000130   ........           DC32     icsmd
   \   00000134   ........           DC32     csm_text
   \   00000138   ........           DC32     MyIDLECSM_onClose
   \   0000013C   ........           DC32     MyIDLECSM_onMessage
   \   00000140   ........           DC32     under_idle
   \   00000144   ........           DC32     csmlist_fname
   \   00000148   ........           DC32     load_reboot_list
   2819            

   \                                 In segment CODE, align 4, keep-with-next
   2820          void main(void)
   2821          {
   \                     main:
   \   00000000   00402DE9           PUSH     {LR}
   2822          #ifdef ELKA
   2823            if(ScreenW()<200)
   \   00000004   888100EF           SWI      +33160
   \   00000008   C80050E3           CMP      R0,#+200
   \   0000000C   030000AA           BGE      ??main_0
   2824            {
   2825              ShowMSG(1,(int)"wrong display");
   \   00000010   40109FE5           LDR      R1,??main_1      ;; `?<Constant "wrong display">`
   \   00000014   0100A0E3           MOV      R0,#+1
   \   00000018   480100EF           SWI      +328
   \   0000001C   0080BDE8           POP      {PC}
   2826            }
   2827          #else
   2828            if(ScreenW()>140)
   2829            {
   2830              ShowMSG(1,(int)"wrong display");
   2831            }
   2832          #endif
   2833            else
   2834            {
   2835            mode=0;
   \                     ??main_0:
   \   00000020   ........           LDR      R0,??DataTable247  ;; mode
   \   00000024   0010A0E3           MOV      R1,#+0
   \   00000028   001080E5           STR      R1,[R0, #+0]
   2836            if (InitConfig()!=2) GBS_StartTimerProc(&start_tmr,TMR_SECOND(10),DoSplices);
   \   0000002C   ........           _BLF     InitConfig,??InitConfig??rA
   \   00000030   020050E3           CMP      R0,#+2
   \   00000034   0500000A           BEQ      ??main_2
   \   00000038   1C209FE5           LDR      R2,??main_1+0x4  ;; DoSplices
   \   0000003C   ........           LDR      R0,??DataTable248  ;; start_tmr
   \   00000040   7610A0E3           MOV      R1,#+118
   \   00000044   801E81E3           ORR      R1,R1,#0x800
   \   00000048   4D0000EF           SWI      +77
   \   0000004C   0080BDE8           POP      {PC}
   2837            else DoSplices();
   \                     ??main_2:
   \   00000050   0040BDE8           POP      {LR}             ;; Pop
   \   00000054   ........           B        DoSplices        ;; tailcall
   \                     ??main_1:
   \   00000058   ........           DC32     `?<Constant "wrong display">`
   \   0000005C   ........           DC32     DoSplices
   2838            }
   2839          }

   \                                 In segment CODE, align 4, keep-with-next
   \                     ??DataTable0:
   \   00000000   ........           DC32     shutdown1

   \                                 In segment CODE, align 4, keep-with-next
   \                     ??DataTable1:
   \   00000000   ........           DC32     reboot1

   \                                 In segment CODE, align 4, keep-with-next
   \                     ??DataTable2:
   \   00000000   ........           DC32     task_img

   \                                 In segment CODE, align 4, keep-with-next
   \                     ??DataTable3:
   \   00000000   ........           DC32     ram_img

   \                                 In segment CODE, align 4, keep-with-next
   \                     ??DataTable4:
   \   00000000   ........           DC32     clock_img

   \                                 In segment CODE, align 4, keep-with-next
   \                     ??DataTable5:
   \   00000000   ........           DC32     batt_img

   \                                 In segment CODE, align 4, keep-with-next
   \                     ??DataTable10:
   \   00000000   ........           DC32     selection_img

   \                                 In segment CODE, align 4, keep-with-next
   \                     ??DataTable13:
   \   00000000   ........           DC32     icon_list_path

   \                                 In segment CODE, align 4, keep-with-next
   \                     ??DataTable14:
   \   00000000   ........           DC32     bokmark_list_path

   \                                 In segment CODE, align 4, keep-with-next
   \                     ??DataTable15:
   \   00000000   ........           DC32     BM1FILE

   \                                 In segment CODE, align 4, keep-with-next
   \                     ??DataTable16:
   \   00000000   ........           DC32     BM2FILE

   \                                 In segment CODE, align 4, keep-with-next
   \                     ??DataTable17:
   \   00000000   ........           DC32     BM3FILE

   \                                 In segment CODE, align 4, keep-with-next
   \                     ??DataTable18:
   \   00000000   ........           DC32     BM4FILE

   \                                 In segment CODE, align 4, keep-with-next
   \                     ??DataTable19:
   \   00000000   ........           DC32     BM5FILE

   \                                 In segment CODE, align 4, keep-with-next
   \                     ??DataTable20:
   \   00000000   ........           DC32     BM6FILE

   \                                 In segment CODE, align 4, keep-with-next
   \                     ??DataTable21:
   \   00000000   ........           DC32     BM7FILE

   \                                 In segment CODE, align 4, keep-with-next
   \                     ??DataTable22:
   \   00000000   ........           DC32     BM8FILE

   \                                 In segment CODE, align 4, keep-with-next
   \                     ??DataTable23:
   \   00000000   ........           DC32     BM9FILE

   \                                 In segment CODE, align 4, keep-with-next
   \                     ??DataTable24:
   \   00000000   ........           DC32     BM0FILE

   \                                 In segment CODE, align 4, keep-with-next
   \                     ??DataTable25:
   \   00000000   ........           DC32     BM11FILE

   \                                 In segment CODE, align 4, keep-with-next
   \                     ??DataTable26:
   \   00000000   ........           DC32     BM12FILE

   \                                 In segment CODE, align 4, keep-with-next
   \                     ??DataTable27:
   \   00000000   ........           DC32     BM13FILE

   \                                 In segment CODE, align 4, keep-with-next
   \                     ??DataTable28:
   \   00000000   ........           DC32     BM14FILE

   \                                 In segment CODE, align 4, keep-with-next
   \                     ??DataTable29:
   \   00000000   ........           DC32     BM15FILE

   \                                 In segment CODE, align 4, keep-with-next
   \                     ??DataTable30:
   \   00000000   ........           DC32     BM16FILE

   \                                 In segment CODE, align 4, keep-with-next
   \                     ??DataTable31:
   \   00000000   ........           DC32     BM17FILE

   \                                 In segment CODE, align 4, keep-with-next
   \                     ??DataTable32:
   \   00000000   ........           DC32     BM18FILE

   \                                 In segment CODE, align 4, keep-with-next
   \                     ??DataTable33:
   \   00000000   ........           DC32     BM19FILE

   \                                 In segment CODE, align 4, keep-with-next
   \                     ??DataTable34:
   \   00000000   ........           DC32     BM20FILE

   \                                 In segment CODE, align 4, keep-with-next
   \                     ??DataTable35:
   \   00000000   ........           DC32     BM21FILE

   \                                 In segment CODE, align 4, keep-with-next
   \                     ??DataTable36:
   \   00000000   ........           DC32     BM22FILE

   \                                 In segment CODE, align 4, keep-with-next
   \                     ??DataTable37:
   \   00000000   ........           DC32     BM23FILE

   \                                 In segment CODE, align 4, keep-with-next
   \                     ??DataTable38:
   \   00000000   ........           DC32     BM24FILE

   \                                 In segment CODE, align 4, keep-with-next
   \                     ??DataTable39:
   \   00000000   ........           DC32     BM25FILE

   \                                 In segment CODE, align 4, keep-with-next
   \                     ??DataTable40:
   \   00000000   ........           DC32     BM26FILE

   \                                 In segment CODE, align 4, keep-with-next
   \                     ??DataTable41:
   \   00000000   ........           DC32     BM27FILE

   \                                 In segment CODE, align 4, keep-with-next
   \                     ??DataTable42:
   \   00000000   ........           DC32     BM28FILE

   \                                 In segment CODE, align 4, keep-with-next
   \                     ??DataTable43:
   \   00000000   ........           DC32     BM29FILE

   \                                 In segment CODE, align 4, keep-with-next
   \                     ??DataTable44:
   \   00000000   ........           DC32     BM30FILE

   \                                 In segment CODE, align 4, keep-with-next
   \                     ??DataTable46:
   \   00000000   ........           DC32     data4

   \                                 In segment CODE, align 4, keep-with-next
   \                     ??DataTable47:
   \   00000000   ........           DC32     ctasks

   \                                 In segment CODE, align 4, keep-with-next
   \                     ??DataTable53:
   \   00000000   ........           DC32     tasks_img

   \                                 In segment CODE, align 4, keep-with-next
   \                     ??DataTable54:
   \   00000000   ........           DC32     bookmarks_img

   \                                 In segment CODE, align 4, keep-with-next
   \                     ??DataTable55:
   \   00000000   ........           DC32     draw_rec

   \                                 In segment CODE, align 4, keep-with-next
   \                     ??DataTable57:
   \   00000000   ........           DC32     shutd

   \                                 In segment CODE, align 4, keep-with-next
   \                     ??DataTable59:
   \   00000000   ........           DC32     screen2

   \                                 In segment CODE, align 4, keep-with-next
   \                     ??DataTable60:
   \   00000000   ........           DC32     background_img

   \                                 In segment CODE, align 4, keep-with-next
   \                     ??DataTable61:
   \   00000000   ........           DC32     cursor_img

   \                                 In segment CODE, align 4, keep-with-next
   \                     ??DataTable62:
   \   00000000   ........           DC32     pos

   \                                 In segment CODE, align 4, keep-with-next
   \                     ??DataTable63:
   \   00000000   ........           DC32     start_tmr

   \                                 In segment CODE, align 4, keep-with-next
   \                     ??DataTable64:
   \   00000000   ........           DC32     naticq_icon

   \                                 In segment CODE, align 4, keep-with-next
   \                     ??DataTable65:
   \   00000000   ........           DC32     `?<Constant "NATICQ2">`

   \                                 In segment CODE, align 4, keep-with-next
   \                     ??DataTable66:
   \   00000000   ........           DC32     icon_text

   \                                 In segment CODE, align 4, keep-with-next
   \                     ??DataTable67:
   \   00000000   ........           DC32     `?<Constant "UNKNOWN">`

   \                                 In segment CODE, align 4, keep-with-next
   \                     ??DataTable68:
   \   00000000   ........           DC32     icon_list_ms

   \                                 In segment CODE, align 4, keep-with-next
   \                     ??DataTable71:
   \   00000000   ........           DC32     icon_list_xtask

   \                                 In segment CODE, align 4, keep-with-next
   \                     ??DataTable72:
   \   00000000   ........           DC32     use_unknown

   \                                 In segment CODE, align 4, keep-with-next
   \                     ??DataTable73:
   \   00000000   ........           DC32     main_poX

   \                                 In segment CODE, align 4, keep-with-next
   \                     ??DataTable74:
   \   00000000   ........           DC32     main_poY

   \                                 In segment CODE, align 4, keep-with-next
   \                     ??DataTable75:
   \   00000000   ........           DC32     total_d

   \                                 In segment CODE, align 4, keep-with-next
   \                     ??DataTable76:
   \   00000000   ........           DC32     nltop

   \                                 In segment CODE, align 4, keep-with-next
   \                     ??DataTable77:
   \   00000000   ........           DC32     cinfo

   \                                 In segment CODE, align 4, keep-with-next
   \                     ??DataTable78:
   \   00000000   ........           DC32     BM21NAME

   \                                 In segment CODE, align 4, keep-with-next
   \                     ??DataTable79:
   \   00000000   ........           DC32     BM22NAME

   \                                 In segment CODE, align 4, keep-with-next
   \                     ??DataTable80:
   \   00000000   ........           DC32     BM23NAME

   \                                 In segment CODE, align 4, keep-with-next
   \                     ??DataTable81:
   \   00000000   ........           DC32     BM24NAME

   \                                 In segment CODE, align 4, keep-with-next
   \                     ??DataTable82:
   \   00000000   ........           DC32     BM25NAME

   \                                 In segment CODE, align 4, keep-with-next
   \                     ??DataTable83:
   \   00000000   ........           DC32     BM26NAME

   \                                 In segment CODE, align 4, keep-with-next
   \                     ??DataTable84:
   \   00000000   ........           DC32     BM27NAME

   \                                 In segment CODE, align 4, keep-with-next
   \                     ??DataTable85:
   \   00000000   ........           DC32     BM28NAME

   \                                 In segment CODE, align 4, keep-with-next
   \                     ??DataTable86:
   \   00000000   ........           DC32     BM29NAME

   \                                 In segment CODE, align 4, keep-with-next
   \                     ??DataTable87:
   \   00000000   ........           DC32     BM30NAME

   \                                 In segment CODE, align 4, keep-with-next
   \                     ??DataTable99:
   \   00000000   ........           DC32     shutdown1

   \                                 In segment CODE, align 4, keep-with-next
   \                     ??DataTable100:
   \   00000000   ........           DC32     reboot1

   \                                 In segment CODE, align 4, keep-with-next
   \                     ??DataTable102:
   \   00000000   ........           DC32     task_img

   \                                 In segment CODE, align 4, keep-with-next
   \                     ??DataTable105:
   \   00000000   ........           DC32     ram_img

   \                                 In segment CODE, align 4, keep-with-next
   \                     ??DataTable106:
   \   00000000   ........           DC32     batt_img

   \                                 In segment CODE, align 4, keep-with-next
   \                     ??DataTable108:
   \   00000000   ........           DC32     cinfo

   \                                 In segment CODE, align 4, keep-with-next
   \                     ??DataTable109:
   \   00000000   ........           DC32     clock_img

   \                                 In segment CODE, align 4, keep-with-next
   \                     ??DataTable115:
   \   00000000   ........           DC32     total_pos

   \                                 In segment CODE, align 4, keep-with-next
   \                     ??DataTable117:
   \   00000000   ........           DC32     book_show

   \                                 In segment CODE, align 4, keep-with-next
   \                     ??DataTable118:
   \   00000000   ........           DC32     time_not

   \                                 In segment CODE, align 4, keep-with-next
   \                     ??DataTable130:
   \   00000000   ........           DC32     redrit

   \                                 In segment CODE, align 4, keep-with-next
   \                     ??DataTable131:
   \   00000000   ........           DC32     start_tmr

   \                                 In segment CODE, align 4, keep-with-next
   \                     ??DataTable138:
   \   00000000   ........           DC32     data4

   \                                 In segment CODE, align 4, keep-with-next
   \                     ??DataTable139:
   \   00000000   ........           DC32     show_daemons

   \                                 In segment CODE, align 4, keep-with-next
   \                     ??DataTable142:
   \   00000000   ........           DC32     MAINCSM_ID

   \                                 In segment CODE, align 4, keep-with-next
   \                     ??DataTable144:
   \   00000000   ........           DC32     sm

   \                                 In segment CODE, align 4, keep-with-next
   \                     ??DataTable145:
   \   00000000   ........           DC32     pos

   \                                 In segment CODE, align 4, keep-with-next
   \                     ??DataTable146:
   \   00000000   ........           DC32     forward

   \                                 In segment CODE, align 4, keep-with-next
   \                     ??DataTable147:
   \   00000000   ........           DC32     total_pos

   \                                 In segment CODE, align 4, keep-with-next
   \                     ??DataTable148:
   \   00000000   ........           DC32     move_skip

   \                                 In segment CODE, align 4, keep-with-next
   \                     ??DataTable149:
   \   00000000   ........           DC32     shutd

   \                                 In segment CODE, align 4, keep-with-next
   \                     ??DataTable150:
   \   00000000   ........           DC32     lock_other

   \                                 In segment CODE, align 4, keep-with-next
   \                     ??DataTable151:
   \   00000000   ........           DC32     task_list

   \                                 In segment CODE, align 4, keep-with-next
   \                     ??DataTable156:
   \   00000000   ........           DC32     `?<Constant "NATICQ2">`

   \                                 In segment CODE, align 4, keep-with-next
   \                     ??DataTable157:
   \   00000000   ........           DC32     total_d

   \                                 In segment CODE, align 4, keep-with-next
   \                     ??DataTable158:
   \   00000000   ........           DC32     nltop

   \                                 In segment CODE, align 4, keep-with-next
   \                     ??DataTable162:
   \   00000000   ........           DC32     task_list

   \                                 In segment CODE, align 4, keep-with-next
   \                     ??DataTable166:
   \   00000000   ........           DC32     successed_config_filename

   \                                 In segment CODE, align 4, keep-with-next
   \                     ??DataTable168:
   \   00000000   ........           DC32     naticq_icon

   \                                 In segment CODE, align 4, keep-with-next
   \                     ??DataTable169:
   \   00000000   ........           DC32     MAINCSM_ID

   \                                 In segment CODE, align 4, keep-with-next
   \                     ??DataTable172:
   \   00000000   ........           DC32     ELF_BEGIN

   \                                 In segment CODE, align 4, keep-with-next
   \                     ??DataTable174:
   \   00000000   ........           DC32     icon_list_path

   \                                 In segment CODE, align 4, keep-with-next
   \                     ??DataTable175:
   \   00000000   ........           DC32     icon_text

   \                                 In segment CODE, align 4, keep-with-next
   \                     ??DataTable176:
   \   00000000   ........           DC32     `?<Constant "UNKNOWN">`

   \                                 In segment CODE, align 4, keep-with-next
   \                     ??DataTable177:
   \   00000000   ........           DC32     use_unknown

   \                                 In segment CODE, align 4, keep-with-next
   \                     ??DataTable179:
   \   00000000   ........           DC32     book_show

   \                                 In segment CODE, align 4, keep-with-next
   \                     ??DataTable180:
   \   00000000   ........           DC32     bokmark_list_path

   \                                 In segment CODE, align 4, keep-with-next
   \                     ??DataTable181:
   \   00000000   ........           DC32     serti

   \                                 In segment CODE, align 4, keep-with-next
   \                     ??DataTable182:
   \   00000000   ........           DC32     BM1FILE

   \                                 In segment CODE, align 4, keep-with-next
   \                     ??DataTable183:
   \   00000000   ........           DC32     BM1NAME

   \                                 In segment CODE, align 4, keep-with-next
   \                     ??DataTable184:
   \   00000000   ........           DC32     BM2FILE

   \                                 In segment CODE, align 4, keep-with-next
   \                     ??DataTable185:
   \   00000000   ........           DC32     BM2NAME

   \                                 In segment CODE, align 4, keep-with-next
   \                     ??DataTable186:
   \   00000000   ........           DC32     BM3FILE

   \                                 In segment CODE, align 4, keep-with-next
   \                     ??DataTable187:
   \   00000000   ........           DC32     BM3NAME

   \                                 In segment CODE, align 4, keep-with-next
   \                     ??DataTable188:
   \   00000000   ........           DC32     BM4FILE

   \                                 In segment CODE, align 4, keep-with-next
   \                     ??DataTable189:
   \   00000000   ........           DC32     BM4NAME

   \                                 In segment CODE, align 4, keep-with-next
   \                     ??DataTable190:
   \   00000000   ........           DC32     BM5FILE

   \                                 In segment CODE, align 4, keep-with-next
   \                     ??DataTable191:
   \   00000000   ........           DC32     BM5NAME

   \                                 In segment CODE, align 4, keep-with-next
   \                     ??DataTable192:
   \   00000000   ........           DC32     BM6FILE

   \                                 In segment CODE, align 4, keep-with-next
   \                     ??DataTable193:
   \   00000000   ........           DC32     BM6NAME

   \                                 In segment CODE, align 4, keep-with-next
   \                     ??DataTable194:
   \   00000000   ........           DC32     BM7FILE

   \                                 In segment CODE, align 4, keep-with-next
   \                     ??DataTable195:
   \   00000000   ........           DC32     BM7NAME

   \                                 In segment CODE, align 4, keep-with-next
   \                     ??DataTable196:
   \   00000000   ........           DC32     BM8FILE

   \                                 In segment CODE, align 4, keep-with-next
   \                     ??DataTable197:
   \   00000000   ........           DC32     BM8NAME

   \                                 In segment CODE, align 4, keep-with-next
   \                     ??DataTable198:
   \   00000000   ........           DC32     BM9FILE

   \                                 In segment CODE, align 4, keep-with-next
   \                     ??DataTable199:
   \   00000000   ........           DC32     BM9NAME

   \                                 In segment CODE, align 4, keep-with-next
   \                     ??DataTable200:
   \   00000000   ........           DC32     BM0FILE

   \                                 In segment CODE, align 4, keep-with-next
   \                     ??DataTable201:
   \   00000000   ........           DC32     BM0NAME

   \                                 In segment CODE, align 4, keep-with-next
   \                     ??DataTable202:
   \   00000000   ........           DC32     BM11FILE

   \                                 In segment CODE, align 4, keep-with-next
   \                     ??DataTable203:
   \   00000000   ........           DC32     BM11NAME

   \                                 In segment CODE, align 4, keep-with-next
   \                     ??DataTable204:
   \   00000000   ........           DC32     BM12FILE

   \                                 In segment CODE, align 4, keep-with-next
   \                     ??DataTable205:
   \   00000000   ........           DC32     BM12NAME

   \                                 In segment CODE, align 4, keep-with-next
   \                     ??DataTable206:
   \   00000000   ........           DC32     BM13FILE

   \                                 In segment CODE, align 4, keep-with-next
   \                     ??DataTable207:
   \   00000000   ........           DC32     BM13NAME

   \                                 In segment CODE, align 4, keep-with-next
   \                     ??DataTable208:
   \   00000000   ........           DC32     BM14FILE

   \                                 In segment CODE, align 4, keep-with-next
   \                     ??DataTable209:
   \   00000000   ........           DC32     BM14NAME

   \                                 In segment CODE, align 4, keep-with-next
   \                     ??DataTable210:
   \   00000000   ........           DC32     BM15FILE

   \                                 In segment CODE, align 4, keep-with-next
   \                     ??DataTable211:
   \   00000000   ........           DC32     BM15NAME

   \                                 In segment CODE, align 4, keep-with-next
   \                     ??DataTable212:
   \   00000000   ........           DC32     BM16FILE

   \                                 In segment CODE, align 4, keep-with-next
   \                     ??DataTable213:
   \   00000000   ........           DC32     BM16NAME

   \                                 In segment CODE, align 4, keep-with-next
   \                     ??DataTable214:
   \   00000000   ........           DC32     BM17FILE

   \                                 In segment CODE, align 4, keep-with-next
   \                     ??DataTable215:
   \   00000000   ........           DC32     BM17NAME

   \                                 In segment CODE, align 4, keep-with-next
   \                     ??DataTable216:
   \   00000000   ........           DC32     BM18FILE

   \                                 In segment CODE, align 4, keep-with-next
   \                     ??DataTable217:
   \   00000000   ........           DC32     BM18NAME

   \                                 In segment CODE, align 4, keep-with-next
   \                     ??DataTable218:
   \   00000000   ........           DC32     BM19FILE

   \                                 In segment CODE, align 4, keep-with-next
   \                     ??DataTable219:
   \   00000000   ........           DC32     BM19NAME

   \                                 In segment CODE, align 4, keep-with-next
   \                     ??DataTable220:
   \   00000000   ........           DC32     BM20FILE

   \                                 In segment CODE, align 4, keep-with-next
   \                     ??DataTable221:
   \   00000000   ........           DC32     BM20NAME

   \                                 In segment CODE, align 4, keep-with-next
   \                     ??DataTable222:
   \   00000000   ........           DC32     BM21FILE

   \                                 In segment CODE, align 4, keep-with-next
   \                     ??DataTable223:
   \   00000000   ........           DC32     BM21NAME

   \                                 In segment CODE, align 4, keep-with-next
   \                     ??DataTable224:
   \   00000000   ........           DC32     BM22FILE

   \                                 In segment CODE, align 4, keep-with-next
   \                     ??DataTable225:
   \   00000000   ........           DC32     BM22NAME

   \                                 In segment CODE, align 4, keep-with-next
   \                     ??DataTable226:
   \   00000000   ........           DC32     BM23FILE

   \                                 In segment CODE, align 4, keep-with-next
   \                     ??DataTable227:
   \   00000000   ........           DC32     BM23NAME

   \                                 In segment CODE, align 4, keep-with-next
   \                     ??DataTable228:
   \   00000000   ........           DC32     BM24FILE

   \                                 In segment CODE, align 4, keep-with-next
   \                     ??DataTable229:
   \   00000000   ........           DC32     BM24NAME

   \                                 In segment CODE, align 4, keep-with-next
   \                     ??DataTable230:
   \   00000000   ........           DC32     BM25FILE

   \                                 In segment CODE, align 4, keep-with-next
   \                     ??DataTable231:
   \   00000000   ........           DC32     BM25NAME

   \                                 In segment CODE, align 4, keep-with-next
   \                     ??DataTable232:
   \   00000000   ........           DC32     BM26FILE

   \                                 In segment CODE, align 4, keep-with-next
   \                     ??DataTable233:
   \   00000000   ........           DC32     BM26NAME

   \                                 In segment CODE, align 4, keep-with-next
   \                     ??DataTable234:
   \   00000000   ........           DC32     BM27FILE

   \                                 In segment CODE, align 4, keep-with-next
   \                     ??DataTable235:
   \   00000000   ........           DC32     BM27NAME

   \                                 In segment CODE, align 4, keep-with-next
   \                     ??DataTable236:
   \   00000000   ........           DC32     BM28FILE

   \                                 In segment CODE, align 4, keep-with-next
   \                     ??DataTable237:
   \   00000000   ........           DC32     BM28NAME

   \                                 In segment CODE, align 4, keep-with-next
   \                     ??DataTable238:
   \   00000000   ........           DC32     BM29FILE

   \                                 In segment CODE, align 4, keep-with-next
   \                     ??DataTable239:
   \   00000000   ........           DC32     BM29NAME

   \                                 In segment CODE, align 4, keep-with-next
   \                     ??DataTable240:
   \   00000000   ........           DC32     BM30FILE

   \                                 In segment CODE, align 4, keep-with-next
   \                     ??DataTable241:
   \   00000000   ........           DC32     BM30NAME

   \                                 In segment CODE, align 4, keep-with-next
   \                     ??DataTable242:
   \   00000000   ........           DC32     show_daemons

   \                                 In segment CODE, align 4, keep-with-next
   \                     ??DataTable243:
   \   00000000   ........           DC32     my_keyhook

   \                                 In segment CODE, align 4, keep-with-next
   \                     ??DataTable244:
   \   00000000   ........           DC32     old_icsm_onClose

   \                                 In segment CODE, align 4, keep-with-next
   \                     ??DataTable245:
   \   00000000   ........           DC32     old_icsm_onMessage

   \                                 In segment CODE, align 4, keep-with-next
   \                     ??DataTable247:
   \   00000000   ........           DC32     mode

   \                                 In segment CODE, align 4, keep-with-next
   \                     ??DataTable248:
   \   00000000   ........           DC32     start_tmr

   \                                 In segment DATA_ID, align 4, align-sorted
   \                     `?<Initializer for time_not>`:
   \   00000000   01000000           DC32 1

   \                                 In segment DATA_ID, align 4, align-sorted
   \                     `?<Initializer for screen2>`:
   \   00000000   00000000           DC16 0, 0
   \   00000004   08000000....       DC32 8, `?<Constant "">`
   \              ....        

   \                                 In segment DATA_ID, align 4, align-sorted
   \                     `?<Initializer for screen3>`:
   \   00000000   00000000           DC16 0, 0
   \   00000004   08000000....       DC32 8, `?<Constant "">`
   \              ....        

   \                                 In segment DATA_ID, align 4, align-sorted
   \                     `?<Initializer for task_list>`:
   \   00000000   01000000           DC32 1

   \                                 In segment DATA_ID, align 4, align-sorted
   \                     `?<Initializer for pos>`:
   \   00000000   01000000           DC32 1

   \                                 In segment DATA_ID, align 4, align-sorted
   \                     `?<Initializer for total_pos>`:
   \   00000000   01000000           DC32 1

   \                                 In segment DATA_ID, align 4, align-sorted
   \                     `?<Initializer for init_rec>`:
   \   00000000   01000000           DC32 1

   \                                 In segment DATA_C, align 4, align-sorted
   \                     `?<Constant "%dKb">`:
   \   00000000   25644B6200         DC8 "%dKb"
   \   00000005   000000             DC8 0, 0, 0

   \                                 In segment DATA_C, align 1, align-sorted
   \   00000000   256400             DC8 "%d"

   \                                 In segment DATA_C, align 4, align-sorted
   \                     `?<Constant "No Tasks">`:
   \   00000000   4E6F20546173       DC8 "No Tasks"
   \              6B7300      
   \   00000009   000000             DC8 0, 0, 0

   \                                 In segment DATA_C, align 4, align-sorted
   \                     `?<Constant "UNKNOWN">`:
   \   00000000   554E4B4E4F57       DC8 "UNKNOWN"
   \              4E00        

   \                                 In segment DATA_C, align 4, align-sorted
   \                     `?<Constant "%s%s.png">`:
   \   00000000   257325732E70       DC8 "%s%s.png"
   \              6E6700      
   \   00000009   000000             DC8 0, 0, 0

   \                                 In segment DATA_C, align 1, align-sorted
   \                     `?<Constant "||">`:
   \   00000000   7C7C00             DC8 "||"

   \                                 In segment DATA_C, align 4, align-sorted
   \                     `?<Constant "IDLE">`:
   \   00000000   49444C4500         DC8 "IDLE"
   \   00000005   000000             DC8 0, 0, 0

   \                                 In segment DATA_C, align 4, align-sorted
   \                     `?<Constant "navaico">`:
   \   00000000   6E6176616963       DC8 "navaico"
   \              6F00        

   \                                 In segment DATA_C, align 4, align-sorted
   \                     `?<Constant "%sother\\\\clocki.png">`:
   \   00000000   25736F746865       DC8 "%sother\\clocki.png"
   \              725C636C6F63
   \              6B692E706E67
   \              00          
   \   00000013   00                 DC8 0

   \                                 In segment DATA_C, align 4, align-sorted
   \   00000000   424D3A00           DC8 "BM:"

   \                                 In segment DATA_C, align 1, align-sorted
   \   00000000   6D6300             DC8 "mc"

   \                                 In segment DATA_C, align 1, align-sorted
   \   00000000   4D4300             DC8 "MC"

   \                                 In segment DATA_C, align 4, align-sorted
   \   00000000   4D433A00           DC8 "MC:"

   \                                 In segment DATA_C, align 4, align-sorted
   \                     `?<Constant "SieJC">`:
   \   00000000   5369654A4300       DC8 "SieJC"
   \   00000006   0000               DC8 0, 0

   \                                 In segment DATA_C, align 4, align-sorted
   \                     `?<Constant "Config:">`:
   \   00000000   436F6E666967       DC8 "Config:"
   \              3A00        

   \                                 In segment DATA_C, align 4, align-sorted
   \                     `?<Constant "CfgEditor">`:
   \   00000000   436667456469       DC8 "CfgEditor"
   \              746F7200    
   \   0000000A   0000               DC8 0, 0

   \                                 In segment DATA_C, align 4, align-sorted
   \                     `?<Constant "\\317\\345\\360\\345\\347\\340\\343\\360\\3`:
   \   00000000   CFE5F0E5E7E0       DC8 "\317\345\360\345\347\340\343\360\363\347\352\340......"
   \              E3F0F3E7EAE0
   \              2E2E2E2E2E2E
   \              00          
   \   00000013   00                 DC8 0

   \                                 In segment DATA_C, align 4, align-sorted
   \                     `?<Constant "\\302\\373\\352\\353\\376\\367\\345\\355\\3`:
   \   00000000   C2FBEAEBFEF7       DC8 "\302\373\352\353\376\367\345\355\350\345......"
   \              E5EDE8E52E2E
   \              2E2E2E2E00  
   \   00000011   000000             DC8 0, 0, 0

   \                                 In segment DATA_C, align 4, align-sorted
   \                     `?<Constant "[OK]">`:
   \   00000000   5B4F4B5D00         DC8 "[OK]"
   \   00000005   000000             DC8 0, 0, 0

   \                                 In segment DATA_C, align 4, align-sorted
   \                     `?<Constant "\\307\\340\\352\\360\\373\\362\\350\\345..`:
   \   00000000   C7E0EAF0FBF2       DC8 "\307\340\352\360\373\362\350\345..."
   \              E8E52E2E2E00

   \                                 In segment DATA_C, align 1, align-sorted
   \   00000000   257400             DC8 "%t"

   \                                 In segment DATA_C, align 4, align-sorted
   \                     `?<Constant "0:\\\\system\\\\data.bin">`:
   \   00000000   303A5C737973       DC8 "0:\\system\\data.bin"
   \              74656D5C6461
   \              74612E62696E
   \              00          
   \   00000013   00                 DC8 0

   \                                 In segment DATA_C, align 4, align-sorted
   \                     `?<Constant "NATICQ2">`:
   \   00000000   4E4154494351       DC8 "NATICQ2"
   \              3200        

   \                                 In segment DATA_C, align 4, align-sorted
   \   00000000   25737C00           DC8 "%s|"

   \                                 In segment DATA_C, align 4, align-sorted
   \                     `?<Constant "%ssoft_list.txt">`:
   \   00000000   2573736F6674       DC8 "%ssoft_list.txt"
   \              5F6C6973742E
   \              74787400    

   \                                 In segment DATA_C, align 4, align-sorted
   \                     `?<Constant "%sbookmark_list.txt">`:
   \   00000000   2573626F6F6B       DC8 "%sbookmark_list.txt"
   \              6D61726B5F6C
   \              6973742E7478
   \              7400        

   \                                 In segment DATA_C, align 4, align-sorted
   \                     `?<Constant "%sicon_list.txt">`:
   \   00000000   257369636F6E       DC8 "%sicon_list.txt"
   \              5F6C6973742E
   \              74787400    

   \                                 In segment DATA_C, align 4, align-sorted
   \                     `?<Constant "%sicons_x\\\\">`:
   \   00000000   257369636F6E       DC8 "%sicons_x\\"
   \              735F785C00  
   \   0000000B   00                 DC8 0

   \                                 In segment DATA_C, align 4, align-sorted
   \                     `?<Constant "%sicons_m\\\\">`:
   \   00000000   257369636F6E       DC8 "%sicons_m\\"
   \              735F6D5C00  
   \   0000000B   00                 DC8 0

   \                                 In segment DATA_C, align 4, align-sorted
   \                     `?<Constant "%sselection.png">`:
   \   00000000   257373656C65       DC8 "%sselection.png"
   \              6374696F6E2E
   \              706E6700    

   \                                 In segment DATA_C, align 4, align-sorted
   \                     `?<Constant "%scursor.png">`:
   \   00000000   257363757273       DC8 "%scursor.png"
   \              6F722E706E67
   \              00          
   \   0000000D   000000             DC8 0, 0, 0

   \                                 In segment DATA_C, align 4, align-sorted
   \                     `?<Constant "%sbookmarks.png">`:
   \   00000000   2573626F6F6B       DC8 "%sbookmarks.png"
   \              6D61726B732E
   \              706E6700    

   \                                 In segment DATA_C, align 4, align-sorted
   \                     `?<Constant "%stasks.png">`:
   \   00000000   25737461736B       DC8 "%stasks.png"
   \              732E706E6700

   \                                 In segment DATA_C, align 4, align-sorted
   \                     `?<Constant "%sbackground.png">`:
   \   00000000   25736261636B       DC8 "%sbackground.png"
   \              67726F756E64
   \              2E706E6700  
   \   00000011   000000             DC8 0, 0, 0

   \                                 In segment DATA_C, align 4, align-sorted
   \                     `?<Constant "%sother\\\\batti.png">`:
   \   00000000   25736F746865       DC8 "%sother\\batti.png"
   \              725C62617474
   \              692E706E6700
   \   00000012   0000               DC8 0, 0

   \                                 In segment DATA_C, align 4, align-sorted
   \                     `?<Constant "NATICQ">`:
   \   00000000   4E4154494351       DC8 "NATICQ"
   \              00          
   \   00000007   00                 DC8 0

   \                                 In segment DATA_C, align 4, align-sorted
   \                     `?<Constant "%sother\\\\rami.png">`:
   \   00000000   25736F746865       DC8 "%sother\\rami.png"
   \              725C72616D69
   \              2E706E6700  
   \   00000011   000000             DC8 0, 0, 0

   \                                 In segment DATA_C, align 4, align-sorted
   \                     `?<Constant "%sother\\\\taski.png">`:
   \   00000000   25736F746865       DC8 "%sother\\taski.png"
   \              725C7461736B
   \              692E706E6700
   \   00000012   0000               DC8 0, 0

   \                                 In segment DATA_C, align 4, align-sorted
   \                     `?<Constant "%sturnoff\\\\reboot1.png">`:
   \   00000000   25737475726E       DC8 "%sturnoff\\reboot1.png"
   \              6F66665C7265
   \              626F6F74312E
   \              706E6700    
   \   00000016   0000               DC8 0, 0

   \                                 In segment DATA_C, align 4, align-sorted
   \                     `?<Constant "%sturnoff\\\\shutdown1.png">`:
   \   00000000   25737475726E       DC8 "%sturnoff\\shutdown1.png"
   \              6F66665C7368
   \              7574646F776E
   \              312E706E6700

   \                                 In segment DATA_C, align 1, align-sorted
   \                     `?<Constant "">`:
   \   00000000   00                 DC8 ""

   \                                 In segment DATA_C, align 4, align-sorted
   \                     `?<Constant "wrong display">`:
   \   00000000   77726F6E6720       DC8 "wrong display"
   \              646973706C61
   \              7900        
   \   0000000E   0000               DC8 0, 0

   \                                 In segment DATA_C, align 4, align-sorted
   \                     `?<Constant "Cant Start Elf!">`:
   \   00000000   43616E742053       DC8 "Cant Start Elf!"
   \              746172742045
   \              6C662100    

   \                                 In segment DATA_C, align 1, align-sorted
   \   00000000   257300             DC8 "%s"

   \                                 In segment DATA_C, align 4, align-sorted
   \                     `?<Constant "XTask config updated!">`:
   \   00000000   585461736B20       DC8 "XTask config updated!"
   \              636F6E666967
   \              207570646174
   \              65642100    
   \   00000016   0000               DC8 0, 0

   \                                 In segment DATA_C, align 4, align-sorted
   \                     `?<Constant "%08X">`:
   \   00000000   2530385800         DC8 "%08X"
   \   00000005   000000             DC8 0, 0, 0

   \                                 In segment DATA_C, align 4, align-sorted
   \                     `?<Constant "xtask 3 mod">`:
   \   00000000   787461736B20       DC8 "xtask 3 mod"
   \              33206D6F6400

   \                                 In segment DATA_C, align 4, align-sorted
   \                     `?<Constant "%02d:%02d:%02d">`:
   \   00000000   253032643A25       DC8 "%02d:%02d:%02d"
   \              3032643A2530
   \              326400      
   \   0000000F   00                 DC8 0

   \                                 In segment DATA_C, align 4, align-sorted
   \   00000000   25642500           DC8 "%d%"

   Maximum stack usage in bytes:

     Function            CSTACK
     --------            ------
     DoClosery              20
     DoScreen2              20
     DoScreen3              12
     DoSplices              20
     DrawCPU                20
     DrawMainTasks          24
     DrawProgress           72
     DrawSideProgresbar     36
     DrwImage               64
     ElfKiller               4
     GetUnderIdleCSM        12
     MyIDLECSM_onClose       8
     MyIDLECSM_onMessage   104
     OnKey                  36
     OnRedraw              108
     SaveRebootList        140
     SearchIcon            308
     ShowMenu               68
     ShowNaticq             12
     Start_bookmark          8
     SwitchNext             12
     UpdateCSMname           8
     check_name             12
     close                  16
     get_bookmark            4
     init_paths            140
     load_bookmark_list     60
     load_icon_list         64
     main                    4
     maincsm_onclose         0
     maincsm_oncreate       20
     maincsm_onmessage       0
     method8                 0
     method9                 0
     my_keyhook             40
     onClose                 8
     onCreate                0
     onFocus                 0
     onUnfocus               4
     redrit                  4
     strcmp_nocase           0
     task_list3             32


   Segment part sizes:

     Function/Label                 Bytes
     --------------                 -----
     a                                  4
     book_show                          4
     time_not                           4
     start_tmr                         16
     lock_other                         4
     reboot1                            4
     shutdown1                          4
     task_img                           4
     ram_img                            4
     clock_img                          4
     batt_img                           4
     background_img                     4
     tasks_img                          4
     bookmarks_img                      4
     cursor_img                         4
     selection_img                      4
     soft_list_path                   128
     bokmark_list_path                128
     icon_list_path                   128
     icon_list_ms                     128
     icon_list_xtask                  128
     DrwImage                         100
     init_paths                       596
     BM1NAME                           32
     BM1FILE                          128
     BM2NAME                           32
     BM2FILE                          128
     BM3NAME                           32
     BM3FILE                          128
     BM4NAME                           32
     BM4FILE                          128
     BM5NAME                           32
     BM5FILE                          128
     BM6NAME                           32
     BM6FILE                          128
     BM7NAME                           32
     BM7FILE                          128
     BM8NAME                           32
     BM8FILE                          128
     BM9NAME                           32
     BM9FILE                          128
     BM0NAME                           32
     BM0FILE                          128
     BM11NAME                          32
     BM11FILE                         128
     BM12NAME                          32
     BM12FILE                         128
     BM13NAME                          32
     BM13FILE                         128
     BM14NAME                          32
     BM14FILE                         128
     BM15NAME                          32
     BM15FILE                         128
     BM16NAME                          32
     BM16FILE                         128
     BM17NAME                          32
     BM17FILE                         128
     BM18NAME                          32
     BM18FILE                         128
     BM19NAME                          32
     BM19FILE                         128
     BM20NAME                          32
     BM20FILE                         128
     BM21NAME                          32
     BM21FILE                         128
     BM22NAME                          32
     BM22FILE                         128
     BM23NAME                          32
     BM23FILE                         128
     BM24NAME                          32
     BM24FILE                         128
     BM25NAME                          32
     BM25FILE                         128
     BM26NAME                          32
     BM26FILE                         128
     BM27NAME                          32
     BM27FILE                         128
     BM28NAME                          32
     BM28FILE                         128
     BM29NAME                          32
     BM29FILE                         128
     BM30NAME                          32
     BM30FILE                         128
     Start_bookmark                   604
     screen2                           12
     screen3                           12
     tasks                              4
     icon_text                      32768
     task_list                          4
     DoScreen2                         76
     DoScreen3                         60
     minus11                            4
     maincsm_name_body                280
     MAINCSM_ID                         4
     pos                                4
     total_pos                          4
     total_d                            4
     move_skip                          4
     sm                                 4
     forward                            4
     halt                               4
     shutd                              4
     logout                             4
     data4                              4
     data5                              4
     draw_rec                           4
     this_rec                           4
     SaveRebootList                   136
     DrawProgress                     540
     perc                               3
     zin                                4
     init_rec                           4
     task_list3                       392
     close                            132
     main_poX                           4
     main_poY                           4
     naticq_icon                        4
     check_name                       264
     use_unknown                        4
     SearchIcon                       556
     DrawMainTasks                    144
     refresh                            4
     DrawSideProgresbar               148
     test2                              4
     DrawCPU                          112
     OnRedraw                        9616
     onCreate                          12
     onClose                           60
     onFocus                           12
     onUnfocus                         40
     closing                            4
     show_daemons                       4
     redrit                            12
     OnKey                           1908
     ElfKiller                         24
     method8                            8
     method9                            8
     gui_methods                       44
     Canvas                             8
     maincsm_oncreate                 132
     maincsm_onclose                    4
     maincsm_onmessage                 64
     MAINCSM                           60
     UpdateCSMname                     48
     GetUnderIdleCSM                  156
     SHOW_LOCK                          4
     icsmd                             40
     old_icsm_onMessage                 4
     old_icsm_onClose                   4
     under_idle                         4
     mode                               4
     mode_red                           4
     mode_enter                         4
     ShowMenu                         212
     DoClosery                        176
     info                               4
     ShowNaticq                       156
     SwitchNext                       100
     my_keyhook                      1296
     callhide_mode                      4
     reiconize                          4
     ??strcmp_nocase_0                 76
     my_ipc_name                        8
     MyIDLECSM_onMessage              688
     MyIDLECSM_onClose                 56
     load_icon_list                   180
     serti                              4
     get_bookmark                     144
     load_bookmark_list               984
     DoSplices                        332
     main                              96
     ??DataTable0                       4
     ??DataTable1                       4
     ??DataTable2                       4
     ??DataTable3                       4
     ??DataTable4                       4
     ??DataTable5                       4
     ??DataTable10                      4
     ??DataTable13                      4
     ??DataTable14                      4
     ??DataTable15                      4
     ??DataTable16                      4
     ??DataTable17                      4
     ??DataTable18                      4
     ??DataTable19                      4
     ??DataTable20                      4
     ??DataTable21                      4
     ??DataTable22                      4
     ??DataTable23                      4
     ??DataTable24                      4
     ??DataTable25                      4
     ??DataTable26                      4
     ??DataTable27                      4
     ??DataTable28                      4
     ??DataTable29                      4
     ??DataTable30                      4
     ??DataTable31                      4
     ??DataTable32                      4
     ??DataTable33                      4
     ??DataTable34                      4
     ??DataTable35                      4
     ??DataTable36                      4
     ??DataTable37                      4
     ??DataTable38                      4
     ??DataTable39                      4
     ??DataTable40                      4
     ??DataTable41                      4
     ??DataTable42                      4
     ??DataTable43                      4
     ??DataTable44                      4
     ??DataTable46                      4
     ??DataTable47                      4
     ??DataTable53                      4
     ??DataTable54                      4
     ??DataTable55                      4
     ??DataTable57                      4
     ??DataTable59                      4
     ??DataTable60                      4
     ??DataTable61                      4
     ??DataTable62                      4
     ??DataTable63                      4
     ??DataTable64                      4
     ??DataTable65                      4
     ??DataTable66                      4
     ??DataTable67                      4
     ??DataTable68                      4
     ??DataTable71                      4
     ??DataTable72                      4
     ??DataTable73                      4
     ??DataTable74                      4
     ??DataTable75                      4
     ??DataTable76                      4
     ??DataTable77                      4
     ??DataTable78                      4
     ??DataTable79                      4
     ??DataTable80                      4
     ??DataTable81                      4
     ??DataTable82                      4
     ??DataTable83                      4
     ??DataTable84                      4
     ??DataTable85                      4
     ??DataTable86                      4
     ??DataTable87                      4
     ??DataTable99                      4
     ??DataTable100                     4
     ??DataTable102                     4
     ??DataTable105                     4
     ??DataTable106                     4
     ??DataTable108                     4
     ??DataTable109                     4
     ??DataTable115                     4
     ??DataTable117                     4
     ??DataTable118                     4
     ??DataTable130                     4
     ??DataTable131                     4
     ??DataTable138                     4
     ??DataTable139                     4
     ??DataTable142                     4
     ??DataTable144                     4
     ??DataTable145                     4
     ??DataTable146                     4
     ??DataTable147                     4
     ??DataTable148                     4
     ??DataTable149                     4
     ??DataTable150                     4
     ??DataTable151                     4
     ??DataTable156                     4
     ??DataTable157                     4
     ??DataTable158                     4
     ??DataTable162                     4
     ??DataTable166                     4
     ??DataTable168                     4
     ??DataTable169                     4
     ??DataTable172                     4
     ??DataTable174                     4
     ??DataTable175                     4
     ??DataTable176                     4
     ??DataTable177                     4
     ??DataTable179                     4
     ??DataTable180                     4
     ??DataTable181                     4
     ??DataTable182                     4
     ??DataTable183                     4
     ??DataTable184                     4
     ??DataTable185                     4
     ??DataTable186                     4
     ??DataTable187                     4
     ??DataTable188                     4
     ??DataTable189                     4
     ??DataTable190                     4
     ??DataTable191                     4
     ??DataTable192                     4
     ??DataTable193                     4
     ??DataTable194                     4
     ??DataTable195                     4
     ??DataTable196                     4
     ??DataTable197                     4
     ??DataTable198                     4
     ??DataTable199                     4
     ??DataTable200                     4
     ??DataTable201                     4
     ??DataTable202                     4
     ??DataTable203                     4
     ??DataTable204                     4
     ??DataTable205                     4
     ??DataTable206                     4
     ??DataTable207                     4
     ??DataTable208                     4
     ??DataTable209                     4
     ??DataTable210                     4
     ??DataTable211                     4
     ??DataTable212                     4
     ??DataTable213                     4
     ??DataTable214                     4
     ??DataTable215                     4
     ??DataTable216                     4
     ??DataTable217                     4
     ??DataTable218                     4
     ??DataTable219                     4
     ??DataTable220                     4
     ??DataTable221                     4
     ??DataTable222                     4
     ??DataTable223                     4
     ??DataTable224                     4
     ??DataTable225                     4
     ??DataTable226                     4
     ??DataTable227                     4
     ??DataTable228                     4
     ??DataTable229                     4
     ??DataTable230                     4
     ??DataTable231                     4
     ??DataTable232                     4
     ??DataTable233                     4
     ??DataTable234                     4
     ??DataTable235                     4
     ??DataTable236                     4
     ??DataTable237                     4
     ??DataTable238                     4
     ??DataTable239                     4
     ??DataTable240                     4
     ??DataTable241                     4
     ??DataTable242                     4
     ??DataTable243                     4
     ??DataTable244                     4
     ??DataTable245                     4
     ??DataTable247                     4
     ??DataTable248                     4
     ?<Initializer for time_not>        4
     ?<Initializer for screen2>        12
     ?<Initializer for screen3>        12
     ?<Initializer for task_list>       4
     ?<Initializer for pos>             4
     ?<Initializer for total_pos>       4
     ?<Initializer for init_rec>        4
     ?<Constant "%dKb">                 8
     ?<Constant "%d">                   3
     ?<Constant "No Tasks">            12
     ?<Constant "UNKNOWN">              8
     ?<Constant "%s%s.png">            12
     ?<Constant "||">                   3
     ?<Constant "IDLE">                 8
     ?<Constant "navaico">              8
     ?<Constant "%sother\\clocki.png">
                                       20
     ?<Constant "BM:">                  4
     ?<Constant "mc">                   3
     ?<Constant "MC">                   3
     ?<Constant "MC:">                  4
     ?<Constant "SieJC">                8
     ?<Constant "Config:">              8
     ?<Constant "CfgEditor">           12
     ?<Constant "\317\345\360\345\347\340\343\360\3
                                       20
     ?<Constant "\302\373\352\353\376\367\345\355\3
                                       20
     ?<Constant "[OK]">                 8
     ?<Constant "\307\340\352\360\373\362\350\345..
                                       12
     ?<Constant "%t">                   3
     ?<Constant "0:\\system\\data.bin">
                                       20
     ?<Constant "NATICQ2">              8
     ?<Constant "%s|">                  4
     ?<Constant "%ssoft_list.txt">     16
     ?<Constant "%sbookmark_list.txt">
                                       20
     ?<Constant "%sicon_list.txt">     16
     ?<Constant "%sicons_x\\">         12
     ?<Constant "%sicons_m\\">         12
     ?<Constant "%sselection.png">     16
     ?<Constant "%scursor.png">        16
     ?<Constant "%sbookmarks.png">     16
     ?<Constant "%stasks.png">         12
     ?<Constant "%sbackground.png">    20
     ?<Constant "%sother\\batti.png">
                                       20
     ?<Constant "NATICQ">               8
     ?<Constant "%sother\\rami.png">
                                       20
     ?<Constant "%sother\\taski.png">
                                       20
     ?<Constant "%sturnoff\\reboot1.png">
                                       24
     ?<Constant "%sturnoff\\shutdown1.png">
                                       24
     ?<Constant "">                     1
     ?<Constant "wrong display">       16
     ?<Constant "Cant Start Elf!">     16
     ?<Constant "%s">                   3
     ?<Constant "XTask config updated!">
                                       24
     ?<Constant "%08X">                 8
     ?<Constant "xtask 3 mod">         12
     ?<Constant "%02d:%02d:%02d">      16
     ?<Constant "%d%">                  4
      Others                          312

 
 21 452 bytes in segment CODE
    718 bytes in segment DATA_C
     44 bytes in segment DATA_I
     44 bytes in segment DATA_ID
 38 732 bytes in segment DATA_Z
     24 bytes in segment INITTAB
 
 21 164 bytes of CODE  memory (+ 312 bytes shared)
    762 bytes of CONST memory
 38 776 bytes of DATA  memory

Errors: none
Warnings: none
