################################################################################
#                                                                              #
#      IAR Universal Linker V4.60I/386                                         #
#                                                                              #
#           Link time     =  19/Sep/2009  14:16:05                             #
#           Target CPU    =  ARM                                               #
#           List file     =  "C:\arm\n_xtask_final(all platforms)\Release_ELKA #
#                            \List\XTask3.map"                                 #
#           Output file 1 =  "C:\arm\n_xtask_final(all platforms)\Release_ELKA #
#                            \Exe\XTask3.elf"                                  #
#                            Format: elf, variant: -ynpra                      #
#           Command line  =  "C:\arm\n_xtask_final(all platforms)\Release_ELKA #
#                            \Obj\conf_loader.r79"                             #
#                            "C:\arm\n_xtask_final(all platforms)\Release_ELKA #
#                            \Obj\config_data.r79"                             #
#                            "C:\arm\n_xtask_final(all platforms)\Release_ELKA #
#                            \Obj\func.r79"                                    #
#                            "C:\arm\n_xtask_final(all platforms)\Release_ELKA #
#                            \Obj\gui.r79"                                     #
#                            "C:\arm\n_xtask_final(all platforms)\Release_ELKA #
#                            \Obj\main.r79"                                    #
#                            "C:\arm\n_xtask_final(all platforms)\Release_ELKA #
#                            \Obj\reboot_loader.r79"                           #
#                            "C:\arm\n_xtask_final(all platforms)\Release_ELKA #
#                            \Obj\strings2.r79"                                #
#                            "C:\arm\n_xtask_final(all platforms)\Release_ELKA #
#                            \Obj\swaper.r79"                                  #
#                            -o                                                #
#                            "C:\arm\n_xtask_final(all platforms)\Release_ELKA #
#                            \Exe\XTask3.elf"                                  #
#                            -Felf -l                                          #
#                            "C:\arm\n_xtask_final(all platforms)\Release_ELKA #
#                            \List\XTask3.map"                                 #
#                            -xmsnio -f                                        #
#                            "C:\arm\n_xtask_final(all platforms)\test.xcl"    #
#                            (-carm -V(CODE)CODE_AREA,12                       #
#                            -V(DATA)DATA_AREA,12                              #
#                            -Z(CODE_AREA)ELFBEGIN,DATA_ID,START,CODE,DATA_C,I #
#                            NITTAB,DATA_Z,DATA_N,CONFIG_C=0-FFFFFFFF          #
#                            -Z(DATA_AREA)DATA_I=0-FFFFFFFF) -ynpra            #
#                            "C:\arm2\Embedded Workbench 4.0 Evaluation\ARM\LI #
#                            B\dl5tpainl8n.r79"                                #
#                            -s main                                           #
#                                                                              #
#                        Copyright 1987-2007 IAR Systems. All rights reserved. #
################################################################################





                ****************************************
                *                                      *
                *           CROSS REFERENCE            *
                *                                      *
                ****************************************

       Program entry at : CODE_AREA 000057F4  Relocatable, from module : main




                ****************************************
                *                                      *
                *            RUNTIME MODEL             *
                *                                      *
                ****************************************

  StackAlign4  = USED
  StackAlign8  = USED
  __cpu_mode   = __pcs__interwork
  __data_model = absolute
  __endian     = little
  __rt_version = 6



                ****************************************
                *                                      *
                *              MODULE MAP              *
                *                                      *
                ****************************************


  DEFINED ABSOLUTE ENTRIES
    *************************************************************************

  DEFINED ABSOLUTE ENTRIES
    *************************************************************************

  FILE NAME : C:\arm\n_xtask_final(all platforms)\Release_ELKA\Obj\conf_loader.r79
  PROGRAM MODULE, NAME : conf_loader

  SEGMENTS IN THE MODULE
  ======================
DATA_I
  Relative segment, address: DATA_AREA 00000000 - 00000003 (0x4 bytes), align: 2
  Segment part 5.             Intra module refs:   LoadConfigData
           ENTRY                   ADDRESS         REF BY
           =====                   =======         ======
           successed_config_filename
                                   00000000        Segment part 354 (main)
    -------------------------------------------------------------------------
CODE
  Segment part 7. NOT NEEDED.
    -------------------------------------------------------------------------
CODE
  Relative segment, address: CODE_AREA 00000024 - 0000008B (0x68 bytes), align: 2
  Segment part 8.             Intra module refs:   LoadConfigData
           ENTRY                   ADDRESS         REF BY
           =====                   =======         ======
           SaveConfigData          00000024        GetUnderIdleCSM (main)
               stack 1 = 00000000 ( 00000018 )
    -------------------------------------------------------------------------
CODE
  Segment part 9. NOT NEEDED.
    -------------------------------------------------------------------------
CODE
  Relative segment, address: CODE_AREA 0000008C - 0000016B (0xe0 bytes), align: 2
  Segment part 10.            Intra module refs:   InitConfig
           ENTRY                   ADDRESS         REF BY
           =====                   =======         ======
           LoadConfigData          0000008C 
               stack 1 = 00000000 ( 00000028 )
    -------------------------------------------------------------------------
CODE
  Relative segment, address: CODE_AREA 0000016C - 0000016F (0x4 bytes), align: 2
  Segment part 11.            Intra module refs:   LoadConfigData
                                                   SaveConfigData
    -------------------------------------------------------------------------
CODE
  Relative segment, address: CODE_AREA 00000170 - 00000173 (0x4 bytes), align: 2
  Segment part 12.            Intra module refs:   LoadConfigData
                                                   SaveConfigData
    -------------------------------------------------------------------------
CODE
  Segment part 13. NOT NEEDED.
    -------------------------------------------------------------------------
CODE
  Relative segment, address: CODE_AREA 00000174 - 0000019B (0x28 bytes), align: 2
  Segment part 14.
           ENTRY                   ADDRESS         REF BY
           =====                   =======         ======
           InitConfig              00000174        MyIDLECSM_onMessage (main)
                                                   main (main)
               stack 1 = 00000000 ( 00000004 )
    -------------------------------------------------------------------------
CSTACK
  Segment part 1. NOT NEEDED.
    -------------------------------------------------------------------------
DATA_ID
  Relative segment, address: CODE_AREA 00000000 - 00000003 (0x4 bytes), align: 2
  Segment part 6.             Intra module refs:   successed_config_filename
    -------------------------------------------------------------------------
DATA_ID
  Segment part 15. NOT NEEDED.
           ENTRY                   ADDRESS         REF BY
           =====                   =======         ======
           ?*?DATA_ID              
    -------------------------------------------------------------------------
INITTAB
  Relative segment, address: CODE_AREA 000067A4 - 000067AF (0xc bytes), align: 2
  Segment part 16. ROOT.
           ENTRY                   ADDRESS         REF BY
           =====                   =======         ======
           ?init?tab?DATA_I        000067A4 
    -------------------------------------------------------------------------
CONFIG_C
  Segment part 17. NOT NEEDED.
    -------------------------------------------------------------------------
DATA_C
  Relative segment, address: CODE_AREA 00006798 - 00006798 (0x1 bytes), align: 0
  Segment part 2.             Intra module refs:   Segment part 6
    -------------------------------------------------------------------------
DATA_C
  Relative segment, address: CODE_AREA 00006164 - 0000617F (0x1c bytes), align: 2
  Segment part 3.             Intra module refs:   InitConfig
    -------------------------------------------------------------------------
DATA_C
  Relative segment, address: CODE_AREA 00006180 - 0000619B (0x1c bytes), align: 2
  Segment part 4.             Intra module refs:   InitConfig

    *************************************************************************

  FILE NAME : C:\arm\n_xtask_final(all platforms)\Release_ELKA\Obj\config_data.r79
  PROGRAM MODULE, NAME : config_data

  SEGMENTS IN THE MODULE
  ======================
CONFIG_C
  Relative segment, address: CODE_AREA 00018714 - 0001873F (0x2c bytes), align: 2
  Segment part 2. ROOT.
           ENTRY                   ADDRESS         REF BY
           =====                   =======         ======
           cfghdr0                 00018714 
    -------------------------------------------------------------------------
CONFIG_C
  Relative segment, address: CODE_AREA 00018740 - 000187BF (0x80 bytes), align: 2
  Segment part 3. ROOT.
           ENTRY                   ADDRESS         REF BY
           =====                   =======         ======
           csmlist_fname           00018740        DoSplices (main)
    -------------------------------------------------------------------------
CONFIG_C
  Relative segment, address: CODE_AREA 000187C0 - 000187EB (0x2c bytes), align: 2
  Segment part 4. ROOT.
           ENTRY                   ADDRESS         REF BY
           =====                   =======         ======
           cfghdr2y                000187C0 
    -------------------------------------------------------------------------
CONFIG_C
  Relative segment, address: CODE_AREA 000187EC - 00018817 (0x2c bytes), align: 2
  Segment part 5. ROOT.
           ENTRY                   ADDRESS         REF BY
           =====                   =======         ======
           cfghdr23                000187EC 
    -------------------------------------------------------------------------
CONFIG_C
  Relative segment, address: CODE_AREA 00018818 - 0001881B (0x4 bytes), align: 2
  Segment part 6. ROOT.
           ENTRY                   ADDRESS         REF BY
           =====                   =======         ======
           ACTIVE_KEY_STYLE        00018818        my_keyhook (main)
    -------------------------------------------------------------------------
CONFIG_C
  Relative segment, address: CODE_AREA 0001881C - 0001889B (0x80 bytes), align: 2
  Segment part 7. ROOT.
           ENTRY                   ADDRESS         REF BY
           =====                   =======         ======
           cfgcbox23               0001881C 
    -------------------------------------------------------------------------
CONFIG_C
  Relative segment, address: CODE_AREA 0001889C - 000188C7 (0x2c bytes), align: 2
  Segment part 8. ROOT.
           ENTRY                   ADDRESS         REF BY
           =====                   =======         ======
           cfghdr24                0001889C 
    -------------------------------------------------------------------------
CONFIG_C
  Relative segment, address: CODE_AREA 000188C8 - 000188CB (0x4 bytes), align: 2
  Segment part 9. ROOT.
           ENTRY                   ADDRESS         REF BY
           =====                   =======         ======
           ACTIVE_KEY              000188C8        my_keyhook (main)
    -------------------------------------------------------------------------
CONFIG_C
  Relative segment, address: CODE_AREA 000188CC - 000188F7 (0x2c bytes), align: 2
  Segment part 10. ROOT.
           ENTRY                   ADDRESS         REF BY
           =====                   =======         ======
           cfghdr25                000188CC 
    -------------------------------------------------------------------------
CONFIG_C
  Relative segment, address: CODE_AREA 000188F8 - 00018903 (0xc bytes), align: 2
  Segment part 11. ROOT.
           ENTRY                   ADDRESS         REF BY
           =====                   =======         ======
           UNDER_IDLE_CONSTR       000188F8        GetUnderIdleCSM (main)
    -------------------------------------------------------------------------
CONFIG_C
  Relative segment, address: CODE_AREA 00018904 - 0001892F (0x2c bytes), align: 2
  Segment part 12. ROOT.
           ENTRY                   ADDRESS         REF BY
           =====                   =======         ======
           cfghdr2                 00018904 
    -------------------------------------------------------------------------
CONFIG_C
  Relative segment, address: CODE_AREA 00018930 - 00018933 (0x4 bytes), align: 2
  Segment part 13. ROOT.
           ENTRY                   ADDRESS         REF BY
           =====                   =======         ======
           ENA_LONG_PRESS          00018930        my_keyhook (main)
    -------------------------------------------------------------------------
CONFIG_C
  Relative segment, address: CODE_AREA 00018934 - 000189D3 (0xa0 bytes), align: 2
  Segment part 14. ROOT.
           ENTRY                   ADDRESS         REF BY
           =====                   =======         ======
           cfgcbox2                00018934 
    -------------------------------------------------------------------------
CONFIG_C
  Relative segment, address: CODE_AREA 000189D4 - 000189FF (0x2c bytes), align: 2
  Segment part 15. ROOT.
           ENTRY                   ADDRESS         REF BY
           =====                   =======         ======
           cfghdr3                 000189D4 
    -------------------------------------------------------------------------
CONFIG_C
  Relative segment, address: CODE_AREA 00018A00 - 00018A03 (0x4 bytes), align: 2
  Segment part 16. ROOT.
           ENTRY                   ADDRESS         REF BY
           =====                   =======         ======
           RED_BUT_MODE            00018A00        my_keyhook (main)
    -------------------------------------------------------------------------
CONFIG_C
  Relative segment, address: CODE_AREA 00018A04 - 00018AA3 (0xa0 bytes), align: 2
  Segment part 17. ROOT.
           ENTRY                   ADDRESS         REF BY
           =====                   =======         ======
           cfgcbox3                00018A04 
    -------------------------------------------------------------------------
CONFIG_C
  Relative segment, address: CODE_AREA 00018AA4 - 00018ACF (0x2c bytes), align: 2
  Segment part 18. ROOT.
           ENTRY                   ADDRESS         REF BY
           =====                   =======         ======
           cfghdr3q                00018AA4 
    -------------------------------------------------------------------------
CONFIG_C
  Relative segment, address: CODE_AREA 00018AD0 - 00018AD3 (0x4 bytes), align: 2
  Segment part 19. ROOT.
           ENTRY                   ADDRESS         REF BY
           =====                   =======         ======
           LONG_RED_BUT_MODE       00018AD0        my_keyhook (main)
    -------------------------------------------------------------------------
CONFIG_C
  Relative segment, address: CODE_AREA 00018AD4 - 00018B13 (0x40 bytes), align: 2
  Segment part 20. ROOT.
           ENTRY                   ADDRESS         REF BY
           =====                   =======         ======
           cfgcbox3q               00018AD4 
    -------------------------------------------------------------------------
CONFIG_C
  Relative segment, address: CODE_AREA 00018B14 - 00018B3F (0x2c bytes), align: 2
  Segment part 21. ROOT.
           ENTRY                   ADDRESS         REF BY
           =====                   =======         ======
           cfghdr22                00018B14 
    -------------------------------------------------------------------------
CONFIG_C
  Relative segment, address: CODE_AREA 00018B40 - 00018B43 (0x4 bytes), align: 2
  Segment part 22. ROOT.
           ENTRY                   ADDRESS         REF BY
           =====                   =======         ======
           ENA_LOCK                00018B40        my_keyhook (main)
    -------------------------------------------------------------------------
CONFIG_C
  Relative segment, address: CODE_AREA 00018B44 - 00018B83 (0x40 bytes), align: 2
  Segment part 23. ROOT.
           ENTRY                   ADDRESS         REF BY
           =====                   =======         ======
           cfgcbox22               00018B44 
    -------------------------------------------------------------------------
CONFIG_C
  Relative segment, address: CODE_AREA 00018B84 - 00018BAF (0x2c bytes), align: 2
  Segment part 24. ROOT.
           ENTRY                   ADDRESS         REF BY
           =====                   =======         ======
           cfghdr49                00018B84 
    -------------------------------------------------------------------------
CONFIG_C
  Relative segment, address: CODE_AREA 00018BB0 - 00018BB3 (0x4 bytes), align: 2
  Segment part 25. ROOT.
           ENTRY                   ADDRESS         REF BY
           =====                   =======         ======
           cleseri                 00018BB0        OnKey (main)
    -------------------------------------------------------------------------
CONFIG_C
  Relative segment, address: CODE_AREA 00018BB4 - 00018BF3 (0x40 bytes), align: 2
  Segment part 26. ROOT.
           ENTRY                   ADDRESS         REF BY
           =====                   =======         ======
           cfgcbox29               00018BB4 
    -------------------------------------------------------------------------
CONFIG_C
  Relative segment, address: CODE_AREA 00018BF4 - 00018C1F (0x2c bytes), align: 2
  Segment part 27. ROOT.
           ENTRY                   ADDRESS         REF BY
           =====                   =======         ======
           cfghdr49a               00018BF4 
    -------------------------------------------------------------------------
CONFIG_C
  Relative segment, address: CODE_AREA 00018C20 - 00018C23 (0x4 bytes), align: 2
  Segment part 28. ROOT.
           ENTRY                   ADDRESS         REF BY
           =====                   =======         ======
           use_idle                00018C20        my_keyhook (main)
    -------------------------------------------------------------------------
CONFIG_C
  Relative segment, address: CODE_AREA 00018C24 - 00018C63 (0x40 bytes), align: 2
  Segment part 29. ROOT.
           ENTRY                   ADDRESS         REF BY
           =====                   =======         ======
           cfgcbox29a              00018C24 
    -------------------------------------------------------------------------
CONFIG_C
  Relative segment, address: CODE_AREA 00018C64 - 00018C8F (0x2c bytes), align: 2
  Segment part 30. ROOT.
           ENTRY                   ADDRESS         REF BY
           =====                   =======         ======
           cfghdr49aa              00018C64 
    -------------------------------------------------------------------------
CONFIG_C
  Relative segment, address: CODE_AREA 00018C90 - 00018C93 (0x4 bytes), align: 2
  Segment part 31. ROOT.
           ENTRY                   ADDRESS         REF BY
           =====                   =======         ======
           use_green               00018C90        OnKey (main)
    -------------------------------------------------------------------------
CONFIG_C
  Relative segment, address: CODE_AREA 00018C94 - 00018CD3 (0x40 bytes), align: 2
  Segment part 32. ROOT.
           ENTRY                   ADDRESS         REF BY
           =====                   =======         ======
           cfgcbox29ae             00018C94 
    -------------------------------------------------------------------------
CONFIG_C
  Relative segment, address: CODE_AREA 00018CD4 - 00018CFF (0x2c bytes), align: 2
  Segment part 33. ROOT.
           ENTRY                   ADDRESS         REF BY
           =====                   =======         ======
           cfghdr244               00018CD4 
    -------------------------------------------------------------------------
CONFIG_C
  Relative segment, address: CODE_AREA 00018D00 - 00018D03 (0x4 bytes), align: 2
  Segment part 34. ROOT.
           ENTRY                   ADDRESS         REF BY
           =====                   =======         ======
           use_natioq              00018D00        my_keyhook (main)
    -------------------------------------------------------------------------
CONFIG_C
  Relative segment, address: CODE_AREA 00018D04 - 00018D43 (0x40 bytes), align: 2
  Segment part 35. ROOT.
           ENTRY                   ADDRESS         REF BY
           =====                   =======         ======
           cfgcbox26a              00018D04 
    -------------------------------------------------------------------------
CONFIG_C
  Relative segment, address: CODE_AREA 00018D44 - 00018D6F (0x2c bytes), align: 2
  Segment part 36. ROOT.
           ENTRY                   ADDRESS         REF BY
           =====                   =======         ======
           cfghdrw1y               00018D44 
    -------------------------------------------------------------------------
CONFIG_C
  Relative segment, address: CODE_AREA 00018D70 - 00018D9B (0x2c bytes), align: 2
  Segment part 37. ROOT.
           ENTRY                   ADDRESS         REF BY
           =====                   =======         ======
           cfghdr3a                00018D70 
    -------------------------------------------------------------------------
CONFIG_C
  Relative segment, address: CODE_AREA 00018D9C - 00018E1B (0x80 bytes), align: 2
  Segment part 38. ROOT.
           ENTRY                   ADDRESS         REF BY
           =====                   =======         ======
           exept_list              00018D9C        DoClosery (main)
    -------------------------------------------------------------------------
CONFIG_C
  Relative segment, address: CODE_AREA 00018E1C - 00018E47 (0x2c bytes), align: 2
  Segment part 39. ROOT.
           ENTRY                   ADDRESS         REF BY
           =====                   =======         ======
           cfghdr27                00018E1C 
    -------------------------------------------------------------------------
CONFIG_C
  Relative segment, address: CODE_AREA 00018E48 - 00018E4B (0x4 bytes), align: 2
  Segment part 40. ROOT.
           ENTRY                   ADDRESS         REF BY
           =====                   =======         ======
           SHOW_DAEMONS            00018E48        DoSplices (main)
    -------------------------------------------------------------------------
CONFIG_C
  Relative segment, address: CODE_AREA 00018E4C - 00018E8B (0x40 bytes), align: 2
  Segment part 41. ROOT.
           ENTRY                   ADDRESS         REF BY
           =====                   =======         ======
           cfgcbox27               00018E4C 
    -------------------------------------------------------------------------
CONFIG_C
  Relative segment, address: CODE_AREA 00018E8C - 00018EB7 (0x2c bytes), align: 2
  Segment part 42. ROOT.
           ENTRY                   ADDRESS         REF BY
           =====                   =======         ======
           cfghdr26                00018E8C 
    -------------------------------------------------------------------------
CONFIG_C
  Relative segment, address: CODE_AREA 00018EB8 - 00018EBB (0x4 bytes), align: 2
  Segment part 43. ROOT.
           ENTRY                   ADDRESS         REF BY
           =====                   =======         ======
           SHOW_IDLESCREEN         00018EB8        GetNumberOfDialogs (gui)
    -------------------------------------------------------------------------
CONFIG_C
  Relative segment, address: CODE_AREA 00018EBC - 00018EFB (0x40 bytes), align: 2
  Segment part 44. ROOT.
           ENTRY                   ADDRESS         REF BY
           =====                   =======         ======
           cfgcbox26               00018EBC 
    -------------------------------------------------------------------------
CONFIG_C
  Relative segment, address: CODE_AREA 00018EFC - 00018F27 (0x2c bytes), align: 2
  Segment part 45. ROOT.
           ENTRY                   ADDRESS         REF BY
           =====                   =======         ======
           cfghdr28                00018EFC 
    -------------------------------------------------------------------------
CONFIG_C
  Relative segment, address: CODE_AREA 00018F28 - 00018FA7 (0x80 bytes), align: 2
  Segment part 46. ROOT.
           ENTRY                   ADDRESS         REF BY
           =====                   =======         ======
           path_file               00018F28        init_paths (main)
    -------------------------------------------------------------------------
CONFIG_C
  Relative segment, address: CODE_AREA 00018FA8 - 00018FD3 (0x2c bytes), align: 2
  Segment part 47. ROOT.
           ENTRY                   ADDRESS         REF BY
           =====                   =======         ======
           cfghdrw                 00018FA8 
    -------------------------------------------------------------------------
CONFIG_C
  Relative segment, address: CODE_AREA 00018FD4 - 00018FFF (0x2c bytes), align: 2
  Segment part 48. ROOT.
           ENTRY                   ADDRESS         REF BY
           =====                   =======         ======
           cfghdr26l               00018FD4 
    -------------------------------------------------------------------------
CONFIG_C
  Relative segment, address: CODE_AREA 00019000 - 00019003 (0x4 bytes), align: 2
  Segment part 49. ROOT.
           ENTRY                   ADDRESS         REF BY
           =====                   =======         ======
           use_trans               00019000        init_paths (main)
    -------------------------------------------------------------------------
CONFIG_C
  Relative segment, address: CODE_AREA 00019004 - 00019043 (0x40 bytes), align: 2
  Segment part 50. ROOT.
           ENTRY                   ADDRESS         REF BY
           =====                   =======         ======
           cfgcbox26l              00019004 
    -------------------------------------------------------------------------
CONFIG_C
  Relative segment, address: CODE_AREA 00019044 - 0001906F (0x2c bytes), align: 2
  Segment part 51. ROOT.
           ENTRY                   ADDRESS         REF BY
           =====                   =======         ======
           cfghdr56                00019044 
    -------------------------------------------------------------------------
CONFIG_C
  Relative segment, address: CODE_AREA 00019070 - 00019073 (0x4 bytes), align: 2
  Segment part 52. ROOT.
           ENTRY                   ADDRESS         REF BY
           =====                   =======         ======
           ctasks                  00019070        OnRedraw (main)
                                                   Segment part 237 (main)
    -------------------------------------------------------------------------
CONFIG_C
  Relative segment, address: CODE_AREA 00019074 - 0001909F (0x2c bytes), align: 2
  Segment part 53. ROOT.
           ENTRY                   ADDRESS         REF BY
           =====                   =======         ======
           cfghdr56g               00019074 
    -------------------------------------------------------------------------
CONFIG_C
  Relative segment, address: CODE_AREA 000190A0 - 000190A3 (0x4 bytes), align: 2
  Segment part 54. ROOT.
           ENTRY                   ADDRESS         REF BY
           =====                   =======         ======
           ctasksi                 000190A0        OnRedraw (main)
    -------------------------------------------------------------------------
CONFIG_C
  Relative segment, address: CODE_AREA 000190A4 - 000190CF (0x2c bytes), align: 2
  Segment part 55. ROOT.
           ENTRY                   ADDRESS         REF BY
           =====                   =======         ======
           cfghdr57                000190A4 
    -------------------------------------------------------------------------
CONFIG_C
  Relative segment, address: CODE_AREA 000190D0 - 000190D3 (0x4 bytes), align: 2
  Segment part 56. ROOT.
           ENTRY                   ADDRESS         REF BY
           =====                   =======         ======
           cdaemons                000190D0        OnRedraw (main)
    -------------------------------------------------------------------------
CONFIG_C
  Relative segment, address: CODE_AREA 000190D4 - 000190FF (0x2c bytes), align: 2
  Segment part 57. ROOT.
           ENTRY                   ADDRESS         REF BY
           =====                   =======         ======
           cfghdr58                000190D4 
    -------------------------------------------------------------------------
CONFIG_C
  Relative segment, address: CODE_AREA 00019100 - 00019103 (0x4 bytes), align: 2
  Segment part 58. ROOT.
           ENTRY                   ADDRESS         REF BY
           =====                   =======         ======
           cinfo                   00019100        OnRedraw (main)
                                                   Segment part 272 (main)
                                                   Segment part 290 (main)
    -------------------------------------------------------------------------
CONFIG_C
  Relative segment, address: CODE_AREA 00019104 - 0001912F (0x2c bytes), align: 2
  Segment part 59. ROOT.
           ENTRY                   ADDRESS         REF BY
           =====                   =======         ======
           cfghdr58q               00019104 
    -------------------------------------------------------------------------
CONFIG_C
  Relative segment, address: CODE_AREA 00019130 - 00019133 (0x4 bytes), align: 2
  Segment part 60. ROOT.
           ENTRY                   ADDRESS         REF BY
           =====                   =======         ======
           Side1                   00019130        DrawSideProgresbar (main)
    -------------------------------------------------------------------------
CONFIG_C
  Relative segment, address: CODE_AREA 00019134 - 0001915F (0x2c bytes), align: 2
  Segment part 61. ROOT.
           ENTRY                   ADDRESS         REF BY
           =====                   =======         ======
           cfghdr58w               00019134 
    -------------------------------------------------------------------------
CONFIG_C
  Relative segment, address: CODE_AREA 00019160 - 00019163 (0x4 bytes), align: 2
  Segment part 62. ROOT.
           ENTRY                   ADDRESS         REF BY
           =====                   =======         ======
           Side2                   00019160        DrawSideProgresbar (main)
    -------------------------------------------------------------------------
CONFIG_C
  Relative segment, address: CODE_AREA 00019164 - 0001918F (0x2c bytes), align: 2
  Segment part 63. ROOT.
           ENTRY                   ADDRESS         REF BY
           =====                   =======         ======
           cfghdr58e               00019164 
    -------------------------------------------------------------------------
CONFIG_C
  Relative segment, address: CODE_AREA 00019190 - 00019193 (0x4 bytes), align: 2
  Segment part 64. ROOT.
           ENTRY                   ADDRESS         REF BY
           =====                   =======         ======
           rebc                    00019190        DrawProgress (main)
    -------------------------------------------------------------------------
CONFIG_C
  Relative segment, address: CODE_AREA 00019194 - 000191BF (0x2c bytes), align: 2
  Segment part 65. ROOT.
           ENTRY                   ADDRESS         REF BY
           =====                   =======         ======
           cfghdrw1                00019194 
    -------------------------------------------------------------------------
CONFIG_C
  Relative segment, address: CODE_AREA 000191C0 - 000191EB (0x2c bytes), align: 2
  Segment part 66. ROOT.
           ENTRY                   ADDRESS         REF BY
           =====                   =======         ======
           cfghdrwz                000191C0 
    -------------------------------------------------------------------------
CONFIG_C
  Relative segment, address: CODE_AREA 000191EC - 00019217 (0x2c bytes), align: 2
  Segment part 67. ROOT.
           ENTRY                   ADDRESS         REF BY
           =====                   =======         ======
           cfghdr59                000191EC 
    -------------------------------------------------------------------------
CONFIG_C
  Relative segment, address: CODE_AREA 00019218 - 0001921B (0x4 bytes), align: 2
  Segment part 68. ROOT.
           ENTRY                   ADDRESS         REF BY
           =====                   =======         ======
           IDLETASKS               00019218        MyIDLECSM_onMessage (main)
    -------------------------------------------------------------------------
CONFIG_C
  Relative segment, address: CODE_AREA 0001921C - 0001925B (0x40 bytes), align: 2
  Segment part 69. ROOT.
           ENTRY                   ADDRESS         REF BY
           =====                   =======         ======
           cfgcbox8a               0001921C 
    -------------------------------------------------------------------------
CONFIG_C
  Relative segment, address: CODE_AREA 0001925C - 00019287 (0x2c bytes), align: 2
  Segment part 70. ROOT.
           ENTRY                   ADDRESS         REF BY
           =====                   =======         ======
           cfghdr3q1               0001925C 
    -------------------------------------------------------------------------
CONFIG_C
  Relative segment, address: CODE_AREA 00019288 - 0001928B (0x4 bytes), align: 2
  Segment part 71. ROOT.
           ENTRY                   ADDRESS         REF BY
           =====                   =======         ======
           horizontality           00019288        SearchIcon (main)
    -------------------------------------------------------------------------
CONFIG_C
  Relative segment, address: CODE_AREA 0001928C - 000192CB (0x40 bytes), align: 2
  Segment part 72. ROOT.
           ENTRY                   ADDRESS         REF BY
           =====                   =======         ======
           cfgcbox3q1              0001928C 
    -------------------------------------------------------------------------
CONFIG_C
  Relative segment, address: CODE_AREA 000192CC - 000192F7 (0x2c bytes), align: 2
  Segment part 73. ROOT.
           ENTRY                   ADDRESS         REF BY
           =====                   =======         ======
           cfghdr60                000192CC 
    -------------------------------------------------------------------------
CONFIG_C
  Relative segment, address: CODE_AREA 000192F8 - 000192FB (0x4 bytes), align: 2
  Segment part 74. ROOT.
           ENTRY                   ADDRESS         REF BY
           =====                   =======         ======
           IDLET_X                 000192F8        DrawMainTasks (main)
    -------------------------------------------------------------------------
CONFIG_C
  Relative segment, address: CODE_AREA 000192FC - 000192FF (0x4 bytes), align: 2
  Segment part 75. ROOT.
           ENTRY                   ADDRESS         REF BY
           =====                   =======         ======
           IDLET_Y                 000192FC        DrawMainTasks (main)
    -------------------------------------------------------------------------
CONFIG_C
  Relative segment, address: CODE_AREA 00019300 - 0001932B (0x2c bytes), align: 2
  Segment part 76. ROOT.
           ENTRY                   ADDRESS         REF BY
           =====                   =======         ======
           cfghdrw1x               00019300 
    -------------------------------------------------------------------------
CSTACK
  Segment part 1. NOT NEEDED.

    *************************************************************************

  FILE NAME : C:\arm\n_xtask_final(all platforms)\Release_ELKA\Obj\func.r79
  PROGRAM MODULE, NAME : func

  SEGMENTS IN THE MODULE
  ======================
ELFBEGIN
  Relative segment, address: CODE_AREA 00000000, align: 0
  Segment part 0. ROOT.
           ENTRY                   ADDRESS         REF BY
           =====                   =======         ======
           ELF_BEGIN               00000000        Segment part 359 (main)
    -------------------------------------------------------------------------
CODE
  Relative segment, address: CODE_AREA 0000019C - 000001A3 (0x8 bytes), align: 2
  Segment part 1. ROOT.
           ENTRY                   ADDRESS         REF BY
           =====                   =======         ======
           kill_data               0000019C        ElfKiller (main)
                                                   gui_methods (main)
           seqkill                 000001A0        MyIDLECSM_onClose (main)

    *************************************************************************

  FILE NAME : C:\arm\n_xtask_final(all platforms)\Release_ELKA\Obj\gui.r79
  PROGRAM MODULE, NAME : gui

  SEGMENTS IN THE MODULE
  ======================
DATA_Z
  Relative segment, address: CODE_AREA 000067BC - 000067BF (0x4 bytes), align: 2
  Segment part 13.            Intra module refs:   Segment part 33
           ENTRY                   ADDRESS         REF BY
           =====                   =======         ======
           nltop                   000067BC        OnRedraw (main)
                                                   Segment part 267 (main)
                                                   Segment part 346 (main)
    -------------------------------------------------------------------------
DATA_Z
  Relative segment, address: CODE_AREA 000067C0 - 000067C3 (0x4 bytes), align: 2
  Segment part 14.            Intra module refs:   GetNumberOfDialogs
           ENTRY                   ADDRESS         REF BY
           =====                   =======         ======
           number_reald            000067C0 
    -------------------------------------------------------------------------
DATA_Z
  Relative segment, address: CODE_AREA 000067C4 - 000067C7 (0x4 bytes), align: 2
  Segment part 15.            Intra module refs:   GetNumberOfDialogs
           ENTRY                   ADDRESS         REF BY
           =====                   =======         ======
           number_nsd              000067C4 
    -------------------------------------------------------------------------
DATA_C
  Relative segment, address: CODE_AREA 0000619C - 000061A3 (0x8 bytes), align: 2
  Segment part 2.             Intra module refs:   find_name
    -------------------------------------------------------------------------
DATA_C
  Relative segment, address: CODE_AREA 000061A4 - 000061B3 (0x10 bytes), align: 2
  Segment part 3.             Intra module refs:   find_name
    -------------------------------------------------------------------------
DATA_C
  Relative segment, address: CODE_AREA 000061B4 - 000061BF (0xc bytes), align: 2
  Segment part 4.             Intra module refs:   GetNumberOfDialogs
    -------------------------------------------------------------------------
DATA_C
  Relative segment, address: CODE_AREA 000061C0 - 000061C7 (0x8 bytes), align: 2
  Segment part 5.             Intra module refs:   GetNumberOfDialogs
    -------------------------------------------------------------------------
DATA_C
  Relative segment, address: CODE_AREA 000061C8 - 000061CF (0x8 bytes), align: 2
  Segment part 6.             Intra module refs:   GetNumberOfDialogs
    -------------------------------------------------------------------------
DATA_C
  Relative segment, address: CODE_AREA 000061D0 - 000061DB (0xc bytes), align: 2
  Segment part 7.             Intra module refs:   GetNumberOfDialogs
    -------------------------------------------------------------------------
DATA_C
  Relative segment, address: CODE_AREA 000061DC - 000061E7 (0xc bytes), align: 2
  Segment part 8.             Intra module refs:   GetNumberOfDialogs
    -------------------------------------------------------------------------
DATA_C
  Relative segment, address: CODE_AREA 000061E8 - 000061FB (0x14 bytes), align: 2
  Segment part 9.             Intra module refs:   GetNumberOfDialogs
    -------------------------------------------------------------------------
DATA_C
  Relative segment, address: CODE_AREA 000061FC - 00006213 (0x18 bytes), align: 2
  Segment part 10.            Intra module refs:   GetNumberOfDialogs
    -------------------------------------------------------------------------
DATA_C
  Relative segment, address: CODE_AREA 00006214 - 0000621B (0x8 bytes), align: 2
  Segment part 11.            Intra module refs:   GetNumberOfDialogs
    -------------------------------------------------------------------------
DATA_C
  Relative segment, address: CODE_AREA 0000621C - 00006223 (0x8 bytes), align: 2
  Segment part 12.            Intra module refs:   GetNumberOfDialogs
    -------------------------------------------------------------------------
DATA_C
  Relative segment, address: CODE_AREA 00006224 - 0000624B (0x28 bytes), align: 2
  Segment part 16.            Intra module refs:   GetNumberOfDialogs
           ENTRY                   ADDRESS         REF BY
           =====                   =======         ======
           maincsm                 00006224 
    -------------------------------------------------------------------------
DATA_Z
  Segment part 17. NOT NEEDED.
           ENTRY                   ADDRESS         REF BY
           =====                   =======         ======
           my_csm_id               
    -------------------------------------------------------------------------
CODE
  Segment part 21. NOT NEEDED.
    -------------------------------------------------------------------------
CODE
  Relative segment, address: CODE_AREA 000001A4 - 000001FB (0x58 bytes), align: 2
  Segment part 22.            Intra module refs:   GetNumberOfDialogs
           ENTRY                   ADDRESS         REF BY
           =====                   =======         ======
           strncmp_nocase          000001A4 
               stack 1 = 00000000 ( 00000004 )
    -------------------------------------------------------------------------
CODE
  Segment part 23. NOT NEEDED.
    -------------------------------------------------------------------------
DATA_Z
  Relative segment, address: CODE_AREA 000067C8 - 0000E7C7 (0x8000 bytes), align: 2
  Segment part 18.            Intra module refs:   find_name
           ENTRY                   ADDRESS         REF BY
           =====                   =======         ======
           csm_text                000067C8        DoSplices (main)
    -------------------------------------------------------------------------
DATA_C
  Relative segment, address: CODE_AREA 00006799 - 0000679B (0x3 bytes), align: 0
  Segment part 19.            Intra module refs:   GetNumberOfDialogs
           ENTRY                   ADDRESS         REF BY
           =====                   =======         ======
           percent_t               00006799 
    -------------------------------------------------------------------------
CODE
  Relative segment, address: CODE_AREA 000001FC - 0000024F (0x54 bytes), align: 2
  Segment part 24.            Intra module refs:   GetNumberOfDialogs
           ENTRY                   ADDRESS         REF BY
           =====                   =======         ======
           ClearNL                 000001FC        onClose (main)
               stack 1 = 00000000 ( 0000000C )
    -------------------------------------------------------------------------
CODE
  Segment part 25. NOT NEEDED.
    -------------------------------------------------------------------------
CODE
  Relative segment, address: CODE_AREA 00000250 - 0000029B (0x4c bytes), align: 2
  Segment part 26.            Intra module refs:   GetNumberOfDialogs
           ENTRY                   ADDRESS         REF BY
           =====                   =======         ======
           AddNL                   00000250 
               stack 1 = 00000000 ( 00000010 )
    -------------------------------------------------------------------------
CODE
  Segment part 27. NOT NEEDED.
    -------------------------------------------------------------------------
CODE
  Relative segment, address: CODE_AREA 0000029C - 000002FF (0x64 bytes), align: 2
  Segment part 28.            Intra module refs:   GetNumberOfDialogs
           ENTRY                   ADDRESS         REF BY
           =====                   =======         ======
           find_name               0000029C 
               stack 1 = 00000000 ( 00000034 )
    -------------------------------------------------------------------------
CODE
  Segment part 29. NOT NEEDED.
    -------------------------------------------------------------------------
DATA_Z
  Relative segment, address: CODE_AREA 0000E7C8 - 0000E7EF (0x28 bytes), align: 2
  Segment part 20.            Intra module refs:   find_name
    -------------------------------------------------------------------------
CODE
  Relative segment, address: CODE_AREA 00000300 - 00000617 (0x318 bytes), align: 2
  Segment part 30.
           ENTRY                   ADDRESS         REF BY
           =====                   =======         ======
           GetNumberOfDialogs      00000300        DoClosery (main)
                                                   DrawMainTasks (main)
                                                   OnRedraw (main)
                                                   ShowMenu (main)
                                                   ShowNaticq (main)
                                                   SwitchNext (main)
                                                   task_list3 (main)
               stack 1 = 00000000 ( 00000068 )
    -------------------------------------------------------------------------
CODE
  Segment part 31. NOT NEEDED.
    -------------------------------------------------------------------------
CODE
  Segment part 32. NOT NEEDED.
           ENTRY                   ADDRESS         REF BY
           =====                   =======         ======
           get_nlitem              
               not allocated function
    -------------------------------------------------------------------------
CODE
  Relative segment, address: CODE_AREA 00000618 - 0000061B (0x4 bytes), align: 2
  Segment part 33.            Intra module refs:   AddNL
                                                   ClearNL
                                                   GetNumberOfDialogs
    -------------------------------------------------------------------------
CSTACK
  Segment part 1. NOT NEEDED.
    -------------------------------------------------------------------------
INITTAB
  Relative segment, address: CODE_AREA 000067B0 - 000067BB (0xc bytes), align: 2
  Segment part 34. ROOT.
           ENTRY                   ADDRESS         REF BY
           =====                   =======         ======
           ?init?tab?DATA_Z        000067B0 

    *************************************************************************

  FILE NAME : C:\arm\n_xtask_final(all platforms)\Release_ELKA\Obj\main.r79
  PROGRAM MODULE, NAME : main

  SEGMENTS IN THE MODULE
  ======================
DATA_Z
  Relative segment, address: CODE_AREA 0000E7F0 - 0000E7F3 (0x4 bytes), align: 2
  Segment part 51.            Intra module refs:   task_list3
           ENTRY                   ADDRESS         REF BY
           =====                   =======         ======
           a                       0000E7F0 
    -------------------------------------------------------------------------
DATA_Z
  Relative segment, address: CODE_AREA 0000E7F4 - 0000E7F7 (0x4 bytes), align: 2
  Segment part 52.            Intra module refs:   OnRedraw
                                                   Segment part 305
                                                   Segment part 368
           ENTRY                   ADDRESS         REF BY
           =====                   =======         ======
           book_show               0000E7F4 
    -------------------------------------------------------------------------
DATA_I
  Relative segment, address: DATA_AREA 00000004 - 00000007 (0x4 bytes), align: 2
  Segment part 53.            Intra module refs:   OnRedraw
                                                   Segment part 306
           ENTRY                   ADDRESS         REF BY
           =====                   =======         ======
           time_not                00000004 
    -------------------------------------------------------------------------
DATA_Z
  Relative segment, address: CODE_AREA 0000E7F8 - 0000E807 (0x10 bytes), align: 2
  Segment part 55.            Intra module refs:   Segment part 250
                                                   Segment part 308
                                                   Segment part 442
           ENTRY                   ADDRESS         REF BY
           =====                   =======         ======
           start_tmr               0000E7F8 
    -------------------------------------------------------------------------
DATA_Z
  Relative segment, address: CODE_AREA 0000E808 - 0000E80B (0x4 bytes), align: 2
  Segment part 56.            Intra module refs:   Segment part 336
           ENTRY                   ADDRESS         REF BY
           =====                   =======         ======
           lock_other              0000E808 
    -------------------------------------------------------------------------
DATA_Z
  Relative segment, address: CODE_AREA 0000E80C - 0000E80F (0x4 bytes), align: 2
  Segment part 57.            Intra module refs:   Segment part 190
                                                   Segment part 286
           ENTRY                   ADDRESS         REF BY
           =====                   =======         ======
           reboot1                 0000E80C 
    -------------------------------------------------------------------------
DATA_Z
  Relative segment, address: CODE_AREA 0000E810 - 0000E813 (0x4 bytes), align: 2
  Segment part 58.            Intra module refs:   Segment part 189
                                                   Segment part 285
           ENTRY                   ADDRESS         REF BY
           =====                   =======         ======
           shutdown1               0000E810 
    -------------------------------------------------------------------------
DATA_Z
  Relative segment, address: CODE_AREA 0000E814 - 0000E817 (0x4 bytes), align: 2
  Segment part 59.            Intra module refs:   OnRedraw
                                                   Segment part 191
                                                   Segment part 287
           ENTRY                   ADDRESS         REF BY
           =====                   =======         ======
           task_img                0000E814 
    -------------------------------------------------------------------------
DATA_Z
  Relative segment, address: CODE_AREA 0000E818 - 0000E81B (0x4 bytes), align: 2
  Segment part 60.            Intra module refs:   OnRedraw
                                                   Segment part 192
                                                   Segment part 288
           ENTRY                   ADDRESS         REF BY
           =====                   =======         ======
           ram_img                 0000E818 
    -------------------------------------------------------------------------
DATA_Z
  Relative segment, address: CODE_AREA 0000E81C - 0000E81F (0x4 bytes), align: 2
  Segment part 61.            Intra module refs:   OnRedraw
                                                   Segment part 193
                                                   Segment part 291
           ENTRY                   ADDRESS         REF BY
           =====                   =======         ======
           clock_img               0000E81C 
    -------------------------------------------------------------------------
DATA_Z
  Relative segment, address: CODE_AREA 0000E820 - 0000E823 (0x4 bytes), align: 2
  Segment part 62.            Intra module refs:   OnRedraw
                                                   Segment part 194
                                                   Segment part 289
           ENTRY                   ADDRESS         REF BY
           =====                   =======         ======
           batt_img                0000E820 
    -------------------------------------------------------------------------
DATA_Z
  Relative segment, address: CODE_AREA 0000E824 - 0000E827 (0x4 bytes), align: 2
  Segment part 63.            Intra module refs:   OnRedraw
                                                   Segment part 247
           ENTRY                   ADDRESS         REF BY
           =====                   =======         ======
           background_img          0000E824 
    -------------------------------------------------------------------------
DATA_Z
  Relative segment, address: CODE_AREA 0000E828 - 0000E82B (0x4 bytes), align: 2
  Segment part 64.            Intra module refs:   OnRedraw
                                                   Segment part 240
           ENTRY                   ADDRESS         REF BY
           =====                   =======         ======
           tasks_img               0000E828 
    -------------------------------------------------------------------------
DATA_Z
  Relative segment, address: CODE_AREA 0000E82C - 0000E82F (0x4 bytes), align: 2
  Segment part 65.            Intra module refs:   OnRedraw
                                                   Segment part 241
           ENTRY                   ADDRESS         REF BY
           =====                   =======         ======
           bookmarks_img           0000E82C 
    -------------------------------------------------------------------------
DATA_Z
  Relative segment, address: CODE_AREA 0000E830 - 0000E833 (0x4 bytes), align: 2
  Segment part 66.            Intra module refs:   OnRedraw
                                                   Segment part 248
           ENTRY                   ADDRESS         REF BY
           =====                   =======         ======
           cursor_img              0000E830 
    -------------------------------------------------------------------------
DATA_Z
  Relative segment, address: CODE_AREA 0000E834 - 0000E837 (0x4 bytes), align: 2
  Segment part 67.            Intra module refs:   OnRedraw
                                                   Segment part 195
           ENTRY                   ADDRESS         REF BY
           =====                   =======         ======
           selection_img           0000E834 
    -------------------------------------------------------------------------
DATA_Z
  Relative segment, address: CODE_AREA 0000E838 - 0000E8B7 (0x80 bytes), align: 2
  Segment part 68.            Intra module refs:   init_paths
           ENTRY                   ADDRESS         REF BY
           =====                   =======         ======
           soft_list_path          0000E838        preload_soft_list (reboot_loader)
    -------------------------------------------------------------------------
DATA_Z
  Relative segment, address: CODE_AREA 0000E8B8 - 0000E937 (0x80 bytes), align: 2
  Segment part 69.            Intra module refs:   Segment part 197
                                                   Segment part 371
           ENTRY                   ADDRESS         REF BY
           =====                   =======         ======
           bokmark_list_path       0000E8B8 
    -------------------------------------------------------------------------
DATA_Z
  Relative segment, address: CODE_AREA 0000E938 - 0000E9B7 (0x80 bytes), align: 2
  Segment part 70.            Intra module refs:   Segment part 196
                                                   Segment part 362
           ENTRY                   ADDRESS         REF BY
           =====                   =======         ======
           icon_list_path          0000E938 
    -------------------------------------------------------------------------
DATA_Z
  Relative segment, address: CODE_AREA 0000E9B8 - 0000EA37 (0x80 bytes), align: 2
  Segment part 71.            Intra module refs:   Segment part 259
           ENTRY                   ADDRESS         REF BY
           =====                   =======         ======
           icon_list_ms            0000E9B8 
    -------------------------------------------------------------------------
DATA_Z
  Relative segment, address: CODE_AREA 0000EA38 - 0000EAB7 (0x80 bytes), align: 2
  Segment part 72.            Intra module refs:   Segment part 260
           ENTRY                   ADDRESS         REF BY
           =====                   =======         ======
           icon_list_xtask         0000EA38 
    -------------------------------------------------------------------------
CODE
  Segment part 185. NOT NEEDED.
    -------------------------------------------------------------------------
CODE
  Relative segment, address: CODE_AREA 0000061C - 0000067F (0x64 bytes), align: 2
  Segment part 186.           Intra module refs:   OnRedraw
                                                   close
                                                   task_list3
           LOCAL                   ADDRESS         
           =====                   =======         
           DrwImage                0000061C 
               stack 1 = 00000000 ( 00000040 )
    -------------------------------------------------------------------------
CODE
  Segment part 187. NOT NEEDED.
    -------------------------------------------------------------------------
CODE
  Relative segment, address: CODE_AREA 00000680 - 000008D3 (0x254 bytes), align: 2
  Segment part 188.           Intra module refs:   DoSplices
                                                   MyIDLECSM_onMessage
           ENTRY                   ADDRESS         REF BY
           =====                   =======         ======
           init_paths              00000680 
               stack 1 = 00000000 ( 0000008C )
    -------------------------------------------------------------------------
CODE
  Relative segment, address: CODE_AREA 000008D4 - 000008D7 (0x4 bytes), align: 2
  Segment part 189.           Intra module refs:   init_paths
    -------------------------------------------------------------------------
CODE
  Relative segment, address: CODE_AREA 000008D8 - 000008DB (0x4 bytes), align: 2
  Segment part 190.           Intra module refs:   init_paths
    -------------------------------------------------------------------------
CODE
  Relative segment, address: CODE_AREA 000008DC - 000008DF (0x4 bytes), align: 2
  Segment part 191.           Intra module refs:   init_paths
    -------------------------------------------------------------------------
CODE
  Relative segment, address: CODE_AREA 000008E0 - 000008E3 (0x4 bytes), align: 2
  Segment part 192.           Intra module refs:   init_paths
    -------------------------------------------------------------------------
CODE
  Relative segment, address: CODE_AREA 000008E4 - 000008E7 (0x4 bytes), align: 2
  Segment part 193.           Intra module refs:   init_paths
    -------------------------------------------------------------------------
CODE
  Relative segment, address: CODE_AREA 000008E8 - 000008EB (0x4 bytes), align: 2
  Segment part 194.           Intra module refs:   init_paths
    -------------------------------------------------------------------------
CODE
  Relative segment, address: CODE_AREA 000008EC - 000008EF (0x4 bytes), align: 2
  Segment part 195.           Intra module refs:   init_paths
    -------------------------------------------------------------------------
CODE
  Relative segment, address: CODE_AREA 000008F0 - 000008F3 (0x4 bytes), align: 2
  Segment part 196.           Intra module refs:   init_paths
    -------------------------------------------------------------------------
CODE
  Relative segment, address: CODE_AREA 000008F4 - 000008F7 (0x4 bytes), align: 2
  Segment part 197.           Intra module refs:   init_paths
    -------------------------------------------------------------------------
CODE
  Segment part 198. NOT NEEDED.
    -------------------------------------------------------------------------
DATA_Z
  Relative segment, address: CODE_AREA 0000EAB8 - 0000EAD7 (0x20 bytes), align: 2
  Segment part 73.            Intra module refs:   OnRedraw
                                                   Segment part 374
           ENTRY                   ADDRESS         REF BY
           =====                   =======         ======
           BM1NAME                 0000EAB8 
    -------------------------------------------------------------------------
DATA_Z
  Relative segment, address: CODE_AREA 0000EAD8 - 0000EB57 (0x80 bytes), align: 2
  Segment part 74.            Intra module refs:   Segment part 200
                                                   Segment part 373
           ENTRY                   ADDRESS         REF BY
           =====                   =======         ======
           BM1FILE                 0000EAD8 
    -------------------------------------------------------------------------
DATA_Z
  Relative segment, address: CODE_AREA 0000EB58 - 0000EB77 (0x20 bytes), align: 2
  Segment part 75.            Intra module refs:   OnRedraw
                                                   Segment part 376
           ENTRY                   ADDRESS         REF BY
           =====                   =======         ======
           BM2NAME                 0000EB58 
    -------------------------------------------------------------------------
DATA_Z
  Relative segment, address: CODE_AREA 0000EB78 - 0000EBF7 (0x80 bytes), align: 2
  Segment part 76.            Intra module refs:   Segment part 201
                                                   Segment part 375
           ENTRY                   ADDRESS         REF BY
           =====                   =======         ======
           BM2FILE                 0000EB78 
    -------------------------------------------------------------------------
DATA_Z
  Relative segment, address: CODE_AREA 0000EBF8 - 0000EC17 (0x20 bytes), align: 2
  Segment part 77.            Intra module refs:   OnRedraw
                                                   Segment part 378
           ENTRY                   ADDRESS         REF BY
           =====                   =======         ======
           BM3NAME                 0000EBF8 
    -------------------------------------------------------------------------
DATA_Z
  Relative segment, address: CODE_AREA 0000EC18 - 0000EC97 (0x80 bytes), align: 2
  Segment part 78.            Intra module refs:   Segment part 202
                                                   Segment part 377
           ENTRY                   ADDRESS         REF BY
           =====                   =======         ======
           BM3FILE                 0000EC18 
    -------------------------------------------------------------------------
DATA_Z
  Relative segment, address: CODE_AREA 0000EC98 - 0000ECB7 (0x20 bytes), align: 2
  Segment part 79.            Intra module refs:   OnRedraw
                                                   Segment part 380
           ENTRY                   ADDRESS         REF BY
           =====                   =======         ======
           BM4NAME                 0000EC98 
    -------------------------------------------------------------------------
DATA_Z
  Relative segment, address: CODE_AREA 0000ECB8 - 0000ED37 (0x80 bytes), align: 2
  Segment part 80.            Intra module refs:   Segment part 203
                                                   Segment part 379
           ENTRY                   ADDRESS         REF BY
           =====                   =======         ======
           BM4FILE                 0000ECB8 
    -------------------------------------------------------------------------
DATA_Z
  Relative segment, address: CODE_AREA 0000ED38 - 0000ED57 (0x20 bytes), align: 2
  Segment part 81.            Intra module refs:   OnRedraw
                                                   Segment part 382
           ENTRY                   ADDRESS         REF BY
           =====                   =======         ======
           BM5NAME                 0000ED38 
    -------------------------------------------------------------------------
DATA_Z
  Relative segment, address: CODE_AREA 0000ED58 - 0000EDD7 (0x80 bytes), align: 2
  Segment part 82.            Intra module refs:   Segment part 204
                                                   Segment part 381
           ENTRY                   ADDRESS         REF BY
           =====                   =======         ======
           BM5FILE                 0000ED58 
    -------------------------------------------------------------------------
DATA_Z
  Relative segment, address: CODE_AREA 0000EDD8 - 0000EDF7 (0x20 bytes), align: 2
  Segment part 83.            Intra module refs:   OnRedraw
                                                   Segment part 384
           ENTRY                   ADDRESS         REF BY
           =====                   =======         ======
           BM6NAME                 0000EDD8 
    -------------------------------------------------------------------------
DATA_Z
  Relative segment, address: CODE_AREA 0000EDF8 - 0000EE77 (0x80 bytes), align: 2
  Segment part 84.            Intra module refs:   Segment part 205
                                                   Segment part 383
           ENTRY                   ADDRESS         REF BY
           =====                   =======         ======
           BM6FILE                 0000EDF8 
    -------------------------------------------------------------------------
DATA_Z
  Relative segment, address: CODE_AREA 0000EE78 - 0000EE97 (0x20 bytes), align: 2
  Segment part 85.            Intra module refs:   OnRedraw
                                                   Segment part 386
           ENTRY                   ADDRESS         REF BY
           =====                   =======         ======
           BM7NAME                 0000EE78 
    -------------------------------------------------------------------------
DATA_Z
  Relative segment, address: CODE_AREA 0000EE98 - 0000EF17 (0x80 bytes), align: 2
  Segment part 86.            Intra module refs:   Segment part 206
                                                   Segment part 385
           ENTRY                   ADDRESS         REF BY
           =====                   =======         ======
           BM7FILE                 0000EE98 
    -------------------------------------------------------------------------
DATA_Z
  Relative segment, address: CODE_AREA 0000EF18 - 0000EF37 (0x20 bytes), align: 2
  Segment part 87.            Intra module refs:   OnRedraw
                                                   Segment part 388
           ENTRY                   ADDRESS         REF BY
           =====                   =======         ======
           BM8NAME                 0000EF18 
    -------------------------------------------------------------------------
DATA_Z
  Relative segment, address: CODE_AREA 0000EF38 - 0000EFB7 (0x80 bytes), align: 2
  Segment part 88.            Intra module refs:   Segment part 207
                                                   Segment part 387
           ENTRY                   ADDRESS         REF BY
           =====                   =======         ======
           BM8FILE                 0000EF38 
    -------------------------------------------------------------------------
DATA_Z
  Relative segment, address: CODE_AREA 0000EFB8 - 0000EFD7 (0x20 bytes), align: 2
  Segment part 89.            Intra module refs:   OnRedraw
                                                   Segment part 390
           ENTRY                   ADDRESS         REF BY
           =====                   =======         ======
           BM9NAME                 0000EFB8 
    -------------------------------------------------------------------------
DATA_Z
  Relative segment, address: CODE_AREA 0000EFD8 - 0000F057 (0x80 bytes), align: 2
  Segment part 90.            Intra module refs:   Segment part 208
                                                   Segment part 389
           ENTRY                   ADDRESS         REF BY
           =====                   =======         ======
           BM9FILE                 0000EFD8 
    -------------------------------------------------------------------------
DATA_Z
  Relative segment, address: CODE_AREA 0000F058 - 0000F077 (0x20 bytes), align: 2
  Segment part 91.            Intra module refs:   OnRedraw
                                                   Segment part 392
           ENTRY                   ADDRESS         REF BY
           =====                   =======         ======
           BM0NAME                 0000F058 
    -------------------------------------------------------------------------
DATA_Z
  Relative segment, address: CODE_AREA 0000F078 - 0000F0F7 (0x80 bytes), align: 2
  Segment part 92.            Intra module refs:   Segment part 209
                                                   Segment part 391
           ENTRY                   ADDRESS         REF BY
           =====                   =======         ======
           BM0FILE                 0000F078 
    -------------------------------------------------------------------------
DATA_Z
  Relative segment, address: CODE_AREA 0000F0F8 - 0000F117 (0x20 bytes), align: 2
  Segment part 93.            Intra module refs:   OnRedraw
                                                   Segment part 394
           ENTRY                   ADDRESS         REF BY
           =====                   =======         ======
           BM11NAME                0000F0F8 
    -------------------------------------------------------------------------
DATA_Z
  Relative segment, address: CODE_AREA 0000F118 - 0000F197 (0x80 bytes), align: 2
  Segment part 94.            Intra module refs:   Segment part 210
                                                   Segment part 393
           ENTRY                   ADDRESS         REF BY
           =====                   =======         ======
           BM11FILE                0000F118 
    -------------------------------------------------------------------------
DATA_Z
  Relative segment, address: CODE_AREA 0000F198 - 0000F1B7 (0x20 bytes), align: 2
  Segment part 95.            Intra module refs:   OnRedraw
                                                   Segment part 396
           ENTRY                   ADDRESS         REF BY
           =====                   =======         ======
           BM12NAME                0000F198 
    -------------------------------------------------------------------------
DATA_Z
  Relative segment, address: CODE_AREA 0000F1B8 - 0000F237 (0x80 bytes), align: 2
  Segment part 96.            Intra module refs:   Segment part 211
                                                   Segment part 395
           ENTRY                   ADDRESS         REF BY
           =====                   =======         ======
           BM12FILE                0000F1B8 
    -------------------------------------------------------------------------
DATA_Z
  Relative segment, address: CODE_AREA 0000F238 - 0000F257 (0x20 bytes), align: 2
  Segment part 97.            Intra module refs:   OnRedraw
                                                   Segment part 398
           ENTRY                   ADDRESS         REF BY
           =====                   =======         ======
           BM13NAME                0000F238 
    -------------------------------------------------------------------------
DATA_Z
  Relative segment, address: CODE_AREA 0000F258 - 0000F2D7 (0x80 bytes), align: 2
  Segment part 98.            Intra module refs:   Segment part 212
                                                   Segment part 397
           ENTRY                   ADDRESS         REF BY
           =====                   =======         ======
           BM13FILE                0000F258 
    -------------------------------------------------------------------------
DATA_Z
  Relative segment, address: CODE_AREA 0000F2D8 - 0000F2F7 (0x20 bytes), align: 2
  Segment part 99.            Intra module refs:   OnRedraw
                                                   Segment part 400
           ENTRY                   ADDRESS         REF BY
           =====                   =======         ======
           BM14NAME                0000F2D8 
    -------------------------------------------------------------------------
DATA_Z
  Relative segment, address: CODE_AREA 0000F2F8 - 0000F377 (0x80 bytes), align: 2
  Segment part 100.           Intra module refs:   Segment part 213
                                                   Segment part 399
           ENTRY                   ADDRESS         REF BY
           =====                   =======         ======
           BM14FILE                0000F2F8 
    -------------------------------------------------------------------------
DATA_Z
  Relative segment, address: CODE_AREA 0000F378 - 0000F397 (0x20 bytes), align: 2
  Segment part 101.           Intra module refs:   OnRedraw
                                                   Segment part 402
           ENTRY                   ADDRESS         REF BY
           =====                   =======         ======
           BM15NAME                0000F378 
    -------------------------------------------------------------------------
DATA_Z
  Relative segment, address: CODE_AREA 0000F398 - 0000F417 (0x80 bytes), align: 2
  Segment part 102.           Intra module refs:   Segment part 214
                                                   Segment part 401
           ENTRY                   ADDRESS         REF BY
           =====                   =======         ======
           BM15FILE                0000F398 
    -------------------------------------------------------------------------
DATA_Z
  Relative segment, address: CODE_AREA 0000F418 - 0000F437 (0x20 bytes), align: 2
  Segment part 103.           Intra module refs:   OnRedraw
                                                   Segment part 404
           ENTRY                   ADDRESS         REF BY
           =====                   =======         ======
           BM16NAME                0000F418 
    -------------------------------------------------------------------------
DATA_Z
  Relative segment, address: CODE_AREA 0000F438 - 0000F4B7 (0x80 bytes), align: 2
  Segment part 104.           Intra module refs:   Segment part 215
                                                   Segment part 403
           ENTRY                   ADDRESS         REF BY
           =====                   =======         ======
           BM16FILE                0000F438 
    -------------------------------------------------------------------------
DATA_Z
  Relative segment, address: CODE_AREA 0000F4B8 - 0000F4D7 (0x20 bytes), align: 2
  Segment part 105.           Intra module refs:   OnRedraw
                                                   Segment part 406
           ENTRY                   ADDRESS         REF BY
           =====                   =======         ======
           BM17NAME                0000F4B8 
    -------------------------------------------------------------------------
DATA_Z
  Relative segment, address: CODE_AREA 0000F4D8 - 0000F557 (0x80 bytes), align: 2
  Segment part 106.           Intra module refs:   Segment part 216
                                                   Segment part 405
           ENTRY                   ADDRESS         REF BY
           =====                   =======         ======
           BM17FILE                0000F4D8 
    -------------------------------------------------------------------------
DATA_Z
  Relative segment, address: CODE_AREA 0000F558 - 0000F577 (0x20 bytes), align: 2
  Segment part 107.           Intra module refs:   OnRedraw
                                                   Segment part 408
           ENTRY                   ADDRESS         REF BY
           =====                   =======         ======
           BM18NAME                0000F558 
    -------------------------------------------------------------------------
DATA_Z
  Relative segment, address: CODE_AREA 0000F578 - 0000F5F7 (0x80 bytes), align: 2
  Segment part 108.           Intra module refs:   Segment part 217
                                                   Segment part 407
           ENTRY                   ADDRESS         REF BY
           =====                   =======         ======
           BM18FILE                0000F578 
    -------------------------------------------------------------------------
DATA_Z
  Relative segment, address: CODE_AREA 0000F5F8 - 0000F617 (0x20 bytes), align: 2
  Segment part 109.           Intra module refs:   OnRedraw
                                                   Segment part 410
           ENTRY                   ADDRESS         REF BY
           =====                   =======         ======
           BM19NAME                0000F5F8 
    -------------------------------------------------------------------------
DATA_Z
  Relative segment, address: CODE_AREA 0000F618 - 0000F697 (0x80 bytes), align: 2
  Segment part 110.           Intra module refs:   Segment part 218
                                                   Segment part 409
           ENTRY                   ADDRESS         REF BY
           =====                   =======         ======
           BM19FILE                0000F618 
    -------------------------------------------------------------------------
DATA_Z
  Relative segment, address: CODE_AREA 0000F698 - 0000F6B7 (0x20 bytes), align: 2
  Segment part 111.           Intra module refs:   OnRedraw
                                                   Segment part 412
           ENTRY                   ADDRESS         REF BY
           =====                   =======         ======
           BM20NAME                0000F698 
    -------------------------------------------------------------------------
DATA_Z
  Relative segment, address: CODE_AREA 0000F6B8 - 0000F737 (0x80 bytes), align: 2
  Segment part 112.           Intra module refs:   Segment part 219
                                                   Segment part 411
           ENTRY                   ADDRESS         REF BY
           =====                   =======         ======
           BM20FILE                0000F6B8 
    -------------------------------------------------------------------------
DATA_Z
  Relative segment, address: CODE_AREA 0000F738 - 0000F757 (0x20 bytes), align: 2
  Segment part 113.           Intra module refs:   Segment part 275
                                                   Segment part 414
           ENTRY                   ADDRESS         REF BY
           =====                   =======         ======
           BM21NAME                0000F738 
    -------------------------------------------------------------------------
DATA_Z
  Relative segment, address: CODE_AREA 0000F758 - 0000F7D7 (0x80 bytes), align: 2
  Segment part 114.           Intra module refs:   Segment part 220
                                                   Segment part 413
           ENTRY                   ADDRESS         REF BY
           =====                   =======         ======
           BM21FILE                0000F758 
    -------------------------------------------------------------------------
DATA_Z
  Relative segment, address: CODE_AREA 0000F7D8 - 0000F7F7 (0x20 bytes), align: 2
  Segment part 115.           Intra module refs:   Segment part 276
                                                   Segment part 416
           ENTRY                   ADDRESS         REF BY
           =====                   =======         ======
           BM22NAME                0000F7D8 
    -------------------------------------------------------------------------
DATA_Z
  Relative segment, address: CODE_AREA 0000F7F8 - 0000F877 (0x80 bytes), align: 2
  Segment part 116.           Intra module refs:   Segment part 221
                                                   Segment part 415
           ENTRY                   ADDRESS         REF BY
           =====                   =======         ======
           BM22FILE                0000F7F8 
    -------------------------------------------------------------------------
DATA_Z
  Relative segment, address: CODE_AREA 0000F878 - 0000F897 (0x20 bytes), align: 2
  Segment part 117.           Intra module refs:   Segment part 277
                                                   Segment part 418
           ENTRY                   ADDRESS         REF BY
           =====                   =======         ======
           BM23NAME                0000F878 
    -------------------------------------------------------------------------
DATA_Z
  Relative segment, address: CODE_AREA 0000F898 - 0000F917 (0x80 bytes), align: 2
  Segment part 118.           Intra module refs:   Segment part 222
                                                   Segment part 417
           ENTRY                   ADDRESS         REF BY
           =====                   =======         ======
           BM23FILE                0000F898 
    -------------------------------------------------------------------------
DATA_Z
  Relative segment, address: CODE_AREA 0000F918 - 0000F937 (0x20 bytes), align: 2
  Segment part 119.           Intra module refs:   Segment part 278
                                                   Segment part 420
           ENTRY                   ADDRESS         REF BY
           =====                   =======         ======
           BM24NAME                0000F918 
    -------------------------------------------------------------------------
DATA_Z
  Relative segment, address: CODE_AREA 0000F938 - 0000F9B7 (0x80 bytes), align: 2
  Segment part 120.           Intra module refs:   Segment part 223
                                                   Segment part 419
           ENTRY                   ADDRESS         REF BY
           =====                   =======         ======
           BM24FILE                0000F938 
    -------------------------------------------------------------------------
DATA_Z
  Relative segment, address: CODE_AREA 0000F9B8 - 0000F9D7 (0x20 bytes), align: 2
  Segment part 121.           Intra module refs:   Segment part 279
                                                   Segment part 422
           ENTRY                   ADDRESS         REF BY
           =====                   =======         ======
           BM25NAME                0000F9B8 
    -------------------------------------------------------------------------
DATA_Z
  Relative segment, address: CODE_AREA 0000F9D8 - 0000FA57 (0x80 bytes), align: 2
  Segment part 122.           Intra module refs:   Segment part 224
                                                   Segment part 421
           ENTRY                   ADDRESS         REF BY
           =====                   =======         ======
           BM25FILE                0000F9D8 
    -------------------------------------------------------------------------
DATA_Z
  Relative segment, address: CODE_AREA 0000FA58 - 0000FA77 (0x20 bytes), align: 2
  Segment part 123.           Intra module refs:   Segment part 280
                                                   Segment part 424
           ENTRY                   ADDRESS         REF BY
           =====                   =======         ======
           BM26NAME                0000FA58 
    -------------------------------------------------------------------------
DATA_Z
  Relative segment, address: CODE_AREA 0000FA78 - 0000FAF7 (0x80 bytes), align: 2
  Segment part 124.           Intra module refs:   Segment part 225
                                                   Segment part 423
           ENTRY                   ADDRESS         REF BY
           =====                   =======         ======
           BM26FILE                0000FA78 
    -------------------------------------------------------------------------
DATA_Z
  Relative segment, address: CODE_AREA 0000FAF8 - 0000FB17 (0x20 bytes), align: 2
  Segment part 125.           Intra module refs:   Segment part 281
                                                   Segment part 426
           ENTRY                   ADDRESS         REF BY
           =====                   =======         ======
           BM27NAME                0000FAF8 
    -------------------------------------------------------------------------
DATA_Z
  Relative segment, address: CODE_AREA 0000FB18 - 0000FB97 (0x80 bytes), align: 2
  Segment part 126.           Intra module refs:   Segment part 226
                                                   Segment part 425
           ENTRY                   ADDRESS         REF BY
           =====                   =======         ======
           BM27FILE                0000FB18 
    -------------------------------------------------------------------------
DATA_Z
  Relative segment, address: CODE_AREA 0000FB98 - 0000FBB7 (0x20 bytes), align: 2
  Segment part 127.           Intra module refs:   Segment part 282
                                                   Segment part 428
           ENTRY                   ADDRESS         REF BY
           =====                   =======         ======
           BM28NAME                0000FB98 
    -------------------------------------------------------------------------
DATA_Z
  Relative segment, address: CODE_AREA 0000FBB8 - 0000FC37 (0x80 bytes), align: 2
  Segment part 128.           Intra module refs:   Segment part 227
                                                   Segment part 427
           ENTRY                   ADDRESS         REF BY
           =====                   =======         ======
           BM28FILE                0000FBB8 
    -------------------------------------------------------------------------
DATA_Z
  Relative segment, address: CODE_AREA 0000FC38 - 0000FC57 (0x20 bytes), align: 2
  Segment part 129.           Intra module refs:   Segment part 283
                                                   Segment part 430
           ENTRY                   ADDRESS         REF BY
           =====                   =======         ======
           BM29NAME                0000FC38 
    -------------------------------------------------------------------------
DATA_Z
  Relative segment, address: CODE_AREA 0000FC58 - 0000FCD7 (0x80 bytes), align: 2
  Segment part 130.           Intra module refs:   Segment part 228
                                                   Segment part 429
           ENTRY                   ADDRESS         REF BY
           =====                   =======         ======
           BM29FILE                0000FC58 
    -------------------------------------------------------------------------
DATA_Z
  Relative segment, address: CODE_AREA 0000FCD8 - 0000FCF7 (0x20 bytes), align: 2
  Segment part 131.           Intra module refs:   Segment part 284
                                                   Segment part 432
           ENTRY                   ADDRESS         REF BY
           =====                   =======         ======
           BM30NAME                0000FCD8 
    -------------------------------------------------------------------------
DATA_Z
  Relative segment, address: CODE_AREA 0000FCF8 - 0000FD77 (0x80 bytes), align: 2
  Segment part 132.           Intra module refs:   Segment part 229
                                                   Segment part 431
           ENTRY                   ADDRESS         REF BY
           =====                   =======         ======
           BM30FILE                0000FCF8 
    -------------------------------------------------------------------------
CODE
  Relative segment, address: CODE_AREA 000008F8 - 00000B53 (0x25c bytes), align: 2
  Segment part 199.           Intra module refs:   OnKey
           ENTRY                   ADDRESS         REF BY
           =====                   =======         ======
           Start_bookmark          000008F8 
               stack 1 = 00000000 ( 00000008 )
    -------------------------------------------------------------------------
CODE
  Relative segment, address: CODE_AREA 00000B54 - 00000B57 (0x4 bytes), align: 2
  Segment part 200.           Intra module refs:   Start_bookmark
    -------------------------------------------------------------------------
CODE
  Relative segment, address: CODE_AREA 00000B58 - 00000B5B (0x4 bytes), align: 2
  Segment part 201.           Intra module refs:   Start_bookmark
    -------------------------------------------------------------------------
CODE
  Relative segment, address: CODE_AREA 00000B5C - 00000B5F (0x4 bytes), align: 2
  Segment part 202.           Intra module refs:   Start_bookmark
    -------------------------------------------------------------------------
CODE
  Relative segment, address: CODE_AREA 00000B60 - 00000B63 (0x4 bytes), align: 2
  Segment part 203.           Intra module refs:   Start_bookmark
    -------------------------------------------------------------------------
CODE
  Relative segment, address: CODE_AREA 00000B64 - 00000B67 (0x4 bytes), align: 2
  Segment part 204.           Intra module refs:   Start_bookmark
    -------------------------------------------------------------------------
CODE
  Relative segment, address: CODE_AREA 00000B68 - 00000B6B (0x4 bytes), align: 2
  Segment part 205.           Intra module refs:   Start_bookmark
    -------------------------------------------------------------------------
CODE
  Relative segment, address: CODE_AREA 00000B6C - 00000B6F (0x4 bytes), align: 2
  Segment part 206.           Intra module refs:   Start_bookmark
    -------------------------------------------------------------------------
CODE
  Relative segment, address: CODE_AREA 00000B70 - 00000B73 (0x4 bytes), align: 2
  Segment part 207.           Intra module refs:   Start_bookmark
    -------------------------------------------------------------------------
CODE
  Relative segment, address: CODE_AREA 00000B74 - 00000B77 (0x4 bytes), align: 2
  Segment part 208.           Intra module refs:   Start_bookmark
    -------------------------------------------------------------------------
CODE
  Relative segment, address: CODE_AREA 00000B78 - 00000B7B (0x4 bytes), align: 2
  Segment part 209.           Intra module refs:   Start_bookmark
    -------------------------------------------------------------------------
CODE
  Relative segment, address: CODE_AREA 00000B7C - 00000B7F (0x4 bytes), align: 2
  Segment part 210.           Intra module refs:   Start_bookmark
    -------------------------------------------------------------------------
CODE
  Relative segment, address: CODE_AREA 00000B80 - 00000B83 (0x4 bytes), align: 2
  Segment part 211.           Intra module refs:   Start_bookmark
    -------------------------------------------------------------------------
CODE
  Relative segment, address: CODE_AREA 00000B84 - 00000B87 (0x4 bytes), align: 2
  Segment part 212.           Intra module refs:   Start_bookmark
    -------------------------------------------------------------------------
CODE
  Relative segment, address: CODE_AREA 00000B88 - 00000B8B (0x4 bytes), align: 2
  Segment part 213.           Intra module refs:   Start_bookmark
    -------------------------------------------------------------------------
CODE
  Relative segment, address: CODE_AREA 00000B8C - 00000B8F (0x4 bytes), align: 2
  Segment part 214.           Intra module refs:   Start_bookmark
    -------------------------------------------------------------------------
CODE
  Relative segment, address: CODE_AREA 00000B90 - 00000B93 (0x4 bytes), align: 2
  Segment part 215.           Intra module refs:   Start_bookmark
    -------------------------------------------------------------------------
CODE
  Relative segment, address: CODE_AREA 00000B94 - 00000B97 (0x4 bytes), align: 2
  Segment part 216.           Intra module refs:   Start_bookmark
    -------------------------------------------------------------------------
CODE
  Relative segment, address: CODE_AREA 00000B98 - 00000B9B (0x4 bytes), align: 2
  Segment part 217.           Intra module refs:   Start_bookmark
    -------------------------------------------------------------------------
CODE
  Relative segment, address: CODE_AREA 00000B9C - 00000B9F (0x4 bytes), align: 2
  Segment part 218.           Intra module refs:   Start_bookmark
    -------------------------------------------------------------------------
CODE
  Relative segment, address: CODE_AREA 00000BA0 - 00000BA3 (0x4 bytes), align: 2
  Segment part 219.           Intra module refs:   Start_bookmark
    -------------------------------------------------------------------------
CODE
  Relative segment, address: CODE_AREA 00000BA4 - 00000BA7 (0x4 bytes), align: 2
  Segment part 220.           Intra module refs:   Start_bookmark
    -------------------------------------------------------------------------
CODE
  Relative segment, address: CODE_AREA 00000BA8 - 00000BAB (0x4 bytes), align: 2
  Segment part 221.           Intra module refs:   Start_bookmark
    -------------------------------------------------------------------------
CODE
  Relative segment, address: CODE_AREA 00000BAC - 00000BAF (0x4 bytes), align: 2
  Segment part 222.           Intra module refs:   Start_bookmark
    -------------------------------------------------------------------------
CODE
  Relative segment, address: CODE_AREA 00000BB0 - 00000BB3 (0x4 bytes), align: 2
  Segment part 223.           Intra module refs:   Start_bookmark
    -------------------------------------------------------------------------
CODE
  Relative segment, address: CODE_AREA 00000BB4 - 00000BB7 (0x4 bytes), align: 2
  Segment part 224.           Intra module refs:   Start_bookmark
    -------------------------------------------------------------------------
CODE
  Relative segment, address: CODE_AREA 00000BB8 - 00000BBB (0x4 bytes), align: 2
  Segment part 225.           Intra module refs:   Start_bookmark
    -------------------------------------------------------------------------
CODE
  Relative segment, address: CODE_AREA 00000BBC - 00000BBF (0x4 bytes), align: 2
  Segment part 226.           Intra module refs:   Start_bookmark
    -------------------------------------------------------------------------
CODE
  Relative segment, address: CODE_AREA 00000BC0 - 00000BC3 (0x4 bytes), align: 2
  Segment part 227.           Intra module refs:   Start_bookmark
    -------------------------------------------------------------------------
CODE
  Relative segment, address: CODE_AREA 00000BC4 - 00000BC7 (0x4 bytes), align: 2
  Segment part 228.           Intra module refs:   Start_bookmark
    -------------------------------------------------------------------------
CODE
  Relative segment, address: CODE_AREA 00000BC8 - 00000BCB (0x4 bytes), align: 2
  Segment part 229.           Intra module refs:   Start_bookmark
    -------------------------------------------------------------------------
CODE
  Segment part 230. NOT NEEDED.
    -------------------------------------------------------------------------
DATA_I
  Relative segment, address: DATA_AREA 00000008 - 00000013 (0xc bytes), align: 2
  Segment part 133.           Intra module refs:   OnRedraw
                                                   Segment part 246
                                                   onClose
           ENTRY                   ADDRESS         REF BY
           =====                   =======         ======
           screen2                 00000008 
    -------------------------------------------------------------------------
DATA_Z
  Relative segment, address: CODE_AREA 0000FD78 - 0000FD7B (0x4 bytes), align: 2
  Segment part 135.           Intra module refs:   OnRedraw
           ENTRY                   ADDRESS         REF BY
           =====                   =======         ======
           tasks                   0000FD78        GetNumberOfDialogs (gui)
    -------------------------------------------------------------------------
DATA_Z
  Relative segment, address: CODE_AREA 0000FD7C - 00017D7B (0x8000 bytes), align: 2
  Segment part 136.           Intra module refs:   Segment part 257
                                                   Segment part 363
           ENTRY                   ADDRESS         REF BY
           =====                   =======         ======
           icon_text               0000FD7C 
    -------------------------------------------------------------------------
DATA_I
  Relative segment, address: DATA_AREA 00000014 - 00000017 (0x4 bytes), align: 2
  Segment part 137.           Intra module refs:   OnRedraw
                                                   Segment part 337
                                                   Segment part 349
           ENTRY                   ADDRESS         REF BY
           =====                   =======         ======
           task_list               00000014 
    -------------------------------------------------------------------------
CODE
  Relative segment, address: CODE_AREA 00000BCC - 00000C17 (0x4c bytes), align: 2
  Segment part 231.           Intra module refs:   maincsm_oncreate
           ENTRY                   ADDRESS         REF BY
           =====                   =======         ======
           DoScreen2               00000BCC 
               stack 1 = 00000000 ( 00000014 )
    -------------------------------------------------------------------------
CODE
  Segment part 232. NOT NEEDED.
    -------------------------------------------------------------------------
DATA_C
  Segment part 2. NOT NEEDED.
    -------------------------------------------------------------------------
DATA_C
  Relative segment, address: CODE_AREA 0000624C - 00006257 (0xc bytes), align: 2
  Segment part 3.             Intra module refs:   OnRedraw
    -------------------------------------------------------------------------
DATA_C
  Relative segment, address: CODE_AREA 00006258 - 0000625F (0x8 bytes), align: 2
  Segment part 4.             Intra module refs:   Segment part 258
                                                   Segment part 364
    -------------------------------------------------------------------------
DATA_C
  Relative segment, address: CODE_AREA 00006260 - 0000626B (0xc bytes), align: 2
  Segment part 5.             Intra module refs:   SearchIcon
    -------------------------------------------------------------------------
DATA_C
  Relative segment, address: CODE_AREA 0000679C - 0000679E (0x3 bytes), align: 0
  Segment part 6.             Intra module refs:   SearchIcon
    -------------------------------------------------------------------------
DATA_C
  Relative segment, address: CODE_AREA 0000626C - 00006273 (0x8 bytes), align: 2
  Segment part 7.             Intra module refs:   SearchIcon
    -------------------------------------------------------------------------
DATA_C
  Relative segment, address: CODE_AREA 00006274 - 0000627B (0x8 bytes), align: 2
  Segment part 8.             Intra module refs:   SearchIcon
    -------------------------------------------------------------------------
DATA_C
  Segment part 9. NOT NEEDED.
    -------------------------------------------------------------------------
DATA_C
  Relative segment, address: CODE_AREA 0000627C - 0000628F (0x14 bytes), align: 2
  Segment part 10.            Intra module refs:   init_paths
    -------------------------------------------------------------------------
DATA_C
  Segment part 11. NOT NEEDED.
    -------------------------------------------------------------------------
DATA_C
  Segment part 12. NOT NEEDED.
    -------------------------------------------------------------------------
DATA_C
  Segment part 13. NOT NEEDED.
    -------------------------------------------------------------------------
DATA_C
  Relative segment, address: CODE_AREA 00006290 - 00006297 (0x8 bytes), align: 2
  Segment part 14.            Intra module refs:   check_name
    -------------------------------------------------------------------------
DATA_C
  Relative segment, address: CODE_AREA 00006298 - 0000629F (0x8 bytes), align: 2
  Segment part 15.            Intra module refs:   check_name
    -------------------------------------------------------------------------
DATA_C
  Relative segment, address: CODE_AREA 000062A0 - 000062AB (0xc bytes), align: 2
  Segment part 16.            Intra module refs:   check_name
    -------------------------------------------------------------------------
DATA_C
  Relative segment, address: CODE_AREA 000062AC - 000062BF (0x14 bytes), align: 2
  Segment part 17.            Intra module refs:   DrawProgress
    -------------------------------------------------------------------------
DATA_C
  Relative segment, address: CODE_AREA 000062C0 - 000062D3 (0x14 bytes), align: 2
  Segment part 18.            Intra module refs:   DrawProgress
    -------------------------------------------------------------------------
DATA_C
  Relative segment, address: CODE_AREA 000062D4 - 000062DB (0x8 bytes), align: 2
  Segment part 19.            Intra module refs:   DrawProgress
    -------------------------------------------------------------------------
DATA_C
  Relative segment, address: CODE_AREA 000062DC - 000062E7 (0xc bytes), align: 2
  Segment part 20.            Intra module refs:   DrawProgress
    -------------------------------------------------------------------------
DATA_C
  Segment part 21. NOT NEEDED.
    -------------------------------------------------------------------------
DATA_C
  Relative segment, address: CODE_AREA 000062E8 - 000062FB (0x14 bytes), align: 2
  Segment part 22.            Intra module refs:   SaveRebootList
    -------------------------------------------------------------------------
DATA_C
  Segment part 23. NOT NEEDED.
    -------------------------------------------------------------------------
DATA_C
  Relative segment, address: CODE_AREA 000062FC - 00006303 (0x8 bytes), align: 2
  Segment part 24.            Intra module refs:   Segment part 254
                                                   Segment part 342
    -------------------------------------------------------------------------
DATA_C
  Relative segment, address: CODE_AREA 00006304 - 00006313 (0x10 bytes), align: 2
  Segment part 25.            Intra module refs:   init_paths
    -------------------------------------------------------------------------
DATA_C
  Relative segment, address: CODE_AREA 00006314 - 00006327 (0x14 bytes), align: 2
  Segment part 26.            Intra module refs:   init_paths
    -------------------------------------------------------------------------
DATA_C
  Relative segment, address: CODE_AREA 00006328 - 00006337 (0x10 bytes), align: 2
  Segment part 27.            Intra module refs:   init_paths
    -------------------------------------------------------------------------
DATA_C
  Relative segment, address: CODE_AREA 00006338 - 00006343 (0xc bytes), align: 2
  Segment part 28.            Intra module refs:   init_paths
    -------------------------------------------------------------------------
DATA_C
  Relative segment, address: CODE_AREA 00006344 - 0000634F (0xc bytes), align: 2
  Segment part 29.            Intra module refs:   init_paths
    -------------------------------------------------------------------------
DATA_C
  Relative segment, address: CODE_AREA 00006350 - 0000635F (0x10 bytes), align: 2
  Segment part 30.            Intra module refs:   init_paths
    -------------------------------------------------------------------------
DATA_C
  Relative segment, address: CODE_AREA 00006360 - 0000636F (0x10 bytes), align: 2
  Segment part 31.            Intra module refs:   init_paths
    -------------------------------------------------------------------------
DATA_C
  Relative segment, address: CODE_AREA 00006370 - 0000637F (0x10 bytes), align: 2
  Segment part 32.            Intra module refs:   init_paths
    -------------------------------------------------------------------------
DATA_C
  Relative segment, address: CODE_AREA 00006380 - 0000638B (0xc bytes), align: 2
  Segment part 33.            Intra module refs:   init_paths
    -------------------------------------------------------------------------
DATA_C
  Relative segment, address: CODE_AREA 0000638C - 0000639F (0x14 bytes), align: 2
  Segment part 34.            Intra module refs:   init_paths
    -------------------------------------------------------------------------
DATA_C
  Relative segment, address: CODE_AREA 000063A0 - 000063B3 (0x14 bytes), align: 2
  Segment part 35.            Intra module refs:   init_paths
    -------------------------------------------------------------------------
DATA_C
  Relative segment, address: CODE_AREA 000063B4 - 000063C7 (0x14 bytes), align: 2
  Segment part 36.            Intra module refs:   init_paths
    -------------------------------------------------------------------------
DATA_C
  Relative segment, address: CODE_AREA 000063C8 - 000063CF (0x8 bytes), align: 2
  Segment part 37.            Intra module refs:   check_name
    -------------------------------------------------------------------------
DATA_C
  Relative segment, address: CODE_AREA 000063D0 - 000063E3 (0x14 bytes), align: 2
  Segment part 38.            Intra module refs:   init_paths
    -------------------------------------------------------------------------
DATA_C
  Relative segment, address: CODE_AREA 000063E4 - 000063FB (0x18 bytes), align: 2
  Segment part 39.            Intra module refs:   init_paths
    -------------------------------------------------------------------------
DATA_C
  Relative segment, address: CODE_AREA 000063FC - 00006413 (0x18 bytes), align: 2
  Segment part 40.            Intra module refs:   init_paths
    -------------------------------------------------------------------------
DATA_C
  Relative segment, address: CODE_AREA 0000679F - 0000679F (0x1 bytes), align: 0
  Segment part 41.            Intra module refs:   Segment part 134
    -------------------------------------------------------------------------
DATA_C
  Relative segment, address: CODE_AREA 00006414 - 00006423 (0x10 bytes), align: 2
  Segment part 42.            Intra module refs:   main
    -------------------------------------------------------------------------
DATA_C
  Relative segment, address: CODE_AREA 00006424 - 00006433 (0x10 bytes), align: 2
  Segment part 43.            Intra module refs:   DoSplices
    -------------------------------------------------------------------------
DATA_C
  Segment part 44. NOT NEEDED.
    -------------------------------------------------------------------------
DATA_C
  Relative segment, address: CODE_AREA 00006434 - 0000644B (0x18 bytes), align: 2
  Segment part 45.            Intra module refs:   MyIDLECSM_onMessage
    -------------------------------------------------------------------------
DATA_C
  Relative segment, address: CODE_AREA 0000644C - 00006453 (0x8 bytes), align: 2
  Segment part 46.            Intra module refs:   GetUnderIdleCSM
    -------------------------------------------------------------------------
DATA_C
  Segment part 47. NOT NEEDED.
    -------------------------------------------------------------------------
DATA_C
  Relative segment, address: CODE_AREA 00006454 - 00006463 (0x10 bytes), align: 2
  Segment part 48.            Intra module refs:   OnRedraw
    -------------------------------------------------------------------------
DATA_C
  Segment part 49. NOT NEEDED.
    -------------------------------------------------------------------------
DATA_C
  Relative segment, address: CODE_AREA 00006464 - 0000646B (0x8 bytes), align: 2
  Segment part 50.            Intra module refs:   OnRedraw
    -------------------------------------------------------------------------
DATA_C
  Relative segment, address: CODE_AREA 0000646C - 0000646F (0x4 bytes), align: 2
  Segment part 139.           Intra module refs:   MAINCSM
           ENTRY                   ADDRESS         REF BY
           =====                   =======         ======
           minus11                 0000646C 
    -------------------------------------------------------------------------
DATA_Z
  Relative segment, address: CODE_AREA 00017D7C - 00017E93 (0x118 bytes), align: 2
  Segment part 140.           Intra module refs:   MAINCSM
           ENTRY                   ADDRESS         REF BY
           =====                   =======         ======
           maincsm_name_body       00017D7C 
    -------------------------------------------------------------------------
DATA_Z
  Relative segment, address: CODE_AREA 00017E94 - 00017E97 (0x4 bytes), align: 2
  Segment part 141.           Intra module refs:   Segment part 329
                                                   Segment part 356
           ENTRY                   ADDRESS         REF BY
           =====                   =======         ======
           MAINCSM_ID              00017E94 
    -------------------------------------------------------------------------
DATA_I
  Relative segment, address: DATA_AREA 00000018 - 0000001B (0x4 bytes), align: 2
  Segment part 142.           Intra module refs:   OnRedraw
                                                   Segment part 249
                                                   Segment part 331
           ENTRY                   ADDRESS         REF BY
           =====                   =======         ======
           pos                     00000018 
    -------------------------------------------------------------------------
DATA_I
  Relative segment, address: DATA_AREA 0000001C - 0000001F (0x4 bytes), align: 2
  Segment part 144.           Intra module refs:   OnRedraw
                                                   Segment part 304
                                                   Segment part 333
           ENTRY                   ADDRESS         REF BY
           =====                   =======         ======
           total_pos               0000001C 
    -------------------------------------------------------------------------
DATA_Z
  Relative segment, address: CODE_AREA 00017E98 - 00017E9B (0x4 bytes), align: 2
  Segment part 146.           Intra module refs:   OnRedraw
                                                   Segment part 266
                                                   Segment part 345
           ENTRY                   ADDRESS         REF BY
           =====                   =======         ======
           total_d                 00017E98 
    -------------------------------------------------------------------------
DATA_Z
  Relative segment, address: CODE_AREA 00017E9C - 00017E9F (0x4 bytes), align: 2
  Segment part 147.           Intra module refs:   OnRedraw
                                                   Segment part 334
           ENTRY                   ADDRESS         REF BY
           =====                   =======         ======
           move_skip               00017E9C 
    -------------------------------------------------------------------------
DATA_Z
  Relative segment, address: CODE_AREA 00017EA0 - 00017EA3 (0x4 bytes), align: 2
  Segment part 148.           Intra module refs:   OnRedraw
                                                   Segment part 330
           ENTRY                   ADDRESS         REF BY
           =====                   =======         ======
           sm                      00017EA0 
    -------------------------------------------------------------------------
DATA_Z
  Relative segment, address: CODE_AREA 00017EA4 - 00017EA7 (0x4 bytes), align: 2
  Segment part 149.           Intra module refs:   OnRedraw
                                                   Segment part 332
           ENTRY                   ADDRESS         REF BY
           =====                   =======         ======
           forward                 00017EA4 
    -------------------------------------------------------------------------
DATA_Z
  Relative segment, address: CODE_AREA 00017EA8 - 00017EAB (0x4 bytes), align: 2
  Segment part 150.           Intra module refs:   OnRedraw
           ENTRY                   ADDRESS         REF BY
           =====                   =======         ======
           halt                    00017EA8 
    -------------------------------------------------------------------------
DATA_Z
  Relative segment, address: CODE_AREA 00017EAC - 00017EAF (0x4 bytes), align: 2
  Segment part 151.           Intra module refs:   Segment part 243
                                                   Segment part 335
           ENTRY                   ADDRESS         REF BY
           =====                   =======         ======
           shutd                   00017EAC 
    -------------------------------------------------------------------------
DATA_Z
  Relative segment, address: CODE_AREA 00017EB0 - 00017EB3 (0x4 bytes), align: 2
  Segment part 152.           Intra module refs:   ShowMenu
           ENTRY                   ADDRESS         REF BY
           =====                   =======         ======
           logout                  00017EB0 
    -------------------------------------------------------------------------
DATA_Z
  Relative segment, address: CODE_AREA 00017EB4 - 00017EB7 (0x4 bytes), align: 2
  Segment part 153.           Intra module refs:   Segment part 236
                                                   Segment part 309
           ENTRY                   ADDRESS         REF BY
           =====                   =======         ======
           data4                   00017EB4 
    -------------------------------------------------------------------------
DATA_Z
  Relative segment, address: CODE_AREA 00017EB8 - 00017EBB (0x4 bytes), align: 2
  Segment part 154.           Intra module refs:   OnKey
           ENTRY                   ADDRESS         REF BY
           =====                   =======         ======
           data5                   00017EB8 
    -------------------------------------------------------------------------
DATA_Z
  Relative segment, address: CODE_AREA 00017EBC - 00017EBF (0x4 bytes), align: 2
  Segment part 155.           Intra module refs:   Segment part 242
           ENTRY                   ADDRESS         REF BY
           =====                   =======         ======
           draw_rec                00017EBC 
    -------------------------------------------------------------------------
DATA_Z
  Relative segment, address: CODE_AREA 00017EC0 - 00017EC3 (0x4 bytes), align: 2
  Segment part 156.           Intra module refs:   DrawProgress
           ENTRY                   ADDRESS         REF BY
           =====                   =======         ======
           this_rec                00017EC0 
    -------------------------------------------------------------------------
CODE
  Relative segment, address: CODE_AREA 00000C18 - 00000C9F (0x88 bytes), align: 2
  Segment part 233.           Intra module refs:   task_list3
           ENTRY                   ADDRESS         REF BY
           =====                   =======         ======
           SaveRebootList          00000C18 
               stack 1 = 00000000 ( 0000008C )
    -------------------------------------------------------------------------
CODE
  Segment part 234. NOT NEEDED.
    -------------------------------------------------------------------------
CODE
  Relative segment, address: CODE_AREA 00000CA0 - 00000EBB (0x21c bytes), align: 2
  Segment part 235.           Intra module refs:   task_list3
           ENTRY                   ADDRESS         REF BY
           =====                   =======         ======
           DrawProgress            00000CA0 
               stack 1 = 00000000 ( 00000048 )
    -------------------------------------------------------------------------
CODE
  Relative segment, address: CODE_AREA 00000EBC - 00000EBF (0x4 bytes), align: 2
  Segment part 236.           Intra module refs:   DrawProgress
    -------------------------------------------------------------------------
CODE
  Relative segment, address: CODE_AREA 00000EC0 - 00000EC3 (0x4 bytes), align: 2
  Segment part 237.           Intra module refs:   DrawProgress
    -------------------------------------------------------------------------
CODE
  Segment part 238. NOT NEEDED.
    -------------------------------------------------------------------------
DATA_C
  Segment part 157. NOT NEEDED.
           ENTRY                   ADDRESS         REF BY
           =====                   =======         ======
           perc                    
    -------------------------------------------------------------------------
DATA_Z
  Relative segment, address: CODE_AREA 00017EC4 - 00017EC7 (0x4 bytes), align: 2
  Segment part 158.           Intra module refs:   task_list3
           ENTRY                   ADDRESS         REF BY
           =====                   =======         ======
           zin                     00017EC4 
    -------------------------------------------------------------------------
DATA_I
  Relative segment, address: DATA_AREA 00000020 - 00000023 (0x4 bytes), align: 2
  Segment part 159.           Intra module refs:   task_list3
           ENTRY                   ADDRESS         REF BY
           =====                   =======         ======
           init_rec                00000020 
    -------------------------------------------------------------------------
CODE
  Relative segment, address: CODE_AREA 00000EC4 - 0000104B (0x188 bytes), align: 2
  Segment part 239.           Intra module refs:   OnKey
           ENTRY                   ADDRESS         REF BY
           =====                   =======         ======
           task_list3              00000EC4 
               stack 1 = 00000000 ( 00000020 )
    -------------------------------------------------------------------------
CODE
  Relative segment, address: CODE_AREA 0000104C - 0000104F (0x4 bytes), align: 2
  Segment part 240.           Intra module refs:   init_paths
                                                   task_list3
    -------------------------------------------------------------------------
CODE
  Relative segment, address: CODE_AREA 00001050 - 00001053 (0x4 bytes), align: 2
  Segment part 241.           Intra module refs:   init_paths
                                                   task_list3
    -------------------------------------------------------------------------
CODE
  Relative segment, address: CODE_AREA 00001054 - 00001057 (0x4 bytes), align: 2
  Segment part 242.           Intra module refs:   DrawProgress
                                                   task_list3
    -------------------------------------------------------------------------
CODE
  Relative segment, address: CODE_AREA 00001058 - 0000105B (0x4 bytes), align: 2
  Segment part 243.           Intra module refs:   DrawProgress
                                                   task_list3
    -------------------------------------------------------------------------
CODE
  Segment part 244. NOT NEEDED.
    -------------------------------------------------------------------------
CODE
  Relative segment, address: CODE_AREA 0000105C - 000010DF (0x84 bytes), align: 2
  Segment part 245.           Intra module refs:   my_keyhook
           ENTRY                   ADDRESS         REF BY
           =====                   =======         ======
           close                   0000105C 
               stack 1 = 00000000 ( 00000010 )
    -------------------------------------------------------------------------
CODE
  Relative segment, address: CODE_AREA 000010E0 - 000010E3 (0x4 bytes), align: 2
  Segment part 246.           Intra module refs:   DoScreen2
                                                   close
                                                   task_list3
    -------------------------------------------------------------------------
CODE
  Relative segment, address: CODE_AREA 000010E4 - 000010E7 (0x4 bytes), align: 2
  Segment part 247.           Intra module refs:   close
                                                   init_paths
                                                   task_list3
    -------------------------------------------------------------------------
CODE
  Relative segment, address: CODE_AREA 000010E8 - 000010EB (0x4 bytes), align: 2
  Segment part 248.           Intra module refs:   close
                                                   init_paths
    -------------------------------------------------------------------------
CODE
  Relative segment, address: CODE_AREA 000010EC - 000010EF (0x4 bytes), align: 2
  Segment part 249.           Intra module refs:   close
    -------------------------------------------------------------------------
CODE
  Relative segment, address: CODE_AREA 000010F0 - 000010F3 (0x4 bytes), align: 2
  Segment part 250.           Intra module refs:   close
                                                   task_list3
    -------------------------------------------------------------------------
CODE
  Segment part 251. NOT NEEDED.
    -------------------------------------------------------------------------
DATA_Z
  Relative segment, address: CODE_AREA 00017EC8 - 00017ECB (0x4 bytes), align: 2
  Segment part 161.           Intra module refs:   Segment part 264
           ENTRY                   ADDRESS         REF BY
           =====                   =======         ======
           main_poX                00017EC8 
    -------------------------------------------------------------------------
DATA_Z
  Relative segment, address: CODE_AREA 00017ECC - 00017ECF (0x4 bytes), align: 2
  Segment part 162.           Intra module refs:   Segment part 265
           ENTRY                   ADDRESS         REF BY
           =====                   =======         ======
           main_poY                00017ECC 
    -------------------------------------------------------------------------
DATA_Z
  Relative segment, address: CODE_AREA 00017ED0 - 00017ED3 (0x4 bytes), align: 2
  Segment part 163.           Intra module refs:   Segment part 253
                                                   Segment part 355
           ENTRY                   ADDRESS         REF BY
           =====                   =======         ======
           naticq_icon             00017ED0 
    -------------------------------------------------------------------------
CODE
  Relative segment, address: CODE_AREA 000010F4 - 000011FB (0x108 bytes), align: 2
  Segment part 252.           Intra module refs:   DoClosery
                                                   SearchIcon
                                                   ShowNaticq
           ENTRY                   ADDRESS         REF BY
           =====                   =======         ======
           check_name              000010F4 
               stack 1 = 00000000 ( 0000000C )
    -------------------------------------------------------------------------
CODE
  Relative segment, address: CODE_AREA 000011FC - 000011FF (0x4 bytes), align: 2
  Segment part 253.           Intra module refs:   check_name
    -------------------------------------------------------------------------
CODE
  Relative segment, address: CODE_AREA 00001200 - 00001203 (0x4 bytes), align: 2
  Segment part 254.           Intra module refs:   check_name
    -------------------------------------------------------------------------
CODE
  Segment part 255. NOT NEEDED.
    -------------------------------------------------------------------------
DATA_Z
  Relative segment, address: CODE_AREA 00017ED4 - 00017ED7 (0x4 bytes), align: 2
  Segment part 164.           Intra module refs:   Segment part 261
                                                   Segment part 365
           ENTRY                   ADDRESS         REF BY
           =====                   =======         ======
           use_unknown             00017ED4 
    -------------------------------------------------------------------------
CODE
  Relative segment, address: CODE_AREA 00001204 - 0000142F (0x22c bytes), align: 2
  Segment part 256.           Intra module refs:   DrawMainTasks
                                                   OnRedraw
           ENTRY                   ADDRESS         REF BY
           =====                   =======         ======
           SearchIcon              00001204 
               stack 1 = 00000000 ( 00000134 )
    -------------------------------------------------------------------------
CODE
  Relative segment, address: CODE_AREA 00001430 - 00001433 (0x4 bytes), align: 2
  Segment part 257.           Intra module refs:   SearchIcon
    -------------------------------------------------------------------------
CODE
  Relative segment, address: CODE_AREA 00001434 - 00001437 (0x4 bytes), align: 2
  Segment part 258.           Intra module refs:   SearchIcon
    -------------------------------------------------------------------------
CODE
  Relative segment, address: CODE_AREA 00001438 - 0000143B (0x4 bytes), align: 2
  Segment part 259.           Intra module refs:   SearchIcon
                                                   init_paths
    -------------------------------------------------------------------------
CODE
  Relative segment, address: CODE_AREA 0000143C - 0000143F (0x4 bytes), align: 2
  Segment part 260.           Intra module refs:   SearchIcon
                                                   init_paths
    -------------------------------------------------------------------------
CODE
  Relative segment, address: CODE_AREA 00001440 - 00001443 (0x4 bytes), align: 2
  Segment part 261.           Intra module refs:   SearchIcon
    -------------------------------------------------------------------------
CODE
  Segment part 262. NOT NEEDED.
    -------------------------------------------------------------------------
CODE
  Relative segment, address: CODE_AREA 00001444 - 000014D3 (0x90 bytes), align: 2
  Segment part 263.           Intra module refs:   MyIDLECSM_onMessage
           ENTRY                   ADDRESS         REF BY
           =====                   =======         ======
           DrawMainTasks           00001444 
               stack 1 = 00000000 ( 00000018 )
    -------------------------------------------------------------------------
CODE
  Relative segment, address: CODE_AREA 000014D4 - 000014D7 (0x4 bytes), align: 2
  Segment part 264.           Intra module refs:   DrawMainTasks
                                                   SearchIcon
    -------------------------------------------------------------------------
CODE
  Relative segment, address: CODE_AREA 000014D8 - 000014DB (0x4 bytes), align: 2
  Segment part 265.           Intra module refs:   DrawMainTasks
                                                   SearchIcon
    -------------------------------------------------------------------------
CODE
  Relative segment, address: CODE_AREA 000014DC - 000014DF (0x4 bytes), align: 2
  Segment part 266.           Intra module refs:   DrawMainTasks
                                                   task_list3
    -------------------------------------------------------------------------
CODE
  Relative segment, address: CODE_AREA 000014E0 - 000014E3 (0x4 bytes), align: 2
  Segment part 267.           Intra module refs:   DrawMainTasks
                                                   task_list3
    -------------------------------------------------------------------------
CODE
  Segment part 268. NOT NEEDED.
    -------------------------------------------------------------------------
DATA_Z
  Relative segment, address: CODE_AREA 00017ED8 - 00017EDB (0x4 bytes), align: 2
  Segment part 165.           Intra module refs:   OnRedraw
           ENTRY                   ADDRESS         REF BY
           =====                   =======         ======
           refresh                 00017ED8 
    -------------------------------------------------------------------------
CODE
  Relative segment, address: CODE_AREA 000014E4 - 00001577 (0x94 bytes), align: 2
  Segment part 269.           Intra module refs:   OnRedraw
           ENTRY                   ADDRESS         REF BY
           =====                   =======         ======
           DrawSideProgresbar      000014E4 
               stack 1 = 00000000 ( 00000024 )
    -------------------------------------------------------------------------
CODE
  Segment part 270. NOT NEEDED.
    -------------------------------------------------------------------------
DATA_Z
  Relative segment, address: CODE_AREA 00017EDC - 00017EDF (0x4 bytes), align: 2
  Segment part 166.           Intra module refs:   DrawCPU
           ENTRY                   ADDRESS         REF BY
           =====                   =======         ======
           test2                   00017EDC 
    -------------------------------------------------------------------------
CODE
  Relative segment, address: CODE_AREA 00001578 - 000015E7 (0x70 bytes), align: 2
  Segment part 271.           Intra module refs:   OnRedraw
           ENTRY                   ADDRESS         REF BY
           =====                   =======         ======
           DrawCPU                 00001578 
               stack 1 = 00000000 ( 00000014 )
    -------------------------------------------------------------------------
CODE
  Relative segment, address: CODE_AREA 000015E8 - 000015EB (0x4 bytes), align: 2
  Segment part 272.           Intra module refs:   DrawCPU
    -------------------------------------------------------------------------
CODE
  Segment part 273. NOT NEEDED.
    -------------------------------------------------------------------------
CODE
  Relative segment, address: CODE_AREA 000015EC - 00003B7B (0x2590 bytes), align: 2
  Segment part 274.           Intra module refs:   gui_methods
           ENTRY                   ADDRESS         REF BY
           =====                   =======         ======
           OnRedraw                000015EC 
               stack 1 = 00000000 ( 0000006C )
    -------------------------------------------------------------------------
CODE
  Relative segment, address: CODE_AREA 00003B7C - 00003B7F (0x4 bytes), align: 2
  Segment part 275.           Intra module refs:   OnRedraw
    -------------------------------------------------------------------------
CODE
  Relative segment, address: CODE_AREA 00003B80 - 00003B83 (0x4 bytes), align: 2
  Segment part 276.           Intra module refs:   OnRedraw
    -------------------------------------------------------------------------
CODE
  Relative segment, address: CODE_AREA 00003B84 - 00003B87 (0x4 bytes), align: 2
  Segment part 277.           Intra module refs:   OnRedraw
    -------------------------------------------------------------------------
CODE
  Relative segment, address: CODE_AREA 00003B88 - 00003B8B (0x4 bytes), align: 2
  Segment part 278.           Intra module refs:   OnRedraw
    -------------------------------------------------------------------------
CODE
  Relative segment, address: CODE_AREA 00003B8C - 00003B8F (0x4 bytes), align: 2
  Segment part 279.           Intra module refs:   OnRedraw
    -------------------------------------------------------------------------
CODE
  Relative segment, address: CODE_AREA 00003B90 - 00003B93 (0x4 bytes), align: 2
  Segment part 280.           Intra module refs:   OnRedraw
    -------------------------------------------------------------------------
CODE
  Relative segment, address: CODE_AREA 00003B94 - 00003B97 (0x4 bytes), align: 2
  Segment part 281.           Intra module refs:   OnRedraw
    -------------------------------------------------------------------------
CODE
  Relative segment, address: CODE_AREA 00003B98 - 00003B9B (0x4 bytes), align: 2
  Segment part 282.           Intra module refs:   OnRedraw
    -------------------------------------------------------------------------
CODE
  Relative segment, address: CODE_AREA 00003B9C - 00003B9F (0x4 bytes), align: 2
  Segment part 283.           Intra module refs:   OnRedraw
    -------------------------------------------------------------------------
CODE
  Relative segment, address: CODE_AREA 00003BA0 - 00003BA3 (0x4 bytes), align: 2
  Segment part 284.           Intra module refs:   OnRedraw
    -------------------------------------------------------------------------
CODE
  Relative segment, address: CODE_AREA 00003BA4 - 00003BA7 (0x4 bytes), align: 2
  Segment part 285.           Intra module refs:   OnRedraw
    -------------------------------------------------------------------------
CODE
  Relative segment, address: CODE_AREA 00003BA8 - 00003BAB (0x4 bytes), align: 2
  Segment part 286.           Intra module refs:   OnRedraw
    -------------------------------------------------------------------------
CODE
  Relative segment, address: CODE_AREA 00003BAC - 00003BAF (0x4 bytes), align: 2
  Segment part 287.           Intra module refs:   OnRedraw
    -------------------------------------------------------------------------
CODE
  Relative segment, address: CODE_AREA 00003BB0 - 00003BB3 (0x4 bytes), align: 2
  Segment part 288.           Intra module refs:   OnRedraw
    -------------------------------------------------------------------------
CODE
  Relative segment, address: CODE_AREA 00003BB4 - 00003BB7 (0x4 bytes), align: 2
  Segment part 289.           Intra module refs:   OnRedraw
    -------------------------------------------------------------------------
CODE
  Relative segment, address: CODE_AREA 00003BB8 - 00003BBB (0x4 bytes), align: 2
  Segment part 290.           Intra module refs:   OnRedraw
    -------------------------------------------------------------------------
CODE
  Relative segment, address: CODE_AREA 00003BBC - 00003BBF (0x4 bytes), align: 2
  Segment part 291.           Intra module refs:   OnRedraw
    -------------------------------------------------------------------------
CODE
  Segment part 292. NOT NEEDED.
    -------------------------------------------------------------------------
CODE
  Relative segment, address: CODE_AREA 00003BC0 - 00003BCB (0xc bytes), align: 2
  Segment part 293.           Intra module refs:   gui_methods
           ENTRY                   ADDRESS         REF BY
           =====                   =======         ======
           onCreate                00003BC0 
    -------------------------------------------------------------------------
CODE
  Segment part 294. NOT NEEDED.
    -------------------------------------------------------------------------
CODE
  Relative segment, address: CODE_AREA 00003BCC - 00003C07 (0x3c bytes), align: 2
  Segment part 295.           Intra module refs:   gui_methods
           ENTRY                   ADDRESS         REF BY
           =====                   =======         ======
           onClose                 00003BCC 
               stack 1 = 00000000 ( 00000008 )
    -------------------------------------------------------------------------
CODE
  Segment part 296. NOT NEEDED.
    -------------------------------------------------------------------------
CODE
  Relative segment, address: CODE_AREA 00003C08 - 00003C13 (0xc bytes), align: 2
  Segment part 297.           Intra module refs:   gui_methods
           ENTRY                   ADDRESS         REF BY
           =====                   =======         ======
           onFocus                 00003C08 
    -------------------------------------------------------------------------
CODE
  Segment part 298. NOT NEEDED.
    -------------------------------------------------------------------------
CODE
  Relative segment, address: CODE_AREA 00003C14 - 00003C3B (0x28 bytes), align: 2
  Segment part 299.           Intra module refs:   gui_methods
           ENTRY                   ADDRESS         REF BY
           =====                   =======         ======
           onUnfocus               00003C14 
               stack 1 = 00000000 ( 00000004 )
    -------------------------------------------------------------------------
CODE
  Segment part 300. NOT NEEDED.
    -------------------------------------------------------------------------
DATA_Z
  Relative segment, address: CODE_AREA 00017EE0 - 00017EE3 (0x4 bytes), align: 2
  Segment part 167.           Intra module refs:   OnKey
           ENTRY                   ADDRESS         REF BY
           =====                   =======         ======
           closing                 00017EE0 
    -------------------------------------------------------------------------
DATA_Z
  Relative segment, address: CODE_AREA 00017EE4 - 00017EE7 (0x4 bytes), align: 2
  Segment part 168.           Intra module refs:   Segment part 310
                                                   Segment part 435
           ENTRY                   ADDRESS         REF BY
           =====                   =======         ======
           show_daemons            00017EE4        GetNumberOfDialogs (gui)
    -------------------------------------------------------------------------
CODE
  Relative segment, address: CODE_AREA 00003C3C - 00003C47 (0xc bytes), align: 2
  Segment part 301.           Intra module refs:   Segment part 307
           ENTRY                   ADDRESS         REF BY
           =====                   =======         ======
           redrit                  00003C3C 
               stack 1 = 00000000 ( 00000004 )
    -------------------------------------------------------------------------
CODE
  Segment part 302. NOT NEEDED.
    -------------------------------------------------------------------------
CODE
  Relative segment, address: CODE_AREA 00003C48 - 000043BB (0x774 bytes), align: 2
  Segment part 303.           Intra module refs:   gui_methods
           ENTRY                   ADDRESS         REF BY
           =====                   =======         ======
           OnKey                   00003C48 
               stack 1 = 00000000 ( 00000024 )
    -------------------------------------------------------------------------
CODE
  Relative segment, address: CODE_AREA 000043BC - 000043BF (0x4 bytes), align: 2
  Segment part 304.           Intra module refs:   OnKey
                                                   OnRedraw
    -------------------------------------------------------------------------
CODE
  Relative segment, address: CODE_AREA 000043C0 - 000043C3 (0x4 bytes), align: 2
  Segment part 305.           Intra module refs:   OnKey
    -------------------------------------------------------------------------
CODE
  Relative segment, address: CODE_AREA 000043C4 - 000043C7 (0x4 bytes), align: 2
  Segment part 306.           Intra module refs:   OnKey
                                                   OnRedraw
    -------------------------------------------------------------------------
CODE
  Relative segment, address: CODE_AREA 000043C8 - 000043CB (0x4 bytes), align: 2
  Segment part 307.           Intra module refs:   OnKey
                                                   OnRedraw
    -------------------------------------------------------------------------
CODE
  Relative segment, address: CODE_AREA 000043CC - 000043CF (0x4 bytes), align: 2
  Segment part 308.           Intra module refs:   OnKey
                                                   OnRedraw
    -------------------------------------------------------------------------
CODE
  Relative segment, address: CODE_AREA 000043D0 - 000043D3 (0x4 bytes), align: 2
  Segment part 309.           Intra module refs:   OnKey
    -------------------------------------------------------------------------
CODE
  Relative segment, address: CODE_AREA 000043D4 - 000043D7 (0x4 bytes), align: 2
  Segment part 310.           Intra module refs:   OnKey
    -------------------------------------------------------------------------
CODE
  Segment part 311. NOT NEEDED.
    -------------------------------------------------------------------------
CODE
  Relative segment, address: CODE_AREA 000043D8 - 000043EF (0x18 bytes), align: 2
  Segment part 312.           Intra module refs:   DoSplices
           ENTRY                   ADDRESS         REF BY
           =====                   =======         ======
           ElfKiller               000043D8 
               stack 1 = 00000000 ( 00000004 )
    -------------------------------------------------------------------------
CODE
  Segment part 313. NOT NEEDED.
    -------------------------------------------------------------------------
CODE
  Relative segment, address: CODE_AREA 000043F0 - 000043F7 (0x8 bytes), align: 2
  Segment part 314.           Intra module refs:   gui_methods
           ENTRY                   ADDRESS         REF BY
           =====                   =======         ======
           method8                 000043F0 
    -------------------------------------------------------------------------
CODE
  Segment part 315. NOT NEEDED.
    -------------------------------------------------------------------------
CODE
  Relative segment, address: CODE_AREA 000043F8 - 000043FF (0x8 bytes), align: 2
  Segment part 316.           Intra module refs:   gui_methods
           ENTRY                   ADDRESS         REF BY
           =====                   =======         ======
           method9                 000043F8 
    -------------------------------------------------------------------------
CODE
  Segment part 317. NOT NEEDED.
    -------------------------------------------------------------------------
DATA_C
  Relative segment, address: CODE_AREA 00006470 - 0000649B (0x2c bytes), align: 2
  Segment part 169.           Intra module refs:   maincsm_oncreate
           ENTRY                   ADDRESS         REF BY
           =====                   =======         ======
           gui_methods             00006470 
    -------------------------------------------------------------------------
DATA_C
  Relative segment, address: CODE_AREA 0000649C - 000064A3 (0x8 bytes), align: 2
  Segment part 170.           Intra module refs:   maincsm_oncreate
           ENTRY                   ADDRESS         REF BY
           =====                   =======         ======
           Canvas                  0000649C 
    -------------------------------------------------------------------------
CODE
  Relative segment, address: CODE_AREA 00004400 - 00004483 (0x84 bytes), align: 2
  Segment part 318.           Intra module refs:   MAINCSM
           ENTRY                   ADDRESS         REF BY
           =====                   =======         ======
           maincsm_oncreate        00004400 
               stack 1 = 00000000 ( 00000014 )
    -------------------------------------------------------------------------
CODE
  Segment part 319. NOT NEEDED.
    -------------------------------------------------------------------------
CODE
  Relative segment, address: CODE_AREA 00004484 - 00004487 (0x4 bytes), align: 2
  Segment part 320.           Intra module refs:   MAINCSM
           ENTRY                   ADDRESS         REF BY
           =====                   =======         ======
           maincsm_onclose         00004484 
    -------------------------------------------------------------------------
CODE
  Segment part 321. NOT NEEDED.
    -------------------------------------------------------------------------
CODE
  Relative segment, address: CODE_AREA 00004488 - 000044C7 (0x40 bytes), align: 2
  Segment part 322.           Intra module refs:   MAINCSM
           ENTRY                   ADDRESS         REF BY
           =====                   =======         ======
           maincsm_onmessage       00004488 
    -------------------------------------------------------------------------
CODE
  Segment part 323. NOT NEEDED.
    -------------------------------------------------------------------------
DATA_C
  Relative segment, address: CODE_AREA 000064A4 - 000064DF (0x3c bytes), align: 2
  Segment part 171.           Intra module refs:   ShowMenu
           ENTRY                   ADDRESS         REF BY
           =====                   =======         ======
           MAINCSM                 000064A4 
    -------------------------------------------------------------------------
CODE
  Segment part 324. NOT NEEDED.
           ENTRY                   ADDRESS         REF BY
           =====                   =======         ======
           UpdateCSMname           
               not allocated function
    -------------------------------------------------------------------------
CODE
  Segment part 325. NOT NEEDED.
    -------------------------------------------------------------------------
CODE
  Relative segment, address: CODE_AREA 000044C8 - 00004563 (0x9c bytes), align: 2
  Segment part 326.           Intra module refs:   DoSplices
           ENTRY                   ADDRESS         REF BY
           =====                   =======         ======
           GetUnderIdleCSM         000044C8 
               stack 1 = 00000000 ( 0000000C )
    -------------------------------------------------------------------------
CODE
  Segment part 327. NOT NEEDED.
    -------------------------------------------------------------------------
DATA_Z
  Relative segment, address: CODE_AREA 00017EE8 - 00017EEB (0x4 bytes), align: 2
  Segment part 172.           Intra module refs:   MyIDLECSM_onMessage
           ENTRY                   ADDRESS         REF BY
           =====                   =======         ======
           SHOW_LOCK               00017EE8 
    -------------------------------------------------------------------------
DATA_Z
  Relative segment, address: CODE_AREA 00017EEC - 00017F13 (0x28 bytes), align: 2
  Segment part 173.           Intra module refs:   DoSplices
           ENTRY                   ADDRESS         REF BY
           =====                   =======         ======
           icsmd                   00017EEC 
    -------------------------------------------------------------------------
DATA_Z
  Relative segment, address: CODE_AREA 00017F14 - 00017F17 (0x4 bytes), align: 2
  Segment part 174.           Intra module refs:   Segment part 438
           ENTRY                   ADDRESS         REF BY
           =====                   =======         ======
           old_icsm_onMessage      00017F14 
    -------------------------------------------------------------------------
DATA_Z
  Relative segment, address: CODE_AREA 00017F18 - 00017F1B (0x4 bytes), align: 2
  Segment part 175.           Intra module refs:   Segment part 437
           ENTRY                   ADDRESS         REF BY
           =====                   =======         ======
           old_icsm_onClose        00017F18 
    -------------------------------------------------------------------------
DATA_Z
  Relative segment, address: CODE_AREA 00017F1C - 00017F1F (0x4 bytes), align: 2
  Segment part 176.           Intra module refs:   DoSplices
           ENTRY                   ADDRESS         REF BY
           =====                   =======         ======
           under_idle              00017F1C        GetNumberOfDialogs (gui)
                                                   do_CSMtoTop (swaper)
    -------------------------------------------------------------------------
DATA_Z
  Relative segment, address: CODE_AREA 00017F20 - 00017F23 (0x4 bytes), align: 2
  Segment part 177.           Intra module refs:   Segment part 441
           ENTRY                   ADDRESS         REF BY
           =====                   =======         ======
           mode                    00017F20 
    -------------------------------------------------------------------------
DATA_Z
  Relative segment, address: CODE_AREA 00017F24 - 00017F27 (0x4 bytes), align: 2
  Segment part 178.           Intra module refs:   my_keyhook
           ENTRY                   ADDRESS         REF BY
           =====                   =======         ======
           mode_red                00017F24 
    -------------------------------------------------------------------------
DATA_Z
  Relative segment, address: CODE_AREA 00017F28 - 00017F2B (0x4 bytes), align: 2
  Segment part 179.           Intra module refs:   my_keyhook
           ENTRY                   ADDRESS         REF BY
           =====                   =======         ======
           mode_enter              00017F28 
    -------------------------------------------------------------------------
CODE
  Relative segment, address: CODE_AREA 00004564 - 00004637 (0xd4 bytes), align: 2
  Segment part 328.           Intra module refs:   MyIDLECSM_onMessage
                                                   my_keyhook
           ENTRY                   ADDRESS         REF BY
           =====                   =======         ======
           ShowMenu                00004564 
               stack 1 = 00000000 ( 00000044 )
    -------------------------------------------------------------------------
CODE
  Relative segment, address: CODE_AREA 00004638 - 0000463B (0x4 bytes), align: 2
  Segment part 329.           Intra module refs:   ShowMenu
                                                   onClose
                                                   onUnfocus
    -------------------------------------------------------------------------
CODE
  Relative segment, address: CODE_AREA 0000463C - 0000463F (0x4 bytes), align: 2
  Segment part 330.           Intra module refs:   OnKey
                                                   ShowMenu
    -------------------------------------------------------------------------
CODE
  Relative segment, address: CODE_AREA 00004640 - 00004643 (0x4 bytes), align: 2
  Segment part 331.           Intra module refs:   OnKey
                                                   ShowMenu
    -------------------------------------------------------------------------
CODE
  Relative segment, address: CODE_AREA 00004644 - 00004647 (0x4 bytes), align: 2
  Segment part 332.           Intra module refs:   OnKey
                                                   ShowMenu
    -------------------------------------------------------------------------
CODE
  Relative segment, address: CODE_AREA 00004648 - 0000464B (0x4 bytes), align: 2
  Segment part 333.           Intra module refs:   ShowMenu
    -------------------------------------------------------------------------
CODE
  Relative segment, address: CODE_AREA 0000464C - 0000464F (0x4 bytes), align: 2
  Segment part 334.           Intra module refs:   OnKey
                                                   ShowMenu
    -------------------------------------------------------------------------
CODE
  Relative segment, address: CODE_AREA 00004650 - 00004653 (0x4 bytes), align: 2
  Segment part 335.           Intra module refs:   OnKey
                                                   OnRedraw
                                                   ShowMenu
    -------------------------------------------------------------------------
CODE
  Relative segment, address: CODE_AREA 00004654 - 00004657 (0x4 bytes), align: 2
  Segment part 336.           Intra module refs:   OnKey
                                                   ShowMenu
    -------------------------------------------------------------------------
CODE
  Relative segment, address: CODE_AREA 00004658 - 0000465B (0x4 bytes), align: 2
  Segment part 337.           Intra module refs:   OnKey
                                                   OnRedraw
                                                   ShowMenu
    -------------------------------------------------------------------------
CODE
  Segment part 338. NOT NEEDED.
    -------------------------------------------------------------------------
CODE
  Relative segment, address: CODE_AREA 0000465C - 0000470B (0xb0 bytes), align: 2
  Segment part 339.           Intra module refs:   my_keyhook
           ENTRY                   ADDRESS         REF BY
           =====                   =======         ======
           DoClosery               0000465C 
               stack 1 = 00000000 ( 00000014 )
    -------------------------------------------------------------------------
CODE
  Segment part 340. NOT NEEDED.
    -------------------------------------------------------------------------
DATA_Z
  Segment part 180. NOT NEEDED.
           ENTRY                   ADDRESS         REF BY
           =====                   =======         ======
           info                    
    -------------------------------------------------------------------------
CODE
  Relative segment, address: CODE_AREA 0000470C - 000047A7 (0x9c bytes), align: 2
  Segment part 341.           Intra module refs:   my_keyhook
           ENTRY                   ADDRESS         REF BY
           =====                   =======         ======
           ShowNaticq              0000470C 
               stack 1 = 00000000 ( 0000000C )
    -------------------------------------------------------------------------
CODE
  Relative segment, address: CODE_AREA 000047A8 - 000047AB (0x4 bytes), align: 2
  Segment part 342.           Intra module refs:   ShowNaticq
    -------------------------------------------------------------------------
CODE
  Segment part 343. NOT NEEDED.
    -------------------------------------------------------------------------
CODE
  Relative segment, address: CODE_AREA 000047AC - 0000480F (0x64 bytes), align: 2
  Segment part 344.           Intra module refs:   my_keyhook
           ENTRY                   ADDRESS         REF BY
           =====                   =======         ======
           SwitchNext              000047AC 
               stack 1 = 00000000 ( 0000000C )
    -------------------------------------------------------------------------
CODE
  Relative segment, address: CODE_AREA 00004810 - 00004813 (0x4 bytes), align: 2
  Segment part 345.           Intra module refs:   DoClosery
                                                   OnKey
                                                   ShowMenu
                                                   ShowNaticq
                                                   SwitchNext
    -------------------------------------------------------------------------
CODE
  Relative segment, address: CODE_AREA 00004814 - 00004817 (0x4 bytes), align: 2
  Segment part 346.           Intra module refs:   DoClosery
                                                   OnKey
                                                   ShowNaticq
                                                   SwitchNext
    -------------------------------------------------------------------------
CODE
  Segment part 347. NOT NEEDED.
    -------------------------------------------------------------------------
CODE
  Relative segment, address: CODE_AREA 00004818 - 00004D27 (0x510 bytes), align: 2
  Segment part 348.           Intra module refs:   Segment part 436
           ENTRY                   ADDRESS         REF BY
           =====                   =======         ======
           my_keyhook              00004818 
               stack 1 = 00000000 ( 00000028 )
    -------------------------------------------------------------------------
CODE
  Relative segment, address: CODE_AREA 00004D28 - 00004D2B (0x4 bytes), align: 2
  Segment part 349.           Intra module refs:   my_keyhook
    -------------------------------------------------------------------------
CODE
  Segment part 350. NOT NEEDED.
    -------------------------------------------------------------------------
DATA_Z
  Relative segment, address: CODE_AREA 00017F2C - 00017F2F (0x4 bytes), align: 2
  Segment part 181.           Intra module refs:   MyIDLECSM_onMessage
           ENTRY                   ADDRESS         REF BY
           =====                   =======         ======
           callhide_mode           00017F2C 
    -------------------------------------------------------------------------
DATA_Z
  Relative segment, address: CODE_AREA 00017F30 - 00017F33 (0x4 bytes), align: 2
  Segment part 182.           Intra module refs:   MyIDLECSM_onMessage
           ENTRY                   ADDRESS         REF BY
           =====                   =======         ======
           reiconize               00017F30 
    -------------------------------------------------------------------------
CODE
  Relative segment, address: CODE_AREA 00004D2C - 00004D77 (0x4c bytes), align: 2
  Segment part 351.           Intra module refs:   MyIDLECSM_onMessage
           ENTRY                   ADDRESS         REF BY
           =====                   =======         ======
           strcmp_nocase           00004D2C 
    -------------------------------------------------------------------------
CODE
  Segment part 352. NOT NEEDED.
    -------------------------------------------------------------------------
DATA_C
  Relative segment, address: CODE_AREA 000064E0 - 000064E7 (0x8 bytes), align: 2
  Segment part 183.           Intra module refs:   MyIDLECSM_onMessage
           ENTRY                   ADDRESS         REF BY
           =====                   =======         ======
           my_ipc_name             000064E0 
    -------------------------------------------------------------------------
CODE
  Relative segment, address: CODE_AREA 00004D78 - 00005027 (0x2b0 bytes), align: 2
  Segment part 353.           Intra module refs:   DoSplices
           ENTRY                   ADDRESS         REF BY
           =====                   =======         ======
           MyIDLECSM_onMessage     00004D78 
               stack 1 = 00000000 ( 00000068 )
    -------------------------------------------------------------------------
CODE
  Relative segment, address: CODE_AREA 00005028 - 0000502B (0x4 bytes), align: 2
  Segment part 354.           Intra module refs:   GetUnderIdleCSM
                                                   MyIDLECSM_onMessage
    -------------------------------------------------------------------------
CODE
  Relative segment, address: CODE_AREA 0000502C - 0000502F (0x4 bytes), align: 2
  Segment part 355.           Intra module refs:   MyIDLECSM_onMessage
    -------------------------------------------------------------------------
CODE
  Relative segment, address: CODE_AREA 00005030 - 00005033 (0x4 bytes), align: 2
  Segment part 356.           Intra module refs:   MyIDLECSM_onMessage
                                                   my_keyhook
    -------------------------------------------------------------------------
CODE
  Segment part 357. NOT NEEDED.
    -------------------------------------------------------------------------
CODE
  Relative segment, address: CODE_AREA 00005034 - 0000506B (0x38 bytes), align: 2
  Segment part 358.           Intra module refs:   DoSplices
           ENTRY                   ADDRESS         REF BY
           =====                   =======         ======
           MyIDLECSM_onClose       00005034 
               stack 1 = 00000000 ( 00000008 )
    -------------------------------------------------------------------------
CODE
  Relative segment, address: CODE_AREA 0000506C - 0000506F (0x4 bytes), align: 2
  Segment part 359.           Intra module refs:   ElfKiller
                                                   MyIDLECSM_onClose
    -------------------------------------------------------------------------
CODE
  Segment part 360. NOT NEEDED.
    -------------------------------------------------------------------------
CODE
  Relative segment, address: CODE_AREA 00005070 - 00005123 (0xb4 bytes), align: 2
  Segment part 361.           Intra module refs:   DoSplices
           ENTRY                   ADDRESS         REF BY
           =====                   =======         ======
           load_icon_list          00005070 
               stack 1 = 00000000 ( 00000040 )
    -------------------------------------------------------------------------
CODE
  Relative segment, address: CODE_AREA 00005124 - 00005127 (0x4 bytes), align: 2
  Segment part 362.           Intra module refs:   load_icon_list
    -------------------------------------------------------------------------
CODE
  Relative segment, address: CODE_AREA 00005128 - 0000512B (0x4 bytes), align: 2
  Segment part 363.           Intra module refs:   load_icon_list
    -------------------------------------------------------------------------
CODE
  Relative segment, address: CODE_AREA 0000512C - 0000512F (0x4 bytes), align: 2
  Segment part 364.           Intra module refs:   load_icon_list
    -------------------------------------------------------------------------
CODE
  Relative segment, address: CODE_AREA 00005130 - 00005133 (0x4 bytes), align: 2
  Segment part 365.           Intra module refs:   load_icon_list
    -------------------------------------------------------------------------
CODE
  Segment part 366. NOT NEEDED.
    -------------------------------------------------------------------------
DATA_Z
  Relative segment, address: CODE_AREA 00017F34 - 00017F37 (0x4 bytes), align: 2
  Segment part 184.           Intra module refs:   Segment part 372
           ENTRY                   ADDRESS         REF BY
           =====                   =======         ======
           serti                   00017F34 
    -------------------------------------------------------------------------
CODE
  Relative segment, address: CODE_AREA 00005134 - 000051C3 (0x90 bytes), align: 2
  Segment part 367.           Intra module refs:   load_bookmark_list
           ENTRY                   ADDRESS         REF BY
           =====                   =======         ======
           get_bookmark            00005134 
               stack 1 = 00000000 ( 00000004 )
    -------------------------------------------------------------------------
CODE
  Relative segment, address: CODE_AREA 000051C4 - 000051C7 (0x4 bytes), align: 2
  Segment part 368.           Intra module refs:   get_bookmark
    -------------------------------------------------------------------------
CODE
  Segment part 369. NOT NEEDED.
    -------------------------------------------------------------------------
CODE
  Relative segment, address: CODE_AREA 000051C8 - 0000559F (0x3d8 bytes), align: 2
  Segment part 370.           Intra module refs:   DoSplices
           ENTRY                   ADDRESS         REF BY
           =====                   =======         ======
           load_bookmark_list      000051C8 
               stack 1 = 00000000 ( 0000003C )
    -------------------------------------------------------------------------
CODE
  Relative segment, address: CODE_AREA 000055A0 - 000055A3 (0x4 bytes), align: 2
  Segment part 371.           Intra module refs:   load_bookmark_list
    -------------------------------------------------------------------------
CODE
  Relative segment, address: CODE_AREA 000055A4 - 000055A7 (0x4 bytes), align: 2
  Segment part 372.           Intra module refs:   get_bookmark
                                                   load_bookmark_list
    -------------------------------------------------------------------------
CODE
  Relative segment, address: CODE_AREA 000055A8 - 000055AB (0x4 bytes), align: 2
  Segment part 373.           Intra module refs:   load_bookmark_list
    -------------------------------------------------------------------------
CODE
  Relative segment, address: CODE_AREA 000055AC - 000055AF (0x4 bytes), align: 2
  Segment part 374.           Intra module refs:   load_bookmark_list
    -------------------------------------------------------------------------
CODE
  Relative segment, address: CODE_AREA 000055B0 - 000055B3 (0x4 bytes), align: 2
  Segment part 375.           Intra module refs:   load_bookmark_list
    -------------------------------------------------------------------------
CODE
  Relative segment, address: CODE_AREA 000055B4 - 000055B7 (0x4 bytes), align: 2
  Segment part 376.           Intra module refs:   load_bookmark_list
    -------------------------------------------------------------------------
CODE
  Relative segment, address: CODE_AREA 000055B8 - 000055BB (0x4 bytes), align: 2
  Segment part 377.           Intra module refs:   load_bookmark_list
    -------------------------------------------------------------------------
CODE
  Relative segment, address: CODE_AREA 000055BC - 000055BF (0x4 bytes), align: 2
  Segment part 378.           Intra module refs:   load_bookmark_list
    -------------------------------------------------------------------------
CODE
  Relative segment, address: CODE_AREA 000055C0 - 000055C3 (0x4 bytes), align: 2
  Segment part 379.           Intra module refs:   load_bookmark_list
    -------------------------------------------------------------------------
CODE
  Relative segment, address: CODE_AREA 000055C4 - 000055C7 (0x4 bytes), align: 2
  Segment part 380.           Intra module refs:   load_bookmark_list
    -------------------------------------------------------------------------
CODE
  Relative segment, address: CODE_AREA 000055C8 - 000055CB (0x4 bytes), align: 2
  Segment part 381.           Intra module refs:   load_bookmark_list
    -------------------------------------------------------------------------
CODE
  Relative segment, address: CODE_AREA 000055CC - 000055CF (0x4 bytes), align: 2
  Segment part 382.           Intra module refs:   load_bookmark_list
    -------------------------------------------------------------------------
CODE
  Relative segment, address: CODE_AREA 000055D0 - 000055D3 (0x4 bytes), align: 2
  Segment part 383.           Intra module refs:   load_bookmark_list
    -------------------------------------------------------------------------
CODE
  Relative segment, address: CODE_AREA 000055D4 - 000055D7 (0x4 bytes), align: 2
  Segment part 384.           Intra module refs:   load_bookmark_list
    -------------------------------------------------------------------------
CODE
  Relative segment, address: CODE_AREA 000055D8 - 000055DB (0x4 bytes), align: 2
  Segment part 385.           Intra module refs:   load_bookmark_list
    -------------------------------------------------------------------------
CODE
  Relative segment, address: CODE_AREA 000055DC - 000055DF (0x4 bytes), align: 2
  Segment part 386.           Intra module refs:   load_bookmark_list
    -------------------------------------------------------------------------
CODE
  Relative segment, address: CODE_AREA 000055E0 - 000055E3 (0x4 bytes), align: 2
  Segment part 387.           Intra module refs:   load_bookmark_list
    -------------------------------------------------------------------------
CODE
  Relative segment, address: CODE_AREA 000055E4 - 000055E7 (0x4 bytes), align: 2
  Segment part 388.           Intra module refs:   load_bookmark_list
    -------------------------------------------------------------------------
CODE
  Relative segment, address: CODE_AREA 000055E8 - 000055EB (0x4 bytes), align: 2
  Segment part 389.           Intra module refs:   load_bookmark_list
    -------------------------------------------------------------------------
CODE
  Relative segment, address: CODE_AREA 000055EC - 000055EF (0x4 bytes), align: 2
  Segment part 390.           Intra module refs:   load_bookmark_list
    -------------------------------------------------------------------------
CODE
  Relative segment, address: CODE_AREA 000055F0 - 000055F3 (0x4 bytes), align: 2
  Segment part 391.           Intra module refs:   load_bookmark_list
    -------------------------------------------------------------------------
CODE
  Relative segment, address: CODE_AREA 000055F4 - 000055F7 (0x4 bytes), align: 2
  Segment part 392.           Intra module refs:   load_bookmark_list
    -------------------------------------------------------------------------
CODE
  Relative segment, address: CODE_AREA 000055F8 - 000055FB (0x4 bytes), align: 2
  Segment part 393.           Intra module refs:   load_bookmark_list
    -------------------------------------------------------------------------
CODE
  Relative segment, address: CODE_AREA 000055FC - 000055FF (0x4 bytes), align: 2
  Segment part 394.           Intra module refs:   load_bookmark_list
    -------------------------------------------------------------------------
CODE
  Relative segment, address: CODE_AREA 00005600 - 00005603 (0x4 bytes), align: 2
  Segment part 395.           Intra module refs:   load_bookmark_list
    -------------------------------------------------------------------------
CODE
  Relative segment, address: CODE_AREA 00005604 - 00005607 (0x4 bytes), align: 2
  Segment part 396.           Intra module refs:   load_bookmark_list
    -------------------------------------------------------------------------
CODE
  Relative segment, address: CODE_AREA 00005608 - 0000560B (0x4 bytes), align: 2
  Segment part 397.           Intra module refs:   load_bookmark_list
    -------------------------------------------------------------------------
CODE
  Relative segment, address: CODE_AREA 0000560C - 0000560F (0x4 bytes), align: 2
  Segment part 398.           Intra module refs:   load_bookmark_list
    -------------------------------------------------------------------------
CODE
  Relative segment, address: CODE_AREA 00005610 - 00005613 (0x4 bytes), align: 2
  Segment part 399.           Intra module refs:   load_bookmark_list
    -------------------------------------------------------------------------
CODE
  Relative segment, address: CODE_AREA 00005614 - 00005617 (0x4 bytes), align: 2
  Segment part 400.           Intra module refs:   load_bookmark_list
    -------------------------------------------------------------------------
CODE
  Relative segment, address: CODE_AREA 00005618 - 0000561B (0x4 bytes), align: 2
  Segment part 401.           Intra module refs:   load_bookmark_list
    -------------------------------------------------------------------------
CODE
  Relative segment, address: CODE_AREA 0000561C - 0000561F (0x4 bytes), align: 2
  Segment part 402.           Intra module refs:   load_bookmark_list
    -------------------------------------------------------------------------
CODE
  Relative segment, address: CODE_AREA 00005620 - 00005623 (0x4 bytes), align: 2
  Segment part 403.           Intra module refs:   load_bookmark_list
    -------------------------------------------------------------------------
CODE
  Relative segment, address: CODE_AREA 00005624 - 00005627 (0x4 bytes), align: 2
  Segment part 404.           Intra module refs:   load_bookmark_list
    -------------------------------------------------------------------------
CODE
  Relative segment, address: CODE_AREA 00005628 - 0000562B (0x4 bytes), align: 2
  Segment part 405.           Intra module refs:   load_bookmark_list
    -------------------------------------------------------------------------
CODE
  Relative segment, address: CODE_AREA 0000562C - 0000562F (0x4 bytes), align: 2
  Segment part 406.           Intra module refs:   load_bookmark_list
    -------------------------------------------------------------------------
CODE
  Relative segment, address: CODE_AREA 00005630 - 00005633 (0x4 bytes), align: 2
  Segment part 407.           Intra module refs:   load_bookmark_list
    -------------------------------------------------------------------------
CODE
  Relative segment, address: CODE_AREA 00005634 - 00005637 (0x4 bytes), align: 2
  Segment part 408.           Intra module refs:   load_bookmark_list
    -------------------------------------------------------------------------
CODE
  Relative segment, address: CODE_AREA 00005638 - 0000563B (0x4 bytes), align: 2
  Segment part 409.           Intra module refs:   load_bookmark_list
    -------------------------------------------------------------------------
CODE
  Relative segment, address: CODE_AREA 0000563C - 0000563F (0x4 bytes), align: 2
  Segment part 410.           Intra module refs:   load_bookmark_list
    -------------------------------------------------------------------------
CODE
  Relative segment, address: CODE_AREA 00005640 - 00005643 (0x4 bytes), align: 2
  Segment part 411.           Intra module refs:   load_bookmark_list
    -------------------------------------------------------------------------
CODE
  Relative segment, address: CODE_AREA 00005644 - 00005647 (0x4 bytes), align: 2
  Segment part 412.           Intra module refs:   load_bookmark_list
    -------------------------------------------------------------------------
CODE
  Relative segment, address: CODE_AREA 00005648 - 0000564B (0x4 bytes), align: 2
  Segment part 413.           Intra module refs:   load_bookmark_list
    -------------------------------------------------------------------------
CODE
  Relative segment, address: CODE_AREA 0000564C - 0000564F (0x4 bytes), align: 2
  Segment part 414.           Intra module refs:   load_bookmark_list
    -------------------------------------------------------------------------
CODE
  Relative segment, address: CODE_AREA 00005650 - 00005653 (0x4 bytes), align: 2
  Segment part 415.           Intra module refs:   load_bookmark_list
    -------------------------------------------------------------------------
CODE
  Relative segment, address: CODE_AREA 00005654 - 00005657 (0x4 bytes), align: 2
  Segment part 416.           Intra module refs:   load_bookmark_list
    -------------------------------------------------------------------------
CODE
  Relative segment, address: CODE_AREA 00005658 - 0000565B (0x4 bytes), align: 2
  Segment part 417.           Intra module refs:   load_bookmark_list
    -------------------------------------------------------------------------
CODE
  Relative segment, address: CODE_AREA 0000565C - 0000565F (0x4 bytes), align: 2
  Segment part 418.           Intra module refs:   load_bookmark_list
    -------------------------------------------------------------------------
CODE
  Relative segment, address: CODE_AREA 00005660 - 00005663 (0x4 bytes), align: 2
  Segment part 419.           Intra module refs:   load_bookmark_list
    -------------------------------------------------------------------------
CODE
  Relative segment, address: CODE_AREA 00005664 - 00005667 (0x4 bytes), align: 2
  Segment part 420.           Intra module refs:   load_bookmark_list
    -------------------------------------------------------------------------
CODE
  Relative segment, address: CODE_AREA 00005668 - 0000566B (0x4 bytes), align: 2
  Segment part 421.           Intra module refs:   load_bookmark_list
    -------------------------------------------------------------------------
CODE
  Relative segment, address: CODE_AREA 0000566C - 0000566F (0x4 bytes), align: 2
  Segment part 422.           Intra module refs:   load_bookmark_list
    -------------------------------------------------------------------------
CODE
  Relative segment, address: CODE_AREA 00005670 - 00005673 (0x4 bytes), align: 2
  Segment part 423.           Intra module refs:   load_bookmark_list
    -------------------------------------------------------------------------
CODE
  Relative segment, address: CODE_AREA 00005674 - 00005677 (0x4 bytes), align: 2
  Segment part 424.           Intra module refs:   load_bookmark_list
    -------------------------------------------------------------------------
CODE
  Relative segment, address: CODE_AREA 00005678 - 0000567B (0x4 bytes), align: 2
  Segment part 425.           Intra module refs:   load_bookmark_list
    -------------------------------------------------------------------------
CODE
  Relative segment, address: CODE_AREA 0000567C - 0000567F (0x4 bytes), align: 2
  Segment part 426.           Intra module refs:   load_bookmark_list
    -------------------------------------------------------------------------
CODE
  Relative segment, address: CODE_AREA 00005680 - 00005683 (0x4 bytes), align: 2
  Segment part 427.           Intra module refs:   load_bookmark_list
    -------------------------------------------------------------------------
CODE
  Relative segment, address: CODE_AREA 00005684 - 00005687 (0x4 bytes), align: 2
  Segment part 428.           Intra module refs:   load_bookmark_list
    -------------------------------------------------------------------------
CODE
  Relative segment, address: CODE_AREA 00005688 - 0000568B (0x4 bytes), align: 2
  Segment part 429.           Intra module refs:   load_bookmark_list
    -------------------------------------------------------------------------
CODE
  Relative segment, address: CODE_AREA 0000568C - 0000568F (0x4 bytes), align: 2
  Segment part 430.           Intra module refs:   load_bookmark_list
    -------------------------------------------------------------------------
CODE
  Relative segment, address: CODE_AREA 00005690 - 00005693 (0x4 bytes), align: 2
  Segment part 431.           Intra module refs:   load_bookmark_list
    -------------------------------------------------------------------------
CODE
  Relative segment, address: CODE_AREA 00005694 - 00005697 (0x4 bytes), align: 2
  Segment part 432.           Intra module refs:   load_bookmark_list
    -------------------------------------------------------------------------
CODE
  Segment part 433. NOT NEEDED.
    -------------------------------------------------------------------------
CODE
  Relative segment, address: CODE_AREA 00005698 - 000057E3 (0x14c bytes), align: 2
  Segment part 434.           Intra module refs:   main
           ENTRY                   ADDRESS         REF BY
           =====                   =======         ======
           DoSplices               00005698 
               stack 1 = 00000000 ( 00000014 )
    -------------------------------------------------------------------------
CODE
  Relative segment, address: CODE_AREA 000057E4 - 000057E7 (0x4 bytes), align: 2
  Segment part 435.           Intra module refs:   DoSplices
    -------------------------------------------------------------------------
CODE
  Relative segment, address: CODE_AREA 000057E8 - 000057EB (0x4 bytes), align: 2
  Segment part 436.           Intra module refs:   DoSplices
                                                   MyIDLECSM_onClose
    -------------------------------------------------------------------------
CODE
  Relative segment, address: CODE_AREA 000057EC - 000057EF (0x4 bytes), align: 2
  Segment part 437.           Intra module refs:   DoSplices
                                                   MyIDLECSM_onClose
    -------------------------------------------------------------------------
CODE
  Relative segment, address: CODE_AREA 000057F0 - 000057F3 (0x4 bytes), align: 2
  Segment part 438.           Intra module refs:   DoSplices
                                                   MyIDLECSM_onMessage
    -------------------------------------------------------------------------
CODE
  Segment part 439. NOT NEEDED.
    -------------------------------------------------------------------------
CODE
  Relative segment, address: CODE_AREA 000057F4 - 00005853 (0x60 bytes), align: 2
  Segment part 440.
           ENTRY                   ADDRESS         REF BY
           =====                   =======         ======
           main                    000057F4        Absolute parts (?ABS_ENTRY_MOD)
               stack 1 = 00000000 ( 00000004 )
    -------------------------------------------------------------------------
CODE
  Relative segment, address: CODE_AREA 00005854 - 00005857 (0x4 bytes), align: 2
  Segment part 441.           Intra module refs:   main
                                                   my_keyhook
    -------------------------------------------------------------------------
CODE
  Relative segment, address: CODE_AREA 00005858 - 0000585B (0x4 bytes), align: 2
  Segment part 442.           Intra module refs:   DoSplices
                                                   MyIDLECSM_onClose
                                                   main
    -------------------------------------------------------------------------
CODE
  Segment part 443. NOT NEEDED.Intra module refs   DoClosery
                                                   SaveRebootList
                                                   SearchIcon
                                                   ShowNaticq
    -------------------------------------------------------------------------
CODE
  Segment part 444. NOT NEEDED.Intra module refs   DrawProgress
                                                   DrawSideProgresbar
    -------------------------------------------------------------------------
CODE
  Segment part 445. NOT NEEDED.Intra module refs   DoClosery
                                                   DrawMainTasks
                                                   OnRedraw
                                                   ShowMenu
                                                   ShowNaticq
                                                   SwitchNext
                                                   task_list3
    -------------------------------------------------------------------------
CODE
  Segment part 446. NOT NEEDED.Intra module refs   onClose
    -------------------------------------------------------------------------
CODE
  Segment part 447. NOT NEEDED.Intra module refs   DoClosery
                                                   MyIDLECSM_onMessage
                                                   OnKey
                                                   ShowNaticq
                                                   SwitchNext
                                                   my_keyhook
    -------------------------------------------------------------------------
CODE
  Segment part 448. NOT NEEDED.Intra module refs   ElfKiller
    -------------------------------------------------------------------------
CODE
  Segment part 449. NOT NEEDED.Intra module refs   GetUnderIdleCSM
    -------------------------------------------------------------------------
CODE
  Segment part 450. NOT NEEDED.Intra module refs   GetUnderIdleCSM
    -------------------------------------------------------------------------
CODE
  Segment part 451. NOT NEEDED.Intra module refs   MyIDLECSM_onMessage
                                                   main
    -------------------------------------------------------------------------
CODE
  Segment part 452. NOT NEEDED.Intra module refs   MyIDLECSM_onClose
    -------------------------------------------------------------------------
CSTACK
  Segment part 1. NOT NEEDED.
    -------------------------------------------------------------------------
DATA_ID
  Relative segment, address: CODE_AREA 00000004 - 00000007 (0x4 bytes), align: 2
  Segment part 54.            Intra module refs:   time_not
    -------------------------------------------------------------------------
DATA_ID
  Relative segment, address: CODE_AREA 00000008 - 00000013 (0xc bytes), align: 2
  Segment part 134.           Intra module refs:   screen2
    -------------------------------------------------------------------------
DATA_ID
  Relative segment, address: CODE_AREA 00000014 - 00000017 (0x4 bytes), align: 2
  Segment part 138.           Intra module refs:   task_list
    -------------------------------------------------------------------------
DATA_ID
  Relative segment, address: CODE_AREA 00000018 - 0000001B (0x4 bytes), align: 2
  Segment part 143.           Intra module refs:   pos
    -------------------------------------------------------------------------
DATA_ID
  Relative segment, address: CODE_AREA 0000001C - 0000001F (0x4 bytes), align: 2
  Segment part 145.           Intra module refs:   total_pos
    -------------------------------------------------------------------------
DATA_ID
  Relative segment, address: CODE_AREA 00000020 - 00000023 (0x4 bytes), align: 2
  Segment part 160.           Intra module refs:   init_rec
    -------------------------------------------------------------------------
DATA_ID
  Segment part 453. TENTATIVE. Used definition from conf_loader
           ENTRY                   ADDRESS         REF BY
           =====                   =======         ======
           ?*?DATA_ID              
    -------------------------------------------------------------------------
INITTAB
  Segment part 454. TENTATIVE. Used definition from conf_loader
           ENTRY                   ADDRESS         REF BY
           =====                   =======         ======
           ?init?tab?DATA_I        
    -------------------------------------------------------------------------
INITTAB
  Segment part 455. TENTATIVE. Used definition from gui
           ENTRY                   ADDRESS         REF BY
           =====                   =======         ======
           ?init?tab?DATA_Z        

    *************************************************************************

  FILE NAME : C:\arm\n_xtask_final(all platforms)\Release_ELKA\Obj\reboot_loader.r79
  PROGRAM MODULE, NAME : reboot_loader

  SEGMENTS IN THE MODULE
  ======================
CODE
  Segment part 12. NOT NEEDED.
    -------------------------------------------------------------------------
CODE
  Relative segment, address: CODE_AREA 0000585C - 000058D3 (0x78 bytes), align: 2
  Segment part 13.            Intra module refs:   load_reboot_list
           ENTRY                   ADDRESS         REF BY
           =====                   =======         ======
           undo_file               0000585C 
               stack 1 = 00000000 ( 0000003C )
    -------------------------------------------------------------------------
CODE
  Segment part 14. NOT NEEDED.
    -------------------------------------------------------------------------
DATA_Z
  Relative segment, address: CODE_AREA 00017F38 - 00017F3B (0x4 bytes), align: 2
  Segment part 10.            Intra module refs:   load_reboot_list
           ENTRY                   ADDRESS         REF BY
           =====                   =======         ======
           zet                     00017F38 
    -------------------------------------------------------------------------
DATA_Z
  Relative segment, address: CODE_AREA 00017F3C - 0001870B (0x7d0 bytes), align: 2
  Segment part 11.            Intra module refs:   Segment part 18
           ENTRY                   ADDRESS         REF BY
           =====                   =======         ======
           soft_list               00017F3C 
    -------------------------------------------------------------------------
CODE
  Relative segment, address: CODE_AREA 000058D4 - 00005963 (0x90 bytes), align: 2
  Segment part 15.            Intra module refs:   load_reboot_list
           ENTRY                   ADDRESS         REF BY
           =====                   =======         ======
           preload_soft_list       000058D4 
               stack 1 = 00000000 ( 0000003C )
    -------------------------------------------------------------------------
CODE
  Segment part 16. NOT NEEDED.
    -------------------------------------------------------------------------
CODE
  Relative segment, address: CODE_AREA 00005964 - 00005AFF (0x19c bytes), align: 2
  Segment part 17.            Intra module refs:   load_reboot_list
           ENTRY                   ADDRESS         REF BY
           =====                   =======         ======
           Searchit                00005964 
               stack 1 = 00000000 ( 00000094 )
    -------------------------------------------------------------------------
CODE
  Relative segment, address: CODE_AREA 00005B00 - 00005B03 (0x4 bytes), align: 2
  Segment part 18.            Intra module refs:   Searchit
                                                   preload_soft_list
    -------------------------------------------------------------------------
CODE
  Segment part 19. NOT NEEDED.
    -------------------------------------------------------------------------
CODE
  Relative segment, address: CODE_AREA 00005B04 - 00005C23 (0x120 bytes), align: 2
  Segment part 20.
           ENTRY                   ADDRESS         REF BY
           =====                   =======         ======
           load_reboot_list        00005B04        DoSplices (main)
               stack 1 = 00000000 ( 00000044 )
    -------------------------------------------------------------------------
CODE
  Relative segment, address: CODE_AREA 00005C24 - 00005C27 (0x4 bytes), align: 2
  Segment part 21.            Intra module refs:   load_reboot_list
                                                   undo_file
    -------------------------------------------------------------------------
CODE
  Segment part 22. NOT NEEDED.Intra module refs:   Searchit
    -------------------------------------------------------------------------
CSTACK
  Segment part 1. NOT NEEDED.
    -------------------------------------------------------------------------
INITTAB
  Segment part 23. TENTATIVE. Used definition from gui
           ENTRY                   ADDRESS         REF BY
           =====                   =======         ======
           ?init?tab?DATA_Z        
    -------------------------------------------------------------------------
DATA_C
  Relative segment, address: CODE_AREA 000064E8 - 000064FB (0x14 bytes), align: 2
  Segment part 2.             Intra module refs:   Segment part 21
    -------------------------------------------------------------------------
DATA_C
  Segment part 3. NOT NEEDED.
    -------------------------------------------------------------------------
DATA_C
  Relative segment, address: CODE_AREA 000064FC - 00006503 (0x8 bytes), align: 2
  Segment part 4.             Intra module refs:   Searchit
    -------------------------------------------------------------------------
DATA_C
  Relative segment, address: CODE_AREA 00006504 - 0000650B (0x8 bytes), align: 2
  Segment part 5.             Intra module refs:   Searchit
    -------------------------------------------------------------------------
DATA_C
  Segment part 6. NOT NEEDED.
    -------------------------------------------------------------------------
DATA_C
  Segment part 7. NOT NEEDED.
    -------------------------------------------------------------------------
DATA_C
  Segment part 8. NOT NEEDED.
    -------------------------------------------------------------------------
DATA_C
  Relative segment, address: CODE_AREA 000067A0 - 000067A2 (0x3 bytes), align: 0
  Segment part 9.             Intra module refs:   Searchit

    *************************************************************************

  FILE NAME : C:\arm\n_xtask_final(all platforms)\Release_ELKA\Obj\strings2.r79
  PROGRAM MODULE, NAME : strings2

  SEGMENTS IN THE MODULE
  ======================
DATA_C
  Relative segment, address: CODE_AREA 0000650C - 00006747 (0x23c bytes), align: 2
  Segment part 2.             Intra module refs:   char16to8
           ENTRY                   ADDRESS         REF BY
           =====                   =======         ======
           unicode2char            0000650C 
    -------------------------------------------------------------------------
CODE
  Segment part 3. NOT NEEDED.
    -------------------------------------------------------------------------
CODE
  Relative segment, address: CODE_AREA 00005C28 - 00005C6F (0x48 bytes), align: 2
  Segment part 4.             Intra module refs:   convWS_to_ANSI
           ENTRY                   ADDRESS         REF BY
           =====                   =======         ======
           char16to8               00005C28 
    -------------------------------------------------------------------------
CODE
  Segment part 5. NOT NEEDED.
    -------------------------------------------------------------------------
CODE
  Relative segment, address: CODE_AREA 00005C70 - 00005CBF (0x50 bytes), align: 2
  Segment part 6.
           ENTRY                   ADDRESS         REF BY
           =====                   =======         ======
           convWS_to_ANSI          00005C70        DoClosery (main)
                                                   SaveRebootList (main)
                                                   SearchIcon (main)
                                                   ShowNaticq (main)
               stack 1 = 00000000 ( 00000014 )
    -------------------------------------------------------------------------
CSTACK
  Segment part 1. NOT NEEDED.

    *************************************************************************

  FILE NAME : C:\arm\n_xtask_final(all platforms)\Release_ELKA\Obj\swaper.r79
  PROGRAM MODULE, NAME : swaper

  SEGMENTS IN THE MODULE
  ======================
CODE
  Segment part 2. NOT NEEDED.
    -------------------------------------------------------------------------
CODE
  Relative segment, address: CODE_AREA 00005CC0 - 00005DD3 (0x114 bytes), align: 2
  Segment part 3.             Intra module refs:   CSMtoTop
           LOCAL                   ADDRESS         
           =====                   =======         
           do_CSMtoTop             00005CC0 
               stack 1 = 00000000 ( 00000018 )
    -------------------------------------------------------------------------
CODE
  Segment part 4. NOT NEEDED.
    -------------------------------------------------------------------------
CODE
  Relative segment, address: CODE_AREA 00005DD4 - 00005DEB (0x18 bytes), align: 2
  Segment part 5.             Intra module refs:   CSMtoTop
           LOCAL                   ADDRESS         
           =====                   =======         
           LLaddToEnd              00005DD5 
               stack 1 = 00000000 ( 00000004 )
    -------------------------------------------------------------------------
CODE
  Segment part 6. NOT NEEDED.
    -------------------------------------------------------------------------
CODE
  Relative segment, address: CODE_AREA 00005DEC - 00005E53 (0x68 bytes), align: 2
  Segment part 7.
           ENTRY                   ADDRESS         REF BY
           =====                   =======         ======
           CSMtoTop                00005DEC        DoClosery (main)
                                                   MyIDLECSM_onMessage (main)
                                                   OnKey (main)
                                                   ShowNaticq (main)
                                                   SwitchNext (main)
                                                   my_keyhook (main)
               stack 1 = 00000000 ( 00000010 )
    -------------------------------------------------------------------------
CSTACK
  Segment part 1. NOT NEEDED.

    *************************************************************************

  FILE NAME : C:\arm2\Embedded Workbench 4.0 Evaluation\ARM\LIB\dl5tpainl8n.r79
  LIBRARY MODULE, NAME : ?errno

  SEGMENTS IN THE MODULE
  ======================
DATA_Z
  Relative segment, address: CODE_AREA 0001870C - 00018713 (0x8 bytes), align: 2
  Segment part 2.             Intra module refs:   _Geterrno
           ENTRY                   ADDRESS         REF BY
           =====                   =======         ======
           _Errno                  00018710 
           _Tls_setup__Errno       0001870C 
    -------------------------------------------------------------------------
CODE
  Segment part 3. NOT NEEDED.
    -------------------------------------------------------------------------
CODE
  Relative segment, address: CODE_AREA 00005E54 - 00005E77 (0x24 bytes), align: 2
  Segment part 4.
           ENTRY                   ADDRESS         REF BY
           =====                   =======         ======
           _Geterrno               00005E54        _Stoul (?xstoul)
               stack 1 = 00000000 ( 00000008 )
    -------------------------------------------------------------------------
CSTACK
  Segment part 1. NOT NEEDED.
    -------------------------------------------------------------------------
INITTAB
  Segment part 5. TENTATIVE. Used definition from gui
           ENTRY                   ADDRESS         REF BY
           =====                   =======         ======
           ?init?tab?DATA_Z        

    -------------------------------------------------------------------------
  LIBRARY MODULE, NAME : ?memchr

  SEGMENTS IN THE MODULE
  ======================
CODE
  Segment part 3. NOT NEEDED.
           ENTRY                   ADDRESS         REF BY
           =====                   =======         ======
           memchr                  
               not allocated function
    -------------------------------------------------------------------------
CODE
  Segment part 4. NOT NEEDED.
    -------------------------------------------------------------------------
DATA_C
  Segment part 2. NOT NEEDED.
           ENTRY                   ADDRESS         REF BY
           =====                   =======         ======
           _Instansiator_memchr    
    -------------------------------------------------------------------------
CODE
  Relative segment, address: CODE_AREA 00005E78 - 00005EA7 (0x30 bytes), align: 2
  Segment part 5.
           ENTRY                   ADDRESS         REF BY
           =====                   =======         ======
           _Memchr                 00005E78        _Stoul (?xstoul)
    -------------------------------------------------------------------------
CSTACK
  Segment part 1. NOT NEEDED.

    -------------------------------------------------------------------------
  LIBRARY MODULE, NAME : ?strtoul

  SEGMENTS IN THE MODULE
  ======================
CODE
  Relative segment, address: CODE_AREA 00005EA8 - 00005EB7 (0x10 bytes), align: 2
  Segment part 3.
           ENTRY                   ADDRESS         REF BY
           =====                   =======         ======
           strtoul                 00005EA8        GetUnderIdleCSM (main)
                                                   Searchit (reboot_loader)
               stack 1 = 00000000 ( 00000008 )
    -------------------------------------------------------------------------
CODE
  Segment part 4. NOT NEEDED. Intra module refs:   strtoul
    -------------------------------------------------------------------------
DATA_C
  Segment part 2. NOT NEEDED.
           ENTRY                   ADDRESS         REF BY
           =====                   =======         ======
           _Instansiator_strtoul   
    -------------------------------------------------------------------------
CSTACK
  Segment part 1. NOT NEEDED.

    -------------------------------------------------------------------------
  LIBRARY MODULE, NAME : ?xstoul

  SEGMENTS IN THE MODULE
  ======================
DATA_C
  Relative segment, address: CODE_AREA 00006748 - 00006797 (0x50 bytes), align: 2
  Segment part 2.             Intra module refs:   _Stoul
    -------------------------------------------------------------------------
CODE
  Segment part 3. NOT NEEDED.
    -------------------------------------------------------------------------
CODE
  Relative segment, address: CODE_AREA 00005EB8 - 00006067 (0x1b0 bytes), align: 2
  Segment part 4.
           ENTRY                   ADDRESS         REF BY
           =====                   =======         ======
           _Stoul                  00005EB8        strtoul (?strtoul)
               stack 1 = 00000000 ( 00000030 )
    -------------------------------------------------------------------------
CODE
  Segment part 5. NOT NEEDED. Intra module refs:   _Stoul
    -------------------------------------------------------------------------
CODE
  Segment part 6. NOT NEEDED. Intra module refs:   _Stoul
    -------------------------------------------------------------------------
CODE
  Segment part 7. NOT NEEDED. Intra module refs:   _Stoul
    -------------------------------------------------------------------------
CSTACK
  Segment part 1. NOT NEEDED.

    -------------------------------------------------------------------------
  LIBRARY MODULE, NAME : ?div_module

  SEGMENTS IN THE MODULE
  ======================
CODE
  Segment part 0. NOT NEEDED.
           ENTRY                   ADDRESS         REF BY
           =====                   =======         ======
           ??divu8_t               
    -------------------------------------------------------------------------
CODE
  Segment part 1. NOT NEEDED.
           ENTRY                   ADDRESS         REF BY
           =====                   =======         ======
           ??divu8_a               
    -------------------------------------------------------------------------
CODE
  Segment part 2. NOT NEEDED.
           ENTRY                   ADDRESS         REF BY
           =====                   =======         ======
           ??divu16_t              
    -------------------------------------------------------------------------
CODE
  Segment part 3. NOT NEEDED.
           ENTRY                   ADDRESS         REF BY
           =====                   =======         ======
           ??divu16_a              
    -------------------------------------------------------------------------
CODE
  Segment part 4. NOT NEEDED.
           ENTRY                   ADDRESS         REF BY
           =====                   =======         ======
           ??divu32_t              
    -------------------------------------------------------------------------
CODE
  Relative segment, address: CODE_AREA 00006068 - 00006073 (0xc bytes), align: 2
  Segment part 5.
           ENTRY                   ADDRESS         REF BY
           =====                   =======         ======
           ??divu32_a              00006068        _Stoul (?xstoul)
    -------------------------------------------------------------------------
CODE
  Segment part 6. NOT NEEDED.
           ENTRY                   ADDRESS         REF BY
           =====                   =======         ======
           ??div8_t                
    -------------------------------------------------------------------------
CODE
  Segment part 7. NOT NEEDED.
           ENTRY                   ADDRESS         REF BY
           =====                   =======         ======
           ??div8_a                
    -------------------------------------------------------------------------
CODE
  Segment part 8. NOT NEEDED.
           ENTRY                   ADDRESS         REF BY
           =====                   =======         ======
           ??div16_t               
    -------------------------------------------------------------------------
CODE
  Segment part 9. NOT NEEDED.
           ENTRY                   ADDRESS         REF BY
           =====                   =======         ======
           ??div16_a               
    -------------------------------------------------------------------------
CODE
  Segment part 10. NOT NEEDED.
           ENTRY                   ADDRESS         REF BY
           =====                   =======         ======
           ??div32_t               
    -------------------------------------------------------------------------
CODE
  Relative segment, address: CODE_AREA 00006074 - 0000608B (0x18 bytes), align: 2
  Segment part 11.
           ENTRY                   ADDRESS         REF BY
           =====                   =======         ======
           ??div32_a               00006074        DrawProgress (main)
                                                   DrawSideProgresbar (main)
    -------------------------------------------------------------------------
CODE
  Relative segment, address: CODE_AREA 0000608C - 00006163 (0xd8 bytes), align: 2
  Segment part 12.            Intra module refs:   ??div32_a
                                                   ??divu32_a




                ****************************************
                *                                      *
                *            MODULE SUMMARY            *
                *                                      *
                ****************************************

Module              CODE   DATA
------              ----   ----
                   (Rel)  (Rel)
?div_module          252
?errno                44
?memchr               48
?strtoul              16
?xstoul              512
conf_loader          437      4
  + shared            12
config_data        3 096
func                   8
gui               34 143
  + shared            12
main              60 488     32
reboot_loader      3 015
strings2             724
swaper               404
N/A (alignment)
------           -------     --
Total:           103 211     36


                ****************************************
                *                                      *
                *              CALL GRAPH              *
                *                                      *
                ****************************************

  ->Sub-tree of type: Indirectly called function tree that does not make
                    : indirect calls (Is not an interrupt and is not flagged
                    : as not overlayable)
                             CSTACK
    | Stack used (prev) :  00000000
  01  task_list3
      | Stack used (prev) :  00000000
      | + function block  :  00000020
  <-Sub-tree of type: Indirectly called function tree that does not make
                    : indirect calls (Is not an interrupt and is not flagged
                    : as not overlayable)
    | Stack used          :  00000020


  ->Sub-tree of type: Indirectly called function tree that does not make
                    : indirect calls (Is not an interrupt and is not flagged
                    : as not overlayable)
                             CSTACK
    | Stack used (prev) :  00000000
  01  close
      | Stack used (prev) :  00000000
      | + function block  :  00000010
  <-Sub-tree of type: Indirectly called function tree that does not make
                    : indirect calls (Is not an interrupt and is not flagged
                    : as not overlayable)
    | Stack used          :  00000010


  ->Sub-tree of type: Indirectly called function tree that does not make
                    : indirect calls (Is not an interrupt and is not flagged
                    : as not overlayable)
                             CSTACK
    | Stack used (prev) :  00000000
  01  OnRedraw
      | Stack used (prev) :  00000000
      | + function block  :  0000006C
  <-Sub-tree of type: Indirectly called function tree that does not make
                    : indirect calls (Is not an interrupt and is not flagged
                    : as not overlayable)
    | Stack used          :  0000006C


  ->Sub-tree of type: Indirectly called function tree that does not make
                    : indirect calls (Is not an interrupt and is not flagged
                    : as not overlayable)
                             CSTACK
    | Stack used (prev) :  00000000
  01  onCreate
      | Stack used (prev) :  00000000
      | + function block  :  00000000
  <-Sub-tree of type: Indirectly called function tree that does not make
                    : indirect calls (Is not an interrupt and is not flagged
                    : as not overlayable)
    | Stack used          :  00000000


  ->Sub-tree of type: Indirectly called function tree that does not make
                    : indirect calls (Is not an interrupt and is not flagged
                    : as not overlayable)
                             CSTACK
    | Stack used (prev) :  00000000
  01  onClose
      | Stack used (prev) :  00000000
      | + function block  :  00000008
  <-Sub-tree of type: Indirectly called function tree that does not make
                    : indirect calls (Is not an interrupt and is not flagged
                    : as not overlayable)
    | Stack used          :  00000008


  ->Sub-tree of type: Indirectly called function tree that does not make
                    : indirect calls (Is not an interrupt and is not flagged
                    : as not overlayable)
                             CSTACK
    | Stack used (prev) :  00000000
  01  onFocus
      | Stack used (prev) :  00000000
      | + function block  :  00000000
  <-Sub-tree of type: Indirectly called function tree that does not make
                    : indirect calls (Is not an interrupt and is not flagged
                    : as not overlayable)
    | Stack used          :  00000000


  ->Sub-tree of type: Indirectly called function tree that does not make
                    : indirect calls (Is not an interrupt and is not flagged
                    : as not overlayable)
                             CSTACK
    | Stack used (prev) :  00000000
  01  onUnfocus
      | Stack used (prev) :  00000000
      | + function block  :  00000004
  <-Sub-tree of type: Indirectly called function tree that does not make
                    : indirect calls (Is not an interrupt and is not flagged
                    : as not overlayable)
    | Stack used          :  00000004


  ->Sub-tree of type: Indirectly called function tree that does not make
                    : indirect calls (Is not an interrupt and is not flagged
                    : as not overlayable)
                             CSTACK
    | Stack used (prev) :  00000000
  01  redrit
      | Stack used (prev) :  00000000
      | + function block  :  00000004
  <-Sub-tree of type: Indirectly called function tree that does not make
                    : indirect calls (Is not an interrupt and is not flagged
                    : as not overlayable)
    | Stack used          :  00000004


  ->Sub-tree of type: Indirectly called function tree that does not make
                    : indirect calls (Is not an interrupt and is not flagged
                    : as not overlayable)
                             CSTACK
    | Stack used (prev) :  00000000
  01  OnKey
      | Stack used (prev) :  00000000
      | + function block  :  00000024
  <-Sub-tree of type: Indirectly called function tree that does not make
                    : indirect calls (Is not an interrupt and is not flagged
                    : as not overlayable)
    | Stack used          :  00000024


  ->Sub-tree of type: Indirectly called function tree that does not make
                    : indirect calls (Is not an interrupt and is not flagged
                    : as not overlayable)
                             CSTACK
    | Stack used (prev) :  00000000
  01  ElfKiller
      | Stack used (prev) :  00000000
      | + function block  :  00000004
  <-Sub-tree of type: Indirectly called function tree that does not make
                    : indirect calls (Is not an interrupt and is not flagged
                    : as not overlayable)
    | Stack used          :  00000004


  ->Sub-tree of type: Indirectly called function tree that does not make
                    : indirect calls (Is not an interrupt and is not flagged
                    : as not overlayable)
                             CSTACK
    | Stack used (prev) :  00000000
  01  method8
      | Stack used (prev) :  00000000
      | + function block  :  00000000
  <-Sub-tree of type: Indirectly called function tree that does not make
                    : indirect calls (Is not an interrupt and is not flagged
                    : as not overlayable)
    | Stack used          :  00000000


  ->Sub-tree of type: Indirectly called function tree that does not make
                    : indirect calls (Is not an interrupt and is not flagged
                    : as not overlayable)
                             CSTACK
    | Stack used (prev) :  00000000
  01  method9
      | Stack used (prev) :  00000000
      | + function block  :  00000000
  <-Sub-tree of type: Indirectly called function tree that does not make
                    : indirect calls (Is not an interrupt and is not flagged
                    : as not overlayable)
    | Stack used          :  00000000


  ->Sub-tree of type: Indirectly called function tree that does not make
                    : indirect calls (Is not an interrupt and is not flagged
                    : as not overlayable)
                             CSTACK
    | Stack used (prev) :  00000000
  01  maincsm_oncreate
      | Stack used (prev) :  00000000
      | + function block  :  00000014
  <-Sub-tree of type: Indirectly called function tree that does not make
                    : indirect calls (Is not an interrupt and is not flagged
                    : as not overlayable)
    | Stack used          :  00000014


  ->Sub-tree of type: Indirectly called function tree that does not make
                    : indirect calls (Is not an interrupt and is not flagged
                    : as not overlayable)
                             CSTACK
    | Stack used (prev) :  00000000
  01  maincsm_onclose
      | Stack used (prev) :  00000000
      | + function block  :  00000000
  <-Sub-tree of type: Indirectly called function tree that does not make
                    : indirect calls (Is not an interrupt and is not flagged
                    : as not overlayable)
    | Stack used          :  00000000


  ->Sub-tree of type: Indirectly called function tree that does not make
                    : indirect calls (Is not an interrupt and is not flagged
                    : as not overlayable)
                             CSTACK
    | Stack used (prev) :  00000000
  01  maincsm_onmessage
      | Stack used (prev) :  00000000
      | + function block  :  00000000
  <-Sub-tree of type: Indirectly called function tree that does not make
                    : indirect calls (Is not an interrupt and is not flagged
                    : as not overlayable)
    | Stack used          :  00000000


  ->Sub-tree of type: Indirectly called function tree that does not make
                    : indirect calls (Is not an interrupt and is not flagged
                    : as not overlayable)
                             CSTACK
    | Stack used (prev) :  00000000
  01  my_keyhook
      | Stack used (prev) :  00000000
      | + function block  :  00000028
  <-Sub-tree of type: Indirectly called function tree that does not make
                    : indirect calls (Is not an interrupt and is not flagged
                    : as not overlayable)
    | Stack used          :  00000028


  ->Sub-tree of type: Indirectly called function tree that does not make
                    : indirect calls (Is not an interrupt and is not flagged
                    : as not overlayable)
                             CSTACK
    | Stack used (prev) :  00000000
  01  MyIDLECSM_onMessage
      | Stack used (prev) :  00000000
      | + function block  :  00000068
  <-Sub-tree of type: Indirectly called function tree that does not make
                    : indirect calls (Is not an interrupt and is not flagged
                    : as not overlayable)
    | Stack used          :  00000068


  ->Sub-tree of type: Indirectly called function tree that does not make
                    : indirect calls (Is not an interrupt and is not flagged
                    : as not overlayable)
                             CSTACK
    | Stack used (prev) :  00000000
  01  MyIDLECSM_onClose
      | Stack used (prev) :  00000000
      | + function block  :  00000008
  <-Sub-tree of type: Indirectly called function tree that does not make
                    : indirect calls (Is not an interrupt and is not flagged
                    : as not overlayable)
    | Stack used          :  00000008


  ->Sub-tree of type: Indirectly called function tree that does not make
                    : indirect calls (Is not an interrupt and is not flagged
                    : as not overlayable)
                             CSTACK
    | Stack used (prev) :  00000000
  01  DoSplices
      | Stack used (prev) :  00000000
      | + function block  :  00000014
  <-Sub-tree of type: Indirectly called function tree that does not make
                    : indirect calls (Is not an interrupt and is not flagged
                    : as not overlayable)
    | Stack used          :  00000014


  ->Sub-tree of type: Indirectly called function tree that does not make
                    : indirect calls (Is not an interrupt and is not flagged
                    : as not overlayable)
                             CSTACK
    | Stack used (prev) :  00000000
  01  load_reboot_list
      | Stack used (prev) :  00000000
      | + function block  :  00000044
  <-Sub-tree of type: Indirectly called function tree that does not make
                    : indirect calls (Is not an interrupt and is not flagged
                    : as not overlayable)
    | Stack used          :  00000044


  ->Sub-tree of type: Indirectly called function tree that does not make
                    : indirect calls (Is not an interrupt and is not flagged
                    : as not overlayable)
                             CSTACK
    | Stack used (prev) :  00000000
  01  do_CSMtoTop
      | Stack used (prev) :  00000000
      | + function block  :  00000018
  <-Sub-tree of type: Indirectly called function tree that does not make
                    : indirect calls (Is not an interrupt and is not flagged
                    : as not overlayable)
    | Stack used          :  00000018


  ->Sub-tree of type: Indirectly called function tree that does not make
                    : indirect calls (Is not an interrupt and is not flagged
                    : as not overlayable)
                             CSTACK
    | Stack used (prev) :  00000000
  01  strtoul
      | Stack used (prev) :  00000000
      | + function block  :  00000008
  <-Sub-tree of type: Indirectly called function tree that does not make
                    : indirect calls (Is not an interrupt and is not flagged
                    : as not overlayable)
    | Stack used          :  00000008


  ->Sub-tree of type: Function tree
                             CSTACK
    | Stack used (prev) :  0000006C
  01  SaveConfigData
      | Stack used (prev) :  0000006C
      | + function block  :  00000018
  <-Sub-tree of type: Function tree
    | Stack used          :  00000084


  ->Sub-tree of type: Function tree
                             CSTACK
    | Stack used (prev) :  00000084
  01  LoadConfigData
      | Stack used (prev) :  00000084
      | + function block  :  00000028
  <-Sub-tree of type: Function tree
    | Stack used          :  000000AC


  ->Sub-tree of type: Function tree
                             CSTACK
    | Stack used (prev) :  000000AC
  01  InitConfig
      | Stack used (prev) :  000000AC
      | + function block  :  00000004
  <-Sub-tree of type: Function tree
    | Stack used          :  000000B0


  ->Sub-tree of type: Function tree
                             CSTACK
    | Stack used (prev) :  000000B0
  01  strncmp_nocase
      | Stack used (prev) :  000000B0
      | + function block  :  00000004
  <-Sub-tree of type: Function tree
    | Stack used          :  000000B4


  ->Sub-tree of type: Function tree
                             CSTACK
    | Stack used (prev) :  000000B4
  01  ClearNL
      | Stack used (prev) :  000000B4
      | + function block  :  0000000C
  <-Sub-tree of type: Function tree
    | Stack used          :  000000C0


  ->Sub-tree of type: Function tree
                             CSTACK
    | Stack used (prev) :  000000C0
  01  AddNL
      | Stack used (prev) :  000000C0
      | + function block  :  00000010
  <-Sub-tree of type: Function tree
    | Stack used          :  000000D0


  ->Sub-tree of type: Function tree
                             CSTACK
    | Stack used (prev) :  000000D0
  01  find_name
      | Stack used (prev) :  000000D0
      | + function block  :  00000034
  <-Sub-tree of type: Function tree
    | Stack used          :  00000104


  ->Sub-tree of type: Function tree
                             CSTACK
    | Stack used (prev) :  00000104
  01  GetNumberOfDialogs
      | Stack used (prev) :  00000104
      | + function block  :  00000068
  <-Sub-tree of type: Function tree
    | Stack used          :  0000016C


  ->Sub-tree of type: Function tree
                             CSTACK
    | Stack used (prev) :  0000016C
  01  DrwImage
      | Stack used (prev) :  0000016C
      | + function block  :  00000040
  <-Sub-tree of type: Function tree
    | Stack used          :  000001AC


  ->Sub-tree of type: Function tree
                             CSTACK
    | Stack used (prev) :  000001AC
  01  init_paths
      | Stack used (prev) :  000001AC
      | + function block  :  0000008C
  <-Sub-tree of type: Function tree
    | Stack used          :  00000238


  ->Sub-tree of type: Function tree
                             CSTACK
    | Stack used (prev) :  00000238
  01  Start_bookmark
      | Stack used (prev) :  00000238
      | + function block  :  00000008
  <-Sub-tree of type: Function tree
    | Stack used          :  00000240


  ->Sub-tree of type: Function tree
                             CSTACK
    | Stack used (prev) :  00000240
  01  DoScreen2
      | Stack used (prev) :  00000240
      | + function block  :  00000014
  <-Sub-tree of type: Function tree
    | Stack used          :  00000254


  ->Sub-tree of type: Function tree
                             CSTACK
    | Stack used (prev) :  00000254
  01  SaveRebootList
      | Stack used (prev) :  00000254
      | + function block  :  0000008C
  <-Sub-tree of type: Function tree
    | Stack used          :  000002E0


  ->Sub-tree of type: Function tree
                             CSTACK
    | Stack used (prev) :  000002E0
  01  DrawProgress
      | Stack used (prev) :  000002E0
      | + function block  :  00000048
  <-Sub-tree of type: Function tree
    | Stack used          :  00000328


  ->Sub-tree of type: Function tree
                             CSTACK
    | Stack used (prev) :  00000328
  01  check_name
      | Stack used (prev) :  00000328
      | + function block  :  0000000C
  <-Sub-tree of type: Function tree
    | Stack used          :  00000334


  ->Sub-tree of type: Function tree
                             CSTACK
    | Stack used (prev) :  00000334
  01  SearchIcon
      | Stack used (prev) :  00000334
      | + function block  :  00000134
  <-Sub-tree of type: Function tree
    | Stack used          :  00000468


  ->Sub-tree of type: Function tree
                             CSTACK
    | Stack used (prev) :  00000468
  01  DrawMainTasks
      | Stack used (prev) :  00000468
      | + function block  :  00000018
  <-Sub-tree of type: Function tree
    | Stack used          :  00000480


  ->Sub-tree of type: Function tree
                             CSTACK
    | Stack used (prev) :  00000480
  01  DrawSideProgresbar
      | Stack used (prev) :  00000480
      | + function block  :  00000024
  <-Sub-tree of type: Function tree
    | Stack used          :  000004A4


  ->Sub-tree of type: Function tree
                             CSTACK
    | Stack used (prev) :  000004A4
  01  DrawCPU
      | Stack used (prev) :  000004A4
      | + function block  :  00000014
  <-Sub-tree of type: Function tree
    | Stack used          :  000004B8


  ->Sub-tree of type: Function tree
                             CSTACK
    | Stack used (prev) :  000004B8
  01  GetUnderIdleCSM
      | Stack used (prev) :  000004B8
      | + function block  :  0000000C
  <-Sub-tree of type: Function tree
    | Stack used          :  000004C4


  ->Sub-tree of type: Function tree
                             CSTACK
    | Stack used (prev) :  000004C4
  01  ShowMenu
      | Stack used (prev) :  000004C4
      | + function block  :  00000044
  <-Sub-tree of type: Function tree
    | Stack used          :  00000508


  ->Sub-tree of type: Function tree
                             CSTACK
    | Stack used (prev) :  00000508
  01  DoClosery
      | Stack used (prev) :  00000508
      | + function block  :  00000014
  <-Sub-tree of type: Function tree
    | Stack used          :  0000051C


  ->Sub-tree of type: Function tree
                             CSTACK
    | Stack used (prev) :  0000051C
  01  ShowNaticq
      | Stack used (prev) :  0000051C
      | + function block  :  0000000C
  <-Sub-tree of type: Function tree
    | Stack used          :  00000528


  ->Sub-tree of type: Function tree
                             CSTACK
    | Stack used (prev) :  00000528
  01  SwitchNext
      | Stack used (prev) :  00000528
      | + function block  :  0000000C
  <-Sub-tree of type: Function tree
    | Stack used          :  00000534


  ->Sub-tree of type: Function tree
                             CSTACK
    | Stack used (prev) :  00000534
  01  strcmp_nocase
      | Stack used (prev) :  00000534
      | + function block  :  00000000
  <-Sub-tree of type: Function tree
    | Stack used          :  00000534


  ->Sub-tree of type: Function tree
                             CSTACK
    | Stack used (prev) :  00000534
  01  load_icon_list
      | Stack used (prev) :  00000534
      | + function block  :  00000040
  <-Sub-tree of type: Function tree
    | Stack used          :  00000574


  ->Sub-tree of type: Function tree
                             CSTACK
    | Stack used (prev) :  00000574
  01  get_bookmark
      | Stack used (prev) :  00000574
      | + function block  :  00000004
  <-Sub-tree of type: Function tree
    | Stack used          :  00000578


  ->Sub-tree of type: Function tree
                             CSTACK
    | Stack used (prev) :  00000578
  01  load_bookmark_list
      | Stack used (prev) :  00000578
      | + function block  :  0000003C
  <-Sub-tree of type: Function tree
    | Stack used          :  000005B4


  ->Sub-tree of type: Function tree
                             CSTACK
    | Stack used (prev) :  000005B4
  01  main
      | Stack used (prev) :  000005B4
      | + function block  :  00000004
  <-Sub-tree of type: Function tree
    | Stack used          :  000005B8


  ->Sub-tree of type: Function tree
                             CSTACK
    | Stack used (prev) :  000005B8
  01  undo_file
      | Stack used (prev) :  000005B8
      | + function block  :  0000003C
  <-Sub-tree of type: Function tree
    | Stack used          :  000005F4


  ->Sub-tree of type: Function tree
                             CSTACK
    | Stack used (prev) :  000005F4
  01  preload_soft_list
      | Stack used (prev) :  000005F4
      | + function block  :  0000003C
  <-Sub-tree of type: Function tree
    | Stack used          :  00000630


  ->Sub-tree of type: Function tree
                             CSTACK
    | Stack used (prev) :  00000630
  01  Searchit
      | Stack used (prev) :  00000630
      | + function block  :  00000094
  <-Sub-tree of type: Function tree
    | Stack used          :  000006C4


  ->Sub-tree of type: Function tree
                             CSTACK
    | Stack used (prev) :  000006C4
  01  char16to8
      | Stack used (prev) :  000006C4
      | + function block  :  00000000
  <-Sub-tree of type: Function tree
    | Stack used          :  000006C4


  ->Sub-tree of type: Function tree
                             CSTACK
    | Stack used (prev) :  000006C4
  01  convWS_to_ANSI
      | Stack used (prev) :  000006C4
      | + function block  :  00000014
  <-Sub-tree of type: Function tree
    | Stack used          :  000006D8


  ->Sub-tree of type: Function tree
                             CSTACK
    | Stack used (prev) :  000006D8
  01  LLaddToEnd
      | Stack used (prev) :  000006D8
      | + function block  :  00000004
  <-Sub-tree of type: Function tree
    | Stack used          :  000006DC


  ->Sub-tree of type: Function tree
                             CSTACK
    | Stack used (prev) :  000006DC
  01  CSMtoTop
      | Stack used (prev) :  000006DC
      | + function block  :  00000010
  <-Sub-tree of type: Function tree
    | Stack used          :  000006EC


  ->Sub-tree of type: Function tree
                             CSTACK
    | Stack used (prev) :  000006EC
  01  _Geterrno
      | Stack used (prev) :  000006EC
      | + function block  :  00000008
  <-Sub-tree of type: Function tree
    | Stack used          :  000006F4


  ->Sub-tree of type: Function tree
                             CSTACK
    | Stack used (prev) :  000006F4
  01  _Memchr
      | Stack used (prev) :  000006F4
      | + function block  :  00000000
  <-Sub-tree of type: Function tree
    | Stack used          :  000006F4


  ->Sub-tree of type: Function tree
                             CSTACK
    | Stack used (prev) :  000006F4
  01  _Stoul
      | Stack used (prev) :  000006F4
      | + function block  :  00000030
  <-Sub-tree of type: Function tree
    | Stack used          :  00000724




                ****************************************
                *                                      *
                *      SEGMENTS IN ADDRESS ORDER       *
                *                                      *
                ****************************************


SEGMENT              SPACE    START ADDRESS   END ADDRESS     SIZE  TYPE  ALIGN
=======              =====    =============   ===========     ====  ====  =====
ELFBEGIN             CODE_AREA           00000000                     rel    0
DATA_ID              CODE_AREA      00000000 - 00000023          24   rel    2
START                CODE_AREA           00000024                     dse    0
CODE                 CODE_AREA      00000024 - 00006163        6140   rel    2
DATA_C               CODE_AREA      00006164 - 000067A2         63F   rel    2
INITTAB              CODE_AREA      000067A4 - 000067BB          18   rel    2
DATA_Z               CODE_AREA      000067BC - 00018713       11F58   rel    2
DATA_N               CODE_AREA           00018714                     dse    0
CONFIG_C             CODE_AREA      00018714 - 0001932B         C18   rel    2
DATA_I               DATA_AREA      00000000 - 00000023          24   rel    2

                ****************************************
                *                                      *
                *        END OF CROSS REFERENCE        *
                *                                      *
                ****************************************

 103 211 bytes of CODE memory
      36 bytes of DATA memory

Errors: none
Warnings: none

