################################################################################
#                                                                              #
#      IAR Universal Linker V4.60I/386                                         #
#                                                                              #
#           Link time     =  27/Dec/2010  18:21:21                             #
#           Target CPU    =  ARM                                               #
#           List file     =  C:\arm\BalletMini\Release_ELKA\List\BalletMini.ma #
#                            p                                                 #
#           Output file 1 =  C:\arm\BalletMini\Release_ELKA\Exe\BalletMini.elf #
#                            Format: elf, variant: -ynpra                      #
#           Command line  =  C:\arm\BalletMini\Release_ELKA\Obj\additems.r79   #
#                            C:\arm\BalletMini\Release_ELKA\Obj\conf_loader.r7 #
#                            9                                                 #
#                            C:\arm\BalletMini\Release_ELKA\Obj\config_data.r7 #
#                            9                                                 #
#                            C:\arm\BalletMini\Release_ELKA\Obj\destructors.r7 #
#                            9                                                 #
#                            C:\arm\BalletMini\Release_ELKA\Obj\display_utils. #
#                            r79                                               #
#                            C:\arm\BalletMini\Release_ELKA\Obj\file_works.r79 #
#                            C:\arm\BalletMini\Release_ELKA\Obj\fileman.r79    #
#                            C:\arm\BalletMini\Release_ELKA\Obj\func.r79       #
#                            C:\arm\BalletMini\Release_ELKA\Obj\history.r79    #
#                            C:\arm\BalletMini\Release_ELKA\Obj\inet.r79       #
#                            C:\arm\BalletMini\Release_ELKA\Obj\lang.r79       #
#                            C:\arm\BalletMini\Release_ELKA\Obj\main.r79       #
#                            C:\arm\BalletMini\Release_ELKA\Obj\mainmenu.r79   #
#                            C:\arm\BalletMini\Release_ELKA\Obj\parse_oms.r79  #
#                            C:\arm\BalletMini\Release_ELKA\Obj\rand.r79       #
#                            C:\arm\BalletMini\Release_ELKA\Obj\readimg.r79    #
#                            C:\arm\BalletMini\Release_ELKA\Obj\string_works.r #
#                            79                                                #
#                            C:\arm\BalletMini\Release_ELKA\Obj\upload.r79     #
#                            C:\arm\BalletMini\Release_ELKA\Obj\url_utils.r79  #
#                            C:\arm\BalletMini\Release_ELKA\Obj\urlstack.r79   #
#                            C:\arm\BalletMini\jpeglib\jpeglib.r79 -o          #
#                            C:\arm\BalletMini\Release_ELKA\Exe\BalletMini.elf #
#                            -Felf -l                                          #
#                            C:\arm\BalletMini\Release_ELKA\List\BalletMini.ma #
#                            p                                                 #
#                            -xmsnio -f C:\arm\BalletMini\test.xcl (-carm      #
#                            -V(CODE)CODE_AREA,12 -V(DATA)DATA_AREA,12         #
#                            -Z(CODE_AREA)ELFBEGIN,DATA_ID,START,CODE,DATA_C,I #
#                            NITTAB,DATA_Z,DATA_N,CONFIG_C=0-FFFFFFFF          #
#                            -Z(DATA_AREA)DATA_I=0-FFFFFFFF) -ynpra            #
#                            "C:\arm2\Embedded Workbench 4.0 Evaluation\ARM\LI #
#                            B\dl5tpainl8n.r79"                                #
#                            -s main                                           #
#                                                                              #
#                        Copyright 1987-2007 IAR Systems. All rights reserved. #
################################################################################





                ****************************************
                *                                      *
                *           CROSS REFERENCE            *
                *                                      *
                ****************************************

       Program entry at : CODE_AREA 00009184  Relocatable, from module : main




                ****************************************
                *                                      *
                *            RUNTIME MODEL             *
                *                                      *
                ****************************************

  StackAlign4  = USED
  __cpu_mode   = __pcs__interwork
  __data_model = absolute
  __endian     = little
  __rt_version = 6



                ****************************************
                *                                      *
                *              MODULE MAP              *
                *                                      *
                ****************************************


  DEFINED ABSOLUTE ENTRIES
    *************************************************************************

  DEFINED ABSOLUTE ENTRIES
    *************************************************************************

  FILE NAME : C:\arm\BalletMini\Release_ELKA\Obj\additems.r79
  PROGRAM MODULE, NAME : additems

  SEGMENTS IN THE MODULE
  ======================
CODE
  Segment part 8. NOT NEEDED.
    -------------------------------------------------------------------------
CODE
  Relative segment, address: CODE_AREA 00000984 - 000009D3 (0x50 bytes), align: 2
  Segment part 9.             Intra module refs:   AddBeginRef
                                                   AddBeginRefZ
                                                   AddButtonItem
                                                   AddCheckBoxItem
                                                   AddDropDownList
                                                   AddEndRef
                                                   AddInputItem
                                                   AddNewStyle
                                                   AddPictureItem
                                                   AddPictureItemFrame
                                                   AddPictureItemHr
                                                   AddPictureItemIndex
                                                   AddPictureItemRGBA
                                                   AddRadioButton
                                                   AddTextItem
           ENTRY                   ADDRESS         REF BY
           =====                   =======         ======
           RawInsertChar           00000984 
               stack 1 = 00000000 ( 0000000C )
    -------------------------------------------------------------------------
CODE
  Segment part 10. NOT NEEDED.
    -------------------------------------------------------------------------
CODE
  Relative segment, address: CODE_AREA 000009D4 - 00000B13 (0x140 bytes), align: 2
  Segment part 11.
           ENTRY                   ADDRESS         REF BY
           =====                   =======         ======
           AddNewStyle             000009D4        OMS_DataArrived (parse_oms)
               stack 1 = 00000000 ( 00000008 )
    -------------------------------------------------------------------------
CODE
  Segment part 12. NOT NEEDED.
    -------------------------------------------------------------------------
CODE
  Relative segment, address: CODE_AREA 00000B14 - 00000B27 (0x14 bytes), align: 2
  Segment part 13.
           ENTRY                   ADDRESS         REF BY
           =====                   =======         ======
           AddBeginRef             00000B14        OMS_DataArrived (parse_oms)
               stack 1 = 00000000 ( 00000004 )
    -------------------------------------------------------------------------
CODE
  Segment part 14. NOT NEEDED.
    -------------------------------------------------------------------------
CODE
  Relative segment, address: CODE_AREA 00000B28 - 00000B3B (0x14 bytes), align: 2
  Segment part 15.
           ENTRY                   ADDRESS         REF BY
           =====                   =======         ======
           AddBeginRefZ            00000B28        OMS_DataArrived (parse_oms)
               stack 1 = 00000000 ( 00000004 )
    -------------------------------------------------------------------------
CODE
  Segment part 16. NOT NEEDED.
    -------------------------------------------------------------------------
CODE
  Relative segment, address: CODE_AREA 00000B3C - 00000BAB (0x70 bytes), align: 2
  Segment part 17.            Intra module refs:   AddEndRef
           ENTRY                   ADDRESS         REF BY
           =====                   =======         ======
           AddToRefCache           00000B3C        OMS_DataArrived (parse_oms)
               stack 1 = 00000000 ( 00000008 )
    -------------------------------------------------------------------------
CODE
  Segment part 18. NOT NEEDED.
    -------------------------------------------------------------------------
CODE
  Relative segment, address: CODE_AREA 00000BAC - 00000BE3 (0x38 bytes), align: 2
  Segment part 19.
           ENTRY                   ADDRESS         REF BY
           =====                   =======         ======
           AddEndRef               00000BAC        OMS_DataArrived (parse_oms)
               stack 1 = 00000000 ( 00000008 )
    -------------------------------------------------------------------------
CODE
  Segment part 20. NOT NEEDED.
    -------------------------------------------------------------------------
CODE
  Relative segment, address: CODE_AREA 00000BE4 - 00000C77 (0x94 bytes), align: 2
  Segment part 21.            Intra module refs:   AddBrItem
                                                   AddPItem
           ENTRY                   ADDRESS         REF BY
           =====                   =======         ======
           AddTextItem             00000BE4        OMS_DataArrived (parse_oms)
               stack 1 = 00000000 ( 00000010 )
    -------------------------------------------------------------------------
CODE
  Segment part 22. NOT NEEDED.
    -------------------------------------------------------------------------
CODE
  Relative segment, address: CODE_AREA 00000C78 - 00000C87 (0x10 bytes), align: 2
  Segment part 23.
           ENTRY                   ADDRESS         REF BY
           =====                   =======         ======
           AddBrItem               00000C78        OMS_DataArrived (parse_oms)
               stack 1 = 00000000 ( 00000004 )
    -------------------------------------------------------------------------
CODE
  Segment part 24. NOT NEEDED.
    -------------------------------------------------------------------------
CODE
  Relative segment, address: CODE_AREA 00000C88 - 00000C97 (0x10 bytes), align: 2
  Segment part 25.
           ENTRY                   ADDRESS         REF BY
           =====                   =======         ======
           AddPItem                00000C88        OMS_DataArrived (parse_oms)
               stack 1 = 00000000 ( 00000004 )
    -------------------------------------------------------------------------
CODE
  Segment part 26. NOT NEEDED.
    -------------------------------------------------------------------------
CODE
  Relative segment, address: CODE_AREA 00000C98 - 00000CC7 (0x30 bytes), align: 2
  Segment part 27.
           ENTRY                   ADDRESS         REF BY
           =====                   =======         ======
           AddPictureItemIndex     00000C98        OMS_DataArrived (parse_oms)
               stack 1 = 00000000 ( 00000004 )
    -------------------------------------------------------------------------
CODE
  Segment part 28. NOT NEEDED.
    -------------------------------------------------------------------------
CODE
  Relative segment, address: CODE_AREA 00000CC8 - 00000E27 (0x160 bytes), align: 2
  Segment part 29.            Intra module refs:   AddButtonItem
                                                   AddPictureItem
                                                   AddPictureItemFile
                                                   AddPictureItemFrame
                                                   AddPictureItemHr
                                                   AddPictureItemRGBA
           ENTRY                   ADDRESS         REF BY
           =====                   =======         ======
           AddToDPngQueue          00000CC8 
               stack 1 = 00000000 ( 0000001C )
    -------------------------------------------------------------------------
CODE
  Segment part 30. NOT NEEDED.
    -------------------------------------------------------------------------
CODE
  Relative segment, address: CODE_AREA 00000E28 - 00000E83 (0x5c bytes), align: 2
  Segment part 31.
           ENTRY                   ADDRESS         REF BY
           =====                   =======         ======
           AddPictureItem          00000E28        OMS_DataArrived (parse_oms)
               stack 1 = 00000000 ( 00000010 )
    -------------------------------------------------------------------------
CODE
  Segment part 32. NOT NEEDED.
    -------------------------------------------------------------------------
CODE
  Relative segment, address: CODE_AREA 00000E84 - 00000ED7 (0x54 bytes), align: 2
  Segment part 33.
           ENTRY                   ADDRESS         REF BY
           =====                   =======         ======
           AddPictureItemRGBA      00000E84        OMS_DataArrived (parse_oms)
               stack 1 = 00000000 ( 0000000C )
    -------------------------------------------------------------------------
CODE
  Segment part 34. NOT NEEDED.
    -------------------------------------------------------------------------
CODE
  Relative segment, address: CODE_AREA 00000ED8 - 00000F1B (0x44 bytes), align: 2
  Segment part 35.            Intra module refs:   AddPictureItemFrame
           ENTRY                   ADDRESS         REF BY
           =====                   =======         ======
           FindOmsFrameBySize      00000ED8 
    -------------------------------------------------------------------------
CODE
  Segment part 36. NOT NEEDED.
    -------------------------------------------------------------------------
CODE
  Relative segment, address: CODE_AREA 00000F1C - 00000F83 (0x68 bytes), align: 2
  Segment part 37.
           ENTRY                   ADDRESS         REF BY
           =====                   =======         ======
           AddPictureItemFrame     00000F1C        OMS_DataArrived (parse_oms)
               stack 1 = 00000000 ( 00000014 )
    -------------------------------------------------------------------------
CODE
  Segment part 38. NOT NEEDED.
    -------------------------------------------------------------------------
CODE
  Relative segment, address: CODE_AREA 00000F84 - 00000FF7 (0x74 bytes), align: 2
  Segment part 39.
           ENTRY                   ADDRESS         REF BY
           =====                   =======         ======
           AddPictureItemHr        00000F84        OMS_DataArrived (parse_oms)
               stack 1 = 00000000 ( 00000010 )
    -------------------------------------------------------------------------
CODE
  Segment part 40. NOT NEEDED.
    -------------------------------------------------------------------------
CODE
  Relative segment, address: CODE_AREA 00000FF8 - 0000105B (0x64 bytes), align: 2
  Segment part 41.            Intra module refs:   AddCheckBoxItem
                                                   AddDropDownList
                                                   AddInputItem
                                                   AddRadioButton
           ENTRY                   ADDRESS         REF BY
           =====                   =======         ======
           AddPictureItemFile      00000FF8 
               stack 1 = 00000000 ( 0000003C )
    -------------------------------------------------------------------------
CODE
  Segment part 42. NOT NEEDED.
    -------------------------------------------------------------------------
CODE
  Relative segment, address: CODE_AREA 0000105C - 000010DB (0x80 bytes), align: 2
  Segment part 43.
           ENTRY                   ADDRESS         REF BY
           =====                   =======         ======
           AddRadioButton          0000105C        OMS_DataArrived (parse_oms)
               stack 1 = 00000000 ( 00000014 )
    -------------------------------------------------------------------------
CODE
  Segment part 44. NOT NEEDED.
    -------------------------------------------------------------------------
CODE
  Relative segment, address: CODE_AREA 000010DC - 0000115B (0x80 bytes), align: 2
  Segment part 45.
           ENTRY                   ADDRESS         REF BY
           =====                   =======         ======
           AddCheckBoxItem         000010DC        OMS_DataArrived (parse_oms)
               stack 1 = 00000000 ( 00000014 )
    -------------------------------------------------------------------------
CODE
  Segment part 46. NOT NEEDED.
    -------------------------------------------------------------------------
CODE
  Relative segment, address: CODE_AREA 0000115C - 00001213 (0xb8 bytes), align: 2
  Segment part 47.
           ENTRY                   ADDRESS         REF BY
           =====                   =======         ======
           AddInputItem            0000115C        OMS_DataArrived (parse_oms)
               stack 1 = 00000000 ( 00000010 )
    -------------------------------------------------------------------------
CODE
  Segment part 48. NOT NEEDED.
    -------------------------------------------------------------------------
CODE
  Relative segment, address: CODE_AREA 00001214 - 00001343 (0x130 bytes), align: 2
  Segment part 49.
           ENTRY                   ADDRESS         REF BY
           =====                   =======         ======
           AddButtonItem           00001214        OMS_DataArrived (parse_oms)
               stack 1 = 00000000 ( 00000018 )
    -------------------------------------------------------------------------
CODE
  Segment part 50. NOT NEEDED.
    -------------------------------------------------------------------------
CODE
  Relative segment, address: CODE_AREA 00001344 - 0000139F (0x5c bytes), align: 2
  Segment part 51.
           ENTRY                   ADDRESS         REF BY
           =====                   =======         ======
           AddDropDownList         00001344        OMS_DataArrived (parse_oms)
               stack 1 = 00000000 ( 0000000C )
    -------------------------------------------------------------------------
CODE
  Segment part 52. NOT NEEDED.Intra module refs:   AddPictureItem
    -------------------------------------------------------------------------
CODE
  Segment part 53. NOT NEEDED.Intra module refs:   AddPictureItem
    -------------------------------------------------------------------------
CODE
  Segment part 54. NOT NEEDED.Intra module refs:   AddPictureItemRGBA
    -------------------------------------------------------------------------
CODE
  Segment part 55. NOT NEEDED.Intra module refs:   AddPictureItemFrame
    -------------------------------------------------------------------------
CODE
  Segment part 56. NOT NEEDED.Intra module refs:   AddPictureItemHr
    -------------------------------------------------------------------------
CODE
  Segment part 57. NOT NEEDED.Intra module refs:   AddCheckBoxItem
                                                   AddDropDownList
                                                   AddInputItem
                                                   AddRadioButton
    -------------------------------------------------------------------------
CODE
  Segment part 58. NOT NEEDED.Intra module refs:   AddInputItem
    -------------------------------------------------------------------------
CODE
  Segment part 59. NOT NEEDED.Intra module refs:   AddInputItem
    -------------------------------------------------------------------------
CODE
  Segment part 60. NOT NEEDED.Intra module refs:   AddInputItem
    -------------------------------------------------------------------------
CODE
  Segment part 61. NOT NEEDED.Intra module refs:   AddButtonItem
                                                   AddInputItem
    -------------------------------------------------------------------------
CODE
  Segment part 62. NOT NEEDED.Intra module refs:   AddButtonItem
    -------------------------------------------------------------------------
CODE
  Segment part 63. NOT NEEDED.Intra module refs:   AddDropDownList
    -------------------------------------------------------------------------
CSTACK
  Segment part 1. NOT NEEDED.
    -------------------------------------------------------------------------
DATA_C
  Segment part 2. NOT NEEDED.
    -------------------------------------------------------------------------
DATA_C
  Segment part 3. NOT NEEDED.
    -------------------------------------------------------------------------
DATA_C
  Relative segment, address: CODE_AREA 000169E8 - 00016A23 (0x3c bytes), align: 2
  Segment part 4.             Intra module refs:   AddRadioButton
    -------------------------------------------------------------------------
DATA_C
  Relative segment, address: CODE_AREA 00016A24 - 00016A57 (0x34 bytes), align: 2
  Segment part 5.             Intra module refs:   AddCheckBoxItem
    -------------------------------------------------------------------------
DATA_C
  Relative segment, address: CODE_AREA 00016A58 - 00016A73 (0x1c bytes), align: 2
  Segment part 6.             Intra module refs:   AddInputItem
    -------------------------------------------------------------------------
DATA_C
  Relative segment, address: CODE_AREA 00016A74 - 00016A87 (0x14 bytes), align: 2
  Segment part 7.             Intra module refs:   AddDropDownList

    *************************************************************************

  FILE NAME : C:\arm\BalletMini\Release_ELKA\Obj\conf_loader.r79
  PROGRAM MODULE, NAME : conf_loader

  SEGMENTS IN THE MODULE
  ======================
DATA_I
  Relative segment, address: DATA_AREA 00000000 - 00000003 (0x4 bytes), align: 2
  Segment part 4.             Intra module refs:   LoadConfigData
           ENTRY                   ADDRESS         REF BY
           =====                   =======         ======
           successed_config_filename
                                   00000000        main_menu_options (mainmenu)
                                                   maincsm_onmessage (main)
    -------------------------------------------------------------------------
CODE
  Segment part 6. NOT NEEDED.
    -------------------------------------------------------------------------
CODE
  Relative segment, address: CODE_AREA 000013A0 - 000014CF (0x130 bytes), align: 2
  Segment part 7.             Intra module refs:   InitConfig
           ENTRY                   ADDRESS         REF BY
           =====                   =======         ======
           LoadConfigData          000013A0 
               stack 1 = 00000000 ( 00000030 )
    -------------------------------------------------------------------------
CODE
  Segment part 8. NOT NEEDED.
    -------------------------------------------------------------------------
CODE
  Relative segment, address: CODE_AREA 000014D0 - 000014F7 (0x28 bytes), align: 2
  Segment part 9.
           ENTRY                   ADDRESS         REF BY
           =====                   =======         ======
           InitConfig              000014D0        main (main)
                                                   maincsm_onmessage (main)
               stack 1 = 00000000 ( 00000008 )
    -------------------------------------------------------------------------
CSTACK
  Segment part 1. NOT NEEDED.
    -------------------------------------------------------------------------
DATA_ID
  Relative segment, address: CODE_AREA 00000000 - 00000003 (0x4 bytes), align: 2
  Segment part 5.             Intra module refs:   successed_config_filename
    -------------------------------------------------------------------------
DATA_ID
  Segment part 10. NOT NEEDED.
           ENTRY                   ADDRESS         REF BY
           =====                   =======         ======
           ?*?DATA_ID              
    -------------------------------------------------------------------------
INITTAB
  Relative segment, address: CODE_AREA 00017F80 - 00017F8B (0xc bytes), align: 2
  Segment part 11. ROOT.
           ENTRY                   ADDRESS         REF BY
           =====                   =======         ======
           ?init?tab?DATA_I        00017F80 
    -------------------------------------------------------------------------
CONFIG_C
  Segment part 12. NOT NEEDED.
    -------------------------------------------------------------------------
DATA_C
  Relative segment, address: CODE_AREA 00017F6C - 00017F6C (0x1 bytes), align: 0
  Segment part 2.             Intra module refs:   Segment part 5
    -------------------------------------------------------------------------
DATA_C
  Relative segment, address: CODE_AREA 00016A88 - 00016ABF (0x38 bytes), align: 2
  Segment part 3.             Intra module refs:   InitConfig

    *************************************************************************

  FILE NAME : C:\arm\BalletMini\Release_ELKA\Obj\config_data.r79
  PROGRAM MODULE, NAME : config_data

  SEGMENTS IN THE MODULE
  ======================
CONFIG_C
  Relative segment, address: CODE_AREA 000182CC - 000182F7 (0x2c bytes), align: 2
  Segment part 2. ROOT.
           ENTRY                   ADDRESS         REF BY
           =====                   =======         ======
           cfghdr0                 000182CC 
    -------------------------------------------------------------------------
CONFIG_C
  Relative segment, address: CODE_AREA 000182F8 - 00018323 (0x2c bytes), align: 2
  Segment part 3. ROOT.
           ENTRY                   ADDRESS         REF BY
           =====                   =======         ======
           cfghdr00                000182F8 
    -------------------------------------------------------------------------
CONFIG_C
  Relative segment, address: CODE_AREA 00018324 - 00018327 (0x4 bytes), align: 2
  Segment part 4. ROOT.
           ENTRY                   ADDRESS         REF BY
           =====                   =======         ======
           PIC_QUALITY             00018324        SendPost (inet)
    -------------------------------------------------------------------------
CONFIG_C
  Relative segment, address: CODE_AREA 00018328 - 000183A7 (0x80 bytes), align: 2
  Segment part 5. ROOT.
           ENTRY                   ADDRESS         REF BY
           =====                   =======         ======
           cfgcbox0                00018328 
    -------------------------------------------------------------------------
CONFIG_C
  Relative segment, address: CODE_AREA 000183A8 - 000183D3 (0x2c bytes), align: 2
  Segment part 6. ROOT.
           ENTRY                   ADDRESS         REF BY
           =====                   =======         ======
           cfghdr1                 000183A8 
    -------------------------------------------------------------------------
CONFIG_C
  Relative segment, address: CODE_AREA 000183D4 - 000183D7 (0x4 bytes), align: 2
  Segment part 7. ROOT.
           ENTRY                   ADDRESS         REF BY
           =====                   =======         ======
           HISTORY_DEPTH           000183D4        Segment part 14 (history)
                                                   history_menu_ghook (mainmenu)
    -------------------------------------------------------------------------
CONFIG_C
  Relative segment, address: CODE_AREA 000183D8 - 00018403 (0x2c bytes), align: 2
  Segment part 8. ROOT.
           ENTRY                   ADDRESS         REF BY
           =====                   =======         ======
           cfghdr2                 000183D8 
    -------------------------------------------------------------------------
CONFIG_C
  Relative segment, address: CODE_AREA 00018404 - 00018407 (0x4 bytes), align: 2
  Segment part 9. ROOT.
           ENTRY                   ADDRESS         REF BY
           =====                   =======         ======
           JAVA_HEAP_SIZE          00018404        SendPost (inet)
    -------------------------------------------------------------------------
CONFIG_C
  Relative segment, address: CODE_AREA 00018408 - 00018433 (0x2c bytes), align: 2
  Segment part 10. ROOT.
           ENTRY                   ADDRESS         REF BY
           =====                   =======         ======
           cfghdr4                 00018408 
    -------------------------------------------------------------------------
CONFIG_C
  Relative segment, address: CODE_AREA 00018434 - 000184B3 (0x80 bytes), align: 2
  Segment part 11. ROOT.
           ENTRY                   ADDRESS         REF BY
           =====                   =======         ======
           DEFAULT_PARAM           00018434        main (main)
    -------------------------------------------------------------------------
CONFIG_C
  Relative segment, address: CODE_AREA 000184B4 - 000184DF (0x2c bytes), align: 2
  Segment part 12. ROOT.
           ENTRY                   ADDRESS         REF BY
           =====                   =======         ======
           cfghdr5                 000184B4 
    -------------------------------------------------------------------------
CONFIG_C
  Relative segment, address: CODE_AREA 000184E0 - 000184E3 (0x4 bytes), align: 2
  Segment part 13. ROOT.
           ENTRY                   ADDRESS         REF BY
           =====                   =======         ======
           PageSTACK_SIZE          000184E0        Segment part 43 (urlstack)
    -------------------------------------------------------------------------
CONFIG_C
  Relative segment, address: CODE_AREA 000184E4 - 0001850F (0x2c bytes), align: 2
  Segment part 14. ROOT.
           ENTRY                   ADDRESS         REF BY
           =====                   =======         ======
           cfghdr0_end             000184E4 
    -------------------------------------------------------------------------
CONFIG_C
  Relative segment, address: CODE_AREA 00018510 - 0001853B (0x2c bytes), align: 2
  Segment part 15. ROOT.
           ENTRY                   ADDRESS         REF BY
           =====                   =======         ======
           cfghdr001_beg           00018510 
    -------------------------------------------------------------------------
CONFIG_C
  Relative segment, address: CODE_AREA 0001853C - 00018567 (0x2c bytes), align: 2
  Segment part 16. ROOT.
           ENTRY                   ADDRESS         REF BY
           =====                   =======         ======
           cfghdr0010              0001853C 
    -------------------------------------------------------------------------
CONFIG_C
  Relative segment, address: CODE_AREA 00018568 - 0001856B (0x4 bytes), align: 2
  Segment part 17. ROOT.
           ENTRY                   ADDRESS         REF BY
           =====                   =======         ======
           word_wrap               00018568        SearchNextDisplayLine (display_utils)
    -------------------------------------------------------------------------
CONFIG_C
  Relative segment, address: CODE_AREA 0001856C - 00018597 (0x2c bytes), align: 2
  Segment part 18. ROOT.
           ENTRY                   ADDRESS         REF BY
           =====                   =======         ======
           cfghdr0011              0001856C 
    -------------------------------------------------------------------------
CONFIG_C
  Relative segment, address: CODE_AREA 00018598 - 0001859B (0x4 bytes), align: 2
  Segment part 19. ROOT.
           ENTRY                   ADDRESS         REF BY
           =====                   =======         ======
           cfgCursorColor          00018598        RenderPage (display_utils)
    -------------------------------------------------------------------------
CONFIG_C
  Relative segment, address: CODE_AREA 0001859C - 000185C7 (0x2c bytes), align: 2
  Segment part 20. ROOT.
           ENTRY                   ADDRESS         REF BY
           =====                   =======         ======
           cfghdr0012              0001859C 
    -------------------------------------------------------------------------
CONFIG_C
  Relative segment, address: CODE_AREA 000185C8 - 000185CB (0x4 bytes), align: 2
  Segment part 21. ROOT.
           ENTRY                   ADDRESS         REF BY
           =====                   =======         ======
           cfgCursorColorPictures
                                   000185C8        RenderPage (display_utils)
    -------------------------------------------------------------------------
CONFIG_C
  Relative segment, address: CODE_AREA 000185CC - 000185F7 (0x2c bytes), align: 2
  Segment part 22. ROOT.
           ENTRY                   ADDRESS         REF BY
           =====                   =======         ======
           cfghdr0013              000185CC 
    -------------------------------------------------------------------------
CONFIG_C
  Relative segment, address: CODE_AREA 000185F8 - 000185FB (0x4 bytes), align: 2
  Segment part 23. ROOT.
           ENTRY                   ADDRESS         REF BY
           =====                   =======         ======
           cfgInvertCursor         000185F8        RenderPage (display_utils)
    -------------------------------------------------------------------------
CONFIG_C
  Relative segment, address: CODE_AREA 000185FC - 00018627 (0x2c bytes), align: 2
  Segment part 24. ROOT.
           ENTRY                   ADDRESS         REF BY
           =====                   =======         ======
           cfghdr001_end           000185FC 
    -------------------------------------------------------------------------
CONFIG_C
  Relative segment, address: CODE_AREA 00018628 - 00018653 (0x2c bytes), align: 2
  Segment part 25. ROOT.
           ENTRY                   ADDRESS         REF BY
           =====                   =======         ======
           cfghdr011_beg           00018628 
    -------------------------------------------------------------------------
CONFIG_C
  Relative segment, address: CODE_AREA 00018654 - 0001867F (0x2c bytes), align: 2
  Segment part 26. ROOT.
           ENTRY                   ADDRESS         REF BY
           =====                   =======         ======
           cfghdr0110              00018654 
    -------------------------------------------------------------------------
CONFIG_C
  Relative segment, address: CODE_AREA 00018680 - 00018683 (0x4 bytes), align: 2
  Segment part 27. ROOT.
           ENTRY                   ADDRESS         REF BY
           =====                   =======         ======
           cfgKeyEnter             00018680        method5 (main)
    -------------------------------------------------------------------------
CONFIG_C
  Relative segment, address: CODE_AREA 00018684 - 000186AF (0x2c bytes), align: 2
  Segment part 28. ROOT.
           ENTRY                   ADDRESS         REF BY
           =====                   =======         ======
           cfghdr0111              00018684 
    -------------------------------------------------------------------------
CONFIG_C
  Relative segment, address: CODE_AREA 000186B0 - 000186B3 (0x4 bytes), align: 2
  Segment part 29. ROOT.
           ENTRY                   ADDRESS         REF BY
           =====                   =======         ======
           cfgKeyScrollUp          000186B0        method5 (main)
    -------------------------------------------------------------------------
CONFIG_C
  Relative segment, address: CODE_AREA 000186B4 - 000186DF (0x2c bytes), align: 2
  Segment part 30. ROOT.
           ENTRY                   ADDRESS         REF BY
           =====                   =======         ======
           cfghdr0112              000186B4 
    -------------------------------------------------------------------------
CONFIG_C
  Relative segment, address: CODE_AREA 000186E0 - 000186E3 (0x4 bytes), align: 2
  Segment part 31. ROOT.
           ENTRY                   ADDRESS         REF BY
           =====                   =======         ======
           cfgKeyScrollDown        000186E0        method5 (main)
    -------------------------------------------------------------------------
CONFIG_C
  Relative segment, address: CODE_AREA 000186E4 - 0001870F (0x2c bytes), align: 2
  Segment part 32. ROOT.
           ENTRY                   ADDRESS         REF BY
           =====                   =======         ======
           cfghdr0113              000186E4 
    -------------------------------------------------------------------------
CONFIG_C
  Relative segment, address: CODE_AREA 00018710 - 00018713 (0x4 bytes), align: 2
  Segment part 33. ROOT.
           ENTRY                   ADDRESS         REF BY
           =====                   =======         ======
           cfgKeyPageUp            00018710        method5 (main)
    -------------------------------------------------------------------------
CONFIG_C
  Relative segment, address: CODE_AREA 00018714 - 0001873F (0x2c bytes), align: 2
  Segment part 34. ROOT.
           ENTRY                   ADDRESS         REF BY
           =====                   =======         ======
           cfghdr0114              00018714 
    -------------------------------------------------------------------------
CONFIG_C
  Relative segment, address: CODE_AREA 00018740 - 00018743 (0x4 bytes), align: 2
  Segment part 35. ROOT.
           ENTRY                   ADDRESS         REF BY
           =====                   =======         ======
           cfgKeyPageDown          00018740        method5 (main)
    -------------------------------------------------------------------------
CONFIG_C
  Relative segment, address: CODE_AREA 00018744 - 0001876F (0x2c bytes), align: 2
  Segment part 36. ROOT.
           ENTRY                   ADDRESS         REF BY
           =====                   =======         ======
           cfghdr0115              00018744 
    -------------------------------------------------------------------------
CONFIG_C
  Relative segment, address: CODE_AREA 00018770 - 00018773 (0x4 bytes), align: 2
  Segment part 37. ROOT.
           ENTRY                   ADDRESS         REF BY
           =====                   =======         ======
           cfgKeyHalfPageUp        00018770        method5 (main)
    -------------------------------------------------------------------------
CONFIG_C
  Relative segment, address: CODE_AREA 00018774 - 0001879F (0x2c bytes), align: 2
  Segment part 38. ROOT.
           ENTRY                   ADDRESS         REF BY
           =====                   =======         ======
           cfghdr0116              00018774 
    -------------------------------------------------------------------------
CONFIG_C
  Relative segment, address: CODE_AREA 000187A0 - 000187A3 (0x4 bytes), align: 2
  Segment part 39. ROOT.
           ENTRY                   ADDRESS         REF BY
           =====                   =======         ======
           cfgKeyHalfPageDown      000187A0        method5 (main)
    -------------------------------------------------------------------------
CONFIG_C
  Relative segment, address: CODE_AREA 000187A4 - 000187CF (0x2c bytes), align: 2
  Segment part 40. ROOT.
           ENTRY                   ADDRESS         REF BY
           =====                   =======         ======
           cfghdr0117              000187A4 
    -------------------------------------------------------------------------
CONFIG_C
  Relative segment, address: CODE_AREA 000187D0 - 000187D3 (0x4 bytes), align: 2
  Segment part 41. ROOT.
           ENTRY                   ADDRESS         REF BY
           =====                   =======         ======
           cfgKeyBegin             000187D0        method5 (main)
    -------------------------------------------------------------------------
CONFIG_C
  Relative segment, address: CODE_AREA 000187D4 - 000187FF (0x2c bytes), align: 2
  Segment part 42. ROOT.
           ENTRY                   ADDRESS         REF BY
           =====                   =======         ======
           cfghdr0118              000187D4 
    -------------------------------------------------------------------------
CONFIG_C
  Relative segment, address: CODE_AREA 00018800 - 00018803 (0x4 bytes), align: 2
  Segment part 43. ROOT.
           ENTRY                   ADDRESS         REF BY
           =====                   =======         ======
           cfgKeyEnd               00018800        method5 (main)
    -------------------------------------------------------------------------
CONFIG_C
  Relative segment, address: CODE_AREA 00018804 - 0001882F (0x2c bytes), align: 2
  Segment part 44. ROOT.
           ENTRY                   ADDRESS         REF BY
           =====                   =======         ======
           cfghdr0119              00018804 
    -------------------------------------------------------------------------
CONFIG_C
  Relative segment, address: CODE_AREA 00018830 - 00018833 (0x4 bytes), align: 2
  Segment part 45. ROOT.
           ENTRY                   ADDRESS         REF BY
           =====                   =======         ======
           cfgKeyBack              00018830        method5 (main)
    -------------------------------------------------------------------------
CONFIG_C
  Relative segment, address: CODE_AREA 00018834 - 0001885F (0x2c bytes), align: 2
  Segment part 46. ROOT.
           ENTRY                   ADDRESS         REF BY
           =====                   =======         ======
           cfghdr0120              00018834 
    -------------------------------------------------------------------------
CONFIG_C
  Relative segment, address: CODE_AREA 00018860 - 00018863 (0x4 bytes), align: 2
  Segment part 47. ROOT.
           ENTRY                   ADDRESS         REF BY
           =====                   =======         ======
           cfgKeyForward           00018860        method5 (main)
    -------------------------------------------------------------------------
CONFIG_C
  Relative segment, address: CODE_AREA 00018864 - 0001888F (0x2c bytes), align: 2
  Segment part 48. ROOT.
           ENTRY                   ADDRESS         REF BY
           =====                   =======         ======
           cfghdr0121              00018864 
    -------------------------------------------------------------------------
CONFIG_C
  Relative segment, address: CODE_AREA 00018890 - 00018893 (0x4 bytes), align: 2
  Segment part 49. ROOT.
           ENTRY                   ADDRESS         REF BY
           =====                   =======         ======
           cfgKeyReload            00018890        method5 (main)
    -------------------------------------------------------------------------
CONFIG_C
  Relative segment, address: CODE_AREA 00018894 - 000188BF (0x2c bytes), align: 2
  Segment part 50. ROOT.
           ENTRY                   ADDRESS         REF BY
           =====                   =======         ======
           cfghdr0122              00018894 
    -------------------------------------------------------------------------
CONFIG_C
  Relative segment, address: CODE_AREA 000188C0 - 000188C3 (0x4 bytes), align: 2
  Segment part 51. ROOT.
           ENTRY                   ADDRESS         REF BY
           =====                   =======         ======
           cfgKeyShowURL           000188C0        method5 (main)
    -------------------------------------------------------------------------
CONFIG_C
  Relative segment, address: CODE_AREA 000188C4 - 000188EF (0x2c bytes), align: 2
  Segment part 52. ROOT.
           ENTRY                   ADDRESS         REF BY
           =====                   =======         ======
           cfghdr0123              000188C4 
    -------------------------------------------------------------------------
CONFIG_C
  Relative segment, address: CODE_AREA 000188F0 - 000188F3 (0x4 bytes), align: 2
  Segment part 53. ROOT.
           ENTRY                   ADDRESS         REF BY
           =====                   =======         ======
           cfgKeySearchAgain       000188F0        method5 (main)
    -------------------------------------------------------------------------
CONFIG_C
  Relative segment, address: CODE_AREA 000188F4 - 0001891F (0x2c bytes), align: 2
  Segment part 54. ROOT.
           ENTRY                   ADDRESS         REF BY
           =====                   =======         ======
           cfghdr0124              000188F4 
    -------------------------------------------------------------------------
CONFIG_C
  Relative segment, address: CODE_AREA 00018920 - 00018923 (0x4 bytes), align: 2
  Segment part 55. ROOT.
           ENTRY                   ADDRESS         REF BY
           =====                   =======         ======
           cfgKeyTextPage          00018920        method5 (main)
    -------------------------------------------------------------------------
CONFIG_C
  Relative segment, address: CODE_AREA 00018924 - 0001894F (0x2c bytes), align: 2
  Segment part 56. ROOT.
           ENTRY                   ADDRESS         REF BY
           =====                   =======         ======
           cfghdr0125              00018924 
    -------------------------------------------------------------------------
CONFIG_C
  Relative segment, address: CODE_AREA 00018950 - 00018953 (0x4 bytes), align: 2
  Segment part 57. ROOT.
           ENTRY                   ADDRESS         REF BY
           =====                   =======         ======
           cfgKeyMenu              00018950        method5 (main)
    -------------------------------------------------------------------------
CONFIG_C
  Relative segment, address: CODE_AREA 00018954 - 0001897F (0x2c bytes), align: 2
  Segment part 58. ROOT.
           ENTRY                   ADDRESS         REF BY
           =====                   =======         ======
           cfghdr0126              00018954 
    -------------------------------------------------------------------------
CONFIG_C
  Relative segment, address: CODE_AREA 00018980 - 00018983 (0x4 bytes), align: 2
  Segment part 59. ROOT.
           ENTRY                   ADDRESS         REF BY
           =====                   =======         ======
           cfgKeyNewCopy           00018980        method5 (main)
    -------------------------------------------------------------------------
CONFIG_C
  Relative segment, address: CODE_AREA 00018984 - 000189AF (0x2c bytes), align: 2
  Segment part 60. ROOT.
           ENTRY                   ADDRESS         REF BY
           =====                   =======         ======
           cfghdr0127              00018984 
    -------------------------------------------------------------------------
CONFIG_C
  Relative segment, address: CODE_AREA 000189B0 - 000189B3 (0x4 bytes), align: 2
  Segment part 61. ROOT.
           ENTRY                   ADDRESS         REF BY
           =====                   =======         ======
           cfgKeySieget            000189B0        method5 (main)
    -------------------------------------------------------------------------
CONFIG_C
  Relative segment, address: CODE_AREA 000189B4 - 000189DF (0x2c bytes), align: 2
  Segment part 62. ROOT.
           ENTRY                   ADDRESS         REF BY
           =====                   =======         ======
           cfghdr0128              000189B4 
    -------------------------------------------------------------------------
CONFIG_C
  Relative segment, address: CODE_AREA 000189E0 - 000189E3 (0x4 bytes), align: 2
  Segment part 63. ROOT.
           ENTRY                   ADDRESS         REF BY
           =====                   =======         ======
           cfgKeyBrowser           000189E0        method5 (main)
    -------------------------------------------------------------------------
CONFIG_C
  Relative segment, address: CODE_AREA 000189E4 - 00018A0F (0x2c bytes), align: 2
  Segment part 64. ROOT.
           ENTRY                   ADDRESS         REF BY
           =====                   =======         ======
           cfghdr0129              000189E4 
    -------------------------------------------------------------------------
CONFIG_C
  Relative segment, address: CODE_AREA 00018A10 - 00018A13 (0x4 bytes), align: 2
  Segment part 65. ROOT.
           ENTRY                   ADDRESS         REF BY
           =====                   =======         ======
           cfgKeyQuit              00018A10        method5 (main)
    -------------------------------------------------------------------------
CONFIG_C
  Relative segment, address: CODE_AREA 00018A14 - 00018A3F (0x2c bytes), align: 2
  Segment part 66. ROOT.
           ENTRY                   ADDRESS         REF BY
           =====                   =======         ======
           cfghdr011_end           00018A14 
    -------------------------------------------------------------------------
CONFIG_C
  Relative segment, address: CODE_AREA 00018A40 - 00018A6B (0x2c bytes), align: 2
  Segment part 67. ROOT.
           ENTRY                   ADDRESS         REF BY
           =====                   =======         ======
           cfghdr01_beg            00018A40 
    -------------------------------------------------------------------------
CONFIG_C
  Relative segment, address: CODE_AREA 00018A6C - 00018A97 (0x2c bytes), align: 2
  Segment part 68. ROOT.
           ENTRY                   ADDRESS         REF BY
           =====                   =======         ======
           cfghdr001               00018A6C 
    -------------------------------------------------------------------------
CONFIG_C
  Relative segment, address: CODE_AREA 00018A98 - 00018A9B (0x4 bytes), align: 2
  Segment part 69. ROOT.
           ENTRY                   ADDRESS         REF BY
           =====                   =======         ======
           cfgShowCharCounter      00018A98        input_box_ghook (display_utils)
    -------------------------------------------------------------------------
CONFIG_C
  Relative segment, address: CODE_AREA 00018A9C - 00018AC7 (0x2c bytes), align: 2
  Segment part 70. ROOT.
           ENTRY                   ADDRESS         REF BY
           =====                   =======         ======
           cfghdr002               00018A9C 
    -------------------------------------------------------------------------
CONFIG_C
  Relative segment, address: CODE_AREA 00018AC8 - 00018ACB (0x4 bytes), align: 2
  Segment part 71. ROOT.
           ENTRY                   ADDRESS         REF BY
           =====                   =======         ======
           cfgPwdNormalText        00018AC8        CreateInputBox (display_utils)
    -------------------------------------------------------------------------
CONFIG_C
  Relative segment, address: CODE_AREA 00018ACC - 00018AF7 (0x2c bytes), align: 2
  Segment part 72. ROOT.
           ENTRY                   ADDRESS         REF BY
           =====                   =======         ======
           cfghdr01_end            00018ACC 
    -------------------------------------------------------------------------
CONFIG_C
  Relative segment, address: CODE_AREA 00018AF8 - 00018B23 (0x2c bytes), align: 2
  Segment part 73. ROOT.
           ENTRY                   ADDRESS         REF BY
           =====                   =======         ======
           cfghdr3                 00018AF8 
    -------------------------------------------------------------------------
CONFIG_C
  Relative segment, address: CODE_AREA 00018B24 - 00018B4F (0x2c bytes), align: 2
  Segment part 74. ROOT.
           ENTRY                   ADDRESS         REF BY
           =====                   =======         ======
           cfghdr3_1               00018B24 
    -------------------------------------------------------------------------
CONFIG_C
  Relative segment, address: CODE_AREA 00018B50 - 00018B6F (0x20 bytes), align: 2
  Segment part 75. ROOT.
           ENTRY                   ADDRESS         REF BY
           =====                   =======         ======
           OM_POST_HOST            00018B50        Segment part 32 (inet)
    -------------------------------------------------------------------------
CONFIG_C
  Relative segment, address: CODE_AREA 00018B70 - 00018B9B (0x2c bytes), align: 2
  Segment part 76. ROOT.
           ENTRY                   ADDRESS         REF BY
           =====                   =======         ======
           cfghdr3_2               00018B70 
    -------------------------------------------------------------------------
CONFIG_C
  Relative segment, address: CODE_AREA 00018B9C - 00018B9F (0x4 bytes), align: 2
  Segment part 77. ROOT.
           ENTRY                   ADDRESS         REF BY
           =====                   =======         ======
           OM_POST_PORT            00018B9C        Segment part 31 (inet)
    -------------------------------------------------------------------------
CONFIG_C
  Relative segment, address: CODE_AREA 00018BA0 - 00018BCB (0x2c bytes), align: 2
  Segment part 78. ROOT.
           ENTRY                   ADDRESS         REF BY
           =====                   =======         ======
           cfghdr3_end             00018BA0 
    -------------------------------------------------------------------------
CONFIG_C
  Relative segment, address: CODE_AREA 00018BCC - 00018BF7 (0x2c bytes), align: 2
  Segment part 79. ROOT.
           ENTRY                   ADDRESS         REF BY
           =====                   =======         ======
           cfghdr35                00018BCC 
    -------------------------------------------------------------------------
CONFIG_C
  Relative segment, address: CODE_AREA 00018BF8 - 00018C23 (0x2c bytes), align: 2
  Segment part 80. ROOT.
           ENTRY                   ADDRESS         REF BY
           =====                   =======         ======
           cfghdr350               00018BF8 
    -------------------------------------------------------------------------
CONFIG_C
  Relative segment, address: CODE_AREA 00018C24 - 00018C27 (0x4 bytes), align: 2
  Segment part 81. ROOT.
           ENTRY                   ADDRESS         REF BY
           =====                   =======         ======
           authcode_write_file     00018C24        OMS_DataArrived (parse_oms)
    -------------------------------------------------------------------------
CONFIG_C
  Relative segment, address: CODE_AREA 00018C28 - 00018C53 (0x2c bytes), align: 2
  Segment part 82. ROOT.
           ENTRY                   ADDRESS         REF BY
           =====                   =======         ======
           cfghdr351               00018C28 
    -------------------------------------------------------------------------
CONFIG_C
  Relative segment, address: CODE_AREA 00018C54 - 00018C57 (0x4 bytes), align: 2
  Segment part 83. ROOT.
           ENTRY                   ADDRESS         REF BY
           =====                   =======         ======
           authcode_create_new     00018C54        main (main)
    -------------------------------------------------------------------------
CONFIG_C
  Relative segment, address: CODE_AREA 00018C58 - 00018C83 (0x2c bytes), align: 2
  Segment part 84. ROOT.
           ENTRY                   ADDRESS         REF BY
           =====                   =======         ======
           cfghdr35_end            00018C58 
    -------------------------------------------------------------------------
CSTACK
  Segment part 1. NOT NEEDED.

    *************************************************************************

  FILE NAME : C:\arm\BalletMini\Release_ELKA\Obj\destructors.r79
  PROGRAM MODULE, NAME : destructors

  SEGMENTS IN THE MODULE
  ======================
CODE
  Segment part 2. NOT NEEDED.
    -------------------------------------------------------------------------
CODE
  Segment part 3. NOT NEEDED.
           ENTRY                   ADDRESS         REF BY
           =====                   =======         ======
           FreeRawText             
               not allocated function
    -------------------------------------------------------------------------
CODE
  Segment part 4. NOT NEEDED.
    -------------------------------------------------------------------------
CODE
  Relative segment, address: CODE_AREA 000014F8 - 00001547 (0x50 bytes), align: 2
  Segment part 5.             Intra module refs:   FreeViewData
           ENTRY                   ADDRESS         REF BY
           =====                   =======         ======
           FreeDynImgList          000014F8 
               stack 1 = 00000000 ( 0000000C )
    -------------------------------------------------------------------------
CODE
  Segment part 6. NOT NEEDED.
    -------------------------------------------------------------------------
CODE
  Relative segment, address: CODE_AREA 00001548 - 0000164B (0x104 bytes), align: 2
  Segment part 7.
           ENTRY                   ADDRESS         REF BY
           =====                   =======         ======
           FreeViewData            00001548        method2 (main)
               stack 1 = 00000000 ( 0000000C )
    -------------------------------------------------------------------------
CSTACK
  Segment part 1. NOT NEEDED.

    *************************************************************************

  FILE NAME : C:\arm\BalletMini\Release_ELKA\Obj\display_utils.r79
  PROGRAM MODULE, NAME : display_utils

  SEGMENTS IN THE MODULE
  ======================
CODE
  Relative segment, address: CODE_AREA 0000164C - 0000167F (0x34 bytes), align: 2
  Segment part 40.            Intra module refs:   ChangeMenuSelection
                                                   CreateBookmarksMenu (mainmenu)
                                                   CreateFindDialog (mainmenu)
                                                   CreateHistoryMenu (mainmenu)
                                                   CreateInputBox
                                                   CreateInputUrl (mainmenu)
                                                   CreateMainMenu (mainmenu)
                                                   CreateSavePageDialog (mainmenu)
                                                   CreateSearchDialog (mainmenu)
                                                   ShowLink
                                                   createTemplatesMenu
                                                   createTextView
                                                   open_fm (fileman)
                                                   show_edit_bookmark_menu (mainmenu)
           ENTRY                   ADDRESS         REF BY
           =====                   =======         ======
           patch_header            0000164C 
               stack 1 = 00000000 ( 00000008 )
    -------------------------------------------------------------------------
CODE
  Relative segment, address: CODE_AREA 00001680 - 000016C3 (0x44 bytes), align: 2
  Segment part 41.            Intra module refs:   CreateFindDialog (mainmenu)
                                                   CreateInputBox
                                                   CreateInputUrl (mainmenu)
                                                   CreateSavePageDialog (mainmenu)
                                                   CreateSearchDialog (mainmenu)
                                                   ShowLink
                                                   createTextView
                                                   show_edit_bookmark_menu (mainmenu)
           ENTRY                   ADDRESS         REF BY
           =====                   =======         ======
           patch_input             00001680 
               stack 1 = 00000000 ( 0000000C )
    -------------------------------------------------------------------------
CODE
  Segment part 42. NOT NEEDED.
    -------------------------------------------------------------------------
CODE
  Relative segment, address: CODE_AREA 000016C4 - 000016EB (0x28 bytes), align: 2
  Segment part 43.            Intra module refs:   RenderPage
                                                   SearchNextDisplayLine
                                                   renderForm
           ENTRY                   ADDRESS         REF BY
           =====                   =======         ======
           GetFontHeight           000016C4 
               stack 1 = 00000000 ( 00000008 )
    -------------------------------------------------------------------------
CODE
  Segment part 44. NOT NEEDED.
    -------------------------------------------------------------------------
CODE
  Relative segment, address: CODE_AREA 000016EC - 00001733 (0x48 bytes), align: 2
  Segment part 45.            Intra module refs:   SearchNextDisplayLine
           ENTRY                   ADDRESS         REF BY
           =====                   =======         ======
           GetSymbolBitmapWidth    000016EC 
               stack 1 = 00000000 ( 00000004 )
    -------------------------------------------------------------------------
CODE
  Segment part 46. NOT NEEDED.
    -------------------------------------------------------------------------
CODE
  Relative segment, address: CODE_AREA 00001734 - 0000176B (0x38 bytes), align: 2
  Segment part 47.            Intra module refs:   SearchNextDisplayLine
           ENTRY                   ADDRESS         REF BY
           =====                   =======         ======
           GetBitmapHeight         00001734 
               stack 1 = 00000000 ( 00000004 )
    -------------------------------------------------------------------------
CODE
  Segment part 48. NOT NEEDED.
    -------------------------------------------------------------------------
CODE
  Relative segment, address: CODE_AREA 0000176C - 00001BFB (0x490 bytes), align: 2
  Segment part 49.            Intra module refs:   LineDown
           ENTRY                   ADDRESS         REF BY
           =====                   =======         ======
           SearchNextDisplayLine   0000176C 
               stack 1 = 00000000 ( 00000024 )
    -------------------------------------------------------------------------
CODE
  Segment part 50. NOT NEEDED.
    -------------------------------------------------------------------------
CODE
  Relative segment, address: CODE_AREA 00001BFC - 00001C57 (0x5c bytes), align: 2
  Segment part 51.            Intra module refs:   LineDown
           LOCAL                   ADDRESS         
           =====                   =======         
           newCacheLine            00001BFC 
               stack 1 = 00000000 ( 0000000C )
    -------------------------------------------------------------------------
CODE
  Segment part 52. NOT NEEDED.
    -------------------------------------------------------------------------
CODE
  Relative segment, address: CODE_AREA 00001C58 - 00001D4B (0xf4 bytes), align: 2
  Segment part 53.            Intra module refs:   FindStringOnPage
                                                   RenderPage
                                                   scrollDown
           ENTRY                   ADDRESS         REF BY
           =====                   =======         ======
           LineDown                00001C58        GoToLocalLinkPos (main)
                                                   maincsm_onmessage (main)
                                                   method5 (main)
               stack 1 = 00000000 ( 00000020 )
    -------------------------------------------------------------------------
CODE
  Segment part 54. NOT NEEDED.
    -------------------------------------------------------------------------
CODE
  Relative segment, address: CODE_AREA 00001D4C - 00001D6F (0x24 bytes), align: 2
  Segment part 55.            Intra module refs:   FindStringOnPage
                                                   scrollUp
           ENTRY                   ADDRESS         REF BY
           =====                   =======         ======
           LineUp                  00001D4C        GoToLocalLinkPos (main)
                                                   maincsm_onmessage (main)
    -------------------------------------------------------------------------
CODE
  Segment part 56. NOT NEEDED.
    -------------------------------------------------------------------------
CODE
  Relative segment, address: CODE_AREA 00001D70 - 00001E63 (0xf4 bytes), align: 2
  Segment part 57.
           ENTRY                   ADDRESS         REF BY
           =====                   =======         ======
           scrollDown              00001D70        method5 (main)
               stack 1 = 00000000 ( 0000000C )
    -------------------------------------------------------------------------
CODE
  Relative segment, address: CODE_AREA 00001E64 - 00001E67 (0x4 bytes), align: 2
  Segment part 58.            Intra module refs:   scrollDown
    -------------------------------------------------------------------------
CODE
  Segment part 59. NOT NEEDED.
    -------------------------------------------------------------------------
CODE
  Relative segment, address: CODE_AREA 00001E68 - 00001EB3 (0x4c bytes), align: 2
  Segment part 60.            Intra module refs:   scrollDown
           ENTRY                   ADDRESS         REF BY
           =====                   =======         ======
           scrollUp                00001E68        method5 (main)
               stack 1 = 00000000 ( 0000000C )
    -------------------------------------------------------------------------
CODE
  Segment part 61. NOT NEEDED.
    -------------------------------------------------------------------------
CODE
  Relative segment, address: CODE_AREA 00001EB4 - 00002213 (0x360 bytes), align: 2
  Segment part 62.            Intra module refs:   RenderPage
           ENTRY                   ADDRESS         REF BY
           =====                   =======         ======
           renderForm              00001EB4 
               stack 1 = 00000000 ( 00000040 )
    -------------------------------------------------------------------------
CODE
  Segment part 63. NOT NEEDED.
    -------------------------------------------------------------------------
CODE
  Relative segment, address: CODE_AREA 00002214 - 000030C7 (0xeb4 bytes), align: 2
  Segment part 64.            Intra module refs:   scrollDown
           ENTRY                   ADDRESS         REF BY
           =====                   =======         ======
           RenderPage              00002214        method0 (main)
                                                   method5 (main)
               stack 1 = 00000000 ( 00000548 )
    -------------------------------------------------------------------------
CODE
  Relative segment, address: CODE_AREA 000030C8 - 000030CB (0x4 bytes), align: 2
  Segment part 65.            Intra module refs:   RenderPage
    -------------------------------------------------------------------------
CODE
  Relative segment, address: CODE_AREA 000030CC - 000030CF (0x4 bytes), align: 2
  Segment part 66.            Intra module refs:   RenderPage
    -------------------------------------------------------------------------
CODE
  Segment part 67. NOT NEEDED.
    -------------------------------------------------------------------------
CODE
  Relative segment, address: CODE_AREA 000030D0 - 00003107 (0x38 bytes), align: 2
  Segment part 68.            Intra module refs:   FindReference
                                                   RenderPage
           ENTRY                   ADDRESS         REF BY
           =====                   =======         ======
           FindReferenceByBegin    000030D0 
    -------------------------------------------------------------------------
CODE
  Segment part 69. NOT NEEDED.
    -------------------------------------------------------------------------
CODE
  Segment part 70. NOT NEEDED.
           ENTRY                   ADDRESS         REF BY
           =====                   =======         ======
           FindReferenceFirst      
               not allocated function
    -------------------------------------------------------------------------
CODE
  Segment part 71. NOT NEEDED.
    -------------------------------------------------------------------------
CODE
  Relative segment, address: CODE_AREA 00003108 - 0000315F (0x58 bytes), align: 2
  Segment part 72.            Intra module refs:   input_box_onkey
                                                   sel_menu_iconhndl
                                                   sel_menu_onkey
           ENTRY                   ADDRESS         REF BY
           =====                   =======         ======
           FindReference           00003108        method5 (main)
               stack 1 = 00000000 ( 0000000C )
    -------------------------------------------------------------------------
CODE
  Segment part 73. NOT NEEDED.
    -------------------------------------------------------------------------
CODE
  Relative segment, address: CODE_AREA 00003160 - 000031B7 (0x58 bytes), align: 2
  Segment part 74.
           ENTRY                   ADDRESS         REF BY
           =====                   =======         ======
           FindReferenceById       00003160        method5 (main)
               stack 1 = 00000000 ( 00000010 )
    -------------------------------------------------------------------------
CODE
  Segment part 75. NOT NEEDED.
    -------------------------------------------------------------------------
CODE
  Relative segment, address: CODE_AREA 000031B8 - 000031EF (0x38 bytes), align: 2
  Segment part 76.            Intra module refs:   LoadTemplates
                                                   templates_menu_ghook
           ENTRY                   ADDRESS         REF BY
           =====                   =======         ======
           FreeTemplates           000031B8 
               stack 1 = 00000000 ( 00000008 )
    -------------------------------------------------------------------------
CODE
  Segment part 77. NOT NEEDED.
    -------------------------------------------------------------------------
CODE
  Relative segment, address: CODE_AREA 000031F0 - 0000327B (0x8c bytes), align: 2
  Segment part 78.            Intra module refs:   input_box_onkey_options
           ENTRY                   ADDRESS         REF BY
           =====                   =======         ======
           SaveTextToTemplate      000031F0 
               stack 1 = 00000000 ( 00000010 )
    -------------------------------------------------------------------------
CODE
  Segment part 79. NOT NEEDED.
    -------------------------------------------------------------------------
CODE
  Relative segment, address: CODE_AREA 0000327C - 0000338B (0x110 bytes), align: 2
  Segment part 80.            Intra module refs:   createTemplatesMenu
           ENTRY                   ADDRESS         REF BY
           =====                   =======         ======
           LoadTemplates           0000327C 
               stack 1 = 00000000 ( 00000050 )
    -------------------------------------------------------------------------
CODE
  Relative segment, address: CODE_AREA 0000338C - 0000338F (0x4 bytes), align: 2
  Segment part 81.            Intra module refs:   LoadTemplates
                                                   SaveTextToTemplate
    -------------------------------------------------------------------------
CODE
  Relative segment, address: CODE_AREA 00003390 - 00003393 (0x4 bytes), align: 2
  Segment part 82.            Intra module refs:   FreeTemplates
                                                   LoadTemplates
    -------------------------------------------------------------------------
CODE
  Segment part 83. NOT NEEDED.
    -------------------------------------------------------------------------
DATA_Z
  Relative segment, address: CODE_AREA 00017F98 - 00017FA7 (0x10 bytes), align: 2
  Segment part 17.            Intra module refs:   Segment part 82
                                                   Segment part 93
           ENTRY                   ADDRESS         REF BY
           =====                   =======         ======
           curpos                  00017FA0 
           curpos_changed          00017FA4 
           templates_chars         00017F98 
           templates_lines         00017F9C 
    -------------------------------------------------------------------------
CODE
  Relative segment, address: CODE_AREA 00003394 - 00003457 (0xc4 bytes), align: 2
  Segment part 84.            Intra module refs:   Segment part 21
           ENTRY                   ADDRESS         REF BY
           =====                   =======         ======
           templates_menu_onkey    00003394 
               stack 1 = 00000000 ( 0000003C )
    -------------------------------------------------------------------------
CODE
  Segment part 85. NOT NEEDED.
    -------------------------------------------------------------------------
CODE
  Relative segment, address: CODE_AREA 00003458 - 0000347B (0x24 bytes), align: 2
  Segment part 86.            Intra module refs:   Segment part 21
           ENTRY                   ADDRESS         REF BY
           =====                   =======         ======
           templates_menu_ghook    00003458 
               stack 1 = 00000000 ( 00000004 )
    -------------------------------------------------------------------------
CODE
  Segment part 87. NOT NEEDED.
    -------------------------------------------------------------------------
CODE
  Relative segment, address: CODE_AREA 0000347C - 000034DB (0x60 bytes), align: 2
  Segment part 88.            Intra module refs:   Segment part 21
           ENTRY                   ADDRESS         REF BY
           =====                   =======         ======
           templates_menu_iconhndl
                                   0000347C 
               stack 1 = 00000000 ( 00000018 )
    -------------------------------------------------------------------------
CODE
  Segment part 89. NOT NEEDED.
    -------------------------------------------------------------------------
DATA_I
  Relative segment, address: DATA_AREA 00000004 - 0000000F (0xc bytes), align: 2
  Segment part 18.            Intra module refs:   Segment part 21
           ENTRY                   ADDRESS         REF BY
           =====                   =======         ======
           templates_menu_softkeys
                                   00000004 
    -------------------------------------------------------------------------
DATA_I
  Relative segment, address: DATA_AREA 00000010 - 00000067 (0x58 bytes), align: 2
  Segment part 20.            Intra module refs:   Segment part 23
                                                   createTemplatesMenu
           ENTRY                   ADDRESS         REF BY
           =====                   =======         ======
           templates_menu_header   00000028 
           templates_menu_sk       00000010 
           templates_menu_struct   0000003C 
    -------------------------------------------------------------------------
DATA_I
  Relative segment, address: DATA_AREA 00000068 - 0000006F (0x8 bytes), align: 2
  Segment part 22.            Intra module refs:   Segment part 21
           ENTRY                   ADDRESS         REF BY
           =====                   =======         ======
           templates_menu_skt      00000068 
    -------------------------------------------------------------------------
CODE
  Relative segment, address: CODE_AREA 000034DC - 0000353B (0x60 bytes), align: 2
  Segment part 90.            Intra module refs:   input_box_onkey_options
           ENTRY                   ADDRESS         REF BY
           =====                   =======         ======
           createTemplatesMenu     000034DC 
               stack 1 = 00000000 ( 0000001C )
    -------------------------------------------------------------------------
CODE
  Segment part 91. NOT NEEDED.
    -------------------------------------------------------------------------
DATA_C
  Relative segment, address: CODE_AREA 00016AC0 - 00016AC7 (0x8 bytes), align: 2
  Segment part 2.             Intra module refs:   txtview_ghook
    -------------------------------------------------------------------------
DATA_C
  Relative segment, address: CODE_AREA 00016AC8 - 00016AEB (0x24 bytes), align: 2
  Segment part 3.             Intra module refs:   link_options
    -------------------------------------------------------------------------
DATA_C
  Relative segment, address: CODE_AREA 00016AEC - 00016AF3 (0x8 bytes), align: 2
  Segment part 4.             Intra module refs:   link_box_ghook
    -------------------------------------------------------------------------
DATA_C
  Relative segment, address: CODE_AREA 00016AF4 - 00016B07 (0x14 bytes), align: 2
  Segment part 5.             Intra module refs:   input_box_ghook
    -------------------------------------------------------------------------
DATA_C
  Relative segment, address: CODE_AREA 00016B08 - 00016B1F (0x18 bytes), align: 2
  Segment part 6.             Intra module refs:   Segment part 81
    -------------------------------------------------------------------------
DATA_C
  Segment part 7. NOT NEEDED.
    -------------------------------------------------------------------------
DATA_C
  Relative segment, address: CODE_AREA 00016B20 - 00016B27 (0x8 bytes), align: 2
  Segment part 8.             Intra module refs:   Segment part 37
    -------------------------------------------------------------------------
DATA_C
  Relative segment, address: CODE_AREA 00016B28 - 00016B2F (0x8 bytes), align: 2
  Segment part 9.             Intra module refs:   Segment part 25
    -------------------------------------------------------------------------
DATA_C
  Relative segment, address: CODE_AREA 00016B30 - 00016B37 (0x8 bytes), align: 2
  Segment part 10.            Intra module refs:   Segment part 29
    -------------------------------------------------------------------------
DATA_C
  Relative segment, address: CODE_AREA 00016B38 - 00016B3F (0x8 bytes), align: 2
  Segment part 11.            Intra module refs:   Segment part 21
                                                   Segment part 25
    -------------------------------------------------------------------------
DATA_C
  Relative segment, address: CODE_AREA 00016B40 - 00016B47 (0x8 bytes), align: 2
  Segment part 12.            Intra module refs:   Segment part 25
    -------------------------------------------------------------------------
DATA_C
  Relative segment, address: CODE_AREA 00016B48 - 00016B4F (0x8 bytes), align: 2
  Segment part 13.            Intra module refs:   Segment part 25
                                                   Segment part 29
                                                   Segment part 37
    -------------------------------------------------------------------------
DATA_C
  Relative segment, address: CODE_AREA 00017F6D - 00017F6F (0x3 bytes), align: 0
  Segment part 14.            Intra module refs:   Segment part 25
                                                   Segment part 29
                                                   Segment part 37
    -------------------------------------------------------------------------
DATA_C
  Relative segment, address: CODE_AREA 00016B50 - 00016B57 (0x8 bytes), align: 2
  Segment part 15.            Intra module refs:   Segment part 21
    -------------------------------------------------------------------------
DATA_C
  Relative segment, address: CODE_AREA 00016B58 - 00016B5F (0x8 bytes), align: 2
  Segment part 16.            Intra module refs:   Segment part 21
                                                   Segment part 25
    -------------------------------------------------------------------------
DATA_C
  Relative segment, address: CODE_AREA 00016B60 - 00016B67 (0x8 bytes), align: 2
  Segment part 26.            Intra module refs:   Segment part 27
    -------------------------------------------------------------------------
CODE
  Relative segment, address: CODE_AREA 0000353C - 00003633 (0xf8 bytes), align: 2
  Segment part 92.            Intra module refs:   Segment part 27
           LOCAL                   ADDRESS         
           =====                   =======         
           input_box_ghook         0000353C 
               stack 1 = 00000000 ( 00000050 )
    -------------------------------------------------------------------------
CODE
  Relative segment, address: CODE_AREA 00003634 - 00003637 (0x4 bytes), align: 2
  Segment part 93.            Intra module refs:   input_box_ghook
                                                   templates_menu_iconhndl
                                                   templates_menu_onkey
    -------------------------------------------------------------------------
CODE
  Segment part 94. NOT NEEDED.
    -------------------------------------------------------------------------
CODE
  Relative segment, address: CODE_AREA 00003638 - 0000363B (0x4 bytes), align: 2
  Segment part 95.            Intra module refs:   Segment part 27
           LOCAL                   ADDRESS         
           =====                   =======         
           input_box_locret        00003638 
    -------------------------------------------------------------------------
CODE
  Segment part 96. NOT NEEDED.
    -------------------------------------------------------------------------
CODE
  Relative segment, address: CODE_AREA 0000363C - 00003703 (0xc8 bytes), align: 2
  Segment part 97.            Intra module refs:   input_box_onkey
           ENTRY                   ADDRESS         REF BY
           =====                   =======         ======
           input_box_onkey_options
                                   0000363C 
               stack 1 = 00000000 ( 00000038 )
    -------------------------------------------------------------------------
CODE
  Segment part 98. NOT NEEDED.
    -------------------------------------------------------------------------
CODE
  Relative segment, address: CODE_AREA 00003704 - 00003883 (0x180 bytes), align: 2
  Segment part 99.            Intra module refs:   Segment part 27
           LOCAL                   ADDRESS         
           =====                   =======         
           input_box_onkey         00003704 
               stack 1 = 00000000 ( 00000040 )
    -------------------------------------------------------------------------
CODE
  Segment part 100. NOT NEEDED.
    -------------------------------------------------------------------------
DATA_C
  Relative segment, address: CODE_AREA 00016B68 - 00016B9F (0x38 bytes), align: 2
  Segment part 27.            Intra module refs:   CreateInputBox
    -------------------------------------------------------------------------
CODE
  Relative segment, address: CODE_AREA 00003884 - 00003987 (0x104 bytes), align: 2
  Segment part 101.
           ENTRY                   ADDRESS         REF BY
           =====                   =======         ======
           CreateInputBox          00003884        method5 (main)
               stack 1 = 00000000 ( 0000004C )
    -------------------------------------------------------------------------
CODE
  Segment part 102. NOT NEEDED.
    -------------------------------------------------------------------------
DATA_C
  Relative segment, address: CODE_AREA 00016BA0 - 00016BA7 (0x8 bytes), align: 2
  Segment part 30.            Intra module refs:   Segment part 31
    -------------------------------------------------------------------------
CODE
  Relative segment, address: CODE_AREA 00003988 - 000039EB (0x64 bytes), align: 2
  Segment part 103.           Intra module refs:   Segment part 31
           LOCAL                   ADDRESS         
           =====                   =======         
           txtview_ghook           00003988 
               stack 1 = 00000000 ( 00000014 )
    -------------------------------------------------------------------------
CODE
  Segment part 104. NOT NEEDED.
    -------------------------------------------------------------------------
CODE
  Relative segment, address: CODE_AREA 000039EC - 000039EF (0x4 bytes), align: 2
  Segment part 105.           Intra module refs:   Segment part 31
           LOCAL                   ADDRESS         
           =====                   =======         
           txtview_locret          000039EC 
    -------------------------------------------------------------------------
CODE
  Segment part 106. NOT NEEDED.
    -------------------------------------------------------------------------
CODE
  Relative segment, address: CODE_AREA 000039F0 - 00003A0F (0x20 bytes), align: 2
  Segment part 107.           Intra module refs:   Segment part 31
           LOCAL                   ADDRESS         
           =====                   =======         
           txtview_onkey           000039F0 
    -------------------------------------------------------------------------
CODE
  Segment part 108. NOT NEEDED.
    -------------------------------------------------------------------------
DATA_C
  Relative segment, address: CODE_AREA 00016BA8 - 00016BDF (0x38 bytes), align: 2
  Segment part 31.            Intra module refs:   createTextView
    -------------------------------------------------------------------------
CODE
  Relative segment, address: CODE_AREA 00003A10 - 00003B17 (0x108 bytes), align: 2
  Segment part 109.
           ENTRY                   ADDRESS         REF BY
           =====                   =======         ======
           createTextView          00003A10        method5 (main)
               stack 1 = 00000000 ( 00000054 )
    -------------------------------------------------------------------------
CODE
  Segment part 110. NOT NEEDED.
    -------------------------------------------------------------------------
CODE
  Relative segment, address: CODE_AREA 00003B18 - 00003C8B (0x174 bytes), align: 2
  Segment part 111.           Intra module refs:   Segment part 25
           ENTRY                   ADDRESS         REF BY
           =====                   =======         ======
           sel_menu_onkey          00003B18 
               stack 1 = 00000000 ( 00000020 )
    -------------------------------------------------------------------------
CODE
  Relative segment, address: CODE_AREA 00003C8C - 00003C8F (0x4 bytes), align: 2
  Segment part 112.           Intra module refs:   input_box_onkey
                                                   sel_menu_onkey
    -------------------------------------------------------------------------
CODE
  Relative segment, address: CODE_AREA 00003C90 - 00003C93 (0x4 bytes), align: 2
  Segment part 113.           Intra module refs:   input_box_onkey
                                                   sel_menu_onkey
    -------------------------------------------------------------------------
CODE
  Relative segment, address: CODE_AREA 00003C94 - 00003C97 (0x4 bytes), align: 2
  Segment part 114.           Intra module refs:   input_box_onkey
                                                   sel_menu_onkey
    -------------------------------------------------------------------------
CODE
  Relative segment, address: CODE_AREA 00003C98 - 00003C9B (0x4 bytes), align: 2
  Segment part 115.           Intra module refs:   input_box_onkey
                                                   sel_menu_onkey
    -------------------------------------------------------------------------
CODE
  Segment part 116. NOT NEEDED.
    -------------------------------------------------------------------------
CODE
  Relative segment, address: CODE_AREA 00003C9C - 00003CDB (0x40 bytes), align: 2
  Segment part 117.           Intra module refs:   Segment part 25
           ENTRY                   ADDRESS         REF BY
           =====                   =======         ======
           sel_menu_ghook          00003C9C 
               stack 1 = 00000000 ( 0000000C )
    -------------------------------------------------------------------------
CODE
  Segment part 118. NOT NEEDED.
    -------------------------------------------------------------------------
CODE
  Relative segment, address: CODE_AREA 00003CDC - 00003DC3 (0xe8 bytes), align: 2
  Segment part 119.           Intra module refs:   Segment part 25
           ENTRY                   ADDRESS         REF BY
           =====                   =======         ======
           sel_menu_iconhndl       00003CDC 
               stack 1 = 00000000 ( 00000020 )
    -------------------------------------------------------------------------
CODE
  Relative segment, address: CODE_AREA 00003DC4 - 00003DC7 (0x4 bytes), align: 2
  Segment part 120.           Intra module refs:   CreateInputBox
                                                   input_box_onkey
                                                   sel_menu_iconhndl
                                                   sel_menu_onkey
    -------------------------------------------------------------------------
CODE
  Segment part 121. NOT NEEDED.
    -------------------------------------------------------------------------
DATA_I
  Relative segment, address: DATA_AREA 00000070 - 00000103 (0x94 bytes), align: 2
  Segment part 24.            Intra module refs:   ChangeMenuSelection
                                                   Segment part 120
                                                   Segment part 26
                                                   Segment part 35
           ENTRY                   ADDRESS         REF BY
           =====                   =======         ======
           cur_vd                  000000FC 
           input_box_hdr           000000B4 
           input_box_menu_sk       0000009C 
           pos_ref                 00000100 
           sel_HDR                 000000E0 
           sel_STRUCT              00000070 
           sel_sk                  000000C8 
    -------------------------------------------------------------------------
DATA_I
  Relative segment, address: DATA_AREA 00000104 - 0000012F (0x2c bytes), align: 2
  Segment part 28.            Intra module refs:   Segment part 30
                                                   createTextView
           ENTRY                   ADDRESS         REF BY
           =====                   =======         ======
           txtview_hdr             0000011C 
           txtview_menu_sk         00000104 
    -------------------------------------------------------------------------
DATA_I
  Relative segment, address: DATA_AREA 00000130 - 0000013B (0xc bytes), align: 2
  Segment part 32.            Intra module refs:   Segment part 25
           ENTRY                   ADDRESS         REF BY
           =====                   =======         ======
           sel_softkeys            00000130 
    -------------------------------------------------------------------------
DATA_I
  Relative segment, address: DATA_AREA 0000013C - 00000143 (0x8 bytes), align: 2
  Segment part 34.            Intra module refs:   Segment part 25
           ENTRY                   ADDRESS         REF BY
           =====                   =======         ======
           sel_skt                 0000013C 
    -------------------------------------------------------------------------
CODE
  Relative segment, address: CODE_AREA 00003DC8 - 00003FA7 (0x1e0 bytes), align: 2
  Segment part 122.
           ENTRY                   ADDRESS         REF BY
           =====                   =======         ======
           ChangeMenuSelection     00003DC8        method5 (main)
               stack 1 = 00000000 ( 00000040 )
    -------------------------------------------------------------------------
CODE
  Segment part 123. NOT NEEDED.
    -------------------------------------------------------------------------
DATA_C
  Relative segment, address: CODE_AREA 00016BE0 - 00016BE7 (0x8 bytes), align: 2
  Segment part 38.            Intra module refs:   Segment part 39
    -------------------------------------------------------------------------
DATA_I
  Relative segment, address: DATA_AREA 00000144 - 0000016F (0x2c bytes), align: 2
  Segment part 36.            Intra module refs:   Segment part 38
                                                   ShowLink
           ENTRY                   ADDRESS         REF BY
           =====                   =======         ======
           link_box_hdr            0000015C 
           link_box_menu_sk        00000144 
    -------------------------------------------------------------------------
CODE
  Relative segment, address: CODE_AREA 00003FA8 - 00003FAB (0x4 bytes), align: 2
  Segment part 124.           Intra module refs:   Segment part 39
           LOCAL                   ADDRESS         
           =====                   =======         
           link_box_locret         00003FA8 
    -------------------------------------------------------------------------
CODE
  Segment part 125. NOT NEEDED.
    -------------------------------------------------------------------------
CODE
  Relative segment, address: CODE_AREA 00003FAC - 00003FFB (0x50 bytes), align: 2
  Segment part 126.           Intra module refs:   Segment part 39
           LOCAL                   ADDRESS         
           =====                   =======         
           link_box_ghook          00003FAC 
               stack 1 = 00000000 ( 00000014 )
    -------------------------------------------------------------------------
CODE
  Relative segment, address: CODE_AREA 00003FFC - 00003FFF (0x4 bytes), align: 2
  Segment part 127.           Intra module refs:   link_box_ghook
                                                   txtview_ghook
    -------------------------------------------------------------------------
CODE
  Segment part 128. NOT NEEDED.
    -------------------------------------------------------------------------
CODE
  Relative segment, address: CODE_AREA 00004000 - 0000410B (0x10c bytes), align: 2
  Segment part 129.           Intra module refs:   link_box_onkey
           ENTRY                   ADDRESS         REF BY
           =====                   =======         ======
           link_options            00004000 
               stack 1 = 00000000 ( 0000003C )
    -------------------------------------------------------------------------
CODE
  Segment part 130. NOT NEEDED.
    -------------------------------------------------------------------------
CODE
  Relative segment, address: CODE_AREA 0000410C - 0000416B (0x60 bytes), align: 2
  Segment part 131.           Intra module refs:   Segment part 39
           LOCAL                   ADDRESS         
           =====                   =======         
           link_box_onkey          0000410C 
               stack 1 = 00000000 ( 00000004 )
    -------------------------------------------------------------------------
CODE
  Segment part 132. NOT NEEDED.
    -------------------------------------------------------------------------
DATA_C
  Relative segment, address: CODE_AREA 00016BE8 - 00016C1F (0x38 bytes), align: 2
  Segment part 39.            Intra module refs:   ShowLink
    -------------------------------------------------------------------------
CODE
  Relative segment, address: CODE_AREA 0000416C - 00004247 (0xdc bytes), align: 2
  Segment part 133.
           ENTRY                   ADDRESS         REF BY
           =====                   =======         ======
           ShowLink                0000416C        history_menu_onkey (mainmenu)
                                                   method5 (main)
               stack 1 = 00000000 ( 00000044 )
    -------------------------------------------------------------------------
CODE
  Relative segment, address: CODE_AREA 00004248 - 0000424B (0x4 bytes), align: 2
  Segment part 134.           Intra module refs:   ChangeMenuSelection
                                                   CreateInputBox
                                                   ShowLink
                                                   createTemplatesMenu
                                                   createTextView
                                                   input_box_ghook
                                                   input_box_onkey_options
    -------------------------------------------------------------------------
CODE
  Segment part 135. NOT NEEDED.
    -------------------------------------------------------------------------
CODE
  Relative segment, address: CODE_AREA 0000424C - 00004363 (0x118 bytes), align: 2
  Segment part 136.
           ENTRY                   ADDRESS         REF BY
           =====                   =======         ======
           FindStringOnPage        0000424C        find_box_onkey (mainmenu)
                                                   method5 (main)
               stack 1 = 00000000 ( 0000001C )
    -------------------------------------------------------------------------
CODE
  Relative segment, address: CODE_AREA 00004364 - 00004367 (0x4 bytes), align: 2
  Segment part 137.           Intra module refs:   FindStringOnPage
    -------------------------------------------------------------------------
CODE
  Segment part 138. NOT NEEDED.Intra module refs   ChangeMenuSelection
                                                   renderForm
    -------------------------------------------------------------------------
CODE
  Segment part 139. NOT NEEDED.Intra module refs   ChangeMenuSelection
                                                   renderForm
    -------------------------------------------------------------------------
CODE
  Segment part 140. NOT NEEDED.Intra module refs   renderForm
                                                   sel_menu_iconhndl
    -------------------------------------------------------------------------
CODE
  Segment part 141. NOT NEEDED.Intra module refs   RenderPage
    -------------------------------------------------------------------------
CODE
  Segment part 142. NOT NEEDED.Intra module refs   FindReferenceById
    -------------------------------------------------------------------------
CODE
  Segment part 143. NOT NEEDED.Intra module refs   SaveTextToTemplate
                                                   link_options
    -------------------------------------------------------------------------
CODE
  Segment part 144. NOT NEEDED.Intra module refs   LoadTemplates
                                                   SaveTextToTemplate
    -------------------------------------------------------------------------
CODE
  Segment part 145. NOT NEEDED.Intra module refs   templates_menu_onkey
    -------------------------------------------------------------------------
CODE
  Segment part 146. NOT NEEDED.Intra module refs   ShowLink
                                                   input_box_onkey_options
                                                   link_options
                                                   sel_menu_iconhndl
                                                   templates_menu_iconhndl
    -------------------------------------------------------------------------
CODE
  Segment part 147. NOT NEEDED.Intra module refs   ChangeMenuSelection
                                                   CreateInputBox
                                                   ShowLink
                                                   createTemplatesMenu
                                                   createTextView
    -------------------------------------------------------------------------
CODE
  Segment part 148. NOT NEEDED.Intra module refs   input_box_onkey
    -------------------------------------------------------------------------
CODE
  Segment part 149. NOT NEEDED.Intra module refs   input_box_onkey
                                                   sel_menu_onkey
    -------------------------------------------------------------------------
CODE
  Segment part 150. NOT NEEDED.Intra module refs   CreateInputBox
                                                   ShowLink
                                                   createTextView
    -------------------------------------------------------------------------
CODE
  Segment part 151. NOT NEEDED.Intra module refs   sel_menu_onkey
    -------------------------------------------------------------------------
CODE
  Segment part 152. NOT NEEDED.Intra module refs   link_options
    -------------------------------------------------------------------------
CODE
  Segment part 153. NOT NEEDED.Intra module refs   FindStringOnPage
    -------------------------------------------------------------------------
CSTACK
  Segment part 1. NOT NEEDED.
    -------------------------------------------------------------------------
DATA_ID
  Relative segment, address: CODE_AREA 00000004 - 0000000F (0xc bytes), align: 2
  Segment part 19.            Intra module refs:   templates_menu_softkeys
    -------------------------------------------------------------------------
DATA_ID
  Relative segment, address: CODE_AREA 00000010 - 00000067 (0x58 bytes), align: 2
  Segment part 21.            Intra module refs:   Segment part 20
    -------------------------------------------------------------------------
DATA_ID
  Relative segment, address: CODE_AREA 00000068 - 0000006F (0x8 bytes), align: 2
  Segment part 23.            Intra module refs:   templates_menu_skt
    -------------------------------------------------------------------------
DATA_ID
  Relative segment, address: CODE_AREA 00000070 - 00000103 (0x94 bytes), align: 2
  Segment part 25.            Intra module refs:   Segment part 24
    -------------------------------------------------------------------------
DATA_ID
  Relative segment, address: CODE_AREA 00000104 - 0000012F (0x2c bytes), align: 2
  Segment part 29.            Intra module refs:   Segment part 28
    -------------------------------------------------------------------------
DATA_ID
  Relative segment, address: CODE_AREA 00000130 - 0000013B (0xc bytes), align: 2
  Segment part 33.            Intra module refs:   sel_softkeys
    -------------------------------------------------------------------------
DATA_ID
  Relative segment, address: CODE_AREA 0000013C - 00000143 (0x8 bytes), align: 2
  Segment part 35.            Intra module refs:   sel_skt
    -------------------------------------------------------------------------
DATA_ID
  Relative segment, address: CODE_AREA 00000144 - 0000016F (0x2c bytes), align: 2
  Segment part 37.            Intra module refs:   Segment part 36
    -------------------------------------------------------------------------
DATA_ID
  Segment part 154. TENTATIVE. Used definition from conf_loader
           ENTRY                   ADDRESS         REF BY
           =====                   =======         ======
           ?*?DATA_ID              
    -------------------------------------------------------------------------
INITTAB
  Segment part 155. TENTATIVE. Used definition from conf_loader
           ENTRY                   ADDRESS         REF BY
           =====                   =======         ======
           ?init?tab?DATA_I        
    -------------------------------------------------------------------------
INITTAB
  Relative segment, address: CODE_AREA 00017F8C - 00017F97 (0xc bytes), align: 2
  Segment part 156. ROOT.
           ENTRY                   ADDRESS         REF BY
           =====                   =======         ======
           ?init?tab?DATA_Z        00017F8C 

    *************************************************************************

  FILE NAME : C:\arm\BalletMini\Release_ELKA\Obj\file_works.r79
  PROGRAM MODULE, NAME : file_works

  SEGMENTS IN THE MODULE
  ======================
CODE
  Segment part 4. NOT NEEDED.
    -------------------------------------------------------------------------
CODE
  Relative segment, address: CODE_AREA 00004368 - 0000464F (0x2e8 bytes), align: 2
  Segment part 5.             Intra module refs:   ballet_fexists
           ENTRY                   ADDRESS         REF BY
           =====                   =======         ======
           getSymbolicPath         00004368        AddCheckBoxItem (additems)
                                                   AddDropDownList (additems)
                                                   AddInputItem (additems)
                                                   AddRadioButton (additems)
                                                   AddURLToHistory (history)
                                                   CreateBookmarksMenu (mainmenu)
                                                   FindFiles (mainmenu)
                                                   GetHistory (history)
                                                   LoadAuthCode (main)
                                                   LoadTemplates (display_utils)
                                                   RunOtherByURL (main)
                                                   SaveAuthCode (main)
                                                   SaveTextToTemplate (display_utils)
                                                   get_search_engines (mainmenu)
                                                   lgpInitLangPack (lang)
                                                   pagename (urlstack)
                                                   savepage_box_onkey (mainmenu)
                                                   search_menu_onkey (mainmenu)
               stack 1 = 00000000 ( 0000003C )
    -------------------------------------------------------------------------
CODE
  Segment part 6. NOT NEEDED.
    -------------------------------------------------------------------------
CODE
  Relative segment, address: CODE_AREA 00004650 - 0000468B (0x3c bytes), align: 2
  Segment part 7.
           ENTRY                   ADDRESS         REF BY
           =====                   =======         ======
           ballet_fexists          00004650        edit_bookmark_onkey (mainmenu)
               stack 1 = 00000000 ( 00000038 )
    -------------------------------------------------------------------------
CODE
  Segment part 8. NOT NEEDED.
    -------------------------------------------------------------------------
CODE
  Relative segment, address: CODE_AREA 0000468C - 000046EB (0x60 bytes), align: 2
  Segment part 9.             Intra module refs:   getSymbolicPath
           ENTRY                   ADDRESS         REF BY
           =====                   =======         ======
           make_dirs               0000468C 
               stack 1 = 00000000 ( 00000114 )
    -------------------------------------------------------------------------
CSTACK
  Segment part 1. NOT NEEDED.
    -------------------------------------------------------------------------
DATA_C
  Relative segment, address: CODE_AREA 00016C20 - 00016C7F (0x60 bytes), align: 2
  Segment part 2.             Intra module refs:   getSymbolicPath
    -------------------------------------------------------------------------
DATA_C
  Segment part 3. NOT NEEDED.

    *************************************************************************

  FILE NAME : C:\arm\BalletMini\Release_ELKA\Obj\fileman.r79
  PROGRAM MODULE, NAME : fileman

  SEGMENTS IN THE MODULE
  ======================
CODE
  Segment part 13. TENTATIVE. Used definition from display_utils
           ENTRY                   ADDRESS         REF BY
           =====                   =======         ======
           patch_header            
    -------------------------------------------------------------------------
CODE
  Segment part 14. NOT NEEDED.
    -------------------------------------------------------------------------
DATA_Z
  Relative segment, address: CODE_AREA 00017FA8 - 00017FAB (0x4 bytes), align: 2
  Segment part 5.             Intra module refs:   Segment part 22
           ENTRY                   ADDRESS         REF BY
           =====                   =======         ======
           fltop                   00017FA8 
    -------------------------------------------------------------------------
CODE
  Relative segment, address: CODE_AREA 000046EC - 00004727 (0x3c bytes), align: 2
  Segment part 15.            Intra module refs:   CreateRootMenu
                                                   FindFilesFM
                                                   filelist_menu_ghook
           ENTRY                   ADDRESS         REF BY
           =====                   =======         ======
           Free_FLIST              000046EC 
               stack 1 = 00000000 ( 00000008 )
    -------------------------------------------------------------------------
CODE
  Segment part 16. NOT NEEDED.
    -------------------------------------------------------------------------
DATA_C
  Relative segment, address: CODE_AREA 00016C80 - 00016C87 (0x8 bytes), align: 2
  Segment part 2.             Intra module refs:   Segment part 8
    -------------------------------------------------------------------------
DATA_C
  Relative segment, address: CODE_AREA 00016C88 - 00016C8F (0x8 bytes), align: 2
  Segment part 3.             Intra module refs:   Segment part 8
    -------------------------------------------------------------------------
DATA_C
  Relative segment, address: CODE_AREA 00016C90 - 00016D0F (0x80 bytes), align: 2
  Segment part 4.             Intra module refs:   open_fm
    -------------------------------------------------------------------------
DATA_C
  Relative segment, address: CODE_AREA 00017F70 - 00017F72 (0x3 bytes), align: 0
  Segment part 6.             Intra module refs:   FindFilesFM
           ENTRY                   ADDRESS         REF BY
           =====                   =======         ======
           back_fl                 00017F70 
    -------------------------------------------------------------------------
CODE
  Relative segment, address: CODE_AREA 00004728 - 000047D3 (0xac bytes), align: 2
  Segment part 17.            Intra module refs:   CreateRootMenu
                                                   FindFilesFM
           ENTRY                   ADDRESS         REF BY
           =====                   =======         ======
           AddToFListFM            00004728 
               stack 1 = 00000000 ( 00000018 )
    -------------------------------------------------------------------------
CODE
  Segment part 18. NOT NEEDED.
    -------------------------------------------------------------------------
CODE
  Relative segment, address: CODE_AREA 000047D4 - 00004953 (0x180 bytes), align: 2
  Segment part 19.            Intra module refs:   filelist_menu_onkey
                                                   open_fm
           ENTRY                   ADDRESS         REF BY
           =====                   =======         ======
           FindFilesFM             000047D4 
               stack 1 = 00000000 ( 000004DC )
    -------------------------------------------------------------------------
CODE
  Segment part 20. NOT NEEDED.
    -------------------------------------------------------------------------
CODE
  Relative segment, address: CODE_AREA 00004954 - 00004997 (0x44 bytes), align: 2
  Segment part 21.            Intra module refs:   FindFLISTtByN
           ENTRY                   ADDRESS         REF BY
           =====                   =======         ======
           FindFLISTtByNS          00004954 
    -------------------------------------------------------------------------
CODE
  Relative segment, address: CODE_AREA 00004998 - 0000499B (0x4 bytes), align: 2
  Segment part 22.            Intra module refs:   AddToFListFM
                                                   FindFLISTtByNS
                                                   Free_FLIST
    -------------------------------------------------------------------------
CODE
  Segment part 23. NOT NEEDED.
    -------------------------------------------------------------------------
CODE
  Relative segment, address: CODE_AREA 0000499C - 000049EF (0x54 bytes), align: 2
  Segment part 24.            Intra module refs:   filelist_menu_iconhndl
                                                   filelist_menu_onkey
           ENTRY                   ADDRESS         REF BY
           =====                   =======         ======
           FindFLISTtByN           0000499C 
               stack 1 = 00000000 ( 00000008 )
    -------------------------------------------------------------------------
CODE
  Segment part 25. NOT NEEDED.
    -------------------------------------------------------------------------
CODE
  Relative segment, address: CODE_AREA 000049F0 - 00004A77 (0x88 bytes), align: 2
  Segment part 26.            Intra module refs:   filelist_menu_onkey
                                                   open_fm
           ENTRY                   ADDRESS         REF BY
           =====                   =======         ======
           CreateRootMenu          000049F0 
               stack 1 = 00000000 ( 00000030 )
    -------------------------------------------------------------------------
CODE
  Segment part 27. NOT NEEDED.
    -------------------------------------------------------------------------
CODE
  Relative segment, address: CODE_AREA 00004A78 - 00004B77 (0x100 bytes), align: 2
  Segment part 28.            Intra module refs:   Segment part 8
           ENTRY                   ADDRESS         REF BY
           =====                   =======         ======
           filelist_menu_onkey     00004A78 
               stack 1 = 00000000 ( 00000010 )
    -------------------------------------------------------------------------
CODE
  Relative segment, address: CODE_AREA 00004B78 - 00004B7B (0x4 bytes), align: 2
  Segment part 29.            Intra module refs:   CreateRootMenu
                                                   FindFilesFM
                                                   filelist_menu_onkey
    -------------------------------------------------------------------------
CODE
  Segment part 30. NOT NEEDED.
    -------------------------------------------------------------------------
CODE
  Relative segment, address: CODE_AREA 00004B7C - 00004B9F (0x24 bytes), align: 2
  Segment part 31.            Intra module refs:   Segment part 8
           ENTRY                   ADDRESS         REF BY
           =====                   =======         ======
           filelist_menu_ghook     00004B7C 
               stack 1 = 00000000 ( 00000004 )
    -------------------------------------------------------------------------
CODE
  Segment part 32. NOT NEEDED.
    -------------------------------------------------------------------------
CODE
  Relative segment, address: CODE_AREA 00004BA0 - 00004C77 (0xd8 bytes), align: 2
  Segment part 33.            Intra module refs:   Segment part 8
           ENTRY                   ADDRESS         REF BY
           =====                   =======         ======
           filelist_menu_iconhndl
                                   00004BA0 
               stack 1 = 00000000 ( 0000001C )
    -------------------------------------------------------------------------
CODE
  Segment part 34. NOT NEEDED.
    -------------------------------------------------------------------------
DATA_I
  Relative segment, address: DATA_AREA 00000170 - 0000024B (0xdc bytes), align: 2
  Segment part 7.             Intra module refs:   CreateRootMenu
                                                   Segment part 12
                                                   Segment part 8
                                                   filelist_menu_onkey
                                                   open_fm
           ENTRY                   ADDRESS         REF BY
           =====                   =======         ======
           filelist_HDR            0000020C 
           filelist_STRUCT         00000220 
           fmenu_sk                00000170 
           glob_data               00000188 
           header                  0000018C 
    -------------------------------------------------------------------------
DATA_I
  Relative segment, address: DATA_AREA 0000024C - 00000257 (0xc bytes), align: 2
  Segment part 9.             Intra module refs:   Segment part 8
           ENTRY                   ADDRESS         REF BY
           =====                   =======         ======
           fmenusoftkeys           0000024C 
    -------------------------------------------------------------------------
DATA_I
  Relative segment, address: DATA_AREA 00000258 - 0000025F (0x8 bytes), align: 2
  Segment part 11.            Intra module refs:   Segment part 8
           ENTRY                   ADDRESS         REF BY
           =====                   =======         ======
           fmenu_skt               00000258 
    -------------------------------------------------------------------------
CODE
  Relative segment, address: CODE_AREA 00004C78 - 00004D73 (0xfc bytes), align: 2
  Segment part 35.
           ENTRY                   ADDRESS         REF BY
           =====                   =======         ======
           open_fm                 00004C78        method5 (main)
               stack 1 = 00000000 ( 000000A0 )
    -------------------------------------------------------------------------
CODE
  Segment part 36. NOT NEEDED.Intra module refs:   AddToFListFM
    -------------------------------------------------------------------------
CODE
  Segment part 37. NOT NEEDED.Intra module refs:   open_fm
    -------------------------------------------------------------------------
CSTACK
  Segment part 1. NOT NEEDED.
    -------------------------------------------------------------------------
DATA_ID
  Relative segment, address: CODE_AREA 00000170 - 0000024B (0xdc bytes), align: 2
  Segment part 8.             Intra module refs:   Segment part 7
    -------------------------------------------------------------------------
DATA_ID
  Relative segment, address: CODE_AREA 0000024C - 00000257 (0xc bytes), align: 2
  Segment part 10.            Intra module refs:   fmenusoftkeys
    -------------------------------------------------------------------------
DATA_ID
  Relative segment, address: CODE_AREA 00000258 - 0000025F (0x8 bytes), align: 2
  Segment part 12.            Intra module refs:   fmenu_skt
    -------------------------------------------------------------------------
DATA_ID
  Segment part 38. TENTATIVE. Used definition from conf_loader
           ENTRY                   ADDRESS         REF BY
           =====                   =======         ======
           ?*?DATA_ID              
    -------------------------------------------------------------------------
INITTAB
  Segment part 39. TENTATIVE. Used definition from conf_loader
           ENTRY                   ADDRESS         REF BY
           =====                   =======         ======
           ?init?tab?DATA_I        
    -------------------------------------------------------------------------
INITTAB
  Segment part 40. TENTATIVE. Used definition from display_utils
           ENTRY                   ADDRESS         REF BY
           =====                   =======         ======
           ?init?tab?DATA_Z        

    *************************************************************************

  FILE NAME : C:\arm\BalletMini\Release_ELKA\Obj\func.r79
  PROGRAM MODULE, NAME : func

  SEGMENTS IN THE MODULE
  ======================
ELFBEGIN
  Relative segment, address: CODE_AREA 00000000, align: 0
  Segment part 0. ROOT.
           ENTRY                   ADDRESS         REF BY
           =====                   =======         ======
           ELF_BEGIN               00000000        Killer (main)
    -------------------------------------------------------------------------
CODE
  Relative segment, address: CODE_AREA 00004D74 - 00004D7B (0x8 bytes), align: 2
  Segment part 1. ROOT.
           ENTRY                   ADDRESS         REF BY
           =====                   =======         ======
           kill_data               00004D74        Killer (main)
                                                   Segment part 17 (main)
           seqkill                 00004D78 

    *************************************************************************

  FILE NAME : C:\arm\BalletMini\Release_ELKA\Obj\history.r79
  PROGRAM MODULE, NAME : history

  SEGMENTS IN THE MODULE
  ======================
DATA_C
  Relative segment, address: CODE_AREA 00017F73 - 00017F75 (0x3 bytes), align: 0
  Segment part 2.             Intra module refs:   Segment part 6
    -------------------------------------------------------------------------
DATA_C
  Relative segment, address: CODE_AREA 00016D10 - 00016D27 (0x18 bytes), align: 2
  Segment part 3.             Intra module refs:   Segment part 13
    -------------------------------------------------------------------------
DATA_C
  Segment part 4. NOT NEEDED.
           ENTRY                   ADDRESS         REF BY
           =====                   =======         ======
           MAX_FILE_SIZE           
    -------------------------------------------------------------------------
DATA_I
  Relative segment, address: DATA_AREA 00000260 - 00000263 (0x4 bytes), align: 2
  Segment part 5.             Intra module refs:   Segment part 15
           ENTRY                   ADDRESS         REF BY
           =====                   =======         ======
           NEW_LINE                00000260 
    -------------------------------------------------------------------------
CODE
  Segment part 7. NOT NEEDED.
    -------------------------------------------------------------------------
CODE
  Segment part 8. NOT NEEDED.
           ENTRY                   ADDRESS         REF BY
           =====                   =======         ======
           CheckHistory            
               not allocated function
    -------------------------------------------------------------------------
CODE
  Segment part 9. NOT NEEDED.
    -------------------------------------------------------------------------
CODE
  Relative segment, address: CODE_AREA 00004D7C - 00004F6B (0x1f0 bytes), align: 2
  Segment part 10.
           ENTRY                   ADDRESS         REF BY
           =====                   =======         ======
           GetHistory              00004D7C        CreateHistoryMenu (mainmenu)
               stack 1 = 00000000 ( 00000040 )
    -------------------------------------------------------------------------
CODE
  Segment part 11. NOT NEEDED.
    -------------------------------------------------------------------------
CODE
  Relative segment, address: CODE_AREA 00004F6C - 000052C3 (0x358 bytes), align: 2
  Segment part 12.
           ENTRY                   ADDRESS         REF BY
           =====                   =======         ======
           AddURLToHistory         00004F6C        OMS_DataArrived (parse_oms)
               stack 1 = 00000000 ( 0000003C )
    -------------------------------------------------------------------------
CODE
  Relative segment, address: CODE_AREA 000052C4 - 000052C7 (0x4 bytes), align: 2
  Segment part 13.            Intra module refs:   AddURLToHistory
                                                   GetHistory
    -------------------------------------------------------------------------
CODE
  Relative segment, address: CODE_AREA 000052C8 - 000052CB (0x4 bytes), align: 2
  Segment part 14.            Intra module refs:   AddURLToHistory
                                                   GetHistory
    -------------------------------------------------------------------------
CODE
  Relative segment, address: CODE_AREA 000052CC - 000052CF (0x4 bytes), align: 2
  Segment part 15.            Intra module refs:   AddURLToHistory
                                                   GetHistory
    -------------------------------------------------------------------------
CODE
  Relative segment, address: CODE_AREA 000052D0 - 000052D3 (0x4 bytes), align: 2
  Segment part 16.            Intra module refs:   AddURLToHistory
                                                   GetHistory
    -------------------------------------------------------------------------
CODE
  Segment part 17. NOT NEEDED.Intra module refs:   AddURLToHistory
                                                   GetHistory
    -------------------------------------------------------------------------
CSTACK
  Segment part 1. NOT NEEDED.
    -------------------------------------------------------------------------
DATA_ID
  Relative segment, address: CODE_AREA 00000260 - 00000263 (0x4 bytes), align: 2
  Segment part 6.             Intra module refs:   NEW_LINE
    -------------------------------------------------------------------------
DATA_ID
  Segment part 18. TENTATIVE. Used definition from conf_loader
           ENTRY                   ADDRESS         REF BY
           =====                   =======         ======
           ?*?DATA_ID              
    -------------------------------------------------------------------------
INITTAB
  Segment part 19. TENTATIVE. Used definition from conf_loader
           ENTRY                   ADDRESS         REF BY
           =====                   =======         ======
           ?init?tab?DATA_I        

    *************************************************************************

  FILE NAME : C:\arm\BalletMini\Release_ELKA\Obj\inet.r79
  PROGRAM MODULE, NAME : inet

  SEGMENTS IN THE MODULE
  ======================
DATA_I
  Relative segment, address: DATA_AREA 00000264 - 00000293 (0x30 bytes), align: 2
  Segment part 6.             Intra module refs:   Segment part 26
                                                   Segment part 39
                                                   SendPost
                                                   writecache
           ENTRY                   ADDRESS         REF BY
           =====                   =======         ======
           connect_state           00000270        method0 (main)
    -------------------------------------------------------------------------
CODE
  Segment part 8. NOT NEEDED.
    -------------------------------------------------------------------------
CODE
  Relative segment, address: CODE_AREA 000052D4 - 000052F3 (0x20 bytes), align: 2
  Segment part 9.             Intra module refs:   ParseSocketMsg
                                                   bsend
                                                   create_connect
                                                   free_socket
                                                   get_answer
           ENTRY                   ADDRESS         REF BY
           =====                   =======         ======
           SmartREDRAW             000052D4        StartGetFile (main)
               stack 1 = 00000000 ( 00000004 )
    -------------------------------------------------------------------------
CODE
  Segment part 10. NOT NEEDED.
    -------------------------------------------------------------------------
CODE
  Relative segment, address: CODE_AREA 000052F4 - 000054F7 (0x204 bytes), align: 2
  Segment part 11.            Intra module refs:   Segment part 42
           LOCAL                   ADDRESS         
           =====                   =======         
           create_connect          000052F4 
               stack 1 = 00000000 ( 00000030 )
    -------------------------------------------------------------------------
CODE
  Segment part 12. NOT NEEDED.
    -------------------------------------------------------------------------
CODE
  Relative segment, address: CODE_AREA 000054F8 - 00005517 (0x20 bytes), align: 2
  Segment part 13.            Intra module refs:   free_socket
           LOCAL                   ADDRESS         
           =====                   =======         
           ClearSendQ              000054F8 
               stack 1 = 00000000 ( 00000008 )
    -------------------------------------------------------------------------
CODE
  Segment part 14. NOT NEEDED.
    -------------------------------------------------------------------------
CODE
  Relative segment, address: CODE_AREA 00005518 - 00005537 (0x20 bytes), align: 2
  Segment part 15.            Intra module refs:   free_socket
                                                   get_answer
           LOCAL                   ADDRESS         
           =====                   =======         
           ClearRecvQ              00005518 
               stack 1 = 00000000 ( 00000008 )
    -------------------------------------------------------------------------
CODE
  Segment part 16. NOT NEEDED.
    -------------------------------------------------------------------------
CODE
  Relative segment, address: CODE_AREA 00005538 - 0000555F (0x28 bytes), align: 2
  Segment part 17.            Intra module refs:   ParseSocketMsg
                                                   StopINET
           LOCAL                   ADDRESS         
           =====                   =======         
           end_socket              00005538 
               stack 1 = 00000000 ( 00000008 )
    -------------------------------------------------------------------------
CODE
  Segment part 18. NOT NEEDED.
    -------------------------------------------------------------------------
CODE
  Relative segment, address: CODE_AREA 00005560 - 000055B7 (0x58 bytes), align: 2
  Segment part 19.            Intra module refs:   ParseSocketMsg
                                                   StopINET
           LOCAL                   ADDRESS         
           =====                   =======         
           free_socket             00005560 
               stack 1 = 00000000 ( 0000000C )
    -------------------------------------------------------------------------
CODE
  Segment part 20. NOT NEEDED.
    -------------------------------------------------------------------------
CODE
  Relative segment, address: CODE_AREA 000055B8 - 000056FF (0x148 bytes), align: 2
  Segment part 21.            Intra module refs:   ParseSocketMsg
                                                   SendPost
           LOCAL                   ADDRESS         
           =====                   =======         
           bsend                   000055B8 
               stack 1 = 00000000 ( 00000094 )
    -------------------------------------------------------------------------
CODE
  Segment part 22. NOT NEEDED.
    -------------------------------------------------------------------------
CODE
  Relative segment, address: CODE_AREA 00005700 - 00005763 (0x64 bytes), align: 2
  Segment part 23.            Intra module refs:   get_answer
           LOCAL                   ADDRESS         
           =====                   =======         
           writecache              00005700 
               stack 1 = 00000000 ( 00000014 )
    -------------------------------------------------------------------------
CODE
  Segment part 24. NOT NEEDED.
    -------------------------------------------------------------------------
CODE
  Relative segment, address: CODE_AREA 00005764 - 00005943 (0x1e0 bytes), align: 2
  Segment part 25.            Intra module refs:   ParseSocketMsg
           LOCAL                   ADDRESS         
           =====                   =======         
           get_answer              00005764 
               stack 1 = 00000000 ( 00000424 )
    -------------------------------------------------------------------------
CODE
  Relative segment, address: CODE_AREA 00005944 - 00005947 (0x4 bytes), align: 2
  Segment part 26.            Intra module refs:   ClearRecvQ
                                                   ClearSendQ
                                                   bsend
                                                   create_connect
                                                   end_socket
                                                   free_socket
                                                   get_answer
    -------------------------------------------------------------------------
CODE
  Relative segment, address: CODE_AREA 00005948 - 0000594B (0x4 bytes), align: 2
  Segment part 27.            Intra module refs:   bsend
                                                   create_connect
                                                   free_socket
                                                   get_answer
    -------------------------------------------------------------------------
CODE
  Segment part 28. NOT NEEDED.
    -------------------------------------------------------------------------
CODE
  Relative segment, address: CODE_AREA 0000594C - 000060AF (0x764 bytes), align: 2
  Segment part 29.            Intra module refs:   ParseSocketMsg
           LOCAL                   ADDRESS         
           =====                   =======         
           SendPost                0000594C 
               stack 1 = 00000000 ( 00000034 )
    -------------------------------------------------------------------------
CODE
  Relative segment, address: CODE_AREA 000060B0 - 000060B3 (0x4 bytes), align: 2
  Segment part 30.            Intra module refs:   SendPost
                                                   bsend
                                                   create_connect
    -------------------------------------------------------------------------
CODE
  Relative segment, address: CODE_AREA 000060B4 - 000060B7 (0x4 bytes), align: 2
  Segment part 31.            Intra module refs:   SendPost
                                                   create_connect
    -------------------------------------------------------------------------
CODE
  Relative segment, address: CODE_AREA 000060B8 - 000060BB (0x4 bytes), align: 2
  Segment part 32.            Intra module refs:   SendPost
                                                   create_connect
    -------------------------------------------------------------------------
CODE
  Segment part 33. NOT NEEDED.
    -------------------------------------------------------------------------
CODE
  Relative segment, address: CODE_AREA 000060BC - 0000627B (0x1c0 bytes), align: 2
  Segment part 34.
           ENTRY                   ADDRESS         REF BY
           =====                   =======         ======
           ParseSocketMsg          000060BC        maincsm_onmessage (main)
               stack 1 = 00000000 ( 00000014 )
    -------------------------------------------------------------------------
CODE
  Relative segment, address: CODE_AREA 0000627C - 0000627F (0x4 bytes), align: 2
  Segment part 35.            Intra module refs:   ParseSocketMsg
    -------------------------------------------------------------------------
CODE
  Relative segment, address: CODE_AREA 00006280 - 00006283 (0x4 bytes), align: 2
  Segment part 36.            Intra module refs:   ParseSocketMsg
                                                   get_answer
    -------------------------------------------------------------------------
CODE
  Segment part 37. NOT NEEDED.
    -------------------------------------------------------------------------
CODE
  Relative segment, address: CODE_AREA 00006284 - 00006337 (0xb4 bytes), align: 2
  Segment part 38.
           ENTRY                   ADDRESS         REF BY
           =====                   =======         ======
           StartINET               00006284        StartGetFile (main)
               stack 1 = 00000000 ( 00000020 )
    -------------------------------------------------------------------------
CODE
  Relative segment, address: CODE_AREA 00006338 - 0000633B (0x4 bytes), align: 2
  Segment part 39.            Intra module refs:   ParseSocketMsg
                                                   StartINET
    -------------------------------------------------------------------------
CODE
  Relative segment, address: CODE_AREA 0000633C - 0000633F (0x4 bytes), align: 2
  Segment part 40.            Intra module refs:   ParseSocketMsg
                                                   StartINET
    -------------------------------------------------------------------------
CODE
  Relative segment, address: CODE_AREA 00006340 - 00006343 (0x4 bytes), align: 2
  Segment part 41.            Intra module refs:   StartINET
                                                   free_socket
                                                   get_answer
    -------------------------------------------------------------------------
CODE
  Relative segment, address: CODE_AREA 00006344 - 00006347 (0x4 bytes), align: 2
  Segment part 42.            Intra module refs:   ParseSocketMsg
                                                   StartINET
    -------------------------------------------------------------------------
CODE
  Segment part 43. NOT NEEDED.
    -------------------------------------------------------------------------
CODE
  Relative segment, address: CODE_AREA 00006348 - 00006357 (0x10 bytes), align: 2
  Segment part 44.
           ENTRY                   ADDRESS         REF BY
           =====                   =======         ======
           StopINET                00006348        Segment part 51 (main)
               stack 1 = 00000000 ( 00000004 )
    -------------------------------------------------------------------------
CODE
  Segment part 45. NOT NEEDED.Intra module refs:   ParseSocketMsg
                                                   bsend
                                                   create_connect
    -------------------------------------------------------------------------
CODE
  Segment part 46. NOT NEEDED.Intra module refs:   SendPost
                                                   free_socket
    -------------------------------------------------------------------------
CODE
  Segment part 47. NOT NEEDED.Intra module refs:   StartINET
    -------------------------------------------------------------------------
CSTACK
  Segment part 1. NOT NEEDED.
    -------------------------------------------------------------------------
DATA_ID
  Relative segment, address: CODE_AREA 00000264 - 00000293 (0x30 bytes), align: 2
  Segment part 7.             Intra module refs:   connect_state
    -------------------------------------------------------------------------
DATA_ID
  Segment part 48. TENTATIVE. Used definition from conf_loader
           ENTRY                   ADDRESS         REF BY
           =====                   =======         ======
           ?*?DATA_ID              
    -------------------------------------------------------------------------
INITTAB
  Segment part 49. TENTATIVE. Used definition from conf_loader
           ENTRY                   ADDRESS         REF BY
           =====                   =======         ======
           ?init?tab?DATA_I        
    -------------------------------------------------------------------------
DATA_C
  Relative segment, address: CODE_AREA 00016D28 - 00016EE3 (0x1bc bytes), align: 2
  Segment part 2.             Intra module refs:   SendPost
    -------------------------------------------------------------------------
DATA_C
  Segment part 3. NOT NEEDED.
    -------------------------------------------------------------------------
DATA_C
  Relative segment, address: CODE_AREA 00016EE4 - 00016EEB (0x8 bytes), align: 2
  Segment part 4.             Intra module refs:   get_answer
    -------------------------------------------------------------------------
DATA_C
  Segment part 5. NOT NEEDED.

    *************************************************************************

  FILE NAME : C:\arm\BalletMini\Release_ELKA\Obj\lang.r79
  PROGRAM MODULE, NAME : lang

  SEGMENTS IN THE MODULE
  ======================
DATA_Z
  Relative segment, address: CODE_AREA 00017FAC - 000180E7 (0x13c bytes), align: 2
  Segment part 10.            Intra module refs:   Segment part 15
           ENTRY                   ADDRESS         REF BY
           =====                   =======         ======
           lgpData                 00017FAC        Segment part 110 (mainmenu)
                                                   Segment part 127 (display_utils)
                                                   Segment part 134 (display_utils)
                                                   Segment part 144 (mainmenu)
                                                   Segment part 16 (history)
                                                   Segment part 170 (mainmenu)
                                                   Segment part 177 (mainmenu)
                                                   Segment part 218 (mainmenu)
                                                   Segment part 25 (main)
                                                   Segment part 29 (fileman)
                                                   Segment part 30 (inet)
                                                   Segment part 40 (inet)
                                                   Segment part 50 (main)
                                                   bookmarks_options_delete (mainmenu)
                                                   filelist_menu_iconhndl (fileman)
                                                   input_url_ghook (mainmenu)
                                                   input_url_options (mainmenu)
                                                   link_options (display_utils)
                                                   main (main)
                                                   maincsm_onmessage (main)
                                                   method0 (main)
                                                   open_fm (fileman)
                                                   savepage_box_ghook (mainmenu)
                                                   search_menu_ghook (mainmenu)
                                                   sel_menu_iconhndl (display_utils)
           lgpLoaded               000180E4 
    -------------------------------------------------------------------------
CODE
  Segment part 11. NOT NEEDED.
    -------------------------------------------------------------------------
CODE
  Relative segment, address: CODE_AREA 00006358 - 000067DF (0x488 bytes), align: 2
  Segment part 12.
           ENTRY                   ADDRESS         REF BY
           =====                   =======         ======
           lgpInitLangPack         00006358        main (main)
               stack 1 = 00000000 ( 000000D0 )
    -------------------------------------------------------------------------
CODE
  Segment part 13. NOT NEEDED.
    -------------------------------------------------------------------------
CODE
  Relative segment, address: CODE_AREA 000067E0 - 00006817 (0x38 bytes), align: 2
  Segment part 14.
           ENTRY                   ADDRESS         REF BY
           =====                   =======         ======
           lgpFreeLangPack         000067E0        KillAll (main)
               stack 1 = 00000000 ( 0000000C )
    -------------------------------------------------------------------------
CODE
  Relative segment, address: CODE_AREA 00006818 - 0000681B (0x4 bytes), align: 2
  Segment part 15.            Intra module refs:   lgpFreeLangPack
                                                   lgpInitLangPack
    -------------------------------------------------------------------------
CODE
  Segment part 16. NOT NEEDED.Intra module refs:   lgpInitLangPack
    -------------------------------------------------------------------------
CSTACK
  Segment part 1. NOT NEEDED.
    -------------------------------------------------------------------------
INITTAB
  Segment part 17. TENTATIVE. Used definition from display_utils
           ENTRY                   ADDRESS         REF BY
           =====                   =======         ======
           ?init?tab?DATA_Z        
    -------------------------------------------------------------------------
DATA_C
  Relative segment, address: CODE_AREA 00016EEC - 000172E7 (0x3fc bytes), align: 2
  Segment part 2.             Intra module refs:   lgpInitLangPack
    -------------------------------------------------------------------------
DATA_C
  Segment part 3. NOT NEEDED.
    -------------------------------------------------------------------------
DATA_C
  Segment part 4. NOT NEEDED.
    -------------------------------------------------------------------------
DATA_C
  Segment part 5. NOT NEEDED.
    -------------------------------------------------------------------------
DATA_C
  Segment part 6. NOT NEEDED.
    -------------------------------------------------------------------------
DATA_C
  Segment part 7. NOT NEEDED.
    -------------------------------------------------------------------------
DATA_C
  Segment part 8. NOT NEEDED.
    -------------------------------------------------------------------------
DATA_C
  Segment part 9. NOT NEEDED.

    *************************************************************************

  FILE NAME : C:\arm\BalletMini\Release_ELKA\Obj\main.r79
  PROGRAM MODULE, NAME : main

  SEGMENTS IN THE MODULE
  ======================
CODE
  Relative segment, address: CODE_AREA 0000681C - 00006833 (0x18 bytes), align: 2
  Segment part 20.            Intra module refs:   CreateViewGUI
           ENTRY                   ADDRESS         REF BY
           =====                   =======         ======
           patch_rect              0000681C 
    -------------------------------------------------------------------------
CODE
  Segment part 21. NOT NEEDED.
    -------------------------------------------------------------------------
DATA_Z
  Relative segment, address: CODE_AREA 000180E8 - 000180EB (0x4 bytes), align: 2
  Segment part 14.            Intra module refs:   Segment part 41
           ENTRY                   ADDRESS         REF BY
           =====                   =======         ======
           ENABLE_REDRAW           000180E8        SmartREDRAW (inet)
    -------------------------------------------------------------------------
CODE
  Relative segment, address: CODE_AREA 00006834 - 00006A47 (0x214 bytes), align: 2
  Segment part 22.            Intra module refs:   method1
           LOCAL                   ADDRESS         
           =====                   =======         
           StartGetFile            00006834 
               stack 1 = 00000000 ( 0000042C )
    -------------------------------------------------------------------------
CODE
  Relative segment, address: CODE_AREA 00006A48 - 00006A4B (0x4 bytes), align: 2
  Segment part 23.            Intra module refs:   StartGetFile
    -------------------------------------------------------------------------
CODE
  Relative segment, address: CODE_AREA 00006A4C - 00006A4F (0x4 bytes), align: 2
  Segment part 24.            Intra module refs:   StartGetFile
    -------------------------------------------------------------------------
CODE
  Relative segment, address: CODE_AREA 00006A50 - 00006A53 (0x4 bytes), align: 2
  Segment part 25.            Intra module refs:   StartGetFile
    -------------------------------------------------------------------------
CODE
  Segment part 26. NOT NEEDED.
    -------------------------------------------------------------------------
CODE
  Relative segment, address: CODE_AREA 00006A54 - 000072C7 (0x874 bytes), align: 2
  Segment part 27.            Intra module refs:   method5
           ENTRY                   ADDRESS         REF BY
           =====                   =======         ======
           collectItemsParams      00006A54        input_box_onkey (display_utils)
                                                   sel_menu_onkey (display_utils)
               stack 1 = 00000000 ( 0000002C )
    -------------------------------------------------------------------------
CODE
  Segment part 28. NOT NEEDED.
    -------------------------------------------------------------------------
CODE
  Relative segment, address: CODE_AREA 000072C8 - 00007573 (0x2ac bytes), align: 2
  Segment part 29.            Intra module refs:   Segment part 17
           LOCAL                   ADDRESS         
           =====                   =======         
           method0                 000072C8 
               stack 1 = 00000000 ( 0000004C )
    -------------------------------------------------------------------------
CODE
  Segment part 30. NOT NEEDED.
    -------------------------------------------------------------------------
CODE
  Relative segment, address: CODE_AREA 00007574 - 00007617 (0xa4 bytes), align: 2
  Segment part 31.            Intra module refs:   Segment part 17
           LOCAL                   ADDRESS         
           =====                   =======         
           method1                 00007574 
               stack 1 = 00000000 ( 00000010 )
    -------------------------------------------------------------------------
CODE
  Segment part 32. NOT NEEDED.
    -------------------------------------------------------------------------
CODE
  Relative segment, address: CODE_AREA 00007618 - 00007623 (0xc bytes), align: 2
  Segment part 33.            Intra module refs:   ParseInputFilename
                                                   ReadUrlFile
                                                   maincsm_onmessage
                                                   method2
           ENTRY                   ADDRESS         REF BY
           =====                   =======         ======
           FreeViewUrl             00007618 
               stack 1 = 00000000 ( 00000004 )
    -------------------------------------------------------------------------
CODE
  Segment part 34. NOT NEEDED.
    -------------------------------------------------------------------------
CODE
  Relative segment, address: CODE_AREA 00007624 - 0000767B (0x58 bytes), align: 2
  Segment part 35.            Intra module refs:   Segment part 17
           LOCAL                   ADDRESS         
           =====                   =======         
           method2                 00007624 
               stack 1 = 00000000 ( 0000000C )
    -------------------------------------------------------------------------
CODE
  Relative segment, address: CODE_AREA 0000767C - 0000767F (0x4 bytes), align: 2
  Segment part 36.            Intra module refs:   method0
                                                   method1
                                                   method2
    -------------------------------------------------------------------------
CODE
  Segment part 37. NOT NEEDED.
    -------------------------------------------------------------------------
CODE
  Relative segment, address: CODE_AREA 00007680 - 000076C3 (0x44 bytes), align: 2
  Segment part 38.            Intra module refs:   Segment part 17
           LOCAL                   ADDRESS         
           =====                   =======         
           method3                 00007680 
               stack 1 = 00000000 ( 00000008 )
    -------------------------------------------------------------------------
CODE
  Segment part 39. NOT NEEDED.
    -------------------------------------------------------------------------
CODE
  Relative segment, address: CODE_AREA 000076C4 - 00007703 (0x40 bytes), align: 2
  Segment part 40.            Intra module refs:   Segment part 17
           LOCAL                   ADDRESS         
           =====                   =======         
           method4                 000076C4 
               stack 1 = 00000000 ( 00000008 )
    -------------------------------------------------------------------------
CODE
  Relative segment, address: CODE_AREA 00007704 - 00007707 (0x4 bytes), align: 2
  Segment part 41.            Intra module refs:   method3
                                                   method4
    -------------------------------------------------------------------------
CODE
  Segment part 42. NOT NEEDED.
    -------------------------------------------------------------------------
CODE
  Relative segment, address: CODE_AREA 00007708 - 00007867 (0x160 bytes), align: 2
  Segment part 43.            Intra module refs:   method5
           ENTRY                   ADDRESS         REF BY
           =====                   =======         ======
           RunOtherByURL           00007708        link_options (display_utils)
               stack 1 = 00000000 ( 0000001C )
    -------------------------------------------------------------------------
CODE
  Relative segment, address: CODE_AREA 00007868 - 0000786B (0x4 bytes), align: 2
  Segment part 44.            Intra module refs:   RunOtherByURL
    -------------------------------------------------------------------------
CODE
  Relative segment, address: CODE_AREA 0000786C - 0000786F (0x4 bytes), align: 2
  Segment part 45.            Intra module refs:   RunOtherByURL
    -------------------------------------------------------------------------
CODE
  Segment part 46. NOT NEEDED.
    -------------------------------------------------------------------------
CODE
  Relative segment, address: CODE_AREA 00007870 - 0000799F (0x130 bytes), align: 2
  Segment part 47.            Intra module refs:   maincsm_onmessage
                                                   method5
           ENTRY                   ADDRESS         REF BY
           =====                   =======         ======
           GoToLocalLinkPos        00007870 
               stack 1 = 00000000 ( 00000018 )
    -------------------------------------------------------------------------
CODE
  Segment part 48. NOT NEEDED.
    -------------------------------------------------------------------------
DATA_I
  Relative segment, address: DATA_AREA 00000294 - 000004E7 (0x254 bytes), align: 2
  Segment part 12.            Intra module refs:   FreeViewUrl
                                                   Segment part 23
                                                   Segment part 36
                                                   Segment part 44
                                                   Segment part 70
                                                   Segment part 91
                                                   method0
                                                   method5
           ENTRY                   ADDRESS         REF BY
           =====                   =======         ======
           BALLET_EXE              000003E8 
           BALLET_PATH             000002E8        getSymbolicPath (file_works)
           STOPPED                 000002B0        Segment part 41 (inet)
           TERMINATED              000002AC        get_answer (inet)
           Xipc                    00000294 
           from_url                000002C0        Segment part 113 (display_utils)
                                                   SendPost (inet)
           goto_params             000002C4        Segment part 114 (display_utils)
                                                   SendPost (inet)
           goto_url                000002BC        Segment part 112 (display_utils)
                                                   Segment part 143 (mainmenu)
                                                   Segment part 206 (mainmenu)
           longpress               000002DC 
           maincsm_id              000002D8        Segment part 115 (display_utils)
                                                   Segment part 217 (mainmenu)
                                                   Segment part 98 (mainmenu)
           search_inet_string      000002D4        Segment part 149 (mainmenu)
           search_isCaseSens       000002D0        FindStringOnPage (display_utils)
                                                   find_box_ghook (mainmenu)
           search_string           000002CC        Segment part 137 (display_utils)
                                                   Segment part 159 (mainmenu)
                                                   Segment part 66 (display_utils)
           sieget_ipc              000002A0 
           view_url                000002B8        Segment part 124 (mainmenu)
                                                   Segment part 191 (mainmenu)
           view_url_mode           000002B4        OMS_DataArrived (parse_oms)
                                                   Segment part 190 (mainmenu)
                                                   Segment part 99 (mainmenu)
           ws_console              000002C8        Segment part 27 (inet)
                                                   Segment part 35 (inet)
           xtask_ipc_name          000002E0 
    -------------------------------------------------------------------------
CODE
  Relative segment, address: CODE_AREA 000079A0 - 00008547 (0xba8 bytes), align: 2
  Segment part 49.            Intra module refs:   Segment part 17
           LOCAL                   ADDRESS         
           =====                   =======         
           method5                 000079A0 
               stack 1 = 00000000 ( 000000B4 )
    -------------------------------------------------------------------------
CODE
  Relative segment, address: CODE_AREA 00008548 - 0000854B (0x4 bytes), align: 2
  Segment part 50.            Intra module refs:   method5
    -------------------------------------------------------------------------
CODE
  Relative segment, address: CODE_AREA 0000854C - 0000854F (0x4 bytes), align: 2
  Segment part 51.            Intra module refs:   method2
                                                   method5
    -------------------------------------------------------------------------
CODE
  Segment part 52. NOT NEEDED.
    -------------------------------------------------------------------------
CODE
  Relative segment, address: CODE_AREA 00008550 - 00008557 (0x8 bytes), align: 2
  Segment part 53.            Intra module refs:   Segment part 17
           LOCAL                   ADDRESS         
           =====                   =======         
           method8                 00008550 
    -------------------------------------------------------------------------
CODE
  Segment part 54. NOT NEEDED.
    -------------------------------------------------------------------------
CODE
  Relative segment, address: CODE_AREA 00008558 - 0000855F (0x8 bytes), align: 2
  Segment part 55.            Intra module refs:   Segment part 17
           LOCAL                   ADDRESS         
           =====                   =======         
           method9                 00008558 
    -------------------------------------------------------------------------
CODE
  Segment part 56. NOT NEEDED.
    -------------------------------------------------------------------------
CODE
  Relative segment, address: CODE_AREA 00008560 - 00008613 (0xb4 bytes), align: 2
  Segment part 57.            Intra module refs:   maincsm_oncreate
                                                   maincsm_onmessage
           LOCAL                   ADDRESS         
           =====                   =======         
           CreateViewGUI           00008560 
               stack 1 = 00000000 ( 0000001C )
    -------------------------------------------------------------------------
CODE
  Segment part 58. NOT NEEDED.
    -------------------------------------------------------------------------
CODE
  Relative segment, address: CODE_AREA 00008614 - 00008683 (0x70 bytes), align: 2
  Segment part 59.            Intra module refs:   Segment part 2
           LOCAL                   ADDRESS         
           =====                   =======         
           maincsm_oncreate        00008614 
               stack 1 = 00000000 ( 00000010 )
    -------------------------------------------------------------------------
CODE
  Segment part 60. NOT NEEDED.
    -------------------------------------------------------------------------
CODE
  Relative segment, address: CODE_AREA 00008684 - 000086AF (0x2c bytes), align: 2
  Segment part 61.            Intra module refs:   Killer
           LOCAL                   ADDRESS         
           =====                   =======         
           KillAll                 00008684 
               stack 1 = 00000000 ( 00000008 )
    -------------------------------------------------------------------------
CODE
  Segment part 62. NOT NEEDED.
    -------------------------------------------------------------------------
CODE
  Relative segment, address: CODE_AREA 000086B0 - 000086CF (0x20 bytes), align: 2
  Segment part 63.            Intra module refs:   Segment part 93
           LOCAL                   ADDRESS         
           =====                   =======         
           Killer                  000086B0 
               stack 1 = 00000000 ( 00000004 )
    -------------------------------------------------------------------------
CODE
  Segment part 64. NOT NEEDED.
    -------------------------------------------------------------------------
CODE
  Relative segment, address: CODE_AREA 000086D0 - 0000870B (0x3c bytes), align: 2
  Segment part 65.            Intra module refs:   Segment part 2
           LOCAL                   ADDRESS         
           =====                   =======         
           maincsm_onclose         000086D0 
               stack 1 = 00000000 ( 00000008 )
    -------------------------------------------------------------------------
CODE
  Segment part 66. NOT NEEDED.
    -------------------------------------------------------------------------
CODE
  Relative segment, address: CODE_AREA 0000870C - 0000876B (0x60 bytes), align: 2
  Segment part 67.            Intra module refs:   maincsm_onmessage
           ENTRY                   ADDRESS         REF BY
           =====                   =======         ======
           GotoLink                0000870C 
               stack 1 = 00000000 ( 00000008 )
    -------------------------------------------------------------------------
CODE
  Segment part 68. NOT NEEDED.
    -------------------------------------------------------------------------
CODE
  Relative segment, address: CODE_AREA 0000876C - 000087CB (0x60 bytes), align: 2
  Segment part 69.            Intra module refs:   maincsm_onmessage
           ENTRY                   ADDRESS         REF BY
           =====                   =======         ======
           GotoFile                0000876C 
               stack 1 = 00000000 ( 00000008 )
    -------------------------------------------------------------------------
CODE
  Relative segment, address: CODE_AREA 000087CC - 000087CF (0x4 bytes), align: 2
  Segment part 70.            Intra module refs:   GotoFile
                                                   GotoLink
    -------------------------------------------------------------------------
CODE
  Segment part 71. NOT NEEDED.
    -------------------------------------------------------------------------
CODE
  Relative segment, address: CODE_AREA 000087D0 - 00008C77 (0x4a8 bytes), align: 2
  Segment part 72.            Intra module refs:   Segment part 2
           LOCAL                   ADDRESS         
           =====                   =======         
           maincsm_onmessage       000087D0 
               stack 1 = 00000000 ( 00000030 )
    -------------------------------------------------------------------------
CODE
  Relative segment, address: CODE_AREA 00008C78 - 00008C7B (0x4 bytes), align: 2
  Segment part 73.            Intra module refs:   GotoFile
                                                   GotoLink
                                                   maincsm_onmessage
    -------------------------------------------------------------------------
CODE
  Segment part 74. NOT NEEDED.
    -------------------------------------------------------------------------
DATA_Z
  Relative segment, address: CODE_AREA 000180EC - 00018203 (0x118 bytes), align: 2
  Segment part 18.            Intra module refs:   Segment part 2
    -------------------------------------------------------------------------
DATA_C
  Relative segment, address: CODE_AREA 000172E8 - 0001733F (0x58 bytes), align: 2
  Segment part 2.             Intra module refs:   Segment part 92
    -------------------------------------------------------------------------
DATA_C
  Relative segment, address: CODE_AREA 00017340 - 000173D7 (0x98 bytes), align: 2
  Segment part 3.             Intra module refs:   Segment part 24
                                                   Segment part 45
                                                   Segment part 73
                                                   method5
           ENTRY                   ADDRESS         REF BY
           =====                   =======         ======
           ipc_my_name             00017398        Segment part 36 (inet)
           sieget_ipc_name         000173B8 
    -------------------------------------------------------------------------
DATA_C
  Relative segment, address: CODE_AREA 000173D8 - 000173DF (0x8 bytes), align: 2
  Segment part 4.             Intra module refs:   method0
    -------------------------------------------------------------------------
DATA_C
  Segment part 5. NOT NEEDED.
    -------------------------------------------------------------------------
DATA_C
  Segment part 6. NOT NEEDED.
    -------------------------------------------------------------------------
DATA_C
  Relative segment, address: CODE_AREA 000173E0 - 000173F3 (0x14 bytes), align: 2
  Segment part 7.             Intra module refs:   Segment part 84
    -------------------------------------------------------------------------
DATA_C
  Segment part 8. NOT NEEDED.
    -------------------------------------------------------------------------
DATA_C
  Segment part 9. NOT NEEDED.
    -------------------------------------------------------------------------
DATA_C
  Segment part 10. NOT NEEDED.
    -------------------------------------------------------------------------
DATA_C
  Relative segment, address: CODE_AREA 000173F4 - 000173FF (0xc bytes), align: 2
  Segment part 11.            Intra module refs:   ParseInputFilename
    -------------------------------------------------------------------------
DATA_C
  Relative segment, address: CODE_AREA 00017400 - 00017403 (0x4 bytes), align: 2
  Segment part 15.
           ENTRY                   ADDRESS         REF BY
           =====                   =======         ======
           scr_shift               00017400        Segment part 58 (display_utils)
                                                   Segment part 65 (display_utils)
    -------------------------------------------------------------------------
DATA_C
  Relative segment, address: CODE_AREA 00017404 - 00017407 (0x4 bytes), align: 2
  Segment part 16.            Intra module refs:   Segment part 2
           ENTRY                   ADDRESS         REF BY
           =====                   =======         ======
           minus11                 00017404 
    -------------------------------------------------------------------------
DATA_C
  Relative segment, address: CODE_AREA 00017408 - 0001743B (0x34 bytes), align: 2
  Segment part 17.            Intra module refs:   CreateViewGUI
    -------------------------------------------------------------------------
CODE
  Relative segment, address: CODE_AREA 00008C7C - 00008CEF (0x74 bytes), align: 2
  Segment part 75.            Intra module refs:   main
                                                   maincsm_onmessage
           ENTRY                   ADDRESS         REF BY
           =====                   =======         ======
           UpdateCSMname           00008C7C        OMS_DataArrived (parse_oms)
               stack 1 = 00000000 ( 00000010 )
    -------------------------------------------------------------------------
CODE
  Segment part 76. NOT NEEDED.
    -------------------------------------------------------------------------
CODE
  Relative segment, address: CODE_AREA 00008CF0 - 00008DDB (0xec bytes), align: 2
  Segment part 77.            Intra module refs:   ParseInputFilename
           ENTRY                   ADDRESS         REF BY
           =====                   =======         ======
           ReadUrlFile             00008CF0        bookmarks_menu_onkey (mainmenu)
               stack 1 = 00000000 ( 00000040 )
    -------------------------------------------------------------------------
CODE
  Segment part 78. NOT NEEDED.
    -------------------------------------------------------------------------
CODE
  Relative segment, address: CODE_AREA 00008DDC - 00008E87 (0xac bytes), align: 2
  Segment part 79.            Intra module refs:   main
                                                   maincsm_onmessage
           LOCAL                   ADDRESS         
           =====                   =======         
           ParseInputFilename      00008DDC 
               stack 1 = 00000000 ( 00000010 )
    -------------------------------------------------------------------------
CODE
  Segment part 80. NOT NEEDED.
    -------------------------------------------------------------------------
DATA_Z
  Relative segment, address: CODE_AREA 00018204 - 000182C3 (0xc0 bytes), align: 2
  Segment part 19.            Intra module refs:   LoadAuthCode
           ENTRY                   ADDRESS         REF BY
           =====                   =======         ======
           AUTH_CODE               00018244        OMS_DataArrived (parse_oms)
                                                   SendPost (inet)
           AUTH_PREFIX             00018204        OMS_DataArrived (parse_oms)
                                                   SendPost (inet)
    -------------------------------------------------------------------------
CODE
  Relative segment, address: CODE_AREA 00008E88 - 00008FCB (0x144 bytes), align: 2
  Segment part 81.            Intra module refs:   main
           ENTRY                   ADDRESS         REF BY
           =====                   =======         ======
           LoadAuthCode            00008E88 
               stack 1 = 00000000 ( 00000040 )
    -------------------------------------------------------------------------
CODE
  Segment part 82. NOT NEEDED.
    -------------------------------------------------------------------------
CODE
  Relative segment, address: CODE_AREA 00008FCC - 0000907F (0xb4 bytes), align: 2
  Segment part 83.            Intra module refs:   main
           ENTRY                   ADDRESS         REF BY
           =====                   =======         ======
           SaveAuthCode            00008FCC        OMS_DataArrived (parse_oms)
               stack 1 = 00000000 ( 00000018 )
    -------------------------------------------------------------------------
CODE
  Relative segment, address: CODE_AREA 00009080 - 00009083 (0x4 bytes), align: 2
  Segment part 84.            Intra module refs:   LoadAuthCode
                                                   SaveAuthCode
    -------------------------------------------------------------------------
CODE
  Segment part 85. NOT NEEDED.
    -------------------------------------------------------------------------
CODE
  Segment part 86. NOT NEEDED.
           ENTRY                   ADDRESS         REF BY
           =====                   =======         ======
           GenerateFile            
               not allocated function
    -------------------------------------------------------------------------
CODE
  Segment part 87. NOT NEEDED.
    -------------------------------------------------------------------------
CODE
  Relative segment, address: CODE_AREA 00009084 - 00009183 (0x100 bytes), align: 2
  Segment part 88.            Intra module refs:   main
           ENTRY                   ADDRESS         REF BY
           =====                   =======         ======
           ReadPatch               00009084 
               stack 1 = 00000000 ( 00000140 )
    -------------------------------------------------------------------------
CODE
  Segment part 89. NOT NEEDED.
    -------------------------------------------------------------------------
CODE
  Relative segment, address: CODE_AREA 00009184 - 0000933F (0x1bc bytes), align: 2
  Segment part 90.
           ENTRY                   ADDRESS         REF BY
           =====                   =======         ======
           main                    00009184        Absolute parts (?ABS_ENTRY_MOD)
               stack 1 = 00000000 ( 0000009C )
    -------------------------------------------------------------------------
CODE
  Relative segment, address: CODE_AREA 00009340 - 00009343 (0x4 bytes), align: 2
  Segment part 91.            Intra module refs:   KillAll
                                                   ParseInputFilename
                                                   ReadUrlFile
                                                   main
                                                   maincsm_onclose
                                                   maincsm_oncreate
                                                   maincsm_onmessage
    -------------------------------------------------------------------------
CODE
  Relative segment, address: CODE_AREA 00009344 - 00009347 (0x4 bytes), align: 2
  Segment part 92.            Intra module refs:   UpdateCSMname
                                                   main
    -------------------------------------------------------------------------
CODE
  Relative segment, address: CODE_AREA 00009348 - 0000934B (0x4 bytes), align: 2
  Segment part 93.            Intra module refs:   main
                                                   maincsm_onclose
    -------------------------------------------------------------------------
CODE
  Segment part 94. NOT NEEDED.Intra module refs:   StartGetFile
    -------------------------------------------------------------------------
CODE
  Segment part 95. NOT NEEDED.Intra module refs:   StartGetFile
    -------------------------------------------------------------------------
CODE
  Segment part 96. NOT NEEDED.Intra module refs:   StartGetFile
    -------------------------------------------------------------------------
CODE
  Segment part 97. NOT NEEDED.Intra module refs:   StartGetFile
    -------------------------------------------------------------------------
CODE
  Segment part 98. NOT NEEDED.Intra module refs:   collectItemsParams
    -------------------------------------------------------------------------
CODE
  Segment part 99. NOT NEEDED.Intra module refs:   collectItemsParams
                                                   maincsm_onmessage
    -------------------------------------------------------------------------
CODE
  Segment part 100. NOT NEEDED.Intra module refs   collectItemsParams
    -------------------------------------------------------------------------
CODE
  Segment part 101. NOT NEEDED.Intra module refs   collectItemsParams
                                                   method5
    -------------------------------------------------------------------------
CODE
  Segment part 102. NOT NEEDED.Intra module refs   collectItemsParams
                                                   method5
    -------------------------------------------------------------------------
CODE
  Segment part 103. NOT NEEDED.Intra module refs   collectItemsParams
    -------------------------------------------------------------------------
CODE
  Segment part 104. NOT NEEDED.Intra module refs   collectItemsParams
    -------------------------------------------------------------------------
CODE
  Segment part 105. NOT NEEDED.Intra module refs   method0
                                                   method5
    -------------------------------------------------------------------------
CODE
  Segment part 106. NOT NEEDED.Intra module refs   UpdateCSMname
                                                   method0
    -------------------------------------------------------------------------
CODE
  Segment part 107. NOT NEEDED.Intra module refs   method0
    -------------------------------------------------------------------------
CODE
  Segment part 108. NOT NEEDED.Intra module refs   method1
    -------------------------------------------------------------------------
CODE
  Segment part 109. NOT NEEDED.Intra module refs   FreeViewUrl
    -------------------------------------------------------------------------
CODE
  Segment part 110. NOT NEEDED.Intra module refs   method2
    -------------------------------------------------------------------------
CODE
  Segment part 111. NOT NEEDED.Intra module refs   method2
    -------------------------------------------------------------------------
CODE
  Segment part 112. NOT NEEDED.Intra module refs   LoadAuthCode
                                                   RunOtherByURL
                                                   SaveAuthCode
    -------------------------------------------------------------------------
CODE
  Segment part 113. NOT NEEDED.Intra module refs   GoToLocalLinkPos
                                                   maincsm_onmessage
                                                   method5
    -------------------------------------------------------------------------
CODE
  Segment part 114. NOT NEEDED.Intra module refs   GoToLocalLinkPos
                                                   maincsm_onmessage
    -------------------------------------------------------------------------
CODE
  Segment part 115. NOT NEEDED.Intra module refs   method5
    -------------------------------------------------------------------------
CODE
  Segment part 116. NOT NEEDED.Intra module refs   method5
    -------------------------------------------------------------------------
CODE
  Segment part 117. NOT NEEDED.Intra module refs   method5
    -------------------------------------------------------------------------
CODE
  Segment part 118. NOT NEEDED.Intra module refs   method5
    -------------------------------------------------------------------------
CODE
  Segment part 119. NOT NEEDED.Intra module refs   method5
    -------------------------------------------------------------------------
CODE
  Segment part 120. NOT NEEDED.Intra module refs   method5
    -------------------------------------------------------------------------
CODE
  Segment part 121. NOT NEEDED.Intra module refs   method5
    -------------------------------------------------------------------------
CODE
  Segment part 122. NOT NEEDED.Intra module refs   method5
    -------------------------------------------------------------------------
CODE
  Segment part 123. NOT NEEDED.Intra module refs   method5
    -------------------------------------------------------------------------
CODE
  Segment part 124. NOT NEEDED.Intra module refs   method5
    -------------------------------------------------------------------------
CODE
  Segment part 125. NOT NEEDED.Intra module refs   method5
    -------------------------------------------------------------------------
CODE
  Segment part 126. NOT NEEDED.Intra module refs   method5
    -------------------------------------------------------------------------
CODE
  Segment part 127. NOT NEEDED.Intra module refs   method5
    -------------------------------------------------------------------------
CODE
  Segment part 128. NOT NEEDED.Intra module refs   CreateViewGUI
    -------------------------------------------------------------------------
CODE
  Segment part 129. NOT NEEDED.Intra module refs   CreateViewGUI
    -------------------------------------------------------------------------
CODE
  Segment part 130. NOT NEEDED.Intra module refs   CreateViewGUI
    -------------------------------------------------------------------------
CODE
  Segment part 131. NOT NEEDED.Intra module refs   maincsm_oncreate
    -------------------------------------------------------------------------
CODE
  Segment part 132. NOT NEEDED.Intra module refs   KillAll
    -------------------------------------------------------------------------
CODE
  Segment part 133. NOT NEEDED.Intra module refs   KillAll
    -------------------------------------------------------------------------
CODE
  Segment part 134. NOT NEEDED.Intra module refs   Killer
    -------------------------------------------------------------------------
CODE
  Segment part 135. NOT NEEDED.Intra module refs   ParseInputFilename
                                                   maincsm_onmessage
    -------------------------------------------------------------------------
CODE
  Segment part 136. NOT NEEDED.Intra module refs   maincsm_onmessage
    -------------------------------------------------------------------------
CODE
  Segment part 137. NOT NEEDED.Intra module refs   main
                                                   maincsm_onmessage
    -------------------------------------------------------------------------
CODE
  Segment part 138. NOT NEEDED.Intra module refs   maincsm_onmessage
    -------------------------------------------------------------------------
CODE
  Segment part 139. NOT NEEDED.Intra module refs   maincsm_onmessage
    -------------------------------------------------------------------------
CODE
  Segment part 140. NOT NEEDED.Intra module refs   maincsm_onmessage
    -------------------------------------------------------------------------
CODE
  Segment part 141. NOT NEEDED.Intra module refs   maincsm_onmessage
    -------------------------------------------------------------------------
CODE
  Segment part 142. NOT NEEDED.Intra module refs   ParseInputFilename
    -------------------------------------------------------------------------
CODE
  Segment part 143. NOT NEEDED.Intra module refs   main
    -------------------------------------------------------------------------
CODE
  Segment part 144. NOT NEEDED.Intra module refs   main
    -------------------------------------------------------------------------
CODE
  Segment part 145. NOT NEEDED.Intra module refs   main
    -------------------------------------------------------------------------
CSTACK
  Segment part 1. NOT NEEDED.
    -------------------------------------------------------------------------
DATA_ID
  Relative segment, address: CODE_AREA 00000294 - 000004E7 (0x254 bytes), align: 2
  Segment part 13.            Intra module refs:   Segment part 12
    -------------------------------------------------------------------------
INITTAB
  Segment part 146. TENTATIVE. Used definition from display_utils
           ENTRY                   ADDRESS         REF BY
           =====                   =======         ======
           ?init?tab?DATA_Z        
    -------------------------------------------------------------------------
DATA_ID
  Segment part 147. TENTATIVE. Used definition from conf_loader
           ENTRY                   ADDRESS         REF BY
           =====                   =======         ======
           ?*?DATA_ID              
    -------------------------------------------------------------------------
INITTAB
  Segment part 148. TENTATIVE. Used definition from conf_loader
           ENTRY                   ADDRESS         REF BY
           =====                   =======         ======
           ?init?tab?DATA_I        

    *************************************************************************

  FILE NAME : C:\arm\BalletMini\Release_ELKA\Obj\mainmenu.r79
  PROGRAM MODULE, NAME : mainmenu

  SEGMENTS IN THE MODULE
  ======================
CODE
  Segment part 83. TENTATIVE. Used definition from display_utils
           ENTRY                   ADDRESS         REF BY
           =====                   =======         ======
           patch_header            
    -------------------------------------------------------------------------
CODE
  Segment part 84. TENTATIVE. Used definition from display_utils
           ENTRY                   ADDRESS         REF BY
           =====                   =======         ======
           patch_input             
    -------------------------------------------------------------------------
CODE
  Relative segment, address: CODE_AREA 0000934C - 0000937B (0x30 bytes), align: 2
  Segment part 85.            Intra module refs:   show_bookmarks_options
           ENTRY                   ADDRESS         REF BY
           =====                   =======         ======
           patch_header_small      0000934C 
               stack 1 = 00000000 ( 00000008 )
    -------------------------------------------------------------------------
CODE
  Segment part 86. NOT NEEDED.
    -------------------------------------------------------------------------
CODE
  Relative segment, address: CODE_AREA 0000937C - 0000943F (0xc4 bytes), align: 2
  Segment part 87.            Intra module refs:   Segment part 18
           LOCAL                   ADDRESS         
           =====                   =======         
           edit_bookmark_ghook     0000937C 
               stack 1 = 00000000 ( 0000004C )
    -------------------------------------------------------------------------
CODE
  Segment part 88. NOT NEEDED.
    -------------------------------------------------------------------------
CODE
  Relative segment, address: CODE_AREA 00009440 - 00009443 (0x4 bytes), align: 2
  Segment part 89.            Intra module refs:   Segment part 18
           LOCAL                   ADDRESS         
           =====                   =======         
           edit_bookmark_locret    00009440 
    -------------------------------------------------------------------------
CODE
  Segment part 90. NOT NEEDED.
    -------------------------------------------------------------------------
CODE
  Relative segment, address: CODE_AREA 00009444 - 000094FF (0xbc bytes), align: 2
  Segment part 91.            Intra module refs:   edit_bookmark_onkey
           ENTRY                   ADDRESS         REF BY
           =====                   =======         ======
           edit_bookmark_extract_name
                                   00009444 
               stack 1 = 00000000 ( 0000003C )
    -------------------------------------------------------------------------
CODE
  Segment part 92. NOT NEEDED.
    -------------------------------------------------------------------------
CODE
  Relative segment, address: CODE_AREA 00009500 - 00009577 (0x78 bytes), align: 2
  Segment part 93.            Intra module refs:   edit_bookmark_onkey
           ENTRY                   ADDRESS         REF BY
           =====                   =======         ======
           edit_bookmark_extract_link
                                   00009500 
               stack 1 = 00000000 ( 0000003C )
    -------------------------------------------------------------------------
CODE
  Segment part 94. NOT NEEDED.
    -------------------------------------------------------------------------
CODE
  Relative segment, address: CODE_AREA 00009578 - 0000976B (0x1f4 bytes), align: 2
  Segment part 95.            Intra module refs:   Segment part 18
           LOCAL                   ADDRESS         
           =====                   =======         
           edit_bookmark_onkey     00009578 
               stack 1 = 00000000 ( 0000001C )
    -------------------------------------------------------------------------
CODE
  Segment part 96. NOT NEEDED.
    -------------------------------------------------------------------------
DATA_C
  Relative segment, address: CODE_AREA 0001743C - 0001747B (0x40 bytes), align: 2
  Segment part 2.             Intra module refs:   Segment part 133
    -------------------------------------------------------------------------
DATA_C
  Relative segment, address: CODE_AREA 0001747C - 00017487 (0xc bytes), align: 2
  Segment part 3.             Intra module refs:   Segment part 45
    -------------------------------------------------------------------------
DATA_C
  Relative segment, address: CODE_AREA 00017488 - 0001748F (0x8 bytes), align: 2
  Segment part 4.             Intra module refs:   Segment part 39
                                                   Segment part 47
                                                   Segment part 64
                                                   Segment part 70
    -------------------------------------------------------------------------
DATA_C
  Relative segment, address: CODE_AREA 00017490 - 00017493 (0x4 bytes), align: 2
  Segment part 5.             Intra module refs:   Segment part 47
    -------------------------------------------------------------------------
DATA_C
  Relative segment, address: CODE_AREA 00017494 - 00017497 (0x4 bytes), align: 2
  Segment part 6.             Intra module refs:   Segment part 41
    -------------------------------------------------------------------------
DATA_C
  Relative segment, address: CODE_AREA 00017F76 - 00017F76 (0x1 bytes), align: 0
  Segment part 7.             Intra module refs:   Segment part 39
    -------------------------------------------------------------------------
DATA_C
  Relative segment, address: CODE_AREA 00017498 - 0001749F (0x8 bytes), align: 2
  Segment part 8.             Intra module refs:   Segment part 79
    -------------------------------------------------------------------------
DATA_C
  Relative segment, address: CODE_AREA 000174A0 - 000174A7 (0x8 bytes), align: 2
  Segment part 9.             Intra module refs:   find_box_ghook
    -------------------------------------------------------------------------
DATA_C
  Relative segment, address: CODE_AREA 000174A8 - 000174AF (0x8 bytes), align: 2
  Segment part 10.            Intra module refs:   savepage_box_ghook
    -------------------------------------------------------------------------
DATA_C
  Relative segment, address: CODE_AREA 000174B0 - 000174BF (0x10 bytes), align: 2
  Segment part 11.            Intra module refs:   savepage_box_onkey
    -------------------------------------------------------------------------
DATA_C
  Relative segment, address: CODE_AREA 000174C0 - 000174C7 (0x8 bytes), align: 2
  Segment part 12.            Intra module refs:   input_url_ghook
    -------------------------------------------------------------------------
DATA_C
  Relative segment, address: CODE_AREA 000174C8 - 00017523 (0x5c bytes), align: 2
  Segment part 13.            Intra module refs:   About
    -------------------------------------------------------------------------
DATA_C
  Relative segment, address: CODE_AREA 00017524 - 0001752B (0x8 bytes), align: 2
  Segment part 14.            Intra module refs:   search_menu_ghook
    -------------------------------------------------------------------------
DATA_C
  Segment part 15. NOT NEEDED.
    -------------------------------------------------------------------------
DATA_C
  Relative segment, address: CODE_AREA 0001752C - 0001754B (0x20 bytes), align: 2
  Segment part 16.            Intra module refs:   Segment part 142
    -------------------------------------------------------------------------
DATA_C
  Segment part 17. NOT NEEDED.
    -------------------------------------------------------------------------
DATA_C
  Relative segment, address: CODE_AREA 0001754C - 00017587 (0x3c bytes), align: 2
  Segment part 18.            Intra module refs:   show_edit_bookmark_menu
    -------------------------------------------------------------------------
DATA_C
  Relative segment, address: CODE_AREA 00017588 - 0001758F (0x8 bytes), align: 2
  Segment part 19.            Intra module refs:   edit_bookmark_onkey
    -------------------------------------------------------------------------
DATA_C
  Segment part 20. NOT NEEDED.
    -------------------------------------------------------------------------
DATA_C
  Relative segment, address: CODE_AREA 00017590 - 0001759F (0x10 bytes), align: 2
  Segment part 21.            Intra module refs:   edit_bookmark_ghook
    -------------------------------------------------------------------------
DATA_C
  Segment part 22. NOT NEEDED.
    -------------------------------------------------------------------------
DATA_C
  Relative segment, address: CODE_AREA 000175A0 - 000175AB (0xc bytes), align: 2
  Segment part 23.            Intra module refs:   Segment part 70
    -------------------------------------------------------------------------
DATA_C
  Relative segment, address: CODE_AREA 00017F77 - 00017F79 (0x3 bytes), align: 0
  Segment part 24.            Intra module refs:   Segment part 70
    -------------------------------------------------------------------------
DATA_C
  Relative segment, address: CODE_AREA 000175AC - 000175B7 (0xc bytes), align: 2
  Segment part 25.            Intra module refs:   Segment part 64
    -------------------------------------------------------------------------
DATA_C
  Relative segment, address: CODE_AREA 000175B8 - 000175BF (0x8 bytes), align: 2
  Segment part 26.            Intra module refs:   Segment part 39
    -------------------------------------------------------------------------
DATA_C
  Relative segment, address: CODE_AREA 00017F7A - 00017F7C (0x3 bytes), align: 0
  Segment part 27.            Intra module refs:   Segment part 39
                                                   Segment part 64
    -------------------------------------------------------------------------
DATA_C
  Relative segment, address: CODE_AREA 000175C0 - 000175C7 (0x8 bytes), align: 2
  Segment part 28.            Intra module refs:   Segment part 39
    -------------------------------------------------------------------------
DATA_C
  Relative segment, address: CODE_AREA 000175C8 - 000175CF (0x8 bytes), align: 2
  Segment part 29.            Intra module refs:   Segment part 39
    -------------------------------------------------------------------------
DATA_C
  Relative segment, address: CODE_AREA 000175D0 - 000175D7 (0x8 bytes), align: 2
  Segment part 30.            Intra module refs:   Segment part 43
    -------------------------------------------------------------------------
DATA_C
  Relative segment, address: CODE_AREA 000175D8 - 000175E7 (0x10 bytes), align: 2
  Segment part 31.            Intra module refs:   Segment part 50
    -------------------------------------------------------------------------
DATA_C
  Relative segment, address: CODE_AREA 000175E8 - 000175EF (0x8 bytes), align: 2
  Segment part 32.            Intra module refs:   Segment part 43
                                                   Segment part 50
                                                   Segment part 79
    -------------------------------------------------------------------------
DATA_C
  Relative segment, address: CODE_AREA 000175F0 - 000175F7 (0x8 bytes), align: 2
  Segment part 33.            Intra module refs:   Segment part 50
                                                   Segment part 79
    -------------------------------------------------------------------------
DATA_C
  Relative segment, address: CODE_AREA 000175F8 - 000175FF (0x8 bytes), align: 2
  Segment part 34.            Intra module refs:   Segment part 50
    -------------------------------------------------------------------------
DATA_C
  Relative segment, address: CODE_AREA 00017600 - 0001760B (0xc bytes), align: 2
  Segment part 35.            Intra module refs:   Segment part 50
    -------------------------------------------------------------------------
DATA_C
  Relative segment, address: CODE_AREA 0001760C - 00017613 (0x8 bytes), align: 2
  Segment part 36.            Intra module refs:   Segment part 50
    -------------------------------------------------------------------------
DATA_C
  Relative segment, address: CODE_AREA 00017614 - 0001761F (0xc bytes), align: 2
  Segment part 37.            Intra module refs:   Segment part 50
    -------------------------------------------------------------------------
DATA_C
  Relative segment, address: CODE_AREA 00017620 - 00017627 (0x8 bytes), align: 2
  Segment part 48.            Intra module refs:   Segment part 18
    -------------------------------------------------------------------------
CODE
  Relative segment, address: CODE_AREA 0000976C - 00009B77 (0x40c bytes), align: 2
  Segment part 97.            Intra module refs:   bookmarks_options_add_bookmark
                                                   bookmarks_options_add_folder
                                                   bookmarks_options_edit
           ENTRY                   ADDRESS         REF BY
           =====                   =======         ======
           show_edit_bookmark_menu
                                   0000976C 
               stack 1 = 00000000 ( 00000088 )
    -------------------------------------------------------------------------
CODE
  Relative segment, address: CODE_AREA 00009B78 - 00009B7B (0x4 bytes), align: 2
  Segment part 98.            Intra module refs:   show_edit_bookmark_menu
    -------------------------------------------------------------------------
CODE
  Relative segment, address: CODE_AREA 00009B7C - 00009B7F (0x4 bytes), align: 2
  Segment part 99.            Intra module refs:   show_edit_bookmark_menu
    -------------------------------------------------------------------------
CODE
  Segment part 100. NOT NEEDED.
    -------------------------------------------------------------------------
CODE
  Relative segment, address: CODE_AREA 00009B80 - 00009BF3 (0x74 bytes), align: 2
  Segment part 101.           Intra module refs:   bookmarks_options_procs
           ENTRY                   ADDRESS         REF BY
           =====                   =======         ======
           bookmarks_options_edit
                                   00009B80 
               stack 1 = 00000000 ( 00000008 )
    -------------------------------------------------------------------------
CODE
  Segment part 102. NOT NEEDED.
    -------------------------------------------------------------------------
CODE
  Relative segment, address: CODE_AREA 00009BF4 - 00009C0F (0x1c bytes), align: 2
  Segment part 103.           Intra module refs:   bookmarks_options_procs
           ENTRY                   ADDRESS         REF BY
           =====                   =======         ======
           bookmarks_options_add_bookmark
                                   00009BF4 
               stack 1 = 00000000 ( 00000004 )
    -------------------------------------------------------------------------
CODE
  Segment part 104. NOT NEEDED.
    -------------------------------------------------------------------------
CODE
  Relative segment, address: CODE_AREA 00009C10 - 00009C2B (0x1c bytes), align: 2
  Segment part 105.           Intra module refs:   bookmarks_options_procs
           ENTRY                   ADDRESS         REF BY
           =====                   =======         ======
           bookmarks_options_add_folder
                                   00009C10 
               stack 1 = 00000000 ( 00000004 )
    -------------------------------------------------------------------------
CODE
  Segment part 106. NOT NEEDED.
    -------------------------------------------------------------------------
CODE
  Relative segment, address: CODE_AREA 00009C2C - 00009C93 (0x68 bytes), align: 2
  Segment part 107.           Intra module refs:   bookmarks_options_procs
           ENTRY                   ADDRESS         REF BY
           =====                   =======         ======
           bookmarks_options_delete
                                   00009C2C 
               stack 1 = 00000000 ( 0000000C )
    -------------------------------------------------------------------------
CODE
  Segment part 108. NOT NEEDED.
    -------------------------------------------------------------------------
DATA_C
  Relative segment, address: CODE_AREA 00017628 - 00017637 (0x10 bytes), align: 2
  Segment part 51.            Intra module refs:   Segment part 50
           ENTRY                   ADDRESS         REF BY
           =====                   =======         ======
           bookmarks_options_procs
                                   00017628 
    -------------------------------------------------------------------------
CODE
  Relative segment, address: CODE_AREA 00009C94 - 00009D6F (0xdc bytes), align: 2
  Segment part 109.           Intra module refs:   bookmarks_menu_onkey
           ENTRY                   ADDRESS         REF BY
           =====                   =======         ======
           show_bookmarks_options
                                   00009C94 
               stack 1 = 00000000 ( 00000030 )
    -------------------------------------------------------------------------
CODE
  Relative segment, address: CODE_AREA 00009D70 - 00009D73 (0x4 bytes), align: 2
  Segment part 110.           Intra module refs:   edit_bookmark_ghook
                                                   edit_bookmark_onkey
                                                   show_bookmarks_options
                                                   show_edit_bookmark_menu
    -------------------------------------------------------------------------
CODE
  Segment part 111. NOT NEEDED.
    -------------------------------------------------------------------------
CODE
  Relative segment, address: CODE_AREA 00009D74 - 00009DC3 (0x50 bytes), align: 2
  Segment part 112.           Intra module refs:   FindFiles
                                                   bookmarks_menu_ghook
           ENTRY                   ADDRESS         REF BY
           =====                   =======         ======
           Free_BList              00009D74 
               stack 1 = 00000000 ( 00000010 )
    -------------------------------------------------------------------------
CODE
  Segment part 113. NOT NEEDED.
    -------------------------------------------------------------------------
CODE
  Relative segment, address: CODE_AREA 00009DC4 - 00009E7F (0xbc bytes), align: 2
  Segment part 114.           Intra module refs:   FindFiles
           ENTRY                   ADDRESS         REF BY
           =====                   =======         ======
           AddToFList              00009DC4 
               stack 1 = 00000000 ( 00000018 )
    -------------------------------------------------------------------------
CODE
  Segment part 115. NOT NEEDED.
    -------------------------------------------------------------------------
CODE
  Relative segment, address: CODE_AREA 00009E80 - 0000A083 (0x204 bytes), align: 2
  Segment part 116.           Intra module refs:   CreateBookmarksMenu
                                                   bookmarks_menu_ghook
                                                   bookmarks_menu_onkey
           ENTRY                   ADDRESS         REF BY
           =====                   =======         ======
           FindFiles               00009E80 
               stack 1 = 00000000 ( 000004F0 )
    -------------------------------------------------------------------------
CODE
  Segment part 117. NOT NEEDED.
    -------------------------------------------------------------------------
CODE
  Relative segment, address: CODE_AREA 0000A084 - 0000A0CB (0x48 bytes), align: 2
  Segment part 118.           Intra module refs:   FindBListByN
           ENTRY                   ADDRESS         REF BY
           =====                   =======         ======
           FindBListByNS           0000A084 
    -------------------------------------------------------------------------
CODE
  Segment part 119. NOT NEEDED.
    -------------------------------------------------------------------------
CODE
  Relative segment, address: CODE_AREA 0000A0CC - 0000A11F (0x54 bytes), align: 2
  Segment part 120.           Intra module refs:   bookmarks_menu_iconhndl
                                                   bookmarks_menu_onkey
           ENTRY                   ADDRESS         REF BY
           =====                   =======         ======
           FindBListByN            0000A0CC 
               stack 1 = 00000000 ( 00000008 )
    -------------------------------------------------------------------------
CODE
  Segment part 121. NOT NEEDED.
    -------------------------------------------------------------------------
CODE
  Relative segment, address: CODE_AREA 0000A120 - 0000A253 (0x134 bytes), align: 2
  Segment part 122.           Intra module refs:   Segment part 43
           ENTRY                   ADDRESS         REF BY
           =====                   =======         ======
           bookmarks_menu_onkey    0000A120 
               stack 1 = 00000000 ( 00000010 )
    -------------------------------------------------------------------------
CODE
  Relative segment, address: CODE_AREA 0000A254 - 0000A257 (0x4 bytes), align: 2
  Segment part 123.           Intra module refs:   bookmarks_menu_onkey
                                                   bookmarks_options_edit
    -------------------------------------------------------------------------
CODE
  Relative segment, address: CODE_AREA 0000A258 - 0000A25B (0x4 bytes), align: 2
  Segment part 124.           Intra module refs:   bookmarks_menu_onkey
                                                   show_edit_bookmark_menu
    -------------------------------------------------------------------------
CODE
  Segment part 125. NOT NEEDED.
    -------------------------------------------------------------------------
CODE
  Relative segment, address: CODE_AREA 0000A25C - 0000A2D3 (0x78 bytes), align: 2
  Segment part 126.           Intra module refs:   Segment part 43
           ENTRY                   ADDRESS         REF BY
           =====                   =======         ======
           bookmarks_menu_ghook    0000A25C 
               stack 1 = 00000000 ( 0000000C )
    -------------------------------------------------------------------------
CODE
  Relative segment, address: CODE_AREA 0000A2D4 - 0000A2D7 (0x4 bytes), align: 2
  Segment part 127.           Intra module refs:   AddToFList
                                                   FindFiles
                                                   Free_BList
                                                   bookmarks_menu_ghook
                                                   edit_bookmark_extract_name
    -------------------------------------------------------------------------
CODE
  Segment part 128. NOT NEEDED.
    -------------------------------------------------------------------------
CODE
  Relative segment, address: CODE_AREA 0000A2D8 - 0000A3F7 (0x120 bytes), align: 2
  Segment part 129.           Intra module refs:   Segment part 43
           ENTRY                   ADDRESS         REF BY
           =====                   =======         ======
           bookmarks_menu_iconhndl
                                   0000A2D8 
               stack 1 = 00000000 ( 00000020 )
    -------------------------------------------------------------------------
CODE
  Relative segment, address: CODE_AREA 0000A3F8 - 0000A3FB (0x4 bytes), align: 2
  Segment part 130.           Intra module refs:   bookmarks_menu_iconhndl
    -------------------------------------------------------------------------
CODE
  Segment part 131. NOT NEEDED.
    -------------------------------------------------------------------------
CODE
  Relative segment, address: CODE_AREA 0000A3FC - 0000A4A3 (0xa8 bytes), align: 2
  Segment part 132.           Intra module refs:   main_menu_goto_bookmarks
           ENTRY                   ADDRESS         REF BY
           =====                   =======         ======
           CreateBookmarksMenu     0000A3FC        StartGetFile (main)
               stack 1 = 00000000 ( 00000020 )
    -------------------------------------------------------------------------
CODE
  Relative segment, address: CODE_AREA 0000A4A4 - 0000A4A7 (0x4 bytes), align: 2
  Segment part 133.           Intra module refs:   CreateBookmarksMenu
                                                   FindFiles
    -------------------------------------------------------------------------
CODE
  Segment part 134. NOT NEEDED.
    -------------------------------------------------------------------------
DATA_C
  Relative segment, address: CODE_AREA 00017638 - 0001763F (0x8 bytes), align: 2
  Segment part 60.            Intra module refs:   Segment part 39
    -------------------------------------------------------------------------
CODE
  Relative segment, address: CODE_AREA 0000A4A8 - 0000A4E3 (0x3c bytes), align: 2
  Segment part 135.           Intra module refs:   get_search_engines
                                                   search_menu_ghook
           LOCAL                   ADDRESS         
           =====                   =======         
           free_search_engines     0000A4A8 
               stack 1 = 00000000 ( 00000010 )
    -------------------------------------------------------------------------
CODE
  Segment part 136. NOT NEEDED.
    -------------------------------------------------------------------------
CODE
  Relative segment, address: CODE_AREA 0000A4E4 - 0000A5D7 (0xf4 bytes), align: 2
  Segment part 137.           Intra module refs:   CreateSearchDialog
           LOCAL                   ADDRESS         
           =====                   =======         
           get_search_engines      0000A4E4 
               stack 1 = 00000000 ( 000003E0 )
    -------------------------------------------------------------------------
CODE
  Segment part 138. NOT NEEDED.
    -------------------------------------------------------------------------
CODE
  Relative segment, address: CODE_AREA 0000A5D8 - 0000A5DB (0x4 bytes), align: 2
  Segment part 139.           Intra module refs:   Segment part 39
           ENTRY                   ADDRESS         REF BY
           =====                   =======         ======
           search_menu_locret      0000A5D8 
    -------------------------------------------------------------------------
CODE
  Segment part 140. NOT NEEDED.
    -------------------------------------------------------------------------
CODE
  Relative segment, address: CODE_AREA 0000A5DC - 0000A933 (0x358 bytes), align: 2
  Segment part 141.           Intra module refs:   Segment part 39
           ENTRY                   ADDRESS         REF BY
           =====                   =======         ======
           search_menu_onkey       0000A5DC 
               stack 1 = 00000000 ( 00000180 )
    -------------------------------------------------------------------------
CODE
  Relative segment, address: CODE_AREA 0000A934 - 0000A937 (0x4 bytes), align: 2
  Segment part 142.           Intra module refs:   get_search_engines
                                                   search_menu_onkey
    -------------------------------------------------------------------------
CODE
  Relative segment, address: CODE_AREA 0000A938 - 0000A93B (0x4 bytes), align: 2
  Segment part 143.           Intra module refs:   bookmarks_menu_onkey
                                                   search_menu_onkey
    -------------------------------------------------------------------------
CODE
  Relative segment, address: CODE_AREA 0000A93C - 0000A93F (0x4 bytes), align: 2
  Segment part 144.           Intra module refs:   bookmarks_menu_iconhndl
                                                   search_menu_onkey
    -------------------------------------------------------------------------
CODE
  Segment part 145. NOT NEEDED.
    -------------------------------------------------------------------------
CODE
  Relative segment, address: CODE_AREA 0000A940 - 0000AA23 (0xe4 bytes), align: 2
  Segment part 146.           Intra module refs:   Segment part 39
           ENTRY                   ADDRESS         REF BY
           =====                   =======         ======
           search_menu_ghook       0000A940 
               stack 1 = 00000000 ( 00000018 )
    -------------------------------------------------------------------------
CODE
  Segment part 147. NOT NEEDED.
    -------------------------------------------------------------------------
CODE
  Relative segment, address: CODE_AREA 0000AA24 - 0000ABBF (0x19c bytes), align: 2
  Segment part 148.           Intra module refs:   main_menu_search
           LOCAL                   ADDRESS         
           =====                   =======         
           CreateSearchDialog      0000AA24 
               stack 1 = 00000000 ( 00000064 )
    -------------------------------------------------------------------------
CODE
  Relative segment, address: CODE_AREA 0000ABC0 - 0000ABC3 (0x4 bytes), align: 2
  Segment part 149.           Intra module refs:   CreateSearchDialog
                                                   search_menu_onkey
    -------------------------------------------------------------------------
CODE
  Segment part 150. NOT NEEDED.
    -------------------------------------------------------------------------
DATA_C
  Relative segment, address: CODE_AREA 00017640 - 00017647 (0x8 bytes), align: 2
  Segment part 61.            Intra module refs:   Segment part 62
    -------------------------------------------------------------------------
DATA_I
  Relative segment, address: DATA_AREA 000004E8 - 00000603 (0x11c bytes), align: 2
  Segment part 38.            Intra module refs:   CreateSearchDialog
                                                   Segment part 158
                                                   Segment part 60
                                                   Segment part 61
           ENTRY                   ADDRESS         REF BY
           =====                   =======         ======
           find_box_hdr            0000052C 
           find_box_menu_sk        00000514 
           sEmpty                  00000540 
           search_menu_header      00000500 
           search_menu_sk          000004E8 
           search_menu_struct      000005CC 
    -------------------------------------------------------------------------
DATA_I
  Relative segment, address: DATA_AREA 00000604 - 00000607 (0x4 bytes), align: 2
  Segment part 40.            Intra module refs:   Segment part 123
           ENTRY                   ADDRESS         REF BY
           =====                   =======         ======
           ext_url                 00000604 
    -------------------------------------------------------------------------
DATA_I
  Relative segment, address: DATA_AREA 00000608 - 0000066F (0x68 bytes), align: 2
  Segment part 42.            Intra module refs:   CreateBookmarksMenu
                                                   FindBListByNS
                                                   Segment part 127
                                                   Segment part 130
                                                   Segment part 59
           ENTRY                   ADDRESS         REF BY
           =====                   =======         ======
           bl_top                  00000640 
           bookmarks_current_folder
                                   0000063C 
           bookmarks_menu_header   00000620 
           bookmarks_menu_icons    00000634 
           bookmarks_menu_sk       00000608 
           bookmarks_menu_struct   00000644 
    -------------------------------------------------------------------------
DATA_I
  Relative segment, address: DATA_AREA 00000670 - 00000684 (0x15 bytes), align: 2
  Segment part 44.            Intra module refs:   edit_bookmark_onkey
                                                   show_edit_bookmark_menu
           ENTRY                   ADDRESS         REF BY
           =====                   =======         ======
           edit_bookmark_hdr       00000670 
           edit_mode               00000684 
    -------------------------------------------------------------------------
DATA_I
  Relative segment, address: DATA_AREA 00000688 - 0000069F (0x18 bytes), align: 2
  Segment part 46.            Intra module refs:   Segment part 48
           ENTRY                   ADDRESS         REF BY
           =====                   =======         ======
           edit_bookmark_sk        00000688 
    -------------------------------------------------------------------------
DATA_I
  Relative segment, address: DATA_AREA 000006A0 - 00000767 (0xc8 bytes), align: 2
  Segment part 49.            Intra module refs:   Segment part 50
                                                   Segment part 55
                                                   show_bookmarks_options
           ENTRY                   ADDRESS         REF BY
           =====                   =======         ======
           bookmarks_options_header
                                   00000710 
           bookmarks_options_items
                                   000006A0 
           bookmarks_options_sk    00000724 
           bookmarks_options_struct
                                   0000073C 
    -------------------------------------------------------------------------
DATA_I
  Relative segment, address: DATA_AREA 00000768 - 00000773 (0xc bytes), align: 2
  Segment part 52.            Intra module refs:   Segment part 50
           ENTRY                   ADDRESS         REF BY
           =====                   =======         ======
           bookmarks_options_softkeys
                                   00000768 
    -------------------------------------------------------------------------
DATA_I
  Relative segment, address: DATA_AREA 00000774 - 0000077B (0x8 bytes), align: 2
  Segment part 54.            Intra module refs:   Segment part 50
           ENTRY                   ADDRESS         REF BY
           =====                   =======         ======
           bookmarks_options_skt   00000774 
    -------------------------------------------------------------------------
DATA_I
  Relative segment, address: DATA_AREA 0000077C - 00000787 (0xc bytes), align: 2
  Segment part 56.            Intra module refs:   Segment part 43
           ENTRY                   ADDRESS         REF BY
           =====                   =======         ======
           bookmarks_menu_softkeys
                                   0000077C 
    -------------------------------------------------------------------------
DATA_I
  Relative segment, address: DATA_AREA 00000788 - 0000078F (0x8 bytes), align: 2
  Segment part 58.            Intra module refs:   Segment part 43
           ENTRY                   ADDRESS         REF BY
           =====                   =======         ======
           bookmarks_menu_skt      00000788 
    -------------------------------------------------------------------------
CODE
  Relative segment, address: CODE_AREA 0000ABC4 - 0000ACA7 (0xe4 bytes), align: 2
  Segment part 151.           Intra module refs:   Segment part 62
           LOCAL                   ADDRESS         
           =====                   =======         
           find_box_ghook          0000ABC4 
               stack 1 = 00000000 ( 00000024 )
    -------------------------------------------------------------------------
CODE
  Segment part 152. NOT NEEDED.
    -------------------------------------------------------------------------
CODE
  Relative segment, address: CODE_AREA 0000ACA8 - 0000ACAB (0x4 bytes), align: 2
  Segment part 153.           Intra module refs:   Segment part 62
           LOCAL                   ADDRESS         
           =====                   =======         
           find_box_locret         0000ACA8 
    -------------------------------------------------------------------------
CODE
  Segment part 154. NOT NEEDED.
    -------------------------------------------------------------------------
CODE
  Relative segment, address: CODE_AREA 0000ACAC - 0000AD17 (0x6c bytes), align: 2
  Segment part 155.           Intra module refs:   Segment part 62
           LOCAL                   ADDRESS         
           =====                   =======         
           find_box_onkey          0000ACAC 
               stack 1 = 00000000 ( 00000034 )
    -------------------------------------------------------------------------
CODE
  Segment part 156. NOT NEEDED.
    -------------------------------------------------------------------------
DATA_C
  Relative segment, address: CODE_AREA 00017648 - 0001767F (0x38 bytes), align: 2
  Segment part 62.            Intra module refs:   CreateFindDialog
    -------------------------------------------------------------------------
CODE
  Relative segment, address: CODE_AREA 0000AD18 - 0000AEA3 (0x18c bytes), align: 2
  Segment part 157.           Intra module refs:   main_menu_find
           ENTRY                   ADDRESS         REF BY
           =====                   =======         ======
           CreateFindDialog        0000AD18        method5 (main)
               stack 1 = 00000000 ( 00000068 )
    -------------------------------------------------------------------------
CODE
  Relative segment, address: CODE_AREA 0000AEA4 - 0000AEA7 (0x4 bytes), align: 2
  Segment part 158.           Intra module refs:   CreateFindDialog
                                                   free_search_engines
                                                   get_search_engines
                                                   search_menu_ghook
                                                   search_menu_onkey
    -------------------------------------------------------------------------
CODE
  Relative segment, address: CODE_AREA 0000AEA8 - 0000AEAB (0x4 bytes), align: 2
  Segment part 159.           Intra module refs:   CreateFindDialog
                                                   find_box_onkey
    -------------------------------------------------------------------------
CODE
  Segment part 160. NOT NEEDED.
    -------------------------------------------------------------------------
DATA_C
  Relative segment, address: CODE_AREA 00017680 - 00017687 (0x8 bytes), align: 2
  Segment part 65.            Intra module refs:   Segment part 66
    -------------------------------------------------------------------------
DATA_I
  Relative segment, address: DATA_AREA 00000790 - 000007BB (0x2c bytes), align: 2
  Segment part 63.            Intra module refs:   CreateSavePageDialog
                                                   Segment part 65
           ENTRY                   ADDRESS         REF BY
           =====                   =======         ======
           savepage_box_hdr        000007A8 
           savepage_box_menu_sk    00000790 
    -------------------------------------------------------------------------
CODE
  Relative segment, address: CODE_AREA 0000AEAC - 0000AEFF (0x54 bytes), align: 2
  Segment part 161.           Intra module refs:   Segment part 66
           LOCAL                   ADDRESS         
           =====                   =======         
           savepage_box_ghook      0000AEAC 
               stack 1 = 00000000 ( 00000014 )
    -------------------------------------------------------------------------
CODE
  Segment part 162. NOT NEEDED.
    -------------------------------------------------------------------------
CODE
  Relative segment, address: CODE_AREA 0000AF00 - 0000AF03 (0x4 bytes), align: 2
  Segment part 163.           Intra module refs:   Segment part 66
           LOCAL                   ADDRESS         
           =====                   =======         
           savepage_box_locret     0000AF00 
    -------------------------------------------------------------------------
CODE
  Segment part 164. NOT NEEDED.
    -------------------------------------------------------------------------
CODE
  Relative segment, address: CODE_AREA 0000AF04 - 0000B08B (0x188 bytes), align: 2
  Segment part 165.           Intra module refs:   savepage_box_onkey
           ENTRY                   ADDRESS         REF BY
           =====                   =======         ======
           fcopy                   0000AF04 
               stack 1 = 00000000 ( 00000050 )
    -------------------------------------------------------------------------
CODE
  Segment part 166. NOT NEEDED.
    -------------------------------------------------------------------------
CODE
  Relative segment, address: CODE_AREA 0000B08C - 0000B13B (0xb0 bytes), align: 2
  Segment part 167.           Intra module refs:   Segment part 66
           LOCAL                   ADDRESS         
           =====                   =======         
           savepage_box_onkey      0000B08C 
               stack 1 = 00000000 ( 000001BC )
    -------------------------------------------------------------------------
CODE
  Segment part 168. NOT NEEDED.
    -------------------------------------------------------------------------
DATA_C
  Relative segment, address: CODE_AREA 00017688 - 000176BF (0x38 bytes), align: 2
  Segment part 66.            Intra module refs:   CreateSavePageDialog
    -------------------------------------------------------------------------
CODE
  Relative segment, address: CODE_AREA 0000B13C - 0000B24B (0x110 bytes), align: 2
  Segment part 169.           Intra module refs:   main_menu_savepage
           ENTRY                   ADDRESS         REF BY
           =====                   =======         ======
           CreateSavePageDialog    0000B13C 
               stack 1 = 00000000 ( 00000050 )
    -------------------------------------------------------------------------
CODE
  Relative segment, address: CODE_AREA 0000B24C - 0000B24F (0x4 bytes), align: 2
  Segment part 170.           Intra module refs:   CreateBookmarksMenu
                                                   CreateFindDialog
                                                   CreateSavePageDialog
                                                   CreateSearchDialog
                                                   fcopy
                                                   find_box_ghook
    -------------------------------------------------------------------------
CODE
  Segment part 171. NOT NEEDED.
    -------------------------------------------------------------------------
CODE
  Relative segment, address: CODE_AREA 0000B250 - 0000B3C7 (0x178 bytes), align: 2
  Segment part 172.           Intra module refs:   Segment part 70
           ENTRY                   ADDRESS         REF BY
           =====                   =======         ======
           history_menu_onkey      0000B250 
               stack 1 = 00000000 ( 00000018 )
    -------------------------------------------------------------------------
CODE
  Segment part 173. NOT NEEDED.
    -------------------------------------------------------------------------
CODE
  Relative segment, address: CODE_AREA 0000B3C8 - 0000B43B (0x74 bytes), align: 2
  Segment part 174.           Intra module refs:   Segment part 70
           ENTRY                   ADDRESS         REF BY
           =====                   =======         ======
           history_menu_ghook      0000B3C8 
               stack 1 = 00000000 ( 00000010 )
    -------------------------------------------------------------------------
CODE
  Segment part 175. NOT NEEDED.
    -------------------------------------------------------------------------
CODE
  Relative segment, address: CODE_AREA 0000B43C - 0000B4CB (0x90 bytes), align: 2
  Segment part 176.           Intra module refs:   Segment part 70
           ENTRY                   ADDRESS         REF BY
           =====                   =======         ======
           history_menu_iconhndl   0000B43C 
               stack 1 = 00000000 ( 00000018 )
    -------------------------------------------------------------------------
CODE
  Relative segment, address: CODE_AREA 0000B4CC - 0000B4CF (0x4 bytes), align: 2
  Segment part 177.           Intra module refs:   history_menu_iconhndl
    -------------------------------------------------------------------------
CODE
  Segment part 178. NOT NEEDED.
    -------------------------------------------------------------------------
DATA_I
  Relative segment, address: DATA_AREA 000007BC - 000007C7 (0xc bytes), align: 2
  Segment part 67.            Intra module refs:   Segment part 70
           ENTRY                   ADDRESS         REF BY
           =====                   =======         ======
           history_menu_softkeys   000007BC 
    -------------------------------------------------------------------------
DATA_I
  Relative segment, address: DATA_AREA 000007C8 - 0000081F (0x58 bytes), align: 2
  Segment part 69.            Intra module refs:   CreateHistoryMenu
                                                   Segment part 72
           ENTRY                   ADDRESS         REF BY
           =====                   =======         ======
           history_menu_header     000007E0 
           history_menu_sk         000007C8 
           history_menu_struct     000007F4 
    -------------------------------------------------------------------------
DATA_I
  Relative segment, address: DATA_AREA 00000820 - 00000827 (0x8 bytes), align: 2
  Segment part 71.            Intra module refs:   Segment part 70
           ENTRY                   ADDRESS         REF BY
           =====                   =======         ======
           history_menu_skt        00000820 
    -------------------------------------------------------------------------
CODE
  Relative segment, address: CODE_AREA 0000B4D0 - 0000B54F (0x80 bytes), align: 2
  Segment part 179.           Intra module refs:   main_menu_goto_history
           ENTRY                   ADDRESS         REF BY
           =====                   =======         ======
           CreateHistoryMenu       0000B4D0 
               stack 1 = 00000000 ( 00000020 )
    -------------------------------------------------------------------------
CODE
  Segment part 180. NOT NEEDED.
    -------------------------------------------------------------------------
DATA_C
  Relative segment, address: CODE_AREA 000176C0 - 000176C7 (0x8 bytes), align: 2
  Segment part 75.            Intra module refs:   Segment part 76
    -------------------------------------------------------------------------
DATA_I
  Relative segment, address: DATA_AREA 00000828 - 00000853 (0x2c bytes), align: 2
  Segment part 73.            Intra module refs:   CreateInputUrl
                                                   Segment part 75
           ENTRY                   ADDRESS         REF BY
           =====                   =======         ======
           input_url_header        00000840 
           input_url_sk            00000828 
    -------------------------------------------------------------------------
CODE
  Relative segment, address: CODE_AREA 0000B550 - 0000B5A3 (0x54 bytes), align: 2
  Segment part 181.           Intra module refs:   Segment part 76
           LOCAL                   ADDRESS         
           =====                   =======         
           input_url_ghook         0000B550 
               stack 1 = 00000000 ( 00000014 )
    -------------------------------------------------------------------------
CODE
  Segment part 182. NOT NEEDED.
    -------------------------------------------------------------------------
CODE
  Relative segment, address: CODE_AREA 0000B5A4 - 0000B5A7 (0x4 bytes), align: 2
  Segment part 183.           Intra module refs:   Segment part 76
           LOCAL                   ADDRESS         
           =====                   =======         
           input_url_locret        0000B5A4 
    -------------------------------------------------------------------------
CODE
  Segment part 184. NOT NEEDED.
    -------------------------------------------------------------------------
CODE
  Relative segment, address: CODE_AREA 0000B5A8 - 0000B617 (0x70 bytes), align: 2
  Segment part 185.           Intra module refs:   input_url_onkey
           ENTRY                   ADDRESS         REF BY
           =====                   =======         ======
           input_url_options       0000B5A8 
               stack 1 = 00000000 ( 00000034 )
    -------------------------------------------------------------------------
CODE
  Segment part 186. NOT NEEDED.
    -------------------------------------------------------------------------
CODE
  Relative segment, address: CODE_AREA 0000B618 - 0000B73B (0x124 bytes), align: 2
  Segment part 187.           Intra module refs:   Segment part 76
           LOCAL                   ADDRESS         
           =====                   =======         
           input_url_onkey         0000B618 
               stack 1 = 00000000 ( 00000040 )
    -------------------------------------------------------------------------
CODE
  Segment part 188. NOT NEEDED.
    -------------------------------------------------------------------------
DATA_C
  Relative segment, address: CODE_AREA 000176C8 - 000176FF (0x38 bytes), align: 2
  Segment part 76.            Intra module refs:   CreateInputUrl
    -------------------------------------------------------------------------
CODE
  Relative segment, address: CODE_AREA 0000B73C - 0000B8EF (0x1b4 bytes), align: 2
  Segment part 189.           Intra module refs:   main_menu_goto_url
           ENTRY                   ADDRESS         REF BY
           =====                   =======         ======
           CreateInputUrl          0000B73C 
               stack 1 = 00000000 ( 00000048 )
    -------------------------------------------------------------------------
CODE
  Relative segment, address: CODE_AREA 0000B8F0 - 0000B8F3 (0x4 bytes), align: 2
  Segment part 190.           Intra module refs:   CreateInputUrl
    -------------------------------------------------------------------------
CODE
  Relative segment, address: CODE_AREA 0000B8F4 - 0000B8F7 (0x4 bytes), align: 2
  Segment part 191.           Intra module refs:   CreateInputUrl
    -------------------------------------------------------------------------
CODE
  Segment part 192. NOT NEEDED.
    -------------------------------------------------------------------------
CODE
  Relative segment, address: CODE_AREA 0000B8F8 - 0000B923 (0x2c bytes), align: 2
  Segment part 193.           Intra module refs:   Segment part 81
           LOCAL                   ADDRESS         
           =====                   =======         
           main_menu_goto_url      0000B8F8 
               stack 1 = 00000000 ( 00000008 )
    -------------------------------------------------------------------------
CODE
  Segment part 194. NOT NEEDED.
    -------------------------------------------------------------------------
CODE
  Relative segment, address: CODE_AREA 0000B924 - 0000B94F (0x2c bytes), align: 2
  Segment part 195.           Intra module refs:   Segment part 81
           LOCAL                   ADDRESS         
           =====                   =======         
           main_menu_goto_bookmarks
                                   0000B924 
               stack 1 = 00000000 ( 00000008 )
    -------------------------------------------------------------------------
CODE
  Segment part 196. NOT NEEDED.
    -------------------------------------------------------------------------
CODE
  Relative segment, address: CODE_AREA 0000B950 - 0000B97B (0x2c bytes), align: 2
  Segment part 197.           Intra module refs:   Segment part 81
           LOCAL                   ADDRESS         
           =====                   =======         
           main_menu_search        0000B950 
               stack 1 = 00000000 ( 00000008 )
    -------------------------------------------------------------------------
CODE
  Segment part 198. NOT NEEDED.
    -------------------------------------------------------------------------
CODE
  Relative segment, address: CODE_AREA 0000B97C - 0000B9AF (0x34 bytes), align: 2
  Segment part 199.           Intra module refs:   Segment part 81
           LOCAL                   ADDRESS         
           =====                   =======         
           main_menu_find          0000B97C 
               stack 1 = 00000000 ( 00000008 )
    -------------------------------------------------------------------------
CODE
  Segment part 200. NOT NEEDED.
    -------------------------------------------------------------------------
CODE
  Relative segment, address: CODE_AREA 0000B9B0 - 0000B9DB (0x2c bytes), align: 2
  Segment part 201.           Intra module refs:   Segment part 81
           LOCAL                   ADDRESS         
           =====                   =======         
           main_menu_goto_history
                                   0000B9B0 
               stack 1 = 00000000 ( 00000008 )
    -------------------------------------------------------------------------
CODE
  Segment part 202. NOT NEEDED.
    -------------------------------------------------------------------------
CODE
  Relative segment, address: CODE_AREA 0000B9DC - 0000BA27 (0x4c bytes), align: 2
  Segment part 203.           Intra module refs:   Segment part 81
           LOCAL                   ADDRESS         
           =====                   =======         
           main_menu_options       0000B9DC 
               stack 1 = 00000000 ( 00000008 )
    -------------------------------------------------------------------------
CODE
  Segment part 204. NOT NEEDED.
    -------------------------------------------------------------------------
CODE
  Relative segment, address: CODE_AREA 0000BA28 - 0000BA73 (0x4c bytes), align: 2
  Segment part 205.           Intra module refs:   Segment part 81
           LOCAL                   ADDRESS         
           =====                   =======         
           main_menu_quit          0000BA28 
               stack 1 = 00000000 ( 0000000C )
    -------------------------------------------------------------------------
CODE
  Relative segment, address: CODE_AREA 0000BA74 - 0000BA77 (0x4 bytes), align: 2
  Segment part 206.           Intra module refs:   history_menu_onkey
                                                   input_url_onkey
                                                   main_menu_quit
    -------------------------------------------------------------------------
CODE
  Segment part 207. NOT NEEDED.
    -------------------------------------------------------------------------
CODE
  Relative segment, address: CODE_AREA 0000BA78 - 0000BAAB (0x34 bytes), align: 2
  Segment part 208.           Intra module refs:   Segment part 81
           LOCAL                   ADDRESS         
           =====                   =======         
           main_menu_savepage      0000BA78 
               stack 1 = 00000000 ( 00000008 )
    -------------------------------------------------------------------------
CODE
  Segment part 209. NOT NEEDED.
    -------------------------------------------------------------------------
DATA_C
  Relative segment, address: CODE_AREA 00017700 - 0001770B (0xc bytes), align: 2
  Segment part 77.            Intra module refs:   Segment part 82
    -------------------------------------------------------------------------
DATA_C
  Relative segment, address: CODE_AREA 0001770C - 00017713 (0x8 bytes), align: 2
  Segment part 80.            Intra module refs:   Segment part 82
    -------------------------------------------------------------------------
DATA_I
  Relative segment, address: DATA_AREA 00000854 - 0000095F (0x10c bytes), align: 2
  Segment part 78.            Intra module refs:   CreateMainMenu
                                                   Segment part 80
                                                   Segment part 82
           ENTRY                   ADDRESS         REF BY
           =====                   =======         ======
           main_menu_header        0000094C 
           main_menu_items         00000854 
           main_menu_sk            00000934 
    -------------------------------------------------------------------------
DATA_C
  Relative segment, address: CODE_AREA 00017714 - 00017733 (0x20 bytes), align: 2
  Segment part 81.            Intra module refs:   Segment part 82
    -------------------------------------------------------------------------
CODE
  Relative segment, address: CODE_AREA 0000BAAC - 0000BABF (0x14 bytes), align: 2
  Segment part 210.           Intra module refs:   Segment part 82
           LOCAL                   ADDRESS         
           =====                   =======         
           main_menu_ghook         0000BAAC 
               stack 1 = 00000000 ( 00000004 )
    -------------------------------------------------------------------------
CODE
  Segment part 211. NOT NEEDED.
    -------------------------------------------------------------------------
CODE
  Relative segment, address: CODE_AREA 0000BAC0 - 0000BAF3 (0x34 bytes), align: 2
  Segment part 212.           Intra module refs:   main_menu_onkey
           LOCAL                   ADDRESS         
           =====                   =======         
           About                   0000BAC0 
               stack 1 = 00000000 ( 00000104 )
    -------------------------------------------------------------------------
CODE
  Segment part 213. NOT NEEDED.
    -------------------------------------------------------------------------
CODE
  Relative segment, address: CODE_AREA 0000BAF4 - 0000BB23 (0x30 bytes), align: 2
  Segment part 214.           Intra module refs:   Segment part 82
           LOCAL                   ADDRESS         
           =====                   =======         
           main_menu_onkey         0000BAF4 
               stack 1 = 00000000 ( 00000004 )
    -------------------------------------------------------------------------
CODE
  Segment part 215. NOT NEEDED.
    -------------------------------------------------------------------------
DATA_C
  Relative segment, address: CODE_AREA 00017734 - 0001775F (0x2c bytes), align: 2
  Segment part 82.            Intra module refs:   CreateMainMenu
    -------------------------------------------------------------------------
CODE
  Relative segment, address: CODE_AREA 0000BB24 - 0000BBEF (0xcc bytes), align: 2
  Segment part 216.
           ENTRY                   ADDRESS         REF BY
           =====                   =======         ======
           CreateMainMenu          0000BB24        method5 (main)
               stack 1 = 00000000 ( 00000020 )
    -------------------------------------------------------------------------
CODE
  Relative segment, address: CODE_AREA 0000BBF0 - 0000BBF3 (0x4 bytes), align: 2
  Segment part 217.           Intra module refs:   CreateInputUrl
                                                   CreateMainMenu
                                                   main_menu_find
                                                   main_menu_goto_bookmarks
                                                   main_menu_goto_history
                                                   main_menu_goto_url
                                                   main_menu_quit
                                                   main_menu_savepage
                                                   main_menu_search
    -------------------------------------------------------------------------
CODE
  Relative segment, address: CODE_AREA 0000BBF4 - 0000BBF7 (0x4 bytes), align: 2
  Segment part 218.           Intra module refs:   CreateHistoryMenu
                                                   CreateInputUrl
                                                   CreateMainMenu
    -------------------------------------------------------------------------
CODE
  Segment part 219. NOT NEEDED.Intra module refs   edit_bookmark_onkey
    -------------------------------------------------------------------------
CODE
  Segment part 220. NOT NEEDED.Intra module refs   bookmarks_menu_onkey
                                                   edit_bookmark_onkey
    -------------------------------------------------------------------------
CODE
  Segment part 221. NOT NEEDED.Intra module refs   CreateFindDialog
                                                   CreateSavePageDialog
                                                   CreateSearchDialog
                                                   bookmarks_menu_iconhndl
                                                   history_menu_iconhndl
                                                   input_url_options
                                                   show_edit_bookmark_menu
    -------------------------------------------------------------------------
CODE
  Segment part 222. NOT NEEDED.Intra module refs   CreateInputUrl
                                                   show_edit_bookmark_menu
    -------------------------------------------------------------------------
CODE
  Segment part 223. NOT NEEDED.Intra module refs   CreateBookmarksMenu
                                                   CreateFindDialog
                                                   CreateHistoryMenu
                                                   CreateInputUrl
                                                   CreateMainMenu
                                                   CreateSavePageDialog
                                                   CreateSearchDialog
                                                   show_edit_bookmark_menu
    -------------------------------------------------------------------------
CODE
  Segment part 224. NOT NEEDED.Intra module refs   CreateFindDialog
                                                   CreateInputUrl
                                                   CreateSavePageDialog
                                                   CreateSearchDialog
                                                   show_edit_bookmark_menu
    -------------------------------------------------------------------------
CODE
  Segment part 225. NOT NEEDED.Intra module refs   AddToFList
                                                   FindFiles
                                                   bookmarks_menu_onkey
                                                   bookmarks_options_edit
    -------------------------------------------------------------------------
CODE
  Segment part 226. NOT NEEDED.Intra module refs   show_bookmarks_options
    -------------------------------------------------------------------------
CODE
  Segment part 227. NOT NEEDED.Intra module refs   CreateBookmarksMenu
                                                   FindFiles
                                                   get_search_engines
                                                   savepage_box_onkey
                                                   search_menu_onkey
    -------------------------------------------------------------------------
CODE
  Segment part 228. NOT NEEDED.Intra module refs   bookmarks_menu_onkey
    -------------------------------------------------------------------------
CODE
  Segment part 229. NOT NEEDED.Intra module refs   bookmarks_menu_onkey
    -------------------------------------------------------------------------
CODE
  Segment part 230. NOT NEEDED.Intra module refs   input_url_onkey
                                                   search_menu_onkey
    -------------------------------------------------------------------------
CODE
  Segment part 231. NOT NEEDED.Intra module refs   input_url_onkey
                                                   search_menu_onkey
    -------------------------------------------------------------------------
CODE
  Segment part 232. NOT NEEDED.Intra module refs   find_box_onkey
    -------------------------------------------------------------------------
CODE
  Segment part 233. NOT NEEDED.Intra module refs   savepage_box_onkey
    -------------------------------------------------------------------------
CODE
  Segment part 234. NOT NEEDED.Intra module refs   history_menu_onkey
    -------------------------------------------------------------------------
CODE
  Segment part 235. NOT NEEDED.Intra module refs   CreateHistoryMenu
    -------------------------------------------------------------------------
CSTACK
  Segment part 1. NOT NEEDED.
    -------------------------------------------------------------------------
DATA_ID
  Relative segment, address: CODE_AREA 000004E8 - 00000603 (0x11c bytes), align: 2
  Segment part 39.            Intra module refs:   Segment part 38
    -------------------------------------------------------------------------
DATA_ID
  Relative segment, address: CODE_AREA 00000604 - 00000607 (0x4 bytes), align: 2
  Segment part 41.            Intra module refs:   ext_url
    -------------------------------------------------------------------------
DATA_ID
  Relative segment, address: CODE_AREA 00000608 - 0000066F (0x68 bytes), align: 2
  Segment part 43.            Intra module refs:   Segment part 42
    -------------------------------------------------------------------------
DATA_ID
  Relative segment, address: CODE_AREA 00000670 - 00000684 (0x15 bytes), align: 2
  Segment part 45.            Intra module refs:   Segment part 44
    -------------------------------------------------------------------------
DATA_ID
  Relative segment, address: CODE_AREA 00000688 - 0000069F (0x18 bytes), align: 2
  Segment part 47.            Intra module refs:   edit_bookmark_sk
    -------------------------------------------------------------------------
DATA_ID
  Relative segment, address: CODE_AREA 000006A0 - 00000767 (0xc8 bytes), align: 2
  Segment part 50.            Intra module refs:   Segment part 49
    -------------------------------------------------------------------------
DATA_ID
  Relative segment, address: CODE_AREA 00000768 - 00000773 (0xc bytes), align: 2
  Segment part 53.            Intra module refs:   bookmarks_options_softkeys
    -------------------------------------------------------------------------
DATA_ID
  Relative segment, address: CODE_AREA 00000774 - 0000077B (0x8 bytes), align: 2
  Segment part 55.            Intra module refs:   bookmarks_options_skt
    -------------------------------------------------------------------------
DATA_ID
  Relative segment, address: CODE_AREA 0000077C - 00000787 (0xc bytes), align: 2
  Segment part 57.            Intra module refs:   bookmarks_menu_softkeys
    -------------------------------------------------------------------------
DATA_ID
  Relative segment, address: CODE_AREA 00000788 - 0000078F (0x8 bytes), align: 2
  Segment part 59.            Intra module refs:   bookmarks_menu_skt
    -------------------------------------------------------------------------
DATA_ID
  Relative segment, address: CODE_AREA 00000790 - 000007BB (0x2c bytes), align: 2
  Segment part 64.            Intra module refs:   Segment part 63
    -------------------------------------------------------------------------
DATA_ID
  Relative segment, address: CODE_AREA 000007BC - 000007C7 (0xc bytes), align: 2
  Segment part 68.            Intra module refs:   history_menu_softkeys
    -------------------------------------------------------------------------
DATA_ID
  Relative segment, address: CODE_AREA 000007C8 - 0000081F (0x58 bytes), align: 2
  Segment part 70.            Intra module refs:   Segment part 69
    -------------------------------------------------------------------------
DATA_ID
  Relative segment, address: CODE_AREA 00000820 - 00000827 (0x8 bytes), align: 2
  Segment part 72.            Intra module refs:   history_menu_skt
    -------------------------------------------------------------------------
DATA_ID
  Relative segment, address: CODE_AREA 00000828 - 00000853 (0x2c bytes), align: 2
  Segment part 74.            Intra module refs:   Segment part 73
    -------------------------------------------------------------------------
DATA_ID
  Relative segment, address: CODE_AREA 00000854 - 0000095F (0x10c bytes), align: 2
  Segment part 79.            Intra module refs:   Segment part 78
    -------------------------------------------------------------------------
DATA_ID
  Segment part 236. TENTATIVE. Used definition from conf_loader
           ENTRY                   ADDRESS         REF BY
           =====                   =======         ======
           ?*?DATA_ID              
    -------------------------------------------------------------------------
INITTAB
  Segment part 237. TENTATIVE. Used definition from conf_loader
           ENTRY                   ADDRESS         REF BY
           =====                   =======         ======
           ?init?tab?DATA_I        

    *************************************************************************

  FILE NAME : C:\arm\BalletMini\Release_ELKA\Obj\parse_oms.r79
  PROGRAM MODULE, NAME : parse_oms

  SEGMENTS IN THE MODULE
  ======================
CODE
  Relative segment, address: CODE_AREA 0000BBF8 - 0000BC13 (0x1c bytes), align: 2
  Segment part 4.             Intra module refs:   OMS_DataArrived
           ENTRY                   ADDRESS         REF BY
           =====                   =======         ======
           _rbyte                  0000BBF8 
    -------------------------------------------------------------------------
CODE
  Segment part 5. NOT NEEDED.
    -------------------------------------------------------------------------
CODE
  Relative segment, address: CODE_AREA 0000BC14 - 0000BC3B (0x28 bytes), align: 2
  Segment part 6.             Intra module refs:   OMS_DataArrived
           LOCAL                   ADDRESS         
           =====                   =======         
           _rshort                 0000BC14 
    -------------------------------------------------------------------------
CODE
  Segment part 7. NOT NEEDED.
    -------------------------------------------------------------------------
CODE
  Relative segment, address: CODE_AREA 0000BC3C - 0000BC73 (0x38 bytes), align: 2
  Segment part 8.             Intra module refs:   OMS_DataArrived
           ENTRY                   ADDRESS         REF BY
           =====                   =======         ======
           _rlong                  0000BC3C 
    -------------------------------------------------------------------------
CODE
  Segment part 9. NOT NEEDED.
    -------------------------------------------------------------------------
CODE
  Relative segment, address: CODE_AREA 0000BC74 - 0000BC83 (0x10 bytes), align: 2
  Segment part 10.            Intra module refs:   OMS_DataArrived
           ENTRY                   ADDRESS         REF BY
           =====                   =======         ======
           zcalloc                 0000BC74 
               stack 1 = 00000000 ( 00000004 )
    -------------------------------------------------------------------------
CODE
  Segment part 11. NOT NEEDED.
    -------------------------------------------------------------------------
CODE
  Relative segment, address: CODE_AREA 0000BC84 - 0000BC93 (0x10 bytes), align: 2
  Segment part 12.            Intra module refs:   OMS_DataArrived
           ENTRY                   ADDRESS         REF BY
           =====                   =======         ======
           zcfree                  0000BC84 
               stack 1 = 00000000 ( 00000004 )
    -------------------------------------------------------------------------
CODE
  Segment part 13. NOT NEEDED.
    -------------------------------------------------------------------------
CODE
  Relative segment, address: CODE_AREA 0000BC94 - 0000E48F (0x27fc bytes), align: 2
  Segment part 14.
           ENTRY                   ADDRESS         REF BY
           =====                   =======         ======
           OMS_DataArrived         0000BC94        maincsm_onmessage (main)
               stack 1 = 00000000 ( 000000B8 )
    -------------------------------------------------------------------------
CODE
  Segment part 15. NOT NEEDED.Intra module refs:   OMS_DataArrived
    -------------------------------------------------------------------------
CODE
  Segment part 16. NOT NEEDED.Intra module refs:   OMS_DataArrived
    -------------------------------------------------------------------------
CODE
  Segment part 17. NOT NEEDED.Intra module refs:   OMS_DataArrived
    -------------------------------------------------------------------------
CODE
  Segment part 18. NOT NEEDED.Intra module refs:   OMS_DataArrived
    -------------------------------------------------------------------------
CODE
  Segment part 19. NOT NEEDED.Intra module refs:   OMS_DataArrived
    -------------------------------------------------------------------------
CODE
  Segment part 20. NOT NEEDED.Intra module refs:   OMS_DataArrived
    -------------------------------------------------------------------------
CODE
  Segment part 21. NOT NEEDED.Intra module refs:   OMS_DataArrived
    -------------------------------------------------------------------------
CODE
  Segment part 22. NOT NEEDED.Intra module refs:   OMS_DataArrived
    -------------------------------------------------------------------------
CODE
  Segment part 23. NOT NEEDED.Intra module refs:   OMS_DataArrived
    -------------------------------------------------------------------------
CODE
  Segment part 24. NOT NEEDED.Intra module refs:   OMS_DataArrived
    -------------------------------------------------------------------------
CODE
  Segment part 25. NOT NEEDED.Intra module refs:   OMS_DataArrived
    -------------------------------------------------------------------------
CODE
  Segment part 26. NOT NEEDED.Intra module refs:   OMS_DataArrived
    -------------------------------------------------------------------------
CODE
  Segment part 27. NOT NEEDED.Intra module refs:   OMS_DataArrived
    -------------------------------------------------------------------------
CODE
  Segment part 28. NOT NEEDED.Intra module refs:   OMS_DataArrived
    -------------------------------------------------------------------------
CODE
  Segment part 29. NOT NEEDED.Intra module refs:   OMS_DataArrived
    -------------------------------------------------------------------------
CODE
  Segment part 30. NOT NEEDED.Intra module refs:   OMS_DataArrived
    -------------------------------------------------------------------------
CODE
  Segment part 31. NOT NEEDED.Intra module refs:   OMS_DataArrived
    -------------------------------------------------------------------------
CODE
  Segment part 32. NOT NEEDED.Intra module refs:   OMS_DataArrived
    -------------------------------------------------------------------------
CODE
  Segment part 33. NOT NEEDED.Intra module refs:   OMS_DataArrived
    -------------------------------------------------------------------------
CODE
  Segment part 34. NOT NEEDED.Intra module refs:   OMS_DataArrived
    -------------------------------------------------------------------------
CODE
  Segment part 35. NOT NEEDED.Intra module refs:   OMS_DataArrived
    -------------------------------------------------------------------------
CODE
  Segment part 36. NOT NEEDED.Intra module refs:   OMS_DataArrived
    -------------------------------------------------------------------------
CODE
  Segment part 37. NOT NEEDED.Intra module refs:   OMS_DataArrived
    -------------------------------------------------------------------------
CSTACK
  Segment part 1. NOT NEEDED.
    -------------------------------------------------------------------------
DATA_C
  Relative segment, address: CODE_AREA 00017760 - 00017803 (0xa4 bytes), align: 2
  Segment part 2.             Intra module refs:   OMS_DataArrived
    -------------------------------------------------------------------------
DATA_C
  Segment part 3. NOT NEEDED.

    *************************************************************************

  FILE NAME : C:\arm\BalletMini\Release_ELKA\Obj\rand.r79
  PROGRAM MODULE, NAME : rand

  SEGMENTS IN THE MODULE
  ======================
DATA_I
  Relative segment, address: DATA_AREA 00000960 - 00000967 (0x8 bytes), align: 2
  Segment part 2.             Intra module refs:   Segment part 8
    -------------------------------------------------------------------------
CODE
  Segment part 4. NOT NEEDED.
    -------------------------------------------------------------------------
CODE
  Relative segment, address: CODE_AREA 0000E490 - 0000E4A3 (0x14 bytes), align: 2
  Segment part 5.
           ENTRY                   ADDRESS         REF BY
           =====                   =======         ======
           msrand                  0000E490        main (main)
               stack 1 = 00000000 ( 00000004 )
    -------------------------------------------------------------------------
CODE
  Segment part 6. NOT NEEDED.
    -------------------------------------------------------------------------
CODE
  Relative segment, address: CODE_AREA 0000E4A4 - 0000E4CB (0x28 bytes), align: 2
  Segment part 7.             Intra module refs:   mrandom
                                                   msrand
           ENTRY                   ADDRESS         REF BY
           =====                   =======         ======
           mrand                   0000E4A4 
    -------------------------------------------------------------------------
CODE
  Relative segment, address: CODE_AREA 0000E4CC - 0000E4CF (0x4 bytes), align: 2
  Segment part 8.             Intra module refs:   mrand
                                                   msrand
    -------------------------------------------------------------------------
CODE
  Segment part 9. NOT NEEDED.
    -------------------------------------------------------------------------
CODE
  Relative segment, address: CODE_AREA 0000E4D0 - 0000E4E7 (0x18 bytes), align: 2
  Segment part 10.
           ENTRY                   ADDRESS         REF BY
           =====                   =======         ======
           mrandom                 0000E4D0        main (main)
               stack 1 = 00000000 ( 00000008 )
    -------------------------------------------------------------------------
CODE
  Segment part 11. NOT NEEDED.Intra module refs:   mrandom
    -------------------------------------------------------------------------
CSTACK
  Segment part 1. NOT NEEDED.
    -------------------------------------------------------------------------
DATA_ID
  Relative segment, address: CODE_AREA 00000960 - 00000967 (0x8 bytes), align: 2
  Segment part 3.             Intra module refs:   Segment part 2
    -------------------------------------------------------------------------
DATA_ID
  Segment part 12. TENTATIVE. Used definition from conf_loader
           ENTRY                   ADDRESS         REF BY
           =====                   =======         ======
           ?*?DATA_ID              
    -------------------------------------------------------------------------
INITTAB
  Segment part 13. TENTATIVE. Used definition from conf_loader
           ENTRY                   ADDRESS         REF BY
           =====                   =======         ======
           ?init?tab?DATA_I        

    *************************************************************************

  FILE NAME : C:\arm\BalletMini\Release_ELKA\Obj\readimg.r79
  PROGRAM MODULE, NAME : readimg

  SEGMENTS IN THE MODULE
  ======================
CODE
  Segment part 4. NOT NEEDED.
    -------------------------------------------------------------------------
CODE
  Relative segment, address: CODE_AREA 0000E4E8 - 0000E4F7 (0x10 bytes), align: 2
  Segment part 5.             Intra module refs:   read_pngimg
           ENTRY                   ADDRESS         REF BY
           =====                   =======         ======
           xmalloc                 0000E4E8 
               stack 1 = 00000000 ( 00000004 )
    -------------------------------------------------------------------------
CODE
  Segment part 6. NOT NEEDED.
    -------------------------------------------------------------------------
CODE
  Relative segment, address: CODE_AREA 0000E4F8 - 0000E507 (0x10 bytes), align: 2
  Segment part 7.             Intra module refs:   read_pngimg
           ENTRY                   ADDRESS         REF BY
           =====                   =======         ======
           xmfree                  0000E4F8 
               stack 1 = 00000000 ( 00000004 )
    -------------------------------------------------------------------------
CODE
  Segment part 8. NOT NEEDED.
    -------------------------------------------------------------------------
CODE
  Relative segment, address: CODE_AREA 0000E508 - 0000E53B (0x34 bytes), align: 2
  Segment part 9.             Intra module refs:   read_pngimg
           ENTRY                   ADDRESS         REF BY
           =====                   =======         ======
           read_data_fn            0000E508 
               stack 1 = 00000000 ( 00000010 )
    -------------------------------------------------------------------------
CODE
  Segment part 10. NOT NEEDED.
    -------------------------------------------------------------------------
CODE
  Relative segment, address: CODE_AREA 0000E53C - 0000E873 (0x338 bytes), align: 2
  Segment part 11.
           ENTRY                   ADDRESS         REF BY
           =====                   =======         ======
           read_pngimg             0000E53C        AddPictureItem (additems)
               stack 1 = 00000000 ( 00000050 )
    -------------------------------------------------------------------------
CODE
  Segment part 12. NOT NEEDED.
    -------------------------------------------------------------------------
CODE
  Relative segment, address: CODE_AREA 0000E874 - 0000E893 (0x20 bytes), align: 2
  Segment part 13.            Intra module refs:   read_jpgimg
           LOCAL                   ADDRESS         
           =====                   =======         
           my_error_exit           0000E874 
               stack 1 = 00000000 ( 00000008 )
    -------------------------------------------------------------------------
CODE
  Segment part 14. NOT NEEDED.
    -------------------------------------------------------------------------
DATA_C
  Relative segment, address: CODE_AREA 00017804 - 0001780B (0x8 bytes), align: 2
  Segment part 2.             Intra module refs:   read_pngimg
    -------------------------------------------------------------------------
DATA_C
  Relative segment, address: CODE_AREA 00017F7D - 00017F7E (0x2 bytes), align: 0
  Segment part 3.             Intra module refs:   read_jpgimg
           ENTRY                   ADDRESS         REF BY
           =====                   =======         ======
           jpg_hdr                 00017F7D 
    -------------------------------------------------------------------------
CODE
  Relative segment, address: CODE_AREA 0000E894 - 0000EA4F (0x1bc bytes), align: 2
  Segment part 15.
           ENTRY                   ADDRESS         REF BY
           =====                   =======         ======
           read_jpgimg             0000E894        AddPictureItem (additems)
               stack 1 = 00000000 ( 0000029C )
    -------------------------------------------------------------------------
CODE
  Segment part 16. NOT NEEDED.
    -------------------------------------------------------------------------
CODE
  Relative segment, address: CODE_AREA 0000EA50 - 0000EB0F (0xc0 bytes), align: 2
  Segment part 17.
           ENTRY                   ADDRESS         REF BY
           =====                   =======         ======
           ConvertRGBAToRGB8       0000EA50        AddPictureItemRGBA (additems)
               stack 1 = 00000000 ( 00000018 )
    -------------------------------------------------------------------------
CODE
  Segment part 18. NOT NEEDED.
    -------------------------------------------------------------------------
CODE
  Relative segment, address: CODE_AREA 0000EB10 - 0000EBDB (0xcc bytes), align: 2
  Segment part 19.
           ENTRY                   ADDRESS         REF BY
           =====                   =======         ======
           CreateFrame             0000EB10        AddPictureItemFrame (additems)
               stack 1 = 00000000 ( 00000014 )
    -------------------------------------------------------------------------
CODE
  Segment part 20. NOT NEEDED.
    -------------------------------------------------------------------------
CODE
  Relative segment, address: CODE_AREA 0000EBDC - 0000ECAB (0xd0 bytes), align: 2
  Segment part 21.
           ENTRY                   ADDRESS         REF BY
           =====                   =======         ======
           CreateDelimiter         0000EBDC        AddPictureItemHr (additems)
               stack 1 = 00000000 ( 00000014 )
    -------------------------------------------------------------------------
CODE
  Segment part 22. NOT NEEDED.
    -------------------------------------------------------------------------
CODE
  Relative segment, address: CODE_AREA 0000ECAC - 0000ED9F (0xf4 bytes), align: 2
  Segment part 23.
           ENTRY                   ADDRESS         REF BY
           =====                   =======         ======
           CreateButton            0000ECAC        AddButtonItem (additems)
               stack 1 = 00000000 ( 00000010 )
    -------------------------------------------------------------------------
CODE
  Segment part 24. NOT NEEDED.Intra module refs:   read_jpgimg
    -------------------------------------------------------------------------
CODE
  Segment part 25. NOT NEEDED.Intra module refs:   read_jpgimg
    -------------------------------------------------------------------------
CODE
  Segment part 26. NOT NEEDED.Intra module refs:   read_jpgimg
    -------------------------------------------------------------------------
CODE
  Segment part 27. NOT NEEDED.Intra module refs:   read_jpgimg
    -------------------------------------------------------------------------
CODE
  Segment part 28. NOT NEEDED.Intra module refs:   read_jpgimg
    -------------------------------------------------------------------------
CODE
  Segment part 29. NOT NEEDED.Intra module refs:   read_jpgimg
    -------------------------------------------------------------------------
CODE
  Segment part 30. NOT NEEDED.Intra module refs:   read_jpgimg
    -------------------------------------------------------------------------
CODE
  Segment part 31. NOT NEEDED.Intra module refs:   read_jpgimg
    -------------------------------------------------------------------------
CSTACK
  Segment part 1. NOT NEEDED.

    *************************************************************************

  FILE NAME : C:\arm\BalletMini\Release_ELKA\Obj\string_works.r79
  PROGRAM MODULE, NAME : string_works

  SEGMENTS IN THE MODULE
  ======================
DATA_I
  Segment part 5. NOT NEEDED.
           ENTRY                   ADDRESS         REF BY
           =====                   =======         ======
           debugA                  
           debug_file              
           debug_ul                
    -------------------------------------------------------------------------
CODE
  Segment part 9. NOT NEEDED.
    -------------------------------------------------------------------------
CODE
  Segment part 10. NOT NEEDED.
           ENTRY                   ADDRESS         REF BY
           =====                   =======         ======
           debugv                  
               not allocated function
    -------------------------------------------------------------------------
CODE
  Segment part 11. NOT NEEDED.
    -------------------------------------------------------------------------
CODE
  Segment part 12. NOT NEEDED.
           ENTRY                   ADDRESS         REF BY
           =====                   =======         ======
           debugf                  
               not allocated function
    -------------------------------------------------------------------------
CODE
  Segment part 13. NOT NEEDED.
    -------------------------------------------------------------------------
CODE
  Segment part 14. NOT NEEDED.
    -------------------------------------------------------------------------
CODE
  Segment part 15. NOT NEEDED.
           ENTRY                   ADDRESS         REF BY
           =====                   =======         ======
           debuf                   
               not allocated function
    -------------------------------------------------------------------------
CODE
  Segment part 16. NOT NEEDED.
    -------------------------------------------------------------------------
CODE
  Relative segment, address: CODE_AREA 0000EDA0 - 0000EDAF (0x10 bytes), align: 2
  Segment part 17.            Intra module refs:   extract_omstr
                                                   omstrcmp
           LOCAL                   ADDRESS         
           =====                   =======         
           _rshort                 0000EDA0 
    -------------------------------------------------------------------------
CODE
  Segment part 18. NOT NEEDED.
    -------------------------------------------------------------------------
CODE
  Relative segment, address: CODE_AREA 0000EDB0 - 0000EDBF (0x10 bytes), align: 2
  Segment part 19.
           ENTRY                   ADDRESS         REF BY
           =====                   =======         ======
           _rshort2                0000EDB0        AddInputItem (additems)
                                                   ChangeMenuSelection (display_utils)
                                                   collectItemsParams (main)
                                                   method5 (main)
                                                   renderForm (display_utils)
    -------------------------------------------------------------------------
CODE
  Segment part 20. NOT NEEDED.
    -------------------------------------------------------------------------
CODE
  Relative segment, address: CODE_AREA 0000EDC0 - 0000EDEF (0x30 bytes), align: 2
  Segment part 21.
           ENTRY                   ADDRESS         REF BY
           =====                   =======         ======
           strcmp_nocase           0000EDC0        AddToFList (mainmenu)
                                                   AddToFListFM (fileman)
                                                   FindFiles (mainmenu)
                                                   ParseInputFilename (main)
                                                   bookmarks_menu_onkey (mainmenu)
                                                   bookmarks_options_edit (mainmenu)
                                                   maincsm_onmessage (main)
    -------------------------------------------------------------------------
CODE
  Segment part 22. NOT NEEDED.
    -------------------------------------------------------------------------
CODE
  Relative segment, address: CODE_AREA 0000EDF0 - 0000EE4B (0x5c bytes), align: 2
  Segment part 23.
           ENTRY                   ADDRESS         REF BY
           =====                   =======         ======
           omstrcmp                0000EDF0        FindReferenceById (display_utils)
               stack 1 = 00000000 ( 00000014 )
    -------------------------------------------------------------------------
CODE
  Segment part 24. NOT NEEDED.
    -------------------------------------------------------------------------
CODE
  Relative segment, address: CODE_AREA 0000EE4C - 0000EE7B (0x30 bytes), align: 2
  Segment part 25.
           ENTRY                   ADDRESS         REF BY
           =====                   =======         ======
           globalstr               0000EE4C        ParseInputFilename (main)
                                                   StartINET (inet)
                                                   bookmarks_menu_onkey (mainmenu)
               stack 1 = 00000000 ( 00000010 )
    -------------------------------------------------------------------------
CODE
  Segment part 26. NOT NEEDED.
    -------------------------------------------------------------------------
CODE
  Relative segment, address: CODE_AREA 0000EE7C - 0000EE97 (0x1c bytes), align: 2
  Segment part 27.
           ENTRY                   ADDRESS         REF BY
           =====                   =======         ======
           freegstr                0000EE7C        FreeViewUrl (main)
                                                   SendPost (inet)
                                                   free_socket (inet)
               stack 1 = 00000000 ( 00000008 )
    -------------------------------------------------------------------------
CODE
  Segment part 28. NOT NEEDED.
    -------------------------------------------------------------------------
CODE
  Segment part 29. NOT NEEDED.
           ENTRY                   ADDRESS         REF BY
           =====                   =======         ======
           replacegstr             
               not allocated function
    -------------------------------------------------------------------------
CODE
  Segment part 30. NOT NEEDED.
    -------------------------------------------------------------------------
CODE
  Relative segment, address: CODE_AREA 0000EE98 - 0000EF23 (0x8c bytes), align: 2
  Segment part 31.            Intra module refs:   ws2ascii
           ENTRY                   ADDRESS         REF BY
           =====                   =======         ======
           char16to8               0000EE98        collectItemsParams (main)
                                                   input_url_onkey (mainmenu)
                                                   search_menu_onkey (mainmenu)
    -------------------------------------------------------------------------
CODE
  Segment part 32. NOT NEEDED.
    -------------------------------------------------------------------------
CODE
  Relative segment, address: CODE_AREA 0000EF24 - 0000EFA3 (0x80 bytes), align: 2
  Segment part 33.            Intra module refs:   ascii2ws
           ENTRY                   ADDRESS         REF BY
           =====                   =======         ======
           char8to16               0000EF24        templates_menu_onkey (display_utils)
    -------------------------------------------------------------------------
CODE
  Segment part 34. NOT NEEDED.
    -------------------------------------------------------------------------
CODE
  Relative segment, address: CODE_AREA 0000EFA4 - 0000EFF7 (0x54 bytes), align: 2
  Segment part 35.
           ENTRY                   ADDRESS         REF BY
           =====                   =======         ======
           ws2ascii                0000EFA4        SaveTextToTemplate (display_utils)
                                                   link_options (display_utils)
               stack 1 = 00000000 ( 00000014 )
    -------------------------------------------------------------------------
CODE
  Segment part 36. NOT NEEDED.
    -------------------------------------------------------------------------
CODE
  Relative segment, address: CODE_AREA 0000EFF8 - 0000F02F (0x38 bytes), align: 2
  Segment part 37.
           ENTRY                   ADDRESS         REF BY
           =====                   =======         ======
           ascii2ws                0000EFF8        CreateFindDialog (mainmenu)
                                                   CreateSavePageDialog (mainmenu)
                                                   CreateSearchDialog (mainmenu)
                                                   ParseSocketMsg (inet)
                                                   ShowLink (display_utils)
                                                   UpdateCSMname (main)
                                                   bookmarks_menu_iconhndl (mainmenu)
                                                   bsend (inet)
                                                   create_connect (inet)
                                                   history_menu_iconhndl (mainmenu)
                                                   input_box_onkey_options (display_utils)
                                                   input_url_options (mainmenu)
                                                   link_options (display_utils)
                                                   method0 (main)
                                                   sel_menu_iconhndl (display_utils)
                                                   show_edit_bookmark_menu (mainmenu)
                                                   templates_menu_iconhndl (display_utils)
               stack 1 = 00000000 ( 0000000C )
    -------------------------------------------------------------------------
CODE
  Segment part 38. NOT NEEDED.
    -------------------------------------------------------------------------
CODE
  Relative segment, address: CODE_AREA 0000F030 - 0000F08B (0x5c bytes), align: 2
  Segment part 39.
           ENTRY                   ADDRESS         REF BY
           =====                   =======         ======
           extract_omstr           0000F030        AddInputItem (additems)
                                                   ChangeMenuSelection (display_utils)
                                                   collectItemsParams (main)
                                                   method5 (main)
                                                   renderForm (display_utils)
               stack 1 = 00000000 ( 00000010 )
    -------------------------------------------------------------------------
CODE
  Segment part 40. NOT NEEDED.
    -------------------------------------------------------------------------
CODE
  Relative segment, address: CODE_AREA 0000F08C - 0000F143 (0xb8 bytes), align: 2
  Segment part 41.
           ENTRY                   ADDRESS         REF BY
           =====                   =======         ======
           utf82win                0000F08C        OMS_DataArrived (parse_oms)
               stack 1 = 00000000 ( 00000004 )
    -------------------------------------------------------------------------
CODE
  Segment part 42. NOT NEEDED.
    -------------------------------------------------------------------------
DATA_I
  Relative segment, address: DATA_AREA 00000968 - 0000097B (0x14 bytes), align: 2
  Segment part 7.             Intra module refs:   ToWeb
           ENTRY                   ADDRESS         REF BY
           =====                   =======         ======
           percent_symb            00000968 
           symbols                 0000096C 
    -------------------------------------------------------------------------
CODE
  Relative segment, address: CODE_AREA 0000F144 - 0000F187 (0x44 bytes), align: 2
  Segment part 43.            Intra module refs:   ToWeb
                                                   char_win2utf8
           ENTRY                   ADDRESS         REF BY
           =====                   =======         ======
           sfind8                  0000F144 
               stack 1 = 00000000 ( 00000010 )
    -------------------------------------------------------------------------
CODE
  Segment part 44. NOT NEEDED.
    -------------------------------------------------------------------------
CODE
  Relative segment, address: CODE_AREA 0000F188 - 0000F2B3 (0x12c bytes), align: 2
  Segment part 45.            Intra module refs:   ToWeb
           ENTRY                   ADDRESS         REF BY
           =====                   =======         ======
           char_win2utf8           0000F188 
               stack 1 = 00000000 ( 0000002C )
    -------------------------------------------------------------------------
CODE
  Segment part 46. NOT NEEDED.
    -------------------------------------------------------------------------
CODE
  Relative segment, address: CODE_AREA 0000F2B4 - 0000F3B3 (0x100 bytes), align: 2
  Segment part 47.
           ENTRY                   ADDRESS         REF BY
           =====                   =======         ======
           ToWeb                   0000F2B4        collectItemsParams (main)
                                                   input_url_onkey (mainmenu)
                                                   maincsm_onmessage (main)
                                                   search_menu_onkey (mainmenu)
               stack 1 = 00000000 ( 0000001C )
    -------------------------------------------------------------------------
CODE
  Segment part 48. NOT NEEDED.
    -------------------------------------------------------------------------
CODE
  Relative segment, address: CODE_AREA 0000F3B4 - 0000F453 (0xa0 bytes), align: 2
  Segment part 49.
           ENTRY                   ADDRESS         REF BY
           =====                   =======         ======
           oms2ws                  0000F3B4        AddButtonItem (additems)
                                                   AddInputItem (additems)
                                                   collectItemsParams (main)
                                                   renderForm (display_utils)
                                                   sel_menu_iconhndl (display_utils)
    -------------------------------------------------------------------------
CODE
  Segment part 50. NOT NEEDED.
    -------------------------------------------------------------------------
CODE
  Relative segment, address: CODE_AREA 0000F454 - 0000F503 (0xb0 bytes), align: 2
  Segment part 51.
           ENTRY                   ADDRESS         REF BY
           =====                   =======         ======
           CompareWchar            0000F454        FindStringOnPage (display_utils)
    -------------------------------------------------------------------------
CSTACK
  Segment part 1. NOT NEEDED.
    -------------------------------------------------------------------------
DATA_ID
  Segment part 6. NOT NEEDED.
    -------------------------------------------------------------------------
DATA_ID
  Relative segment, address: CODE_AREA 00000968 - 0000097B (0x14 bytes), align: 2
  Segment part 8.             Intra module refs:   Segment part 7
    -------------------------------------------------------------------------
DATA_ID
  Segment part 52. TENTATIVE. Used definition from conf_loader
           ENTRY                   ADDRESS         REF BY
           =====                   =======         ======
           ?*?DATA_ID              
    -------------------------------------------------------------------------
INITTAB
  Segment part 53. TENTATIVE. Used definition from conf_loader
           ENTRY                   ADDRESS         REF BY
           =====                   =======         ======
           ?init?tab?DATA_I        
    -------------------------------------------------------------------------
DATA_C
  Segment part 2. NOT NEEDED.
    -------------------------------------------------------------------------
DATA_C
  Segment part 3. NOT NEEDED.
    -------------------------------------------------------------------------
DATA_C
  Relative segment, address: CODE_AREA 0001780C - 0001782F (0x24 bytes), align: 2
  Segment part 4.             Intra module refs:   char_win2utf8

    *************************************************************************

  FILE NAME : C:\arm\BalletMini\Release_ELKA\Obj\upload.r79
  PROGRAM MODULE, NAME : upload

  SEGMENTS IN THE MODULE
  ======================
DATA_I
  Relative segment, address: DATA_AREA 0000097C - 00000983 (0x8 bytes), align: 2
  Segment part 3.             Intra module refs:   Segment part 11
           ENTRY                   ADDRESS         REF BY
           =====                   =======         ======
           file_data_signature     0000097C 
           filesize                00000980 
    -------------------------------------------------------------------------
CODE
  Segment part 5. NOT NEEDED.
    -------------------------------------------------------------------------
CODE
  Relative segment, address: CODE_AREA 0000F504 - 0000F57F (0x7c bytes), align: 2
  Segment part 6.
           ENTRY                   ADDRESS         REF BY
           =====                   =======         ======
           PrepareFileForUpload    0000F504        method5 (main)
               stack 1 = 00000000 ( 00000010 )
    -------------------------------------------------------------------------
CODE
  Segment part 7. NOT NEEDED.
    -------------------------------------------------------------------------
CODE
  Relative segment, address: CODE_AREA 0000F580 - 0000F603 (0x84 bytes), align: 2
  Segment part 8.
           ENTRY                   ADDRESS         REF BY
           =====                   =======         ======
           GetFileDataLen          0000F580        collectItemsParams (main)
               stack 1 = 00000000 ( 00000038 )
    -------------------------------------------------------------------------
CODE
  Segment part 9. NOT NEEDED.
    -------------------------------------------------------------------------
CODE
  Relative segment, address: CODE_AREA 0000F604 - 0000F713 (0x110 bytes), align: 2
  Segment part 10.
           ENTRY                   ADDRESS         REF BY
           =====                   =======         ======
           FillFileData            0000F604        collectItemsParams (main)
               stack 1 = 00000000 ( 0000002C )
    -------------------------------------------------------------------------
CODE
  Relative segment, address: CODE_AREA 0000F714 - 0000F717 (0x4 bytes), align: 2
  Segment part 11.            Intra module refs:   FillFileData
                                                   GetFileDataLen
    -------------------------------------------------------------------------
CODE
  Relative segment, address: CODE_AREA 0000F718 - 0000F71B (0x4 bytes), align: 2
  Segment part 12.            Intra module refs:   FillFileData
                                                   GetFileDataLen
    -------------------------------------------------------------------------
CSTACK
  Segment part 1. NOT NEEDED.
    -------------------------------------------------------------------------
DATA_ID
  Relative segment, address: CODE_AREA 0000097C - 00000983 (0x8 bytes), align: 2
  Segment part 4.             Intra module refs:   Segment part 3
    -------------------------------------------------------------------------
DATA_ID
  Segment part 13. TENTATIVE. Used definition from conf_loader
           ENTRY                   ADDRESS         REF BY
           =====                   =======         ======
           ?*?DATA_ID              
    -------------------------------------------------------------------------
INITTAB
  Segment part 14. TENTATIVE. Used definition from conf_loader
           ENTRY                   ADDRESS         REF BY
           =====                   =======         ======
           ?init?tab?DATA_I        
    -------------------------------------------------------------------------
DATA_C
  Relative segment, address: CODE_AREA 00017830 - 00017837 (0x8 bytes), align: 2
  Segment part 2.             Intra module refs:   Segment part 4

    *************************************************************************

  FILE NAME : C:\arm\BalletMini\Release_ELKA\Obj\url_utils.r79
  PROGRAM MODULE, NAME : url_utils

  SEGMENTS IN THE MODULE
  ======================
DATA_C
  Relative segment, address: CODE_AREA 00017838 - 0001784B (0x14 bytes), align: 2
  Segment part 2.             Intra module refs:   URL_reencode_escapes
    -------------------------------------------------------------------------
DATA_C
  Relative segment, address: CODE_AREA 0001784C - 00017C4B (0x400 bytes), align: 2
  Segment part 3.             Intra module refs:   Segment part 9
           ENTRY                   ADDRESS         REF BY
           =====                   =======         ======
           _sch_istable            0001784C 
           _sch_toupper            00017A4C 
    -------------------------------------------------------------------------
DATA_C
  Segment part 4. NOT NEEDED.
           ENTRY                   ADDRESS         REF BY
           =====                   =======         ======
           _sch_tolower            
    -------------------------------------------------------------------------
CODE
  Segment part 5. NOT NEEDED.
    -------------------------------------------------------------------------
CODE
  Relative segment, address: CODE_AREA 0000F71C - 0000F7DB (0xc0 bytes), align: 2
  Segment part 6.
           ENTRY                   ADDRESS         REF BY
           =====                   =======         ======
           URL_unescape            0000F71C        CreateInputUrl (mainmenu)
                                                   show_edit_bookmark_menu (mainmenu)
    -------------------------------------------------------------------------
CODE
  Segment part 7. NOT NEEDED.
    -------------------------------------------------------------------------
CODE
  Relative segment, address: CODE_AREA 0000F7DC - 0000F83B (0x60 bytes), align: 2
  Segment part 8.             Intra module refs:   URL_reencode_escapes
           ENTRY                   ADDRESS         REF BY
           =====                   =======         ======
           CharNeedsEscaping       0000F7DC 
    -------------------------------------------------------------------------
CODE
  Relative segment, address: CODE_AREA 0000F83C - 0000F83F (0x4 bytes), align: 2
  Segment part 9.             Intra module refs:   CharNeedsEscaping
                                                   URL_unescape
    -------------------------------------------------------------------------
CODE
  Segment part 10. NOT NEEDED.
    -------------------------------------------------------------------------
CODE
  Relative segment, address: CODE_AREA 0000F840 - 0000F91F (0xe0 bytes), align: 2
  Segment part 11.
           ENTRY                   ADDRESS         REF BY
           =====                   =======         ======
           URL_reencode_escapes    0000F840        bookmarks_menu_onkey (mainmenu)
                                                   edit_bookmark_onkey (mainmenu)
               stack 1 = 00000000 ( 00000010 )
    -------------------------------------------------------------------------
CSTACK
  Segment part 1. NOT NEEDED.

    *************************************************************************

  FILE NAME : C:\arm\BalletMini\Release_ELKA\Obj\urlstack.r79
  PROGRAM MODULE, NAME : urlstack

  SEGMENTS IN THE MODULE
  ======================
DATA_C
  Relative segment, address: CODE_AREA 00017C4C - 00017C63 (0x18 bytes), align: 2
  Segment part 2.             Intra module refs:   pagename
    -------------------------------------------------------------------------
DATA_C
  Relative segment, address: CODE_AREA 00017C64 - 00017C97 (0x34 bytes), align: 2
  Segment part 3.             Intra module refs:   PushPageToStack
    -------------------------------------------------------------------------
DATA_Z
  Relative segment, address: CODE_AREA 000182C4 - 000182CB (0x8 bytes), align: 2
  Segment part 4.             Intra module refs:   Segment part 39
                                                   Segment part 42
                                                   getCurrPageName
           ENTRY                   ADDRESS         REF BY
           =====                   =======         ======
           PageSTACK               000182C4 
    -------------------------------------------------------------------------
CODE
  Segment part 5. NOT NEEDED.
    -------------------------------------------------------------------------
CODE
  Relative segment, address: CODE_AREA 0000F920 - 0000F97B (0x5c bytes), align: 2
  Segment part 6.             Intra module refs:   ForwardPageFromStack
                                                   PopPageFromStack
                                                   PushPageToStack
                                                   getCurrPageName
                                                   killpage
           LOCAL                   ADDRESS         
           =====                   =======         
           pagename                0000F920 
               stack 1 = 00000000 ( 00000014 )
    -------------------------------------------------------------------------
CODE
  Segment part 7. NOT NEEDED.
    -------------------------------------------------------------------------
CODE
  Relative segment, address: CODE_AREA 0000F97C - 0000F98F (0x14 bytes), align: 2
  Segment part 8.
           ENTRY                   ADDRESS         REF BY
           =====                   =======         ======
           getCurrPageName         0000F97C        savepage_box_onkey (mainmenu)
               stack 1 = 00000000 ( 00000004 )
    -------------------------------------------------------------------------
CODE
  Segment part 9. NOT NEEDED.
    -------------------------------------------------------------------------
CODE
  Relative segment, address: CODE_AREA 0000F990 - 0000F9A7 (0x18 bytes), align: 2
  Segment part 10.
           ENTRY                   ADDRESS         REF BY
           =====                   =======         ======
           getPageParams           0000F990        maincsm_onmessage (main)
    -------------------------------------------------------------------------
CODE
  Segment part 11. NOT NEEDED.
    -------------------------------------------------------------------------
CODE
  Relative segment, address: CODE_AREA 0000F9A8 - 0000FA7B (0xd4 bytes), align: 2
  Segment part 12.
           ENTRY                   ADDRESS         REF BY
           =====                   =======         ======
           setUserList             0000F9A8        sel_menu_onkey (display_utils)
               stack 1 = 00000000 ( 00000018 )
    -------------------------------------------------------------------------
CODE
  Segment part 13. NOT NEEDED.
    -------------------------------------------------------------------------
CODE
  Relative segment, address: CODE_AREA 0000FA7C - 0000FB53 (0xd8 bytes), align: 2
  Segment part 14.
           ENTRY                   ADDRESS         REF BY
           =====                   =======         ======
           setUserText             0000FA7C        input_box_onkey (display_utils)
               stack 1 = 00000000 ( 00000018 )
    -------------------------------------------------------------------------
CODE
  Segment part 15. NOT NEEDED.
    -------------------------------------------------------------------------
CODE
  Relative segment, address: CODE_AREA 0000FB54 - 0000FB73 (0x20 bytes), align: 2
  Segment part 16.
           ENTRY                   ADDRESS         REF BY
           =====                   =======         ======
           setPageParams           0000FB54        method2 (main)
    -------------------------------------------------------------------------
CODE
  Segment part 17. NOT NEEDED.
    -------------------------------------------------------------------------
CODE
  Relative segment, address: CODE_AREA 0000FB74 - 0000FBCB (0x58 bytes), align: 2
  Segment part 18.
           ENTRY                   ADDRESS         REF BY
           =====                   =======         ======
           getUserTextByRefId      0000FB74        AddInputItem (additems)
    -------------------------------------------------------------------------
CODE
  Segment part 19. NOT NEEDED.
    -------------------------------------------------------------------------
CODE
  Relative segment, address: CODE_AREA 0000FBCC - 0000FC4F (0x84 bytes), align: 2
  Segment part 20.
           ENTRY                   ADDRESS         REF BY
           =====                   =======         ======
           getUserListByRefId      0000FBCC        AddDropDownList (additems)
               stack 1 = 00000000 ( 00000008 )
    -------------------------------------------------------------------------
CODE
  Segment part 21. NOT NEEDED.
    -------------------------------------------------------------------------
CODE
  Relative segment, address: CODE_AREA 0000FC50 - 0000FC57 (0x8 bytes), align: 2
  Segment part 22.
           ENTRY                   ADDRESS         REF BY
           =====                   =======         ======
           getViewLine             0000FC50        CreateViewGUI (main)
    -------------------------------------------------------------------------
CODE
  Segment part 23. NOT NEEDED.
    -------------------------------------------------------------------------
CODE
  Relative segment, address: CODE_AREA 0000FC58 - 0000FC5F (0x8 bytes), align: 2
  Segment part 24.
           ENTRY                   ADDRESS         REF BY
           =====                   =======         ======
           getPosCurRef            0000FC58        CreateViewGUI (main)
    -------------------------------------------------------------------------
CODE
  Segment part 25. NOT NEEDED.
    -------------------------------------------------------------------------
CODE
  Relative segment, address: CODE_AREA 0000FC60 - 0000FD1B (0xbc bytes), align: 2
  Segment part 26.            Intra module refs:   FreePageStack
                                                   PushPageToStack
           LOCAL                   ADDRESS         
           =====                   =======         
           killpage                0000FC60 
               stack 1 = 00000000 ( 0000001C )
    -------------------------------------------------------------------------
CODE
  Segment part 27. NOT NEEDED.
    -------------------------------------------------------------------------
CODE
  Relative segment, address: CODE_AREA 0000FD1C - 0000FE73 (0x158 bytes), align: 2
  Segment part 28.
           ENTRY                   ADDRESS         REF BY
           =====                   =======         ======
           PushPageToStack         0000FD1C        method1 (main)
               stack 1 = 00000000 ( 00000024 )
    -------------------------------------------------------------------------
CODE
  Segment part 29. NOT NEEDED.
    -------------------------------------------------------------------------
CODE
  Relative segment, address: CODE_AREA 0000FE74 - 0000FE8F (0x1c bytes), align: 2
  Segment part 30.
           ENTRY                   ADDRESS         REF BY
           =====                   =======         ======
           PopPageFromStack        0000FE74        maincsm_onmessage (main)
               stack 1 = 00000000 ( 00000004 )
    -------------------------------------------------------------------------
CODE
  Segment part 31. NOT NEEDED.
    -------------------------------------------------------------------------
CODE
  Relative segment, address: CODE_AREA 0000FE90 - 0000FEAB (0x1c bytes), align: 2
  Segment part 32.
           ENTRY                   ADDRESS         REF BY
           =====                   =======         ======
           CheckPageStackTop       0000FE90        method5 (main)
    -------------------------------------------------------------------------
CODE
  Segment part 33. NOT NEEDED.
    -------------------------------------------------------------------------
CODE
  Relative segment, address: CODE_AREA 0000FEAC - 0000FEEF (0x44 bytes), align: 2
  Segment part 34.
           ENTRY                   ADDRESS         REF BY
           =====                   =======         ======
           ForwardPageFromStack    0000FEAC        maincsm_onmessage (main)
               stack 1 = 00000000 ( 00000004 )
    -------------------------------------------------------------------------
CODE
  Segment part 35. NOT NEEDED.
    -------------------------------------------------------------------------
CODE
  Relative segment, address: CODE_AREA 0000FEF0 - 0000FF43 (0x54 bytes), align: 2
  Segment part 36.
           ENTRY                   ADDRESS         REF BY
           =====                   =======         ======
           FreePageStack           0000FEF0        KillAll (main)
               stack 1 = 00000000 ( 00000010 )
    -------------------------------------------------------------------------
CODE
  Segment part 37. NOT NEEDED.
    -------------------------------------------------------------------------
CODE
  Relative segment, address: CODE_AREA 0000FF44 - 0000FF63 (0x20 bytes), align: 2
  Segment part 38.
           ENTRY                   ADDRESS         REF BY
           =====                   =======         ======
           UpPageStack             0000FF44        StartGetFile (main)
    -------------------------------------------------------------------------
CODE
  Relative segment, address: CODE_AREA 0000FF64 - 0000FF67 (0x4 bytes), align: 2
  Segment part 39.            Intra module refs:   PopPageFromStack
                                                   UpPageStack
    -------------------------------------------------------------------------
CODE
  Segment part 40. NOT NEEDED.
    -------------------------------------------------------------------------
CODE
  Relative segment, address: CODE_AREA 0000FF68 - 0000FFA3 (0x3c bytes), align: 2
  Segment part 41.
           ENTRY                   ADDRESS         REF BY
           =====                   =======         ======
           InitUrlStack            0000FF68        maincsm_oncreate (main)
               stack 1 = 00000000 ( 0000000C )
    -------------------------------------------------------------------------
CODE
  Relative segment, address: CODE_AREA 0000FFA4 - 0000FFA7 (0x4 bytes), align: 2
  Segment part 42.            Intra module refs:   CheckPageStackTop
                                                   ForwardPageFromStack
                                                   FreePageStack
                                                   InitUrlStack
                                                   PushPageToStack
                                                   getPageParams
                                                   getUserListByRefId
                                                   getUserTextByRefId
                                                   killpage
                                                   pagename
                                                   setPageParams
                                                   setUserList
                                                   setUserText
    -------------------------------------------------------------------------
CODE
  Relative segment, address: CODE_AREA 0000FFA8 - 0000FFAB (0x4 bytes), align: 2
  Segment part 43.            Intra module refs:   ForwardPageFromStack
                                                   FreePageStack
                                                   InitUrlStack
                                                   PushPageToStack
                                                   UpPageStack
    -------------------------------------------------------------------------
CODE
  Segment part 44. NOT NEEDED.Intra module refs:   pagename
    -------------------------------------------------------------------------
CSTACK
  Segment part 1. NOT NEEDED.
    -------------------------------------------------------------------------
INITTAB
  Segment part 45. TENTATIVE. Used definition from display_utils
           ENTRY                   ADDRESS         REF BY
           =====                   =======         ======
           ?init?tab?DATA_Z        

    *************************************************************************

  FILE NAME : C:\arm\BalletMini\jpeglib\jpeglib.r79
  LIBRARY MODULE, NAME : jcomapi

  SEGMENTS IN THE MODULE
  ======================
CODE
  Segment part 2. NOT NEEDED.
    -------------------------------------------------------------------------
CODE
  Relative segment, address: CODE_AREA 0000FFAC - 0000FFE1 (0x36 bytes), align: 2
  Segment part 3.
           ENTRY                   ADDRESS         REF BY
           =====                   =======         ======
           jpeg_abort              0000FFAD        jpeg_finish_decompress (jdapimin)
                                                   jpeg_read_header (jdapimin)
               stack 1 = 00000000 ( 00000010 )
    -------------------------------------------------------------------------
CODE
  Segment part 4. NOT NEEDED.
    -------------------------------------------------------------------------
CODE
  Relative segment, address: CODE_AREA 0000FFE4 - 0000FFF9 (0x16 bytes), align: 2
  Segment part 5.
           ENTRY                   ADDRESS         REF BY
           =====                   =======         ======
           jpeg_destroy            0000FFE5        error_exit (jerror)
                                                   jpeg_destroy_decompress (jdapimin)
               stack 1 = 00000000 ( 00000008 )
    -------------------------------------------------------------------------
CODE
  Segment part 6. NOT NEEDED.
    -------------------------------------------------------------------------
CODE
  Relative segment, address: CODE_AREA 0000FFFC - 0001000F (0x14 bytes), align: 2
  Segment part 7.
           ENTRY                   ADDRESS         REF BY
           =====                   =======         ======
           jpeg_alloc_quant_table
                                   0000FFFD        get_dqt (jdmarker)
               stack 1 = 00000000 ( 00000004 )
    -------------------------------------------------------------------------
CODE
  Segment part 8. NOT NEEDED.
    -------------------------------------------------------------------------
CODE
  Relative segment, address: CODE_AREA 00010010 - 00010027 (0x18 bytes), align: 2
  Segment part 9.
           ENTRY                   ADDRESS         REF BY
           =====                   =======         ======
           jpeg_alloc_huff_table   00010011        get_dht (jdmarker)
               stack 1 = 00000000 ( 00000004 )
    -------------------------------------------------------------------------
CSTACK
  Segment part 1. NOT NEEDED.

    -------------------------------------------------------------------------
  LIBRARY MODULE, NAME : jdapimin

  SEGMENTS IN THE MODULE
  ======================
CODE
  Relative segment, address: CODE_AREA 00010028 - 0001002F (0x8 bytes), align: 2
  Segment part 2.
           ENTRY                   ADDRESS         REF BY
           =====                   =======         ======
           jpeg_CreateDecompress::??rA
                                   00010028 
    -------------------------------------------------------------------------
CODE
  Relative segment, address: CODE_AREA 00010030 - 000100CF (0xa0 bytes), align: 2
  Segment part 3.             Intra module refs:   jpeg_CreateDecompress::??rA
           ENTRY                   ADDRESS         REF BY
           =====                   =======         ======
           jpeg_CreateDecompress   00010031        read_jpgimg (readimg)
               stack 1 = 00000000 ( 00000018 )
    -------------------------------------------------------------------------
CODE
  Relative segment, address: CODE_AREA 000100D0 - 000100D7 (0x8 bytes), align: 2
  Segment part 4.
           ENTRY                   ADDRESS         REF BY
           =====                   =======         ======
           jpeg_destroy_decompress::??rA
                                   000100D0 
    -------------------------------------------------------------------------
CODE
  Relative segment, address: CODE_AREA 000100D8 - 000100DF (0x8 bytes), align: 2
  Segment part 5.             Intra module refs:   jpeg_destroy_decompress::??rA
           ENTRY                   ADDRESS         REF BY
           =====                   =======         ======
           jpeg_destroy_decompress
                                   000100D9        read_jpgimg (readimg)
               stack 1 = 00000000 ( 00000004 )
    -------------------------------------------------------------------------
CODE
  Segment part 6. NOT NEEDED.
    -------------------------------------------------------------------------
CODE
  Segment part 7. NOT NEEDED.
           ENTRY                   ADDRESS         REF BY
           =====                   =======         ======
           jpeg_abort_decompress   
               not allocated function
    -------------------------------------------------------------------------
CODE
  Segment part 8. NOT NEEDED.
    -------------------------------------------------------------------------
CODE
  Relative segment, address: CODE_AREA 000100E0 - 000101F3 (0x114 bytes), align: 2
  Segment part 9.             Intra module refs:   jpeg_consume_input
           LOCAL                   ADDRESS         
           =====                   =======         
           default_decompress_parms
                                   000100E1 
               stack 1 = 00000000 ( 00000014 )
    -------------------------------------------------------------------------
CODE
  Relative segment, address: CODE_AREA 000101F4 - 000101FB (0x8 bytes), align: 2
  Segment part 10.
           ENTRY                   ADDRESS         REF BY
           =====                   =======         ======
           jpeg_read_header::??rA
                                   000101F4 
    -------------------------------------------------------------------------
CODE
  Relative segment, address: CODE_AREA 000101FC - 0001024B (0x50 bytes), align: 2
  Segment part 11.            Intra module refs:   jpeg_read_header::??rA
           ENTRY                   ADDRESS         REF BY
           =====                   =======         ======
           jpeg_read_header        000101FD        read_jpgimg (readimg)
               stack 1 = 00000000 ( 0000000C )
    -------------------------------------------------------------------------
CODE
  Segment part 12. NOT NEEDED.
    -------------------------------------------------------------------------
CODE
  Relative segment, address: CODE_AREA 0001024C - 000102C5 (0x7a bytes), align: 2
  Segment part 13.            Intra module refs:   jpeg_read_header
           ENTRY                   ADDRESS         REF BY
           =====                   =======         ======
           jpeg_consume_input      0001024D 
               stack 1 = 00000000 ( 00000010 )
    -------------------------------------------------------------------------
CODE
  Segment part 14. NOT NEEDED.
    -------------------------------------------------------------------------
CODE
  Segment part 15. NOT NEEDED.
           ENTRY                   ADDRESS         REF BY
           =====                   =======         ======
           jpeg_input_complete     
               not allocated function
    -------------------------------------------------------------------------
CODE
  Segment part 16. NOT NEEDED.
    -------------------------------------------------------------------------
CODE
  Segment part 17. NOT NEEDED.
           ENTRY                   ADDRESS         REF BY
           =====                   =======         ======
           jpeg_has_multiple_scans
                                   
               not allocated function
    -------------------------------------------------------------------------
CODE
  Relative segment, address: CODE_AREA 000102C8 - 000102CF (0x8 bytes), align: 2
  Segment part 18.
           ENTRY                   ADDRESS         REF BY
           =====                   =======         ======
           jpeg_finish_decompress::??rA
                                   000102C8 
    -------------------------------------------------------------------------
CODE
  Relative segment, address: CODE_AREA 000102D0 - 00010351 (0x82 bytes), align: 2
  Segment part 19.            Intra module refs:   jpeg_finish_decompress::??rA
           ENTRY                   ADDRESS         REF BY
           =====                   =======         ======
           jpeg_finish_decompress
                                   000102D1        read_jpgimg (readimg)
               stack 1 = 00000000 ( 00000010 )
    -------------------------------------------------------------------------
CODE
  Segment part 20. NOT NEEDED.Intra module refs:   jpeg_CreateDecompress
    -------------------------------------------------------------------------
CODE
  Segment part 21. NOT NEEDED.Intra module refs:   jpeg_CreateDecompress
    -------------------------------------------------------------------------
CODE
  Segment part 22. NOT NEEDED.Intra module refs:   jpeg_CreateDecompress
    -------------------------------------------------------------------------
CODE
  Segment part 23. NOT NEEDED.Intra module refs:   jpeg_destroy_decompress
    -------------------------------------------------------------------------
CODE
  Segment part 24. NOT NEEDED.Intra module refs:   jpeg_finish_decompress
                                                   jpeg_read_header
    -------------------------------------------------------------------------
CSTACK
  Segment part 1. NOT NEEDED.

    -------------------------------------------------------------------------
  LIBRARY MODULE, NAME : jdapistd

  SEGMENTS IN THE MODULE
  ======================
CODE
  Relative segment, address: CODE_AREA 00010354 - 0001035B (0x8 bytes), align: 2
  Segment part 2.
           ENTRY                   ADDRESS         REF BY
           =====                   =======         ======
           jpeg_start_decompress::??rA
                                   00010354 
    -------------------------------------------------------------------------
CODE
  Relative segment, address: CODE_AREA 0001035C - 0001043B (0xe0 bytes), align: 2
  Segment part 3.             Intra module refs:   jpeg_start_decompress::??rA
           ENTRY                   ADDRESS         REF BY
           =====                   =======         ======
           jpeg_start_decompress   0001035D        read_jpgimg (readimg)
               stack 1 = 00000000 ( 00000010 )
    -------------------------------------------------------------------------
CODE
  Relative segment, address: CODE_AREA 0001043C - 00010443 (0x8 bytes), align: 2
  Segment part 4.
           ENTRY                   ADDRESS         REF BY
           =====                   =======         ======
           jpeg_read_scanlines::??rA
                                   0001043C 
    -------------------------------------------------------------------------
CODE
  Relative segment, address: CODE_AREA 00010444 - 000104C3 (0x80 bytes), align: 2
  Segment part 5.             Intra module refs:   jpeg_read_scanlines::??rA
           ENTRY                   ADDRESS         REF BY
           =====                   =======         ======
           jpeg_read_scanlines     00010445        read_jpgimg (readimg)
               stack 1 = 00000000 ( 00000018 )
    -------------------------------------------------------------------------
CODE
  Segment part 6. NOT NEEDED.
    -------------------------------------------------------------------------
CODE
  Segment part 7. NOT NEEDED.
           ENTRY                   ADDRESS         REF BY
           =====                   =======         ======
           jpeg_read_raw_data      
               not allocated function
    -------------------------------------------------------------------------
CODE
  Segment part 8. NOT NEEDED.
    -------------------------------------------------------------------------
CODE
  Segment part 9. NOT NEEDED.
           ENTRY                   ADDRESS         REF BY
           =====                   =======         ======
           jpeg_start_output       
               not allocated function
    -------------------------------------------------------------------------
CODE
  Segment part 10. NOT NEEDED.
    -------------------------------------------------------------------------
CODE
  Segment part 11. NOT NEEDED.
           ENTRY                   ADDRESS         REF BY
           =====                   =======         ======
           jpeg_finish_output      
               not allocated function
    -------------------------------------------------------------------------
CODE
  Segment part 12. NOT NEEDED.Intra module refs:   jpeg_start_decompress
    -------------------------------------------------------------------------
CSTACK
  Segment part 1. NOT NEEDED.

    -------------------------------------------------------------------------
  LIBRARY MODULE, NAME : jdatasrc

  SEGMENTS IN THE MODULE
  ======================
CODE
  Segment part 2. NOT NEEDED.
    -------------------------------------------------------------------------
CODE
  Relative segment, address: CODE_AREA 000104C4 - 000104D1 (0xe bytes), align: 2
  Segment part 3.             Intra module refs:   jpeg_stdio_src
           LOCAL                   ADDRESS         
           =====                   =======         
           init_source             000104C5 
    -------------------------------------------------------------------------
CODE
  Segment part 4. NOT NEEDED.
    -------------------------------------------------------------------------
CODE
  Relative segment, address: CODE_AREA 000104D4 - 000104EB (0x18 bytes), align: 2
  Segment part 5.             Intra module refs:   jpeg_stdio_src
           LOCAL                   ADDRESS         
           =====                   =======         
           fill_input_buffer       000104D5 
    -------------------------------------------------------------------------
CODE
  Segment part 6. NOT NEEDED.
    -------------------------------------------------------------------------
CODE
  Relative segment, address: CODE_AREA 000104EC - 000104FB (0x10 bytes), align: 2
  Segment part 7.             Intra module refs:   jpeg_stdio_src
           LOCAL                   ADDRESS         
           =====                   =======         
           skip_input_data         000104ED 
    -------------------------------------------------------------------------
CODE
  Segment part 8. NOT NEEDED.
    -------------------------------------------------------------------------
CODE
  Relative segment, address: CODE_AREA 000104FC - 000104FD (0x2 bytes), align: 2
  Segment part 9.             Intra module refs:   jpeg_stdio_src
           LOCAL                   ADDRESS         
           =====                   =======         
           term_source             000104FD 
    -------------------------------------------------------------------------
CODE
  Relative segment, address: CODE_AREA 00010500 - 00010507 (0x8 bytes), align: 2
  Segment part 10.
           ENTRY                   ADDRESS         REF BY
           =====                   =======         ======
           jpeg_stdio_src::??rA    00010500 
    -------------------------------------------------------------------------
CODE
  Relative segment, address: CODE_AREA 00010508 - 00010557 (0x50 bytes), align: 2
  Segment part 11.            Intra module refs:   jpeg_stdio_src::??rA
           ENTRY                   ADDRESS         REF BY
           =====                   =======         ======
           jpeg_stdio_src          00010509        read_jpgimg (readimg)
               stack 1 = 00000000 ( 0000000C )
    -------------------------------------------------------------------------
CSTACK
  Segment part 1. NOT NEEDED.

    -------------------------------------------------------------------------
  LIBRARY MODULE, NAME : jdcoefct

  SEGMENTS IN THE MODULE
  ======================
CODE
  Segment part 2. NOT NEEDED.
    -------------------------------------------------------------------------
CODE
  Relative segment, address: CODE_AREA 00010558 - 00010587 (0x30 bytes), align: 2
  Segment part 3.             Intra module refs:   consume_data
                                                   decompress_onepass
                                                   start_input_pass
           LOCAL                   ADDRESS         
           =====                   =======         
           start_iMCU_row          00010559 
               stack 1 = 00000000 ( 00000004 )
    -------------------------------------------------------------------------
CODE
  Segment part 4. NOT NEEDED.
    -------------------------------------------------------------------------
CODE
  Relative segment, address: CODE_AREA 00010588 - 0001058F (0x8 bytes), align: 2
  Segment part 5.             Intra module refs:   jinit_d_coef_controller
           LOCAL                   ADDRESS         
           =====                   =======         
           start_input_pass        00010589 
               stack 1 = 00000000 ( 00000004 )
    -------------------------------------------------------------------------
CODE
  Segment part 6. NOT NEEDED.
    -------------------------------------------------------------------------
CODE
  Relative segment, address: CODE_AREA 00010590 - 000105C3 (0x34 bytes), align: 2
  Segment part 7.             Intra module refs:   jinit_d_coef_controller
           LOCAL                   ADDRESS         
           =====                   =======         
           start_output_pass       00010591 
               stack 1 = 00000000 ( 0000000C )
    -------------------------------------------------------------------------
CODE
  Relative segment, address: CODE_AREA 000105C4 - 000105C7 (0x4 bytes), align: 2
  Segment part 8.             Intra module refs:   start_output_pass
    -------------------------------------------------------------------------
CODE
  Segment part 9. NOT NEEDED.
    -------------------------------------------------------------------------
CODE
  Relative segment, address: CODE_AREA 000105C8 - 00010777 (0x1b0 bytes), align: 2
  Segment part 10.            Intra module refs:   jinit_d_coef_controller
           LOCAL                   ADDRESS         
           =====                   =======         
           decompress_onepass      000105C9 
               stack 1 = 00000000 ( 00000064 )
    -------------------------------------------------------------------------
CODE
  Segment part 11. NOT NEEDED.
    -------------------------------------------------------------------------
CODE
  Relative segment, address: CODE_AREA 00010778 - 0001077B (0x4 bytes), align: 2
  Segment part 12.            Intra module refs:   jinit_d_coef_controller
           LOCAL                   ADDRESS         
           =====                   =======         
           dummy_consume_data      00010779 
    -------------------------------------------------------------------------
CODE
  Segment part 13. NOT NEEDED.
    -------------------------------------------------------------------------
CODE
  Relative segment, address: CODE_AREA 0001077C - 000108CB (0x150 bytes), align: 2
  Segment part 14.            Intra module refs:   jinit_d_coef_controller
           LOCAL                   ADDRESS         
           =====                   =======         
           consume_data            0001077D 
               stack 1 = 00000000 ( 00000054 )
    -------------------------------------------------------------------------
CODE
  Segment part 15. NOT NEEDED.
    -------------------------------------------------------------------------
CODE
  Relative segment, address: CODE_AREA 000108CC - 00010A17 (0x14c bytes), align: 2
  Segment part 16.            Intra module refs:   Segment part 23
                                                   Segment part 8
           LOCAL                   ADDRESS         
           =====                   =======         
           decompress_data         000108CD 
               stack 1 = 00000000 ( 0000004C )
    -------------------------------------------------------------------------
CODE
  Segment part 17. NOT NEEDED.
    -------------------------------------------------------------------------
CODE
  Relative segment, address: CODE_AREA 00010A18 - 00010ACB (0xb4 bytes), align: 2
  Segment part 18.            Intra module refs:   start_output_pass
           LOCAL                   ADDRESS         
           =====                   =======         
           smoothing_ok            00010A19 
               stack 1 = 00000000 ( 00000018 )
    -------------------------------------------------------------------------
CODE
  Segment part 19. NOT NEEDED.
    -------------------------------------------------------------------------
CODE
  Relative segment, address: CODE_AREA 00010ACC - 00010F2B (0x460 bytes), align: 2
  Segment part 20.            Intra module refs:   start_output_pass
           LOCAL                   ADDRESS         
           =====                   =======         
           decompress_smooth_data
                                   00010ACD 
               stack 1 = 00000000 ( 00000134 )
    -------------------------------------------------------------------------
CODE
  Segment part 21. NOT NEEDED.
    -------------------------------------------------------------------------
CODE
  Relative segment, address: CODE_AREA 00010F2C - 0001100F (0xe4 bytes), align: 2
  Segment part 22.
           ENTRY                   ADDRESS         REF BY
           =====                   =======         ======
           jinit_d_coef_controller
                                   00010F2D        master_selection (jdmaster)
               stack 1 = 00000000 ( 00000030 )
    -------------------------------------------------------------------------
CODE
  Relative segment, address: CODE_AREA 00011010 - 00011013 (0x4 bytes), align: 2
  Segment part 23.            Intra module refs:   jinit_d_coef_controller
    -------------------------------------------------------------------------
CODE
  Segment part 24. NOT NEEDED.Intra module refs:   decompress_onepass
    -------------------------------------------------------------------------
CODE
  Segment part 25. NOT NEEDED.Intra module refs:   decompress_data
                                                   decompress_smooth_data
    -------------------------------------------------------------------------
CODE
  Segment part 26. NOT NEEDED.Intra module refs:   decompress_smooth_data
    -------------------------------------------------------------------------
CODE
  Segment part 27. NOT NEEDED.Intra module refs:   decompress_smooth_data
    -------------------------------------------------------------------------
CODE
  Segment part 28. NOT NEEDED.Intra module refs:   jinit_d_coef_controller
    -------------------------------------------------------------------------
CSTACK
  Segment part 1. NOT NEEDED.

    -------------------------------------------------------------------------
  LIBRARY MODULE, NAME : jdcolor

  SEGMENTS IN THE MODULE
  ======================
CODE
  Segment part 2. NOT NEEDED.
    -------------------------------------------------------------------------
CODE
  Relative segment, address: CODE_AREA 00011014 - 000110C7 (0xb4 bytes), align: 2
  Segment part 3.             Intra module refs:   jinit_color_deconverter
           LOCAL                   ADDRESS         
           =====                   =======         
           build_ycc_rgb_table     00011015 
               stack 1 = 00000000 ( 00000018 )
    -------------------------------------------------------------------------
CODE
  Segment part 4. NOT NEEDED.
    -------------------------------------------------------------------------
CODE
  Relative segment, address: CODE_AREA 000110C8 - 0001117D (0xb6 bytes), align: 2
  Segment part 5.             Intra module refs:   jinit_color_deconverter
           LOCAL                   ADDRESS         
           =====                   =======         
           ycc_rgb_convert         000110C9 
               stack 1 = 00000000 ( 00000040 )
    -------------------------------------------------------------------------
CODE
  Segment part 6. NOT NEEDED.
    -------------------------------------------------------------------------
CODE
  Relative segment, address: CODE_AREA 00011180 - 000111D7 (0x58 bytes), align: 2
  Segment part 7.             Intra module refs:   jinit_color_deconverter
           LOCAL                   ADDRESS         
           =====                   =======         
           null_convert            00011181 
               stack 1 = 00000000 ( 00000028 )
    -------------------------------------------------------------------------
CODE
  Segment part 8. NOT NEEDED.
    -------------------------------------------------------------------------
CODE
  Relative segment, address: CODE_AREA 000111D8 - 000111F5 (0x1e bytes), align: 2
  Segment part 9.             Intra module refs:   jinit_color_deconverter
           LOCAL                   ADDRESS         
           =====                   =======         
           grayscale_convert       000111D9 
               stack 1 = 00000000 ( 00000014 )
    -------------------------------------------------------------------------
CODE
  Segment part 10. NOT NEEDED.
    -------------------------------------------------------------------------
CODE
  Relative segment, address: CODE_AREA 000111F8 - 0001122B (0x34 bytes), align: 2
  Segment part 11.            Intra module refs:   jinit_color_deconverter
           LOCAL                   ADDRESS         
           =====                   =======         
           gray_rgb_convert        000111F9 
               stack 1 = 00000000 ( 00000018 )
    -------------------------------------------------------------------------
CODE
  Segment part 12. NOT NEEDED.
    -------------------------------------------------------------------------
CODE
  Relative segment, address: CODE_AREA 0001122C - 000112F9 (0xce bytes), align: 2
  Segment part 13.            Intra module refs:   jinit_color_deconverter
           LOCAL                   ADDRESS         
           =====                   =======         
           ycck_cmyk_convert       0001122D 
               stack 1 = 00000000 ( 00000044 )
    -------------------------------------------------------------------------
CODE
  Segment part 14. NOT NEEDED.
    -------------------------------------------------------------------------
CODE
  Relative segment, address: CODE_AREA 000112FC - 000112FD (0x2 bytes), align: 2
  Segment part 15.            Intra module refs:   jinit_color_deconverter
           LOCAL                   ADDRESS         
           =====                   =======         
           start_pass_dcolor       000112FD 
    -------------------------------------------------------------------------
CODE
  Segment part 16. NOT NEEDED.
    -------------------------------------------------------------------------
CODE
  Relative segment, address: CODE_AREA 00011300 - 0001140F (0x110 bytes), align: 2
  Segment part 17.
           ENTRY                   ADDRESS         REF BY
           =====                   =======         ======
           jinit_color_deconverter
                                   00011301        master_selection (jdmaster)
               stack 1 = 00000000 ( 00000014 )
    -------------------------------------------------------------------------
CODE
  Segment part 18. NOT NEEDED.Intra module refs:   grayscale_convert
    -------------------------------------------------------------------------
CSTACK
  Segment part 1. NOT NEEDED.

    -------------------------------------------------------------------------
  LIBRARY MODULE, NAME : jddctmgr

  SEGMENTS IN THE MODULE
  ======================
DATA_C
  Relative segment, address: CODE_AREA 00017C98 - 00017D17 (0x80 bytes), align: 2
  Segment part 2.             Intra module refs:   start_pass
    -------------------------------------------------------------------------
CODE
  Segment part 3. NOT NEEDED.
    -------------------------------------------------------------------------
CODE
  Relative segment, address: CODE_AREA 00011410 - 00011537 (0x128 bytes), align: 2
  Segment part 4.             Intra module refs:   jinit_inverse_dct
           LOCAL                   ADDRESS         
           =====                   =======         
           start_pass              00011411 
               stack 1 = 00000000 ( 00000024 )
    -------------------------------------------------------------------------
CODE
  Segment part 5. NOT NEEDED.
    -------------------------------------------------------------------------
CODE
  Relative segment, address: CODE_AREA 00011538 - 0001159F (0x68 bytes), align: 2
  Segment part 6.
           ENTRY                   ADDRESS         REF BY
           =====                   =======         ======
           jinit_inverse_dct       00011539        master_selection (jdmaster)
               stack 1 = 00000000 ( 0000001C )
    -------------------------------------------------------------------------
CSTACK
  Segment part 1. NOT NEEDED.

    -------------------------------------------------------------------------
  LIBRARY MODULE, NAME : jdhuff

  SEGMENTS IN THE MODULE
  ======================
CODE
  Segment part 3. NOT NEEDED.
    -------------------------------------------------------------------------
CODE
  Relative segment, address: CODE_AREA 000115A0 - 000116A5 (0x106 bytes), align: 2
  Segment part 4.             Intra module refs:   jinit_huff_decoder
           LOCAL                   ADDRESS         
           =====                   =======         
           start_pass_huff_decoder
                                   000115A1 
               stack 1 = 00000000 ( 0000001C )
    -------------------------------------------------------------------------
CODE
  Segment part 5. NOT NEEDED.
    -------------------------------------------------------------------------
CODE
  Relative segment, address: CODE_AREA 000116A8 - 00011913 (0x26c bytes), align: 2
  Segment part 6.             Intra module refs:   start_pass_huff_decoder
           ENTRY                   ADDRESS         REF BY
           =====                   =======         ======
           jpeg_make_d_derived_tbl
                                   000116A9        start_pass_phuff_decoder (jdphuff)
               stack 1 = 00000000 ( 00000538 )
    -------------------------------------------------------------------------
CODE
  Segment part 7. NOT NEEDED.
    -------------------------------------------------------------------------
CODE
  Relative segment, address: CODE_AREA 00011914 - 000119DD (0xca bytes), align: 2
  Segment part 8.             Intra module refs:   decode_mcu
                                                   jpeg_huff_decode
           ENTRY                   ADDRESS         REF BY
           =====                   =======         ======
           jpeg_fill_bit_buffer    00011915        decode_mcu_AC_first (jdphuff)
                                                   decode_mcu_AC_refine (jdphuff)
                                                   decode_mcu_DC_first (jdphuff)
                                                   decode_mcu_DC_refine (jdphuff)
               stack 1 = 00000000 ( 00000024 )
    -------------------------------------------------------------------------
CODE
  Segment part 9. NOT NEEDED.
    -------------------------------------------------------------------------
CODE
  Relative segment, address: CODE_AREA 000119E0 - 00011A79 (0x9a bytes), align: 2
  Segment part 10.            Intra module refs:   decode_mcu
           ENTRY                   ADDRESS         REF BY
           =====                   =======         ======
           jpeg_huff_decode        000119E1        decode_mcu_AC_first (jdphuff)
                                                   decode_mcu_AC_refine (jdphuff)
                                                   decode_mcu_DC_first (jdphuff)
               stack 1 = 00000000 ( 00000018 )
    -------------------------------------------------------------------------
CODE
  Segment part 11. NOT NEEDED.
    -------------------------------------------------------------------------
DATA_C
  Relative segment, address: CODE_AREA 00017D18 - 00017D97 (0x80 bytes), align: 2
  Segment part 2.             Intra module refs:   decode_mcu
    -------------------------------------------------------------------------
CODE
  Relative segment, address: CODE_AREA 00011A7C - 00011DAB (0x330 bytes), align: 2
  Segment part 12.            Intra module refs:   jinit_huff_decoder
           LOCAL                   ADDRESS         
           =====                   =======         
           decode_mcu              00011A7D 
               stack 1 = 00000000 ( 00000058 )
    -------------------------------------------------------------------------
CODE
  Segment part 13. NOT NEEDED.
    -------------------------------------------------------------------------
CODE
  Relative segment, address: CODE_AREA 00011DAC - 00011DE3 (0x38 bytes), align: 2
  Segment part 14.
           ENTRY                   ADDRESS         REF BY
           =====                   =======         ======
           jinit_huff_decoder      00011DAD        master_selection (jdmaster)
               stack 1 = 00000000 ( 00000008 )
    -------------------------------------------------------------------------
CSTACK
  Segment part 1. NOT NEEDED.

    -------------------------------------------------------------------------
  LIBRARY MODULE, NAME : jdinput

  SEGMENTS IN THE MODULE
  ======================
CODE
  Segment part 2. NOT NEEDED.
    -------------------------------------------------------------------------
CODE
  Relative segment, address: CODE_AREA 00011DE4 - 00011F2F (0x14c bytes), align: 2
  Segment part 3.             Intra module refs:   consume_markers
           LOCAL                   ADDRESS         
           =====                   =======         
           initial_setup           00011DE5 
               stack 1 = 00000000 ( 00000014 )
    -------------------------------------------------------------------------
CODE
  Segment part 4. NOT NEEDED.
    -------------------------------------------------------------------------
CODE
  Relative segment, address: CODE_AREA 00011F30 - 00012033 (0x104 bytes), align: 2
  Segment part 5.             Intra module refs:   start_input_pass
           LOCAL                   ADDRESS         
           =====                   =======         
           per_scan_setup          00011F31 
               stack 1 = 00000000 ( 0000001C )
    -------------------------------------------------------------------------
CODE
  Segment part 6. NOT NEEDED.
    -------------------------------------------------------------------------
CODE
  Relative segment, address: CODE_AREA 00012034 - 000120BB (0x88 bytes), align: 2
  Segment part 7.             Intra module refs:   start_input_pass
           LOCAL                   ADDRESS         
           =====                   =======         
           latch_quant_tables      00012035 
               stack 1 = 00000000 ( 00000020 )
    -------------------------------------------------------------------------
CODE
  Segment part 8. NOT NEEDED.
    -------------------------------------------------------------------------
CODE
  Relative segment, address: CODE_AREA 000120BC - 000120E9 (0x2e bytes), align: 2
  Segment part 9.             Intra module refs:   consume_markers
                                                   jinit_input_controller
           LOCAL                   ADDRESS         
           =====                   =======         
           start_input_pass        000120BD 
               stack 1 = 00000000 ( 0000000C )
    -------------------------------------------------------------------------
CODE
  Segment part 10. NOT NEEDED.
    -------------------------------------------------------------------------
CODE
  Relative segment, address: CODE_AREA 000120EC - 000120F7 (0xc bytes), align: 2
  Segment part 11.            Intra module refs:   jinit_input_controller
           LOCAL                   ADDRESS         
           =====                   =======         
           finish_input_pass       000120ED 
    -------------------------------------------------------------------------
CODE
  Segment part 12. NOT NEEDED.
    -------------------------------------------------------------------------
CODE
  Relative segment, address: CODE_AREA 000120F8 - 00012181 (0x8a bytes), align: 2
  Segment part 13.            Intra module refs:   Segment part 18
           LOCAL                   ADDRESS         
           =====                   =======         
           consume_markers         000120F9 
               stack 1 = 00000000 ( 00000014 )
    -------------------------------------------------------------------------
CODE
  Segment part 14. NOT NEEDED.
    -------------------------------------------------------------------------
CODE
  Relative segment, address: CODE_AREA 00012184 - 000121B3 (0x30 bytes), align: 2
  Segment part 15.            Intra module refs:   jinit_input_controller
           LOCAL                   ADDRESS         
           =====                   =======         
           reset_input_controller
                                   00012185 
               stack 1 = 00000000 ( 00000010 )
    -------------------------------------------------------------------------
CODE
  Segment part 16. NOT NEEDED.
    -------------------------------------------------------------------------
CODE
  Relative segment, address: CODE_AREA 000121B4 - 000121EF (0x3c bytes), align: 2
  Segment part 17.
           ENTRY                   ADDRESS         REF BY
           =====                   =======         ======
           jinit_input_controller
                                   000121B5        jpeg_CreateDecompress (jdapimin)
               stack 1 = 00000000 ( 00000008 )
    -------------------------------------------------------------------------
CODE
  Relative segment, address: CODE_AREA 000121F0 - 000121F3 (0x4 bytes), align: 2
  Segment part 18.            Intra module refs:   finish_input_pass
                                                   jinit_input_controller
                                                   reset_input_controller
    -------------------------------------------------------------------------
CODE
  Segment part 19. NOT NEEDED.Intra module refs:   initial_setup
                                                   per_scan_setup
    -------------------------------------------------------------------------
CODE
  Segment part 20. NOT NEEDED.Intra module refs:   per_scan_setup
    -------------------------------------------------------------------------
CSTACK
  Segment part 1. NOT NEEDED.

    -------------------------------------------------------------------------
  LIBRARY MODULE, NAME : jdmainct

  SEGMENTS IN THE MODULE
  ======================
CODE
  Segment part 2. NOT NEEDED.
    -------------------------------------------------------------------------
CODE
  Relative segment, address: CODE_AREA 000121F4 - 00012285 (0x92 bytes), align: 2
  Segment part 3.             Intra module refs:   jinit_d_main_controller
           LOCAL                   ADDRESS         
           =====                   =======         
           alloc_funny_pointers    000121F5 
               stack 1 = 00000000 ( 00000028 )
    -------------------------------------------------------------------------
CODE
  Segment part 4. NOT NEEDED.
    -------------------------------------------------------------------------
CODE
  Relative segment, address: CODE_AREA 00012288 - 0001235F (0xd8 bytes), align: 2
  Segment part 5.             Intra module refs:   start_pass_main
           LOCAL                   ADDRESS         
           =====                   =======         
           make_funny_pointers     00012289 
               stack 1 = 00000000 ( 00000034 )
    -------------------------------------------------------------------------
CODE
  Segment part 6. NOT NEEDED.
    -------------------------------------------------------------------------
CODE
  Relative segment, address: CODE_AREA 00012360 - 0001241F (0xc0 bytes), align: 2
  Segment part 7.             Intra module refs:   process_data_context_main
           LOCAL                   ADDRESS         
           =====                   =======         
           set_wraparound_pointers
                                   00012361 
               stack 1 = 00000000 ( 00000038 )
    -------------------------------------------------------------------------
CODE
  Segment part 8. NOT NEEDED.
    -------------------------------------------------------------------------
CODE
  Relative segment, address: CODE_AREA 00012420 - 0001249B (0x7c bytes), align: 2
  Segment part 9.             Intra module refs:   process_data_context_main
           LOCAL                   ADDRESS         
           =====                   =======         
           set_bottom_pointers     00012421 
               stack 1 = 00000000 ( 0000001C )
    -------------------------------------------------------------------------
CODE
  Segment part 10. NOT NEEDED.
    -------------------------------------------------------------------------
CODE
  Relative segment, address: CODE_AREA 0001249C - 000124EB (0x50 bytes), align: 2
  Segment part 11.            Intra module refs:   jinit_d_main_controller
           LOCAL                   ADDRESS         
           =====                   =======         
           start_pass_main         0001249D 
               stack 1 = 00000000 ( 0000000C )
    -------------------------------------------------------------------------
CODE
  Segment part 12. NOT NEEDED.
    -------------------------------------------------------------------------
CODE
  Relative segment, address: CODE_AREA 000124EC - 0001253F (0x54 bytes), align: 2
  Segment part 13.            Intra module refs:   start_pass_main
           LOCAL                   ADDRESS         
           =====                   =======         
           process_data_simple_main
                                   000124ED 
               stack 1 = 00000000 ( 0000002C )
    -------------------------------------------------------------------------
CODE
  Segment part 14. NOT NEEDED.
    -------------------------------------------------------------------------
CODE
  Relative segment, address: CODE_AREA 00012540 - 00012623 (0xe4 bytes), align: 2
  Segment part 15.            Intra module refs:   start_pass_main
           LOCAL                   ADDRESS         
           =====                   =======         
           process_data_context_main
                                   00012541 
               stack 1 = 00000000 ( 0000002C )
    -------------------------------------------------------------------------
CODE
  Segment part 16. NOT NEEDED.
    -------------------------------------------------------------------------
CODE
  Relative segment, address: CODE_AREA 00012624 - 000126D3 (0xb0 bytes), align: 2
  Segment part 17.
           ENTRY                   ADDRESS         REF BY
           =====                   =======         ======
           jinit_d_main_controller
                                   00012625        master_selection (jdmaster)
               stack 1 = 00000000 ( 0000001C )
    -------------------------------------------------------------------------
CODE
  Segment part 18. NOT NEEDED.Intra module refs:   alloc_funny_pointers
                                                   jinit_d_main_controller
                                                   make_funny_pointers
                                                   set_bottom_pointers
                                                   set_wraparound_pointers
    -------------------------------------------------------------------------
CODE
  Segment part 19. NOT NEEDED.Intra module refs:   set_bottom_pointers
    -------------------------------------------------------------------------
CSTACK
  Segment part 1. NOT NEEDED.

    -------------------------------------------------------------------------
  LIBRARY MODULE, NAME : jdmarker

  SEGMENTS IN THE MODULE
  ======================
CODE
  Segment part 2. NOT NEEDED.
    -------------------------------------------------------------------------
CODE
  Relative segment, address: CODE_AREA 000126D4 - 00012743 (0x70 bytes), align: 2
  Segment part 3.             Intra module refs:   read_markers
           LOCAL                   ADDRESS         
           =====                   =======         
           get_soi                 000126D5 
               stack 1 = 00000000 ( 00000014 )
    -------------------------------------------------------------------------
CODE
  Segment part 4. NOT NEEDED.
    -------------------------------------------------------------------------
CODE
  Relative segment, address: CODE_AREA 00012744 - 000129AF (0x26c bytes), align: 2
  Segment part 5.             Intra module refs:   read_markers
           LOCAL                   ADDRESS         
           =====                   =======         
           get_sof                 00012745 
               stack 1 = 00000000 ( 0000001C )
    -------------------------------------------------------------------------
CODE
  Segment part 6. NOT NEEDED.
    -------------------------------------------------------------------------
CODE
  Relative segment, address: CODE_AREA 000129B0 - 00012C21 (0x272 bytes), align: 2
  Segment part 7.             Intra module refs:   read_markers
           LOCAL                   ADDRESS         
           =====                   =======         
           get_sos                 000129B1 
               stack 1 = 00000000 ( 0000002C )
    -------------------------------------------------------------------------
CODE
  Segment part 8. NOT NEEDED.
    -------------------------------------------------------------------------
CODE
  Relative segment, address: CODE_AREA 00012C24 - 00012E5F (0x23c bytes), align: 2
  Segment part 9.             Intra module refs:   read_markers
           LOCAL                   ADDRESS         
           =====                   =======         
           get_dht                 00012C25 
               stack 1 = 00000000 ( 0000013C )
    -------------------------------------------------------------------------
CODE
  Segment part 10. NOT NEEDED.
    -------------------------------------------------------------------------
CODE
  Relative segment, address: CODE_AREA 00012E60 - 00013053 (0x1f4 bytes), align: 2
  Segment part 11.            Intra module refs:   read_markers
           LOCAL                   ADDRESS         
           =====                   =======         
           get_dqt                 00012E61 
               stack 1 = 00000000 ( 00000034 )
    -------------------------------------------------------------------------
CODE
  Segment part 12. NOT NEEDED.
    -------------------------------------------------------------------------
CODE
  Relative segment, address: CODE_AREA 00013054 - 0001310F (0xbc bytes), align: 2
  Segment part 13.            Intra module refs:   read_markers
           LOCAL                   ADDRESS         
           =====                   =======         
           get_dri                 00013055 
               stack 1 = 00000000 ( 00000018 )
    -------------------------------------------------------------------------
CODE
  Segment part 14. NOT NEEDED.
    -------------------------------------------------------------------------
CODE
  Relative segment, address: CODE_AREA 00013110 - 0001325D (0x14e bytes), align: 2
  Segment part 15.            Intra module refs:   get_interesting_appn
           LOCAL                   ADDRESS         
           =====                   =======         
           examine_app0            00013111 
               stack 1 = 00000000 ( 00000014 )
    -------------------------------------------------------------------------
CODE
  Segment part 16. NOT NEEDED.
    -------------------------------------------------------------------------
CODE
  Relative segment, address: CODE_AREA 00013260 - 000132DF (0x80 bytes), align: 2
  Segment part 17.            Intra module refs:   get_interesting_appn
           LOCAL                   ADDRESS         
           =====                   =======         
           examine_app14           00013261 
               stack 1 = 00000000 ( 00000010 )
    -------------------------------------------------------------------------
CODE
  Segment part 18. NOT NEEDED.
    -------------------------------------------------------------------------
CODE
  Relative segment, address: CODE_AREA 000132E0 - 000133D7 (0xf8 bytes), align: 2
  Segment part 19.            Intra module refs:   Segment part 42
           LOCAL                   ADDRESS         
           =====                   =======         
           get_interesting_appn    000132E1 
               stack 1 = 00000000 ( 00000034 )
    -------------------------------------------------------------------------
CODE
  Segment part 20. NOT NEEDED.
    -------------------------------------------------------------------------
CODE
  Segment part 21. NOT NEEDED.
           LOCAL                   ADDRESS         
           =====                   =======         
           save_marker             
               not allocated function
    -------------------------------------------------------------------------
CODE
  Segment part 22. NOT NEEDED.
    -------------------------------------------------------------------------
CODE
  Segment part 23. NOT NEEDED.
    -------------------------------------------------------------------------
CODE
  Relative segment, address: CODE_AREA 000133D8 - 00013455 (0x7e bytes), align: 2
  Segment part 24.            Intra module refs:   Segment part 41
                                                   read_markers
           LOCAL                   ADDRESS         
           =====                   =======         
           skip_variable           000133D9 
               stack 1 = 00000000 ( 00000018 )
    -------------------------------------------------------------------------
CODE
  Segment part 25. NOT NEEDED.
    -------------------------------------------------------------------------
CODE
  Relative segment, address: CODE_AREA 00013458 - 00013517 (0xc0 bytes), align: 2
  Segment part 26.            Intra module refs:   jpeg_resync_to_restart
                                                   read_markers
                                                   read_restart_marker
           LOCAL                   ADDRESS         
           =====                   =======         
           next_marker             00013459 
               stack 1 = 00000000 ( 0000001C )
    -------------------------------------------------------------------------
CODE
  Segment part 27. NOT NEEDED.
    -------------------------------------------------------------------------
CODE
  Relative segment, address: CODE_AREA 00013518 - 00013591 (0x7a bytes), align: 2
  Segment part 28.            Intra module refs:   read_markers
           LOCAL                   ADDRESS         
           =====                   =======         
           first_marker            00013519 
               stack 1 = 00000000 ( 0000001C )
    -------------------------------------------------------------------------
CODE
  Segment part 29. NOT NEEDED.
    -------------------------------------------------------------------------
CODE
  Relative segment, address: CODE_AREA 00013594 - 000138A1 (0x30e bytes), align: 2
  Segment part 30.            Intra module refs:   jinit_marker_reader
           LOCAL                   ADDRESS         
           =====                   =======         
           read_markers            00013595 
               stack 1 = 00000000 ( 00000014 )
    -------------------------------------------------------------------------
CODE
  Segment part 31. NOT NEEDED.
    -------------------------------------------------------------------------
CODE
  Relative segment, address: CODE_AREA 000138A4 - 00013909 (0x66 bytes), align: 2
  Segment part 32.            Intra module refs:   jinit_marker_reader
           LOCAL                   ADDRESS         
           =====                   =======         
           read_restart_marker     000138A5 
               stack 1 = 00000000 ( 0000000C )
    -------------------------------------------------------------------------
CODE
  Segment part 33. NOT NEEDED.
    -------------------------------------------------------------------------
CODE
  Relative segment, address: CODE_AREA 0001390C - 000139BB (0xb0 bytes), align: 2
  Segment part 34.
           ENTRY                   ADDRESS         REF BY
           =====                   =======         ======
           jpeg_resync_to_restart
                                   0001390D        jpeg_stdio_src (jdatasrc)
               stack 1 = 00000000 ( 00000014 )
    -------------------------------------------------------------------------
CODE
  Segment part 35. NOT NEEDED.
    -------------------------------------------------------------------------
CODE
  Relative segment, address: CODE_AREA 000139BC - 000139DD (0x22 bytes), align: 2
  Segment part 36.            Intra module refs:   jinit_marker_reader
           LOCAL                   ADDRESS         
           =====                   =======         
           reset_marker_reader     000139BD 
    -------------------------------------------------------------------------
CODE
  Segment part 37. NOT NEEDED.
    -------------------------------------------------------------------------
CODE
  Relative segment, address: CODE_AREA 000139E0 - 00013A33 (0x54 bytes), align: 2
  Segment part 38.
           ENTRY                   ADDRESS         REF BY
           =====                   =======         ======
           jinit_marker_reader     000139E1        jpeg_CreateDecompress (jdapimin)
               stack 1 = 00000000 ( 0000000C )
    -------------------------------------------------------------------------
CODE
  Segment part 39. NOT NEEDED.
    -------------------------------------------------------------------------
CODE
  Segment part 40. NOT NEEDED.
           ENTRY                   ADDRESS         REF BY
           =====                   =======         ======
           jpeg_save_markers       
               not allocated function
    -------------------------------------------------------------------------
CODE
  Relative segment, address: CODE_AREA 00013A34 - 00013A37 (0x4 bytes), align: 2
  Segment part 41.            Intra module refs:   jinit_marker_reader
    -------------------------------------------------------------------------
CODE
  Relative segment, address: CODE_AREA 00013A38 - 00013A3B (0x4 bytes), align: 2
  Segment part 42.            Intra module refs:   jinit_marker_reader
    -------------------------------------------------------------------------
CODE
  Segment part 43. NOT NEEDED.
    -------------------------------------------------------------------------
CODE
  Segment part 44. NOT NEEDED.
    -------------------------------------------------------------------------
CODE
  Segment part 45. NOT NEEDED.
           ENTRY                   ADDRESS         REF BY
           =====                   =======         ======
           jpeg_set_marker_processor
                                   
               not allocated function
    -------------------------------------------------------------------------
CODE
  Segment part 46. NOT NEEDED.
    -------------------------------------------------------------------------
CODE
  Segment part 47. NOT NEEDED.Intra module refs:   get_dht
    -------------------------------------------------------------------------
CODE
  Segment part 48. NOT NEEDED.Intra module refs:   get_dqt
    -------------------------------------------------------------------------
CSTACK
  Segment part 1. NOT NEEDED.

    -------------------------------------------------------------------------
  LIBRARY MODULE, NAME : jdmaster

  SEGMENTS IN THE MODULE
  ======================
CODE
  Segment part 2. NOT NEEDED.
    -------------------------------------------------------------------------
CODE
  Relative segment, address: CODE_AREA 00013A3C - 00013AAD (0x72 bytes), align: 2
  Segment part 3.             Intra module refs:   jpeg_calc_output_dimensions
                                                   master_selection
           LOCAL                   ADDRESS         
           =====                   =======         
           use_merged_upsample     00013A3D 
               stack 1 = 00000000 ( 00000004 )
    -------------------------------------------------------------------------
CODE
  Segment part 4. NOT NEEDED.
    -------------------------------------------------------------------------
CODE
  Relative segment, address: CODE_AREA 00013AB0 - 00013C11 (0x162 bytes), align: 2
  Segment part 5.             Intra module refs:   master_selection
           ENTRY                   ADDRESS         REF BY
           =====                   =======         ======
           jpeg_calc_output_dimensions
                                   00013AB1 
               stack 1 = 00000000 ( 00000014 )
    -------------------------------------------------------------------------
CODE
  Segment part 6. NOT NEEDED.
    -------------------------------------------------------------------------
CODE
  Relative segment, address: CODE_AREA 00013C14 - 00013C79 (0x66 bytes), align: 2
  Segment part 7.             Intra module refs:   master_selection
           LOCAL                   ADDRESS         
           =====                   =======         
           prepare_range_limit_table
                                   00013C15 
               stack 1 = 00000000 ( 00000010 )
    -------------------------------------------------------------------------
CODE
  Segment part 8. NOT NEEDED.
    -------------------------------------------------------------------------
CODE
  Relative segment, address: CODE_AREA 00013C7C - 00013E1D (0x1a2 bytes), align: 2
  Segment part 9.             Intra module refs:   jinit_master_decompress
           LOCAL                   ADDRESS         
           =====                   =======         
           master_selection        00013C7D 
               stack 1 = 00000000 ( 00000014 )
    -------------------------------------------------------------------------
CODE
  Segment part 10. NOT NEEDED.
    -------------------------------------------------------------------------
CODE
  Relative segment, address: CODE_AREA 00013E20 - 00013F19 (0xfa bytes), align: 2
  Segment part 11.            Intra module refs:   jinit_master_decompress
           LOCAL                   ADDRESS         
           =====                   =======         
           prepare_for_output_pass
                                   00013E21 
               stack 1 = 00000000 ( 00000014 )
    -------------------------------------------------------------------------
CODE
  Segment part 12. NOT NEEDED.
    -------------------------------------------------------------------------
CODE
  Relative segment, address: CODE_AREA 00013F1C - 00013F39 (0x1e bytes), align: 2
  Segment part 13.            Intra module refs:   jinit_master_decompress
           LOCAL                   ADDRESS         
           =====                   =======         
           finish_output_pass      00013F1D 
               stack 1 = 00000000 ( 00000008 )
    -------------------------------------------------------------------------
CODE
  Segment part 14. NOT NEEDED.
    -------------------------------------------------------------------------
CODE
  Segment part 15. NOT NEEDED.
           ENTRY                   ADDRESS         REF BY
           =====                   =======         ======
           jpeg_new_colormap       
               not allocated function
    -------------------------------------------------------------------------
CODE
  Segment part 16. NOT NEEDED.
    -------------------------------------------------------------------------
CODE
  Relative segment, address: CODE_AREA 00013F3C - 00013F6B (0x30 bytes), align: 2
  Segment part 17.
           ENTRY                   ADDRESS         REF BY
           =====                   =======         ======
           jinit_master_decompress
                                   00013F3D        jpeg_start_decompress (jdapistd)
               stack 1 = 00000000 ( 00000008 )
    -------------------------------------------------------------------------
CODE
  Segment part 18. NOT NEEDED.Intra module refs:   jpeg_calc_output_dimensions
    -------------------------------------------------------------------------
CODE
  Segment part 19. NOT NEEDED.Intra module refs:   master_selection
    -------------------------------------------------------------------------
CODE
  Segment part 20. NOT NEEDED.Intra module refs:   master_selection
    -------------------------------------------------------------------------
CODE
  Segment part 21. NOT NEEDED.Intra module refs:   master_selection
    -------------------------------------------------------------------------
CODE
  Segment part 22. NOT NEEDED.Intra module refs:   master_selection
    -------------------------------------------------------------------------
CODE
  Segment part 23. NOT NEEDED.Intra module refs:   master_selection
    -------------------------------------------------------------------------
CODE
  Segment part 24. NOT NEEDED.Intra module refs:   master_selection
    -------------------------------------------------------------------------
CODE
  Segment part 25. NOT NEEDED.Intra module refs:   master_selection
    -------------------------------------------------------------------------
CODE
  Segment part 26. NOT NEEDED.Intra module refs:   master_selection
    -------------------------------------------------------------------------
CODE
  Segment part 27. NOT NEEDED.Intra module refs:   master_selection
    -------------------------------------------------------------------------
CSTACK
  Segment part 1. NOT NEEDED.

    -------------------------------------------------------------------------
  LIBRARY MODULE, NAME : jdmerge

  SEGMENTS IN THE MODULE
  ======================
CODE
  Segment part 2. NOT NEEDED.
    -------------------------------------------------------------------------
CODE
  Relative segment, address: CODE_AREA 00013F6C - 0001401F (0xb4 bytes), align: 2
  Segment part 3.             Intra module refs:   jinit_merged_upsampler
           LOCAL                   ADDRESS         
           =====                   =======         
           build_ycc_rgb_table     00013F6D 
               stack 1 = 00000000 ( 00000018 )
    -------------------------------------------------------------------------
CODE
  Segment part 4. NOT NEEDED.
    -------------------------------------------------------------------------
CODE
  Relative segment, address: CODE_AREA 00014020 - 0001402F (0x10 bytes), align: 2
  Segment part 5.             Intra module refs:   jinit_merged_upsampler
           LOCAL                   ADDRESS         
           =====                   =======         
           start_pass_merged_upsample
                                   00014021 
    -------------------------------------------------------------------------
CODE
  Segment part 6. NOT NEEDED.
    -------------------------------------------------------------------------
CODE
  Relative segment, address: CODE_AREA 00014030 - 000140C7 (0x98 bytes), align: 2
  Segment part 7.             Intra module refs:   jinit_merged_upsampler
           LOCAL                   ADDRESS         
           =====                   =======         
           merged_2v_upsample      00014031 
               stack 1 = 00000000 ( 00000030 )
    -------------------------------------------------------------------------
CODE
  Segment part 8. NOT NEEDED.
    -------------------------------------------------------------------------
CODE
  Relative segment, address: CODE_AREA 000140C8 - 000140F3 (0x2c bytes), align: 2
  Segment part 9.             Intra module refs:   jinit_merged_upsampler
           LOCAL                   ADDRESS         
           =====                   =======         
           merged_1v_upsample      000140C9 
               stack 1 = 00000000 ( 00000014 )
    -------------------------------------------------------------------------
CODE
  Segment part 10. NOT NEEDED.
    -------------------------------------------------------------------------
CODE
  Relative segment, address: CODE_AREA 000140F4 - 000141EB (0xf8 bytes), align: 2
  Segment part 11.            Intra module refs:   jinit_merged_upsampler
           LOCAL                   ADDRESS         
           =====                   =======         
           h2v1_merged_upsample    000140F5 
               stack 1 = 00000000 ( 0000003C )
    -------------------------------------------------------------------------
CODE
  Segment part 12. NOT NEEDED.
    -------------------------------------------------------------------------
CODE
  Relative segment, address: CODE_AREA 000141EC - 0001434F (0x164 bytes), align: 2
  Segment part 13.            Intra module refs:   jinit_merged_upsampler
           LOCAL                   ADDRESS         
           =====                   =======         
           h2v2_merged_upsample    000141ED 
               stack 1 = 00000000 ( 00000040 )
    -------------------------------------------------------------------------
CODE
  Segment part 14. NOT NEEDED.
    -------------------------------------------------------------------------
CODE
  Relative segment, address: CODE_AREA 00014350 - 000143BF (0x70 bytes), align: 2
  Segment part 15.
           ENTRY                   ADDRESS         REF BY
           =====                   =======         ======
           jinit_merged_upsampler
                                   00014351        master_selection (jdmaster)
               stack 1 = 00000000 ( 00000010 )
    -------------------------------------------------------------------------
CODE
  Segment part 16. NOT NEEDED.Intra module refs:   merged_2v_upsample
    -------------------------------------------------------------------------
CSTACK
  Segment part 1. NOT NEEDED.

    -------------------------------------------------------------------------
  LIBRARY MODULE, NAME : jdphuff

  SEGMENTS IN THE MODULE
  ======================
CODE
  Segment part 3. NOT NEEDED.
    -------------------------------------------------------------------------
CODE
  Relative segment, address: CODE_AREA 000143C0 - 00014593 (0x1d4 bytes), align: 2
  Segment part 4.             Intra module refs:   jinit_phuff_decoder
           LOCAL                   ADDRESS         
           =====                   =======         
           start_pass_phuff_decoder
                                   000143C1 
               stack 1 = 00000000 ( 0000002C )
    -------------------------------------------------------------------------
CODE
  Segment part 5. NOT NEEDED.
    -------------------------------------------------------------------------
DATA_C
  Relative segment, address: CODE_AREA 00017D98 - 00017E17 (0x80 bytes), align: 2
  Segment part 2.             Intra module refs:   Segment part 11
    -------------------------------------------------------------------------
CODE
  Relative segment, address: CODE_AREA 00014594 - 000145EF (0x5c bytes), align: 2
  Segment part 6.             Intra module refs:   decode_mcu_AC_first
                                                   decode_mcu_AC_refine
                                                   decode_mcu_DC_first
                                                   decode_mcu_DC_refine
           LOCAL                   ADDRESS         
           =====                   =======         
           process_restart         00014595 
               stack 1 = 00000000 ( 00000014 )
    -------------------------------------------------------------------------
CODE
  Segment part 7. NOT NEEDED.
    -------------------------------------------------------------------------
CODE
  Relative segment, address: CODE_AREA 000145F0 - 0001476D (0x17e bytes), align: 2
  Segment part 8.             Intra module refs:   start_pass_phuff_decoder
           LOCAL                   ADDRESS         
           =====                   =======         
           decode_mcu_DC_first     000145F1 
               stack 1 = 00000000 ( 00000058 )
    -------------------------------------------------------------------------
CODE
  Segment part 9. NOT NEEDED.
    -------------------------------------------------------------------------
CODE
  Relative segment, address: CODE_AREA 00014770 - 000148F9 (0x18a bytes), align: 2
  Segment part 10.            Intra module refs:   start_pass_phuff_decoder
           LOCAL                   ADDRESS         
           =====                   =======         
           decode_mcu_AC_first     00014771 
               stack 1 = 00000000 ( 00000044 )
    -------------------------------------------------------------------------
CODE
  Relative segment, address: CODE_AREA 000148FC - 000148FF (0x4 bytes), align: 2
  Segment part 11.            Intra module refs:   decode_mcu_AC_first
                                                   decode_mcu_DC_first
    -------------------------------------------------------------------------
CODE
  Relative segment, address: CODE_AREA 00014900 - 00014903 (0x4 bytes), align: 2
  Segment part 12.            Intra module refs:   decode_mcu_AC_first
    -------------------------------------------------------------------------
CODE
  Segment part 13. NOT NEEDED.
    -------------------------------------------------------------------------
CODE
  Relative segment, address: CODE_AREA 00014904 - 000149AF (0xac bytes), align: 2
  Segment part 14.            Intra module refs:   start_pass_phuff_decoder
           LOCAL                   ADDRESS         
           =====                   =======         
           decode_mcu_DC_refine    00014905 
               stack 1 = 00000000 ( 00000030 )
    -------------------------------------------------------------------------
CODE
  Segment part 15. NOT NEEDED.
    -------------------------------------------------------------------------
CODE
  Relative segment, address: CODE_AREA 000149B0 - 00014C67 (0x2b8 bytes), align: 2
  Segment part 16.            Intra module refs:   start_pass_phuff_decoder
           LOCAL                   ADDRESS         
           =====                   =======         
           decode_mcu_AC_refine    000149B1 
               stack 1 = 00000000 ( 00000158 )
    -------------------------------------------------------------------------
CODE
  Relative segment, address: CODE_AREA 00014C68 - 00014C6B (0x4 bytes), align: 2
  Segment part 17.            Intra module refs:   decode_mcu_AC_refine
    -------------------------------------------------------------------------
CODE
  Segment part 18. NOT NEEDED.
    -------------------------------------------------------------------------
CODE
  Relative segment, address: CODE_AREA 00014C6C - 00014CC7 (0x5c bytes), align: 2
  Segment part 19.
           ENTRY                   ADDRESS         REF BY
           =====                   =======         ======
           jinit_phuff_decoder     00014C6D        master_selection (jdmaster)
               stack 1 = 00000000 ( 00000014 )
    -------------------------------------------------------------------------
CODE
  Segment part 20. NOT NEEDED.Intra module refs:   start_pass_phuff_decoder
    -------------------------------------------------------------------------
CODE
  Segment part 21. NOT NEEDED.Intra module refs:   decode_mcu_AC_first
                                                   decode_mcu_AC_refine
                                                   decode_mcu_DC_first
                                                   decode_mcu_DC_refine
    -------------------------------------------------------------------------
CODE
  Segment part 22. NOT NEEDED.Intra module refs:   decode_mcu_AC_first
                                                   decode_mcu_AC_refine
                                                   decode_mcu_DC_first
    -------------------------------------------------------------------------
CSTACK
  Segment part 1. NOT NEEDED.

    -------------------------------------------------------------------------
  LIBRARY MODULE, NAME : jdpostct

  SEGMENTS IN THE MODULE
  ======================
CODE
  Segment part 2. NOT NEEDED.
    -------------------------------------------------------------------------
CODE
  Relative segment, address: CODE_AREA 00014CC8 - 00014D23 (0x5c bytes), align: 2
  Segment part 3.             Intra module refs:   jinit_d_post_controller
           LOCAL                   ADDRESS         
           =====                   =======         
           start_pass_dpost        00014CC9 
               stack 1 = 00000000 ( 00000010 )
    -------------------------------------------------------------------------
CODE
  Segment part 4. NOT NEEDED.
    -------------------------------------------------------------------------
CODE
  Relative segment, address: CODE_AREA 00014D24 - 00014D79 (0x56 bytes), align: 2
  Segment part 5.             Intra module refs:   start_pass_dpost
           LOCAL                   ADDRESS         
           =====                   =======         
           post_process_1pass      00014D25 
               stack 1 = 00000000 ( 0000002C )
    -------------------------------------------------------------------------
CODE
  Segment part 6. NOT NEEDED.
    -------------------------------------------------------------------------
CODE
  Relative segment, address: CODE_AREA 00014D7C - 00014DD7 (0x5c bytes), align: 2
  Segment part 7.
           ENTRY                   ADDRESS         REF BY
           =====                   =======         ======
           jinit_d_post_controller
                                   00014D7D        master_selection (jdmaster)
               stack 1 = 00000000 ( 00000010 )
    -------------------------------------------------------------------------
CSTACK
  Segment part 1. NOT NEEDED.

    -------------------------------------------------------------------------
  LIBRARY MODULE, NAME : jdsample

  SEGMENTS IN THE MODULE
  ======================
CODE
  Segment part 2. NOT NEEDED.
    -------------------------------------------------------------------------
CODE
  Relative segment, address: CODE_AREA 00014DD8 - 00014DEB (0x14 bytes), align: 2
  Segment part 3.             Intra module refs:   jinit_upsampler
           LOCAL                   ADDRESS         
           =====                   =======         
           start_pass_upsample     00014DD9 
    -------------------------------------------------------------------------
CODE
  Segment part 4. NOT NEEDED.
    -------------------------------------------------------------------------
CODE
  Relative segment, address: CODE_AREA 00014DEC - 00014EAF (0xc4 bytes), align: 2
  Segment part 5.             Intra module refs:   jinit_upsampler
           LOCAL                   ADDRESS         
           =====                   =======         
           sep_upsample            00014DED 
               stack 1 = 00000000 ( 00000030 )
    -------------------------------------------------------------------------
CODE
  Segment part 6. NOT NEEDED.
    -------------------------------------------------------------------------
CODE
  Relative segment, address: CODE_AREA 00014EB0 - 00014EB3 (0x4 bytes), align: 2
  Segment part 7.             Intra module refs:   jinit_upsampler
           LOCAL                   ADDRESS         
           =====                   =======         
           fullsize_upsample       00014EB1 
    -------------------------------------------------------------------------
CODE
  Segment part 8. NOT NEEDED.
    -------------------------------------------------------------------------
CODE
  Relative segment, address: CODE_AREA 00014EB4 - 00014EB9 (0x6 bytes), align: 2
  Segment part 9.             Intra module refs:   jinit_upsampler
           LOCAL                   ADDRESS         
           =====                   =======         
           noop_upsample           00014EB5 
    -------------------------------------------------------------------------
CODE
  Segment part 10. NOT NEEDED.
    -------------------------------------------------------------------------
CODE
  Relative segment, address: CODE_AREA 00014EBC - 00014F41 (0x86 bytes), align: 2
  Segment part 11.            Intra module refs:   jinit_upsampler
           LOCAL                   ADDRESS         
           =====                   =======         
           int_upsample            00014EBD 
               stack 1 = 00000000 ( 00000030 )
    -------------------------------------------------------------------------
CODE
  Segment part 12. NOT NEEDED.
    -------------------------------------------------------------------------
CODE
  Relative segment, address: CODE_AREA 00014F44 - 00014F85 (0x42 bytes), align: 2
  Segment part 13.            Intra module refs:   jinit_upsampler
           LOCAL                   ADDRESS         
           =====                   =======         
           h2v1_upsample           00014F45 
               stack 1 = 00000000 ( 0000001C )
    -------------------------------------------------------------------------
CODE
  Segment part 14. NOT NEEDED.
    -------------------------------------------------------------------------
CODE
  Relative segment, address: CODE_AREA 00014F88 - 00014FE3 (0x5c bytes), align: 2
  Segment part 15.            Intra module refs:   jinit_upsampler
           LOCAL                   ADDRESS         
           =====                   =======         
           h2v2_upsample           00014F89 
               stack 1 = 00000000 ( 00000028 )
    -------------------------------------------------------------------------
CODE
  Segment part 16. NOT NEEDED.
    -------------------------------------------------------------------------
CODE
  Relative segment, address: CODE_AREA 00014FE4 - 0001505F (0x7c bytes), align: 2
  Segment part 17.            Intra module refs:   jinit_upsampler
           LOCAL                   ADDRESS         
           =====                   =======         
           h2v1_fancy_upsample     00014FE5 
               stack 1 = 00000000 ( 0000001C )
    -------------------------------------------------------------------------
CODE
  Segment part 18. NOT NEEDED.
    -------------------------------------------------------------------------
CODE
  Relative segment, address: CODE_AREA 00015060 - 0001513F (0xe0 bytes), align: 2
  Segment part 19.            Intra module refs:   jinit_upsampler
           LOCAL                   ADDRESS         
           =====                   =======         
           h2v2_fancy_upsample     00015061 
               stack 1 = 00000000 ( 00000030 )
    -------------------------------------------------------------------------
CODE
  Segment part 20. NOT NEEDED.
    -------------------------------------------------------------------------
CODE
  Relative segment, address: CODE_AREA 00015140 - 000152E7 (0x1a8 bytes), align: 2
  Segment part 21.
           ENTRY                   ADDRESS         REF BY
           =====                   =======         ======
           jinit_upsampler         00015141        master_selection (jdmaster)
               stack 1 = 00000000 ( 0000002C )
    -------------------------------------------------------------------------
CODE
  Segment part 22. NOT NEEDED.Intra module refs:   h2v2_upsample
                                                   int_upsample
    -------------------------------------------------------------------------
CODE
  Segment part 23. NOT NEEDED.Intra module refs:   jinit_upsampler
    -------------------------------------------------------------------------
CODE
  Segment part 24. NOT NEEDED.Intra module refs:   jinit_upsampler
    -------------------------------------------------------------------------
CSTACK
  Segment part 1. NOT NEEDED.

    -------------------------------------------------------------------------
  LIBRARY MODULE, NAME : jerror

  SEGMENTS IN THE MODULE
  ======================
DATA_C
  Relative segment, address: CODE_AREA 00017E18 - 00017E1B (0x4 bytes), align: 2
  Segment part 2.             Intra module refs:   jpeg_std_error
           ENTRY                   ADDRESS         REF BY
           =====                   =======         ======
           jpeg_std_message_table
                                   00017E18 
    -------------------------------------------------------------------------
CODE
  Segment part 3. NOT NEEDED.
    -------------------------------------------------------------------------
CODE
  Relative segment, address: CODE_AREA 000152E8 - 000152F9 (0x12 bytes), align: 2
  Segment part 4.             Intra module refs:   jpeg_std_error
           LOCAL                   ADDRESS         
           =====                   =======         
           error_exit              000152E9 
               stack 1 = 00000000 ( 00000008 )
    -------------------------------------------------------------------------
CODE
  Segment part 5. NOT NEEDED.
    -------------------------------------------------------------------------
CODE
  Relative segment, address: CODE_AREA 000152FC - 000152FD (0x2 bytes), align: 2
  Segment part 6.             Intra module refs:   jpeg_std_error
           LOCAL                   ADDRESS         
           =====                   =======         
           output_message          000152FD 
    -------------------------------------------------------------------------
CODE
  Segment part 7. NOT NEEDED.
    -------------------------------------------------------------------------
CODE
  Relative segment, address: CODE_AREA 00015300 - 0001532B (0x2c bytes), align: 2
  Segment part 8.             Intra module refs:   jpeg_std_error
           LOCAL                   ADDRESS         
           =====                   =======         
           emit_message            00015301 
               stack 1 = 00000000 ( 00000008 )
    -------------------------------------------------------------------------
CODE
  Segment part 9. NOT NEEDED.
    -------------------------------------------------------------------------
CODE
  Relative segment, address: CODE_AREA 0001532C - 0001532D (0x2 bytes), align: 2
  Segment part 10.            Intra module refs:   jpeg_std_error
           LOCAL                   ADDRESS         
           =====                   =======         
           format_message          0001532D 
    -------------------------------------------------------------------------
CODE
  Segment part 11. NOT NEEDED.
    -------------------------------------------------------------------------
CODE
  Relative segment, address: CODE_AREA 00015330 - 00015339 (0xa bytes), align: 2
  Segment part 12.            Intra module refs:   jpeg_std_error
           LOCAL                   ADDRESS         
           =====                   =======         
           reset_error_mgr         00015331 
    -------------------------------------------------------------------------
CODE
  Relative segment, address: CODE_AREA 0001533C - 00015343 (0x8 bytes), align: 2
  Segment part 13.
           ENTRY                   ADDRESS         REF BY
           =====                   =======         ======
           jpeg_std_error::??rA    0001533C 
    -------------------------------------------------------------------------
CODE
  Relative segment, address: CODE_AREA 00015344 - 0001538B (0x48 bytes), align: 2
  Segment part 14.            Intra module refs:   jpeg_std_error::??rA
           ENTRY                   ADDRESS         REF BY
           =====                   =======         ======
           jpeg_std_error          00015345        read_jpgimg (readimg)
    -------------------------------------------------------------------------
CODE
  Segment part 15. NOT NEEDED.Intra module refs:   error_exit
    -------------------------------------------------------------------------
CSTACK
  Segment part 1. NOT NEEDED.

    -------------------------------------------------------------------------
  LIBRARY MODULE, NAME : jidctfst

  SEGMENTS IN THE MODULE
  ======================
CODE
  Segment part 2. NOT NEEDED.
    -------------------------------------------------------------------------
CODE
  Relative segment, address: CODE_AREA 0001538C - 0001568F (0x304 bytes), align: 2
  Segment part 3.
           ENTRY                   ADDRESS         REF BY
           =====                   =======         ======
           jpeg_idct_ifast         0001538D        start_pass (jddctmgr)
               stack 1 = 00000000 ( 00000140 )
    -------------------------------------------------------------------------
CSTACK
  Segment part 1. NOT NEEDED.

    -------------------------------------------------------------------------
  LIBRARY MODULE, NAME : jidctint

  SEGMENTS IN THE MODULE
  ======================
CODE
  Segment part 2. NOT NEEDED.
    -------------------------------------------------------------------------
CODE
  Relative segment, address: CODE_AREA 00015690 - 00015A33 (0x3a4 bytes), align: 2
  Segment part 3.
           ENTRY                   ADDRESS         REF BY
           =====                   =======         ======
           jpeg_idct_islow         00015691        start_pass (jddctmgr)
               stack 1 = 00000000 ( 00000154 )
    -------------------------------------------------------------------------
CSTACK
  Segment part 1. NOT NEEDED.

    -------------------------------------------------------------------------
  LIBRARY MODULE, NAME : jidctred

  SEGMENTS IN THE MODULE
  ======================
CODE
  Segment part 2. NOT NEEDED.
    -------------------------------------------------------------------------
CODE
  Relative segment, address: CODE_AREA 00015A34 - 00015CC7 (0x294 bytes), align: 2
  Segment part 3.
           ENTRY                   ADDRESS         REF BY
           =====                   =======         ======
           jpeg_idct_4x4           00015A35        start_pass (jddctmgr)
               stack 1 = 00000000 ( 000000BC )
    -------------------------------------------------------------------------
CODE
  Segment part 4. NOT NEEDED.
    -------------------------------------------------------------------------
CODE
  Relative segment, address: CODE_AREA 00015CC8 - 00015E47 (0x180 bytes), align: 2
  Segment part 5.
           ENTRY                   ADDRESS         REF BY
           =====                   =======         ======
           jpeg_idct_2x2           00015CC9        start_pass (jddctmgr)
               stack 1 = 00000000 ( 00000064 )
    -------------------------------------------------------------------------
CODE
  Segment part 6. NOT NEEDED.
    -------------------------------------------------------------------------
CODE
  Relative segment, address: CODE_AREA 00015E48 - 00015E71 (0x2a bytes), align: 2
  Segment part 7.
           ENTRY                   ADDRESS         REF BY
           =====                   =======         ======
           jpeg_idct_1x1           00015E49        start_pass (jddctmgr)
               stack 1 = 00000000 ( 00000008 )
    -------------------------------------------------------------------------
CSTACK
  Segment part 1. NOT NEEDED.

    -------------------------------------------------------------------------
  LIBRARY MODULE, NAME : jmemansi

  SEGMENTS IN THE MODULE
  ======================
CODE
  Segment part 3. NOT NEEDED.
    -------------------------------------------------------------------------
CODE
  Relative segment, address: CODE_AREA 00015E74 - 00015E7B (0x8 bytes), align: 2
  Segment part 4.
           ENTRY                   ADDRESS         REF BY
           =====                   =======         ======
           jpeg_get_small          00015E75        alloc_small (jmemmgr)
                                                   jinit_memory_mgr (jmemmgr)
               stack 1 = 00000000 ( 00000004 )
    -------------------------------------------------------------------------
CODE
  Segment part 5. NOT NEEDED.
    -------------------------------------------------------------------------
CODE
  Relative segment, address: CODE_AREA 00015E7C - 00015E83 (0x8 bytes), align: 2
  Segment part 6.
           ENTRY                   ADDRESS         REF BY
           =====                   =======         ======
           jpeg_free_small         00015E7D        free_pool (jmemmgr)
                                                   self_destruct (jmemmgr)
               stack 1 = 00000000 ( 00000004 )
    -------------------------------------------------------------------------
CODE
  Segment part 7. NOT NEEDED.
    -------------------------------------------------------------------------
CODE
  Relative segment, address: CODE_AREA 00015E84 - 00015E8B (0x8 bytes), align: 2
  Segment part 8.
           ENTRY                   ADDRESS         REF BY
           =====                   =======         ======
           jpeg_get_large          00015E85        alloc_large (jmemmgr)
               stack 1 = 00000000 ( 00000004 )
    -------------------------------------------------------------------------
CODE
  Segment part 9. NOT NEEDED.
    -------------------------------------------------------------------------
CODE
  Relative segment, address: CODE_AREA 00015E8C - 00015E93 (0x8 bytes), align: 2
  Segment part 10.
           ENTRY                   ADDRESS         REF BY
           =====                   =======         ======
           jpeg_free_large         00015E8D        free_pool (jmemmgr)
               stack 1 = 00000000 ( 00000004 )
    -------------------------------------------------------------------------
CODE
  Segment part 11. NOT NEEDED.
    -------------------------------------------------------------------------
CODE
  Relative segment, address: CODE_AREA 00015E94 - 00015E9B (0x8 bytes), align: 2
  Segment part 12.
           ENTRY                   ADDRESS         REF BY
           =====                   =======         ======
           jpeg_mem_available      00015E95        realize_virt_arrays (jmemmgr)
    -------------------------------------------------------------------------
CODE
  Segment part 13. NOT NEEDED.
    -------------------------------------------------------------------------
CODE
  Relative segment, address: CODE_AREA 00015E9C - 00015EE5 (0x4a bytes), align: 2
  Segment part 14.            Intra module refs:   jpeg_open_backing_store
           LOCAL                   ADDRESS         
           =====                   =======         
           read_backing_store      00015E9D 
               stack 1 = 00000000 ( 0000001C )
    -------------------------------------------------------------------------
CODE
  Segment part 15. NOT NEEDED.
    -------------------------------------------------------------------------
CODE
  Relative segment, address: CODE_AREA 00015EE8 - 00015F31 (0x4a bytes), align: 2
  Segment part 16.            Intra module refs:   jpeg_open_backing_store
           LOCAL                   ADDRESS         
           =====                   =======         
           write_backing_store     00015EE9 
               stack 1 = 00000000 ( 0000001C )
    -------------------------------------------------------------------------
CODE
  Segment part 17. NOT NEEDED.
    -------------------------------------------------------------------------
CODE
  Relative segment, address: CODE_AREA 00015F34 - 00015F43 (0x10 bytes), align: 2
  Segment part 18.            Intra module refs:   jpeg_open_backing_store
           LOCAL                   ADDRESS         
           =====                   =======         
           close_backing_store     00015F35 
               stack 1 = 00000000 ( 00000008 )
    -------------------------------------------------------------------------
CODE
  Segment part 19. NOT NEEDED.
    -------------------------------------------------------------------------
CODE
  Relative segment, address: CODE_AREA 00015F44 - 00015F87 (0x44 bytes), align: 2
  Segment part 20.
           ENTRY                   ADDRESS         REF BY
           =====                   =======         ======
           jpeg_open_backing_store
                                   00015F45        realize_virt_arrays (jmemmgr)
               stack 1 = 00000000 ( 0000000C )
    -------------------------------------------------------------------------
CODE
  Segment part 21. NOT NEEDED.
    -------------------------------------------------------------------------
CODE
  Relative segment, address: CODE_AREA 00015F88 - 00015F8F (0x8 bytes), align: 2
  Segment part 22.
           ENTRY                   ADDRESS         REF BY
           =====                   =======         ======
           jpeg_mem_init           00015F89        jinit_memory_mgr (jmemmgr)
    -------------------------------------------------------------------------
CODE
  Segment part 23. NOT NEEDED.
    -------------------------------------------------------------------------
CODE
  Relative segment, address: CODE_AREA 00015F90 - 00015F91 (0x2 bytes), align: 2
  Segment part 24.
           ENTRY                   ADDRESS         REF BY
           =====                   =======         ======
           jpeg_mem_term           00015F91        jinit_memory_mgr (jmemmgr)
                                                   self_destruct (jmemmgr)
    -------------------------------------------------------------------------
CSTACK
  Segment part 1. NOT NEEDED.
    -------------------------------------------------------------------------
DATA_C
  Segment part 2. NOT NEEDED.

    -------------------------------------------------------------------------
  LIBRARY MODULE, NAME : jmemmgr

  SEGMENTS IN THE MODULE
  ======================
DATA_C
  Relative segment, address: CODE_AREA 00017E1C - 00017E2B (0x10 bytes), align: 2
  Segment part 2.             Intra module refs:   alloc_small
    -------------------------------------------------------------------------
CODE
  Segment part 3. NOT NEEDED.
    -------------------------------------------------------------------------
CODE
  Relative segment, address: CODE_AREA 00015F94 - 00016083 (0xf0 bytes), align: 2
  Segment part 4.             Intra module refs:   alloc_barray
                                                   alloc_sarray
                                                   jinit_memory_mgr
                                                   request_virt_barray
                                                   request_virt_sarray
           LOCAL                   ADDRESS         
           =====                   =======         
           alloc_small             00015F95 
               stack 1 = 00000000 ( 00000020 )
    -------------------------------------------------------------------------
CODE
  Relative segment, address: CODE_AREA 00016084 - 00016087 (0x4 bytes), align: 2
  Segment part 5.             Intra module refs:   alloc_small
    -------------------------------------------------------------------------
CODE
  Segment part 6. NOT NEEDED.
    -------------------------------------------------------------------------
CODE
  Relative segment, address: CODE_AREA 00016088 - 00016119 (0x92 bytes), align: 2
  Segment part 7.             Intra module refs:   alloc_barray
                                                   alloc_sarray
                                                   jinit_memory_mgr
           LOCAL                   ADDRESS         
           =====                   =======         
           alloc_large             00016089 
               stack 1 = 00000000 ( 00000018 )
    -------------------------------------------------------------------------
CODE
  Relative segment, address: CODE_AREA 0001611C - 0001611F (0x4 bytes), align: 2
  Segment part 8.             Intra module refs:   alloc_large
                                                   alloc_small
    -------------------------------------------------------------------------
CODE
  Segment part 9. NOT NEEDED.
    -------------------------------------------------------------------------
CODE
  Relative segment, address: CODE_AREA 00016120 - 0001618F (0x70 bytes), align: 2
  Segment part 10.            Intra module refs:   jinit_memory_mgr
                                                   realize_virt_arrays
           LOCAL                   ADDRESS         
           =====                   =======         
           alloc_sarray            00016121 
               stack 1 = 00000000 ( 00000020 )
    -------------------------------------------------------------------------
CODE
  Segment part 11. NOT NEEDED.
    -------------------------------------------------------------------------
CODE
  Relative segment, address: CODE_AREA 00016190 - 00016203 (0x74 bytes), align: 2
  Segment part 12.            Intra module refs:   jinit_memory_mgr
                                                   realize_virt_arrays
           LOCAL                   ADDRESS         
           =====                   =======         
           alloc_barray            00016191 
               stack 1 = 00000000 ( 00000020 )
    -------------------------------------------------------------------------
CODE
  Relative segment, address: CODE_AREA 00016204 - 00016207 (0x4 bytes), align: 2
  Segment part 13.            Intra module refs:   alloc_barray
                                                   alloc_sarray
    -------------------------------------------------------------------------
CODE
  Segment part 14. NOT NEEDED.
    -------------------------------------------------------------------------
CODE
  Relative segment, address: CODE_AREA 00016208 - 0001624F (0x48 bytes), align: 2
  Segment part 15.            Intra module refs:   jinit_memory_mgr
           LOCAL                   ADDRESS         
           =====                   =======         
           request_virt_sarray     00016209 
               stack 1 = 00000000 ( 0000001C )
    -------------------------------------------------------------------------
CODE
  Segment part 16. NOT NEEDED.
    -------------------------------------------------------------------------
CODE
  Relative segment, address: CODE_AREA 00016250 - 00016297 (0x48 bytes), align: 2
  Segment part 17.            Intra module refs:   jinit_memory_mgr
           LOCAL                   ADDRESS         
           =====                   =======         
           request_virt_barray     00016251 
               stack 1 = 00000000 ( 0000001C )
    -------------------------------------------------------------------------
CODE
  Segment part 18. NOT NEEDED.
    -------------------------------------------------------------------------
CODE
  Relative segment, address: CODE_AREA 00016298 - 000163D3 (0x13c bytes), align: 2
  Segment part 19.            Intra module refs:   jinit_memory_mgr
           LOCAL                   ADDRESS         
           =====                   =======         
           realize_virt_arrays     00016299 
               stack 1 = 00000000 ( 0000001C )
    -------------------------------------------------------------------------
CODE
  Segment part 20. NOT NEEDED.
    -------------------------------------------------------------------------
CODE
  Relative segment, address: CODE_AREA 000163D4 - 0001645F (0x8c bytes), align: 2
  Segment part 21.            Intra module refs:   access_virt_sarray
           LOCAL                   ADDRESS         
           =====                   =======         
           do_sarray_io            000163D5 
               stack 1 = 00000000 ( 00000028 )
    -------------------------------------------------------------------------
CODE
  Segment part 22. NOT NEEDED.
    -------------------------------------------------------------------------
CODE
  Relative segment, address: CODE_AREA 00016460 - 000164ED (0x8e bytes), align: 2
  Segment part 23.            Intra module refs:   access_virt_barray
           LOCAL                   ADDRESS         
           =====                   =======         
           do_barray_io            00016461 
               stack 1 = 00000000 ( 00000028 )
    -------------------------------------------------------------------------
CODE
  Segment part 24. NOT NEEDED.
    -------------------------------------------------------------------------
CODE
  Relative segment, address: CODE_AREA 000164F0 - 000165E9 (0xfa bytes), align: 2
  Segment part 25.            Intra module refs:   jinit_memory_mgr
           LOCAL                   ADDRESS         
           =====                   =======         
           access_virt_sarray      000164F1 
               stack 1 = 00000000 ( 00000020 )
    -------------------------------------------------------------------------
CODE
  Segment part 26. NOT NEEDED.
    -------------------------------------------------------------------------
CODE
  Relative segment, address: CODE_AREA 000165EC - 000166E7 (0xfc bytes), align: 2
  Segment part 27.            Intra module refs:   jinit_memory_mgr
           LOCAL                   ADDRESS         
           =====                   =======         
           access_virt_barray      000165ED 
               stack 1 = 00000000 ( 00000020 )
    -------------------------------------------------------------------------
CODE
  Segment part 28. NOT NEEDED.
    -------------------------------------------------------------------------
CODE
  Relative segment, address: CODE_AREA 000166E8 - 000167AD (0xc6 bytes), align: 2
  Segment part 29.            Intra module refs:   jinit_memory_mgr
                                                   self_destruct
           LOCAL                   ADDRESS         
           =====                   =======         
           free_pool               000166E9 
               stack 1 = 00000000 ( 00000018 )
    -------------------------------------------------------------------------
CODE
  Segment part 30. NOT NEEDED.
    -------------------------------------------------------------------------
CODE
  Relative segment, address: CODE_AREA 000167B0 - 000167D7 (0x28 bytes), align: 2
  Segment part 31.            Intra module refs:   jinit_memory_mgr
           LOCAL                   ADDRESS         
           =====                   =======         
           self_destruct           000167B1 
               stack 1 = 00000000 ( 0000000C )
    -------------------------------------------------------------------------
CODE
  Segment part 32. NOT NEEDED.
    -------------------------------------------------------------------------
CODE
  Relative segment, address: CODE_AREA 000167D8 - 0001687F (0xa8 bytes), align: 2
  Segment part 33.
           ENTRY                   ADDRESS         REF BY
           =====                   =======         ======
           jinit_memory_mgr        000167D9        jpeg_CreateDecompress (jdapimin)
               stack 1 = 00000000 ( 00000014 )
    -------------------------------------------------------------------------
CODE
  Relative segment, address: CODE_AREA 00016880 - 00016883 (0x4 bytes), align: 2
  Segment part 34.            Intra module refs:   jinit_memory_mgr
    -------------------------------------------------------------------------
CODE
  Segment part 35. NOT NEEDED.Intra module refs:   alloc_small
                                                   jinit_memory_mgr
    -------------------------------------------------------------------------
CODE
  Segment part 36. NOT NEEDED.Intra module refs:   alloc_large
    -------------------------------------------------------------------------
CODE
  Segment part 37. NOT NEEDED.Intra module refs:   alloc_barray
                                                   alloc_sarray
                                                   realize_virt_arrays
    -------------------------------------------------------------------------
CODE
  Segment part 38. NOT NEEDED.Intra module refs:   realize_virt_arrays
    -------------------------------------------------------------------------
CODE
  Segment part 39. NOT NEEDED.Intra module refs:   realize_virt_arrays
    -------------------------------------------------------------------------
CODE
  Segment part 40. NOT NEEDED.Intra module refs:   realize_virt_arrays
    -------------------------------------------------------------------------
CODE
  Segment part 41. NOT NEEDED.Intra module refs:   access_virt_barray
                                                   access_virt_sarray
    -------------------------------------------------------------------------
CODE
  Segment part 42. NOT NEEDED.Intra module refs:   free_pool
    -------------------------------------------------------------------------
CODE
  Segment part 43. NOT NEEDED.Intra module refs:   free_pool
                                                   self_destruct
    -------------------------------------------------------------------------
CODE
  Segment part 44. NOT NEEDED.Intra module refs:   jinit_memory_mgr
                                                   self_destruct
    -------------------------------------------------------------------------
CODE
  Segment part 45. NOT NEEDED.Intra module refs:   jinit_memory_mgr
    -------------------------------------------------------------------------
CSTACK
  Segment part 1. NOT NEEDED.

    -------------------------------------------------------------------------
  LIBRARY MODULE, NAME : jutils

  SEGMENTS IN THE MODULE
  ======================
DATA_C
  Relative segment, address: CODE_AREA 00017E2C - 00017F6B (0x140 bytes), align: 2
  Segment part 2.
           ENTRY                   ADDRESS         REF BY
           =====                   =======         ======
           jpeg_natural_order      00017E2C        Segment part 12 (jdphuff)
                                                   Segment part 17 (jdphuff)
                                                   decode_mcu (jdhuff)
                                                   get_dqt (jdmarker)
    -------------------------------------------------------------------------
CODE
  Segment part 3. NOT NEEDED.
    -------------------------------------------------------------------------
CODE
  Relative segment, address: CODE_AREA 00016884 - 00016891 (0xe bytes), align: 2
  Segment part 4.
           ENTRY                   ADDRESS         REF BY
           =====                   =======         ======
           jdiv_round_up           00016885        initial_setup (jdinput)
                                                   jpeg_calc_output_dimensions (jdmaster)
                                                   per_scan_setup (jdinput)
               stack 1 = 00000000 ( 00000004 )
    -------------------------------------------------------------------------
CODE
  Segment part 5. NOT NEEDED.
    -------------------------------------------------------------------------
CODE
  Relative segment, address: CODE_AREA 00016894 - 000168A3 (0x10 bytes), align: 2
  Segment part 6.
           ENTRY                   ADDRESS         REF BY
           =====                   =======         ======
           jround_up               00016895        jinit_d_coef_controller (jdcoefct)
                                                   jinit_upsampler (jdsample)
               stack 1 = 00000000 ( 00000004 )
    -------------------------------------------------------------------------
CODE
  Segment part 7. NOT NEEDED.
    -------------------------------------------------------------------------
CODE
  Relative segment, address: CODE_AREA 000168A4 - 000168CB (0x28 bytes), align: 2
  Segment part 8.
           ENTRY                   ADDRESS         REF BY
           =====                   =======         ======
           jcopy_sample_rows       000168A5        grayscale_convert (jdcolor)
                                                   h2v2_upsample (jdsample)
                                                   int_upsample (jdsample)
                                                   merged_2v_upsample (jdmerge)
               stack 1 = 00000000 ( 00000014 )
    -------------------------------------------------------------------------
CODE
  Segment part 9. NOT NEEDED.
    -------------------------------------------------------------------------
CODE
  Relative segment, address: CODE_AREA 000168CC - 000168DB (0x10 bytes), align: 2
  Segment part 10.
           ENTRY                   ADDRESS         REF BY
           =====                   =======         ======
           jcopy_block_row         000168CD        decompress_smooth_data (jdcoefct)
               stack 1 = 00000000 ( 00000004 )
    -------------------------------------------------------------------------
CODE
  Segment part 11. NOT NEEDED.
    -------------------------------------------------------------------------
CODE
  Relative segment, address: CODE_AREA 000168DC - 000168E3 (0x8 bytes), align: 2
  Segment part 12.
           ENTRY                   ADDRESS         REF BY
           =====                   =======         ======
           jzero_far               000168DD        access_virt_barray (jmemmgr)
                                                   access_virt_sarray (jmemmgr)
                                                   decompress_onepass (jdcoefct)
               stack 1 = 00000000 ( 00000004 )
    -------------------------------------------------------------------------
CODE
  Segment part 13. NOT NEEDED.Intra module refs:   jdiv_round_up
                                                   jround_up
    -------------------------------------------------------------------------
CSTACK
  Segment part 1. NOT NEEDED.

    *************************************************************************

  FILE NAME : C:\arm2\Embedded Workbench 4.0 Evaluation\ARM\LIB\dl5tpainl8n.r79
  LIBRARY MODULE, NAME : ?div_module

  SEGMENTS IN THE MODULE
  ======================
CODE
  Segment part 0. NOT NEEDED.
           ENTRY                   ADDRESS         REF BY
           =====                   =======         ======
           ??divu8_t               
    -------------------------------------------------------------------------
CODE
  Segment part 1. NOT NEEDED.
           ENTRY                   ADDRESS         REF BY
           =====                   =======         ======
           ??divu8_a               
    -------------------------------------------------------------------------
CODE
  Segment part 2. NOT NEEDED.
           ENTRY                   ADDRESS         REF BY
           =====                   =======         ======
           ??divu16_t              
    -------------------------------------------------------------------------
CODE
  Segment part 3. NOT NEEDED.
           ENTRY                   ADDRESS         REF BY
           =====                   =======         ======
           ??divu16_a              
    -------------------------------------------------------------------------
CODE
  Relative segment, address: CODE_AREA 000168E4 - 000168E7 (0x4 bytes), align: 2
  Segment part 4.
           ENTRY                   ADDRESS         REF BY
           =====                   =======         ======
           ??divu32_t              000168E5        alloc_barray (jmemmgr)
                                                   alloc_sarray (jmemmgr)
                                                   decompress_data (jdcoefct)
                                                   decompress_smooth_data (jdcoefct)
                                                   per_scan_setup (jdinput)
                                                   realize_virt_arrays (jmemmgr)
                                                   set_bottom_pointers (jdmainct)
    -------------------------------------------------------------------------
CODE
  Relative segment, address: CODE_AREA 000168E8 - 000168F3 (0xc bytes), align: 2
  Segment part 5.             Intra module refs:   ??divu32_t
           ENTRY                   ADDRESS         REF BY
           =====                   =======         ======
           ??divu32_a              000168E8        RenderPage (display_utils)
    -------------------------------------------------------------------------
CODE
  Segment part 6. NOT NEEDED.
           ENTRY                   ADDRESS         REF BY
           =====                   =======         ======
           ??div8_t                
    -------------------------------------------------------------------------
CODE
  Segment part 7. NOT NEEDED.
           ENTRY                   ADDRESS         REF BY
           =====                   =======         ======
           ??div8_a                
    -------------------------------------------------------------------------
CODE
  Segment part 8. NOT NEEDED.
           ENTRY                   ADDRESS         REF BY
           =====                   =======         ======
           ??div16_t               
    -------------------------------------------------------------------------
CODE
  Segment part 9. NOT NEEDED.
           ENTRY                   ADDRESS         REF BY
           =====                   =======         ======
           ??div16_a               
    -------------------------------------------------------------------------
CODE
  Relative segment, address: CODE_AREA 000168F4 - 000168F7 (0x4 bytes), align: 2
  Segment part 10.
           ENTRY                   ADDRESS         REF BY
           =====                   =======         ======
           ??div32_t               000168F5        alloc_funny_pointers (jdmainct)
                                                   decompress_smooth_data (jdcoefct)
                                                   jdiv_round_up (jutils)
                                                   jinit_d_main_controller (jdmainct)
                                                   jinit_upsampler (jdsample)
                                                   jround_up (jutils)
                                                   make_funny_pointers (jdmainct)
                                                   realize_virt_arrays (jmemmgr)
                                                   set_bottom_pointers (jdmainct)
                                                   set_wraparound_pointers (jdmainct)
    -------------------------------------------------------------------------
CODE
  Relative segment, address: CODE_AREA 000168F8 - 0001690F (0x18 bytes), align: 2
  Segment part 11.            Intra module refs:   ??div32_t
           ENTRY                   ADDRESS         REF BY
           =====                   =======         ======
           ??div32_a               000168F8        method0 (main)
                                                   mrandom (rand)
    -------------------------------------------------------------------------
CODE
  Relative segment, address: CODE_AREA 00016910 - 000169E7 (0xd8 bytes), align: 2
  Segment part 12.            Intra module refs:   ??div32_a
                                                   ??divu32_a




                ****************************************
                *                                      *
                *            MODULE SUMMARY            *
                *                                      *
                ****************************************

Module              CODE   DATA
------              ----   ----
                   (Rel)  (Rel)
?div_module          260
additems           2 748
conf_loader          405      4
  + shared            12
config_data        2 488
destructors          340
display_utils     12 163    364
  + shared           132
file_works           996
fileman            2 063    240
func                   8
history            1 399      4
inet               4 728     48
jcomapi              124
jdapimin             778
  + shared            32
jdapistd             352
  + shared            16
jdatasrc             140
  + shared             8
jdcoefct           2 748
jdcolor            1 020
jddctmgr             528
jdhuff             2 244
jdinput            1 040
jdmainct           1 248
jdmarker           4 968
jdmaster           1 328
jdmerge            1 108
jdphuff            2 440
jdpostct             272
jdsample           1 296
jerror               160
  + shared             8
jidctfst             772
jidctint             932
jidctred           1 086
jmemansi             286
jmemmgr            2 304
jutils               416
lang               2 556
main              12 468    596
mainmenu          12 367  1 144
parse_oms         10 556
rand                  96      8
readimg            2 242
string_works       1 948     20
upload               552      8
url_utils          1 560
urlstack           1 760
N/A (alignment)        6
------           -------  -----
Total:           101 507  2 436


                ****************************************
                *                                      *
                *              CALL GRAPH              *
                *                                      *
                ****************************************

  ->Sub-tree of type: Indirectly called function tree that does not make
                    : indirect calls (Is not an interrupt and is not flagged
                    : as not overlayable)
                             CSTACK
    | Stack used (prev) :  00000000
  01  templates_menu_onkey
      | Stack used (prev) :  00000000
      | + function block  :  0000003C
  <-Sub-tree of type: Indirectly called function tree that does not make
                    : indirect calls (Is not an interrupt and is not flagged
                    : as not overlayable)
    | Stack used          :  0000003C


  ->Sub-tree of type: Indirectly called function tree that does not make
                    : indirect calls (Is not an interrupt and is not flagged
                    : as not overlayable)
                             CSTACK
    | Stack used (prev) :  00000000
  01  templates_menu_ghook
      | Stack used (prev) :  00000000
      | + function block  :  00000004
  <-Sub-tree of type: Indirectly called function tree that does not make
                    : indirect calls (Is not an interrupt and is not flagged
                    : as not overlayable)
    | Stack used          :  00000004


  ->Sub-tree of type: Indirectly called function tree that does not make
                    : indirect calls (Is not an interrupt and is not flagged
                    : as not overlayable)
                             CSTACK
    | Stack used (prev) :  00000000
  01  templates_menu_iconhndl
      | Stack used (prev) :  00000000
      | + function block  :  00000018
  <-Sub-tree of type: Indirectly called function tree that does not make
                    : indirect calls (Is not an interrupt and is not flagged
                    : as not overlayable)
    | Stack used          :  00000018


  ->Sub-tree of type: Indirectly called function tree that does not make
                    : indirect calls (Is not an interrupt and is not flagged
                    : as not overlayable)
                             CSTACK
    | Stack used (prev) :  00000000
  01  input_box_ghook
      | Stack used (prev) :  00000000
      | + function block  :  00000050
  <-Sub-tree of type: Indirectly called function tree that does not make
                    : indirect calls (Is not an interrupt and is not flagged
                    : as not overlayable)
    | Stack used          :  00000050


  ->Sub-tree of type: Indirectly called function tree that does not make
                    : indirect calls (Is not an interrupt and is not flagged
                    : as not overlayable)
                             CSTACK
    | Stack used (prev) :  00000000
  01  input_box_locret
      | Stack used (prev) :  00000000
      | + function block  :  00000000
  <-Sub-tree of type: Indirectly called function tree that does not make
                    : indirect calls (Is not an interrupt and is not flagged
                    : as not overlayable)
    | Stack used          :  00000000


  ->Sub-tree of type: Indirectly called function tree that does not make
                    : indirect calls (Is not an interrupt and is not flagged
                    : as not overlayable)
                             CSTACK
    | Stack used (prev) :  00000000
  01  input_box_onkey_options
      | Stack used (prev) :  00000000
      | + function block  :  00000038
  <-Sub-tree of type: Indirectly called function tree that does not make
                    : indirect calls (Is not an interrupt and is not flagged
                    : as not overlayable)
    | Stack used          :  00000038


  ->Sub-tree of type: Indirectly called function tree that does not make
                    : indirect calls (Is not an interrupt and is not flagged
                    : as not overlayable)
                             CSTACK
    | Stack used (prev) :  00000000
  01  input_box_onkey
      | Stack used (prev) :  00000000
      | + function block  :  00000040
  <-Sub-tree of type: Indirectly called function tree that does not make
                    : indirect calls (Is not an interrupt and is not flagged
                    : as not overlayable)
    | Stack used          :  00000040


  ->Sub-tree of type: Indirectly called function tree that does not make
                    : indirect calls (Is not an interrupt and is not flagged
                    : as not overlayable)
                             CSTACK
    | Stack used (prev) :  00000000
  01  txtview_ghook
      | Stack used (prev) :  00000000
      | + function block  :  00000014
  <-Sub-tree of type: Indirectly called function tree that does not make
                    : indirect calls (Is not an interrupt and is not flagged
                    : as not overlayable)
    | Stack used          :  00000014


  ->Sub-tree of type: Indirectly called function tree that does not make
                    : indirect calls (Is not an interrupt and is not flagged
                    : as not overlayable)
                             CSTACK
    | Stack used (prev) :  00000000
  01  txtview_locret
      | Stack used (prev) :  00000000
      | + function block  :  00000000
  <-Sub-tree of type: Indirectly called function tree that does not make
                    : indirect calls (Is not an interrupt and is not flagged
                    : as not overlayable)
    | Stack used          :  00000000


  ->Sub-tree of type: Indirectly called function tree that does not make
                    : indirect calls (Is not an interrupt and is not flagged
                    : as not overlayable)
                             CSTACK
    | Stack used (prev) :  00000000
  01  txtview_onkey
      | Stack used (prev) :  00000000
      | + function block  :  00000000
  <-Sub-tree of type: Indirectly called function tree that does not make
                    : indirect calls (Is not an interrupt and is not flagged
                    : as not overlayable)
    | Stack used          :  00000000


  ->Sub-tree of type: Indirectly called function tree that does not make
                    : indirect calls (Is not an interrupt and is not flagged
                    : as not overlayable)
                             CSTACK
    | Stack used (prev) :  00000000
  01  sel_menu_onkey
      | Stack used (prev) :  00000000
      | + function block  :  00000020
  <-Sub-tree of type: Indirectly called function tree that does not make
                    : indirect calls (Is not an interrupt and is not flagged
                    : as not overlayable)
    | Stack used          :  00000020


  ->Sub-tree of type: Indirectly called function tree that does not make
                    : indirect calls (Is not an interrupt and is not flagged
                    : as not overlayable)
                             CSTACK
    | Stack used (prev) :  00000000
  01  sel_menu_ghook
      | Stack used (prev) :  00000000
      | + function block  :  0000000C
  <-Sub-tree of type: Indirectly called function tree that does not make
                    : indirect calls (Is not an interrupt and is not flagged
                    : as not overlayable)
    | Stack used          :  0000000C


  ->Sub-tree of type: Indirectly called function tree that does not make
                    : indirect calls (Is not an interrupt and is not flagged
                    : as not overlayable)
                             CSTACK
    | Stack used (prev) :  00000000
  01  sel_menu_iconhndl
      | Stack used (prev) :  00000000
      | + function block  :  00000020
  <-Sub-tree of type: Indirectly called function tree that does not make
                    : indirect calls (Is not an interrupt and is not flagged
                    : as not overlayable)
    | Stack used          :  00000020


  ->Sub-tree of type: Indirectly called function tree that does not make
                    : indirect calls (Is not an interrupt and is not flagged
                    : as not overlayable)
                             CSTACK
    | Stack used (prev) :  00000000
  01  link_box_locret
      | Stack used (prev) :  00000000
      | + function block  :  00000000
  <-Sub-tree of type: Indirectly called function tree that does not make
                    : indirect calls (Is not an interrupt and is not flagged
                    : as not overlayable)
    | Stack used          :  00000000


  ->Sub-tree of type: Indirectly called function tree that does not make
                    : indirect calls (Is not an interrupt and is not flagged
                    : as not overlayable)
                             CSTACK
    | Stack used (prev) :  00000000
  01  link_box_ghook
      | Stack used (prev) :  00000000
      | + function block  :  00000014
  <-Sub-tree of type: Indirectly called function tree that does not make
                    : indirect calls (Is not an interrupt and is not flagged
                    : as not overlayable)
    | Stack used          :  00000014


  ->Sub-tree of type: Indirectly called function tree that does not make
                    : indirect calls (Is not an interrupt and is not flagged
                    : as not overlayable)
                             CSTACK
    | Stack used (prev) :  00000000
  01  link_options
      | Stack used (prev) :  00000000
      | + function block  :  0000003C
  <-Sub-tree of type: Indirectly called function tree that does not make
                    : indirect calls (Is not an interrupt and is not flagged
                    : as not overlayable)
    | Stack used          :  0000003C


  ->Sub-tree of type: Indirectly called function tree that does not make
                    : indirect calls (Is not an interrupt and is not flagged
                    : as not overlayable)
                             CSTACK
    | Stack used (prev) :  00000000
  01  link_box_onkey
      | Stack used (prev) :  00000000
      | + function block  :  00000004
  <-Sub-tree of type: Indirectly called function tree that does not make
                    : indirect calls (Is not an interrupt and is not flagged
                    : as not overlayable)
    | Stack used          :  00000004


  ->Sub-tree of type: Indirectly called function tree that does not make
                    : indirect calls (Is not an interrupt and is not flagged
                    : as not overlayable)
                             CSTACK
    | Stack used (prev) :  00000000
  01  filelist_menu_onkey
      | Stack used (prev) :  00000000
      | + function block  :  00000010
  <-Sub-tree of type: Indirectly called function tree that does not make
                    : indirect calls (Is not an interrupt and is not flagged
                    : as not overlayable)
    | Stack used          :  00000010


  ->Sub-tree of type: Indirectly called function tree that does not make
                    : indirect calls (Is not an interrupt and is not flagged
                    : as not overlayable)
                             CSTACK
    | Stack used (prev) :  00000000
  01  filelist_menu_ghook
      | Stack used (prev) :  00000000
      | + function block  :  00000004
  <-Sub-tree of type: Indirectly called function tree that does not make
                    : indirect calls (Is not an interrupt and is not flagged
                    : as not overlayable)
    | Stack used          :  00000004


  ->Sub-tree of type: Indirectly called function tree that does not make
                    : indirect calls (Is not an interrupt and is not flagged
                    : as not overlayable)
                             CSTACK
    | Stack used (prev) :  00000000
  01  filelist_menu_iconhndl
      | Stack used (prev) :  00000000
      | + function block  :  0000001C
  <-Sub-tree of type: Indirectly called function tree that does not make
                    : indirect calls (Is not an interrupt and is not flagged
                    : as not overlayable)
    | Stack used          :  0000001C


  ->Sub-tree of type: Indirectly called function tree that does not make
                    : indirect calls (Is not an interrupt and is not flagged
                    : as not overlayable)
                             CSTACK
    | Stack used (prev) :  00000000
  01  create_connect
      | Stack used (prev) :  00000000
      | + function block  :  00000030
  <-Sub-tree of type: Indirectly called function tree that does not make
                    : indirect calls (Is not an interrupt and is not flagged
                    : as not overlayable)
    | Stack used          :  00000030


  ->Sub-tree of type: Indirectly called function tree that does not make
                    : indirect calls (Is not an interrupt and is not flagged
                    : as not overlayable)
                             CSTACK
    | Stack used (prev) :  00000000
  01  end_socket
      | Stack used (prev) :  00000000
      | + function block  :  00000008
  <-Sub-tree of type: Indirectly called function tree that does not make
                    : indirect calls (Is not an interrupt and is not flagged
                    : as not overlayable)
    | Stack used          :  00000008


  ->Sub-tree of type: Indirectly called function tree that does not make
                    : indirect calls (Is not an interrupt and is not flagged
                    : as not overlayable)
                             CSTACK
    | Stack used (prev) :  00000000
  01  free_socket
      | Stack used (prev) :  00000000
      | + function block  :  0000000C
  <-Sub-tree of type: Indirectly called function tree that does not make
                    : indirect calls (Is not an interrupt and is not flagged
                    : as not overlayable)
    | Stack used          :  0000000C


  ->Sub-tree of type: Indirectly called function tree that does not make
                    : indirect calls (Is not an interrupt and is not flagged
                    : as not overlayable)
                             CSTACK
    | Stack used (prev) :  00000000
  01  bsend
      | Stack used (prev) :  00000000
      | + function block  :  00000094
  <-Sub-tree of type: Indirectly called function tree that does not make
                    : indirect calls (Is not an interrupt and is not flagged
                    : as not overlayable)
    | Stack used          :  00000094


  ->Sub-tree of type: Indirectly called function tree that does not make
                    : indirect calls (Is not an interrupt and is not flagged
                    : as not overlayable)
                             CSTACK
    | Stack used (prev) :  00000000
  01  get_answer
      | Stack used (prev) :  00000000
      | + function block  :  00000424
  <-Sub-tree of type: Indirectly called function tree that does not make
                    : indirect calls (Is not an interrupt and is not flagged
                    : as not overlayable)
    | Stack used          :  00000424


  ->Sub-tree of type: Indirectly called function tree that does not make
                    : indirect calls (Is not an interrupt and is not flagged
                    : as not overlayable)
                             CSTACK
    | Stack used (prev) :  00000000
  01  SendPost
      | Stack used (prev) :  00000000
      | + function block  :  00000034
  <-Sub-tree of type: Indirectly called function tree that does not make
                    : indirect calls (Is not an interrupt and is not flagged
                    : as not overlayable)
    | Stack used          :  00000034


  ->Sub-tree of type: Indirectly called function tree that does not make
                    : indirect calls (Is not an interrupt and is not flagged
                    : as not overlayable)
                             CSTACK
    | Stack used (prev) :  00000000
  01  StopINET
      | Stack used (prev) :  00000000
      | + function block  :  00000004
  <-Sub-tree of type: Indirectly called function tree that does not make
                    : indirect calls (Is not an interrupt and is not flagged
                    : as not overlayable)
    | Stack used          :  00000004


  ->Sub-tree of type: Indirectly called function tree that does not make
                    : indirect calls (Is not an interrupt and is not flagged
                    : as not overlayable)
                             CSTACK
    | Stack used (prev) :  00000000
  01  StartGetFile
      | Stack used (prev) :  00000000
      | + function block  :  0000042C
  <-Sub-tree of type: Indirectly called function tree that does not make
                    : indirect calls (Is not an interrupt and is not flagged
                    : as not overlayable)
    | Stack used          :  0000042C


  ->Sub-tree of type: Indirectly called function tree that does not make
                    : indirect calls (Is not an interrupt and is not flagged
                    : as not overlayable)
                             CSTACK
    | Stack used (prev) :  00000000
  01  method0
      | Stack used (prev) :  00000000
      | + function block  :  0000004C
  <-Sub-tree of type: Indirectly called function tree that does not make
                    : indirect calls (Is not an interrupt and is not flagged
                    : as not overlayable)
    | Stack used          :  0000004C


  ->Sub-tree of type: Indirectly called function tree that does not make
                    : indirect calls (Is not an interrupt and is not flagged
                    : as not overlayable)
                             CSTACK
    | Stack used (prev) :  00000000
  01  method1
      | Stack used (prev) :  00000000
      | + function block  :  00000010
  <-Sub-tree of type: Indirectly called function tree that does not make
                    : indirect calls (Is not an interrupt and is not flagged
                    : as not overlayable)
    | Stack used          :  00000010


  ->Sub-tree of type: Indirectly called function tree that does not make
                    : indirect calls (Is not an interrupt and is not flagged
                    : as not overlayable)
                             CSTACK
    | Stack used (prev) :  00000000
  01  method2
      | Stack used (prev) :  00000000
      | + function block  :  0000000C
  <-Sub-tree of type: Indirectly called function tree that does not make
                    : indirect calls (Is not an interrupt and is not flagged
                    : as not overlayable)
    | Stack used          :  0000000C


  ->Sub-tree of type: Indirectly called function tree that does not make
                    : indirect calls (Is not an interrupt and is not flagged
                    : as not overlayable)
                             CSTACK
    | Stack used (prev) :  00000000
  01  method3
      | Stack used (prev) :  00000000
      | + function block  :  00000008
  <-Sub-tree of type: Indirectly called function tree that does not make
                    : indirect calls (Is not an interrupt and is not flagged
                    : as not overlayable)
    | Stack used          :  00000008


  ->Sub-tree of type: Indirectly called function tree that does not make
                    : indirect calls (Is not an interrupt and is not flagged
                    : as not overlayable)
                             CSTACK
    | Stack used (prev) :  00000000
  01  method4
      | Stack used (prev) :  00000000
      | + function block  :  00000008
  <-Sub-tree of type: Indirectly called function tree that does not make
                    : indirect calls (Is not an interrupt and is not flagged
                    : as not overlayable)
    | Stack used          :  00000008


  ->Sub-tree of type: Indirectly called function tree that does not make
                    : indirect calls (Is not an interrupt and is not flagged
                    : as not overlayable)
                             CSTACK
    | Stack used (prev) :  00000000
  01  method5
      | Stack used (prev) :  00000000
      | + function block  :  000000B4
  <-Sub-tree of type: Indirectly called function tree that does not make
                    : indirect calls (Is not an interrupt and is not flagged
                    : as not overlayable)
    | Stack used          :  000000B4


  ->Sub-tree of type: Indirectly called function tree that does not make
                    : indirect calls (Is not an interrupt and is not flagged
                    : as not overlayable)
                             CSTACK
    | Stack used (prev) :  00000000
  01  method8
      | Stack used (prev) :  00000000
      | + function block  :  00000000
  <-Sub-tree of type: Indirectly called function tree that does not make
                    : indirect calls (Is not an interrupt and is not flagged
                    : as not overlayable)
    | Stack used          :  00000000


  ->Sub-tree of type: Indirectly called function tree that does not make
                    : indirect calls (Is not an interrupt and is not flagged
                    : as not overlayable)
                             CSTACK
    | Stack used (prev) :  00000000
  01  method9
      | Stack used (prev) :  00000000
      | + function block  :  00000000
  <-Sub-tree of type: Indirectly called function tree that does not make
                    : indirect calls (Is not an interrupt and is not flagged
                    : as not overlayable)
    | Stack used          :  00000000


  ->Sub-tree of type: Indirectly called function tree that does not make
                    : indirect calls (Is not an interrupt and is not flagged
                    : as not overlayable)
                             CSTACK
    | Stack used (prev) :  00000000
  01  maincsm_oncreate
      | Stack used (prev) :  00000000
      | + function block  :  00000010
  <-Sub-tree of type: Indirectly called function tree that does not make
                    : indirect calls (Is not an interrupt and is not flagged
                    : as not overlayable)
    | Stack used          :  00000010


  ->Sub-tree of type: Indirectly called function tree that does not make
                    : indirect calls (Is not an interrupt and is not flagged
                    : as not overlayable)
                             CSTACK
    | Stack used (prev) :  00000000
  01  Killer
      | Stack used (prev) :  00000000
      | + function block  :  00000004
  <-Sub-tree of type: Indirectly called function tree that does not make
                    : indirect calls (Is not an interrupt and is not flagged
                    : as not overlayable)
    | Stack used          :  00000004


  ->Sub-tree of type: Indirectly called function tree that does not make
                    : indirect calls (Is not an interrupt and is not flagged
                    : as not overlayable)
                             CSTACK
    | Stack used (prev) :  00000000
  01  maincsm_onclose
      | Stack used (prev) :  00000000
      | + function block  :  00000008
  <-Sub-tree of type: Indirectly called function tree that does not make
                    : indirect calls (Is not an interrupt and is not flagged
                    : as not overlayable)
    | Stack used          :  00000008


  ->Sub-tree of type: Indirectly called function tree that does not make
                    : indirect calls (Is not an interrupt and is not flagged
                    : as not overlayable)
                             CSTACK
    | Stack used (prev) :  00000000
  01  GotoLink
      | Stack used (prev) :  00000000
      | + function block  :  00000008
  <-Sub-tree of type: Indirectly called function tree that does not make
                    : indirect calls (Is not an interrupt and is not flagged
                    : as not overlayable)
    | Stack used          :  00000008


  ->Sub-tree of type: Indirectly called function tree that does not make
                    : indirect calls (Is not an interrupt and is not flagged
                    : as not overlayable)
                             CSTACK
    | Stack used (prev) :  00000000
  01  GotoFile
      | Stack used (prev) :  00000000
      | + function block  :  00000008
  <-Sub-tree of type: Indirectly called function tree that does not make
                    : indirect calls (Is not an interrupt and is not flagged
                    : as not overlayable)
    | Stack used          :  00000008


  ->Sub-tree of type: Indirectly called function tree that does not make
                    : indirect calls (Is not an interrupt and is not flagged
                    : as not overlayable)
                             CSTACK
    | Stack used (prev) :  00000000
  01  maincsm_onmessage
      | Stack used (prev) :  00000000
      | + function block  :  00000030
  <-Sub-tree of type: Indirectly called function tree that does not make
                    : indirect calls (Is not an interrupt and is not flagged
                    : as not overlayable)
    | Stack used          :  00000030


  ->Sub-tree of type: Indirectly called function tree that does not make
                    : indirect calls (Is not an interrupt and is not flagged
                    : as not overlayable)
                             CSTACK
    | Stack used (prev) :  00000000
  01  edit_bookmark_ghook
      | Stack used (prev) :  00000000
      | + function block  :  0000004C
  <-Sub-tree of type: Indirectly called function tree that does not make
                    : indirect calls (Is not an interrupt and is not flagged
                    : as not overlayable)
    | Stack used          :  0000004C


  ->Sub-tree of type: Indirectly called function tree that does not make
                    : indirect calls (Is not an interrupt and is not flagged
                    : as not overlayable)
                             CSTACK
    | Stack used (prev) :  00000000
  01  edit_bookmark_locret
      | Stack used (prev) :  00000000
      | + function block  :  00000000
  <-Sub-tree of type: Indirectly called function tree that does not make
                    : indirect calls (Is not an interrupt and is not flagged
                    : as not overlayable)
    | Stack used          :  00000000


  ->Sub-tree of type: Indirectly called function tree that does not make
                    : indirect calls (Is not an interrupt and is not flagged
                    : as not overlayable)
                             CSTACK
    | Stack used (prev) :  00000000
  01  edit_bookmark_onkey
      | Stack used (prev) :  00000000
      | + function block  :  0000001C
  <-Sub-tree of type: Indirectly called function tree that does not make
                    : indirect calls (Is not an interrupt and is not flagged
                    : as not overlayable)
    | Stack used          :  0000001C


  ->Sub-tree of type: Indirectly called function tree that does not make
                    : indirect calls (Is not an interrupt and is not flagged
                    : as not overlayable)
                             CSTACK
    | Stack used (prev) :  00000000
  01  bookmarks_options_edit
      | Stack used (prev) :  00000000
      | + function block  :  00000008
  <-Sub-tree of type: Indirectly called function tree that does not make
                    : indirect calls (Is not an interrupt and is not flagged
                    : as not overlayable)
    | Stack used          :  00000008


  ->Sub-tree of type: Indirectly called function tree that does not make
                    : indirect calls (Is not an interrupt and is not flagged
                    : as not overlayable)
                             CSTACK
    | Stack used (prev) :  00000000
  01  bookmarks_options_add_bookmark
      | Stack used (prev) :  00000000
      | + function block  :  00000004
  <-Sub-tree of type: Indirectly called function tree that does not make
                    : indirect calls (Is not an interrupt and is not flagged
                    : as not overlayable)
    | Stack used          :  00000004


  ->Sub-tree of type: Indirectly called function tree that does not make
                    : indirect calls (Is not an interrupt and is not flagged
                    : as not overlayable)
                             CSTACK
    | Stack used (prev) :  00000000
  01  bookmarks_options_add_folder
      | Stack used (prev) :  00000000
      | + function block  :  00000004
  <-Sub-tree of type: Indirectly called function tree that does not make
                    : indirect calls (Is not an interrupt and is not flagged
                    : as not overlayable)
    | Stack used          :  00000004


  ->Sub-tree of type: Indirectly called function tree that does not make
                    : indirect calls (Is not an interrupt and is not flagged
                    : as not overlayable)
                             CSTACK
    | Stack used (prev) :  00000000
  01  bookmarks_options_delete
      | Stack used (prev) :  00000000
      | + function block  :  0000000C
  <-Sub-tree of type: Indirectly called function tree that does not make
                    : indirect calls (Is not an interrupt and is not flagged
                    : as not overlayable)
    | Stack used          :  0000000C


  ->Sub-tree of type: Indirectly called function tree that does not make
                    : indirect calls (Is not an interrupt and is not flagged
                    : as not overlayable)
                             CSTACK
    | Stack used (prev) :  00000000
  01  bookmarks_menu_onkey
      | Stack used (prev) :  00000000
      | + function block  :  00000010
  <-Sub-tree of type: Indirectly called function tree that does not make
                    : indirect calls (Is not an interrupt and is not flagged
                    : as not overlayable)
    | Stack used          :  00000010


  ->Sub-tree of type: Indirectly called function tree that does not make
                    : indirect calls (Is not an interrupt and is not flagged
                    : as not overlayable)
                             CSTACK
    | Stack used (prev) :  00000000
  01  bookmarks_menu_ghook
      | Stack used (prev) :  00000000
      | + function block  :  0000000C
  <-Sub-tree of type: Indirectly called function tree that does not make
                    : indirect calls (Is not an interrupt and is not flagged
                    : as not overlayable)
    | Stack used          :  0000000C


  ->Sub-tree of type: Indirectly called function tree that does not make
                    : indirect calls (Is not an interrupt and is not flagged
                    : as not overlayable)
                             CSTACK
    | Stack used (prev) :  00000000
  01  bookmarks_menu_iconhndl
      | Stack used (prev) :  00000000
      | + function block  :  00000020
  <-Sub-tree of type: Indirectly called function tree that does not make
                    : indirect calls (Is not an interrupt and is not flagged
                    : as not overlayable)
    | Stack used          :  00000020


  ->Sub-tree of type: Indirectly called function tree that does not make
                    : indirect calls (Is not an interrupt and is not flagged
                    : as not overlayable)
                             CSTACK
    | Stack used (prev) :  00000000
  01  search_menu_locret
      | Stack used (prev) :  00000000
      | + function block  :  00000000
  <-Sub-tree of type: Indirectly called function tree that does not make
                    : indirect calls (Is not an interrupt and is not flagged
                    : as not overlayable)
    | Stack used          :  00000000


  ->Sub-tree of type: Indirectly called function tree that does not make
                    : indirect calls (Is not an interrupt and is not flagged
                    : as not overlayable)
                             CSTACK
    | Stack used (prev) :  00000000
  01  search_menu_onkey
      | Stack used (prev) :  00000000
      | + function block  :  00000180
  <-Sub-tree of type: Indirectly called function tree that does not make
                    : indirect calls (Is not an interrupt and is not flagged
                    : as not overlayable)
    | Stack used          :  00000180


  ->Sub-tree of type: Indirectly called function tree that does not make
                    : indirect calls (Is not an interrupt and is not flagged
                    : as not overlayable)
                             CSTACK
    | Stack used (prev) :  00000000
  01  search_menu_ghook
      | Stack used (prev) :  00000000
      | + function block  :  00000018
  <-Sub-tree of type: Indirectly called function tree that does not make
                    : indirect calls (Is not an interrupt and is not flagged
                    : as not overlayable)
    | Stack used          :  00000018


  ->Sub-tree of type: Indirectly called function tree that does not make
                    : indirect calls (Is not an interrupt and is not flagged
                    : as not overlayable)
                             CSTACK
    | Stack used (prev) :  00000000
  01  find_box_ghook
      | Stack used (prev) :  00000000
      | + function block  :  00000024
  <-Sub-tree of type: Indirectly called function tree that does not make
                    : indirect calls (Is not an interrupt and is not flagged
                    : as not overlayable)
    | Stack used          :  00000024


  ->Sub-tree of type: Indirectly called function tree that does not make
                    : indirect calls (Is not an interrupt and is not flagged
                    : as not overlayable)
                             CSTACK
    | Stack used (prev) :  00000000
  01  find_box_locret
      | Stack used (prev) :  00000000
      | + function block  :  00000000
  <-Sub-tree of type: Indirectly called function tree that does not make
                    : indirect calls (Is not an interrupt and is not flagged
                    : as not overlayable)
    | Stack used          :  00000000


  ->Sub-tree of type: Indirectly called function tree that does not make
                    : indirect calls (Is not an interrupt and is not flagged
                    : as not overlayable)
                             CSTACK
    | Stack used (prev) :  00000000
  01  find_box_onkey
      | Stack used (prev) :  00000000
      | + function block  :  00000034
  <-Sub-tree of type: Indirectly called function tree that does not make
                    : indirect calls (Is not an interrupt and is not flagged
                    : as not overlayable)
    | Stack used          :  00000034


  ->Sub-tree of type: Indirectly called function tree that does not make
                    : indirect calls (Is not an interrupt and is not flagged
                    : as not overlayable)
                             CSTACK
    | Stack used (prev) :  00000000
  01  savepage_box_ghook
      | Stack used (prev) :  00000000
      | + function block  :  00000014
  <-Sub-tree of type: Indirectly called function tree that does not make
                    : indirect calls (Is not an interrupt and is not flagged
                    : as not overlayable)
    | Stack used          :  00000014


  ->Sub-tree of type: Indirectly called function tree that does not make
                    : indirect calls (Is not an interrupt and is not flagged
                    : as not overlayable)
                             CSTACK
    | Stack used (prev) :  00000000
  01  savepage_box_locret
      | Stack used (prev) :  00000000
      | + function block  :  00000000
  <-Sub-tree of type: Indirectly called function tree that does not make
                    : indirect calls (Is not an interrupt and is not flagged
                    : as not overlayable)
    | Stack used          :  00000000


  ->Sub-tree of type: Indirectly called function tree that does not make
                    : indirect calls (Is not an interrupt and is not flagged
                    : as not overlayable)
                             CSTACK
    | Stack used (prev) :  00000000
  01  savepage_box_onkey
      | Stack used (prev) :  00000000
      | + function block  :  000001BC
  <-Sub-tree of type: Indirectly called function tree that does not make
                    : indirect calls (Is not an interrupt and is not flagged
                    : as not overlayable)
    | Stack used          :  000001BC


  ->Sub-tree of type: Indirectly called function tree that does not make
                    : indirect calls (Is not an interrupt and is not flagged
                    : as not overlayable)
                             CSTACK
    | Stack used (prev) :  00000000
  01  history_menu_onkey
      | Stack used (prev) :  00000000
      | + function block  :  00000018
  <-Sub-tree of type: Indirectly called function tree that does not make
                    : indirect calls (Is not an interrupt and is not flagged
                    : as not overlayable)
    | Stack used          :  00000018


  ->Sub-tree of type: Indirectly called function tree that does not make
                    : indirect calls (Is not an interrupt and is not flagged
                    : as not overlayable)
                             CSTACK
    | Stack used (prev) :  00000000
  01  history_menu_ghook
      | Stack used (prev) :  00000000
      | + function block  :  00000010
  <-Sub-tree of type: Indirectly called function tree that does not make
                    : indirect calls (Is not an interrupt and is not flagged
                    : as not overlayable)
    | Stack used          :  00000010


  ->Sub-tree of type: Indirectly called function tree that does not make
                    : indirect calls (Is not an interrupt and is not flagged
                    : as not overlayable)
                             CSTACK
    | Stack used (prev) :  00000000
  01  history_menu_iconhndl
      | Stack used (prev) :  00000000
      | + function block  :  00000018
  <-Sub-tree of type: Indirectly called function tree that does not make
                    : indirect calls (Is not an interrupt and is not flagged
                    : as not overlayable)
    | Stack used          :  00000018


  ->Sub-tree of type: Indirectly called function tree that does not make
                    : indirect calls (Is not an interrupt and is not flagged
                    : as not overlayable)
                             CSTACK
    | Stack used (prev) :  00000000
  01  input_url_ghook
      | Stack used (prev) :  00000000
      | + function block  :  00000014
  <-Sub-tree of type: Indirectly called function tree that does not make
                    : indirect calls (Is not an interrupt and is not flagged
                    : as not overlayable)
    | Stack used          :  00000014


  ->Sub-tree of type: Indirectly called function tree that does not make
                    : indirect calls (Is not an interrupt and is not flagged
                    : as not overlayable)
                             CSTACK
    | Stack used (prev) :  00000000
  01  input_url_locret
      | Stack used (prev) :  00000000
      | + function block  :  00000000
  <-Sub-tree of type: Indirectly called function tree that does not make
                    : indirect calls (Is not an interrupt and is not flagged
                    : as not overlayable)
    | Stack used          :  00000000


  ->Sub-tree of type: Indirectly called function tree that does not make
                    : indirect calls (Is not an interrupt and is not flagged
                    : as not overlayable)
                             CSTACK
    | Stack used (prev) :  00000000
  01  input_url_options
      | Stack used (prev) :  00000000
      | + function block  :  00000034
  <-Sub-tree of type: Indirectly called function tree that does not make
                    : indirect calls (Is not an interrupt and is not flagged
                    : as not overlayable)
    | Stack used          :  00000034


  ->Sub-tree of type: Indirectly called function tree that does not make
                    : indirect calls (Is not an interrupt and is not flagged
                    : as not overlayable)
                             CSTACK
    | Stack used (prev) :  00000000
  01  input_url_onkey
      | Stack used (prev) :  00000000
      | + function block  :  00000040
  <-Sub-tree of type: Indirectly called function tree that does not make
                    : indirect calls (Is not an interrupt and is not flagged
                    : as not overlayable)
    | Stack used          :  00000040


  ->Sub-tree of type: Indirectly called function tree that does not make
                    : indirect calls (Is not an interrupt and is not flagged
                    : as not overlayable)
                             CSTACK
    | Stack used (prev) :  00000000
  01  main_menu_goto_url
      | Stack used (prev) :  00000000
      | + function block  :  00000008
  <-Sub-tree of type: Indirectly called function tree that does not make
                    : indirect calls (Is not an interrupt and is not flagged
                    : as not overlayable)
    | Stack used          :  00000008


  ->Sub-tree of type: Indirectly called function tree that does not make
                    : indirect calls (Is not an interrupt and is not flagged
                    : as not overlayable)
                             CSTACK
    | Stack used (prev) :  00000000
  01  main_menu_goto_bookmarks
      | Stack used (prev) :  00000000
      | + function block  :  00000008
  <-Sub-tree of type: Indirectly called function tree that does not make
                    : indirect calls (Is not an interrupt and is not flagged
                    : as not overlayable)
    | Stack used          :  00000008


  ->Sub-tree of type: Indirectly called function tree that does not make
                    : indirect calls (Is not an interrupt and is not flagged
                    : as not overlayable)
                             CSTACK
    | Stack used (prev) :  00000000
  01  main_menu_search
      | Stack used (prev) :  00000000
      | + function block  :  00000008
  <-Sub-tree of type: Indirectly called function tree that does not make
                    : indirect calls (Is not an interrupt and is not flagged
                    : as not overlayable)
    | Stack used          :  00000008


  ->Sub-tree of type: Indirectly called function tree that does not make
                    : indirect calls (Is not an interrupt and is not flagged
                    : as not overlayable)
                             CSTACK
    | Stack used (prev) :  00000000
  01  main_menu_find
      | Stack used (prev) :  00000000
      | + function block  :  00000008
  <-Sub-tree of type: Indirectly called function tree that does not make
                    : indirect calls (Is not an interrupt and is not flagged
                    : as not overlayable)
    | Stack used          :  00000008


  ->Sub-tree of type: Indirectly called function tree that does not make
                    : indirect calls (Is not an interrupt and is not flagged
                    : as not overlayable)
                             CSTACK
    | Stack used (prev) :  00000000
  01  main_menu_goto_history
      | Stack used (prev) :  00000000
      | + function block  :  00000008
  <-Sub-tree of type: Indirectly called function tree that does not make
                    : indirect calls (Is not an interrupt and is not flagged
                    : as not overlayable)
    | Stack used          :  00000008


  ->Sub-tree of type: Indirectly called function tree that does not make
                    : indirect calls (Is not an interrupt and is not flagged
                    : as not overlayable)
                             CSTACK
    | Stack used (prev) :  00000000
  01  main_menu_options
      | Stack used (prev) :  00000000
      | + function block  :  00000008
  <-Sub-tree of type: Indirectly called function tree that does not make
                    : indirect calls (Is not an interrupt and is not flagged
                    : as not overlayable)
    | Stack used          :  00000008


  ->Sub-tree of type: Indirectly called function tree that does not make
                    : indirect calls (Is not an interrupt and is not flagged
                    : as not overlayable)
                             CSTACK
    | Stack used (prev) :  00000000
  01  main_menu_quit
      | Stack used (prev) :  00000000
      | + function block  :  0000000C
  <-Sub-tree of type: Indirectly called function tree that does not make
                    : indirect calls (Is not an interrupt and is not flagged
                    : as not overlayable)
    | Stack used          :  0000000C


  ->Sub-tree of type: Indirectly called function tree that does not make
                    : indirect calls (Is not an interrupt and is not flagged
                    : as not overlayable)
                             CSTACK
    | Stack used (prev) :  00000000
  01  main_menu_savepage
      | Stack used (prev) :  00000000
      | + function block  :  00000008
  <-Sub-tree of type: Indirectly called function tree that does not make
                    : indirect calls (Is not an interrupt and is not flagged
                    : as not overlayable)
    | Stack used          :  00000008


  ->Sub-tree of type: Indirectly called function tree that does not make
                    : indirect calls (Is not an interrupt and is not flagged
                    : as not overlayable)
                             CSTACK
    | Stack used (prev) :  00000000
  01  main_menu_ghook
      | Stack used (prev) :  00000000
      | + function block  :  00000004
  <-Sub-tree of type: Indirectly called function tree that does not make
                    : indirect calls (Is not an interrupt and is not flagged
                    : as not overlayable)
    | Stack used          :  00000004


  ->Sub-tree of type: Indirectly called function tree that does not make
                    : indirect calls (Is not an interrupt and is not flagged
                    : as not overlayable)
                             CSTACK
    | Stack used (prev) :  00000000
  01  main_menu_onkey
      | Stack used (prev) :  00000000
      | + function block  :  00000004
  <-Sub-tree of type: Indirectly called function tree that does not make
                    : indirect calls (Is not an interrupt and is not flagged
                    : as not overlayable)
    | Stack used          :  00000004


  ->Sub-tree of type: Indirectly called function tree that does not make
                    : indirect calls (Is not an interrupt and is not flagged
                    : as not overlayable)
                             CSTACK
    | Stack used (prev) :  00000000
  01  zcalloc
      | Stack used (prev) :  00000000
      | + function block  :  00000004
  <-Sub-tree of type: Indirectly called function tree that does not make
                    : indirect calls (Is not an interrupt and is not flagged
                    : as not overlayable)
    | Stack used          :  00000004


  ->Sub-tree of type: Indirectly called function tree that does not make
                    : indirect calls (Is not an interrupt and is not flagged
                    : as not overlayable)
                             CSTACK
    | Stack used (prev) :  00000000
  01  zcfree
      | Stack used (prev) :  00000000
      | + function block  :  00000004
  <-Sub-tree of type: Indirectly called function tree that does not make
                    : indirect calls (Is not an interrupt and is not flagged
                    : as not overlayable)
    | Stack used          :  00000004


  ->Sub-tree of type: Indirectly called function tree that does not make
                    : indirect calls (Is not an interrupt and is not flagged
                    : as not overlayable)
                             CSTACK
    | Stack used (prev) :  00000000
  01  xmalloc
      | Stack used (prev) :  00000000
      | + function block  :  00000004
  <-Sub-tree of type: Indirectly called function tree that does not make
                    : indirect calls (Is not an interrupt and is not flagged
                    : as not overlayable)
    | Stack used          :  00000004


  ->Sub-tree of type: Indirectly called function tree that does not make
                    : indirect calls (Is not an interrupt and is not flagged
                    : as not overlayable)
                             CSTACK
    | Stack used (prev) :  00000000
  01  xmfree
      | Stack used (prev) :  00000000
      | + function block  :  00000004
  <-Sub-tree of type: Indirectly called function tree that does not make
                    : indirect calls (Is not an interrupt and is not flagged
                    : as not overlayable)
    | Stack used          :  00000004


  ->Sub-tree of type: Indirectly called function tree that does not make
                    : indirect calls (Is not an interrupt and is not flagged
                    : as not overlayable)
                             CSTACK
    | Stack used (prev) :  00000000
  01  read_data_fn
      | Stack used (prev) :  00000000
      | + function block  :  00000010
  <-Sub-tree of type: Indirectly called function tree that does not make
                    : indirect calls (Is not an interrupt and is not flagged
                    : as not overlayable)
    | Stack used          :  00000010


  ->Sub-tree of type: Indirectly called function tree that does not make
                    : indirect calls (Is not an interrupt and is not flagged
                    : as not overlayable)
                             CSTACK
    | Stack used (prev) :  00000000
  01  my_error_exit
      | Stack used (prev) :  00000000
      | + function block  :  00000008
  <-Sub-tree of type: Indirectly called function tree that does not make
                    : indirect calls (Is not an interrupt and is not flagged
                    : as not overlayable)
    | Stack used          :  00000008


  ->Sub-tree of type: Indirectly called function tree that does not make
                    : indirect calls (Is not an interrupt and is not flagged
                    : as not overlayable)
                             CSTACK
    | Stack used (prev) :  00000000
  01  PrepareFileForUpload
      | Stack used (prev) :  00000000
      | + function block  :  00000010
  <-Sub-tree of type: Indirectly called function tree that does not make
                    : indirect calls (Is not an interrupt and is not flagged
                    : as not overlayable)
    | Stack used          :  00000010


  ->Sub-tree of type: Indirectly called function tree that does not make
                    : indirect calls (Is not an interrupt and is not flagged
                    : as not overlayable)
                             CSTACK
    | Stack used (prev) :  00000000
  01  init_source
      | Stack used (prev) :  00000000
      | + function block  :  00000000
  <-Sub-tree of type: Indirectly called function tree that does not make
                    : indirect calls (Is not an interrupt and is not flagged
                    : as not overlayable)
    | Stack used          :  00000000


  ->Sub-tree of type: Indirectly called function tree that does not make
                    : indirect calls (Is not an interrupt and is not flagged
                    : as not overlayable)
                             CSTACK
    | Stack used (prev) :  00000000
  01  fill_input_buffer
      | Stack used (prev) :  00000000
      | + function block  :  00000000
  <-Sub-tree of type: Indirectly called function tree that does not make
                    : indirect calls (Is not an interrupt and is not flagged
                    : as not overlayable)
    | Stack used          :  00000000


  ->Sub-tree of type: Indirectly called function tree that does not make
                    : indirect calls (Is not an interrupt and is not flagged
                    : as not overlayable)
                             CSTACK
    | Stack used (prev) :  00000000
  01  skip_input_data
      | Stack used (prev) :  00000000
      | + function block  :  00000000
  <-Sub-tree of type: Indirectly called function tree that does not make
                    : indirect calls (Is not an interrupt and is not flagged
                    : as not overlayable)
    | Stack used          :  00000000


  ->Sub-tree of type: Indirectly called function tree that does not make
                    : indirect calls (Is not an interrupt and is not flagged
                    : as not overlayable)
                             CSTACK
    | Stack used (prev) :  00000000
  01  term_source
      | Stack used (prev) :  00000000
      | + function block  :  00000000
  <-Sub-tree of type: Indirectly called function tree that does not make
                    : indirect calls (Is not an interrupt and is not flagged
                    : as not overlayable)
    | Stack used          :  00000000


  ->Sub-tree of type: Indirectly called function tree that does not make
                    : indirect calls (Is not an interrupt and is not flagged
                    : as not overlayable)
                             CSTACK
    | Stack used (prev) :  00000000
  01  start_input_pass
      | Stack used (prev) :  00000000
      | + function block  :  00000004
  <-Sub-tree of type: Indirectly called function tree that does not make
                    : indirect calls (Is not an interrupt and is not flagged
                    : as not overlayable)
    | Stack used          :  00000004


  ->Sub-tree of type: Indirectly called function tree that does not make
                    : indirect calls (Is not an interrupt and is not flagged
                    : as not overlayable)
                             CSTACK
    | Stack used (prev) :  00000000
  01  start_output_pass
      | Stack used (prev) :  00000000
      | + function block  :  0000000C
  <-Sub-tree of type: Indirectly called function tree that does not make
                    : indirect calls (Is not an interrupt and is not flagged
                    : as not overlayable)
    | Stack used          :  0000000C


  ->Sub-tree of type: Indirectly called function tree that does not make
                    : indirect calls (Is not an interrupt and is not flagged
                    : as not overlayable)
                             CSTACK
    | Stack used (prev) :  00000000
  01  decompress_onepass
      | Stack used (prev) :  00000000
      | + function block  :  00000064
  <-Sub-tree of type: Indirectly called function tree that does not make
                    : indirect calls (Is not an interrupt and is not flagged
                    : as not overlayable)
    | Stack used          :  00000064


  ->Sub-tree of type: Indirectly called function tree that does not make
                    : indirect calls (Is not an interrupt and is not flagged
                    : as not overlayable)
                             CSTACK
    | Stack used (prev) :  00000000
  01  dummy_consume_data
      | Stack used (prev) :  00000000
      | + function block  :  00000000
  <-Sub-tree of type: Indirectly called function tree that does not make
                    : indirect calls (Is not an interrupt and is not flagged
                    : as not overlayable)
    | Stack used          :  00000000


  ->Sub-tree of type: Indirectly called function tree that does not make
                    : indirect calls (Is not an interrupt and is not flagged
                    : as not overlayable)
                             CSTACK
    | Stack used (prev) :  00000000
  01  consume_data
      | Stack used (prev) :  00000000
      | + function block  :  00000054
  <-Sub-tree of type: Indirectly called function tree that does not make
                    : indirect calls (Is not an interrupt and is not flagged
                    : as not overlayable)
    | Stack used          :  00000054


  ->Sub-tree of type: Indirectly called function tree that does not make
                    : indirect calls (Is not an interrupt and is not flagged
                    : as not overlayable)
                             CSTACK
    | Stack used (prev) :  00000000
  01  decompress_data
      | Stack used (prev) :  00000000
      | + function block  :  0000004C
  <-Sub-tree of type: Indirectly called function tree that does not make
                    : indirect calls (Is not an interrupt and is not flagged
                    : as not overlayable)
    | Stack used          :  0000004C


  ->Sub-tree of type: Indirectly called function tree that does not make
                    : indirect calls (Is not an interrupt and is not flagged
                    : as not overlayable)
                             CSTACK
    | Stack used (prev) :  00000000
  01  decompress_smooth_data
      | Stack used (prev) :  00000000
      | + function block  :  00000134
  <-Sub-tree of type: Indirectly called function tree that does not make
                    : indirect calls (Is not an interrupt and is not flagged
                    : as not overlayable)
    | Stack used          :  00000134


  ->Sub-tree of type: Indirectly called function tree that does not make
                    : indirect calls (Is not an interrupt and is not flagged
                    : as not overlayable)
                             CSTACK
    | Stack used (prev) :  00000000
  01  ycc_rgb_convert
      | Stack used (prev) :  00000000
      | + function block  :  00000040
  <-Sub-tree of type: Indirectly called function tree that does not make
                    : indirect calls (Is not an interrupt and is not flagged
                    : as not overlayable)
    | Stack used          :  00000040


  ->Sub-tree of type: Indirectly called function tree that does not make
                    : indirect calls (Is not an interrupt and is not flagged
                    : as not overlayable)
                             CSTACK
    | Stack used (prev) :  00000000
  01  null_convert
      | Stack used (prev) :  00000000
      | + function block  :  00000028
  <-Sub-tree of type: Indirectly called function tree that does not make
                    : indirect calls (Is not an interrupt and is not flagged
                    : as not overlayable)
    | Stack used          :  00000028


  ->Sub-tree of type: Indirectly called function tree that does not make
                    : indirect calls (Is not an interrupt and is not flagged
                    : as not overlayable)
                             CSTACK
    | Stack used (prev) :  00000000
  01  grayscale_convert
      | Stack used (prev) :  00000000
      | + function block  :  00000014
  <-Sub-tree of type: Indirectly called function tree that does not make
                    : indirect calls (Is not an interrupt and is not flagged
                    : as not overlayable)
    | Stack used          :  00000014


  ->Sub-tree of type: Indirectly called function tree that does not make
                    : indirect calls (Is not an interrupt and is not flagged
                    : as not overlayable)
                             CSTACK
    | Stack used (prev) :  00000000
  01  gray_rgb_convert
      | Stack used (prev) :  00000000
      | + function block  :  00000018
  <-Sub-tree of type: Indirectly called function tree that does not make
                    : indirect calls (Is not an interrupt and is not flagged
                    : as not overlayable)
    | Stack used          :  00000018


  ->Sub-tree of type: Indirectly called function tree that does not make
                    : indirect calls (Is not an interrupt and is not flagged
                    : as not overlayable)
                             CSTACK
    | Stack used (prev) :  00000000
  01  ycck_cmyk_convert
      | Stack used (prev) :  00000000
      | + function block  :  00000044
  <-Sub-tree of type: Indirectly called function tree that does not make
                    : indirect calls (Is not an interrupt and is not flagged
                    : as not overlayable)
    | Stack used          :  00000044


  ->Sub-tree of type: Indirectly called function tree that does not make
                    : indirect calls (Is not an interrupt and is not flagged
                    : as not overlayable)
                             CSTACK
    | Stack used (prev) :  00000000
  01  start_pass_dcolor
      | Stack used (prev) :  00000000
      | + function block  :  00000000
  <-Sub-tree of type: Indirectly called function tree that does not make
                    : indirect calls (Is not an interrupt and is not flagged
                    : as not overlayable)
    | Stack used          :  00000000


  ->Sub-tree of type: Indirectly called function tree that does not make
                    : indirect calls (Is not an interrupt and is not flagged
                    : as not overlayable)
                             CSTACK
    | Stack used (prev) :  00000000
  01  start_pass
      | Stack used (prev) :  00000000
      | + function block  :  00000024
  <-Sub-tree of type: Indirectly called function tree that does not make
                    : indirect calls (Is not an interrupt and is not flagged
                    : as not overlayable)
    | Stack used          :  00000024


  ->Sub-tree of type: Indirectly called function tree that does not make
                    : indirect calls (Is not an interrupt and is not flagged
                    : as not overlayable)
                             CSTACK
    | Stack used (prev) :  00000000
  01  start_pass_huff_decoder
      | Stack used (prev) :  00000000
      | + function block  :  0000001C
  <-Sub-tree of type: Indirectly called function tree that does not make
                    : indirect calls (Is not an interrupt and is not flagged
                    : as not overlayable)
    | Stack used          :  0000001C


  ->Sub-tree of type: Indirectly called function tree that does not make
                    : indirect calls (Is not an interrupt and is not flagged
                    : as not overlayable)
                             CSTACK
    | Stack used (prev) :  00000000
  01  decode_mcu
      | Stack used (prev) :  00000000
      | + function block  :  00000058
  <-Sub-tree of type: Indirectly called function tree that does not make
                    : indirect calls (Is not an interrupt and is not flagged
                    : as not overlayable)
    | Stack used          :  00000058


  ->Sub-tree of type: Indirectly called function tree that does not make
                    : indirect calls (Is not an interrupt and is not flagged
                    : as not overlayable)
                             CSTACK
    | Stack used (prev) :  00000000
  01  start_input_pass
      | Stack used (prev) :  00000000
      | + function block  :  0000000C
  <-Sub-tree of type: Indirectly called function tree that does not make
                    : indirect calls (Is not an interrupt and is not flagged
                    : as not overlayable)
    | Stack used          :  0000000C


  ->Sub-tree of type: Indirectly called function tree that does not make
                    : indirect calls (Is not an interrupt and is not flagged
                    : as not overlayable)
                             CSTACK
    | Stack used (prev) :  00000000
  01  finish_input_pass
      | Stack used (prev) :  00000000
      | + function block  :  00000000
  <-Sub-tree of type: Indirectly called function tree that does not make
                    : indirect calls (Is not an interrupt and is not flagged
                    : as not overlayable)
    | Stack used          :  00000000


  ->Sub-tree of type: Indirectly called function tree that does not make
                    : indirect calls (Is not an interrupt and is not flagged
                    : as not overlayable)
                             CSTACK
    | Stack used (prev) :  00000000
  01  consume_markers
      | Stack used (prev) :  00000000
      | + function block  :  00000014
  <-Sub-tree of type: Indirectly called function tree that does not make
                    : indirect calls (Is not an interrupt and is not flagged
                    : as not overlayable)
    | Stack used          :  00000014


  ->Sub-tree of type: Indirectly called function tree that does not make
                    : indirect calls (Is not an interrupt and is not flagged
                    : as not overlayable)
                             CSTACK
    | Stack used (prev) :  00000000
  01  reset_input_controller
      | Stack used (prev) :  00000000
      | + function block  :  00000010
  <-Sub-tree of type: Indirectly called function tree that does not make
                    : indirect calls (Is not an interrupt and is not flagged
                    : as not overlayable)
    | Stack used          :  00000010


  ->Sub-tree of type: Indirectly called function tree that does not make
                    : indirect calls (Is not an interrupt and is not flagged
                    : as not overlayable)
                             CSTACK
    | Stack used (prev) :  00000000
  01  start_pass_main
      | Stack used (prev) :  00000000
      | + function block  :  0000000C
  <-Sub-tree of type: Indirectly called function tree that does not make
                    : indirect calls (Is not an interrupt and is not flagged
                    : as not overlayable)
    | Stack used          :  0000000C


  ->Sub-tree of type: Indirectly called function tree that does not make
                    : indirect calls (Is not an interrupt and is not flagged
                    : as not overlayable)
                             CSTACK
    | Stack used (prev) :  00000000
  01  process_data_simple_main
      | Stack used (prev) :  00000000
      | + function block  :  0000002C
  <-Sub-tree of type: Indirectly called function tree that does not make
                    : indirect calls (Is not an interrupt and is not flagged
                    : as not overlayable)
    | Stack used          :  0000002C


  ->Sub-tree of type: Indirectly called function tree that does not make
                    : indirect calls (Is not an interrupt and is not flagged
                    : as not overlayable)
                             CSTACK
    | Stack used (prev) :  00000000
  01  process_data_context_main
      | Stack used (prev) :  00000000
      | + function block  :  0000002C
  <-Sub-tree of type: Indirectly called function tree that does not make
                    : indirect calls (Is not an interrupt and is not flagged
                    : as not overlayable)
    | Stack used          :  0000002C


  ->Sub-tree of type: Indirectly called function tree that does not make
                    : indirect calls (Is not an interrupt and is not flagged
                    : as not overlayable)
                             CSTACK
    | Stack used (prev) :  00000000
  01  get_interesting_appn
      | Stack used (prev) :  00000000
      | + function block  :  00000034
  <-Sub-tree of type: Indirectly called function tree that does not make
                    : indirect calls (Is not an interrupt and is not flagged
                    : as not overlayable)
    | Stack used          :  00000034


  ->Sub-tree of type: Indirectly called function tree that does not make
                    : indirect calls (Is not an interrupt and is not flagged
                    : as not overlayable)
                             CSTACK
    | Stack used (prev) :  00000000
  01  skip_variable
      | Stack used (prev) :  00000000
      | + function block  :  00000018
  <-Sub-tree of type: Indirectly called function tree that does not make
                    : indirect calls (Is not an interrupt and is not flagged
                    : as not overlayable)
    | Stack used          :  00000018


  ->Sub-tree of type: Indirectly called function tree that does not make
                    : indirect calls (Is not an interrupt and is not flagged
                    : as not overlayable)
                             CSTACK
    | Stack used (prev) :  00000000
  01  read_markers
      | Stack used (prev) :  00000000
      | + function block  :  00000014
  <-Sub-tree of type: Indirectly called function tree that does not make
                    : indirect calls (Is not an interrupt and is not flagged
                    : as not overlayable)
    | Stack used          :  00000014


  ->Sub-tree of type: Indirectly called function tree that does not make
                    : indirect calls (Is not an interrupt and is not flagged
                    : as not overlayable)
                             CSTACK
    | Stack used (prev) :  00000000
  01  read_restart_marker
      | Stack used (prev) :  00000000
      | + function block  :  0000000C
  <-Sub-tree of type: Indirectly called function tree that does not make
                    : indirect calls (Is not an interrupt and is not flagged
                    : as not overlayable)
    | Stack used          :  0000000C


  ->Sub-tree of type: Indirectly called function tree that does not make
                    : indirect calls (Is not an interrupt and is not flagged
                    : as not overlayable)
                             CSTACK
    | Stack used (prev) :  00000000
  01  jpeg_resync_to_restart
      | Stack used (prev) :  00000000
      | + function block  :  00000014
  <-Sub-tree of type: Indirectly called function tree that does not make
                    : indirect calls (Is not an interrupt and is not flagged
                    : as not overlayable)
    | Stack used          :  00000014


  ->Sub-tree of type: Indirectly called function tree that does not make
                    : indirect calls (Is not an interrupt and is not flagged
                    : as not overlayable)
                             CSTACK
    | Stack used (prev) :  00000000
  01  reset_marker_reader
      | Stack used (prev) :  00000000
      | + function block  :  00000000
  <-Sub-tree of type: Indirectly called function tree that does not make
                    : indirect calls (Is not an interrupt and is not flagged
                    : as not overlayable)
    | Stack used          :  00000000


  ->Sub-tree of type: Indirectly called function tree that does not make
                    : indirect calls (Is not an interrupt and is not flagged
                    : as not overlayable)
                             CSTACK
    | Stack used (prev) :  00000000
  01  prepare_for_output_pass
      | Stack used (prev) :  00000000
      | + function block  :  00000014
  <-Sub-tree of type: Indirectly called function tree that does not make
                    : indirect calls (Is not an interrupt and is not flagged
                    : as not overlayable)
    | Stack used          :  00000014


  ->Sub-tree of type: Indirectly called function tree that does not make
                    : indirect calls (Is not an interrupt and is not flagged
                    : as not overlayable)
                             CSTACK
    | Stack used (prev) :  00000000
  01  finish_output_pass
      | Stack used (prev) :  00000000
      | + function block  :  00000008
  <-Sub-tree of type: Indirectly called function tree that does not make
                    : indirect calls (Is not an interrupt and is not flagged
                    : as not overlayable)
    | Stack used          :  00000008


  ->Sub-tree of type: Indirectly called function tree that does not make
                    : indirect calls (Is not an interrupt and is not flagged
                    : as not overlayable)
                             CSTACK
    | Stack used (prev) :  00000000
  01  start_pass_merged_upsample
      | Stack used (prev) :  00000000
      | + function block  :  00000000
  <-Sub-tree of type: Indirectly called function tree that does not make
                    : indirect calls (Is not an interrupt and is not flagged
                    : as not overlayable)
    | Stack used          :  00000000


  ->Sub-tree of type: Indirectly called function tree that does not make
                    : indirect calls (Is not an interrupt and is not flagged
                    : as not overlayable)
                             CSTACK
    | Stack used (prev) :  00000000
  01  merged_2v_upsample
      | Stack used (prev) :  00000000
      | + function block  :  00000030
  <-Sub-tree of type: Indirectly called function tree that does not make
                    : indirect calls (Is not an interrupt and is not flagged
                    : as not overlayable)
    | Stack used          :  00000030


  ->Sub-tree of type: Indirectly called function tree that does not make
                    : indirect calls (Is not an interrupt and is not flagged
                    : as not overlayable)
                             CSTACK
    | Stack used (prev) :  00000000
  01  merged_1v_upsample
      | Stack used (prev) :  00000000
      | + function block  :  00000014
  <-Sub-tree of type: Indirectly called function tree that does not make
                    : indirect calls (Is not an interrupt and is not flagged
                    : as not overlayable)
    | Stack used          :  00000014


  ->Sub-tree of type: Indirectly called function tree that does not make
                    : indirect calls (Is not an interrupt and is not flagged
                    : as not overlayable)
                             CSTACK
    | Stack used (prev) :  00000000
  01  h2v1_merged_upsample
      | Stack used (prev) :  00000000
      | + function block  :  0000003C
  <-Sub-tree of type: Indirectly called function tree that does not make
                    : indirect calls (Is not an interrupt and is not flagged
                    : as not overlayable)
    | Stack used          :  0000003C


  ->Sub-tree of type: Indirectly called function tree that does not make
                    : indirect calls (Is not an interrupt and is not flagged
                    : as not overlayable)
                             CSTACK
    | Stack used (prev) :  00000000
  01  h2v2_merged_upsample
      | Stack used (prev) :  00000000
      | + function block  :  00000040
  <-Sub-tree of type: Indirectly called function tree that does not make
                    : indirect calls (Is not an interrupt and is not flagged
                    : as not overlayable)
    | Stack used          :  00000040


  ->Sub-tree of type: Indirectly called function tree that does not make
                    : indirect calls (Is not an interrupt and is not flagged
                    : as not overlayable)
                             CSTACK
    | Stack used (prev) :  00000000
  01  start_pass_phuff_decoder
      | Stack used (prev) :  00000000
      | + function block  :  0000002C
  <-Sub-tree of type: Indirectly called function tree that does not make
                    : indirect calls (Is not an interrupt and is not flagged
                    : as not overlayable)
    | Stack used          :  0000002C


  ->Sub-tree of type: Indirectly called function tree that does not make
                    : indirect calls (Is not an interrupt and is not flagged
                    : as not overlayable)
                             CSTACK
    | Stack used (prev) :  00000000
  01  decode_mcu_DC_first
      | Stack used (prev) :  00000000
      | + function block  :  00000058
  <-Sub-tree of type: Indirectly called function tree that does not make
                    : indirect calls (Is not an interrupt and is not flagged
                    : as not overlayable)
    | Stack used          :  00000058


  ->Sub-tree of type: Indirectly called function tree that does not make
                    : indirect calls (Is not an interrupt and is not flagged
                    : as not overlayable)
                             CSTACK
    | Stack used (prev) :  00000000
  01  decode_mcu_AC_first
      | Stack used (prev) :  00000000
      | + function block  :  00000044
  <-Sub-tree of type: Indirectly called function tree that does not make
                    : indirect calls (Is not an interrupt and is not flagged
                    : as not overlayable)
    | Stack used          :  00000044


  ->Sub-tree of type: Indirectly called function tree that does not make
                    : indirect calls (Is not an interrupt and is not flagged
                    : as not overlayable)
                             CSTACK
    | Stack used (prev) :  00000000
  01  decode_mcu_DC_refine
      | Stack used (prev) :  00000000
      | + function block  :  00000030
  <-Sub-tree of type: Indirectly called function tree that does not make
                    : indirect calls (Is not an interrupt and is not flagged
                    : as not overlayable)
    | Stack used          :  00000030


  ->Sub-tree of type: Indirectly called function tree that does not make
                    : indirect calls (Is not an interrupt and is not flagged
                    : as not overlayable)
                             CSTACK
    | Stack used (prev) :  00000000
  01  decode_mcu_AC_refine
      | Stack used (prev) :  00000000
      | + function block  :  00000158
  <-Sub-tree of type: Indirectly called function tree that does not make
                    : indirect calls (Is not an interrupt and is not flagged
                    : as not overlayable)
    | Stack used          :  00000158


  ->Sub-tree of type: Indirectly called function tree that does not make
                    : indirect calls (Is not an interrupt and is not flagged
                    : as not overlayable)
                             CSTACK
    | Stack used (prev) :  00000000
  01  start_pass_dpost
      | Stack used (prev) :  00000000
      | + function block  :  00000010
  <-Sub-tree of type: Indirectly called function tree that does not make
                    : indirect calls (Is not an interrupt and is not flagged
                    : as not overlayable)
    | Stack used          :  00000010


  ->Sub-tree of type: Indirectly called function tree that does not make
                    : indirect calls (Is not an interrupt and is not flagged
                    : as not overlayable)
                             CSTACK
    | Stack used (prev) :  00000000
  01  post_process_1pass
      | Stack used (prev) :  00000000
      | + function block  :  0000002C
  <-Sub-tree of type: Indirectly called function tree that does not make
                    : indirect calls (Is not an interrupt and is not flagged
                    : as not overlayable)
    | Stack used          :  0000002C


  ->Sub-tree of type: Indirectly called function tree that does not make
                    : indirect calls (Is not an interrupt and is not flagged
                    : as not overlayable)
                             CSTACK
    | Stack used (prev) :  00000000
  01  start_pass_upsample
      | Stack used (prev) :  00000000
      | + function block  :  00000000
  <-Sub-tree of type: Indirectly called function tree that does not make
                    : indirect calls (Is not an interrupt and is not flagged
                    : as not overlayable)
    | Stack used          :  00000000


  ->Sub-tree of type: Indirectly called function tree that does not make
                    : indirect calls (Is not an interrupt and is not flagged
                    : as not overlayable)
                             CSTACK
    | Stack used (prev) :  00000000
  01  sep_upsample
      | Stack used (prev) :  00000000
      | + function block  :  00000030
  <-Sub-tree of type: Indirectly called function tree that does not make
                    : indirect calls (Is not an interrupt and is not flagged
                    : as not overlayable)
    | Stack used          :  00000030


  ->Sub-tree of type: Indirectly called function tree that does not make
                    : indirect calls (Is not an interrupt and is not flagged
                    : as not overlayable)
                             CSTACK
    | Stack used (prev) :  00000000
  01  fullsize_upsample
      | Stack used (prev) :  00000000
      | + function block  :  00000000
  <-Sub-tree of type: Indirectly called function tree that does not make
                    : indirect calls (Is not an interrupt and is not flagged
                    : as not overlayable)
    | Stack used          :  00000000


  ->Sub-tree of type: Indirectly called function tree that does not make
                    : indirect calls (Is not an interrupt and is not flagged
                    : as not overlayable)
                             CSTACK
    | Stack used (prev) :  00000000
  01  noop_upsample
      | Stack used (prev) :  00000000
      | + function block  :  00000000
  <-Sub-tree of type: Indirectly called function tree that does not make
                    : indirect calls (Is not an interrupt and is not flagged
                    : as not overlayable)
    | Stack used          :  00000000


  ->Sub-tree of type: Indirectly called function tree that does not make
                    : indirect calls (Is not an interrupt and is not flagged
                    : as not overlayable)
                             CSTACK
    | Stack used (prev) :  00000000
  01  int_upsample
      | Stack used (prev) :  00000000
      | + function block  :  00000030
  <-Sub-tree of type: Indirectly called function tree that does not make
                    : indirect calls (Is not an interrupt and is not flagged
                    : as not overlayable)
    | Stack used          :  00000030


  ->Sub-tree of type: Indirectly called function tree that does not make
                    : indirect calls (Is not an interrupt and is not flagged
                    : as not overlayable)
                             CSTACK
    | Stack used (prev) :  00000000
  01  h2v1_upsample
      | Stack used (prev) :  00000000
      | + function block  :  0000001C
  <-Sub-tree of type: Indirectly called function tree that does not make
                    : indirect calls (Is not an interrupt and is not flagged
                    : as not overlayable)
    | Stack used          :  0000001C


  ->Sub-tree of type: Indirectly called function tree that does not make
                    : indirect calls (Is not an interrupt and is not flagged
                    : as not overlayable)
                             CSTACK
    | Stack used (prev) :  00000000
  01  h2v2_upsample
      | Stack used (prev) :  00000000
      | + function block  :  00000028
  <-Sub-tree of type: Indirectly called function tree that does not make
                    : indirect calls (Is not an interrupt and is not flagged
                    : as not overlayable)
    | Stack used          :  00000028


  ->Sub-tree of type: Indirectly called function tree that does not make
                    : indirect calls (Is not an interrupt and is not flagged
                    : as not overlayable)
                             CSTACK
    | Stack used (prev) :  00000000
  01  h2v1_fancy_upsample
      | Stack used (prev) :  00000000
      | + function block  :  0000001C
  <-Sub-tree of type: Indirectly called function tree that does not make
                    : indirect calls (Is not an interrupt and is not flagged
                    : as not overlayable)
    | Stack used          :  0000001C


  ->Sub-tree of type: Indirectly called function tree that does not make
                    : indirect calls (Is not an interrupt and is not flagged
                    : as not overlayable)
                             CSTACK
    | Stack used (prev) :  00000000
  01  h2v2_fancy_upsample
      | Stack used (prev) :  00000000
      | + function block  :  00000030
  <-Sub-tree of type: Indirectly called function tree that does not make
                    : indirect calls (Is not an interrupt and is not flagged
                    : as not overlayable)
    | Stack used          :  00000030


  ->Sub-tree of type: Indirectly called function tree that does not make
                    : indirect calls (Is not an interrupt and is not flagged
                    : as not overlayable)
                             CSTACK
    | Stack used (prev) :  00000000
  01  error_exit
      | Stack used (prev) :  00000000
      | + function block  :  00000008
  <-Sub-tree of type: Indirectly called function tree that does not make
                    : indirect calls (Is not an interrupt and is not flagged
                    : as not overlayable)
    | Stack used          :  00000008


  ->Sub-tree of type: Indirectly called function tree that does not make
                    : indirect calls (Is not an interrupt and is not flagged
                    : as not overlayable)
                             CSTACK
    | Stack used (prev) :  00000000
  01  output_message
      | Stack used (prev) :  00000000
      | + function block  :  00000000
  <-Sub-tree of type: Indirectly called function tree that does not make
                    : indirect calls (Is not an interrupt and is not flagged
                    : as not overlayable)
    | Stack used          :  00000000


  ->Sub-tree of type: Indirectly called function tree that does not make
                    : indirect calls (Is not an interrupt and is not flagged
                    : as not overlayable)
                             CSTACK
    | Stack used (prev) :  00000000
  01  emit_message
      | Stack used (prev) :  00000000
      | + function block  :  00000008
  <-Sub-tree of type: Indirectly called function tree that does not make
                    : indirect calls (Is not an interrupt and is not flagged
                    : as not overlayable)
    | Stack used          :  00000008


  ->Sub-tree of type: Indirectly called function tree that does not make
                    : indirect calls (Is not an interrupt and is not flagged
                    : as not overlayable)
                             CSTACK
    | Stack used (prev) :  00000000
  01  format_message
      | Stack used (prev) :  00000000
      | + function block  :  00000000
  <-Sub-tree of type: Indirectly called function tree that does not make
                    : indirect calls (Is not an interrupt and is not flagged
                    : as not overlayable)
    | Stack used          :  00000000


  ->Sub-tree of type: Indirectly called function tree that does not make
                    : indirect calls (Is not an interrupt and is not flagged
                    : as not overlayable)
                             CSTACK
    | Stack used (prev) :  00000000
  01  reset_error_mgr
      | Stack used (prev) :  00000000
      | + function block  :  00000000
  <-Sub-tree of type: Indirectly called function tree that does not make
                    : indirect calls (Is not an interrupt and is not flagged
                    : as not overlayable)
    | Stack used          :  00000000


  ->Sub-tree of type: Indirectly called function tree that does not make
                    : indirect calls (Is not an interrupt and is not flagged
                    : as not overlayable)
                             CSTACK
    | Stack used (prev) :  00000000
  01  jpeg_idct_ifast
      | Stack used (prev) :  00000000
      | + function block  :  00000140
  <-Sub-tree of type: Indirectly called function tree that does not make
                    : indirect calls (Is not an interrupt and is not flagged
                    : as not overlayable)
    | Stack used          :  00000140


  ->Sub-tree of type: Indirectly called function tree that does not make
                    : indirect calls (Is not an interrupt and is not flagged
                    : as not overlayable)
                             CSTACK
    | Stack used (prev) :  00000000
  01  jpeg_idct_islow
      | Stack used (prev) :  00000000
      | + function block  :  00000154
  <-Sub-tree of type: Indirectly called function tree that does not make
                    : indirect calls (Is not an interrupt and is not flagged
                    : as not overlayable)
    | Stack used          :  00000154


  ->Sub-tree of type: Indirectly called function tree that does not make
                    : indirect calls (Is not an interrupt and is not flagged
                    : as not overlayable)
                             CSTACK
    | Stack used (prev) :  00000000
  01  jpeg_idct_4x4
      | Stack used (prev) :  00000000
      | + function block  :  000000BC
  <-Sub-tree of type: Indirectly called function tree that does not make
                    : indirect calls (Is not an interrupt and is not flagged
                    : as not overlayable)
    | Stack used          :  000000BC


  ->Sub-tree of type: Indirectly called function tree that does not make
                    : indirect calls (Is not an interrupt and is not flagged
                    : as not overlayable)
                             CSTACK
    | Stack used (prev) :  00000000
  01  jpeg_idct_2x2
      | Stack used (prev) :  00000000
      | + function block  :  00000064
  <-Sub-tree of type: Indirectly called function tree that does not make
                    : indirect calls (Is not an interrupt and is not flagged
                    : as not overlayable)
    | Stack used          :  00000064


  ->Sub-tree of type: Indirectly called function tree that does not make
                    : indirect calls (Is not an interrupt and is not flagged
                    : as not overlayable)
                             CSTACK
    | Stack used (prev) :  00000000
  01  jpeg_idct_1x1
      | Stack used (prev) :  00000000
      | + function block  :  00000008
  <-Sub-tree of type: Indirectly called function tree that does not make
                    : indirect calls (Is not an interrupt and is not flagged
                    : as not overlayable)
    | Stack used          :  00000008


  ->Sub-tree of type: Indirectly called function tree that does not make
                    : indirect calls (Is not an interrupt and is not flagged
                    : as not overlayable)
                             CSTACK
    | Stack used (prev) :  00000000
  01  read_backing_store
      | Stack used (prev) :  00000000
      | + function block  :  0000001C
  <-Sub-tree of type: Indirectly called function tree that does not make
                    : indirect calls (Is not an interrupt and is not flagged
                    : as not overlayable)
    | Stack used          :  0000001C


  ->Sub-tree of type: Indirectly called function tree that does not make
                    : indirect calls (Is not an interrupt and is not flagged
                    : as not overlayable)
                             CSTACK
    | Stack used (prev) :  00000000
  01  write_backing_store
      | Stack used (prev) :  00000000
      | + function block  :  0000001C
  <-Sub-tree of type: Indirectly called function tree that does not make
                    : indirect calls (Is not an interrupt and is not flagged
                    : as not overlayable)
    | Stack used          :  0000001C


  ->Sub-tree of type: Indirectly called function tree that does not make
                    : indirect calls (Is not an interrupt and is not flagged
                    : as not overlayable)
                             CSTACK
    | Stack used (prev) :  00000000
  01  close_backing_store
      | Stack used (prev) :  00000000
      | + function block  :  00000008
  <-Sub-tree of type: Indirectly called function tree that does not make
                    : indirect calls (Is not an interrupt and is not flagged
                    : as not overlayable)
    | Stack used          :  00000008


  ->Sub-tree of type: Indirectly called function tree that does not make
                    : indirect calls (Is not an interrupt and is not flagged
                    : as not overlayable)
                             CSTACK
    | Stack used (prev) :  00000000
  01  alloc_small
      | Stack used (prev) :  00000000
      | + function block  :  00000020
  <-Sub-tree of type: Indirectly called function tree that does not make
                    : indirect calls (Is not an interrupt and is not flagged
                    : as not overlayable)
    | Stack used          :  00000020


  ->Sub-tree of type: Indirectly called function tree that does not make
                    : indirect calls (Is not an interrupt and is not flagged
                    : as not overlayable)
                             CSTACK
    | Stack used (prev) :  00000000
  01  alloc_large
      | Stack used (prev) :  00000000
      | + function block  :  00000018
  <-Sub-tree of type: Indirectly called function tree that does not make
                    : indirect calls (Is not an interrupt and is not flagged
                    : as not overlayable)
    | Stack used          :  00000018


  ->Sub-tree of type: Indirectly called function tree that does not make
                    : indirect calls (Is not an interrupt and is not flagged
                    : as not overlayable)
                             CSTACK
    | Stack used (prev) :  00000000
  01  alloc_sarray
      | Stack used (prev) :  00000000
      | + function block  :  00000020
  <-Sub-tree of type: Indirectly called function tree that does not make
                    : indirect calls (Is not an interrupt and is not flagged
                    : as not overlayable)
    | Stack used          :  00000020


  ->Sub-tree of type: Indirectly called function tree that does not make
                    : indirect calls (Is not an interrupt and is not flagged
                    : as not overlayable)
                             CSTACK
    | Stack used (prev) :  00000000
  01  alloc_barray
      | Stack used (prev) :  00000000
      | + function block  :  00000020
  <-Sub-tree of type: Indirectly called function tree that does not make
                    : indirect calls (Is not an interrupt and is not flagged
                    : as not overlayable)
    | Stack used          :  00000020


  ->Sub-tree of type: Indirectly called function tree that does not make
                    : indirect calls (Is not an interrupt and is not flagged
                    : as not overlayable)
                             CSTACK
    | Stack used (prev) :  00000000
  01  request_virt_sarray
      | Stack used (prev) :  00000000
      | + function block  :  0000001C
  <-Sub-tree of type: Indirectly called function tree that does not make
                    : indirect calls (Is not an interrupt and is not flagged
                    : as not overlayable)
    | Stack used          :  0000001C


  ->Sub-tree of type: Indirectly called function tree that does not make
                    : indirect calls (Is not an interrupt and is not flagged
                    : as not overlayable)
                             CSTACK
    | Stack used (prev) :  00000000
  01  request_virt_barray
      | Stack used (prev) :  00000000
      | + function block  :  0000001C
  <-Sub-tree of type: Indirectly called function tree that does not make
                    : indirect calls (Is not an interrupt and is not flagged
                    : as not overlayable)
    | Stack used          :  0000001C


  ->Sub-tree of type: Indirectly called function tree that does not make
                    : indirect calls (Is not an interrupt and is not flagged
                    : as not overlayable)
                             CSTACK
    | Stack used (prev) :  00000000
  01  realize_virt_arrays
      | Stack used (prev) :  00000000
      | + function block  :  0000001C
  <-Sub-tree of type: Indirectly called function tree that does not make
                    : indirect calls (Is not an interrupt and is not flagged
                    : as not overlayable)
    | Stack used          :  0000001C


  ->Sub-tree of type: Indirectly called function tree that does not make
                    : indirect calls (Is not an interrupt and is not flagged
                    : as not overlayable)
                             CSTACK
    | Stack used (prev) :  00000000
  01  access_virt_sarray
      | Stack used (prev) :  00000000
      | + function block  :  00000020
  <-Sub-tree of type: Indirectly called function tree that does not make
                    : indirect calls (Is not an interrupt and is not flagged
                    : as not overlayable)
    | Stack used          :  00000020


  ->Sub-tree of type: Indirectly called function tree that does not make
                    : indirect calls (Is not an interrupt and is not flagged
                    : as not overlayable)
                             CSTACK
    | Stack used (prev) :  00000000
  01  access_virt_barray
      | Stack used (prev) :  00000000
      | + function block  :  00000020
  <-Sub-tree of type: Indirectly called function tree that does not make
                    : indirect calls (Is not an interrupt and is not flagged
                    : as not overlayable)
    | Stack used          :  00000020


  ->Sub-tree of type: Indirectly called function tree that does not make
                    : indirect calls (Is not an interrupt and is not flagged
                    : as not overlayable)
                             CSTACK
    | Stack used (prev) :  00000000
  01  free_pool
      | Stack used (prev) :  00000000
      | + function block  :  00000018
  <-Sub-tree of type: Indirectly called function tree that does not make
                    : indirect calls (Is not an interrupt and is not flagged
                    : as not overlayable)
    | Stack used          :  00000018


  ->Sub-tree of type: Indirectly called function tree that does not make
                    : indirect calls (Is not an interrupt and is not flagged
                    : as not overlayable)
                             CSTACK
    | Stack used (prev) :  00000000
  01  self_destruct
      | Stack used (prev) :  00000000
      | + function block  :  0000000C
  <-Sub-tree of type: Indirectly called function tree that does not make
                    : indirect calls (Is not an interrupt and is not flagged
                    : as not overlayable)
    | Stack used          :  0000000C


  ->Sub-tree of type: Function tree
                             CSTACK
    | Stack used (prev) :  0000042C
  01  RawInsertChar
      | Stack used (prev) :  0000042C
      | + function block  :  0000000C
  <-Sub-tree of type: Function tree
    | Stack used          :  00000438


  ->Sub-tree of type: Function tree
                             CSTACK
    | Stack used (prev) :  00000438
  01  AddNewStyle
      | Stack used (prev) :  00000438
      | + function block  :  00000008
  <-Sub-tree of type: Function tree
    | Stack used          :  00000440


  ->Sub-tree of type: Function tree
                             CSTACK
    | Stack used (prev) :  00000440
  01  AddBeginRef
      | Stack used (prev) :  00000440
      | + function block  :  00000004
  <-Sub-tree of type: Function tree
    | Stack used          :  00000444


  ->Sub-tree of type: Function tree
                             CSTACK
    | Stack used (prev) :  00000444
  01  AddBeginRefZ
      | Stack used (prev) :  00000444
      | + function block  :  00000004
  <-Sub-tree of type: Function tree
    | Stack used          :  00000448


  ->Sub-tree of type: Function tree
                             CSTACK
    | Stack used (prev) :  00000448
  01  AddToRefCache
      | Stack used (prev) :  00000448
      | + function block  :  00000008
  <-Sub-tree of type: Function tree
    | Stack used          :  00000450


  ->Sub-tree of type: Function tree
                             CSTACK
    | Stack used (prev) :  00000450
  01  AddEndRef
      | Stack used (prev) :  00000450
      | + function block  :  00000008
  <-Sub-tree of type: Function tree
    | Stack used          :  00000458


  ->Sub-tree of type: Function tree
                             CSTACK
    | Stack used (prev) :  00000458
  01  AddTextItem
      | Stack used (prev) :  00000458
      | + function block  :  00000010
  <-Sub-tree of type: Function tree
    | Stack used          :  00000468


  ->Sub-tree of type: Function tree
                             CSTACK
    | Stack used (prev) :  00000468
  01  AddBrItem
      | Stack used (prev) :  00000468
      | + function block  :  00000004
  <-Sub-tree of type: Function tree
    | Stack used          :  0000046C


  ->Sub-tree of type: Function tree
                             CSTACK
    | Stack used (prev) :  0000046C
  01  AddPItem
      | Stack used (prev) :  0000046C
      | + function block  :  00000004
  <-Sub-tree of type: Function tree
    | Stack used          :  00000470


  ->Sub-tree of type: Function tree
                             CSTACK
    | Stack used (prev) :  00000470
  01  AddPictureItemIndex
      | Stack used (prev) :  00000470
      | + function block  :  00000004
  <-Sub-tree of type: Function tree
    | Stack used          :  00000474


  ->Sub-tree of type: Function tree
                             CSTACK
    | Stack used (prev) :  00000474
  01  AddToDPngQueue
      | Stack used (prev) :  00000474
      | + function block  :  0000001C
  <-Sub-tree of type: Function tree
    | Stack used          :  00000490


  ->Sub-tree of type: Function tree
                             CSTACK
    | Stack used (prev) :  00000490
  01  AddPictureItem
      | Stack used (prev) :  00000490
      | + function block  :  00000010
  <-Sub-tree of type: Function tree
    | Stack used          :  000004A0


  ->Sub-tree of type: Function tree
                             CSTACK
    | Stack used (prev) :  000004A0
  01  AddPictureItemRGBA
      | Stack used (prev) :  000004A0
      | + function block  :  0000000C
  <-Sub-tree of type: Function tree
    | Stack used          :  000004AC


  ->Sub-tree of type: Function tree
                             CSTACK
    | Stack used (prev) :  000004AC
  01  FindOmsFrameBySize
      | Stack used (prev) :  000004AC
      | + function block  :  00000000
  <-Sub-tree of type: Function tree
    | Stack used          :  000004AC


  ->Sub-tree of type: Function tree
                             CSTACK
    | Stack used (prev) :  000004AC
  01  AddPictureItemFrame
      | Stack used (prev) :  000004AC
      | + function block  :  00000014
  <-Sub-tree of type: Function tree
    | Stack used          :  000004C0


  ->Sub-tree of type: Function tree
                             CSTACK
    | Stack used (prev) :  000004C0
  01  AddPictureItemHr
      | Stack used (prev) :  000004C0
      | + function block  :  00000010
  <-Sub-tree of type: Function tree
    | Stack used          :  000004D0


  ->Sub-tree of type: Function tree
                             CSTACK
    | Stack used (prev) :  000004D0
  01  AddPictureItemFile
      | Stack used (prev) :  000004D0
      | + function block  :  0000003C
  <-Sub-tree of type: Function tree
    | Stack used          :  0000050C


  ->Sub-tree of type: Function tree
                             CSTACK
    | Stack used (prev) :  0000050C
  01  AddRadioButton
      | Stack used (prev) :  0000050C
      | + function block  :  00000014
  <-Sub-tree of type: Function tree
    | Stack used          :  00000520


  ->Sub-tree of type: Function tree
                             CSTACK
    | Stack used (prev) :  00000520
  01  AddCheckBoxItem
      | Stack used (prev) :  00000520
      | + function block  :  00000014
  <-Sub-tree of type: Function tree
    | Stack used          :  00000534


  ->Sub-tree of type: Function tree
                             CSTACK
    | Stack used (prev) :  00000534
  01  AddInputItem
      | Stack used (prev) :  00000534
      | + function block  :  00000010
  <-Sub-tree of type: Function tree
    | Stack used          :  00000544


  ->Sub-tree of type: Function tree
                             CSTACK
    | Stack used (prev) :  00000544
  01  AddButtonItem
      | Stack used (prev) :  00000544
      | + function block  :  00000018
  <-Sub-tree of type: Function tree
    | Stack used          :  0000055C


  ->Sub-tree of type: Function tree
                             CSTACK
    | Stack used (prev) :  0000055C
  01  AddDropDownList
      | Stack used (prev) :  0000055C
      | + function block  :  0000000C
  <-Sub-tree of type: Function tree
    | Stack used          :  00000568


  ->Sub-tree of type: Function tree
                             CSTACK
    | Stack used (prev) :  00000568
  01  LoadConfigData
      | Stack used (prev) :  00000568
      | + function block  :  00000030
  <-Sub-tree of type: Function tree
    | Stack used          :  00000598


  ->Sub-tree of type: Function tree
                             CSTACK
    | Stack used (prev) :  00000598
  01  InitConfig
      | Stack used (prev) :  00000598
      | + function block  :  00000008
  <-Sub-tree of type: Function tree
    | Stack used          :  000005A0


  ->Sub-tree of type: Function tree
                             CSTACK
    | Stack used (prev) :  000005A0
  01  FreeDynImgList
      | Stack used (prev) :  000005A0
      | + function block  :  0000000C
  <-Sub-tree of type: Function tree
    | Stack used          :  000005AC


  ->Sub-tree of type: Function tree
                             CSTACK
    | Stack used (prev) :  000005AC
  01  FreeViewData
      | Stack used (prev) :  000005AC
      | + function block  :  0000000C
  <-Sub-tree of type: Function tree
    | Stack used          :  000005B8


  ->Sub-tree of type: Function tree
                             CSTACK
    | Stack used (prev) :  000005B8
  01  patch_header
      | Stack used (prev) :  000005B8
      | + function block  :  00000008
  <-Sub-tree of type: Function tree
    | Stack used          :  000005C0


  ->Sub-tree of type: Function tree
                             CSTACK
    | Stack used (prev) :  000005C0
  01  patch_input
      | Stack used (prev) :  000005C0
      | + function block  :  0000000C
  <-Sub-tree of type: Function tree
    | Stack used          :  000005CC


  ->Sub-tree of type: Function tree
                             CSTACK
    | Stack used (prev) :  000005CC
  01  GetFontHeight
      | Stack used (prev) :  000005CC
      | + function block  :  00000008
  <-Sub-tree of type: Function tree
    | Stack used          :  000005D4


  ->Sub-tree of type: Function tree
                             CSTACK
    | Stack used (prev) :  000005D4
  01  GetSymbolBitmapWidth
      | Stack used (prev) :  000005D4
      | + function block  :  00000004
  <-Sub-tree of type: Function tree
    | Stack used          :  000005D8


  ->Sub-tree of type: Function tree
                             CSTACK
    | Stack used (prev) :  000005D8
  01  GetBitmapHeight
      | Stack used (prev) :  000005D8
      | + function block  :  00000004
  <-Sub-tree of type: Function tree
    | Stack used          :  000005DC


  ->Sub-tree of type: Function tree
                             CSTACK
    | Stack used (prev) :  000005DC
  01  SearchNextDisplayLine
      | Stack used (prev) :  000005DC
      | + function block  :  00000024
  <-Sub-tree of type: Function tree
    | Stack used          :  00000600


  ->Sub-tree of type: Function tree
                             CSTACK
    | Stack used (prev) :  00000600
  01  newCacheLine
      | Stack used (prev) :  00000600
      | + function block  :  0000000C
  <-Sub-tree of type: Function tree
    | Stack used          :  0000060C


  ->Sub-tree of type: Function tree
                             CSTACK
    | Stack used (prev) :  0000060C
  01  LineDown
      | Stack used (prev) :  0000060C
      | + function block  :  00000020
  <-Sub-tree of type: Function tree
    | Stack used          :  0000062C


  ->Sub-tree of type: Function tree
                             CSTACK
    | Stack used (prev) :  0000062C
  01  LineUp
      | Stack used (prev) :  0000062C
      | + function block  :  00000000
  <-Sub-tree of type: Function tree
    | Stack used          :  0000062C


  ->Sub-tree of type: Function tree
                             CSTACK
    | Stack used (prev) :  0000062C
  01  scrollDown
      | Stack used (prev) :  0000062C
      | + function block  :  0000000C
  <-Sub-tree of type: Function tree
    | Stack used          :  00000638


  ->Sub-tree of type: Function tree
                             CSTACK
    | Stack used (prev) :  00000638
  01  scrollUp
      | Stack used (prev) :  00000638
      | + function block  :  0000000C
  <-Sub-tree of type: Function tree
    | Stack used          :  00000644


  ->Sub-tree of type: Function tree
                             CSTACK
    | Stack used (prev) :  00000644
  01  renderForm
      | Stack used (prev) :  00000644
      | + function block  :  00000040
  <-Sub-tree of type: Function tree
    | Stack used          :  00000684


  ->Sub-tree of type: Function tree
                             CSTACK
    | Stack used (prev) :  00000684
  01  RenderPage
      | Stack used (prev) :  00000684
      | + function block  :  00000548
  <-Sub-tree of type: Function tree
    | Stack used          :  00000BCC


  ->Sub-tree of type: Function tree
                             CSTACK
    | Stack used (prev) :  00000BCC
  01  FindReferenceByBegin
      | Stack used (prev) :  00000BCC
      | + function block  :  00000000
  <-Sub-tree of type: Function tree
    | Stack used          :  00000BCC


  ->Sub-tree of type: Function tree
                             CSTACK
    | Stack used (prev) :  00000BCC
  01  FindReference
      | Stack used (prev) :  00000BCC
      | + function block  :  0000000C
  <-Sub-tree of type: Function tree
    | Stack used          :  00000BD8


  ->Sub-tree of type: Function tree
                             CSTACK
    | Stack used (prev) :  00000BD8
  01  FindReferenceById
      | Stack used (prev) :  00000BD8
      | + function block  :  00000010
  <-Sub-tree of type: Function tree
    | Stack used          :  00000BE8


  ->Sub-tree of type: Function tree
                             CSTACK
    | Stack used (prev) :  00000BE8
  01  FreeTemplates
      | Stack used (prev) :  00000BE8
      | + function block  :  00000008
  <-Sub-tree of type: Function tree
    | Stack used          :  00000BF0


  ->Sub-tree of type: Function tree
                             CSTACK
    | Stack used (prev) :  00000BF0
  01  SaveTextToTemplate
      | Stack used (prev) :  00000BF0
      | + function block  :  00000010
  <-Sub-tree of type: Function tree
    | Stack used          :  00000C00


  ->Sub-tree of type: Function tree
                             CSTACK
    | Stack used (prev) :  00000C00
  01  LoadTemplates
      | Stack used (prev) :  00000C00
      | + function block  :  00000050
  <-Sub-tree of type: Function tree
    | Stack used          :  00000C50


  ->Sub-tree of type: Function tree
                             CSTACK
    | Stack used (prev) :  00000C50
  01  createTemplatesMenu
      | Stack used (prev) :  00000C50
      | + function block  :  0000001C
  <-Sub-tree of type: Function tree
    | Stack used          :  00000C6C


  ->Sub-tree of type: Function tree
                             CSTACK
    | Stack used (prev) :  00000C6C
  01  CreateInputBox
      | Stack used (prev) :  00000C6C
      | + function block  :  0000004C
  <-Sub-tree of type: Function tree
    | Stack used          :  00000CB8


  ->Sub-tree of type: Function tree
                             CSTACK
    | Stack used (prev) :  00000CB8
  01  createTextView
      | Stack used (prev) :  00000CB8
      | + function block  :  00000054
  <-Sub-tree of type: Function tree
    | Stack used          :  00000D0C


  ->Sub-tree of type: Function tree
                             CSTACK
    | Stack used (prev) :  00000D0C
  01  ChangeMenuSelection
      | Stack used (prev) :  00000D0C
      | + function block  :  00000040
  <-Sub-tree of type: Function tree
    | Stack used          :  00000D4C


  ->Sub-tree of type: Function tree
                             CSTACK
    | Stack used (prev) :  00000D4C
  01  ShowLink
      | Stack used (prev) :  00000D4C
      | + function block  :  00000044
  <-Sub-tree of type: Function tree
    | Stack used          :  00000D90


  ->Sub-tree of type: Function tree
                             CSTACK
    | Stack used (prev) :  00000D90
  01  FindStringOnPage
      | Stack used (prev) :  00000D90
      | + function block  :  0000001C
  <-Sub-tree of type: Function tree
    | Stack used          :  00000DAC


  ->Sub-tree of type: Function tree
                             CSTACK
    | Stack used (prev) :  00000DAC
  01  getSymbolicPath
      | Stack used (prev) :  00000DAC
      | + function block  :  0000003C
  <-Sub-tree of type: Function tree
    | Stack used          :  00000DE8


  ->Sub-tree of type: Function tree
                             CSTACK
    | Stack used (prev) :  00000DE8
  01  ballet_fexists
      | Stack used (prev) :  00000DE8
      | + function block  :  00000038
  <-Sub-tree of type: Function tree
    | Stack used          :  00000E20


  ->Sub-tree of type: Function tree
                             CSTACK
    | Stack used (prev) :  00000E20
  01  make_dirs
      | Stack used (prev) :  00000E20
      | + function block  :  00000114
  <-Sub-tree of type: Function tree
    | Stack used          :  00000F34


  ->Sub-tree of type: Function tree
                             CSTACK
    | Stack used (prev) :  00000F34
  01  Free_FLIST
      | Stack used (prev) :  00000F34
      | + function block  :  00000008
  <-Sub-tree of type: Function tree
    | Stack used          :  00000F3C


  ->Sub-tree of type: Function tree
                             CSTACK
    | Stack used (prev) :  00000F3C
  01  AddToFListFM
      | Stack used (prev) :  00000F3C
      | + function block  :  00000018
  <-Sub-tree of type: Function tree
    | Stack used          :  00000F54


  ->Sub-tree of type: Function tree
                             CSTACK
    | Stack used (prev) :  00000F54
  01  FindFilesFM
      | Stack used (prev) :  00000F54
      | + function block  :  000004DC
  <-Sub-tree of type: Function tree
    | Stack used          :  00001430


  ->Sub-tree of type: Function tree
                             CSTACK
    | Stack used (prev) :  00001430
  01  FindFLISTtByNS
      | Stack used (prev) :  00001430
      | + function block  :  00000000
  <-Sub-tree of type: Function tree
    | Stack used          :  00001430


  ->Sub-tree of type: Function tree
                             CSTACK
    | Stack used (prev) :  00001430
  01  FindFLISTtByN
      | Stack used (prev) :  00001430
      | + function block  :  00000008
  <-Sub-tree of type: Function tree
    | Stack used          :  00001438


  ->Sub-tree of type: Function tree
                             CSTACK
    | Stack used (prev) :  00001438
  01  CreateRootMenu
      | Stack used (prev) :  00001438
      | + function block  :  00000030
  <-Sub-tree of type: Function tree
    | Stack used          :  00001468


  ->Sub-tree of type: Function tree
                             CSTACK
    | Stack used (prev) :  00001468
  01  open_fm
      | Stack used (prev) :  00001468
      | + function block  :  000000A0
  <-Sub-tree of type: Function tree
    | Stack used          :  00001508


  ->Sub-tree of type: Function tree
                             CSTACK
    | Stack used (prev) :  00001508
  01  GetHistory
      | Stack used (prev) :  00001508
      | + function block  :  00000040
  <-Sub-tree of type: Function tree
    | Stack used          :  00001548


  ->Sub-tree of type: Function tree
                             CSTACK
    | Stack used (prev) :  00001548
  01  AddURLToHistory
      | Stack used (prev) :  00001548
      | + function block  :  0000003C
  <-Sub-tree of type: Function tree
    | Stack used          :  00001584


  ->Sub-tree of type: Function tree
                             CSTACK
    | Stack used (prev) :  00001584
  01  SmartREDRAW
      | Stack used (prev) :  00001584
      | + function block  :  00000004
  <-Sub-tree of type: Function tree
    | Stack used          :  00001588


  ->Sub-tree of type: Function tree
                             CSTACK
    | Stack used (prev) :  00001588
  01  ClearSendQ
      | Stack used (prev) :  00001588
      | + function block  :  00000008
  <-Sub-tree of type: Function tree
    | Stack used          :  00001590


  ->Sub-tree of type: Function tree
                             CSTACK
    | Stack used (prev) :  00001590
  01  ClearRecvQ
      | Stack used (prev) :  00001590
      | + function block  :  00000008
  <-Sub-tree of type: Function tree
    | Stack used          :  00001598


  ->Sub-tree of type: Function tree
                             CSTACK
    | Stack used (prev) :  00001598
  01  writecache
      | Stack used (prev) :  00001598
      | + function block  :  00000014
  <-Sub-tree of type: Function tree
    | Stack used          :  000015AC


  ->Sub-tree of type: Function tree
                             CSTACK
    | Stack used (prev) :  000015AC
  01  ParseSocketMsg
      | Stack used (prev) :  000015AC
      | + function block  :  00000014
  <-Sub-tree of type: Function tree
    | Stack used          :  000015C0


  ->Sub-tree of type: Function tree
                             CSTACK
    | Stack used (prev) :  000015C0
  01  StartINET
      | Stack used (prev) :  000015C0
      | + function block  :  00000020
  <-Sub-tree of type: Function tree
    | Stack used          :  000015E0


  ->Sub-tree of type: Function tree
                             CSTACK
    | Stack used (prev) :  000015E0
  01  lgpInitLangPack
      | Stack used (prev) :  000015E0
      | + function block  :  000000D0
  <-Sub-tree of type: Function tree
    | Stack used          :  000016B0


  ->Sub-tree of type: Function tree
                             CSTACK
    | Stack used (prev) :  000016B0
  01  lgpFreeLangPack
      | Stack used (prev) :  000016B0
      | + function block  :  0000000C
  <-Sub-tree of type: Function tree
    | Stack used          :  000016BC


  ->Sub-tree of type: Function tree
                             CSTACK
    | Stack used (prev) :  000016BC
  01  patch_rect
      | Stack used (prev) :  000016BC
      | + function block  :  00000000
  <-Sub-tree of type: Function tree
    | Stack used          :  000016BC


  ->Sub-tree of type: Function tree
                             CSTACK
    | Stack used (prev) :  000016BC
  01  collectItemsParams
      | Stack used (prev) :  000016BC
      | + function block  :  0000002C
  <-Sub-tree of type: Function tree
    | Stack used          :  000016E8


  ->Sub-tree of type: Function tree
                             CSTACK
    | Stack used (prev) :  000016E8
  01  FreeViewUrl
      | Stack used (prev) :  000016E8
      | + function block  :  00000004
  <-Sub-tree of type: Function tree
    | Stack used          :  000016EC


  ->Sub-tree of type: Function tree
                             CSTACK
    | Stack used (prev) :  000016EC
  01  RunOtherByURL
      | Stack used (prev) :  000016EC
      | + function block  :  0000001C
  <-Sub-tree of type: Function tree
    | Stack used          :  00001708


  ->Sub-tree of type: Function tree
                             CSTACK
    | Stack used (prev) :  00001708
  01  GoToLocalLinkPos
      | Stack used (prev) :  00001708
      | + function block  :  00000018
  <-Sub-tree of type: Function tree
    | Stack used          :  00001720


  ->Sub-tree of type: Function tree
                             CSTACK
    | Stack used (prev) :  00001720
  01  CreateViewGUI
      | Stack used (prev) :  00001720
      | + function block  :  0000001C
  <-Sub-tree of type: Function tree
    | Stack used          :  0000173C


  ->Sub-tree of type: Function tree
                             CSTACK
    | Stack used (prev) :  0000173C
  01  KillAll
      | Stack used (prev) :  0000173C
      | + function block  :  00000008
  <-Sub-tree of type: Function tree
    | Stack used          :  00001744


  ->Sub-tree of type: Function tree
                             CSTACK
    | Stack used (prev) :  00001744
  01  UpdateCSMname
      | Stack used (prev) :  00001744
      | + function block  :  00000010
  <-Sub-tree of type: Function tree
    | Stack used          :  00001754


  ->Sub-tree of type: Function tree
                             CSTACK
    | Stack used (prev) :  00001754
  01  ReadUrlFile
      | Stack used (prev) :  00001754
      | + function block  :  00000040
  <-Sub-tree of type: Function tree
    | Stack used          :  00001794


  ->Sub-tree of type: Function tree
                             CSTACK
    | Stack used (prev) :  00001794
  01  ParseInputFilename
      | Stack used (prev) :  00001794
      | + function block  :  00000010
  <-Sub-tree of type: Function tree
    | Stack used          :  000017A4


  ->Sub-tree of type: Function tree
                             CSTACK
    | Stack used (prev) :  000017A4
  01  LoadAuthCode
      | Stack used (prev) :  000017A4
      | + function block  :  00000040
  <-Sub-tree of type: Function tree
    | Stack used          :  000017E4


  ->Sub-tree of type: Function tree
                             CSTACK
    | Stack used (prev) :  000017E4
  01  SaveAuthCode
      | Stack used (prev) :  000017E4
      | + function block  :  00000018
  <-Sub-tree of type: Function tree
    | Stack used          :  000017FC


  ->Sub-tree of type: Function tree
                             CSTACK
    | Stack used (prev) :  000017FC
  01  ReadPatch
      | Stack used (prev) :  000017FC
      | + function block  :  00000140
  <-Sub-tree of type: Function tree
    | Stack used          :  0000193C


  ->Sub-tree of type: Function tree
                             CSTACK
    | Stack used (prev) :  0000193C
  01  main
      | Stack used (prev) :  0000193C
      | + function block  :  0000009C
  <-Sub-tree of type: Function tree
    | Stack used          :  000019D8


  ->Sub-tree of type: Function tree
                             CSTACK
    | Stack used (prev) :  000019D8
  01  patch_header_small
      | Stack used (prev) :  000019D8
      | + function block  :  00000008
  <-Sub-tree of type: Function tree
    | Stack used          :  000019E0


  ->Sub-tree of type: Function tree
                             CSTACK
    | Stack used (prev) :  000019E0
  01  edit_bookmark_extract_name
      | Stack used (prev) :  000019E0
      | + function block  :  0000003C
  <-Sub-tree of type: Function tree
    | Stack used          :  00001A1C


  ->Sub-tree of type: Function tree
                             CSTACK
    | Stack used (prev) :  00001A1C
  01  edit_bookmark_extract_link
      | Stack used (prev) :  00001A1C
      | + function block  :  0000003C
  <-Sub-tree of type: Function tree
    | Stack used          :  00001A58


  ->Sub-tree of type: Function tree
                             CSTACK
    | Stack used (prev) :  00001A58
  01  show_edit_bookmark_menu
      | Stack used (prev) :  00001A58
      | + function block  :  00000088
  <-Sub-tree of type: Function tree
    | Stack used          :  00001AE0


  ->Sub-tree of type: Function tree
                             CSTACK
    | Stack used (prev) :  00001AE0
  01  show_bookmarks_options
      | Stack used (prev) :  00001AE0
      | + function block  :  00000030
  <-Sub-tree of type: Function tree
    | Stack used          :  00001B10


  ->Sub-tree of type: Function tree
                             CSTACK
    | Stack used (prev) :  00001B10
  01  Free_BList
      | Stack used (prev) :  00001B10
      | + function block  :  00000010
  <-Sub-tree of type: Function tree
    | Stack used          :  00001B20


  ->Sub-tree of type: Function tree
                             CSTACK
    | Stack used (prev) :  00001B20
  01  AddToFList
      | Stack used (prev) :  00001B20
      | + function block  :  00000018
  <-Sub-tree of type: Function tree
    | Stack used          :  00001B38


  ->Sub-tree of type: Function tree
                             CSTACK
    | Stack used (prev) :  00001B38
  01  FindFiles
      | Stack used (prev) :  00001B38
      | + function block  :  000004F0
  <-Sub-tree of type: Function tree
    | Stack used          :  00002028


  ->Sub-tree of type: Function tree
                             CSTACK
    | Stack used (prev) :  00002028
  01  FindBListByNS
      | Stack used (prev) :  00002028
      | + function block  :  00000000
  <-Sub-tree of type: Function tree
    | Stack used          :  00002028


  ->Sub-tree of type: Function tree
                             CSTACK
    | Stack used (prev) :  00002028
  01  FindBListByN
      | Stack used (prev) :  00002028
      | + function block  :  00000008
  <-Sub-tree of type: Function tree
    | Stack used          :  00002030


  ->Sub-tree of type: Function tree
                             CSTACK
    | Stack used (prev) :  00002030
  01  CreateBookmarksMenu
      | Stack used (prev) :  00002030
      | + function block  :  00000020
  <-Sub-tree of type: Function tree
    | Stack used          :  00002050


  ->Sub-tree of type: Function tree
                             CSTACK
    | Stack used (prev) :  00002050
  01  free_search_engines
      | Stack used (prev) :  00002050
      | + function block  :  00000010
  <-Sub-tree of type: Function tree
    | Stack used          :  00002060


  ->Sub-tree of type: Function tree
                             CSTACK
    | Stack used (prev) :  00002060
  01  get_search_engines
      | Stack used (prev) :  00002060
      | + function block  :  000003E0
  <-Sub-tree of type: Function tree
    | Stack used          :  00002440


  ->Sub-tree of type: Function tree
                             CSTACK
    | Stack used (prev) :  00002440
  01  CreateSearchDialog
      | Stack used (prev) :  00002440
      | + function block  :  00000064
  <-Sub-tree of type: Function tree
    | Stack used          :  000024A4


  ->Sub-tree of type: Function tree
                             CSTACK
    | Stack used (prev) :  000024A4
  01  CreateFindDialog
      | Stack used (prev) :  000024A4
      | + function block  :  00000068
  <-Sub-tree of type: Function tree
    | Stack used          :  0000250C


  ->Sub-tree of type: Function tree
                             CSTACK
    | Stack used (prev) :  0000250C
  01  fcopy
      | Stack used (prev) :  0000250C
      | + function block  :  00000050
  <-Sub-tree of type: Function tree
    | Stack used          :  0000255C


  ->Sub-tree of type: Function tree
                             CSTACK
    | Stack used (prev) :  0000255C
  01  CreateSavePageDialog
      | Stack used (prev) :  0000255C
      | + function block  :  00000050
  <-Sub-tree of type: Function tree
    | Stack used          :  000025AC


  ->Sub-tree of type: Function tree
                             CSTACK
    | Stack used (prev) :  000025AC
  01  CreateHistoryMenu
      | Stack used (prev) :  000025AC
      | + function block  :  00000020
  <-Sub-tree of type: Function tree
    | Stack used          :  000025CC


  ->Sub-tree of type: Function tree
                             CSTACK
    | Stack used (prev) :  000025CC
  01  CreateInputUrl
      | Stack used (prev) :  000025CC
      | + function block  :  00000048
  <-Sub-tree of type: Function tree
    | Stack used          :  00002614


  ->Sub-tree of type: Function tree
                             CSTACK
    | Stack used (prev) :  00002614
  01  About
      | Stack used (prev) :  00002614
      | + function block  :  00000104
  <-Sub-tree of type: Function tree
    | Stack used          :  00002718


  ->Sub-tree of type: Function tree
                             CSTACK
    | Stack used (prev) :  00002718
  01  CreateMainMenu
      | Stack used (prev) :  00002718
      | + function block  :  00000020
  <-Sub-tree of type: Function tree
    | Stack used          :  00002738


  ->Sub-tree of type: Function tree
                             CSTACK
    | Stack used (prev) :  00002738
  01  _rbyte
      | Stack used (prev) :  00002738
      | + function block  :  00000000
  <-Sub-tree of type: Function tree
    | Stack used          :  00002738


  ->Sub-tree of type: Function tree
                             CSTACK
    | Stack used (prev) :  00002738
  01  _rshort
      | Stack used (prev) :  00002738
      | + function block  :  00000000
  <-Sub-tree of type: Function tree
    | Stack used          :  00002738


  ->Sub-tree of type: Function tree
                             CSTACK
    | Stack used (prev) :  00002738
  01  _rlong
      | Stack used (prev) :  00002738
      | + function block  :  00000000
  <-Sub-tree of type: Function tree
    | Stack used          :  00002738


  ->Sub-tree of type: Function tree
                             CSTACK
    | Stack used (prev) :  00002738
  01  OMS_DataArrived
      | Stack used (prev) :  00002738
      | + function block  :  000000B8
  <-Sub-tree of type: Function tree
    | Stack used          :  000027F0


  ->Sub-tree of type: Function tree
                             CSTACK
    | Stack used (prev) :  000027F0
  01  msrand
      | Stack used (prev) :  000027F0
      | + function block  :  00000004
  <-Sub-tree of type: Function tree
    | Stack used          :  000027F4


  ->Sub-tree of type: Function tree
                             CSTACK
    | Stack used (prev) :  000027F4
  01  mrand
      | Stack used (prev) :  000027F4
      | + function block  :  00000000
  <-Sub-tree of type: Function tree
    | Stack used          :  000027F4


  ->Sub-tree of type: Function tree
                             CSTACK
    | Stack used (prev) :  000027F4
  01  mrandom
      | Stack used (prev) :  000027F4
      | + function block  :  00000008
  <-Sub-tree of type: Function tree
    | Stack used          :  000027FC


  ->Sub-tree of type: Function tree
                             CSTACK
    | Stack used (prev) :  000027FC
  01  read_pngimg
      | Stack used (prev) :  000027FC
      | + function block  :  00000050
  <-Sub-tree of type: Function tree
    | Stack used          :  0000284C


  ->Sub-tree of type: Function tree
                             CSTACK
    | Stack used (prev) :  0000284C
  01  read_jpgimg
      | Stack used (prev) :  0000284C
      | + function block  :  0000029C
  <-Sub-tree of type: Function tree
    | Stack used          :  00002AE8


  ->Sub-tree of type: Function tree
                             CSTACK
    | Stack used (prev) :  00002AE8
  01  ConvertRGBAToRGB8
      | Stack used (prev) :  00002AE8
      | + function block  :  00000018
  <-Sub-tree of type: Function tree
    | Stack used          :  00002B00


  ->Sub-tree of type: Function tree
                             CSTACK
    | Stack used (prev) :  00002B00
  01  CreateFrame
      | Stack used (prev) :  00002B00
      | + function block  :  00000014
  <-Sub-tree of type: Function tree
    | Stack used          :  00002B14


  ->Sub-tree of type: Function tree
                             CSTACK
    | Stack used (prev) :  00002B14
  01  CreateDelimiter
      | Stack used (prev) :  00002B14
      | + function block  :  00000014
  <-Sub-tree of type: Function tree
    | Stack used          :  00002B28


  ->Sub-tree of type: Function tree
                             CSTACK
    | Stack used (prev) :  00002B28
  01  CreateButton
      | Stack used (prev) :  00002B28
      | + function block  :  00000010
  <-Sub-tree of type: Function tree
    | Stack used          :  00002B38


  ->Sub-tree of type: Function tree
                             CSTACK
    | Stack used (prev) :  00002B38
  01  _rshort
      | Stack used (prev) :  00002B38
      | + function block  :  00000000
  <-Sub-tree of type: Function tree
    | Stack used          :  00002B38


  ->Sub-tree of type: Function tree
                             CSTACK
    | Stack used (prev) :  00002B38
  01  _rshort2
      | Stack used (prev) :  00002B38
      | + function block  :  00000000
  <-Sub-tree of type: Function tree
    | Stack used          :  00002B38


  ->Sub-tree of type: Function tree
                             CSTACK
    | Stack used (prev) :  00002B38
  01  strcmp_nocase
      | Stack used (prev) :  00002B38
      | + function block  :  00000000
  <-Sub-tree of type: Function tree
    | Stack used          :  00002B38


  ->Sub-tree of type: Function tree
                             CSTACK
    | Stack used (prev) :  00002B38
  01  omstrcmp
      | Stack used (prev) :  00002B38
      | + function block  :  00000014
  <-Sub-tree of type: Function tree
    | Stack used          :  00002B4C


  ->Sub-tree of type: Function tree
                             CSTACK
    | Stack used (prev) :  00002B4C
  01  globalstr
      | Stack used (prev) :  00002B4C
      | + function block  :  00000010
  <-Sub-tree of type: Function tree
    | Stack used          :  00002B5C


  ->Sub-tree of type: Function tree
                             CSTACK
    | Stack used (prev) :  00002B5C
  01  freegstr
      | Stack used (prev) :  00002B5C
      | + function block  :  00000008
  <-Sub-tree of type: Function tree
    | Stack used          :  00002B64


  ->Sub-tree of type: Function tree
                             CSTACK
    | Stack used (prev) :  00002B64
  01  char16to8
      | Stack used (prev) :  00002B64
      | + function block  :  00000000
  <-Sub-tree of type: Function tree
    | Stack used          :  00002B64


  ->Sub-tree of type: Function tree
                             CSTACK
    | Stack used (prev) :  00002B64
  01  char8to16
      | Stack used (prev) :  00002B64
      | + function block  :  00000000
  <-Sub-tree of type: Function tree
    | Stack used          :  00002B64


  ->Sub-tree of type: Function tree
                             CSTACK
    | Stack used (prev) :  00002B64
  01  ws2ascii
      | Stack used (prev) :  00002B64
      | + function block  :  00000014
  <-Sub-tree of type: Function tree
    | Stack used          :  00002B78


  ->Sub-tree of type: Function tree
                             CSTACK
    | Stack used (prev) :  00002B78
  01  ascii2ws
      | Stack used (prev) :  00002B78
      | + function block  :  0000000C
  <-Sub-tree of type: Function tree
    | Stack used          :  00002B84


  ->Sub-tree of type: Function tree
                             CSTACK
    | Stack used (prev) :  00002B84
  01  extract_omstr
      | Stack used (prev) :  00002B84
      | + function block  :  00000010
  <-Sub-tree of type: Function tree
    | Stack used          :  00002B94


  ->Sub-tree of type: Function tree
                             CSTACK
    | Stack used (prev) :  00002B94
  01  utf82win
      | Stack used (prev) :  00002B94
      | + function block  :  00000004
  <-Sub-tree of type: Function tree
    | Stack used          :  00002B98


  ->Sub-tree of type: Function tree
                             CSTACK
    | Stack used (prev) :  00002B98
  01  sfind8
      | Stack used (prev) :  00002B98
      | + function block  :  00000010
  <-Sub-tree of type: Function tree
    | Stack used          :  00002BA8


  ->Sub-tree of type: Function tree
                             CSTACK
    | Stack used (prev) :  00002BA8
  01  char_win2utf8
      | Stack used (prev) :  00002BA8
      | + function block  :  0000002C
  <-Sub-tree of type: Function tree
    | Stack used          :  00002BD4


  ->Sub-tree of type: Function tree
                             CSTACK
    | Stack used (prev) :  00002BD4
  01  ToWeb
      | Stack used (prev) :  00002BD4
      | + function block  :  0000001C
  <-Sub-tree of type: Function tree
    | Stack used          :  00002BF0


  ->Sub-tree of type: Function tree
                             CSTACK
    | Stack used (prev) :  00002BF0
  01  oms2ws
      | Stack used (prev) :  00002BF0
      | + function block  :  00000000
  <-Sub-tree of type: Function tree
    | Stack used          :  00002BF0


  ->Sub-tree of type: Function tree
                             CSTACK
    | Stack used (prev) :  00002BF0
  01  CompareWchar
      | Stack used (prev) :  00002BF0
      | + function block  :  00000000
  <-Sub-tree of type: Function tree
    | Stack used          :  00002BF0


  ->Sub-tree of type: Function tree
                             CSTACK
    | Stack used (prev) :  00002BF0
  01  GetFileDataLen
      | Stack used (prev) :  00002BF0
      | + function block  :  00000038
  <-Sub-tree of type: Function tree
    | Stack used          :  00002C28


  ->Sub-tree of type: Function tree
                             CSTACK
    | Stack used (prev) :  00002C28
  01  FillFileData
      | Stack used (prev) :  00002C28
      | + function block  :  0000002C
  <-Sub-tree of type: Function tree
    | Stack used          :  00002C54


  ->Sub-tree of type: Function tree
                             CSTACK
    | Stack used (prev) :  00002C54
  01  URL_unescape
      | Stack used (prev) :  00002C54
      | + function block  :  00000000
  <-Sub-tree of type: Function tree
    | Stack used          :  00002C54


  ->Sub-tree of type: Function tree
                             CSTACK
    | Stack used (prev) :  00002C54
  01  CharNeedsEscaping
      | Stack used (prev) :  00002C54
      | + function block  :  00000000
  <-Sub-tree of type: Function tree
    | Stack used          :  00002C54


  ->Sub-tree of type: Function tree
                             CSTACK
    | Stack used (prev) :  00002C54
  01  URL_reencode_escapes
      | Stack used (prev) :  00002C54
      | + function block  :  00000010
  <-Sub-tree of type: Function tree
    | Stack used          :  00002C64


  ->Sub-tree of type: Function tree
                             CSTACK
    | Stack used (prev) :  00002C64
  01  pagename
      | Stack used (prev) :  00002C64
      | + function block  :  00000014
  <-Sub-tree of type: Function tree
    | Stack used          :  00002C78


  ->Sub-tree of type: Function tree
                             CSTACK
    | Stack used (prev) :  00002C78
  01  getCurrPageName
      | Stack used (prev) :  00002C78
      | + function block  :  00000004
  <-Sub-tree of type: Function tree
    | Stack used          :  00002C7C


  ->Sub-tree of type: Function tree
                             CSTACK
    | Stack used (prev) :  00002C7C
  01  getPageParams
      | Stack used (prev) :  00002C7C
      | + function block  :  00000000
  <-Sub-tree of type: Function tree
    | Stack used          :  00002C7C


  ->Sub-tree of type: Function tree
                             CSTACK
    | Stack used (prev) :  00002C7C
  01  setUserList
      | Stack used (prev) :  00002C7C
      | + function block  :  00000018
  <-Sub-tree of type: Function tree
    | Stack used          :  00002C94


  ->Sub-tree of type: Function tree
                             CSTACK
    | Stack used (prev) :  00002C94
  01  setUserText
      | Stack used (prev) :  00002C94
      | + function block  :  00000018
  <-Sub-tree of type: Function tree
    | Stack used          :  00002CAC


  ->Sub-tree of type: Function tree
                             CSTACK
    | Stack used (prev) :  00002CAC
  01  setPageParams
      | Stack used (prev) :  00002CAC
      | + function block  :  00000000
  <-Sub-tree of type: Function tree
    | Stack used          :  00002CAC


  ->Sub-tree of type: Function tree
                             CSTACK
    | Stack used (prev) :  00002CAC
  01  getUserTextByRefId
      | Stack used (prev) :  00002CAC
      | + function block  :  00000000
  <-Sub-tree of type: Function tree
    | Stack used          :  00002CAC


  ->Sub-tree of type: Function tree
                             CSTACK
    | Stack used (prev) :  00002CAC
  01  getUserListByRefId
      | Stack used (prev) :  00002CAC
      | + function block  :  00000008
  <-Sub-tree of type: Function tree
    | Stack used          :  00002CB4


  ->Sub-tree of type: Function tree
                             CSTACK
    | Stack used (prev) :  00002CB4
  01  getViewLine
      | Stack used (prev) :  00002CB4
      | + function block  :  00000000
  <-Sub-tree of type: Function tree
    | Stack used          :  00002CB4


  ->Sub-tree of type: Function tree
                             CSTACK
    | Stack used (prev) :  00002CB4
  01  getPosCurRef
      | Stack used (prev) :  00002CB4
      | + function block  :  00000000
  <-Sub-tree of type: Function tree
    | Stack used          :  00002CB4


  ->Sub-tree of type: Function tree
                             CSTACK
    | Stack used (prev) :  00002CB4
  01  killpage
      | Stack used (prev) :  00002CB4
      | + function block  :  0000001C
  <-Sub-tree of type: Function tree
    | Stack used          :  00002CD0


  ->Sub-tree of type: Function tree
                             CSTACK
    | Stack used (prev) :  00002CD0
  01  PushPageToStack
      | Stack used (prev) :  00002CD0
      | + function block  :  00000024
  <-Sub-tree of type: Function tree
    | Stack used          :  00002CF4


  ->Sub-tree of type: Function tree
                             CSTACK
    | Stack used (prev) :  00002CF4
  01  PopPageFromStack
      | Stack used (prev) :  00002CF4
      | + function block  :  00000004
  <-Sub-tree of type: Function tree
    | Stack used          :  00002CF8


  ->Sub-tree of type: Function tree
                             CSTACK
    | Stack used (prev) :  00002CF8
  01  CheckPageStackTop
      | Stack used (prev) :  00002CF8
      | + function block  :  00000000
  <-Sub-tree of type: Function tree
    | Stack used          :  00002CF8


  ->Sub-tree of type: Function tree
                             CSTACK
    | Stack used (prev) :  00002CF8
  01  ForwardPageFromStack
      | Stack used (prev) :  00002CF8
      | + function block  :  00000004
  <-Sub-tree of type: Function tree
    | Stack used          :  00002CFC


  ->Sub-tree of type: Function tree
                             CSTACK
    | Stack used (prev) :  00002CFC
  01  FreePageStack
      | Stack used (prev) :  00002CFC
      | + function block  :  00000010
  <-Sub-tree of type: Function tree
    | Stack used          :  00002D0C


  ->Sub-tree of type: Function tree
                             CSTACK
    | Stack used (prev) :  00002D0C
  01  UpPageStack
      | Stack used (prev) :  00002D0C
      | + function block  :  00000000
  <-Sub-tree of type: Function tree
    | Stack used          :  00002D0C


  ->Sub-tree of type: Function tree
                             CSTACK
    | Stack used (prev) :  00002D0C
  01  InitUrlStack
      | Stack used (prev) :  00002D0C
      | + function block  :  0000000C
  <-Sub-tree of type: Function tree
    | Stack used          :  00002D18


  ->Sub-tree of type: Function tree
                             CSTACK
    | Stack used (prev) :  00002D18
  01  jpeg_abort
      | Stack used (prev) :  00002D18
      | + function block  :  00000010
  <-Sub-tree of type: Function tree
    | Stack used          :  00002D28


  ->Sub-tree of type: Function tree
                             CSTACK
    | Stack used (prev) :  00002D28
  01  jpeg_destroy
      | Stack used (prev) :  00002D28
      | + function block  :  00000008
  <-Sub-tree of type: Function tree
    | Stack used          :  00002D30


  ->Sub-tree of type: Function tree
                             CSTACK
    | Stack used (prev) :  00002D30
  01  jpeg_alloc_quant_table
      | Stack used (prev) :  00002D30
      | + function block  :  00000004
  <-Sub-tree of type: Function tree
    | Stack used          :  00002D34


  ->Sub-tree of type: Function tree
                             CSTACK
    | Stack used (prev) :  00002D34
  01  jpeg_alloc_huff_table
      | Stack used (prev) :  00002D34
      | + function block  :  00000004
  <-Sub-tree of type: Function tree
    | Stack used          :  00002D38


  ->Sub-tree of type: Function tree
                             CSTACK
    | Stack used (prev) :  00002D38
  01  jpeg_CreateDecompress
      | Stack used (prev) :  00002D38
      | + function block  :  00000018
  <-Sub-tree of type: Function tree
    | Stack used          :  00002D50


  ->Sub-tree of type: Function tree
                             CSTACK
    | Stack used (prev) :  00002D50
  01  jpeg_destroy_decompress
      | Stack used (prev) :  00002D50
      | + function block  :  00000004
  <-Sub-tree of type: Function tree
    | Stack used          :  00002D54


  ->Sub-tree of type: Function tree
                             CSTACK
    | Stack used (prev) :  00002D54
  01  default_decompress_parms
      | Stack used (prev) :  00002D54
      | + function block  :  00000014
  <-Sub-tree of type: Function tree
    | Stack used          :  00002D68


  ->Sub-tree of type: Function tree
                             CSTACK
    | Stack used (prev) :  00002D68
  01  jpeg_read_header
      | Stack used (prev) :  00002D68
      | + function block  :  0000000C
  <-Sub-tree of type: Function tree
    | Stack used          :  00002D74


  ->Sub-tree of type: Function tree
                             CSTACK
    | Stack used (prev) :  00002D74
  01  jpeg_consume_input
      | Stack used (prev) :  00002D74
      | + function block  :  00000010
  <-Sub-tree of type: Function tree
    | Stack used          :  00002D84


  ->Sub-tree of type: Function tree
                             CSTACK
    | Stack used (prev) :  00002D84
  01  jpeg_finish_decompress
      | Stack used (prev) :  00002D84
      | + function block  :  00000010
  <-Sub-tree of type: Function tree
    | Stack used          :  00002D94


  ->Sub-tree of type: Function tree
                             CSTACK
    | Stack used (prev) :  00002D94
  01  jpeg_start_decompress
      | Stack used (prev) :  00002D94
      | + function block  :  00000010
  <-Sub-tree of type: Function tree
    | Stack used          :  00002DA4


  ->Sub-tree of type: Function tree
                             CSTACK
    | Stack used (prev) :  00002DA4
  01  jpeg_read_scanlines
      | Stack used (prev) :  00002DA4
      | + function block  :  00000018
  <-Sub-tree of type: Function tree
    | Stack used          :  00002DBC


  ->Sub-tree of type: Function tree
                             CSTACK
    | Stack used (prev) :  00002DBC
  01  jpeg_stdio_src
      | Stack used (prev) :  00002DBC
      | + function block  :  0000000C
  <-Sub-tree of type: Function tree
    | Stack used          :  00002DC8


  ->Sub-tree of type: Function tree
                             CSTACK
    | Stack used (prev) :  00002DC8
  01  start_iMCU_row
      | Stack used (prev) :  00002DC8
      | + function block  :  00000004
  <-Sub-tree of type: Function tree
    | Stack used          :  00002DCC


  ->Sub-tree of type: Function tree
                             CSTACK
    | Stack used (prev) :  00002DCC
  01  smoothing_ok
      | Stack used (prev) :  00002DCC
      | + function block  :  00000018
  <-Sub-tree of type: Function tree
    | Stack used          :  00002DE4


  ->Sub-tree of type: Function tree
                             CSTACK
    | Stack used (prev) :  00002DE4
  01  jinit_d_coef_controller
      | Stack used (prev) :  00002DE4
      | + function block  :  00000030
  <-Sub-tree of type: Function tree
    | Stack used          :  00002E14


  ->Sub-tree of type: Function tree
                             CSTACK
    | Stack used (prev) :  00002E14
  01  build_ycc_rgb_table
      | Stack used (prev) :  00002E14
      | + function block  :  00000018
  <-Sub-tree of type: Function tree
    | Stack used          :  00002E2C


  ->Sub-tree of type: Function tree
                             CSTACK
    | Stack used (prev) :  00002E2C
  01  jinit_color_deconverter
      | Stack used (prev) :  00002E2C
      | + function block  :  00000014
  <-Sub-tree of type: Function tree
    | Stack used          :  00002E40


  ->Sub-tree of type: Function tree
                             CSTACK
    | Stack used (prev) :  00002E40
  01  jinit_inverse_dct
      | Stack used (prev) :  00002E40
      | + function block  :  0000001C
  <-Sub-tree of type: Function tree
    | Stack used          :  00002E5C


  ->Sub-tree of type: Function tree
                             CSTACK
    | Stack used (prev) :  00002E5C
  01  jpeg_make_d_derived_tbl
      | Stack used (prev) :  00002E5C
      | + function block  :  00000538
  <-Sub-tree of type: Function tree
    | Stack used          :  00003394


  ->Sub-tree of type: Function tree
                             CSTACK
    | Stack used (prev) :  00003394
  01  jpeg_fill_bit_buffer
      | Stack used (prev) :  00003394
      | + function block  :  00000024
  <-Sub-tree of type: Function tree
    | Stack used          :  000033B8


  ->Sub-tree of type: Function tree
                             CSTACK
    | Stack used (prev) :  000033B8
  01  jpeg_huff_decode
      | Stack used (prev) :  000033B8
      | + function block  :  00000018
  <-Sub-tree of type: Function tree
    | Stack used          :  000033D0


  ->Sub-tree of type: Function tree
                             CSTACK
    | Stack used (prev) :  000033D0
  01  jinit_huff_decoder
      | Stack used (prev) :  000033D0
      | + function block  :  00000008
  <-Sub-tree of type: Function tree
    | Stack used          :  000033D8


  ->Sub-tree of type: Function tree
                             CSTACK
    | Stack used (prev) :  000033D8
  01  initial_setup
      | Stack used (prev) :  000033D8
      | + function block  :  00000014
  <-Sub-tree of type: Function tree
    | Stack used          :  000033EC


  ->Sub-tree of type: Function tree
                             CSTACK
    | Stack used (prev) :  000033EC
  01  per_scan_setup
      | Stack used (prev) :  000033EC
      | + function block  :  0000001C
  <-Sub-tree of type: Function tree
    | Stack used          :  00003408


  ->Sub-tree of type: Function tree
                             CSTACK
    | Stack used (prev) :  00003408
  01  latch_quant_tables
      | Stack used (prev) :  00003408
      | + function block  :  00000020
  <-Sub-tree of type: Function tree
    | Stack used          :  00003428


  ->Sub-tree of type: Function tree
                             CSTACK
    | Stack used (prev) :  00003428
  01  jinit_input_controller
      | Stack used (prev) :  00003428
      | + function block  :  00000008
  <-Sub-tree of type: Function tree
    | Stack used          :  00003430


  ->Sub-tree of type: Function tree
                             CSTACK
    | Stack used (prev) :  00003430
  01  alloc_funny_pointers
      | Stack used (prev) :  00003430
      | + function block  :  00000028
  <-Sub-tree of type: Function tree
    | Stack used          :  00003458


  ->Sub-tree of type: Function tree
                             CSTACK
    | Stack used (prev) :  00003458
  01  make_funny_pointers
      | Stack used (prev) :  00003458
      | + function block  :  00000034
  <-Sub-tree of type: Function tree
    | Stack used          :  0000348C


  ->Sub-tree of type: Function tree
                             CSTACK
    | Stack used (prev) :  0000348C
  01  set_wraparound_pointers
      | Stack used (prev) :  0000348C
      | + function block  :  00000038
  <-Sub-tree of type: Function tree
    | Stack used          :  000034C4


  ->Sub-tree of type: Function tree
                             CSTACK
    | Stack used (prev) :  000034C4
  01  set_bottom_pointers
      | Stack used (prev) :  000034C4
      | + function block  :  0000001C
  <-Sub-tree of type: Function tree
    | Stack used          :  000034E0


  ->Sub-tree of type: Function tree
                             CSTACK
    | Stack used (prev) :  000034E0
  01  jinit_d_main_controller
      | Stack used (prev) :  000034E0
      | + function block  :  0000001C
  <-Sub-tree of type: Function tree
    | Stack used          :  000034FC


  ->Sub-tree of type: Function tree
                             CSTACK
    | Stack used (prev) :  000034FC
  01  get_soi
      | Stack used (prev) :  000034FC
      | + function block  :  00000014
  <-Sub-tree of type: Function tree
    | Stack used          :  00003510


  ->Sub-tree of type: Function tree
                             CSTACK
    | Stack used (prev) :  00003510
  01  get_sof
      | Stack used (prev) :  00003510
      | + function block  :  0000001C
  <-Sub-tree of type: Function tree
    | Stack used          :  0000352C


  ->Sub-tree of type: Function tree
                             CSTACK
    | Stack used (prev) :  0000352C
  01  get_sos
      | Stack used (prev) :  0000352C
      | + function block  :  0000002C
  <-Sub-tree of type: Function tree
    | Stack used          :  00003558


  ->Sub-tree of type: Function tree
                             CSTACK
    | Stack used (prev) :  00003558
  01  get_dht
      | Stack used (prev) :  00003558
      | + function block  :  0000013C
  <-Sub-tree of type: Function tree
    | Stack used          :  00003694


  ->Sub-tree of type: Function tree
                             CSTACK
    | Stack used (prev) :  00003694
  01  get_dqt
      | Stack used (prev) :  00003694
      | + function block  :  00000034
  <-Sub-tree of type: Function tree
    | Stack used          :  000036C8


  ->Sub-tree of type: Function tree
                             CSTACK
    | Stack used (prev) :  000036C8
  01  get_dri
      | Stack used (prev) :  000036C8
      | + function block  :  00000018
  <-Sub-tree of type: Function tree
    | Stack used          :  000036E0


  ->Sub-tree of type: Function tree
                             CSTACK
    | Stack used (prev) :  000036E0
  01  examine_app0
      | Stack used (prev) :  000036E0
      | + function block  :  00000014
  <-Sub-tree of type: Function tree
    | Stack used          :  000036F4


  ->Sub-tree of type: Function tree
                             CSTACK
    | Stack used (prev) :  000036F4
  01  examine_app14
      | Stack used (prev) :  000036F4
      | + function block  :  00000010
  <-Sub-tree of type: Function tree
    | Stack used          :  00003704


  ->Sub-tree of type: Function tree
                             CSTACK
    | Stack used (prev) :  00003704
  01  next_marker
      | Stack used (prev) :  00003704
      | + function block  :  0000001C
  <-Sub-tree of type: Function tree
    | Stack used          :  00003720


  ->Sub-tree of type: Function tree
                             CSTACK
    | Stack used (prev) :  00003720
  01  first_marker
      | Stack used (prev) :  00003720
      | + function block  :  0000001C
  <-Sub-tree of type: Function tree
    | Stack used          :  0000373C


  ->Sub-tree of type: Function tree
                             CSTACK
    | Stack used (prev) :  0000373C
  01  jinit_marker_reader
      | Stack used (prev) :  0000373C
      | + function block  :  0000000C
  <-Sub-tree of type: Function tree
    | Stack used          :  00003748


  ->Sub-tree of type: Function tree
                             CSTACK
    | Stack used (prev) :  00003748
  01  use_merged_upsample
      | Stack used (prev) :  00003748
      | + function block  :  00000004
  <-Sub-tree of type: Function tree
    | Stack used          :  0000374C


  ->Sub-tree of type: Function tree
                             CSTACK
    | Stack used (prev) :  0000374C
  01  jpeg_calc_output_dimensions
      | Stack used (prev) :  0000374C
      | + function block  :  00000014
  <-Sub-tree of type: Function tree
    | Stack used          :  00003760


  ->Sub-tree of type: Function tree
                             CSTACK
    | Stack used (prev) :  00003760
  01  prepare_range_limit_table
      | Stack used (prev) :  00003760
      | + function block  :  00000010
  <-Sub-tree of type: Function tree
    | Stack used          :  00003770


  ->Sub-tree of type: Function tree
                             CSTACK
    | Stack used (prev) :  00003770
  01  master_selection
      | Stack used (prev) :  00003770
      | + function block  :  00000014
  <-Sub-tree of type: Function tree
    | Stack used          :  00003784


  ->Sub-tree of type: Function tree
                             CSTACK
    | Stack used (prev) :  00003784
  01  jinit_master_decompress
      | Stack used (prev) :  00003784
      | + function block  :  00000008
  <-Sub-tree of type: Function tree
    | Stack used          :  0000378C


  ->Sub-tree of type: Function tree
                             CSTACK
    | Stack used (prev) :  0000378C
  01  build_ycc_rgb_table
      | Stack used (prev) :  0000378C
      | + function block  :  00000018
  <-Sub-tree of type: Function tree
    | Stack used          :  000037A4


  ->Sub-tree of type: Function tree
                             CSTACK
    | Stack used (prev) :  000037A4
  01  jinit_merged_upsampler
      | Stack used (prev) :  000037A4
      | + function block  :  00000010
  <-Sub-tree of type: Function tree
    | Stack used          :  000037B4


  ->Sub-tree of type: Function tree
                             CSTACK
    | Stack used (prev) :  000037B4
  01  process_restart
      | Stack used (prev) :  000037B4
      | + function block  :  00000014
  <-Sub-tree of type: Function tree
    | Stack used          :  000037C8


  ->Sub-tree of type: Function tree
                             CSTACK
    | Stack used (prev) :  000037C8
  01  jinit_phuff_decoder
      | Stack used (prev) :  000037C8
      | + function block  :  00000014
  <-Sub-tree of type: Function tree
    | Stack used          :  000037DC


  ->Sub-tree of type: Function tree
                             CSTACK
    | Stack used (prev) :  000037DC
  01  jinit_d_post_controller
      | Stack used (prev) :  000037DC
      | + function block  :  00000010
  <-Sub-tree of type: Function tree
    | Stack used          :  000037EC


  ->Sub-tree of type: Function tree
                             CSTACK
    | Stack used (prev) :  000037EC
  01  jinit_upsampler
      | Stack used (prev) :  000037EC
      | + function block  :  0000002C
  <-Sub-tree of type: Function tree
    | Stack used          :  00003818


  ->Sub-tree of type: Function tree
                             CSTACK
    | Stack used (prev) :  00003818
  01  jpeg_std_error
      | Stack used (prev) :  00003818
      | + function block  :  00000000
  <-Sub-tree of type: Function tree
    | Stack used          :  00003818


  ->Sub-tree of type: Function tree
                             CSTACK
    | Stack used (prev) :  00003818
  01  jpeg_get_small
      | Stack used (prev) :  00003818
      | + function block  :  00000004
  <-Sub-tree of type: Function tree
    | Stack used          :  0000381C


  ->Sub-tree of type: Function tree
                             CSTACK
    | Stack used (prev) :  0000381C
  01  jpeg_free_small
      | Stack used (prev) :  0000381C
      | + function block  :  00000004
  <-Sub-tree of type: Function tree
    | Stack used          :  00003820


  ->Sub-tree of type: Function tree
                             CSTACK
    | Stack used (prev) :  00003820
  01  jpeg_get_large
      | Stack used (prev) :  00003820
      | + function block  :  00000004
  <-Sub-tree of type: Function tree
    | Stack used          :  00003824


  ->Sub-tree of type: Function tree
                             CSTACK
    | Stack used (prev) :  00003824
  01  jpeg_free_large
      | Stack used (prev) :  00003824
      | + function block  :  00000004
  <-Sub-tree of type: Function tree
    | Stack used          :  00003828


  ->Sub-tree of type: Function tree
                             CSTACK
    | Stack used (prev) :  00003828
  01  jpeg_mem_available
      | Stack used (prev) :  00003828
      | + function block  :  00000000
  <-Sub-tree of type: Function tree
    | Stack used          :  00003828


  ->Sub-tree of type: Function tree
                             CSTACK
    | Stack used (prev) :  00003828
  01  jpeg_open_backing_store
      | Stack used (prev) :  00003828
      | + function block  :  0000000C
  <-Sub-tree of type: Function tree
    | Stack used          :  00003834


  ->Sub-tree of type: Function tree
                             CSTACK
    | Stack used (prev) :  00003834
  01  jpeg_mem_init
      | Stack used (prev) :  00003834
      | + function block  :  00000000
  <-Sub-tree of type: Function tree
    | Stack used          :  00003834


  ->Sub-tree of type: Function tree
                             CSTACK
    | Stack used (prev) :  00003834
  01  jpeg_mem_term
      | Stack used (prev) :  00003834
      | + function block  :  00000000
  <-Sub-tree of type: Function tree
    | Stack used          :  00003834


  ->Sub-tree of type: Function tree
                             CSTACK
    | Stack used (prev) :  00003834
  01  do_sarray_io
      | Stack used (prev) :  00003834
      | + function block  :  00000028
  <-Sub-tree of type: Function tree
    | Stack used          :  0000385C


  ->Sub-tree of type: Function tree
                             CSTACK
    | Stack used (prev) :  0000385C
  01  do_barray_io
      | Stack used (prev) :  0000385C
      | + function block  :  00000028
  <-Sub-tree of type: Function tree
    | Stack used          :  00003884


  ->Sub-tree of type: Function tree
                             CSTACK
    | Stack used (prev) :  00003884
  01  jinit_memory_mgr
      | Stack used (prev) :  00003884
      | + function block  :  00000014
  <-Sub-tree of type: Function tree
    | Stack used          :  00003898


  ->Sub-tree of type: Function tree
                             CSTACK
    | Stack used (prev) :  00003898
  01  jdiv_round_up
      | Stack used (prev) :  00003898
      | + function block  :  00000004
  <-Sub-tree of type: Function tree
    | Stack used          :  0000389C


  ->Sub-tree of type: Function tree
                             CSTACK
    | Stack used (prev) :  0000389C
  01  jround_up
      | Stack used (prev) :  0000389C
      | + function block  :  00000004
  <-Sub-tree of type: Function tree
    | Stack used          :  000038A0


  ->Sub-tree of type: Function tree
                             CSTACK
    | Stack used (prev) :  000038A0
  01  jcopy_sample_rows
      | Stack used (prev) :  000038A0
      | + function block  :  00000014
  <-Sub-tree of type: Function tree
    | Stack used          :  000038B4


  ->Sub-tree of type: Function tree
                             CSTACK
    | Stack used (prev) :  000038B4
  01  jcopy_block_row
      | Stack used (prev) :  000038B4
      | + function block  :  00000004
  <-Sub-tree of type: Function tree
    | Stack used          :  000038B8


  ->Sub-tree of type: Function tree
                             CSTACK
    | Stack used (prev) :  000038B8
  01  jzero_far
      | Stack used (prev) :  000038B8
      | + function block  :  00000004
  <-Sub-tree of type: Function tree
    | Stack used          :  000038BC




                ****************************************
                *                                      *
                *      SEGMENTS IN ADDRESS ORDER       *
                *                                      *
                ****************************************


SEGMENT              SPACE    START ADDRESS   END ADDRESS     SIZE  TYPE  ALIGN
=======              =====    =============   ===========     ====  ====  =====
ELFBEGIN             CODE_AREA           00000000                     rel    0
DATA_ID              CODE_AREA      00000000 - 00000983         984   rel    2
START                CODE_AREA           00000984                     dse    0
CODE                 CODE_AREA      00000984 - 000169E7       16064   rel    2
DATA_C               CODE_AREA      000169E8 - 00017F7E        1597   rel    2
INITTAB              CODE_AREA      00017F80 - 00017F97          18   rel    2
DATA_Z               CODE_AREA      00017F98 - 000182CB         334   rel    2
DATA_N               CODE_AREA           000182CC                     dse    0
CONFIG_C             CODE_AREA      000182CC - 00018C83         9B8   rel    2
DATA_I               DATA_AREA      00000000 - 00000983         984   rel    2

                ****************************************
                *                                      *
                *        END OF CROSS REFERENCE        *
                *                                      *
                ****************************************

 101 507 bytes of CODE memory
   2 436 bytes of DATA memory

Errors: none
Warnings: none

