##############################################################################
#                                                                            #
# IAR ARM ANSI C/C++ Compiler V4.42A/W32 EVALUATION    27/Dec/2010  18:19:53 #
# Copyright 1999-2005 IAR Systems. All rights reserved.                      #
#                                                                            #
#    Cpu mode        =  interwork                                            #
#    Endian          =  little                                               #
#    Stack alignment =  4                                                    #
#    Source file     =  C:\arm\BalletMini\destructors.c                      #
#    Command line    =  C:\arm\BalletMini\destructors.c -D NEWSGOLD -D ELKA  #
#                       -lC C:\arm\BalletMini\Release_ELKA\List\ -o          #
#                       C:\arm\BalletMini\Release_ELKA\Obj\ -s9 --no_unroll  #
#                       --no_inline --cpu_mode arm --endian little --cpu     #
#                       ARM926EJ-S --stack_align 4 --interwork -e --fpu      #
#                       None --dlib_config "C:\arm2\Embedded Workbench 4.0   #
#                       Evaluation\ARM\LIB\dl5tpainl8n.h" -I                 #
#                       "C:\arm2\Embedded Workbench 4.0 Evaluation\ARM\INC\" #
#    List file       =  C:\arm\BalletMini\Release_ELKA\List\destructors.lst  #
#    Object file     =  C:\arm\BalletMini\Release_ELKA\Obj\destructors.r79   #
#                                                                            #
#                                                                            #
##############################################################################

C:\arm\BalletMini\destructors.c
      1          #include "../inc/swilib.h"
      2          #include "view.h"
      3          #include "string_works.h"
      4          #include "destructors.h"
      5          

   \                                 In segment CODE, align 4, keep-with-next
      6          void FreeRawText(VIEWDATA *vd)
      7          {
   \                     FreeRawText:
   \   00000000   10402DE9           PUSH     {R4,LR}
   \   00000004   0040A0E1           MOV      R4,R0
      8            mfree(vd->rawtext);
   \   00000008   080094E5           LDR      R0,[R4, #+8]
   \   0000000C   150000EF           SWI      +21
      9            vd->rawtext=NULL;
   \   00000010   0000A0E3           MOV      R0,#+0
   \   00000014   080084E5           STR      R0,[R4, #+8]
     10            vd->rawtext_size=0;
   \   00000018   0C0084E5           STR      R0,[R4, #+12]
     11          }
   \   0000001C   1080BDE8           POP      {R4,PC}          ;; return
     12          

   \                                 In segment CODE, align 4, keep-with-next
     13          void FreeDynImgList(VIEWDATA *vd)
     14          {
   \                     FreeDynImgList:
   \   00000000   30402DE9           PUSH     {R4,R5,LR}
     15            OMS_DYNPNGLIST *dpl=vd->dynpng_list;
   \   00000004   784090E5           LDR      R4,[R0, #+120]
     16            vd->dynpng_list=NULL;
   \   00000008   0010A0E3           MOV      R1,#+0
   \   0000000C   781080E5           STR      R1,[R0, #+120]
   \   00000010   000054E3           CMP      R4,#+0
   \   00000014   3080BD08           POPEQ    {R4,R5,PC}
     17            while(dpl)
     18            {
     19              OMS_DYNPNGLIST *p=dpl;
   \                     ??FreeDynImgList_0:
   \   00000018   0450A0E1           MOV      R5,R4
     20              dpl=dpl->dp.next;
     21              if (p->dp.img)
   \   0000001C   080095E5           LDR      R0,[R5, #+8]
   \   00000020   004094E5           LDR      R4,[R4, #+0]
   \   00000024   000050E3           CMP      R0,#+0
   \   00000028   0300000A           BEQ      ??FreeDynImgList_1
     22              {
     23                mfree(p->dp.img->bitmap);
   \   0000002C   080090E5           LDR      R0,[R0, #+8]
   \   00000030   150000EF           SWI      +21
     24                mfree(p->dp.img);
   \   00000034   080095E5           LDR      R0,[R5, #+8]
   \   00000038   150000EF           SWI      +21
     25              }
     26              mfree(p);
   \                     ??FreeDynImgList_1:
   \   0000003C   0500A0E1           MOV      R0,R5
   \   00000040   150000EF           SWI      +21
     27            }
   \   00000044   000054E3           CMP      R4,#+0
   \   00000048   F2FFFF1A           BNE      ??FreeDynImgList_0
     28          }
   \   0000004C   3080BDE8           POP      {R4,R5,PC}       ;; return
     29          

   \                                 In segment CODE, align 4, keep-with-next
     30          void FreeViewData(VIEWDATA *vd)
     31          {
   \                     FreeViewData:
   \   00000000   30402DE9           PUSH     {R4,R5,LR}
   \   00000004   0040A0E1           MOV      R4,R0
     32            if (vd->zs)
   \   00000008   000094E5           LDR      R0,[R4, #+0]
   \   0000000C   000050E3           CMP      R0,#+0
   \   00000010   0200000A           BEQ      ??FreeViewData_0
     33            {
     34              inflateEnd(vd->zs);
   \   00000014   A10100EF           SWI      +417
     35              mfree(vd->zs);
   \   00000018   000094E5           LDR      R0,[R4, #+0]
   \   0000001C   150000EF           SWI      +21
     36            }
     37            if (vd->ws) FreeWS(vd->ws);
   \                     ??FreeViewData_0:
   \   00000020   240094E5           LDR      R0,[R4, #+36]
   \   00000024   000050E3           CMP      R0,#+0
   \   00000028   0000000A           BEQ      ??FreeViewData_1
   \   0000002C   290100EF           SWI      +297
     38            for (int i=0;i<vd->ref_cache_size;i++)
   \                     ??FreeViewData_1:
   \   00000030   D00094E5           LDR      R0,[R4, #+208]
   \   00000034   0050A0E3           MOV      R5,#+0
   \   00000038   010050E3           CMP      R0,#+1
   \   0000003C   210000AA           BGE      ??FreeViewData_2
     39            {
     40              REFCACHE *rf=vd->ref_cache+i;
     41              if (rf->tag=='x'||rf->tag=='p')
     42                if ((int)((WSHDR *)rf->data)!=0xFFFFFFFF)
     43                  FreeWS(((WSHDR *)rf->data));
     44              else if (rf->tag=='s')
     45              {
     46                mfree(rf->data);
     47              }
     48            }
     49            mfree(vd->ref_cache);
   \                     ??FreeViewData_3:
   \   00000040   CC0094E5           LDR      R0,[R4, #+204]
     50            vd->ref_cache=NULL;
   \   00000044   0050A0E3           MOV      R5,#+0
   \   00000048   150000EF           SWI      +21
   \   0000004C   CC5084E5           STR      R5,[R4, #+204]
     51            vd->ref_cache_size=0;
   \   00000050   D05084E5           STR      R5,[R4, #+208]
     52            mfree(vd->lines_cache);
   \   00000054   100094E5           LDR      R0,[R4, #+16]
   \   00000058   150000EF           SWI      +21
     53            vd->lines_cache=NULL;
   \   0000005C   105084E5           STR      R5,[R4, #+16]
     54            mfree(vd->rawtext);
   \   00000060   080094E5           LDR      R0,[R4, #+8]
   \   00000064   150000EF           SWI      +21
     55            vd->rawtext=NULL;
   \   00000068   085084E5           STR      R5,[R4, #+8]
     56            vd->rawtext_size=0;
   \   0000006C   0C5084E5           STR      R5,[R4, #+12]
     57            mfree(vd->oms);
   \   00000070   3C0094E5           LDR      R0,[R4, #+60]
   \   00000074   150000EF           SWI      +21
     58            vd->oms=NULL;
   \   00000078   3C5084E5           STR      R5,[R4, #+60]
     59            vd->oms_size=0;
   \   0000007C   405084E5           STR      R5,[R4, #+64]
     60          //  mfree(vd->I_cache);
     61            mfree(vd->S_cache);
   \   00000080   500094E5           LDR      R0,[R4, #+80]
   \   00000084   150000EF           SWI      +21
     62            vd->S_cache=NULL;
   \   00000088   505084E5           STR      R5,[R4, #+80]
     63            FreeDynImgList(vd); 
   \   0000008C   0400A0E1           MOV      R0,R4
   \   00000090   ........           BL       FreeDynImgList
     64            mfree(vd->pageurl);
   \   00000094   E00094E5           LDR      R0,[R4, #+224]
   \   00000098   150000EF           SWI      +21
     65            vd->pageurl=NULL;
   \   0000009C   E05084E5           STR      R5,[R4, #+224]
     66            mfree(vd->title);
   \   000000A0   E40094E5           LDR      R0,[R4, #+228]
   \   000000A4   150000EF           SWI      +21
     67            vd->title=NULL;
   \   000000A8   E45084E5           STR      R5,[R4, #+228]
     68            mfree(vd);
   \   000000AC   0400A0E1           MOV      R0,R4
   \   000000B0   150000EF           SWI      +21
     69          }
   \   000000B4   3080BDE8           POP      {R4,R5,PC}       ;; return
   \                     ??FreeViewData_4:
   \   000000B8   730051E3           CMP      R1,#+115
   \   000000BC   0000001A           BNE      ??FreeViewData_5
   \   000000C0   150000EF           SWI      +21
   \                     ??FreeViewData_5:
   \   000000C4   015085E2           ADD      R5,R5,#+1
   \                     ??FreeViewData_2:
   \   000000C8   D00094E5           LDR      R0,[R4, #+208]
   \   000000CC   000055E1           CMP      R5,R0
   \   000000D0   DAFFFFAA           BGE      ??FreeViewData_3
   \   000000D4   CC0094E5           LDR      R0,[R4, #+204]
   \   000000D8   2810A0E3           MOV      R1,#+40
   \   000000DC   910520E0           MLA      R0,R1,R5,R0
   \   000000E0   081090E5           LDR      R1,[R0, #+8]
   \   000000E4   780051E3           CMP      R1,#+120
   \   000000E8   70005113           CMPNE    R1,#+112
   \   000000EC   F4FFFF1A           BNE      ??FreeViewData_5
   \   000000F0   180090E5           LDR      R0,[R0, #+24]
   \   000000F4   010070E3           CMN      R0,#+1
   \   000000F8   EEFFFF0A           BEQ      ??FreeViewData_4
   \   000000FC   290100EF           SWI      +297
   \   00000100   EFFFFFEA           B        ??FreeViewData_5

   Maximum stack usage in bytes:

     Function       CSTACK
     --------       ------
     FreeDynImgList    12
     FreeRawText        8
     FreeViewData      12


   Segment part sizes:

     Function/Label Bytes
     -------------- -----
     FreeRawText      32
     FreeDynImgList   80
     FreeViewData    260
      Others          12

 
 384 bytes in segment CODE
 
 372 bytes of CODE memory (+ 12 bytes shared)

Errors: none
Warnings: none
