##############################################################################
#                                                                            #
# IAR ARM ANSI C/C++ Compiler V4.42A/W32 EVALUATION    27/Dec/2010  18:19:52 #
# Copyright 1999-2005 IAR Systems. All rights reserved.                      #
#                                                                            #
#    Cpu mode        =  interwork                                            #
#    Endian          =  little                                               #
#    Stack alignment =  4                                                    #
#    Source file     =  C:\arm\BalletMini\parse_oms.c                        #
#    Command line    =  C:\arm\BalletMini\parse_oms.c -D NEWSGOLD -D ELKA    #
#                       -lC C:\arm\BalletMini\Release_ELKA\List\ -o          #
#                       C:\arm\BalletMini\Release_ELKA\Obj\ -s9 --no_unroll  #
#                       --no_inline --cpu_mode arm --endian little --cpu     #
#                       ARM926EJ-S --stack_align 4 --interwork -e --fpu      #
#                       None --dlib_config "C:\arm2\Embedded Workbench 4.0   #
#                       Evaluation\ARM\LIB\dl5tpainl8n.h" -I                 #
#                       "C:\arm2\Embedded Workbench 4.0 Evaluation\ARM\INC\" #
#    List file       =  C:\arm\BalletMini\Release_ELKA\List\parse_oms.lst    #
#    Object file     =  C:\arm\BalletMini\Release_ELKA\Obj\parse_oms.r79     #
#                                                                            #
#                                                                            #
##############################################################################

C:\arm\BalletMini\parse_oms.c
      1          /*
      2          x [1] 2l lid 2l lvalue
      3          s 2l lid 1 2count o 2l lo_name 2l lo_id 1checked ...  // 1 странный байт на гугл сеттингс равен 0 на симка 1
      4          
      5          Известные поядки тэгов:
      6          L T E
      7          L I S T E
      8          L I T E
      9          L T S T T T B E
     10          L K E
     11          K
     12          L K I E
     13          Z J E
     14          i I
     15          i J
     16          i Z I E - yandex maps
     17          L Z I E E - patches siemens club
     18          L P T E T P T E T E - perk11.info/dantix
     19          L B T J E - глупости!
     20          L T B Y E - глупости!
     21          
     22          formum.siemens-club.org
     23          ...T P E B T B L K E L K E L K E L K E K K B T B T T B...
     24          ...K B T B L K I E B B T B T T...
     25          patches.siemens-club.org/patches
     26          S + T L Z I E E L I E B S L T B E B D I S T B S L T E
     27          L T B E B V Y T h_opf_1 C s B Y L T s B Y L T E B Y T 
     28          mywishlist.ru
     29          S X 9байт_каких_то + I 'какойто B + T L I S T E L I T
     30          E L I T E B L I E B S B D T h_opf_1 C x B T p B c T B
     31          V S L T B E B B N D  облом_внешняя_ошибка
     32          dtf.ru
     33          S X I + T L B S T L T E L I E h_opf_1 i=_id_value I L
     34          T B E B S L B D
     35          google.com/reader/m   -  purple magic
     36          S X + I + T L I E S T B B D V Y T B S B D T S
     37          T L T E Y T S L T E B Y T "2" Y T L T E Y T Y
     38          L T E B Y T "3" Y T L T E Y T Y L T E B Y T "4"
     39          Y T L T E Y T Y L T E B Y T "5" Y T L T T E Y T
     40          expert.com - компоновка картинок
     41          X + I + T L I E !B! L I E L I E B L I E L 
     42          wap.lingvo
     43          S + T S L B D T B S E T B h_opf_1 B Y L T B E L T B E L 
     44          */
     45          
     46          #include "../inc/swilib.h"
     47          #include "parse_oms.h"
     48          #include "additems.h"
     49          #include "string_works.h"
     50          #include "main.h"
     51          #include "display_utils.h"
     52          #include "history.h"
     53          #include "..\inc\zlib.h"
     54          //#include <stdlib.h>
     55          //#include <string.h>
     56          //#include <stdio.h>
     57          
     58          extern char AUTH_PREFIX[64];
     59          extern char AUTH_CODE[128];
     60          extern int SaveAuthCode(char *prefix, char *code);
     61          extern const int authcode_write_file;
     62          
     63          #pragma inline

   \                                 In segment CODE, align 4, keep-with-next
     64          unsigned int _rbyte(VIEWDATA *vd)
     65          {
     66            unsigned char *p=(unsigned char *)(vd->oms+vd->oms_pos);
     67            unsigned int r=*p++;
   \                     _rbyte:
   \   00000000   442090E5           LDR      R2,[R0, #+68]
   \   00000004   3C1090E5           LDR      R1,[R0, #+60]
   \   00000008   0110D2E7           LDRB     R1,[R2, +R1]
     68            vd->oms_pos+=1;
   \   0000000C   012082E2           ADD      R2,R2,#+1
   \   00000010   442080E5           STR      R2,[R0, #+68]
     69            return r;
   \   00000014   0100A0E1           MOV      R0,R1
   \   00000018   1EFF2FE1           BX       LR               ;; return
     70          }
     71          

   \                                 In segment CODE, align 4, keep-with-next
     72          static unsigned int _rshort(VIEWDATA *vd)
     73          {
     74            unsigned char *p=(unsigned char *)(vd->oms+vd->oms_pos);
   \                     _rshort:
   \   00000000   442090E5           LDR      R2,[R0, #+68]
   \   00000004   3C1090E5           LDR      R1,[R0, #+60]
   \   00000008   011082E0           ADD      R1,R2,R1
     75            unsigned int r=*p++;
   \   0000000C   ........           LDRB     R3,[R1], #+1
     76            r<<=8;
     77            r|=*p;
   \   00000010   0010D1E5           LDRB     R1,[R1, #+0]
     78            vd->oms_pos+=2;
   \   00000014   022082E2           ADD      R2,R2,#+2
   \   00000018   442080E5           STR      R2,[R0, #+68]
   \   0000001C   031481E1           ORR      R1,R1,R3, LSL #+8
     79            return r;
   \   00000020   0100A0E1           MOV      R0,R1
   \   00000024   1EFF2FE1           BX       LR               ;; return
     80          }
     81          

   \                                 In segment CODE, align 4, keep-with-next
     82          unsigned int _rlong(VIEWDATA *vd)
     83          {
     84            unsigned char *p=(unsigned char *)(vd->oms+vd->oms_pos);
   \                     _rlong:
   \   00000000   442090E5           LDR      R2,[R0, #+68]
   \   00000004   3C1090E5           LDR      R1,[R0, #+60]
   \   00000008   011082E0           ADD      R1,R2,R1
     85            unsigned int r=*p++;
   \   0000000C   ........           LDRB     R3,[R1], #+1
     86            r<<=8;r|=*p++;
   \   00000010   ........           LDRB     R12,[R1], #+1
     87            r<<=8;r|=*p++;
     88            r<<=8;r|=*p;
     89            vd->oms_pos+=4;
   \   00000014   042082E2           ADD      R2,R2,#+4
   \   00000018   03348CE1           ORR      R3,R12,R3, LSL #+8
   \   0000001C   ........           LDRB     R12,[R1], #+1
   \   00000020   0010D1E5           LDRB     R1,[R1, #+0]
   \   00000024   442080E5           STR      R2,[R0, #+68]
   \   00000028   03348CE1           ORR      R3,R12,R3, LSL #+8
   \   0000002C   031481E1           ORR      R1,R1,R3, LSL #+8
     90            return r;
   \   00000030   0100A0E1           MOV      R0,R1
   \   00000034   1EFF2FE1           BX       LR               ;; return
     91          }
     92          
     93          // Функции-заглушки для ZLib

   \                                 In segment CODE, align 4, keep-with-next
     94          void* zcalloc(int unk,size_t nelem, size_t elsize)
     95          {
   \                     zcalloc:
   \   00000000   00402DE9           PUSH     {LR}
     96            return (malloc(nelem*elsize));
   \   00000004   920100E0           MUL      R0,R2,R1
   \   00000008   140000EF           SWI      +20
   \   0000000C   0080BDE8           POP      {PC}             ;; return
     97          }
     98          

   \                                 In segment CODE, align 4, keep-with-next
     99          void zcfree(int unk, void* ptr)
    100          {
   \                     zcfree:
   \   00000000   00402DE9           PUSH     {LR}
   \   00000004   0100A0E1           MOV      R0,R1
    101            mfree(ptr);
   \   00000008   150000EF           SWI      +21
    102          }
   \   0000000C   0080BDE8           POP      {PC}             ;; return
    103          
    104          //static const char slash[]="/";
    105          

   \                                 In segment CODE, align 4, keep-with-next
    106          void OMS_DataArrived(VIEWDATA *vd, const char *buf, int len)
    107          {
   \                     OMS_DataArrived:
   \   00000000   F64F2DE9           PUSH     {R1,R2,R4-R11,LR}
   \   00000004   8CD04DE2           SUB      SP,SP,#+140
   \   00000008   0050A0E1           MOV      R5,R0
   \   0000000C   000052E3           CMP      R2,#+0
   \   00000010   00005113           CMPNE    R1,#+0
   \   00000014   0000001A           BNE      ??OMS_DataArrived_4
    108            int i;
    109            unsigned int k;
    110            int err;
    111            char s[128];
    112            if ((len==0)||(buf==0))
    113            {
    114              vd->parse_state=OMS_STOP;
   \                     ??OMS_DataArrived_5:
   \   00000018   530600EA           B        ??OMS_DataArrived_6
    115              return;
    116            }
    117            vd->loaded_sz+=len;
   \                     ??OMS_DataArrived_4:
   \   0000001C   D80095E5           LDR      R0,[R5, #+216]
   \   00000020   000082E0           ADD      R0,R2,R0
   \   00000024   D80085E5           STR      R0,[R5, #+216]
   \   00000028   000095E5           LDR      R0,[R5, #+0]
   \   0000002C   000050E3           CMP      R0,#+0
   \   00000030   2C00000A           BEQ      ??OMS_DataArrived_7
    118            if (vd->zs)
    119            {
    120            L_ZBEGIN:
    121              vd->zs->next_in=(Byte *)buf;
   \                     ??OMS_DataArrived_8:
   \   00000034   000095E5           LDR      R0,[R5, #+0]
   \   00000038   8C109DE5           LDR      R1,[SP, #+140]
   \   0000003C   001080E5           STR      R1,[R0, #+0]
    122              vd->zs->avail_in=len;
   \   00000040   90109DE5           LDR      R1,[SP, #+144]
   \   00000044   041080E5           STR      R1,[R0, #+4]
    123            L_ZNEXT:
    124              vd->zs->next_out=(Byte *)(vd->oms=realloc(vd->oms,vd->oms_size+len))+vd->oms_size;
   \                     ??OMS_DataArrived_9:
   \   00000048   400095E5           LDR      R0,[R5, #+64]
   \   0000004C   90109DE5           LDR      R1,[SP, #+144]
   \   00000050   001081E0           ADD      R1,R1,R0
   \   00000054   3C0095E5           LDR      R0,[R5, #+60]
   \   00000058   BA0000EF           SWI      +186
   \   0000005C   3C0085E5           STR      R0,[R5, #+60]
   \   00000060   000095E5           LDR      R0,[R5, #+0]
   \   00000064   401095E5           LDR      R1,[R5, #+64]
   \   00000068   3C2095E5           LDR      R2,[R5, #+60]
   \   0000006C   021081E0           ADD      R1,R1,R2
   \   00000070   0C1080E5           STR      R1,[R0, #+12]
    125              vd->zs->avail_out=len;
   \   00000074   90109DE5           LDR      R1,[SP, #+144]
   \   00000078   101080E5           STR      R1,[R0, #+16]
    126              err=inflate(vd->zs, Z_NO_FLUSH);
   \   0000007C   0010A0E3           MOV      R1,#+0
   \   00000080   A00100EF           SWI      +416
   \   00000084   0020A0E1           MOV      R2,R0
    127              switch (err)
   \   00000088   020050E3           CMP      R0,#+2
   \   0000008C   04007013           CMNNE    R0,#+4
   \   00000090   03007013           CMNNE    R0,#+3
   \   00000094   0B00001A           BNE      ??OMS_DataArrived_10
    128              {
    129              case Z_NEED_DICT:
    130              case Z_DATA_ERROR:
    131              case Z_MEM_ERROR:
    132                sprintf(s,"ZLib Err %d\n",err);
   \   00000098   64119FE5           LDR      R1,??OMS_DataArrived_11  ;; `?<Constant "ZLib Err %d\\n">`
   \                     ??OMS_DataArrived_12:
   \   0000009C   0C008DE2           ADD      R0,SP,#+12
   \   000000A0   160000EF           SWI      +22
    133                AddTextItem(vd,s,strlen(s));
   \   000000A4   0C008DE2           ADD      R0,SP,#+12
   \   000000A8   1B0000EF           SWI      +27
   \   000000AC   0020A0E1           MOV      R2,R0
   \   000000B0   0C108DE2           ADD      R1,SP,#+12
   \   000000B4   0500A0E1           MOV      R0,R5
   \   000000B8   ........           _BLF     AddTextItem,??AddTextItem??rA
    134                AddBrItem(vd);
   \   000000BC   0500A0E1           MOV      R0,R5
   \   000000C0   ........           _BLF     AddBrItem,??AddBrItem??rA
    135                vd->parse_state=OMS_STOP;
   \   000000C4   280600EA           B        ??OMS_DataArrived_6
    136                return;
    137              }
    138              vd->oms_size+=len-vd->zs->avail_out;
   \                     ??OMS_DataArrived_10:
   \   000000C8   400095E5           LDR      R0,[R5, #+64]
   \   000000CC   90109DE5           LDR      R1,[SP, #+144]
   \   000000D0   000081E0           ADD      R0,R1,R0
   \   000000D4   001095E5           LDR      R1,[R5, #+0]
   \   000000D8   101091E5           LDR      R1,[R1, #+16]
   \   000000DC   010040E0           SUB      R0,R0,R1
   \   000000E0   400085E5           STR      R0,[R5, #+64]
   \   000000E4   0D0000EA           B        ??OMS_DataArrived_13
    139            }
    140            else
    141            {
    142              memcpy((vd->oms=realloc(vd->oms,i=vd->oms_size+len))+vd->oms_size,buf,len);
   \                     ??OMS_DataArrived_7:
   \   000000E8   400095E5           LDR      R0,[R5, #+64]
   \   000000EC   90109DE5           LDR      R1,[SP, #+144]
   \   000000F0   004081E0           ADD      R4,R1,R0
   \   000000F4   3C0095E5           LDR      R0,[R5, #+60]
   \   000000F8   0410A0E1           MOV      R1,R4
   \   000000FC   BA0000EF           SWI      +186
   \   00000100   3C0085E5           STR      R0,[R5, #+60]
   \   00000104   400095E5           LDR      R0,[R5, #+64]
   \   00000108   3C3095E5           LDR      R3,[R5, #+60]
   \   0000010C   90209DE5           LDR      R2,[SP, #+144]
   \   00000110   8C109DE5           LDR      R1,[SP, #+140]
   \   00000114   030080E0           ADD      R0,R0,R3
   \   00000118   1E0100EF           SWI      +286
    143              vd->oms_size=i;
   \   0000011C   404085E5           STR      R4,[R5, #+64]
   \                     ??OMS_DataArrived_13:
   \   00000120   4C0095E5           LDR      R0,[R5, #+76]
   \   00000124   0660A0E3           MOV      R6,#+6
   \   00000128   000050E3           CMP      R0,#+0
   \   0000012C   0A00001A           BNE      ??OMS_DataArrived_14
    144            }
    145            if (vd->parse_state==OMS_BEGIN)
    146            {
    147              vd->oms_wanted=sizeof(OMS_HEADER_COMMON);
   \   00000130   486085E5           STR      R6,[R5, #+72]
    148              vd->parse_state=OMS_HDR_COMMON;
   \   00000134   0100A0E3           MOV      R0,#+1
   \   00000138   4C0085E5           STR      R0,[R5, #+76]
    149              vd->loaded_sz-=sizeof(OMS_HEADER_COMMON);
   \   0000013C   D80095E5           LDR      R0,[R5, #+216]
   \   00000140   060040E2           SUB      R0,R0,#+6
   \   00000144   D80085E5           STR      R0,[R5, #+216]
   \   00000148   030000EA           B        ??OMS_DataArrived_14
    150            }
    151            while(vd->oms_size>=vd->oms_wanted)
    152            {
    153              switch(vd->parse_state)
    154              {
    155              case OMS_HDR_COMMON:
    156                //Получен заголовок
    157                memset(&(vd->work_ref),0xFF,sizeof(REFCACHE));
    158                memset(&(vd->work_ref_Z),0xFF,sizeof(REFCACHE));
    159                i=_rshort(vd);
    160                vd->page_sz=_rlong(vd);
    161                vd->oms_wanted+=sizeof(OMS_HEADER_V2);
    162                vd->parse_state=OMS_HDR;
    163                {
    164                  switch(i)
    165                  {
    166                  case 0x0D33:
    167                    vd->oms_wanted-=2;
    168                    break;
    169                  case 0x1833:
    170                    break;
    171                  case 0x0D31:
    172                    vd->oms_wanted-=sizeof(OMS_HEADER_V2)-10; //10 - размер хедера GZIP
    173                    vd->parse_state=OMS_GZIPHDR;
    174                    break;
    175                  case 0x1832:
    176                  L_ZINIT:
    177                    //Производим инициализацию ZLib
    178                    zeromem(vd->zs=malloc(sizeof(z_stream)),sizeof(z_stream));
    179                    vd->zs->zalloc = (alloc_func)zcalloc;
    180                    vd->zs->zfree = (free_func)zcfree;
    181                    vd->zs->opaque = (voidpf)0;
    182                    err = inflateInit2(vd->zs,-MAX_WBITS);
    183                    if(err!=Z_OK)
    184                    {
    185                      sprintf(s,"inflateInit2 err %d\n",err);
    186                      AddTextItem(vd,s,strlen(s));
    187                      AddBrItem(vd);
    188                      vd->parse_state=OMS_STOP;
    189                      return;
    190                    }
    191                    //Теперь после vd->oms_pos до vd->oms_size есть данные ZLib
    192                    //Они же есть в buf+len-(vd->oms_size-vd->oms_pos) длинной vd->oms_size-vd->oms_pos
    193                    //Их необходимо обработать через ZLib
    194                    i=vd->oms_size-vd->oms_pos;
    195                    if (!i) return; //Нет данных
    196                    buf=buf+len-i; //Новый указатель на данные
    197                    len=i; //Новая длинна
    198                    vd->oms_size=vd->oms_pos; //Возращаем размер на начало данных ZLib
    199                    goto L_ZBEGIN;
    200                  default:
    201                    sprintf(s,"Not supported type %X\n",i);
    202                    AddTextItem(vd,s,strlen(s));
    203                    AddBrItem(vd);
    204                    vd->parse_state=OMS_STOP;
    205                    return;
    206                  }
    207                }
    208                break;
    209              case OMS_GZIPHDR:
    210                //Пропустили хедер гзипа
    211                vd->oms_pos=vd->oms_wanted;
    212                vd->oms_wanted+=sizeof(OMS_HEADER_V2)-2; //Заголовок V1
    213                vd->parse_state=OMS_HDR;
    214                goto L_ZINIT;
    215              case OMS_HDR:
    216                vd->oms_pos=vd->oms_wanted;
   \                     ??OMS_DataArrived_15:
   \   0000014C   44C085E5           STR      R12,[R5, #+68]
    217                vd->oms_wanted+=2;
   \   00000150   488085E5           STR      R8,[R5, #+72]
    218                vd->parse_state=OMS_PAGEURL_SIZE;
   \   00000154   0400A0E3           MOV      R0,#+4
   \                     ??OMS_DataArrived_16:
   \   00000158   4C0085E5           STR      R0,[R5, #+76]
   \                     ??OMS_DataArrived_14:
   \   0000015C   48C095E5           LDR      R12,[R5, #+72]
   \   00000160   400095E5           LDR      R0,[R5, #+64]
   \   00000164   0C0050E1           CMP      R0,R12
   \   00000168   8D0900BA           BLT      ??OMS_DataArrived_17
   \   0000016C   44E095E5           LDR      LR,[R5, #+68]
   \   00000170   642095E5           LDR      R2,[R5, #+100]
   \   00000174   0E704CE0           SUB      R7,R12,LR
   \   00000178   04708DE5           STR      R7,[SP, #+4]
   \   0000017C   3C1095E5           LDR      R1,[R5, #+60]
   \   00000180   4CA095E5           LDR      R10,[R5, #+76]
   \   00000184   687095E5           LDR      R7,[R5, #+104]
   \   00000188   02004EE2           SUB      R0,LR,#+2
   \   0000018C   0E3082E0           ADD      R3,R2,LR
   \   00000190   02808CE2           ADD      R8,R12,#+2
   \   00000194   01908CE2           ADD      R9,R12,#+1
   \   00000198   01108EE0           ADD      R1,LR,R1
   \   0000019C   01A04AE2           SUB      R10,R10,#+1
   \   000001A0   24005AE3           CMP      R10,#+36
   \   000001A4   7109008A           BHI      ??OMS_DataArrived_18
   \   000001A8   02BF8FE2           ADR      R11,??OMS_DataArrived_0
   \   000001AC   8AA0A0E1           MOV      R10,R10, LSL #+1
   \   000001B0   FAB09BE1           LDRSH    R11,[R11, R10]
   \   000001B4   0BF18FE0           ADD      PC,PC,R11, LSL #+2
   \                     ??OMS_DataArrived_0:
   \   000001B8   1300E4FFCA05       DC16     +19,+65508,+1482,+1520
   \              F005        
   \   000001C0   F70516067B06       DC16     +1527,+1558,+1659,+2030
   \              EE07        
   \   000001C8   F60731083A08       DC16     +2038,+2097,+2106,+2110
   \              3E08        
   \   000001D0   48084D085808       DC16     +2120,+2125,+2136,+2139
   \              5B08        
   \   000001D8   660872087D08       DC16     +2150,+2162,+2173,+2185
   \              8908        
   \   000001E0   660894089F08       DC16     +2150,+2196,+2207,+2220
   \              AC08        
   \   000001E8   B708C408D808       DC16     +2231,+2244,+2264,+2275
   \              E308        
   \   000001F0   02090D091609       DC16     +2306,+2317,+2326,+2389
   \              5509        
   \   000001F8   59095E095509       DC16     +2393,+2398,+2389,+2402
   \              6209        
   \   00000200   80090000           DC16     +2432,+0
   \                     ??OMS_DataArrived_11:
   \   00000204   ........           DC32     `?<Constant "ZLib Err %d\\n">`
   \                     ??OMS_DataArrived_19:
   \   00000208   2820A0E3           MOV      R2,#+40
   \   0000020C   FF10A0E3           MOV      R1,#+255
   \   00000210   7C0085E2           ADD      R0,R5,#+124
   \   00000214   BB0000EF           SWI      +187
   \   00000218   2820A0E3           MOV      R2,#+40
   \   0000021C   FF10A0E3           MOV      R1,#+255
   \   00000220   A40085E2           ADD      R0,R5,#+164
   \   00000224   BB0000EF           SWI      +187
   \   00000228   0500A0E1           MOV      R0,R5
   \   0000022C   ........           BL       _rshort
   \   00000230   0040A0E1           MOV      R4,R0
   \   00000234   0500A0E1           MOV      R0,R5
   \   00000238   ........           BL       _rlong
   \   0000023C   D40085E5           STR      R0,[R5, #+212]
   \   00000240   480095E5           LDR      R0,[R5, #+72]
   \   00000244   0210A0E3           MOV      R1,#+2
   \   00000248   230080E2           ADD      R0,R0,#+35
   \   0000024C   480085E5           STR      R0,[R5, #+72]
   \   00000250   4C1085E5           STR      R1,[R5, #+76]
   \   00000254   311044E2           SUB      R1,R4,#+49
   \   00000258   D01E41E2           SUB      R1,R1,#+3328
   \   0000025C   0220A0E3           MOV      R2,#+2
   \   00000260   B02E82E3           ORR      R2,R2,#0xB00
   \   00000264   020051E1           CMP      R1,R2
   \   00000268   9A05008A           BHI      ??OMS_DataArrived_20
   \   0000026C   022F8FE2           ADR      R2,??OMS_DataArrived_1
   \   00000270   8110A0E1           MOV      R1,R1, LSL #+1
   \   00000274   F12092E1           LDRSH    R2,[R2, R1]
   \   00000278   02F18FE0           ADD      PC,PC,R2, LSL #+2
   \                     ??OMS_DataArrived_1:
   \   0000027C   840596058105       DC16     +1412,+1430,+1409,+1430
   \              9605        
   \   00000284   960596059605       DC16     +1430,+1430,+1430,+1430
   \              9605        
   \   0000028C   960596059605       DC16     +1430,+1430,+1430,+1430
   \              9605        
   \   00000294   960596059605       DC16     +1430,+1430,+1430,+1430
   \              9605        
   \   0000029C   960596059605       DC16     +1430,+1430,+1430,+1430
   \              9605        
   \   000002A4   960596059605       DC16     +1430,+1430,+1430,+1430
   \              9605        
   \   000002AC   960596059605       DC16     +1430,+1430,+1430,+1430
   \              9605        
   \   000002B4   960596059605       DC16     +1430,+1430,+1430,+1430
   \              9605        
   \   000002BC   960596059605       DC16     +1430,+1430,+1430,+1430
   \              9605        
   \   000002C4   960596059605       DC16     +1430,+1430,+1430,+1430
   \              9605        
   \   000002CC   960596059605       DC16     +1430,+1430,+1430,+1430
   \              9605        
   \   000002D4   960596059605       DC16     +1430,+1430,+1430,+1430
   \              9605        
   \   000002DC   960596059605       DC16     +1430,+1430,+1430,+1430
   \              9605        
   \   000002E4   960596059605       DC16     +1430,+1430,+1430,+1430
   \              9605        
   \   000002EC   960596059605       DC16     +1430,+1430,+1430,+1430
   \              9605        
   \   000002F4   960596059605       DC16     +1430,+1430,+1430,+1430
   \              9605        
   \   000002FC   960596059605       DC16     +1430,+1430,+1430,+1430
   \              9605        
   \   00000304   960596059605       DC16     +1430,+1430,+1430,+1430
   \              9605        
   \   0000030C   960596059605       DC16     +1430,+1430,+1430,+1430
   \              9605        
   \   00000314   960596059605       DC16     +1430,+1430,+1430,+1430
   \              9605        
   \   0000031C   960596059605       DC16     +1430,+1430,+1430,+1430
   \              9605        
   \   00000324   960596059605       DC16     +1430,+1430,+1430,+1430
   \              9605        
   \   0000032C   960596059605       DC16     +1430,+1430,+1430,+1430
   \              9605        
   \   00000334   960596059605       DC16     +1430,+1430,+1430,+1430
   \              9605        
   \   0000033C   960596059605       DC16     +1430,+1430,+1430,+1430
   \              9605        
   \   00000344   960596059605       DC16     +1430,+1430,+1430,+1430
   \              9605        
   \   0000034C   960596059605       DC16     +1430,+1430,+1430,+1430
   \              9605        
   \   00000354   960596059605       DC16     +1430,+1430,+1430,+1430
   \              9605        
   \   0000035C   960596059605       DC16     +1430,+1430,+1430,+1430
   \              9605        
   \   00000364   960596059605       DC16     +1430,+1430,+1430,+1430
   \              9605        
   \   0000036C   960596059605       DC16     +1430,+1430,+1430,+1430
   \              9605        
   \   00000374   960596059605       DC16     +1430,+1430,+1430,+1430
   \              9605        
   \   0000037C   960596059605       DC16     +1430,+1430,+1430,+1430
   \              9605        
   \   00000384   960596059605       DC16     +1430,+1430,+1430,+1430
   \              9605        
   \   0000038C   960596059605       DC16     +1430,+1430,+1430,+1430
   \              9605        
   \   00000394   960596059605       DC16     +1430,+1430,+1430,+1430
   \              9605        
   \   0000039C   960596059605       DC16     +1430,+1430,+1430,+1430
   \              9605        
   \   000003A4   960596059605       DC16     +1430,+1430,+1430,+1430
   \              9605        
   \   000003AC   960596059605       DC16     +1430,+1430,+1430,+1430
   \              9605        
   \   000003B4   960596059605       DC16     +1430,+1430,+1430,+1430
   \              9605        
   \   000003BC   960596059605       DC16     +1430,+1430,+1430,+1430
   \              9605        
   \   000003C4   960596059605       DC16     +1430,+1430,+1430,+1430
   \              9605        
   \   000003CC   960596059605       DC16     +1430,+1430,+1430,+1430
   \              9605        
   \   000003D4   960596059605       DC16     +1430,+1430,+1430,+1430
   \              9605        
   \   000003DC   960596059605       DC16     +1430,+1430,+1430,+1430
   \              9605        
   \   000003E4   960596059605       DC16     +1430,+1430,+1430,+1430
   \              9605        
   \   000003EC   960596059605       DC16     +1430,+1430,+1430,+1430
   \              9605        
   \   000003F4   960596059605       DC16     +1430,+1430,+1430,+1430
   \              9605        
   \   000003FC   960596059605       DC16     +1430,+1430,+1430,+1430
   \              9605        
   \   00000404   960596059605       DC16     +1430,+1430,+1430,+1430
   \              9605        
   \   0000040C   960596059605       DC16     +1430,+1430,+1430,+1430
   \              9605        
   \   00000414   960596059605       DC16     +1430,+1430,+1430,+1430
   \              9605        
   \   0000041C   960596059605       DC16     +1430,+1430,+1430,+1430
   \              9605        
   \   00000424   960596059605       DC16     +1430,+1430,+1430,+1430
   \              9605        
   \   0000042C   960596059605       DC16     +1430,+1430,+1430,+1430
   \              9605        
   \   00000434   960596059605       DC16     +1430,+1430,+1430,+1430
   \              9605        
   \   0000043C   960596059605       DC16     +1430,+1430,+1430,+1430
   \              9605        
   \   00000444   960596059605       DC16     +1430,+1430,+1430,+1430
   \              9605        
   \   0000044C   960596059605       DC16     +1430,+1430,+1430,+1430
   \              9605        
   \   00000454   960596059605       DC16     +1430,+1430,+1430,+1430
   \              9605        
   \   0000045C   960596059605       DC16     +1430,+1430,+1430,+1430
   \              9605        
   \   00000464   960596059605       DC16     +1430,+1430,+1430,+1430
   \              9605        
   \   0000046C   960596059605       DC16     +1430,+1430,+1430,+1430
   \              9605        
   \   00000474   960596059605       DC16     +1430,+1430,+1430,+1430
   \              9605        
   \   0000047C   960596059605       DC16     +1430,+1430,+1430,+1430
   \              9605        
   \   00000484   960596059605       DC16     +1430,+1430,+1430,+1430
   \              9605        
   \   0000048C   960596059605       DC16     +1430,+1430,+1430,+1430
   \              9605        
   \   00000494   960596059605       DC16     +1430,+1430,+1430,+1430
   \              9605        
   \   0000049C   960596059605       DC16     +1430,+1430,+1430,+1430
   \              9605        
   \   000004A4   960596059605       DC16     +1430,+1430,+1430,+1430
   \              9605        
   \   000004AC   960596059605       DC16     +1430,+1430,+1430,+1430
   \              9605        
   \   000004B4   960596059605       DC16     +1430,+1430,+1430,+1430
   \              9605        
   \   000004BC   960596059605       DC16     +1430,+1430,+1430,+1430
   \              9605        
   \   000004C4   960596059605       DC16     +1430,+1430,+1430,+1430
   \              9605        
   \   000004CC   960596059605       DC16     +1430,+1430,+1430,+1430
   \              9605        
   \   000004D4   960596059605       DC16     +1430,+1430,+1430,+1430
   \              9605        
   \   000004DC   960596059605       DC16     +1430,+1430,+1430,+1430
   \              9605        
   \   000004E4   960596059605       DC16     +1430,+1430,+1430,+1430
   \              9605        
   \   000004EC   960596059605       DC16     +1430,+1430,+1430,+1430
   \              9605        
   \   000004F4   960596059605       DC16     +1430,+1430,+1430,+1430
   \              9605        
   \   000004FC   960596059605       DC16     +1430,+1430,+1430,+1430
   \              9605        
   \   00000504   960596059605       DC16     +1430,+1430,+1430,+1430
   \              9605        
   \   0000050C   960596059605       DC16     +1430,+1430,+1430,+1430
   \              9605        
   \   00000514   960596059605       DC16     +1430,+1430,+1430,+1430
   \              9605        
   \   0000051C   960596059605       DC16     +1430,+1430,+1430,+1430
   \              9605        
   \   00000524   960596059605       DC16     +1430,+1430,+1430,+1430
   \              9605        
   \   0000052C   960596059605       DC16     +1430,+1430,+1430,+1430
   \              9605        
   \   00000534   960596059605       DC16     +1430,+1430,+1430,+1430
   \              9605        
   \   0000053C   960596059605       DC16     +1430,+1430,+1430,+1430
   \              9605        
   \   00000544   960596059605       DC16     +1430,+1430,+1430,+1430
   \              9605        
   \   0000054C   960596059605       DC16     +1430,+1430,+1430,+1430
   \              9605        
   \   00000554   960596059605       DC16     +1430,+1430,+1430,+1430
   \              9605        
   \   0000055C   960596059605       DC16     +1430,+1430,+1430,+1430
   \              9605        
   \   00000564   960596059605       DC16     +1430,+1430,+1430,+1430
   \              9605        
   \   0000056C   960596059605       DC16     +1430,+1430,+1430,+1430
   \              9605        
   \   00000574   960596059605       DC16     +1430,+1430,+1430,+1430
   \              9605        
   \   0000057C   960596059605       DC16     +1430,+1430,+1430,+1430
   \              9605        
   \   00000584   960596059605       DC16     +1430,+1430,+1430,+1430
   \              9605        
   \   0000058C   960596059605       DC16     +1430,+1430,+1430,+1430
   \              9605        
   \   00000594   960596059605       DC16     +1430,+1430,+1430,+1430
   \              9605        
   \   0000059C   960596059605       DC16     +1430,+1430,+1430,+1430
   \              9605        
   \   000005A4   960596059605       DC16     +1430,+1430,+1430,+1430
   \              9605        
   \   000005AC   960596059605       DC16     +1430,+1430,+1430,+1430
   \              9605        
   \   000005B4   960596059605       DC16     +1430,+1430,+1430,+1430
   \              9605        
   \   000005BC   960596059605       DC16     +1430,+1430,+1430,+1430
   \              9605        
   \   000005C4   960596059605       DC16     +1430,+1430,+1430,+1430
   \              9605        
   \   000005CC   960596059605       DC16     +1430,+1430,+1430,+1430
   \              9605        
   \   000005D4   960596059605       DC16     +1430,+1430,+1430,+1430
   \              9605        
   \   000005DC   960596059605       DC16     +1430,+1430,+1430,+1430
   \              9605        
   \   000005E4   960596059605       DC16     +1430,+1430,+1430,+1430
   \              9605        
   \   000005EC   960596059605       DC16     +1430,+1430,+1430,+1430
   \              9605        
   \   000005F4   960596059605       DC16     +1430,+1430,+1430,+1430
   \              9605        
   \   000005FC   960596059605       DC16     +1430,+1430,+1430,+1430
   \              9605        
   \   00000604   960596059605       DC16     +1430,+1430,+1430,+1430
   \              9605        
   \   0000060C   960596059605       DC16     +1430,+1430,+1430,+1430
   \              9605        
   \   00000614   960596059605       DC16     +1430,+1430,+1430,+1430
   \              9605        
   \   0000061C   960596059605       DC16     +1430,+1430,+1430,+1430
   \              9605        
   \   00000624   960596059605       DC16     +1430,+1430,+1430,+1430
   \              9605        
   \   0000062C   960596059605       DC16     +1430,+1430,+1430,+1430
   \              9605        
   \   00000634   960596059605       DC16     +1430,+1430,+1430,+1430
   \              9605        
   \   0000063C   960596059605       DC16     +1430,+1430,+1430,+1430
   \              9605        
   \   00000644   960596059605       DC16     +1430,+1430,+1430,+1430
   \              9605        
   \   0000064C   960596059605       DC16     +1430,+1430,+1430,+1430
   \              9605        
   \   00000654   960596059605       DC16     +1430,+1430,+1430,+1430
   \              9605        
   \   0000065C   960596059605       DC16     +1430,+1430,+1430,+1430
   \              9605        
   \   00000664   960596059605       DC16     +1430,+1430,+1430,+1430
   \              9605        
   \   0000066C   960596059605       DC16     +1430,+1430,+1430,+1430
   \              9605        
   \   00000674   960596059605       DC16     +1430,+1430,+1430,+1430
   \              9605        
   \   0000067C   960596059605       DC16     +1430,+1430,+1430,+1430
   \              9605        
   \   00000684   960596059605       DC16     +1430,+1430,+1430,+1430
   \              9605        
   \   0000068C   960596059605       DC16     +1430,+1430,+1430,+1430
   \              9605        
   \   00000694   960596059605       DC16     +1430,+1430,+1430,+1430
   \              9605        
   \   0000069C   960596059605       DC16     +1430,+1430,+1430,+1430
   \              9605        
   \   000006A4   960596059605       DC16     +1430,+1430,+1430,+1430
   \              9605        
   \   000006AC   960596059605       DC16     +1430,+1430,+1430,+1430
   \              9605        
   \   000006B4   960596059605       DC16     +1430,+1430,+1430,+1430
   \              9605        
   \   000006BC   960596059605       DC16     +1430,+1430,+1430,+1430
   \              9605        
   \   000006C4   960596059605       DC16     +1430,+1430,+1430,+1430
   \              9605        
   \   000006CC   960596059605       DC16     +1430,+1430,+1430,+1430
   \              9605        
   \   000006D4   960596059605       DC16     +1430,+1430,+1430,+1430
   \              9605        
   \   000006DC   960596059605       DC16     +1430,+1430,+1430,+1430
   \              9605        
   \   000006E4   960596059605       DC16     +1430,+1430,+1430,+1430
   \              9605        
   \   000006EC   960596059605       DC16     +1430,+1430,+1430,+1430
   \              9605        
   \   000006F4   960596059605       DC16     +1430,+1430,+1430,+1430
   \              9605        
   \   000006FC   960596059605       DC16     +1430,+1430,+1430,+1430
   \              9605        
   \   00000704   960596059605       DC16     +1430,+1430,+1430,+1430
   \              9605        
   \   0000070C   960596059605       DC16     +1430,+1430,+1430,+1430
   \              9605        
   \   00000714   960596059605       DC16     +1430,+1430,+1430,+1430
   \              9605        
   \   0000071C   960596059605       DC16     +1430,+1430,+1430,+1430
   \              9605        
   \   00000724   960596059605       DC16     +1430,+1430,+1430,+1430
   \              9605        
   \   0000072C   960596059605       DC16     +1430,+1430,+1430,+1430
   \              9605        
   \   00000734   960596059605       DC16     +1430,+1430,+1430,+1430
   \              9605        
   \   0000073C   960596059605       DC16     +1430,+1430,+1430,+1430
   \              9605        
   \   00000744   960596059605       DC16     +1430,+1430,+1430,+1430
   \              9605        
   \   0000074C   960596059605       DC16     +1430,+1430,+1430,+1430
   \              9605        
   \   00000754   960596059605       DC16     +1430,+1430,+1430,+1430
   \              9605        
   \   0000075C   960596059605       DC16     +1430,+1430,+1430,+1430
   \              9605        
   \   00000764   960596059605       DC16     +1430,+1430,+1430,+1430
   \              9605        
   \   0000076C   960596059605       DC16     +1430,+1430,+1430,+1430
   \              9605        
   \   00000774   960596059605       DC16     +1430,+1430,+1430,+1430
   \              9605        
   \   0000077C   960596059605       DC16     +1430,+1430,+1430,+1430
   \              9605        
   \   00000784   960596059605       DC16     +1430,+1430,+1430,+1430
   \              9605        
   \   0000078C   960596059605       DC16     +1430,+1430,+1430,+1430
   \              9605        
   \   00000794   960596059605       DC16     +1430,+1430,+1430,+1430
   \              9605        
   \   0000079C   960596059605       DC16     +1430,+1430,+1430,+1430
   \              9605        
   \   000007A4   960596059605       DC16     +1430,+1430,+1430,+1430
   \              9605        
   \   000007AC   960596059605       DC16     +1430,+1430,+1430,+1430
   \              9605        
   \   000007B4   960596059605       DC16     +1430,+1430,+1430,+1430
   \              9605        
   \   000007BC   960596059605       DC16     +1430,+1430,+1430,+1430
   \              9605        
   \   000007C4   960596059605       DC16     +1430,+1430,+1430,+1430
   \              9605        
   \   000007CC   960596059605       DC16     +1430,+1430,+1430,+1430
   \              9605        
   \   000007D4   960596059605       DC16     +1430,+1430,+1430,+1430
   \              9605        
   \   000007DC   960596059605       DC16     +1430,+1430,+1430,+1430
   \              9605        
   \   000007E4   960596059605       DC16     +1430,+1430,+1430,+1430
   \              9605        
   \   000007EC   960596059605       DC16     +1430,+1430,+1430,+1430
   \              9605        
   \   000007F4   960596059605       DC16     +1430,+1430,+1430,+1430
   \              9605        
   \   000007FC   960596059605       DC16     +1430,+1430,+1430,+1430
   \              9605        
   \   00000804   960596059605       DC16     +1430,+1430,+1430,+1430
   \              9605        
   \   0000080C   960596059605       DC16     +1430,+1430,+1430,+1430
   \              9605        
   \   00000814   960596059605       DC16     +1430,+1430,+1430,+1430
   \              9605        
   \   0000081C   960596059605       DC16     +1430,+1430,+1430,+1430
   \              9605        
   \   00000824   960596059605       DC16     +1430,+1430,+1430,+1430
   \              9605        
   \   0000082C   960596059605       DC16     +1430,+1430,+1430,+1430
   \              9605        
   \   00000834   960596059605       DC16     +1430,+1430,+1430,+1430
   \              9605        
   \   0000083C   960596059605       DC16     +1430,+1430,+1430,+1430
   \              9605        
   \   00000844   960596059605       DC16     +1430,+1430,+1430,+1430
   \              9605        
   \   0000084C   960596059605       DC16     +1430,+1430,+1430,+1430
   \              9605        
   \   00000854   960596059605       DC16     +1430,+1430,+1430,+1430
   \              9605        
   \   0000085C   960596059605       DC16     +1430,+1430,+1430,+1430
   \              9605        
   \   00000864   960596059605       DC16     +1430,+1430,+1430,+1430
   \              9605        
   \   0000086C   960596059605       DC16     +1430,+1430,+1430,+1430
   \              9605        
   \   00000874   960596059605       DC16     +1430,+1430,+1430,+1430
   \              9605        
   \   0000087C   960596059605       DC16     +1430,+1430,+1430,+1430
   \              9605        
   \   00000884   960596059605       DC16     +1430,+1430,+1430,+1430
   \              9605        
   \   0000088C   960596059605       DC16     +1430,+1430,+1430,+1430
   \              9605        
   \   00000894   960596059605       DC16     +1430,+1430,+1430,+1430
   \              9605        
   \   0000089C   960596059605       DC16     +1430,+1430,+1430,+1430
   \              9605        
   \   000008A4   960596059605       DC16     +1430,+1430,+1430,+1430
   \              9605        
   \   000008AC   960596059605       DC16     +1430,+1430,+1430,+1430
   \              9605        
   \   000008B4   960596059605       DC16     +1430,+1430,+1430,+1430
   \              9605        
   \   000008BC   960596059605       DC16     +1430,+1430,+1430,+1430
   \              9605        
   \   000008C4   960596059605       DC16     +1430,+1430,+1430,+1430
   \              9605        
   \   000008CC   960596059605       DC16     +1430,+1430,+1430,+1430
   \              9605        
   \   000008D4   960596059605       DC16     +1430,+1430,+1430,+1430
   \              9605        
   \   000008DC   960596059605       DC16     +1430,+1430,+1430,+1430
   \              9605        
   \   000008E4   960596059605       DC16     +1430,+1430,+1430,+1430
   \              9605        
   \   000008EC   960596059605       DC16     +1430,+1430,+1430,+1430
   \              9605        
   \   000008F4   960596059605       DC16     +1430,+1430,+1430,+1430
   \              9605        
   \   000008FC   960596059605       DC16     +1430,+1430,+1430,+1430
   \              9605        
   \   00000904   960596059605       DC16     +1430,+1430,+1430,+1430
   \              9605        
   \   0000090C   960596059605       DC16     +1430,+1430,+1430,+1430
   \              9605        
   \   00000914   960596059605       DC16     +1430,+1430,+1430,+1430
   \              9605        
   \   0000091C   960596059605       DC16     +1430,+1430,+1430,+1430
   \              9605        
   \   00000924   960596059605       DC16     +1430,+1430,+1430,+1430
   \              9605        
   \   0000092C   960596059605       DC16     +1430,+1430,+1430,+1430
   \              9605        
   \   00000934   960596059605       DC16     +1430,+1430,+1430,+1430
   \              9605        
   \   0000093C   960596059605       DC16     +1430,+1430,+1430,+1430
   \              9605        
   \   00000944   960596059605       DC16     +1430,+1430,+1430,+1430
   \              9605        
   \   0000094C   960596059605       DC16     +1430,+1430,+1430,+1430
   \              9605        
   \   00000954   960596059605       DC16     +1430,+1430,+1430,+1430
   \              9605        
   \   0000095C   960596059605       DC16     +1430,+1430,+1430,+1430
   \              9605        
   \   00000964   960596059605       DC16     +1430,+1430,+1430,+1430
   \              9605        
   \   0000096C   960596059605       DC16     +1430,+1430,+1430,+1430
   \              9605        
   \   00000974   960596059605       DC16     +1430,+1430,+1430,+1430
   \              9605        
   \   0000097C   960596059605       DC16     +1430,+1430,+1430,+1430
   \              9605        
   \   00000984   960596059605       DC16     +1430,+1430,+1430,+1430
   \              9605        
   \   0000098C   960596059605       DC16     +1430,+1430,+1430,+1430
   \              9605        
   \   00000994   960596059605       DC16     +1430,+1430,+1430,+1430
   \              9605        
   \   0000099C   960596059605       DC16     +1430,+1430,+1430,+1430
   \              9605        
   \   000009A4   960596059605       DC16     +1430,+1430,+1430,+1430
   \              9605        
   \   000009AC   960596059605       DC16     +1430,+1430,+1430,+1430
   \              9605        
   \   000009B4   960596059605       DC16     +1430,+1430,+1430,+1430
   \              9605        
   \   000009BC   960596059605       DC16     +1430,+1430,+1430,+1430
   \              9605        
   \   000009C4   960596059605       DC16     +1430,+1430,+1430,+1430
   \              9605        
   \   000009CC   960596059605       DC16     +1430,+1430,+1430,+1430
   \              9605        
   \   000009D4   960596059605       DC16     +1430,+1430,+1430,+1430
   \              9605        
   \   000009DC   960596059605       DC16     +1430,+1430,+1430,+1430
   \              9605        
   \   000009E4   960596059605       DC16     +1430,+1430,+1430,+1430
   \              9605        
   \   000009EC   960596059605       DC16     +1430,+1430,+1430,+1430
   \              9605        
   \   000009F4   960596059605       DC16     +1430,+1430,+1430,+1430
   \              9605        
   \   000009FC   960596059605       DC16     +1430,+1430,+1430,+1430
   \              9605        
   \   00000A04   960596059605       DC16     +1430,+1430,+1430,+1430
   \              9605        
   \   00000A0C   960596059605       DC16     +1430,+1430,+1430,+1430
   \              9605        
   \   00000A14   960596059605       DC16     +1430,+1430,+1430,+1430
   \              9605        
   \   00000A1C   960596059605       DC16     +1430,+1430,+1430,+1430
   \              9605        
   \   00000A24   960596059605       DC16     +1430,+1430,+1430,+1430
   \              9605        
   \   00000A2C   960596059605       DC16     +1430,+1430,+1430,+1430
   \              9605        
   \   00000A34   960596059605       DC16     +1430,+1430,+1430,+1430
   \              9605        
   \   00000A3C   960596059605       DC16     +1430,+1430,+1430,+1430
   \              9605        
   \   00000A44   960596059605       DC16     +1430,+1430,+1430,+1430
   \              9605        
   \   00000A4C   960596059605       DC16     +1430,+1430,+1430,+1430
   \              9605        
   \   00000A54   960596059605       DC16     +1430,+1430,+1430,+1430
   \              9605        
   \   00000A5C   960596059605       DC16     +1430,+1430,+1430,+1430
   \              9605        
   \   00000A64   960596059605       DC16     +1430,+1430,+1430,+1430
   \              9605        
   \   00000A6C   960596059605       DC16     +1430,+1430,+1430,+1430
   \              9605        
   \   00000A74   960596059605       DC16     +1430,+1430,+1430,+1430
   \              9605        
   \   00000A7C   960596059605       DC16     +1430,+1430,+1430,+1430
   \              9605        
   \   00000A84   960596059605       DC16     +1430,+1430,+1430,+1430
   \              9605        
   \   00000A8C   960596059605       DC16     +1430,+1430,+1430,+1430
   \              9605        
   \   00000A94   960596059605       DC16     +1430,+1430,+1430,+1430
   \              9605        
   \   00000A9C   960596059605       DC16     +1430,+1430,+1430,+1430
   \              9605        
   \   00000AA4   960596059605       DC16     +1430,+1430,+1430,+1430
   \              9605        
   \   00000AAC   960596059605       DC16     +1430,+1430,+1430,+1430
   \              9605        
   \   00000AB4   960596059605       DC16     +1430,+1430,+1430,+1430
   \              9605        
   \   00000ABC   960596059605       DC16     +1430,+1430,+1430,+1430
   \              9605        
   \   00000AC4   960596059605       DC16     +1430,+1430,+1430,+1430
   \              9605        
   \   00000ACC   960596059605       DC16     +1430,+1430,+1430,+1430
   \              9605        
   \   00000AD4   960596059605       DC16     +1430,+1430,+1430,+1430
   \              9605        
   \   00000ADC   960596059605       DC16     +1430,+1430,+1430,+1430
   \              9605        
   \   00000AE4   960596059605       DC16     +1430,+1430,+1430,+1430
   \              9605        
   \   00000AEC   960596059605       DC16     +1430,+1430,+1430,+1430
   \              9605        
   \   00000AF4   960596059605       DC16     +1430,+1430,+1430,+1430
   \              9605        
   \   00000AFC   960596059605       DC16     +1430,+1430,+1430,+1430
   \              9605        
   \   00000B04   960596059605       DC16     +1430,+1430,+1430,+1430
   \              9605        
   \   00000B0C   960596059605       DC16     +1430,+1430,+1430,+1430
   \              9605        
   \   00000B14   960596059605       DC16     +1430,+1430,+1430,+1430
   \              9605        
   \   00000B1C   960596059605       DC16     +1430,+1430,+1430,+1430
   \              9605        
   \   00000B24   960596059605       DC16     +1430,+1430,+1430,+1430
   \              9605        
   \   00000B2C   960596059605       DC16     +1430,+1430,+1430,+1430
   \              9605        
   \   00000B34   960596059605       DC16     +1430,+1430,+1430,+1430
   \              9605        
   \   00000B3C   960596059605       DC16     +1430,+1430,+1430,+1430
   \              9605        
   \   00000B44   960596059605       DC16     +1430,+1430,+1430,+1430
   \              9605        
   \   00000B4C   960596059605       DC16     +1430,+1430,+1430,+1430
   \              9605        
   \   00000B54   960596059605       DC16     +1430,+1430,+1430,+1430
   \              9605        
   \   00000B5C   960596059605       DC16     +1430,+1430,+1430,+1430
   \              9605        
   \   00000B64   960596059605       DC16     +1430,+1430,+1430,+1430
   \              9605        
   \   00000B6C   960596059605       DC16     +1430,+1430,+1430,+1430
   \              9605        
   \   00000B74   960596059605       DC16     +1430,+1430,+1430,+1430
   \              9605        
   \   00000B7C   960596059605       DC16     +1430,+1430,+1430,+1430
   \              9605        
   \   00000B84   960596059605       DC16     +1430,+1430,+1430,+1430
   \              9605        
   \   00000B8C   960596059605       DC16     +1430,+1430,+1430,+1430
   \              9605        
   \   00000B94   960596059605       DC16     +1430,+1430,+1430,+1430
   \              9605        
   \   00000B9C   960596059605       DC16     +1430,+1430,+1430,+1430
   \              9605        
   \   00000BA4   960596059605       DC16     +1430,+1430,+1430,+1430
   \              9605        
   \   00000BAC   960596059605       DC16     +1430,+1430,+1430,+1430
   \              9605        
   \   00000BB4   960596059605       DC16     +1430,+1430,+1430,+1430
   \              9605        
   \   00000BBC   960596059605       DC16     +1430,+1430,+1430,+1430
   \              9605        
   \   00000BC4   960596059605       DC16     +1430,+1430,+1430,+1430
   \              9605        
   \   00000BCC   960596059605       DC16     +1430,+1430,+1430,+1430
   \              9605        
   \   00000BD4   960596059605       DC16     +1430,+1430,+1430,+1430
   \              9605        
   \   00000BDC   960596059605       DC16     +1430,+1430,+1430,+1430
   \              9605        
   \   00000BE4   960596059605       DC16     +1430,+1430,+1430,+1430
   \              9605        
   \   00000BEC   960596059605       DC16     +1430,+1430,+1430,+1430
   \              9605        
   \   00000BF4   960596059605       DC16     +1430,+1430,+1430,+1430
   \              9605        
   \   00000BFC   960596059605       DC16     +1430,+1430,+1430,+1430
   \              9605        
   \   00000C04   960596059605       DC16     +1430,+1430,+1430,+1430
   \              9605        
   \   00000C0C   960596059605       DC16     +1430,+1430,+1430,+1430
   \              9605        
   \   00000C14   960596059605       DC16     +1430,+1430,+1430,+1430
   \              9605        
   \   00000C1C   960596059605       DC16     +1430,+1430,+1430,+1430
   \              9605        
   \   00000C24   960596059605       DC16     +1430,+1430,+1430,+1430
   \              9605        
   \   00000C2C   960596059605       DC16     +1430,+1430,+1430,+1430
   \              9605        
   \   00000C34   960596059605       DC16     +1430,+1430,+1430,+1430
   \              9605        
   \   00000C3C   960596059605       DC16     +1430,+1430,+1430,+1430
   \              9605        
   \   00000C44   960596059605       DC16     +1430,+1430,+1430,+1430
   \              9605        
   \   00000C4C   960596059605       DC16     +1430,+1430,+1430,+1430
   \              9605        
   \   00000C54   960596059605       DC16     +1430,+1430,+1430,+1430
   \              9605        
   \   00000C5C   960596059605       DC16     +1430,+1430,+1430,+1430
   \              9605        
   \   00000C64   960596059605       DC16     +1430,+1430,+1430,+1430
   \              9605        
   \   00000C6C   960596059605       DC16     +1430,+1430,+1430,+1430
   \              9605        
   \   00000C74   960596059605       DC16     +1430,+1430,+1430,+1430
   \              9605        
   \   00000C7C   960596059605       DC16     +1430,+1430,+1430,+1430
   \              9605        
   \   00000C84   960596059605       DC16     +1430,+1430,+1430,+1430
   \              9605        
   \   00000C8C   960596059605       DC16     +1430,+1430,+1430,+1430
   \              9605        
   \   00000C94   960596059605       DC16     +1430,+1430,+1430,+1430
   \              9605        
   \   00000C9C   960596059605       DC16     +1430,+1430,+1430,+1430
   \              9605        
   \   00000CA4   960596059605       DC16     +1430,+1430,+1430,+1430
   \              9605        
   \   00000CAC   960596059605       DC16     +1430,+1430,+1430,+1430
   \              9605        
   \   00000CB4   960596059605       DC16     +1430,+1430,+1430,+1430
   \              9605        
   \   00000CBC   960596059605       DC16     +1430,+1430,+1430,+1430
   \              9605        
   \   00000CC4   960596059605       DC16     +1430,+1430,+1430,+1430
   \              9605        
   \   00000CCC   960596059605       DC16     +1430,+1430,+1430,+1430
   \              9605        
   \   00000CD4   960596059605       DC16     +1430,+1430,+1430,+1430
   \              9605        
   \   00000CDC   960596059605       DC16     +1430,+1430,+1430,+1430
   \              9605        
   \   00000CE4   960596059605       DC16     +1430,+1430,+1430,+1430
   \              9605        
   \   00000CEC   960596059605       DC16     +1430,+1430,+1430,+1430
   \              9605        
   \   00000CF4   960596059605       DC16     +1430,+1430,+1430,+1430
   \              9605        
   \   00000CFC   960596059605       DC16     +1430,+1430,+1430,+1430
   \              9605        
   \   00000D04   960596059605       DC16     +1430,+1430,+1430,+1430
   \              9605        
   \   00000D0C   960596059605       DC16     +1430,+1430,+1430,+1430
   \              9605        
   \   00000D14   960596059605       DC16     +1430,+1430,+1430,+1430
   \              9605        
   \   00000D1C   960596059605       DC16     +1430,+1430,+1430,+1430
   \              9605        
   \   00000D24   960596059605       DC16     +1430,+1430,+1430,+1430
   \              9605        
   \   00000D2C   960596059605       DC16     +1430,+1430,+1430,+1430
   \              9605        
   \   00000D34   960596059605       DC16     +1430,+1430,+1430,+1430
   \              9605        
   \   00000D3C   960596059605       DC16     +1430,+1430,+1430,+1430
   \              9605        
   \   00000D44   960596059605       DC16     +1430,+1430,+1430,+1430
   \              9605        
   \   00000D4C   960596059605       DC16     +1430,+1430,+1430,+1430
   \              9605        
   \   00000D54   960596059605       DC16     +1430,+1430,+1430,+1430
   \              9605        
   \   00000D5C   960596059605       DC16     +1430,+1430,+1430,+1430
   \              9605        
   \   00000D64   960596059605       DC16     +1430,+1430,+1430,+1430
   \              9605        
   \   00000D6C   960596059605       DC16     +1430,+1430,+1430,+1430
   \              9605        
   \   00000D74   960596059605       DC16     +1430,+1430,+1430,+1430
   \              9605        
   \   00000D7C   960596059605       DC16     +1430,+1430,+1430,+1430
   \              9605        
   \   00000D84   960596059605       DC16     +1430,+1430,+1430,+1430
   \              9605        
   \   00000D8C   960596059605       DC16     +1430,+1430,+1430,+1430
   \              9605        
   \   00000D94   960596059605       DC16     +1430,+1430,+1430,+1430
   \              9605        
   \   00000D9C   960596059605       DC16     +1430,+1430,+1430,+1430
   \              9605        
   \   00000DA4   960596059605       DC16     +1430,+1430,+1430,+1430
   \              9605        
   \   00000DAC   960596059605       DC16     +1430,+1430,+1430,+1430
   \              9605        
   \   00000DB4   960596059605       DC16     +1430,+1430,+1430,+1430
   \              9605        
   \   00000DBC   960596059605       DC16     +1430,+1430,+1430,+1430
   \              9605        
   \   00000DC4   960596059605       DC16     +1430,+1430,+1430,+1430
   \              9605        
   \   00000DCC   960596059605       DC16     +1430,+1430,+1430,+1430
   \              9605        
   \   00000DD4   960596059605       DC16     +1430,+1430,+1430,+1430
   \              9605        
   \   00000DDC   960596059605       DC16     +1430,+1430,+1430,+1430
   \              9605        
   \   00000DE4   960596059605       DC16     +1430,+1430,+1430,+1430
   \              9605        
   \   00000DEC   960596059605       DC16     +1430,+1430,+1430,+1430
   \              9605        
   \   00000DF4   960596059605       DC16     +1430,+1430,+1430,+1430
   \              9605        
   \   00000DFC   960596059605       DC16     +1430,+1430,+1430,+1430
   \              9605        
   \   00000E04   960596059605       DC16     +1430,+1430,+1430,+1430
   \              9605        
   \   00000E0C   960596059605       DC16     +1430,+1430,+1430,+1430
   \              9605        
   \   00000E14   960596059605       DC16     +1430,+1430,+1430,+1430
   \              9605        
   \   00000E1C   960596059605       DC16     +1430,+1430,+1430,+1430
   \              9605        
   \   00000E24   960596059605       DC16     +1430,+1430,+1430,+1430
   \              9605        
   \   00000E2C   960596059605       DC16     +1430,+1430,+1430,+1430
   \              9605        
   \   00000E34   960596059605       DC16     +1430,+1430,+1430,+1430
   \              9605        
   \   00000E3C   960596059605       DC16     +1430,+1430,+1430,+1430
   \              9605        
   \   00000E44   960596059605       DC16     +1430,+1430,+1430,+1430
   \              9605        
   \   00000E4C   960596059605       DC16     +1430,+1430,+1430,+1430
   \              9605        
   \   00000E54   960596059605       DC16     +1430,+1430,+1430,+1430
   \              9605        
   \   00000E5C   960596059605       DC16     +1430,+1430,+1430,+1430
   \              9605        
   \   00000E64   960596059605       DC16     +1430,+1430,+1430,+1430
   \              9605        
   \   00000E6C   960596059605       DC16     +1430,+1430,+1430,+1430
   \              9605        
   \   00000E74   960596059605       DC16     +1430,+1430,+1430,+1430
   \              9605        
   \   00000E7C   960596059605       DC16     +1430,+1430,+1430,+1430
   \              9605        
   \   00000E84   960596059605       DC16     +1430,+1430,+1430,+1430
   \              9605        
   \   00000E8C   960596059605       DC16     +1430,+1430,+1430,+1430
   \              9605        
   \   00000E94   960596059605       DC16     +1430,+1430,+1430,+1430
   \              9605        
   \   00000E9C   960596059605       DC16     +1430,+1430,+1430,+1430
   \              9605        
   \   00000EA4   960596059605       DC16     +1430,+1430,+1430,+1430
   \              9605        
   \   00000EAC   960596059605       DC16     +1430,+1430,+1430,+1430
   \              9605        
   \   00000EB4   960596059605       DC16     +1430,+1430,+1430,+1430
   \              9605        
   \   00000EBC   960596059605       DC16     +1430,+1430,+1430,+1430
   \              9605        
   \   00000EC4   960596059605       DC16     +1430,+1430,+1430,+1430
   \              9605        
   \   00000ECC   960596059605       DC16     +1430,+1430,+1430,+1430
   \              9605        
   \   00000ED4   960596059605       DC16     +1430,+1430,+1430,+1430
   \              9605        
   \   00000EDC   960596059605       DC16     +1430,+1430,+1430,+1430
   \              9605        
   \   00000EE4   960596059605       DC16     +1430,+1430,+1430,+1430
   \              9605        
   \   00000EEC   960596059605       DC16     +1430,+1430,+1430,+1430
   \              9605        
   \   00000EF4   960596059605       DC16     +1430,+1430,+1430,+1430
   \              9605        
   \   00000EFC   960596059605       DC16     +1430,+1430,+1430,+1430
   \              9605        
   \   00000F04   960596059605       DC16     +1430,+1430,+1430,+1430
   \              9605        
   \   00000F0C   960596059605       DC16     +1430,+1430,+1430,+1430
   \              9605        
   \   00000F14   960596059605       DC16     +1430,+1430,+1430,+1430
   \              9605        
   \   00000F1C   960596059605       DC16     +1430,+1430,+1430,+1430
   \              9605        
   \   00000F24   960596059605       DC16     +1430,+1430,+1430,+1430
   \              9605        
   \   00000F2C   960596059605       DC16     +1430,+1430,+1430,+1430
   \              9605        
   \   00000F34   960596059605       DC16     +1430,+1430,+1430,+1430
   \              9605        
   \   00000F3C   960596059605       DC16     +1430,+1430,+1430,+1430
   \              9605        
   \   00000F44   960596059605       DC16     +1430,+1430,+1430,+1430
   \              9605        
   \   00000F4C   960596059605       DC16     +1430,+1430,+1430,+1430
   \              9605        
   \   00000F54   960596059605       DC16     +1430,+1430,+1430,+1430
   \              9605        
   \   00000F5C   960596059605       DC16     +1430,+1430,+1430,+1430
   \              9605        
   \   00000F64   960596059605       DC16     +1430,+1430,+1430,+1430
   \              9605        
   \   00000F6C   960596059605       DC16     +1430,+1430,+1430,+1430
   \              9605        
   \   00000F74   960596059605       DC16     +1430,+1430,+1430,+1430
   \              9605        
   \   00000F7C   960596059605       DC16     +1430,+1430,+1430,+1430
   \              9605        
   \   00000F84   960596059605       DC16     +1430,+1430,+1430,+1430
   \              9605        
   \   00000F8C   960596059605       DC16     +1430,+1430,+1430,+1430
   \              9605        
   \   00000F94   960596059605       DC16     +1430,+1430,+1430,+1430
   \              9605        
   \   00000F9C   960596059605       DC16     +1430,+1430,+1430,+1430
   \              9605        
   \   00000FA4   960596059605       DC16     +1430,+1430,+1430,+1430
   \              9605        
   \   00000FAC   960596059605       DC16     +1430,+1430,+1430,+1430
   \              9605        
   \   00000FB4   960596059605       DC16     +1430,+1430,+1430,+1430
   \              9605        
   \   00000FBC   960596059605       DC16     +1430,+1430,+1430,+1430
   \              9605        
   \   00000FC4   960596059605       DC16     +1430,+1430,+1430,+1430
   \              9605        
   \   00000FCC   960596059605       DC16     +1430,+1430,+1430,+1430
   \              9605        
   \   00000FD4   960596059605       DC16     +1430,+1430,+1430,+1430
   \              9605        
   \   00000FDC   960596059605       DC16     +1430,+1430,+1430,+1430
   \              9605        
   \   00000FE4   960596059605       DC16     +1430,+1430,+1430,+1430
   \              9605        
   \   00000FEC   960596059605       DC16     +1430,+1430,+1430,+1430
   \              9605        
   \   00000FF4   960596059605       DC16     +1430,+1430,+1430,+1430
   \              9605        
   \   00000FFC   960596059605       DC16     +1430,+1430,+1430,+1430
   \              9605        
   \   00001004   960596059605       DC16     +1430,+1430,+1430,+1430
   \              9605        
   \   0000100C   960596059605       DC16     +1430,+1430,+1430,+1430
   \              9605        
   \   00001014   960596059605       DC16     +1430,+1430,+1430,+1430
   \              9605        
   \   0000101C   960596059605       DC16     +1430,+1430,+1430,+1430
   \              9605        
   \   00001024   960596059605       DC16     +1430,+1430,+1430,+1430
   \              9605        
   \   0000102C   960596059605       DC16     +1430,+1430,+1430,+1430
   \              9605        
   \   00001034   960596059605       DC16     +1430,+1430,+1430,+1430
   \              9605        
   \   0000103C   960596059605       DC16     +1430,+1430,+1430,+1430
   \              9605        
   \   00001044   960596059605       DC16     +1430,+1430,+1430,+1430
   \              9605        
   \   0000104C   960596059605       DC16     +1430,+1430,+1430,+1430
   \              9605        
   \   00001054   960596059605       DC16     +1430,+1430,+1430,+1430
   \              9605        
   \   0000105C   960596059605       DC16     +1430,+1430,+1430,+1430
   \              9605        
   \   00001064   960596059605       DC16     +1430,+1430,+1430,+1430
   \              9605        
   \   0000106C   960596059605       DC16     +1430,+1430,+1430,+1430
   \              9605        
   \   00001074   960596059605       DC16     +1430,+1430,+1430,+1430
   \              9605        
   \   0000107C   960596059605       DC16     +1430,+1430,+1430,+1430
   \              9605        
   \   00001084   960596059605       DC16     +1430,+1430,+1430,+1430
   \              9605        
   \   0000108C   960596059605       DC16     +1430,+1430,+1430,+1430
   \              9605        
   \   00001094   960596059605       DC16     +1430,+1430,+1430,+1430
   \              9605        
   \   0000109C   960596059605       DC16     +1430,+1430,+1430,+1430
   \              9605        
   \   000010A4   960596059605       DC16     +1430,+1430,+1430,+1430
   \              9605        
   \   000010AC   960596059605       DC16     +1430,+1430,+1430,+1430
   \              9605        
   \   000010B4   960596059605       DC16     +1430,+1430,+1430,+1430
   \              9605        
   \   000010BC   960596059605       DC16     +1430,+1430,+1430,+1430
   \              9605        
   \   000010C4   960596059605       DC16     +1430,+1430,+1430,+1430
   \              9605        
   \   000010CC   960596059605       DC16     +1430,+1430,+1430,+1430
   \              9605        
   \   000010D4   960596059605       DC16     +1430,+1430,+1430,+1430
   \              9605        
   \   000010DC   960596059605       DC16     +1430,+1430,+1430,+1430
   \              9605        
   \   000010E4   960596059605       DC16     +1430,+1430,+1430,+1430
   \              9605        
   \   000010EC   960596059605       DC16     +1430,+1430,+1430,+1430
   \              9605        
   \   000010F4   960596059605       DC16     +1430,+1430,+1430,+1430
   \              9605        
   \   000010FC   960596059605       DC16     +1430,+1430,+1430,+1430
   \              9605        
   \   00001104   960596059605       DC16     +1430,+1430,+1430,+1430
   \              9605        
   \   0000110C   960596059605       DC16     +1430,+1430,+1430,+1430
   \              9605        
   \   00001114   960596059605       DC16     +1430,+1430,+1430,+1430
   \              9605        
   \   0000111C   960596059605       DC16     +1430,+1430,+1430,+1430
   \              9605        
   \   00001124   960596059605       DC16     +1430,+1430,+1430,+1430
   \              9605        
   \   0000112C   960596059605       DC16     +1430,+1430,+1430,+1430
   \              9605        
   \   00001134   960596059605       DC16     +1430,+1430,+1430,+1430
   \              9605        
   \   0000113C   960596059605       DC16     +1430,+1430,+1430,+1430
   \              9605        
   \   00001144   960596059605       DC16     +1430,+1430,+1430,+1430
   \              9605        
   \   0000114C   960596059605       DC16     +1430,+1430,+1430,+1430
   \              9605        
   \   00001154   960596059605       DC16     +1430,+1430,+1430,+1430
   \              9605        
   \   0000115C   960596059605       DC16     +1430,+1430,+1430,+1430
   \              9605        
   \   00001164   960596059605       DC16     +1430,+1430,+1430,+1430
   \              9605        
   \   0000116C   960596059605       DC16     +1430,+1430,+1430,+1430
   \              9605        
   \   00001174   960596059605       DC16     +1430,+1430,+1430,+1430
   \              9605        
   \   0000117C   960596059605       DC16     +1430,+1430,+1430,+1430
   \              9605        
   \   00001184   960596059605       DC16     +1430,+1430,+1430,+1430
   \              9605        
   \   0000118C   960596059605       DC16     +1430,+1430,+1430,+1430
   \              9605        
   \   00001194   960596059605       DC16     +1430,+1430,+1430,+1430
   \              9605        
   \   0000119C   960596059605       DC16     +1430,+1430,+1430,+1430
   \              9605        
   \   000011A4   960596059605       DC16     +1430,+1430,+1430,+1430
   \              9605        
   \   000011AC   960596059605       DC16     +1430,+1430,+1430,+1430
   \              9605        
   \   000011B4   960596059605       DC16     +1430,+1430,+1430,+1430
   \              9605        
   \   000011BC   960596059605       DC16     +1430,+1430,+1430,+1430
   \              9605        
   \   000011C4   960596059605       DC16     +1430,+1430,+1430,+1430
   \              9605        
   \   000011CC   960596059605       DC16     +1430,+1430,+1430,+1430
   \              9605        
   \   000011D4   960596059605       DC16     +1430,+1430,+1430,+1430
   \              9605        
   \   000011DC   960596059605       DC16     +1430,+1430,+1430,+1430
   \              9605        
   \   000011E4   960596059605       DC16     +1430,+1430,+1430,+1430
   \              9605        
   \   000011EC   960596059605       DC16     +1430,+1430,+1430,+1430
   \              9605        
   \   000011F4   960596059605       DC16     +1430,+1430,+1430,+1430
   \              9605        
   \   000011FC   960596059605       DC16     +1430,+1430,+1430,+1430
   \              9605        
   \   00001204   960596059605       DC16     +1430,+1430,+1430,+1430
   \              9605        
   \   0000120C   960596059605       DC16     +1430,+1430,+1430,+1430
   \              9605        
   \   00001214   960596059605       DC16     +1430,+1430,+1430,+1430
   \              9605        
   \   0000121C   960596059605       DC16     +1430,+1430,+1430,+1430
   \              9605        
   \   00001224   960596059605       DC16     +1430,+1430,+1430,+1430
   \              9605        
   \   0000122C   960596059605       DC16     +1430,+1430,+1430,+1430
   \              9605        
   \   00001234   960596059605       DC16     +1430,+1430,+1430,+1430
   \              9605        
   \   0000123C   960596059605       DC16     +1430,+1430,+1430,+1430
   \              9605        
   \   00001244   960596059605       DC16     +1430,+1430,+1430,+1430
   \              9605        
   \   0000124C   960596059605       DC16     +1430,+1430,+1430,+1430
   \              9605        
   \   00001254   960596059605       DC16     +1430,+1430,+1430,+1430
   \              9605        
   \   0000125C   960596059605       DC16     +1430,+1430,+1430,+1430
   \              9605        
   \   00001264   960596059605       DC16     +1430,+1430,+1430,+1430
   \              9605        
   \   0000126C   960596059605       DC16     +1430,+1430,+1430,+1430
   \              9605        
   \   00001274   960596059605       DC16     +1430,+1430,+1430,+1430
   \              9605        
   \   0000127C   960596059605       DC16     +1430,+1430,+1430,+1430
   \              9605        
   \   00001284   960596059605       DC16     +1430,+1430,+1430,+1430
   \              9605        
   \   0000128C   960596059605       DC16     +1430,+1430,+1430,+1430
   \              9605        
   \   00001294   960596059605       DC16     +1430,+1430,+1430,+1430
   \              9605        
   \   0000129C   960596059605       DC16     +1430,+1430,+1430,+1430
   \              9605        
   \   000012A4   960596059605       DC16     +1430,+1430,+1430,+1430
   \              9605        
   \   000012AC   960596059605       DC16     +1430,+1430,+1430,+1430
   \              9605        
   \   000012B4   960596059605       DC16     +1430,+1430,+1430,+1430
   \              9605        
   \   000012BC   960596059605       DC16     +1430,+1430,+1430,+1430
   \              9605        
   \   000012C4   960596059605       DC16     +1430,+1430,+1430,+1430
   \              9605        
   \   000012CC   960596059605       DC16     +1430,+1430,+1430,+1430
   \              9605        
   \   000012D4   960596059605       DC16     +1430,+1430,+1430,+1430
   \              9605        
   \   000012DC   960596059605       DC16     +1430,+1430,+1430,+1430
   \              9605        
   \   000012E4   960596059605       DC16     +1430,+1430,+1430,+1430
   \              9605        
   \   000012EC   960596059605       DC16     +1430,+1430,+1430,+1430
   \              9605        
   \   000012F4   960596059605       DC16     +1430,+1430,+1430,+1430
   \              9605        
   \   000012FC   960596059605       DC16     +1430,+1430,+1430,+1430
   \              9605        
   \   00001304   960596059605       DC16     +1430,+1430,+1430,+1430
   \              9605        
   \   0000130C   960596059605       DC16     +1430,+1430,+1430,+1430
   \              9605        
   \   00001314   960596059605       DC16     +1430,+1430,+1430,+1430
   \              9605        
   \   0000131C   960596059605       DC16     +1430,+1430,+1430,+1430
   \              9605        
   \   00001324   960596059605       DC16     +1430,+1430,+1430,+1430
   \              9605        
   \   0000132C   960596059605       DC16     +1430,+1430,+1430,+1430
   \              9605        
   \   00001334   960596059605       DC16     +1430,+1430,+1430,+1430
   \              9605        
   \   0000133C   960596059605       DC16     +1430,+1430,+1430,+1430
   \              9605        
   \   00001344   960596059605       DC16     +1430,+1430,+1430,+1430
   \              9605        
   \   0000134C   960596059605       DC16     +1430,+1430,+1430,+1430
   \              9605        
   \   00001354   960596059605       DC16     +1430,+1430,+1430,+1430
   \              9605        
   \   0000135C   960596059605       DC16     +1430,+1430,+1430,+1430
   \              9605        
   \   00001364   960596059605       DC16     +1430,+1430,+1430,+1430
   \              9605        
   \   0000136C   960596059605       DC16     +1430,+1430,+1430,+1430
   \              9605        
   \   00001374   960596059605       DC16     +1430,+1430,+1430,+1430
   \              9605        
   \   0000137C   960596059605       DC16     +1430,+1430,+1430,+1430
   \              9605        
   \   00001384   960596059605       DC16     +1430,+1430,+1430,+1430
   \              9605        
   \   0000138C   960596059605       DC16     +1430,+1430,+1430,+1430
   \              9605        
   \   00001394   960596059605       DC16     +1430,+1430,+1430,+1430
   \              9605        
   \   0000139C   960596059605       DC16     +1430,+1430,+1430,+1430
   \              9605        
   \   000013A4   960596059605       DC16     +1430,+1430,+1430,+1430
   \              9605        
   \   000013AC   960596059605       DC16     +1430,+1430,+1430,+1430
   \              9605        
   \   000013B4   960596059605       DC16     +1430,+1430,+1430,+1430
   \              9605        
   \   000013BC   960596059605       DC16     +1430,+1430,+1430,+1430
   \              9605        
   \   000013C4   960596059605       DC16     +1430,+1430,+1430,+1430
   \              9605        
   \   000013CC   960596059605       DC16     +1430,+1430,+1430,+1430
   \              9605        
   \   000013D4   960596059605       DC16     +1430,+1430,+1430,+1430
   \              9605        
   \   000013DC   960596059605       DC16     +1430,+1430,+1430,+1430
   \              9605        
   \   000013E4   960596059605       DC16     +1430,+1430,+1430,+1430
   \              9605        
   \   000013EC   960596059605       DC16     +1430,+1430,+1430,+1430
   \              9605        
   \   000013F4   960596059605       DC16     +1430,+1430,+1430,+1430
   \              9605        
   \   000013FC   960596059605       DC16     +1430,+1430,+1430,+1430
   \              9605        
   \   00001404   960596059605       DC16     +1430,+1430,+1430,+1430
   \              9605        
   \   0000140C   960596059605       DC16     +1430,+1430,+1430,+1430
   \              9605        
   \   00001414   960596059605       DC16     +1430,+1430,+1430,+1430
   \              9605        
   \   0000141C   960596059605       DC16     +1430,+1430,+1430,+1430
   \              9605        
   \   00001424   960596059605       DC16     +1430,+1430,+1430,+1430
   \              9605        
   \   0000142C   960596059605       DC16     +1430,+1430,+1430,+1430
   \              9605        
   \   00001434   960596059605       DC16     +1430,+1430,+1430,+1430
   \              9605        
   \   0000143C   960596059605       DC16     +1430,+1430,+1430,+1430
   \              9605        
   \   00001444   960596059605       DC16     +1430,+1430,+1430,+1430
   \              9605        
   \   0000144C   960596059605       DC16     +1430,+1430,+1430,+1430
   \              9605        
   \   00001454   960596059605       DC16     +1430,+1430,+1430,+1430
   \              9605        
   \   0000145C   960596059605       DC16     +1430,+1430,+1430,+1430
   \              9605        
   \   00001464   960596059605       DC16     +1430,+1430,+1430,+1430
   \              9605        
   \   0000146C   960596059605       DC16     +1430,+1430,+1430,+1430
   \              9605        
   \   00001474   960596059605       DC16     +1430,+1430,+1430,+1430
   \              9605        
   \   0000147C   960596059605       DC16     +1430,+1430,+1430,+1430
   \              9605        
   \   00001484   960596059605       DC16     +1430,+1430,+1430,+1430
   \              9605        
   \   0000148C   960596059605       DC16     +1430,+1430,+1430,+1430
   \              9605        
   \   00001494   960596059605       DC16     +1430,+1430,+1430,+1430
   \              9605        
   \   0000149C   960596059605       DC16     +1430,+1430,+1430,+1430
   \              9605        
   \   000014A4   960596059605       DC16     +1430,+1430,+1430,+1430
   \              9605        
   \   000014AC   960596059605       DC16     +1430,+1430,+1430,+1430
   \              9605        
   \   000014B4   960596059605       DC16     +1430,+1430,+1430,+1430
   \              9605        
   \   000014BC   960596059605       DC16     +1430,+1430,+1430,+1430
   \              9605        
   \   000014C4   960596059605       DC16     +1430,+1430,+1430,+1430
   \              9605        
   \   000014CC   960596059605       DC16     +1430,+1430,+1430,+1430
   \              9605        
   \   000014D4   960596059605       DC16     +1430,+1430,+1430,+1430
   \              9605        
   \   000014DC   960596059605       DC16     +1430,+1430,+1430,+1430
   \              9605        
   \   000014E4   960596059605       DC16     +1430,+1430,+1430,+1430
   \              9605        
   \   000014EC   960596059605       DC16     +1430,+1430,+1430,+1430
   \              9605        
   \   000014F4   960596059605       DC16     +1430,+1430,+1430,+1430
   \              9605        
   \   000014FC   960596059605       DC16     +1430,+1430,+1430,+1430
   \              9605        
   \   00001504   960596059605       DC16     +1430,+1430,+1430,+1430
   \              9605        
   \   0000150C   960596059605       DC16     +1430,+1430,+1430,+1430
   \              9605        
   \   00001514   960596059605       DC16     +1430,+1430,+1430,+1430
   \              9605        
   \   0000151C   960596059605       DC16     +1430,+1430,+1430,+1430
   \              9605        
   \   00001524   960596059605       DC16     +1430,+1430,+1430,+1430
   \              9605        
   \   0000152C   960596059605       DC16     +1430,+1430,+1430,+1430
   \              9605        
   \   00001534   960596059605       DC16     +1430,+1430,+1430,+1430
   \              9605        
   \   0000153C   960596059605       DC16     +1430,+1430,+1430,+1430
   \              9605        
   \   00001544   960596059605       DC16     +1430,+1430,+1430,+1430
   \              9605        
   \   0000154C   960596059605       DC16     +1430,+1430,+1430,+1430
   \              9605        
   \   00001554   960596059605       DC16     +1430,+1430,+1430,+1430
   \              9605        
   \   0000155C   960596059605       DC16     +1430,+1430,+1430,+1430
   \              9605        
   \   00001564   960596059605       DC16     +1430,+1430,+1430,+1430
   \              9605        
   \   0000156C   960596059605       DC16     +1430,+1430,+1430,+1430
   \              9605        
   \   00001574   960596059605       DC16     +1430,+1430,+1430,+1430
   \              9605        
   \   0000157C   960596059605       DC16     +1430,+1430,+1430,+1430
   \              9605        
   \   00001584   960596059605       DC16     +1430,+1430,+1430,+1430
   \              9605        
   \   0000158C   960596059605       DC16     +1430,+1430,+1430,+1430
   \              9605        
   \   00001594   960596059605       DC16     +1430,+1430,+1430,+1430
   \              9605        
   \   0000159C   960596059605       DC16     +1430,+1430,+1430,+1430
   \              9605        
   \   000015A4   960596059605       DC16     +1430,+1430,+1430,+1430
   \              9605        
   \   000015AC   960596059605       DC16     +1430,+1430,+1430,+1430
   \              9605        
   \   000015B4   960596059605       DC16     +1430,+1430,+1430,+1430
   \              9605        
   \   000015BC   960596059605       DC16     +1430,+1430,+1430,+1430
   \              9605        
   \   000015C4   960596059605       DC16     +1430,+1430,+1430,+1430
   \              9605        
   \   000015CC   960596059605       DC16     +1430,+1430,+1430,+1430
   \              9605        
   \   000015D4   960596059605       DC16     +1430,+1430,+1430,+1430
   \              9605        
   \   000015DC   960596059605       DC16     +1430,+1430,+1430,+1430
   \              9605        
   \   000015E4   960596059605       DC16     +1430,+1430,+1430,+1430
   \              9605        
   \   000015EC   960596059605       DC16     +1430,+1430,+1430,+1430
   \              9605        
   \   000015F4   960596059605       DC16     +1430,+1430,+1430,+1430
   \              9605        
   \   000015FC   960596059605       DC16     +1430,+1430,+1430,+1430
   \              9605        
   \   00001604   960596059605       DC16     +1430,+1430,+1430,+1430
   \              9605        
   \   0000160C   960596059605       DC16     +1430,+1430,+1430,+1430
   \              9605        
   \   00001614   960596059605       DC16     +1430,+1430,+1430,+1430
   \              9605        
   \   0000161C   960596059605       DC16     +1430,+1430,+1430,+1430
   \              9605        
   \   00001624   960596059605       DC16     +1430,+1430,+1430,+1430
   \              9605        
   \   0000162C   960596059605       DC16     +1430,+1430,+1430,+1430
   \              9605        
   \   00001634   960596059605       DC16     +1430,+1430,+1430,+1430
   \              9605        
   \   0000163C   960596059605       DC16     +1430,+1430,+1430,+1430
   \              9605        
   \   00001644   960596059605       DC16     +1430,+1430,+1430,+1430
   \              9605        
   \   0000164C   960596059605       DC16     +1430,+1430,+1430,+1430
   \              9605        
   \   00001654   960596059605       DC16     +1430,+1430,+1430,+1430
   \              9605        
   \   0000165C   960596059605       DC16     +1430,+1430,+1430,+1430
   \              9605        
   \   00001664   960596059605       DC16     +1430,+1430,+1430,+1430
   \              9605        
   \   0000166C   960596059605       DC16     +1430,+1430,+1430,+1430
   \              9605        
   \   00001674   960596059605       DC16     +1430,+1430,+1430,+1430
   \              9605        
   \   0000167C   960596059605       DC16     +1430,+1430,+1430,+1430
   \              9605        
   \   00001684   960596059605       DC16     +1430,+1430,+1430,+1430
   \              9605        
   \   0000168C   960596059605       DC16     +1430,+1430,+1430,+1430
   \              9605        
   \   00001694   960596059605       DC16     +1430,+1430,+1430,+1430
   \              9605        
   \   0000169C   960596059605       DC16     +1430,+1430,+1430,+1430
   \              9605        
   \   000016A4   960596059605       DC16     +1430,+1430,+1430,+1430
   \              9605        
   \   000016AC   960596059605       DC16     +1430,+1430,+1430,+1430
   \              9605        
   \   000016B4   960596059605       DC16     +1430,+1430,+1430,+1430
   \              9605        
   \   000016BC   960596059605       DC16     +1430,+1430,+1430,+1430
   \              9605        
   \   000016C4   960596059605       DC16     +1430,+1430,+1430,+1430
   \              9605        
   \   000016CC   960596059605       DC16     +1430,+1430,+1430,+1430
   \              9605        
   \   000016D4   960596059605       DC16     +1430,+1430,+1430,+1430
   \              9605        
   \   000016DC   960596059605       DC16     +1430,+1430,+1430,+1430
   \              9605        
   \   000016E4   960596059605       DC16     +1430,+1430,+1430,+1430
   \              9605        
   \   000016EC   960596059605       DC16     +1430,+1430,+1430,+1430
   \              9605        
   \   000016F4   960596059605       DC16     +1430,+1430,+1430,+1430
   \              9605        
   \   000016FC   960596059605       DC16     +1430,+1430,+1430,+1430
   \              9605        
   \   00001704   960596059605       DC16     +1430,+1430,+1430,+1430
   \              9605        
   \   0000170C   960596059605       DC16     +1430,+1430,+1430,+1430
   \              9605        
   \   00001714   960596059605       DC16     +1430,+1430,+1430,+1430
   \              9605        
   \   0000171C   960596059605       DC16     +1430,+1430,+1430,+1430
   \              9605        
   \   00001724   960596059605       DC16     +1430,+1430,+1430,+1430
   \              9605        
   \   0000172C   960596059605       DC16     +1430,+1430,+1430,+1430
   \              9605        
   \   00001734   960596059605       DC16     +1430,+1430,+1430,+1430
   \              9605        
   \   0000173C   960596059605       DC16     +1430,+1430,+1430,+1430
   \              9605        
   \   00001744   960596059605       DC16     +1430,+1430,+1430,+1430
   \              9605        
   \   0000174C   960596059605       DC16     +1430,+1430,+1430,+1430
   \              9605        
   \   00001754   960596059605       DC16     +1430,+1430,+1430,+1430
   \              9605        
   \   0000175C   960596059605       DC16     +1430,+1430,+1430,+1430
   \              9605        
   \   00001764   960596059605       DC16     +1430,+1430,+1430,+1430
   \              9605        
   \   0000176C   960596059605       DC16     +1430,+1430,+1430,+1430
   \              9605        
   \   00001774   960596059605       DC16     +1430,+1430,+1430,+1430
   \              9605        
   \   0000177C   960596059605       DC16     +1430,+1430,+1430,+1430
   \              9605        
   \   00001784   960596059605       DC16     +1430,+1430,+1430,+1430
   \              9605        
   \   0000178C   960596059605       DC16     +1430,+1430,+1430,+1430
   \              9605        
   \   00001794   960596059605       DC16     +1430,+1430,+1430,+1430
   \              9605        
   \   0000179C   960596059605       DC16     +1430,+1430,+1430,+1430
   \              9605        
   \   000017A4   960596059605       DC16     +1430,+1430,+1430,+1430
   \              9605        
   \   000017AC   960596059605       DC16     +1430,+1430,+1430,+1430
   \              9605        
   \   000017B4   960596059605       DC16     +1430,+1430,+1430,+1430
   \              9605        
   \   000017BC   960596059605       DC16     +1430,+1430,+1430,+1430
   \              9605        
   \   000017C4   960596059605       DC16     +1430,+1430,+1430,+1430
   \              9605        
   \   000017CC   960596059605       DC16     +1430,+1430,+1430,+1430
   \              9605        
   \   000017D4   960596059605       DC16     +1430,+1430,+1430,+1430
   \              9605        
   \   000017DC   960596059605       DC16     +1430,+1430,+1430,+1430
   \              9605        
   \   000017E4   960596059605       DC16     +1430,+1430,+1430,+1430
   \              9605        
   \   000017EC   960596059605       DC16     +1430,+1430,+1430,+1430
   \              9605        
   \   000017F4   960596059605       DC16     +1430,+1430,+1430,+1430
   \              9605        
   \   000017FC   960596059605       DC16     +1430,+1430,+1430,+1430
   \              9605        
   \   00001804   960596059605       DC16     +1430,+1430,+1430,+1430
   \              9605        
   \   0000180C   960596059605       DC16     +1430,+1430,+1430,+1430
   \              9605        
   \   00001814   960596059605       DC16     +1430,+1430,+1430,+1430
   \              9605        
   \   0000181C   960596059605       DC16     +1430,+1430,+1430,+1430
   \              9605        
   \   00001824   960596059605       DC16     +1430,+1430,+1430,+1430
   \              9605        
   \   0000182C   960596059605       DC16     +1430,+1430,+1430,+1430
   \              9605        
   \   00001834   960596059605       DC16     +1430,+1430,+1430,+1430
   \              9605        
   \   0000183C   960596059605       DC16     +1430,+1430,+1430,+1430
   \              9605        
   \   00001844   960596059605       DC16     +1430,+1430,+1430,+1430
   \              9605        
   \   0000184C   960596059605       DC16     +1430,+1430,+1430,+1430
   \              9605        
   \   00001854   960596059605       DC16     +1430,+1430,+1430,+1430
   \              9605        
   \   0000185C   960596059605       DC16     +1430,+1430,+1430,+1430
   \              9605        
   \   00001864   960596059605       DC16     +1430,+1430,+1430,+1430
   \              9605        
   \   0000186C   960596059605       DC16     +1430,+1430,+1430,+1430
   \              9605        
   \   00001874   960596059605       DC16     +1430,+1430,+1430,+1430
   \              9605        
   \   0000187C   96059E05B7FF       DC16     +1430,+1438,+65463,+0
   \              0000        
   \                     ??OMS_DataArrived_21:
   \   00001884   020040E2           SUB      R0,R0,#+2
   \   00001888   480085E5           STR      R0,[R5, #+72]
   \   0000188C   32FAFFEA           B        ??OMS_DataArrived_14
   \                     ??OMS_DataArrived_22:
   \   00001890   190040E2           SUB      R0,R0,#+25
   \   00001894   480085E5           STR      R0,[R5, #+72]
   \   00001898   0300A0E3           MOV      R0,#+3
   \   0000189C   2DFAFFEA           B        ??OMS_DataArrived_16
   \                     ??OMS_DataArrived_23:
   \   000018A0   440095E5           LDR      R0,[R5, #+68]
   \   000018A4   401095E5           LDR      R1,[R5, #+64]
   \   000018A8   004051E0           SUBS     R4,R1,R0
   \   000018AC   C203000A           BEQ      ??OMS_DataArrived_24
   \   000018B0   90309DE5           LDR      R3,[SP, #+144]
   \   000018B4   8C609DE5           LDR      R6,[SP, #+140]
   \   000018B8   0420A0E1           MOV      R2,R4
   \   000018BC   002062E2           RSB      R2,R2,#+0
   \   000018C0   063083E0           ADD      R3,R3,R6
   \   000018C4   032082E0           ADD      R2,R2,R3
   \   000018C8   8C208DE5           STR      R2,[SP, #+140]
   \   000018CC   90408DE5           STR      R4,[SP, #+144]
   \   000018D0   400085E5           STR      R0,[R5, #+64]
   \   000018D4   D6F9FFEA           B        ??OMS_DataArrived_8
   \                     ??OMS_DataArrived_20:
   \   000018D8   E41E9FE5           LDR      R1,??OMS_DataArrived_25  ;; `?<Constant "ZLib Err %d\\n">` + 48
   \   000018DC   0420A0E1           MOV      R2,R4
   \   000018E0   EDF9FFEA           B        ??OMS_DataArrived_12
   \                     ??OMS_DataArrived_26:
   \   000018E4   44C085E5           STR      R12,[R5, #+68]
   \   000018E8   21008CE2           ADD      R0,R12,#+33
   \   000018EC   480085E5           STR      R0,[R5, #+72]
   \   000018F0   0200A0E3           MOV      R0,#+2
   \   000018F4   4C0085E5           STR      R0,[R5, #+76]
   \                     ??OMS_DataArrived_27:
   \   000018F8   3800A0E3           MOV      R0,#+56
   \   000018FC   140000EF           SWI      +20
   \   00001900   000085E5           STR      R0,[R5, #+0]
   \   00001904   3810A0E3           MOV      R1,#+56
   \   00001908   1D0100EF           SWI      +285
   \   0000190C   000095E5           LDR      R0,[R5, #+0]
   \   00001910   B01E9FE5           LDR      R1,??OMS_DataArrived_25+0x4  ;; zcalloc
   \   00001914   B02E9FE5           LDR      R2,??OMS_DataArrived_25+0x8  ;; `?<Constant "ZLib Err %d\\n">` + 16
   \   00001918   201080E5           STR      R1,[R0, #+32]
   \   0000191C   AC1E9FE5           LDR      R1,??OMS_DataArrived_25+0xC  ;; zcfree
   \   00001920   3830A0E3           MOV      R3,#+56
   \   00001924   241080E5           STR      R1,[R0, #+36]
   \   00001928   0010A0E3           MOV      R1,#+0
   \   0000192C   281080E5           STR      R1,[R0, #+40]
   \   00001930   0E10E0E3           MVN      R1,#+14
   \   00001934   9F0100EF           SWI      +415
   \   00001938   0020B0E1           MOVS     R2,R0
   \   0000193C   D7FFFF0A           BEQ      ??OMS_DataArrived_23
   \   00001940   8C1E9FE5           LDR      R1,??OMS_DataArrived_25+0x10  ;; `?<Constant "ZLib Err %d\\n">` + 24
   \   00001944   0C008DE2           ADD      R0,SP,#+12
   \   00001948   160000EF           SWI      +22
   \   0000194C   0C008DE2           ADD      R0,SP,#+12
   \   00001950   1B0000EF           SWI      +27
   \   00001954   0020A0E1           MOV      R2,R0
   \   00001958   0C108DE2           ADD      R1,SP,#+12
   \                     ??OMS_DataArrived_28:
   \   0000195C   0500A0E1           MOV      R0,R5
   \   00001960   ........           _BLF     AddTextItem,??AddTextItem??rA
   \   00001964   0500A0E1           MOV      R0,R5
   \   00001968   ........           _BLF     AddBrItem,??AddBrItem??rA
   \                     ??OMS_DataArrived_6:
   \   0000196C   2500A0E3           MOV      R0,#+37
   \   00001970   4C0085E5           STR      R0,[R5, #+76]
   \   00001974   94D08DE2           ADD      SP,SP,#+148
   \   00001978   F08FBDE8           POP      {R4-R11,PC}
    219                break;
    220              case OMS_PAGEURL_SIZE:
    221                vd->oms_wanted+=_rshort(vd);
   \                     ??OMS_DataArrived_29:
   \   0000197C   0500A0E1           MOV      R0,R5
   \   00001980   ........           BL       _rshort
   \   00001984   481095E5           LDR      R1,[R5, #+72]
   \   00001988   010080E0           ADD      R0,R0,R1
   \   0000198C   480085E5           STR      R0,[R5, #+72]
    222                vd->parse_state=OMS_PAGEURL_DATA;
   \   00001990   0500A0E3           MOV      R0,#+5
   \   00001994   EFF9FFEA           B        ??OMS_DataArrived_16
    223                break;
    224              case OMS_PAGEURL_DATA:
    225                {
    226                i=vd->oms_wanted-vd->oms_pos;
   \                     ??OMS_DataArrived_30:
   \   00001998   04409DE5           LDR      R4,[SP, #+4]
    227                //AddTextItem(vd,vd->oms+vd->oms_pos,i);
    228                //AddBrItem(vd);
    229                vd->pageurl=(char *)malloc(i+1);
   \   0000199C   017084E2           ADD      R7,R4,#+1
   \   000019A0   0700A0E1           MOV      R0,R7
   \   000019A4   140000EF           SWI      +20
   \   000019A8   E00085E5           STR      R0,[R5, #+224]
    230                char* ttt = malloc(i+1);
   \   000019AC   0700A0E1           MOV      R0,R7
   \   000019B0   140000EF           SWI      +20
    231                memcpy(vd->pageurl,vd->oms+vd->oms_pos,i);
   \   000019B4   3C1095E5           LDR      R1,[R5, #+60]
   \   000019B8   0070A0E1           MOV      R7,R0
   \   000019BC   440095E5           LDR      R0,[R5, #+68]
   \   000019C0   0420A0E1           MOV      R2,R4
   \   000019C4   011080E0           ADD      R1,R0,R1
   \   000019C8   E00095E5           LDR      R0,[R5, #+224]
   \   000019CC   1E0100EF           SWI      +286
    232                vd->pageurl[i]=NULL;
   \   000019D0   E00095E5           LDR      R0,[R5, #+224]
   \   000019D4   0010A0E3           MOV      R1,#+0
   \   000019D8   0010C4E7           STRB     R1,[R4, +R0]
    233                utf82win(ttt,vd->pageurl);
   \   000019DC   E01095E5           LDR      R1,[R5, #+224]
   \   000019E0   0700A0E1           MOV      R0,R7
   \   000019E4   ........           _BLF     utf82win,??utf82win??rA
    234                strcpy(vd->pageurl, ttt);
   \   000019E8   E00095E5           LDR      R0,[R5, #+224]
   \   000019EC   0710A0E1           MOV      R1,R7
   \   000019F0   1A0000EF           SWI      +26
    235                mfree(ttt);
   \   000019F4   0700A0E1           MOV      R0,R7
   \   000019F8   150000EF           SWI      +21
    236                vd->oms_pos=vd->oms_wanted;
   \                     ??OMS_DataArrived_31:
   \   000019FC   480095E5           LDR      R0,[R5, #+72]
   \   00001A00   440085E5           STR      R0,[R5, #+68]
    237                vd->oms_wanted++;
   \                     ??OMS_DataArrived_32:
   \   00001A04   010080E2           ADD      R0,R0,#+1
   \   00001A08   480085E5           STR      R0,[R5, #+72]
    238                vd->parse_state=OMS_TAG_NAME;
   \                     ??OMS_DataArrived_33:
   \   00001A0C   4C6085E5           STR      R6,[R5, #+76]
   \   00001A10   D1F9FFEA           B        ??OMS_DataArrived_14
    239                }
    240                break;
    241              case OMS_TAG_NAME:
    242                // STAGE 1
    243                //DEBUGV("OMS_TAG_NAME pos:",17);
    244                //DEBUGS("%i ",vd->oms_pos);
    245                //DEBUGS("%c\n",vd->oms[vd->oms_pos]);
    246                switch(i=vd->oms[vd->oms_pos])
   \                     ??OMS_DataArrived_34:
   \   00001A14   0040D1E5           LDRB     R4,[R1, #+0]
   \   00001A18   03008CE2           ADD      R0,R12,#+3
   \   00001A1C   241044E2           SUB      R1,R4,#+36
   \   00001A20   540051E3           CMP      R1,#+84
   \   00001A24   5C00008A           BHI      ??OMS_DataArrived_35
   \   00001A28   012F8FE2           ADR      R2,??OMS_DataArrived_2
   \   00001A2C   D12092E1           LDRSB    R2,[R2, R1]
   \   00001A30   02F18FE0           ADD      PC,PC,R2, LSL #+2
   \                     ??OMS_DataArrived_2:
   \   00001A34   15595959           DC8      +21,+89,+89,+89
   \   00001A38   19195915           DC8      +25,+25,+89,+21
   \   00001A3C   59595959           DC8      +89,+89,+89,+89
   \   00001A40   59595959           DC8      +89,+89,+89,+89
   \   00001A44   59595959           DC8      +89,+89,+89,+89
   \   00001A48   59595959           DC8      +89,+89,+89,+89
   \   00001A4C   59595959           DC8      +89,+89,+89,+89
   \   00001A50   251E2A21           DC8      +37,+30,+42,+33
   \   00001A54   1E445959           DC8      +30,+68,+89,+89
   \   00001A58   59322534           DC8      +89,+50,+37,+52
   \   00001A5C   1E595959           DC8      +30,+89,+89,+89
   \   00001A60   40CD1E25           DC8      +64,+205,+30,+37
   \   00001A64   1E592D59           DC8      +30,+89,+45,+89
   \   00001A68   25281E59           DC8      +37,+40,+30,+89
   \   00001A6C   59591E59           DC8      +89,+89,+30,+89
   \   00001A70   5959591E           DC8      +89,+89,+89,+30
   \   00001A74   591E5959           DC8      +89,+30,+89,+89
   \   00001A78   1E3B5926           DC8      +30,+59,+89,+38
   \   00001A7C   1559591E           DC8      +21,+89,+89,+30
   \   00001A80   1E591E1E           DC8      +30,+89,+30,+30
   \   00001A84   591E1559           DC8      +89,+30,+21,+89
   \   00001A88   36000000           DC8      +54,+0,+0,+0
    247                {
    248                case '+':
    249                  vd->oms_pos++;
   \                     ??OMS_DataArrived_36:
   \   00001A8C   01008EE2           ADD      R0,LR,#+1
   \                     ??OMS_DataArrived_37:
   \   00001A90   440085E5           STR      R0,[R5, #+68]
    250          	      goto L_NOSTAGE2;
    251                case 'v':
    252          	      //???
    253                  vd->oms_pos++;
    254          	      goto L_NOSTAGE2;
    255                case '(':
    256                  //???
    257                  AddPictureItemHr(vd);
    258                  //AddTextItem(vd,"(",1);
    259                  vd->oms_pos++;
    260          	      goto L_NOSTAGE2;
    261                case ')':
    262          	      //???
    263                  AddPictureItemHr(vd);
    264                  //AddTextItem(vd,")",1);
    265                  vd->oms_pos++;
    266          	      goto L_NOSTAGE2;
    267                case '$':  //Form end ???
    268                  vd->oms_pos++;
    269                  goto L_NOSTAGE2;
    270                case 'A':
    271                  vd->oms_wanted+=2;
    272                  break;
    273                case 'C':    // следующий тэг подразумевает загрузку данных форм
    274                  vd->work_ref.no_upload=0;
    275                  vd->oms_pos++;
    276                  goto L_NOSTAGE2;
    277                case 'D':
    278                  vd->oms_wanted+=2;
    279                  break;
    280                case 'S':    // Style
    281                  vd->oms_wanted+=4;
    282                  break;
    283                case 'T':    // Text
    284                  vd->oms_wanted+=2;
    285                  break;
    286                case 'Y':
    287                  vd->oms_wanted+=1;
    288                  break;
    289                case 'B':
    290          	      AddBrItem(vd);
    291                  vd->oms_pos++;
    292          	      goto L_NOSTAGE2;
    293                case 'V':
    294          	      AddPItem(vd);
    295                  vd->oms_pos++;
    296          	      goto L_NOSTAGE2;
    297                case 'I':  // image
    298                  vd->oms_wanted+=8;
    299                  break;
    300                case 'J':  // picture frame
    301                  vd->oms_wanted+=4;
    302                  break;
    303                case 'K':  // image by id
    304                  vd->oms_wanted+=6;
    305                  break;
    306                case 'X':  // Image RGBA
    307                  vd->oms_wanted+=4;
    308                  break;
    309                case 'h':    // opf 1
    310                  vd->oms_wanted+=2;
    311                  break;
    312                case 'e':  // а нету такого тэга
    313                case 'p':
    314                case 'u':
    315                  vd->oms_wanted+=2;
    316                  break;
    317                case 'x':
    318                  if ((((OMS_HEADER_COMMON *)vd->oms)->magic&0xFF)==0x0D)
    319                  {
    320                    vd->oms_wanted+=2;
    321                  }
    322                  else
    323                  {
    324                    vd->oms_wanted+=3;
    325                  }
    326                  break;
    327                case 'c':
    328                case 'r':
    329                  vd->oms_wanted+=2;
    330                  break;
    331                case 's': // drop down list
    332                  vd->oms_wanted+=2;
    333                  break;
    334                case 'o': // drop down list item
    335                  vd->oms_wanted+=2;
    336                  break;
    337                case 'l':  // страннй тег, из за него курсор гллючит, заканчивает список ?
    338                  //AddBeginRef(vd);
    339                  //vd->tag_l_count=2;
    340                  //AddTextItem(vd,"<l>",3);
    341                  vd->oms_pos++;
    342                  goto L_NOSTAGE2;
    343                case 'i':  // image button
    344                  //if (!vd->tag_l_count)
    345                  //{
    346                    AddBeginRef(vd);
    347                    //vd->tag_l_count=1;
    348                  //}
    349                  vd->oms_wanted+=2;
    350                  break;
    351                case 'k':
    352                  vd->oms_wanted+=3; //Code type and data length
    353                  break;	
    354                case 'L':  // link
    355                  vd->oms_wanted+=2;
    356                  break;
    357                case '^':  // wrong tag ?
    358                  vd->oms_wanted+=2;
    359                  break;
    360                case 'P':  // phone number
    361                  vd->oms_wanted+=2;
    362                  vd->ref_mode_P=1;
    363                  break;
    364                case 'R':
    365                  vd->oms_wanted+=2;
    366                  break;
    367                case 'E':  //finish ref
    368                  if (vd->work_ref.tag==_NOREF)
    369                    if (vd->work_ref_Z.tag=='Z')
    370                    {
    371                      memcpy(&(vd->work_ref),&(vd->work_ref_Z),sizeof(REFCACHE));
    372                      memset(&(vd->work_ref_Z),0xFF,sizeof(REFCACHE));
    373                    }
    374                  if (vd->ref_mode_P==0)
    375                    AddEndRef(vd);
    376                  vd->ref_mode_P=0;
    377                  vd->oms_pos++;
    378          	      goto L_NOSTAGE2;
    379                case 'Q':
    380                  //AddTextItem(vd,"Q",1); // HACK at the end of page we must add invisible ending line
    381                  vd->parse_state=OMS_STOP;
    382                  return;
    383                case 'Z':
    384                  vd->oms_wanted+=2;
    385                  break;
    386                case '@':
    387                  vd->oms_wanted+=4;
    388                  break;
    389                default:
    390                  sprintf(s,"Unknown tag %c\n",i);
    391                  AddTextItem(vd,s,strlen(s));
    392                  AddBrItem(vd);
    393                  vd->parse_state=OMS_STOP;
    394                  return;
    395                }
    396                vd->parse_state=OMS_TAG_DATA;
    397                break;
    398              case OMS_TAG_DATA:
    399                //DEBUGV("OMS_TAG_DATA pos:",17);
    400                //DEBUGS("%i ",vd->oms_pos);
    401                //DEBUGS("%c\n",vd->oms[vd->oms_pos]);
    402                i=vd->oms[vd->oms_pos];
    403                vd->oms_pos++;
    404                switch(i)
    405                {
    406                case 'A':
    407                  i=_rshort(vd);
    408                  vd->work_ref.tag='A';
    409                  vd->oms_wanted+=i;
    410                  vd->parse_state=OMS_TAGA_STAGE3;
    411                  goto L_STAGE3_WANTED;
    412                case 'D':
    413                  *((unsigned short *)(&(vd->current_tag_d)))=_rshort(vd);
    414                  AddNewStyle(vd);
    415                  break;
    416                case 'S':
    417                  vd->prev_tag_s=vd->current_tag_s;
    418                  *((unsigned int *)(&(vd->current_tag_s)))=k=_rlong(vd);
    419                  ((unsigned int *)(vd->S_cache=realloc(vd->S_cache,(vd->S_cache_size+1)*sizeof(TAG_S))))[vd->S_cache_size]=k;
    420                  vd->S_cache_size++;
    421                  AddNewStyle(vd);
    422                  break;
    423                case 'T':
    424                  i=_rshort(vd);
    425                  vd->oms_wanted+=i;
    426                  vd->parse_state=OMS_TAGT_STAGE3;
    427                  goto L_STAGE3_WANTED;
    428                case 'Y':
    429                  i=_rbyte(vd);
    430                  vd->prev_tag_s=vd->current_tag_s;
    431                  vd->current_tag_s=vd->S_cache[i];
    432                  AddNewStyle(vd);
    433                  break;
    434                case 'I':
    435                  vd->iw=_rshort(vd); //width
    436                  vd->ih=_rshort(vd); //heigth
    437                  i=_rshort(vd);
    438                  _rshort(vd);
    439                  vd->oms_wanted+=i;
    440                  vd->parse_state=OMS_TAGI_STAGE3;
    441                  goto L_STAGE3_WANTED;
    442                case 'J':
    443                  vd->iw=_rshort(vd); //width
    444                  vd->ih=_rshort(vd); //height
    445                  AddPictureItemFrame(vd,vd->iw,vd->ih);
    446                  vd->ref_mode_i--;
    447                  if (!vd->ref_mode_i)
    448                    AddEndRef(vd);
    449                  break;
    450                case 'K':
    451                  _rshort(vd); //width
    452                  _rshort(vd); //height
    453                  i=_rshort(vd); //index
    454                  AddPictureItemIndex(vd,i);
    455                  vd->ref_mode_i--;
    456                  if (!vd->ref_mode_i)
    457                    AddEndRef(vd);
    458                  break;
    459                case 'X':
    460                  vd->iw=_rbyte(vd); //width
    461                  vd->ih=_rbyte(vd); //heigth
    462                  i=_rshort(vd);
    463                  vd->oms_wanted+=i;
    464                  vd->parse_state=OMS_TAGX_STAGE3;
    465                  goto L_STAGE3_WANTED;
    466                case 'h':
    467                  i=(vd->iw=_rshort(vd))+2;
    468                  vd->oms_wanted+=i;
    469                  vd->parse_state=OMS_TAGh_STAGE3;
    470                  goto L_STAGE3_WANTED;
    471                case 'e':
    472                  i=(vd->iw=_rshort(vd))+2;
    473                  vd->work_ref.tag='e';
    474                  vd->oms_wanted+=i;
    475                  vd->parse_state=OMS_TAGe_STAGE3;
    476                  goto L_STAGE3_WANTED;
    477                case 'p':
    478                  i=(vd->iw=_rshort(vd))+2;
    479                  AddBeginRef(vd);
    480                  vd->work_ref.tag='p';
    481                  vd->oms_wanted+=i;
    482                  vd->parse_state=OMS_TAGp_STAGE3;
    483                  goto L_STAGE3_WANTED;
    484                case 'u':
    485                  i=(vd->iw=_rshort(vd))+2;
    486                  AddBeginRef(vd);
    487                  vd->work_ref.tag='u';
    488                  vd->oms_wanted+=i;
    489                  vd->parse_state=OMS_TAGu_STAGE3;
    490                  goto L_STAGE3_WANTED;
    491                case 'x':
    492                  if ((((OMS_HEADER_COMMON *)vd->oms)->magic&0xFF)!=0x0D) _rbyte(vd);
    493                  i=(vd->iw=_rshort(vd))+2;
    494                  AddBeginRef(vd);
    495                  vd->work_ref.tag='x';
    496                  vd->oms_wanted+=i;
    497                  vd->parse_state=OMS_TAGx_STAGE3;
    498                  goto L_STAGE3_WANTED;
    499                case 'c':
    500                  i=(vd->iw=_rshort(vd))+2;
    501                  AddBeginRef(vd);
    502                  vd->work_ref.tag='c';
    503                  vd->oms_wanted+=i;
    504                  vd->parse_state=OMS_TAGc_STAGE3;
    505                  goto L_STAGE3_WANTED;
    506                case 'r':
    507                  i=(vd->iw=_rshort(vd))+2;
    508                  AddBeginRef(vd);
    509                  vd->work_ref.tag='r';
    510                  vd->oms_wanted+=i;
    511                  vd->parse_state=OMS_TAGr_STAGE3;
    512                  goto L_STAGE3_WANTED;
    513                case 's':
    514                  i=(vd->iw=_rshort(vd))+3;
    515                  AddBeginRef(vd);
    516                  vd->work_ref.tag='s';
    517                  //AddTextItem(vd,"<s>",3);
    518                  vd->oms_wanted+=i;
    519                  vd->parse_state=OMS_TAGs_STAGE3;
    520                  goto L_STAGE3_WANTED;
    521                case 'o':
    522                  if (vd->tag_o_count)
    523                  {
    524                    vd->tag_o_count--;
    525                    i=(vd->iw=_rshort(vd))+2;
    526                    vd->work_ref.tag='s';
    527                    vd->oms_wanted+=i;
    528                    vd->parse_state=OMS_TAGo_STAGE3;
    529                    goto L_STAGE3_WANTED;
    530                  }
    531                  else
    532                  {
    533                    AddTextItem(vd,"!Illegal <o>!\n",14);
    534                    AddBrItem(vd);
    535                    vd->parse_state=OMS_STOP;
    536                    return;
    537                  }
    538                case 'i':
    539                  i=(vd->iw=_rshort(vd))+2;
    540                  vd->work_ref.tag='i';
    541                  vd->oms_wanted+=i;
    542                  vd->parse_state=OMS_TAGi_STAGE3;
    543                  goto L_STAGE3_WANTED;
    544                case 'k':
    545                  vd->ih=_rbyte(vd); //Code type
    546                  i=(vd->iw=_rshort(vd));
    547                  vd->oms_wanted+=i;
    548                  vd->parse_state=OMS_TAGk_STAGE3;
    549                  goto L_STAGE3_WANTED;
    550                case 'L':
    551                  i=_rshort(vd);
    552                  vd->work_ref.tag='L';
    553                  AddBeginRef(vd);
    554                  vd->oms_wanted+=i;
    555                  vd->parse_state=OMS_TAGL_STAGE3;
    556                  goto L_STAGE3_WANTED;
    557                case '^':
    558                  i=_rshort(vd);
    559                  vd->work_ref.tag='^';
    560                  //vd->ref_mode=1;//????
    561                  AddBeginRef(vd);
    562                  vd->oms_wanted+=i;
    563                  vd->parse_state=OMS_TAGx5E_STAGE3;
    564                  goto L_STAGE3_WANTED;
    565                case 'P':
    566                  i=_rshort(vd);
    567                  vd->oms_wanted+=i;
    568                  vd->parse_state=OMS_TAGP_STAGE3;
    569                  goto L_STAGE3_WANTED;
    570                case 'R':
    571                  i=_rshort(vd);
    572                  AddPictureItemHr(vd);
    573                  break;
    574                case 'Z':
    575                  i=vd->iw=_rshort(vd);
    576                  vd->work_ref_Z.tag='Z';
    577                  vd->work_ref_Z.id=vd->oms_pos-2;
    578                  AddBeginRefZ(vd);
    579                  vd->oms_wanted+=i;
    580                  vd->parse_state=OMS_TAGZ_STAGE3;
    581                  goto L_STAGE3_WANTED;
    582                case '@':
    583                  vd->ih=_rshort(vd);
    584                  i=vd->iw=_rshort(vd);
    585                  if (i>0)
    586                  {
    587                    vd->work_ref.id=vd->oms_pos-2;
    588                    vd->work_ref.id2=vd->ih;
    589                    vd->work_ref.tag='@';
    590                    AddBeginRef(vd);
    591                    vd->oms_wanted+=i;
    592                    vd->parse_state=OMS_TAGx40_STAGE3;
    593                    goto L_STAGE3_WANTED;
    594                  }
    595                default:
    596                  //vd->parse_state=OMS_STOP;
    597                  break;
    598                }
    599              L_NOSTAGE2:
    600                vd->oms_wanted++;
   \                     ??OMS_DataArrived_38:
   \   00001A94   480095E5           LDR      R0,[R5, #+72]
   \   00001A98   D9FFFFEA           B        ??OMS_DataArrived_32
   \                     ??OMS_DataArrived_39:
   \   00001A9C   0500A0E1           MOV      R0,R5
   \   00001AA0   ........           _BLF     AddPictureItemHr,??AddPictureItemHr??rA
   \                     ??OMS_DataArrived_40:
   \   00001AA4   440095E5           LDR      R0,[R5, #+68]
   \   00001AA8   010080E2           ADD      R0,R0,#+1
   \   00001AAC   F7FFFFEA           B        ??OMS_DataArrived_37
   \                     ??OMS_DataArrived_41:
   \   00001AB0   488085E5           STR      R8,[R5, #+72]
   \                     ??OMS_DataArrived_42:
   \   00001AB4   0700A0E3           MOV      R0,#+7
   \   00001AB8   A6F9FFEA           B        ??OMS_DataArrived_16
   \                     ??OMS_DataArrived_43:
   \   00001ABC   9C00D5E5           LDRB     R0,[R5, #+156]
   \   00001AC0   FE0000E2           AND      R0,R0,#0xFE
   \   00001AC4   9C00C5E5           STRB     R0,[R5, #+156]
   \   00001AC8   EFFFFFEA           B        ??OMS_DataArrived_36
   \                     ??OMS_DataArrived_44:
   \   00001ACC   04008CE2           ADD      R0,R12,#+4
   \                     ??OMS_DataArrived_45:
   \   00001AD0   480085E5           STR      R0,[R5, #+72]
   \   00001AD4   F6FFFFEA           B        ??OMS_DataArrived_42
   \                     ??OMS_DataArrived_46:
   \   00001AD8   489085E5           STR      R9,[R5, #+72]
   \   00001ADC   F4FFFFEA           B        ??OMS_DataArrived_42
   \                     ??OMS_DataArrived_47:
   \   00001AE0   0500A0E1           MOV      R0,R5
   \   00001AE4   ........           _BLF     AddBrItem,??AddBrItem??rA
   \   00001AE8   EDFFFFEA           B        ??OMS_DataArrived_40
   \                     ??OMS_DataArrived_48:
   \   00001AEC   0500A0E1           MOV      R0,R5
   \   00001AF0   ........           _BLF     AddPItem,??AddPItem??rA
   \   00001AF4   440095E5           LDR      R0,[R5, #+68]
   \   00001AF8   010080E2           ADD      R0,R0,#+1
   \   00001AFC   E3FFFFEA           B        ??OMS_DataArrived_37
   \                     ??OMS_DataArrived_49:
   \   00001B00   08008CE2           ADD      R0,R12,#+8
   \   00001B04   F1FFFFEA           B        ??OMS_DataArrived_45
   \                     ??OMS_DataArrived_50:
   \   00001B08   06008CE2           ADD      R0,R12,#+6
   \                     ??OMS_DataArrived_51:
   \   00001B0C   EFFFFFEA           B        ??OMS_DataArrived_45
   \                     ??OMS_DataArrived_52:
   \   00001B10   3C1095E5           LDR      R1,[R5, #+60]
   \   00001B14   0010D1E5           LDRB     R1,[R1, #+0]
   \   00001B18   0D0051E3           CMP      R1,#+13
   \   00001B1C   EBFFFF1A           BNE      ??OMS_DataArrived_45
   \   00001B20   E2FFFFEA           B        ??OMS_DataArrived_41
   \                     ??OMS_DataArrived_53:
   \   00001B24   0500A0E1           MOV      R0,R5
   \   00001B28   ........           _BLF     AddBeginRef,??AddBeginRef??rA
   \   00001B2C   480095E5           LDR      R0,[R5, #+72]
   \   00001B30   020080E2           ADD      R0,R0,#+2
   \   00001B34   E5FFFFEA           B        ??OMS_DataArrived_45
   \                     ??OMS_DataArrived_54:
   \   00001B38   488085E5           STR      R8,[R5, #+72]
   \   00001B3C   0100A0E3           MOV      R0,#+1
   \   00001B40   7400C5E5           STRB     R0,[R5, #+116]
   \   00001B44   DAFFFFEA           B        ??OMS_DataArrived_42
   \                     ??OMS_DataArrived_55:
   \   00001B48   840095E5           LDR      R0,[R5, #+132]
   \   00001B4C   010070E3           CMN      R0,#+1
   \   00001B50   AC009505           LDREQ    R0,[R5, #+172]
   \   00001B54   5A005003           CMPEQ    R0,#+90
   \   00001B58   0700001A           BNE      ??OMS_DataArrived_56
   \   00001B5C   2820A0E3           MOV      R2,#+40
   \   00001B60   A41085E2           ADD      R1,R5,#+164
   \   00001B64   7C0085E2           ADD      R0,R5,#+124
   \   00001B68   1E0100EF           SWI      +286
   \   00001B6C   2820A0E3           MOV      R2,#+40
   \   00001B70   FF10A0E3           MOV      R1,#+255
   \   00001B74   A40085E2           ADD      R0,R5,#+164
   \   00001B78   BB0000EF           SWI      +187
   \                     ??OMS_DataArrived_56:
   \   00001B7C   7400D5E5           LDRB     R0,[R5, #+116]
   \   00001B80   000050E3           CMP      R0,#+0
   \   00001B84   0100001A           BNE      ??OMS_DataArrived_57
   \   00001B88   0500A0E1           MOV      R0,R5
   \   00001B8C   ........           _BLF     AddEndRef,??AddEndRef??rA
   \                     ??OMS_DataArrived_57:
   \   00001B90   0000A0E3           MOV      R0,#+0
   \   00001B94   7400C5E5           STRB     R0,[R5, #+116]
   \   00001B98   C1FFFFEA           B        ??OMS_DataArrived_40
   \                     ??OMS_DataArrived_35:
   \   00001B9C   341C9FE5           LDR      R1,??OMS_DataArrived_25+0x14  ;; `?<Constant "ZLib Err %d\\n">` + 72
   \   00001BA0   0420A0E1           MOV      R2,R4
   \   00001BA4   3CF9FFEA           B        ??OMS_DataArrived_12
   \                     ??OMS_DataArrived_58:
   \   00001BA8   0040D1E5           LDRB     R4,[R1, #+0]
   \   00001BAC   01008EE2           ADD      R0,LR,#+1
   \   00001BB0   440085E5           STR      R0,[R5, #+68]
   \   00001BB4   7370A0E3           MOV      R7,#+115
   \   00001BB8   400044E2           SUB      R0,R4,#+64
   \   00001BBC   380050E3           CMP      R0,#+56
   \   00001BC0   B3FFFF8A           BHI      ??OMS_DataArrived_38
   \   00001BC4   021F8FE2           ADR      R1,??OMS_DataArrived_3
   \   00001BC8   8000A0E1           MOV      R0,R0, LSL #+1
   \   00001BCC   F01091E1           LDRSH    R1,[R1, R0]
   \   00001BD0   01F18FE0           ADD      PC,PC,R1, LSL #+2
   \                     ??OMS_DataArrived_3:
   \   00001BD4   50011C00AFFF       DC16     +336,+28,+65455,+65455
   \              AFFF        
   \   00001BDC   2600AFFFAFFF       DC16     +38,+65455,+65455,+65455
   \              AFFF        
   \   00001BE4   AFFF50006000       DC16     +65455,+80,+96,+113
   \              7100        
   \   00001BEC   1A01AFFFAFFF       DC16     +282,+65455,+65455,+65455
   \              AFFF        
   \   00001BF4   3201AFFF3A01       DC16     +306,+65455,+314,+44
   \              2C00        
   \   00001BFC   3F00AFFFAFFF       DC16     +63,+65455,+65455,+65455
   \              AFFF        
   \   00001C04   7C0047004001       DC16     +124,+71,+320,+65455
   \              AFFF        
   \   00001C0C   AFFFAFFF2601       DC16     +65455,+65455,+294,+65455
   \              AFFF        
   \   00001C14   AFFFAFFFAFFF       DC16     +65455,+65455,+65455,+203
   \              CB00        
   \   00001C1C   AFFF9300AFFF       DC16     +65455,+147,+65455,+65455
   \              AFFF        
   \   00001C24   8A000301AFFF       DC16     +138,+259,+65455,+270
   \              0E01        
   \   00001C2C   AFFFAFFFAFFF       DC16     +65455,+65455,+65455,+241
   \              F100        
   \   00001C34   9E00AFFFD800       DC16     +158,+65455,+216,+229
   \              E500        
   \   00001C3C   AFFFAB00AFFF       DC16     +65455,+171,+65455,+65455
   \              AFFF        
   \   00001C44   B8000000           DC16     +184,+0
   \                     ??OMS_DataArrived_59:
   \   00001C48   0500A0E1           MOV      R0,R5
   \   00001C4C   ........           BL       _rshort
   \   00001C50   0040A0E1           MOV      R4,R0
   \   00001C54   4100A0E3           MOV      R0,#+65
   \   00001C58   840085E5           STR      R0,[R5, #+132]
   \   00001C5C   480095E5           LDR      R0,[R5, #+72]
   \   00001C60   000084E0           ADD      R0,R4,R0
   \   00001C64   480085E5           STR      R0,[R5, #+72]
   \   00001C68   0800A0E3           MOV      R0,#+8
   \   00001C6C   39F9FFEA           B        ??OMS_DataArrived_16
   \                     ??OMS_DataArrived_60:
   \   00001C70   0500A0E1           MOV      R0,R5
   \   00001C74   ........           BL       _rshort
   \   00001C78   B006C5E1           STRH     R0,[R5, #+96]
   \                     ??OMS_DataArrived_61:
   \   00001C7C   0500A0E1           MOV      R0,R5
   \   00001C80   ........           _BLF     AddNewStyle,??AddNewStyle??rA
   \   00001C84   82FFFFEA           B        ??OMS_DataArrived_38
   \                     ??OMS_DataArrived_62:
   \   00001C88   580095E5           LDR      R0,[R5, #+88]
   \   00001C8C   5C0085E5           STR      R0,[R5, #+92]
   \   00001C90   0500A0E1           MOV      R0,R5
   \   00001C94   ........           BL       _rlong
   \   00001C98   0070A0E1           MOV      R7,R0
   \   00001C9C   587085E5           STR      R7,[R5, #+88]
   \   00001CA0   540095E5           LDR      R0,[R5, #+84]
   \   00001CA4   010080E2           ADD      R0,R0,#+1
   \   00001CA8   0011A0E1           LSL      R1,R0,#+2
   \   00001CAC   500095E5           LDR      R0,[R5, #+80]
   \   00001CB0   BA0000EF           SWI      +186
   \   00001CB4   500085E5           STR      R0,[R5, #+80]
   \   00001CB8   540095E5           LDR      R0,[R5, #+84]
   \   00001CBC   501095E5           LDR      R1,[R5, #+80]
   \   00001CC0   007181E7           STR      R7,[R1, +R0, LSL #+2]
   \   00001CC4   540095E5           LDR      R0,[R5, #+84]
   \   00001CC8   010080E2           ADD      R0,R0,#+1
   \   00001CCC   540085E5           STR      R0,[R5, #+84]
   \   00001CD0   E9FFFFEA           B        ??OMS_DataArrived_61
   \                     ??OMS_DataArrived_63:
   \   00001CD4   0500A0E1           MOV      R0,R5
   \   00001CD8   ........           BL       _rshort
   \   00001CDC   0040A0E1           MOV      R4,R0
   \   00001CE0   480095E5           LDR      R0,[R5, #+72]
   \   00001CE4   000084E0           ADD      R0,R4,R0
   \   00001CE8   480085E5           STR      R0,[R5, #+72]
   \   00001CEC   0900A0E3           MOV      R0,#+9
   \   00001CF0   18F9FFEA           B        ??OMS_DataArrived_16
   \                     ??OMS_DataArrived_64:
   \   00001CF4   0500A0E1           MOV      R0,R5
   \   00001CF8   ........           _BLF     _rbyte,??_rbyte??rA
   \   00001CFC   0040A0E1           MOV      R4,R0
   \   00001D00   580095E5           LDR      R0,[R5, #+88]
   \   00001D04   5C0085E5           STR      R0,[R5, #+92]
   \   00001D08   500095E5           LDR      R0,[R5, #+80]
   \   00001D0C   040190E7           LDR      R0,[R0, +R4, LSL #+2]
   \   00001D10   580085E5           STR      R0,[R5, #+88]
   \   00001D14   D8FFFFEA           B        ??OMS_DataArrived_61
   \                     ??OMS_DataArrived_65:
   \   00001D18   0500A0E1           MOV      R0,R5
   \   00001D1C   ........           BL       _rshort
   \   00001D20   640085E5           STR      R0,[R5, #+100]
   \   00001D24   0500A0E1           MOV      R0,R5
   \   00001D28   ........           BL       _rshort
   \   00001D2C   680085E5           STR      R0,[R5, #+104]
   \   00001D30   0500A0E1           MOV      R0,R5
   \   00001D34   ........           BL       _rshort
   \   00001D38   0040A0E1           MOV      R4,R0
   \   00001D3C   0500A0E1           MOV      R0,R5
   \   00001D40   ........           BL       _rshort
   \   00001D44   480095E5           LDR      R0,[R5, #+72]
   \   00001D48   000084E0           ADD      R0,R4,R0
   \   00001D4C   480085E5           STR      R0,[R5, #+72]
   \   00001D50   0A00A0E3           MOV      R0,#+10
   \   00001D54   FFF8FFEA           B        ??OMS_DataArrived_16
   \                     ??OMS_DataArrived_66:
   \   00001D58   0500A0E1           MOV      R0,R5
   \   00001D5C   ........           BL       _rshort
   \   00001D60   640085E5           STR      R0,[R5, #+100]
   \   00001D64   0500A0E1           MOV      R0,R5
   \   00001D68   ........           BL       _rshort
   \   00001D6C   680085E5           STR      R0,[R5, #+104]
   \   00001D70   641095E5           LDR      R1,[R5, #+100]
   \   00001D74   0020A0E1           MOV      R2,R0
   \   00001D78   0500A0E1           MOV      R0,R5
   \   00001D7C   ........           _BLF     AddPictureItemFrame,??AddPictureItemFrame??rA
   \                     ??OMS_DataArrived_67:
   \   00001D80   700095E5           LDR      R0,[R5, #+112]
   \   00001D84   010050E2           SUBS     R0,R0,#+1
   \   00001D88   700085E5           STR      R0,[R5, #+112]
   \   00001D8C   40FFFF1A           BNE      ??OMS_DataArrived_38
   \                     ??OMS_DataArrived_68:
   \   00001D90   0500A0E1           MOV      R0,R5
   \   00001D94   ........           _BLF     AddEndRef,??AddEndRef??rA
   \   00001D98   3DFFFFEA           B        ??OMS_DataArrived_38
   \                     ??OMS_DataArrived_69:
   \   00001D9C   0500A0E1           MOV      R0,R5
   \   00001DA0   ........           BL       _rshort
   \   00001DA4   0500A0E1           MOV      R0,R5
   \   00001DA8   ........           BL       _rshort
   \   00001DAC   0500A0E1           MOV      R0,R5
   \   00001DB0   ........           BL       _rshort
   \   00001DB4   0040A0E1           MOV      R4,R0
   \   00001DB8   0410A0E1           MOV      R1,R4
   \   00001DBC   0500A0E1           MOV      R0,R5
   \   00001DC0   ........           _BLF     AddPictureItemIndex,??AddPictureItemIndex??rA
   \   00001DC4   EDFFFFEA           B        ??OMS_DataArrived_67
   \                     ??OMS_DataArrived_70:
   \   00001DC8   0500A0E1           MOV      R0,R5
   \   00001DCC   ........           _BLF     _rbyte,??_rbyte??rA
   \   00001DD0   640085E5           STR      R0,[R5, #+100]
   \   00001DD4   0500A0E1           MOV      R0,R5
   \   00001DD8   ........           _BLF     _rbyte,??_rbyte??rA
   \   00001DDC   680085E5           STR      R0,[R5, #+104]
   \   00001DE0   0500A0E1           MOV      R0,R5
   \   00001DE4   ........           BL       _rshort
   \   00001DE8   0040A0E1           MOV      R4,R0
   \   00001DEC   480095E5           LDR      R0,[R5, #+72]
   \   00001DF0   000084E0           ADD      R0,R4,R0
   \   00001DF4   480085E5           STR      R0,[R5, #+72]
   \   00001DF8   0B00A0E3           MOV      R0,#+11
   \   00001DFC   D5F8FFEA           B        ??OMS_DataArrived_16
   \                     ??OMS_DataArrived_71:
   \   00001E00   0500A0E1           MOV      R0,R5
   \   00001E04   ........           BL       _rshort
   \   00001E08   640085E5           STR      R0,[R5, #+100]
   \   00001E0C   024080E2           ADD      R4,R0,#+2
   \   00001E10   480095E5           LDR      R0,[R5, #+72]
   \   00001E14   000084E0           ADD      R0,R4,R0
   \   00001E18   480085E5           STR      R0,[R5, #+72]
   \   00001E1C   0C00A0E3           MOV      R0,#+12
   \   00001E20   CCF8FFEA           B        ??OMS_DataArrived_16
   \                     ??OMS_DataArrived_72:
   \   00001E24   0500A0E1           MOV      R0,R5
   \   00001E28   ........           BL       _rshort
   \   00001E2C   640085E5           STR      R0,[R5, #+100]
   \   00001E30   024080E2           ADD      R4,R0,#+2
   \   00001E34   6500A0E3           MOV      R0,#+101
   \   00001E38   840085E5           STR      R0,[R5, #+132]
   \   00001E3C   480095E5           LDR      R0,[R5, #+72]
   \   00001E40   000084E0           ADD      R0,R4,R0
   \   00001E44   480085E5           STR      R0,[R5, #+72]
   \   00001E48   0E00A0E3           MOV      R0,#+14
   \   00001E4C   C1F8FFEA           B        ??OMS_DataArrived_16
   \                     ??OMS_DataArrived_73:
   \   00001E50   0500A0E1           MOV      R0,R5
   \   00001E54   ........           BL       _rshort
   \   00001E58   640085E5           STR      R0,[R5, #+100]
   \   00001E5C   024080E2           ADD      R4,R0,#+2
   \   00001E60   0500A0E1           MOV      R0,R5
   \   00001E64   ........           _BLF     AddBeginRef,??AddBeginRef??rA
   \   00001E68   7000A0E3           MOV      R0,#+112
   \   00001E6C   840085E5           STR      R0,[R5, #+132]
   \   00001E70   480095E5           LDR      R0,[R5, #+72]
   \   00001E74   000084E0           ADD      R0,R4,R0
   \   00001E78   480085E5           STR      R0,[R5, #+72]
   \   00001E7C   1000A0E3           MOV      R0,#+16
   \   00001E80   B4F8FFEA           B        ??OMS_DataArrived_16
   \                     ??OMS_DataArrived_74:
   \   00001E84   0500A0E1           MOV      R0,R5
   \   00001E88   ........           BL       _rshort
   \   00001E8C   640085E5           STR      R0,[R5, #+100]
   \   00001E90   024080E2           ADD      R4,R0,#+2
   \   00001E94   0500A0E1           MOV      R0,R5
   \   00001E98   ........           _BLF     AddBeginRef,??AddBeginRef??rA
   \   00001E9C   7500A0E3           MOV      R0,#+117
   \   00001EA0   840085E5           STR      R0,[R5, #+132]
   \   00001EA4   480095E5           LDR      R0,[R5, #+72]
   \   00001EA8   000084E0           ADD      R0,R4,R0
   \   00001EAC   480085E5           STR      R0,[R5, #+72]
   \   00001EB0   1200A0E3           MOV      R0,#+18
   \   00001EB4   A7F8FFEA           B        ??OMS_DataArrived_16
   \                     ??OMS_DataArrived_75:
   \   00001EB8   3C0095E5           LDR      R0,[R5, #+60]
   \   00001EBC   0000D0E5           LDRB     R0,[R0, #+0]
   \   00001EC0   0D0050E3           CMP      R0,#+13
   \   00001EC4   0100000A           BEQ      ??OMS_DataArrived_76
   \   00001EC8   0500A0E1           MOV      R0,R5
   \   00001ECC   ........           _BLF     _rbyte,??_rbyte??rA
   \                     ??OMS_DataArrived_76:
   \   00001ED0   0500A0E1           MOV      R0,R5
   \   00001ED4   ........           BL       _rshort
   \   00001ED8   640085E5           STR      R0,[R5, #+100]
   \   00001EDC   024080E2           ADD      R4,R0,#+2
   \   00001EE0   0500A0E1           MOV      R0,R5
   \   00001EE4   ........           _BLF     AddBeginRef,??AddBeginRef??rA
   \   00001EE8   7800A0E3           MOV      R0,#+120
   \   00001EEC   840085E5           STR      R0,[R5, #+132]
   \   00001EF0   480095E5           LDR      R0,[R5, #+72]
   \   00001EF4   000084E0           ADD      R0,R4,R0
   \   00001EF8   480085E5           STR      R0,[R5, #+72]
   \   00001EFC   1400A0E3           MOV      R0,#+20
   \   00001F00   94F8FFEA           B        ??OMS_DataArrived_16
   \                     ??OMS_DataArrived_77:
   \   00001F04   0500A0E1           MOV      R0,R5
   \   00001F08   ........           BL       _rshort
   \   00001F0C   640085E5           STR      R0,[R5, #+100]
   \   00001F10   024080E2           ADD      R4,R0,#+2
   \   00001F14   0500A0E1           MOV      R0,R5
   \   00001F18   ........           _BLF     AddBeginRef,??AddBeginRef??rA
   \   00001F1C   6300A0E3           MOV      R0,#+99
   \   00001F20   840085E5           STR      R0,[R5, #+132]
   \   00001F24   480095E5           LDR      R0,[R5, #+72]
   \   00001F28   000084E0           ADD      R0,R4,R0
   \   00001F2C   480085E5           STR      R0,[R5, #+72]
   \   00001F30   1600A0E3           MOV      R0,#+22
   \   00001F34   87F8FFEA           B        ??OMS_DataArrived_16
   \                     ??OMS_DataArrived_78:
   \   00001F38   0500A0E1           MOV      R0,R5
   \   00001F3C   ........           BL       _rshort
   \   00001F40   640085E5           STR      R0,[R5, #+100]
   \   00001F44   024080E2           ADD      R4,R0,#+2
   \   00001F48   0500A0E1           MOV      R0,R5
   \   00001F4C   ........           _BLF     AddBeginRef,??AddBeginRef??rA
   \   00001F50   7200A0E3           MOV      R0,#+114
   \   00001F54   840085E5           STR      R0,[R5, #+132]
   \   00001F58   480095E5           LDR      R0,[R5, #+72]
   \   00001F5C   000084E0           ADD      R0,R4,R0
   \   00001F60   480085E5           STR      R0,[R5, #+72]
   \   00001F64   1800A0E3           MOV      R0,#+24
   \   00001F68   7AF8FFEA           B        ??OMS_DataArrived_16
   \                     ??OMS_DataArrived_79:
   \   00001F6C   0500A0E1           MOV      R0,R5
   \   00001F70   ........           BL       _rshort
   \   00001F74   640085E5           STR      R0,[R5, #+100]
   \   00001F78   034080E2           ADD      R4,R0,#+3
   \   00001F7C   0500A0E1           MOV      R0,R5
   \   00001F80   ........           _BLF     AddBeginRef,??AddBeginRef??rA
   \   00001F84   847085E5           STR      R7,[R5, #+132]
   \   00001F88   480095E5           LDR      R0,[R5, #+72]
   \   00001F8C   000084E0           ADD      R0,R4,R0
   \   00001F90   480085E5           STR      R0,[R5, #+72]
   \   00001F94   1A00A0E3           MOV      R0,#+26
   \   00001F98   6EF8FFEA           B        ??OMS_DataArrived_16
   \                     ??OMS_DataArrived_80:
   \   00001F9C   6C0095E5           LDR      R0,[R5, #+108]
   \   00001FA0   000050E3           CMP      R0,#+0
   \   00001FA4   0B00000A           BEQ      ??OMS_DataArrived_81
   \   00001FA8   010040E2           SUB      R0,R0,#+1
   \   00001FAC   6C0085E5           STR      R0,[R5, #+108]
   \   00001FB0   0500A0E1           MOV      R0,R5
   \   00001FB4   ........           BL       _rshort
   \   00001FB8   640085E5           STR      R0,[R5, #+100]
   \   00001FBC   024080E2           ADD      R4,R0,#+2
   \   00001FC0   847085E5           STR      R7,[R5, #+132]
   \   00001FC4   480095E5           LDR      R0,[R5, #+72]
   \   00001FC8   000084E0           ADD      R0,R4,R0
   \   00001FCC   480085E5           STR      R0,[R5, #+72]
   \   00001FD0   1B00A0E3           MOV      R0,#+27
   \   00001FD4   5FF8FFEA           B        ??OMS_DataArrived_16
   \                     ??OMS_DataArrived_81:
   \   00001FD8   FC179FE5           LDR      R1,??OMS_DataArrived_25+0x18  ;; `?<Constant "ZLib Err %d\\n">` + 88
   \   00001FDC   0E20A0E3           MOV      R2,#+14
   \   00001FE0   5DFEFFEA           B        ??OMS_DataArrived_28
   \                     ??OMS_DataArrived_82:
   \   00001FE4   0500A0E1           MOV      R0,R5
   \   00001FE8   ........           BL       _rshort
   \   00001FEC   640085E5           STR      R0,[R5, #+100]
   \   00001FF0   024080E2           ADD      R4,R0,#+2
   \   00001FF4   6900A0E3           MOV      R0,#+105
   \   00001FF8   840085E5           STR      R0,[R5, #+132]
   \   00001FFC   480095E5           LDR      R0,[R5, #+72]
   \   00002000   000084E0           ADD      R0,R4,R0
   \   00002004   480085E5           STR      R0,[R5, #+72]
   \   00002008   1D00A0E3           MOV      R0,#+29
   \   0000200C   51F8FFEA           B        ??OMS_DataArrived_16
   \                     ??OMS_DataArrived_83:
   \   00002010   0500A0E1           MOV      R0,R5
   \   00002014   ........           _BLF     _rbyte,??_rbyte??rA
   \   00002018   680085E5           STR      R0,[R5, #+104]
   \   0000201C   0500A0E1           MOV      R0,R5
   \   00002020   ........           BL       _rshort
   \   00002024   640085E5           STR      R0,[R5, #+100]
   \   00002028   0040A0E1           MOV      R4,R0
   \   0000202C   480095E5           LDR      R0,[R5, #+72]
   \   00002030   000084E0           ADD      R0,R4,R0
   \   00002034   480085E5           STR      R0,[R5, #+72]
   \   00002038   1F00A0E3           MOV      R0,#+31
   \   0000203C   45F8FFEA           B        ??OMS_DataArrived_16
   \                     ??OMS_DataArrived_84:
   \   00002040   0500A0E1           MOV      R0,R5
   \   00002044   ........           BL       _rshort
   \   00002048   0040A0E1           MOV      R4,R0
   \   0000204C   4C00A0E3           MOV      R0,#+76
   \   00002050   840085E5           STR      R0,[R5, #+132]
   \   00002054   0500A0E1           MOV      R0,R5
   \   00002058   ........           _BLF     AddBeginRef,??AddBeginRef??rA
   \   0000205C   480095E5           LDR      R0,[R5, #+72]
   \   00002060   000084E0           ADD      R0,R4,R0
   \   00002064   480085E5           STR      R0,[R5, #+72]
   \   00002068   2000A0E3           MOV      R0,#+32
   \   0000206C   39F8FFEA           B        ??OMS_DataArrived_16
   \                     ??OMS_DataArrived_85:
   \   00002070   0500A0E1           MOV      R0,R5
   \   00002074   ........           BL       _rshort
   \   00002078   0040A0E1           MOV      R4,R0
   \   0000207C   5E00A0E3           MOV      R0,#+94
   \   00002080   840085E5           STR      R0,[R5, #+132]
   \   00002084   0500A0E1           MOV      R0,R5
   \   00002088   ........           _BLF     AddBeginRef,??AddBeginRef??rA
   \   0000208C   480095E5           LDR      R0,[R5, #+72]
   \   00002090   000084E0           ADD      R0,R4,R0
   \   00002094   480085E5           STR      R0,[R5, #+72]
   \   00002098   2300A0E3           MOV      R0,#+35
   \   0000209C   2DF8FFEA           B        ??OMS_DataArrived_16
   \                     ??OMS_DataArrived_86:
   \   000020A0   0500A0E1           MOV      R0,R5
   \   000020A4   ........           BL       _rshort
   \   000020A8   0040A0E1           MOV      R4,R0
   \   000020AC   480095E5           LDR      R0,[R5, #+72]
   \   000020B0   000084E0           ADD      R0,R4,R0
   \   000020B4   480085E5           STR      R0,[R5, #+72]
   \   000020B8   2100A0E3           MOV      R0,#+33
   \   000020BC   25F8FFEA           B        ??OMS_DataArrived_16
   \                     ??OMS_DataArrived_87:
   \   000020C0   0500A0E1           MOV      R0,R5
   \   000020C4   ........           BL       _rshort
   \   000020C8   0040A0E1           MOV      R4,R0
   \   000020CC   0500A0E1           MOV      R0,R5
   \   000020D0   ........           _BLF     AddPictureItemHr,??AddPictureItemHr??rA
   \   000020D4   6EFEFFEA           B        ??OMS_DataArrived_38
   \                     ??OMS_DataArrived_88:
   \   000020D8   0500A0E1           MOV      R0,R5
   \   000020DC   ........           BL       _rshort
   \   000020E0   640085E5           STR      R0,[R5, #+100]
   \   000020E4   0040A0E1           MOV      R4,R0
   \   000020E8   5A00A0E3           MOV      R0,#+90
   \   000020EC   AC0085E5           STR      R0,[R5, #+172]
   \   000020F0   440095E5           LDR      R0,[R5, #+68]
   \   000020F4   020040E2           SUB      R0,R0,#+2
   \   000020F8   B00085E5           STR      R0,[R5, #+176]
   \   000020FC   0500A0E1           MOV      R0,R5
   \   00002100   ........           _BLF     AddBeginRefZ,??AddBeginRefZ??rA
   \   00002104   480095E5           LDR      R0,[R5, #+72]
   \   00002108   000084E0           ADD      R0,R4,R0
   \   0000210C   480085E5           STR      R0,[R5, #+72]
   \   00002110   2200A0E3           MOV      R0,#+34
   \   00002114   0FF8FFEA           B        ??OMS_DataArrived_16
   \                     ??OMS_DataArrived_89:
   \   00002118   0500A0E1           MOV      R0,R5
   \   0000211C   ........           BL       _rshort
   \   00002120   680085E5           STR      R0,[R5, #+104]
   \   00002124   0500A0E1           MOV      R0,R5
   \   00002128   ........           BL       _rshort
   \   0000212C   640085E5           STR      R0,[R5, #+100]
   \   00002130   0040A0E1           MOV      R4,R0
   \   00002134   010054E3           CMP      R4,#+1
   \   00002138   55FEFFBA           BLT      ??OMS_DataArrived_38
   \   0000213C   440095E5           LDR      R0,[R5, #+68]
   \   00002140   020040E2           SUB      R0,R0,#+2
   \   00002144   880085E5           STR      R0,[R5, #+136]
   \   00002148   680095E5           LDR      R0,[R5, #+104]
   \   0000214C   900085E5           STR      R0,[R5, #+144]
   \   00002150   4000A0E3           MOV      R0,#+64
   \   00002154   840085E5           STR      R0,[R5, #+132]
   \   00002158   0500A0E1           MOV      R0,R5
   \   0000215C   ........           _BLF     AddBeginRef,??AddBeginRef??rA
   \   00002160   480095E5           LDR      R0,[R5, #+72]
   \   00002164   000084E0           ADD      R0,R4,R0
   \   00002168   480085E5           STR      R0,[R5, #+72]
   \   0000216C   2400A0E3           MOV      R0,#+36
   \   00002170   F8F7FFEA           B        ??OMS_DataArrived_16
    601                vd->parse_state=OMS_TAG_NAME;
    602              L_STAGE3_WANTED:
    603                break;
    604              case OMS_TAGA_STAGE3:
    605                {
    606                  i=vd->oms_wanted-vd->oms_pos;
   \                     ??OMS_DataArrived_90:
   \   00002174   04409DE5           LDR      R4,[SP, #+4]
    607                  vd->work_ref.value = vd->oms_pos;
   \   00002178   8CE085E5           STR      LR,[R5, #+140]
    608                  vd->work_ref.size = i;
   \   0000217C   984085E5           STR      R4,[R5, #+152]
    609                  vd->work_ref.id2 = vd->rawtext_size;
   \   00002180   0C0095E5           LDR      R0,[R5, #+12]
   \   00002184   900085E5           STR      R0,[R5, #+144]
    610                  AddToRefCache(vd);
   \   00002188   0500A0E1           MOV      R0,R5
   \   0000218C   ........           _BLF     AddToRefCache,??AddToRefCache??rA
    611                  
    612                  //AddTextItem(vd,vd->oms+vd->oms_pos,i);
    613                  vd->oms_pos=vd->oms_wanted;
   \   00002190   19FEFFEA           B        ??OMS_DataArrived_31
    614                  vd->oms_wanted++;
    615                  vd->parse_state=OMS_TAG_NAME;
    616                }
    617                break;
    618              case OMS_TAGT_STAGE3:
    619                i=vd->oms_wanted-vd->oms_pos;
   \                     ??OMS_DataArrived_91:
   \   00002194   04409DE5           LDR      R4,[SP, #+4]
    620                AddTextItem(vd,vd->oms+vd->oms_pos,i);
   \   00002198   0500A0E1           MOV      R0,R5
   \   0000219C   0420A0E1           MOV      R2,R4
   \   000021A0   ........           _BLF     AddTextItem,??AddTextItem??rA
    621                if(!vd->title)
   \   000021A4   E40095E5           LDR      R0,[R5, #+228]
   \   000021A8   000050E3           CMP      R0,#+0
   \   000021AC   2E00001A           BNE      ??OMS_DataArrived_92
    622                {
    623                  vd->title=(char *)malloc(i+1);
   \   000021B0   010084E2           ADD      R0,R4,#+1
   \   000021B4   140000EF           SWI      +20
   \   000021B8   E40085E5           STR      R0,[R5, #+228]
    624                  memcpy(vd->title,vd->oms+vd->oms_pos,i);
   \   000021BC   440095E5           LDR      R0,[R5, #+68]
   \   000021C0   3C1095E5           LDR      R1,[R5, #+60]
   \   000021C4   0420A0E1           MOV      R2,R4
   \   000021C8   011080E0           ADD      R1,R0,R1
   \   000021CC   E40095E5           LDR      R0,[R5, #+228]
   \   000021D0   1E0100EF           SWI      +286
    625                  vd->title[i]=NULL;
   \   000021D4   E40095E5           LDR      R0,[R5, #+228]
   \   000021D8   0010A0E3           MOV      R1,#+0
   \   000021DC   0010C4E7           STRB     R1,[R4, +R0]
    626                  utf82win(vd->title, vd->title);
   \   000021E0   E40095E5           LDR      R0,[R5, #+228]
   \   000021E4   0010A0E1           MOV      R1,R0
   \   000021E8   ........           _BLF     utf82win,??utf82win??rA
    627                  UpdateCSMname(vd->title, MODE_URL);
   \   000021EC   E40095E5           LDR      R0,[R5, #+228]
   \   000021F0   0110A0E3           MOV      R1,#+1
   \   000021F4   ........           _BLF     UpdateCSMname,??UpdateCSMname??rA
    628                  extern int view_url_mode;
    629                  if (view_url_mode == MODE_URL)
   \   000021F8   E0059FE5           LDR      R0,??OMS_DataArrived_25+0x1C  ;; view_url_mode
   \   000021FC   000090E5           LDR      R0,[R0, #+0]
   \   00002200   010050E3           CMP      R0,#+1
   \   00002204   1600001A           BNE      ??OMS_DataArrived_93
    630                  {
    631                    char *histbuf = malloc(strlen(vd->pageurl) + strlen(vd->title) + 2);
   \   00002208   E00095E5           LDR      R0,[R5, #+224]
   \   0000220C   1B0000EF           SWI      +27
   \   00002210   0070A0E1           MOV      R7,R0
   \   00002214   E40095E5           LDR      R0,[R5, #+228]
   \   00002218   1B0000EF           SWI      +27
   \   0000221C   000087E0           ADD      R0,R7,R0
   \   00002220   020080E2           ADD      R0,R0,#+2
   \   00002224   140000EF           SWI      +20
   \   00002228   0070A0E1           MOV      R7,R0
    632                    strcpy(histbuf, vd->pageurl+2);
   \   0000222C   E00095E5           LDR      R0,[R5, #+224]
   \   00002230   021080E2           ADD      R1,R0,#+2
   \   00002234   0700A0E1           MOV      R0,R7
   \   00002238   1A0000EF           SWI      +26
    633                    strcat(histbuf, "|");
   \   0000223C   F31F8FE2           ADR      R1,??OMS_DataArrived_94  ;; "|"
   \   00002240   0700A0E1           MOV      R0,R7
   \   00002244   170000EF           SWI      +23
    634                    strcat(histbuf, vd->title);
   \   00002248   E41095E5           LDR      R1,[R5, #+228]
   \   0000224C   0700A0E1           MOV      R0,R7
   \   00002250   170000EF           SWI      +23
    635                    AddURLToHistory(histbuf);
   \   00002254   0700A0E1           MOV      R0,R7
   \   00002258   ........           _BLF     AddURLToHistory,??AddURLToHistory??rA
    636                    mfree(histbuf);
   \   0000225C   0700A0E1           MOV      R0,R7
   \   00002260   150000EF           SWI      +21
    637                  }
    638                  AddBrItem(vd);
   \                     ??OMS_DataArrived_93:
   \   00002264   0500A0E1           MOV      R0,R5
   \   00002268   ........           _BLF     AddBrItem,??AddBrItem??rA
    639                }
    640                vd->oms_pos=vd->oms_wanted;
   \                     ??OMS_DataArrived_92:
   \   0000226C   480095E5           LDR      R0,[R5, #+72]
   \   00002270   440085E5           STR      R0,[R5, #+68]
    641                vd->oms_wanted++;
   \                     ??OMS_DataArrived_95:
   \   00002274   010080E2           ADD      R0,R0,#+1
   \   00002278   480085E5           STR      R0,[R5, #+72]
    642                vd->parse_state=OMS_TAG_NAME;
   \   0000227C   E2FDFFEA           B        ??OMS_DataArrived_33
    643                break;
    644              case OMS_TAGI_STAGE3:
    645                AddPictureItem(vd,(void *)(vd->oms+vd->oms_pos));
   \                     ??OMS_DataArrived_96:
   \   00002280   0500A0E1           MOV      R0,R5
   \   00002284   ........           _BLF     AddPictureItem,??AddPictureItem??rA
    646                vd->ref_mode_i--;
   \                     ??OMS_DataArrived_97:
   \   00002288   700095E5           LDR      R0,[R5, #+112]
   \   0000228C   010050E2           SUBS     R0,R0,#+1
   \   00002290   700085E5           STR      R0,[R5, #+112]
    647                if (!vd->ref_mode_i)
   \   00002294   F4FFFF1A           BNE      ??OMS_DataArrived_92
    648                  AddEndRef(vd);
   \   00002298   0500A0E1           MOV      R0,R5
   \   0000229C   ........           _BLF     AddEndRef,??AddEndRef??rA
   \   000022A0   F1FFFFEA           B        ??OMS_DataArrived_92
    649                vd->oms_pos=vd->oms_wanted;
    650                vd->oms_wanted++;
    651                vd->parse_state=OMS_TAG_NAME;
    652                break;
    653              case OMS_TAGX_STAGE3:
    654                //i=vd->oms_wanted-vd->oms_pos; //Size of picture
    655                AddPictureItemRGBA(vd,(void *)(vd->oms+vd->oms_pos),vd->iw,vd->ih);
   \                     ??OMS_DataArrived_98:
   \   000022A4   0730A0E1           MOV      R3,R7
   \   000022A8   0500A0E1           MOV      R0,R5
   \   000022AC   ........           _BLF     AddPictureItemRGBA,??AddPictureItemRGBA??rA
    656                vd->ref_mode_i--;
   \   000022B0   F4FFFFEA           B        ??OMS_DataArrived_97
    657                if (!vd->ref_mode_i)
    658                  AddEndRef(vd);
    659                vd->oms_pos=vd->oms_wanted;
    660                vd->oms_wanted++;
    661                vd->parse_state=OMS_TAG_NAME;
    662                break;
    663              case OMS_TAGh_STAGE3:
    664                i=vd->iw;
    665                //vd->work_ref.form_id1=vd->oms_pos;
    666                vd->oms_pos+=i;
   \                     ??OMS_DataArrived_99:
   \   000022B4   443085E5           STR      R3,[R5, #+68]
    667                i=(vd->ih=_rshort(vd));
   \   000022B8   0500A0E1           MOV      R0,R5
   \   000022BC   ........           BL       _rshort
   \   000022C0   680085E5           STR      R0,[R5, #+104]
   \   000022C4   0040A0E1           MOV      R4,R0
    668                vd->oms_wanted+=i;
   \   000022C8   480095E5           LDR      R0,[R5, #+72]
   \   000022CC   000084E0           ADD      R0,R4,R0
   \   000022D0   480085E5           STR      R0,[R5, #+72]
    669                vd->parse_state=OMS_TAGh_STAGE4;
   \   000022D4   0D00A0E3           MOV      R0,#+13
   \   000022D8   9EF7FFEA           B        ??OMS_DataArrived_16
    670                break;
    671              case OMS_TAGh_STAGE4:
    672                i=vd->ih;
   \                     ??OMS_DataArrived_100:
   \   000022DC   0740A0E1           MOV      R4,R7
    673                //vd->work_ref.form_id2=vd->oms_pos;
    674                vd->oms_pos+=i;
   \                     ??OMS_DataArrived_101:
   \   000022E0   0E0084E0           ADD      R0,R4,LR
   \   000022E4   440085E5           STR      R0,[R5, #+68]
    675                vd->oms_wanted++;
   \                     ??OMS_DataArrived_102:
   \   000022E8   489085E5           STR      R9,[R5, #+72]
    676                vd->parse_state=OMS_TAG_NAME;
   \   000022EC   C6FDFFEA           B        ??OMS_DataArrived_33
    677                break;
    678              case OMS_TAGe_STAGE3:
    679                i=vd->iw;
    680                vd->work_ref.id=vd->oms_pos-2;
   \                     ??OMS_DataArrived_103:
   \   000022F0   880085E5           STR      R0,[R5, #+136]
    681                vd->oms_pos+=i;
   \   000022F4   443085E5           STR      R3,[R5, #+68]
    682                i=(vd->ih=_rshort(vd));
   \   000022F8   0500A0E1           MOV      R0,R5
   \   000022FC   ........           BL       _rshort
   \   00002300   680085E5           STR      R0,[R5, #+104]
   \   00002304   0040A0E1           MOV      R4,R0
    683                vd->oms_wanted+=i;
   \   00002308   480095E5           LDR      R0,[R5, #+72]
   \   0000230C   000084E0           ADD      R0,R4,R0
   \   00002310   480085E5           STR      R0,[R5, #+72]
    684                vd->parse_state=OMS_TAGe_STAGE4;
   \   00002314   0F00A0E3           MOV      R0,#+15
   \   00002318   8EF7FFEA           B        ??OMS_DataArrived_16
    685                break;
    686              case OMS_TAGe_STAGE4:
    687                i=vd->ih;
   \                     ??OMS_DataArrived_104:
   \   0000231C   0740A0E1           MOV      R4,R7
    688                vd->work_ref.value=vd->oms_pos-2;
   \   00002320   8C0085E5           STR      R0,[R5, #+140]
    689                //AddEndRef(vd);
    690                vd->oms_pos+=i;
   \   00002324   EDFFFFEA           B        ??OMS_DataArrived_101
    691                vd->oms_wanted++;
    692                vd->parse_state=OMS_TAG_NAME;
    693                break;
    694              case OMS_TAGp_STAGE3:
    695                i=vd->iw;
    696                vd->work_ref.id=vd->oms_pos-2;
   \                     ??OMS_DataArrived_105:
   \   00002328   880085E5           STR      R0,[R5, #+136]
    697                vd->oms_pos+=i;
   \   0000232C   443085E5           STR      R3,[R5, #+68]
    698                i=(vd->ih=_rshort(vd));
   \   00002330   0500A0E1           MOV      R0,R5
   \   00002334   ........           BL       _rshort
   \   00002338   680085E5           STR      R0,[R5, #+104]
   \   0000233C   0040A0E1           MOV      R4,R0
    699                vd->oms_wanted+=i;
   \   00002340   480095E5           LDR      R0,[R5, #+72]
   \   00002344   000084E0           ADD      R0,R4,R0
   \   00002348   480085E5           STR      R0,[R5, #+72]
    700                vd->parse_state=OMS_TAGp_STAGE4;
   \   0000234C   1100A0E3           MOV      R0,#+17
   \   00002350   80F7FFEA           B        ??OMS_DataArrived_16
    701                break;
    702              case OMS_TAGp_STAGE4:
    703                i=vd->ih;
    704                vd->work_ref.value=vd->oms_pos-2;
   \                     ??OMS_DataArrived_106:
   \   00002354   8C0085E5           STR      R0,[R5, #+140]
    705                AddInputItem(vd,vd->oms_pos-2);
   \   00002358   0010A0E1           MOV      R1,R0
   \   0000235C   0500A0E1           MOV      R0,R5
   \   00002360   ........           _BLF     AddInputItem,??AddInputItem??rA
    706                AddEndRef(vd);
   \   00002364   0500A0E1           MOV      R0,R5
   \   00002368   ........           _BLF     AddEndRef,??AddEndRef??rA
    707                vd->oms_pos+=i;
   \   0000236C   440095E5           LDR      R0,[R5, #+68]
   \   00002370   0740A0E1           MOV      R4,R7
   \   00002374   000084E0           ADD      R0,R4,R0
   \   00002378   440085E5           STR      R0,[R5, #+68]
    708                vd->oms_wanted++;
   \   0000237C   480095E5           LDR      R0,[R5, #+72]
   \   00002380   9FFDFFEA           B        ??OMS_DataArrived_32
    709                vd->parse_state=OMS_TAG_NAME;
    710                break;
    711              case OMS_TAGu_STAGE3:
    712                i=vd->iw;
    713                vd->work_ref.id=vd->oms_pos-2;
   \                     ??OMS_DataArrived_107:
   \   00002384   880085E5           STR      R0,[R5, #+136]
    714                vd->oms_pos+=i;
   \   00002388   443085E5           STR      R3,[R5, #+68]
    715                i=(vd->ih=_rshort(vd));
   \   0000238C   0500A0E1           MOV      R0,R5
   \   00002390   ........           BL       _rshort
   \   00002394   680085E5           STR      R0,[R5, #+104]
   \   00002398   0040A0E1           MOV      R4,R0
    716                vd->oms_wanted+=i;
   \   0000239C   480095E5           LDR      R0,[R5, #+72]
   \   000023A0   000084E0           ADD      R0,R4,R0
   \   000023A4   480085E5           STR      R0,[R5, #+72]
    717                vd->parse_state=OMS_TAGu_STAGE4;
   \   000023A8   1300A0E3           MOV      R0,#+19
   \   000023AC   69F7FFEA           B        ??OMS_DataArrived_16
    718                break;
    719              case OMS_TAGu_STAGE4:
    720                i=vd->ih;
   \                     ??OMS_DataArrived_108:
   \   000023B0   0740A0E1           MOV      R4,R7
    721                vd->work_ref.value=vd->oms_pos-2;
   \   000023B4   8C0085E5           STR      R0,[R5, #+140]
    722                AddButtonItem(vd,vd->oms+vd->oms_pos,i);
   \   000023B8   0420A0E1           MOV      R2,R4
   \   000023BC   0500A0E1           MOV      R0,R5
   \   000023C0   ........           _BLF     AddButtonItem,??AddButtonItem??rA
    723                AddEndRef(vd);
   \   000023C4   0500A0E1           MOV      R0,R5
   \   000023C8   ........           _BLF     AddEndRef,??AddEndRef??rA
    724                vd->oms_pos+=i;
   \   000023CC   440095E5           LDR      R0,[R5, #+68]
   \   000023D0   000084E0           ADD      R0,R4,R0
   \   000023D4   440085E5           STR      R0,[R5, #+68]
    725                vd->oms_wanted++;
   \   000023D8   480095E5           LDR      R0,[R5, #+72]
   \   000023DC   88FDFFEA           B        ??OMS_DataArrived_32
    726                vd->parse_state=OMS_TAG_NAME;
    727                break;
    728              case OMS_TAGx_STAGE3:
    729                i=vd->iw;
    730                vd->work_ref.id=vd->oms_pos-2;
   \                     ??OMS_DataArrived_109:
   \   000023E0   880085E5           STR      R0,[R5, #+136]
    731                vd->oms_pos+=i;
   \   000023E4   443085E5           STR      R3,[R5, #+68]
    732                i=(vd->ih=_rshort(vd));
   \   000023E8   0500A0E1           MOV      R0,R5
   \   000023EC   ........           BL       _rshort
   \   000023F0   680085E5           STR      R0,[R5, #+104]
   \   000023F4   0040A0E1           MOV      R4,R0
    733                vd->oms_wanted+=i;
   \   000023F8   480095E5           LDR      R0,[R5, #+72]
   \   000023FC   000084E0           ADD      R0,R4,R0
   \   00002400   480085E5           STR      R0,[R5, #+72]
    734                vd->parse_state=OMS_TAGx_STAGE4;
   \   00002404   1500A0E3           MOV      R0,#+21
   \   00002408   52F7FFEA           B        ??OMS_DataArrived_16
    735                break;
    736              case OMS_TAGx_STAGE4:
    737                i=vd->ih;
    738                vd->work_ref.value=vd->oms_pos-2;
    739                AddInputItem(vd,vd->oms_pos-2);
    740                AddEndRef(vd);
    741                vd->oms_pos+=i;
    742                vd->oms_wanted++;
    743                vd->parse_state=OMS_TAG_NAME;
    744                break;
    745              case OMS_TAGc_STAGE3:
    746                i=vd->iw;
    747                vd->work_ref.id=vd->oms_pos-2;
   \                     ??OMS_DataArrived_110:
   \   0000240C   880085E5           STR      R0,[R5, #+136]
    748                vd->oms_pos+=i;
   \   00002410   443085E5           STR      R3,[R5, #+68]
    749                i=(vd->ih=_rshort(vd))+1;
   \   00002414   0500A0E1           MOV      R0,R5
   \   00002418   ........           BL       _rshort
   \   0000241C   680085E5           STR      R0,[R5, #+104]
   \   00002420   014080E2           ADD      R4,R0,#+1
    750                vd->oms_wanted+=i;
   \   00002424   480095E5           LDR      R0,[R5, #+72]
   \   00002428   000084E0           ADD      R0,R4,R0
   \   0000242C   480085E5           STR      R0,[R5, #+72]
    751                vd->parse_state=OMS_TAGc_STAGE4;
   \   00002430   1700A0E3           MOV      R0,#+23
   \   00002434   47F7FFEA           B        ??OMS_DataArrived_16
    752                break;
    753              case OMS_TAGc_STAGE4:
    754                i=vd->ih;
    755                vd->work_ref.value=vd->oms_pos-2;
   \                     ??OMS_DataArrived_111:
   \   00002438   8C0085E5           STR      R0,[R5, #+140]
    756                vd->oms_pos+=i;
   \   0000243C   0E0087E0           ADD      R0,R7,LR
   \   00002440   440085E5           STR      R0,[R5, #+68]
    757                i=_rbyte(vd);
   \   00002444   0500A0E1           MOV      R0,R5
   \   00002448   ........           _BLF     _rbyte,??_rbyte??rA
   \   0000244C   0040A0E1           MOV      R4,R0
    758                AddCheckBoxItem(vd,i);
   \   00002450   0410A0E1           MOV      R1,R4
   \   00002454   0500A0E1           MOV      R0,R5
   \   00002458   ........           _BLF     AddCheckBoxItem,??AddCheckBoxItem??rA
    759                AddEndRef(vd);
   \   0000245C   0500A0E1           MOV      R0,R5
   \   00002460   ........           _BLF     AddEndRef,??AddEndRef??rA
    760                vd->oms_wanted++;
   \   00002464   480095E5           LDR      R0,[R5, #+72]
   \   00002468   65FDFFEA           B        ??OMS_DataArrived_32
    761                vd->parse_state=OMS_TAG_NAME;
    762                break;
    763              case OMS_TAGr_STAGE3:
    764                i=vd->iw;
    765                vd->work_ref.id=vd->oms_pos-2;
   \                     ??OMS_DataArrived_112:
   \   0000246C   880085E5           STR      R0,[R5, #+136]
    766                vd->oms_pos+=i;
   \   00002470   443085E5           STR      R3,[R5, #+68]
    767                i=(vd->ih=_rshort(vd))+1;
   \   00002474   0500A0E1           MOV      R0,R5
   \   00002478   ........           BL       _rshort
   \   0000247C   680085E5           STR      R0,[R5, #+104]
   \   00002480   014080E2           ADD      R4,R0,#+1
    768                vd->oms_wanted+=i;
   \   00002484   480095E5           LDR      R0,[R5, #+72]
   \   00002488   000084E0           ADD      R0,R4,R0
   \   0000248C   480085E5           STR      R0,[R5, #+72]
    769                vd->parse_state=OMS_TAGr_STAGE4;
   \   00002490   1900A0E3           MOV      R0,#+25
   \   00002494   2FF7FFEA           B        ??OMS_DataArrived_16
    770                break;
    771              case OMS_TAGr_STAGE4:
    772                i=vd->ih;
    773                vd->work_ref.value=vd->oms_pos-2;
   \                     ??OMS_DataArrived_113:
   \   00002498   8C0085E5           STR      R0,[R5, #+140]
    774                vd->oms_pos+=i;
   \   0000249C   0E0087E0           ADD      R0,R7,LR
   \   000024A0   440085E5           STR      R0,[R5, #+68]
    775                i=_rbyte(vd);
   \   000024A4   0500A0E1           MOV      R0,R5
   \   000024A8   ........           _BLF     _rbyte,??_rbyte??rA
   \   000024AC   0040A0E1           MOV      R4,R0
    776                AddRadioButton(vd,i);
   \   000024B0   0410A0E1           MOV      R1,R4
   \   000024B4   0500A0E1           MOV      R0,R5
   \   000024B8   ........           _BLF     AddRadioButton,??AddRadioButton??rA
    777                AddEndRef(vd);
   \   000024BC   0500A0E1           MOV      R0,R5
   \   000024C0   ........           _BLF     AddEndRef,??AddEndRef??rA
    778                vd->oms_wanted++;
   \   000024C4   480095E5           LDR      R0,[R5, #+72]
   \   000024C8   4DFDFFEA           B        ??OMS_DataArrived_32
    779                vd->parse_state=OMS_TAG_NAME;
    780                break;
    781              case OMS_TAGs_STAGE3:
    782                i=vd->iw;
   \                     ??OMS_DataArrived_114:
   \   000024CC   0240A0E1           MOV      R4,R2
    783                vd->work_ref.id=vd->oms_pos-2;
   \   000024D0   880085E5           STR      R0,[R5, #+136]
    784                vd->oms_pos+=i;
   \   000024D4   443085E5           STR      R3,[R5, #+68]
    785                vd->work_ref.multiselect=_rbyte(vd);
   \   000024D8   0500A0E1           MOV      R0,R5
   \   000024DC   ........           _BLF     _rbyte,??_rbyte??rA
   \   000024E0   9C10D5E5           LDRB     R1,[R5, #+156]
   \   000024E4   0220A0E3           MOV      R2,#+2
   \   000024E8   800002E0           AND      R0,R2,R0, LSL #+1
   \   000024EC   FD1001E2           AND      R1,R1,#0xFD
   \   000024F0   010080E1           ORR      R0,R0,R1
   \   000024F4   9C00C5E5           STRB     R0,[R5, #+156]
    786                vd->work_ref.data=malloc(vd->tag_o_count=_rshort(vd));
   \   000024F8   0500A0E1           MOV      R0,R5
   \   000024FC   ........           BL       _rshort
   \   00002500   6C0085E5           STR      R0,[R5, #+108]
   \   00002504   140000EF           SWI      +20
   \   00002508   940085E5           STR      R0,[R5, #+148]
    787                vd->work_ref.size=0;
   \   0000250C   0000A0E3           MOV      R0,#+0
   \   00002510   980085E5           STR      R0,[R5, #+152]
    788                vd->oms_wanted++;
   \                     ??OMS_DataArrived_115:
   \   00002514   480095E5           LDR      R0,[R5, #+72]
   \   00002518   55FFFFEA           B        ??OMS_DataArrived_95
    789                vd->parse_state=OMS_TAG_NAME;
    790                break;
    791              case OMS_TAGo_STAGE3:
    792                i=vd->iw;
    793                //AddTextItem(vd,vd->oms+vd->oms_pos,i);
    794                vd->oms_pos+=i;
   \                     ??OMS_DataArrived_116:
   \   0000251C   443085E5           STR      R3,[R5, #+68]
    795                i=vd->ih=_rshort(vd);
   \   00002520   0500A0E1           MOV      R0,R5
   \   00002524   ........           BL       _rshort
   \   00002528   680085E5           STR      R0,[R5, #+104]
   \   0000252C   0040A0E1           MOV      R4,R0
    796                vd->oms_wanted+=i+1;
   \   00002530   480095E5           LDR      R0,[R5, #+72]
   \   00002534   011084E2           ADD      R1,R4,#+1
   \   00002538   000081E0           ADD      R0,R1,R0
   \   0000253C   480085E5           STR      R0,[R5, #+72]
    797                vd->parse_state=OMS_TAGo_STAGE4;
   \   00002540   1C00A0E3           MOV      R0,#+28
   \   00002544   03F7FFEA           B        ??OMS_DataArrived_16
    798                break;
    799              case OMS_TAGo_STAGE4:
    800                i=vd->ih;
   \                     ??OMS_DataArrived_117:
   \   00002548   0740A0E1           MOV      R4,R7
    801                //AddTextItem(vd,vd->oms+vd->oms_pos,i);
    802                //AddBrItem(vd);
    803                vd->oms_pos+=i;
   \   0000254C   0E0084E0           ADD      R0,R4,LR
   \   00002550   440085E5           STR      R0,[R5, #+68]
    804                if (((char*)vd->work_ref.data)[vd->work_ref.size]=_rbyte(vd)) //checked/unchecked
   \   00002554   0500A0E1           MOV      R0,R5
   \   00002558   ........           _BLF     _rbyte,??_rbyte??rA
   \   0000255C   981095E5           LDR      R1,[R5, #+152]
   \   00002560   942095E5           LDR      R2,[R5, #+148]
   \   00002564   0200C1E7           STRB     R0,[R1, +R2]
   \   00002568   980095E5           LDR      R0,[R5, #+152]
   \   0000256C   941095E5           LDR      R1,[R5, #+148]
   \   00002570   0110D0E7           LDRB     R1,[R0, +R1]
   \   00002574   000051E3           CMP      R1,#+0
   \   00002578   0900000A           BEQ      ??OMS_DataArrived_118
    805                {
    806                  vd->work_ref.value=vd->oms_pos-1-vd->ih-2-vd->iw-2;
   \   0000257C   441095E5           LDR      R1,[R5, #+68]
   \   00002580   682095E5           LDR      R2,[R5, #+104]
   \   00002584   011041E2           SUB      R1,R1,#+1
   \   00002588   021041E0           SUB      R1,R1,R2
   \   0000258C   642095E5           LDR      R2,[R5, #+100]
   \   00002590   022041E0           SUB      R2,R1,R2
   \   00002594   042042E2           SUB      R2,R2,#+4
   \   00002598   8C2085E5           STR      R2,[R5, #+140]
    807                  vd->work_ref.id2=vd->oms_pos-1-vd->ih-2;
   \   0000259C   021041E2           SUB      R1,R1,#+2
   \   000025A0   901085E5           STR      R1,[R5, #+144]
    808                }
    809                vd->work_ref.size++;
   \                     ??OMS_DataArrived_118:
   \   000025A4   010080E2           ADD      R0,R0,#+1
   \   000025A8   980085E5           STR      R0,[R5, #+152]
    810                if (!vd->tag_o_count)
   \   000025AC   6C0095E5           LDR      R0,[R5, #+108]
   \   000025B0   000050E3           CMP      R0,#+0
   \   000025B4   36FDFF1A           BNE      ??OMS_DataArrived_38
    811                {
    812                  AddDropDownList(vd);
   \   000025B8   0500A0E1           MOV      R0,R5
   \   000025BC   ........           _BLF     AddDropDownList,??AddDropDownList??rA
    813                  AddEndRef(vd);
   \   000025C0   F2FDFFEA           B        ??OMS_DataArrived_68
    814                }
    815                vd->oms_wanted++;
    816                vd->parse_state=OMS_TAG_NAME;
    817                break;
    818              case OMS_TAGi_STAGE3:
    819                i=vd->iw;
    820                vd->work_ref.id=vd->oms_pos-2;
   \                     ??OMS_DataArrived_119:
   \   000025C4   880085E5           STR      R0,[R5, #+136]
    821                vd->oms_pos+=i;
   \   000025C8   443085E5           STR      R3,[R5, #+68]
    822                i=vd->ih=_rshort(vd);
   \   000025CC   0500A0E1           MOV      R0,R5
   \   000025D0   ........           BL       _rshort
   \   000025D4   680085E5           STR      R0,[R5, #+104]
   \   000025D8   0040A0E1           MOV      R4,R0
    823                vd->oms_wanted+=i;
   \   000025DC   480095E5           LDR      R0,[R5, #+72]
   \   000025E0   000084E0           ADD      R0,R4,R0
   \   000025E4   480085E5           STR      R0,[R5, #+72]
    824                vd->parse_state=OMS_TAGi_STAGE4;
   \   000025E8   1E00A0E3           MOV      R0,#+30
   \   000025EC   D9F6FFEA           B        ??OMS_DataArrived_16
    825                break;
    826              case OMS_TAGi_STAGE4:
    827                i=vd->ih;
   \                     ??OMS_DataArrived_120:
   \   000025F0   0740A0E1           MOV      R4,R7
    828                vd->work_ref.value=vd->oms_pos-2;
   \   000025F4   8C0085E5           STR      R0,[R5, #+140]
    829                //AddTextItem(vd,vd->oms+vd->oms_pos,i);
    830                //if (vd->tag_l_count)
    831                //{
    832                //  if (!(--vd->tag_l_count))
    833                //  {
    834                //    AddEndRef(vd);
    835                //  }
    836                //}
    837                //else
    838                //{
    839                //  AddTextItem(vd,"!Illegal <i>!",13);
    840                //  AddBrItem(vd);
    841                //  vd->parse_state=OMS_STOP;
    842                //  return;
    843                //}
    844                vd->oms_pos+=i;
   \   000025F8   0E0084E0           ADD      R0,R4,LR
   \   000025FC   440085E5           STR      R0,[R5, #+68]
    845                //_rshort(vd); //unk
    846                vd->oms_wanted++;
   \   00002600   489085E5           STR      R9,[R5, #+72]
    847                vd->ref_mode_i=1;
   \   00002604   0100A0E3           MOV      R0,#+1
   \   00002608   700085E5           STR      R0,[R5, #+112]
    848                vd->parse_state=OMS_TAG_NAME;
   \   0000260C   FEFCFFEA           B        ??OMS_DataArrived_33
   \                     ??OMS_DataArrived_94:
   \   00002610   7C000000           DC8      "|",+0,+0
    849                break;
    850              case OMS_TAGk_STAGE3:
    851                i=vd->iw;
   \                     ??OMS_DataArrived_121:
   \   00002614   0240A0E1           MOV      R4,R2
    852                AddPictureItemHr(vd);
    853                sprintf(s,vd->ih?"New AuthCode: ":"New AuthPrefix: ");
    854                if (authcode_write_file)
   \   00002618   C4719FE5           LDR      R7,??OMS_DataArrived_25+0x20  ;; AUTH_PREFIX
   \   0000261C   0500A0E1           MOV      R0,R5
   \   00002620   ........           _BLF     AddPictureItemHr,??AddPictureItemHr??rA
   \   00002624   680095E5           LDR      R0,[R5, #+104]
   \   00002628   000050E3           CMP      R0,#+0
   \   0000262C   B4119F15           LDRNE    R1,??OMS_DataArrived_25+0x24  ;; `?<Constant "ZLib Err %d\\n">` + 104
   \   00002630   0C008DE2           ADD      R0,SP,#+12
   \   00002634   B0119F05           LDREQ    R1,??OMS_DataArrived_25+0x28  ;; `?<Constant "ZLib Err %d\\n">` + 120
   \   00002638   160000EF           SWI      +22
   \   0000263C   AC019FE5           LDR      R0,??OMS_DataArrived_25+0x2C  ;; authcode_write_file
   \   00002640   000090E5           LDR      R0,[R0, #+0]
   \   00002644   000050E3           CMP      R0,#+0
   \   00002648   1300000A           BEQ      ??OMS_DataArrived_122
    855                {
    856                  if(vd->ih)
   \   0000264C   440095E5           LDR      R0,[R5, #+68]
   \   00002650   3C1095E5           LDR      R1,[R5, #+60]
   \   00002654   98819FE5           LDR      R8,??OMS_DataArrived_25+0x30  ;; AUTH_CODE
   \   00002658   011080E0           ADD      R1,R0,R1
   \   0000265C   680095E5           LDR      R0,[R5, #+104]
   \   00002660   0420A0E1           MOV      R2,R4
   \   00002664   000050E3           CMP      R0,#+0
   \   00002668   0400000A           BEQ      ??OMS_DataArrived_123
    857                  {
    858                    memcpy(AUTH_CODE, vd->oms+vd->oms_pos, i);
   \   0000266C   0800A0E1           MOV      R0,R8
   \   00002670   1E0100EF           SWI      +286
    859                    AUTH_CODE[i] = 0;
   \   00002674   0000A0E3           MOV      R0,#+0
   \   00002678   0800C4E7           STRB     R0,[R4, +R8]
    860                    SaveAuthCode(AUTH_PREFIX, AUTH_CODE);
   \   0000267C   030000EA           B        ??OMS_DataArrived_124
    861                  }
    862                  else
    863                  {
    864                    memcpy(AUTH_PREFIX, vd->oms+vd->oms_pos, i);
   \                     ??OMS_DataArrived_123:
   \   00002680   0700A0E1           MOV      R0,R7
   \   00002684   1E0100EF           SWI      +286
    865                    AUTH_PREFIX[i] = 0;
   \   00002688   0000A0E3           MOV      R0,#+0
   \   0000268C   0700C4E7           STRB     R0,[R4, +R7]
    866                    SaveAuthCode(AUTH_PREFIX, AUTH_CODE);
   \                     ??OMS_DataArrived_124:
   \   00002690   0810A0E1           MOV      R1,R8
   \   00002694   0700A0E1           MOV      R0,R7
   \   00002698   ........           _BLF     SaveAuthCode,??SaveAuthCode??rA
    867                  }
    868                }
    869                AddTextItem(vd,s,strlen(s));
   \                     ??OMS_DataArrived_122:
   \   0000269C   0C008DE2           ADD      R0,SP,#+12
   \   000026A0   1B0000EF           SWI      +27
   \   000026A4   0020A0E1           MOV      R2,R0
   \   000026A8   0C108DE2           ADD      R1,SP,#+12
   \   000026AC   0500A0E1           MOV      R0,R5
   \   000026B0   ........           _BLF     AddTextItem,??AddTextItem??rA
    870                extern int view_url_mode;
    871                if ((view_url_mode == MODE_URL)&&(!vd->ih))
   \   000026B4   24019FE5           LDR      R0,??OMS_DataArrived_25+0x1C  ;; view_url_mode
   \   000026B8   000090E5           LDR      R0,[R0, #+0]
   \   000026BC   010050E3           CMP      R0,#+1
   \   000026C0   68009505           LDREQ    R0,[R5, #+104]
   \   000026C4   00005003           CMPEQ    R0,#+0
   \   000026C8   0700001A           BNE      ??OMS_DataArrived_125
    872                {
    873                  memcpy(AUTH_PREFIX, vd->oms+vd->oms_pos, i);
   \   000026CC   440095E5           LDR      R0,[R5, #+68]
   \   000026D0   3C1095E5           LDR      R1,[R5, #+60]
   \   000026D4   0420A0E1           MOV      R2,R4
   \   000026D8   011080E0           ADD      R1,R0,R1
   \   000026DC   0700A0E1           MOV      R0,R7
   \   000026E0   1E0100EF           SWI      +286
    874                  AUTH_PREFIX[i] = 0;
   \   000026E4   0000A0E3           MOV      R0,#+0
   \   000026E8   0700C4E7           STRB     R0,[R4, +R7]
    875                }
    876                AddTextItem(vd,vd->oms+vd->oms_pos,i);
   \                     ??OMS_DataArrived_125:
   \   000026EC   440095E5           LDR      R0,[R5, #+68]
   \   000026F0   3C1095E5           LDR      R1,[R5, #+60]
   \   000026F4   0420A0E1           MOV      R2,R4
   \   000026F8   011080E0           ADD      R1,R0,R1
   \   000026FC   0500A0E1           MOV      R0,R5
   \   00002700   ........           _BLF     AddTextItem,??AddTextItem??rA
    877                AddPictureItemHr(vd);
   \   00002704   0500A0E1           MOV      R0,R5
   \   00002708   ........           _BLF     AddPictureItemHr,??AddPictureItemHr??rA
    878                vd->oms_pos=vd->oms_wanted;
   \   0000270C   D6FEFFEA           B        ??OMS_DataArrived_92
    879                vd->oms_wanted++;
    880                vd->parse_state=OMS_TAG_NAME;
    881                break;
    882              case OMS_TAGL_STAGE3:
    883                i=vd->oms_wanted-vd->oms_pos;
   \                     ??OMS_DataArrived_126:
   \   00002710   04409DE5           LDR      R4,[SP, #+4]
    884                vd->work_ref.id=vd->oms_pos-2;
   \   00002714   880085E5           STR      R0,[R5, #+136]
    885                vd->oms_pos=vd->oms_wanted;
   \   00002718   44C085E5           STR      R12,[R5, #+68]
    886                vd->oms_wanted++;
   \   0000271C   F1FEFFEA           B        ??OMS_DataArrived_102
    887                vd->parse_state=OMS_TAG_NAME;
    888                break;
    889              case OMS_TAGx5E_STAGE3:
    890                i=vd->oms_wanted-vd->oms_pos;
    891                vd->work_ref.id=vd->oms_pos-2;
    892                vd->oms_pos=vd->oms_wanted;
    893                vd->oms_wanted++;
    894                vd->parse_state=OMS_TAG_NAME;
    895                break;
    896              case OMS_TAGP_STAGE3:
    897                i=vd->oms_wanted-vd->oms_pos;
   \                     ??OMS_DataArrived_127:
   \   00002720   04409DE5           LDR      R4,[SP, #+4]
    898                //AddTextItem(vd,vd->oms+vd->oms_pos,i);
    899                //AddTextItem(vd,slash,1);
    900                vd->oms_pos=vd->oms_wanted;
   \   00002724   44C085E5           STR      R12,[R5, #+68]
    901                vd->oms_wanted++;
   \   00002728   489085E5           STR      R9,[R5, #+72]
    902                vd->parse_state=OMS_TAG_NAME;
   \   0000272C   4C6085E5           STR      R6,[R5, #+76]
   \   00002730   89F6FFEA           B        ??OMS_DataArrived_14
    903                break;
    904              case OMS_TAGZ_STAGE3:
    905                i=vd->iw;
   \                     ??OMS_DataArrived_128:
   \   00002734   0240A0E1           MOV      R4,R2
    906                //AddBrItem(vd);
    907                //AddTextItem(vd,vd->oms+vd->oms_pos,i);
    908                //AddBrItem(vd);
    909                vd->oms_pos+=i;
   \   00002738   443085E5           STR      R3,[R5, #+68]
    910                //AddEndRef(vd);
    911                vd->oms_wanted++;
   \   0000273C   489085E5           STR      R9,[R5, #+72]
    912                vd->parse_state=OMS_TAG_NAME;
   \   00002740   B1FCFFEA           B        ??OMS_DataArrived_33
    913                break;
    914              case OMS_TAGx40_STAGE3:
    915                i=vd->iw;
   \                     ??OMS_DataArrived_129:
   \   00002744   0240A0E1           MOV      R4,R2
    916                AddTextItem(vd,vd->oms+vd->oms_pos,i);
   \   00002748   0500A0E1           MOV      R0,R5
   \   0000274C   ........           _BLF     AddTextItem,??AddTextItem??rA
    917                AddBrItem(vd);
   \   00002750   0500A0E1           MOV      R0,R5
   \   00002754   ........           _BLF     AddBrItem,??AddBrItem??rA
    918                vd->oms_pos+=i;
   \   00002758   440095E5           LDR      R0,[R5, #+68]
   \   0000275C   000084E0           ADD      R0,R4,R0
   \   00002760   440085E5           STR      R0,[R5, #+68]
    919                AddEndRef(vd);
   \   00002764   0500A0E1           MOV      R0,R5
   \   00002768   ........           _BLF     AddEndRef,??AddEndRef??rA
    920                vd->oms_wanted++;
   \   0000276C   68FFFFEA           B        ??OMS_DataArrived_115
    921                vd->parse_state=OMS_TAG_NAME;
    922                break;
    923              case OMS_STOP:
    924                return;
    925              default:
    926                sprintf(s,"StateMachine failed %u",i);
   \                     ??OMS_DataArrived_18:
   \   00002770   80109FE5           LDR      R1,??OMS_DataArrived_25+0x34  ;; `?<Constant "ZLib Err %d\\n">` + 140
   \   00002774   0420A0E1           MOV      R2,R4
   \   00002778   0C008DE2           ADD      R0,SP,#+12
   \   0000277C   160000EF           SWI      +22
    927                AddTextItem(vd,s,strlen(s));
   \   00002780   0C008DE2           ADD      R0,SP,#+12
   \   00002784   1B0000EF           SWI      +27
   \   00002788   0020A0E1           MOV      R2,R0
   \   0000278C   0C108DE2           ADD      R1,SP,#+12
   \   00002790   0500A0E1           MOV      R0,R5
   \   00002794   ........           _BLF     AddTextItem,??AddTextItem??rA
    928                AddBrItem(vd);
   \   00002798   0500A0E1           MOV      R0,R5
   \   0000279C   ........           _BLF     AddBrItem,??AddBrItem??rA
    929                vd->parse_state=OMS_STOP;
   \   000027A0   71FCFFEA           B        ??OMS_DataArrived_6
    930                return;
    931              }
    932            }
    933            if (vd->zs)
   \                     ??OMS_DataArrived_17:
   \   000027A4   000095E5           LDR      R0,[R5, #+0]
   \   000027A8   000050E3           CMP      R0,#+0
   \   000027AC   0200000A           BEQ      ??OMS_DataArrived_24
    934            {
    935              if (vd->zs->avail_out==0)
   \   000027B0   100090E5           LDR      R0,[R0, #+16]
   \   000027B4   000050E3           CMP      R0,#+0
   \   000027B8   22F6FF0A           BEQ      ??OMS_DataArrived_9
   \                     ??OMS_DataArrived_24:
   \   000027BC   94D08DE2           ADD      SP,SP,#+148      ;; stack cleaning
   \   000027C0   F08FBDE8           POP      {R4-R11,PC}      ;; return
   \                     ??OMS_DataArrived_25:
   \   000027C4   ........           DC32     `?<Constant "ZLib Err %d\\n">` + 48
   \   000027C8   ........           DC32     zcalloc
   \   000027CC   ........           DC32     `?<Constant "ZLib Err %d\\n">` + 16
   \   000027D0   ........           DC32     zcfree
   \   000027D4   ........           DC32     `?<Constant "ZLib Err %d\\n">` + 24
   \   000027D8   ........           DC32     `?<Constant "ZLib Err %d\\n">` + 72
   \   000027DC   ........           DC32     `?<Constant "ZLib Err %d\\n">` + 88
   \   000027E0   ........           DC32     view_url_mode
   \   000027E4   ........           DC32     AUTH_PREFIX
   \   000027E8   ........           DC32     `?<Constant "ZLib Err %d\\n">` + 104
   \   000027EC   ........           DC32     `?<Constant "ZLib Err %d\\n">` + 120
   \   000027F0   ........           DC32     authcode_write_file
   \   000027F4   ........           DC32     AUTH_CODE
   \   000027F8   ........           DC32     `?<Constant "ZLib Err %d\\n">` + 140
    936              {
    937                goto L_ZNEXT;
    938              }
    939            }
    940          }

   \                                 In segment DATA_C, align 4, align-sorted
   \                     `?<Constant "ZLib Err %d\\n">`:
   \   00000000   5A4C69622045       DC8 "ZLib Err %d\012"
   \              72722025640A
   \              00          
   \   0000000D   000000             DC8 0, 0, 0
   \   00000010   312E322E3300       DC8 "1.2.3"
   \   00000016   0000               DC8 0, 0
   \   00000018   696E666C6174       DC8 "inflateInit2 err %d\012"
   \              65496E697432
   \              206572722025
   \              640A00      
   \   0000002D   000000             DC8 0, 0, 0
   \   00000030   4E6F74207375       DC8 "Not supported type %X\012"
   \              70706F727465
   \              642074797065
   \              2025580A00  
   \   00000047   00                 DC8 0
   \   00000048   556E6B6E6F77       DC8 "Unknown tag %c\012"
   \              6E2074616720
   \              25630A00    
   \   00000058   21496C6C6567       DC8 "!Illegal <o>!\012"
   \              616C203C6F3E
   \              210A00      
   \   00000067   00                 DC8 0
   \   00000068   4E6577204175       DC8 "New AuthCode: "
   \              7468436F6465
   \              3A2000      
   \   00000077   00                 DC8 0
   \   00000078   4E6577204175       DC8 "New AuthPrefix: "
   \              746850726566
   \              69783A2000  
   \   00000089   000000             DC8 0, 0, 0
   \   0000008C   53746174654D       DC8 "StateMachine failed %u"
   \              616368696E65
   \              206661696C65
   \              6420257500  
   \   000000A3   00                 DC8 0

   \                                 In segment DATA_C, align 1, align-sorted
   \   00000000   7C00               DC8 "|"
    941          

   Maximum stack usage in bytes:

     Function        CSTACK
     --------        ------
     OMS_DataArrived   184
     _rbyte              0
     _rlong              0
     _rshort             0
     zcalloc             4
     zcfree              4


   Segment part sizes:

     Function/Label              Bytes
     --------------              -----
     _rbyte                         28
     _rshort                        40
     _rlong                         56
     zcalloc                        16
     zcfree                         16
     OMS_DataArrived             10236
     ?<Constant "ZLib Err %d\n">   164
     ?<Constant "|">                 2
      Others                       296

 
 10 688 bytes in segment CODE
    166 bytes in segment DATA_C
 
 10 364 bytes of CODE  memory (+ 324 bytes shared)
    166 bytes of CONST memory

Errors: none
Warnings: none
