//////////////////////////////////////////////////////////////////////////////
//                                                                           /
// IAR ARM ANSI C/C++ Compiler V4.42A/W32 EVALUATION   07/Mar/2011  21:05:08 /
// Copyright 1999-2005 IAR Systems. All rights reserved.                     /
//                                                                           /
//    Cpu mode        =  interwork                                           /
//    Endian          =  little                                              /
//    Stack alignment =  4                                                   /
//    Source file     =  C:\arm\pp\main.c                                    /
//    Command line    =  C:\arm\pp\main.c -D NEWSGOLD -D ELKA -lC            /
//                       C:\arm\pp\Release_ELKA\List\ -lA                    /
//                       C:\arm\pp\Release_ELKA\List\ -o                     /
//                       C:\arm\pp\Release_ELKA\Obj\ -s9 --cpu_mode arm      /
//                       --endian little --cpu ARM926EJ-S --stack_align 4    /
//                       --interwork -e --fpu None -I "C:\arm2\Embedded      /
//                       Workbench 4.0 Evaluation\ARM\INC\"                  /
//                       --inline_threshold=3                                /
//    List file       =  C:\arm\pp\Release_ELKA\List\main.s79                /
//                                                                           /
//                                                                           /
//////////////////////////////////////////////////////////////////////////////

        NAME main

        RTMODEL "StackAlign4", "USED"
        RTMODEL "__cpu_mode", "__pcs__interwork"
        RTMODEL "__data_model", "absolute"
        RTMODEL "__endian", "little"
        RTMODEL "__rt_version", "6"

        RSEG CSTACK:DATA:NOROOT(2)

        PUBWEAK `?*?DATA_ID`
        MULTWEAK ??AI??rT
        MULTWEAK ??DRE??rT
??DataTable0 EQU 0
??DataTable10 EQU 0
??DataTable12 EQU 0
??DataTable13 EQU 0
??DataTable14 EQU 0
??DataTable15 EQU 0
??DataTable16 EQU 0
??DataTable17 EQU 0
??DataTable18 EQU 0
??DataTable2 EQU 0
??DataTable20 EQU 0
??DataTable21 EQU 0
??DataTable22 EQU 0
??DataTable24 EQU 0
??DataTable25 EQU 0
??DataTable28 EQU 0
??DataTable3 EQU 0
??DataTable30 EQU 0
??DataTable31 EQU 0
??DataTable32 EQU 0
??DataTable33 EQU 0
??DataTable34 EQU 0
??DataTable35 EQU 0
??DataTable36 EQU 0
??DataTable38 EQU 0
??DataTable4 EQU 0
??DataTable40 EQU 0
??DataTable43 EQU 0
??DataTable44 EQU 0
??DataTable45 EQU 0
??DataTable46 EQU 0
??DataTable47 EQU 0
??DataTable48 EQU 0
??DataTable49 EQU 0
??DataTable50 EQU 0
??DataTable51 EQU 0
??DataTable52 EQU 0
??DataTable56 EQU 0
??DataTable6 EQU 0
??DataTable60 EQU 0
??DataTable62 EQU 0
??DataTable63 EQU 0
??DataTable64 EQU 0
??DataTable7 EQU 0
??DataTable8 EQU 0
??DataTable9 EQU 0
        MULTWEAK ??DrwImg??rT
        MULTWEAK ??ElfKiller??rT
        MULTWEAK ??GetSize??rT
        MULTWEAK ??Init??rT
        MULTWEAK ??InitConfig??rA
        MULTWEAK ??Play??rT
        MULTWEAK ??Redraw??rT
        MULTWEAK ??T_Load_IMG??rT
        MULTWEAK ??UpdateCSMname??rT
        MULTWEAK ??deleteIMGHDR??rT
        MULTWEAK ??delimghdr??rT
        MULTWEAK ??deltimers??rT
        MULTWEAK ??down_but??rT
        MULTWEAK ??enter_but??rT
        MULTWEAK ??exit??rT
        MULTWEAK ??gameover??rT
        MULTWEAK ??green_but??rT
        MULTWEAK ??kill_data??rA
        MULTWEAK ??left_but??rT
        MULTWEAK ??left_soft??rT
        MULTWEAK ??lgpInitLangPack??rT
        MULTWEAK ??loadNastr??rT
        MULTWEAK ??loadSettings??rT
        MULTWEAK ??load_lang??rT
        MULTWEAK ??loading??rT
        MULTWEAK ??main??rT
        MULTWEAK ??malloclang??rT
        MULTWEAK ??method8??rT
        MULTWEAK ??method9??rT
        MULTWEAK ??mfreeImages??rT
        MULTWEAK ??mfreelang??rT
        MULTWEAK ??move_ball??rT
        MULTWEAK ??move_block??rT
        MULTWEAK ??openconf??rT
        MULTWEAK ??outtextxy??rT
        MULTWEAK ??parserecord??rT
        MULTWEAK ??png??rT
        MULTWEAK ??resh_but??rT
        MULTWEAK ??right_but??rT
        MULTWEAK ??right_soft??rT
        MULTWEAK ??saveSettings??rT
        MULTWEAK ??savedata??rT
        MULTWEAK ??setgame??rT
        MULTWEAK ??setpause??rT
        MULTWEAK ??shift_block??rT
        MULTWEAK ??shift_cpu??rT
        MULTWEAK ??start_vibra??rT
        MULTWEAK ??startcont??rT
        MULTWEAK ??stop??rT
        MULTWEAK ??stop_vibra??rT
        MULTWEAK ??up_but??rT
        MULTWEAK ??win??rT
        PUBWEAK ?init?tab?DATA_I
        PUBWEAK ?init?tab?DATA_Z
        PUBLIC AI
        FUNCTION AI,0201H
        LOCFRAME CSTACK, 20, STACK
        PUBLIC AI_line
        PUBLIC DRE
        FUNCTION DRE,0203H
        LOCFRAME CSTACK, 24, STACK
        PUBLIC DrwImg
        FUNCTION DrwImg,0203H
        LOCFRAME CSTACK, 56, STACK
        PUBLIC ElfKiller
        FUNCTION ElfKiller,0603H
        LOCFRAME CSTACK, 4, STACK
        PUBLIC GetSize
        FUNCTION GetSize,0201H
        PUBLIC Init
        FUNCTION Init,0201H
        LOCFRAME CSTACK, 36, STACK
        PUBLIC MAINCSM_ID
        PUBLIC MAINGUI_ID
        FUNCTION OnKey,0603H
        LOCFRAME CSTACK, 8, STACK
        FUNCTION OnRedraw,0603H
        LOCFRAME CSTACK, 76, STACK
        PUBLIC PLAY_ID
        PUBLIC Play
        FUNCTION Play,0203H
        LOCFRAME CSTACK, 72, STACK
        PUBLIC Redraw
        FUNCTION Redraw,0601H
        LOCFRAME CSTACK, 4, STACK
        PUBLIC T_Load_IMG
        FUNCTION T_Load_IMG,0601H
        LOCFRAME CSTACK, 12, STACK
        PUBLIC Time
        PUBLIC UpdateCSMname
        FUNCTION UpdateCSMname,0203H
        LOCFRAME CSTACK, 8, STACK
        PUBLIC ball
        PUBLIC bgcol
        PUBLIC bgcol_lang_cur
        PUBLIC clear
        PUBLIC color_frame
        PUBLIC cpu
        PUBLIC cur_x
        PUBLIC cur_y
        PUBLIC def_vol
        PUBLIC deleteIMGHDR
        FUNCTION deleteIMGHDR,0203H
        LOCFRAME CSTACK, 8, STACK
        PUBLIC delimghdr
        FUNCTION delimghdr,0201H
        LOCFRAME CSTACK, 12, STACK
        PUBLIC deltimers
        FUNCTION deltimers,0201H
        LOCFRAME CSTACK, 12, STACK
        PUBLIC difficult
        PUBLIC down_but
        FUNCTION down_but,0201H
        LOCFRAME CSTACK, 4, STACK
        PUBLIC enter_but
        FUNCTION enter_but,0201H
        LOCFRAME CSTACK, 12, STACK
        PUBLIC error_count
        PUBLIC exit
        FUNCTION exit,0201H
        PUBLIC exiting
        PUBLIC folders
        PUBLIC game_new_cont
        PUBLIC gameover
        FUNCTION gameover,0201H
        LOCFRAME CSTACK, 16, STACK
        PUBLIC gdy
        PUBLIC green_but
        FUNCTION green_but,0201H
        LOCFRAME CSTACK, 4, STACK
        PUBLIC gui_methods
        PUBLIC images
        PUBLIC img_count
        PUBLIC isload
        PUBLIC lang
        PUBLIC langenru
        PUBLIC left_but
        FUNCTION left_but,0201H
        LOCFRAME CSTACK, 12, STACK
        PUBLIC left_soft
        FUNCTION left_soft,0201H
        LOCFRAME CSTACK, 12, STACK
        PUBLIC lgpInitLangPack
        FUNCTION lgpInitLangPack,0201H
        LOCFRAME CSTACK, 16, STACK
        PUBLIC linecol2
        PUBLIC lives
        PUBLIC loadNastr
        FUNCTION loadNastr,0201H
        LOCFRAME CSTACK, 12, STACK
        PUBLIC loadSettings
        FUNCTION loadSettings,0201H
        LOCFRAME CSTACK, 12, STACK
        PUBLIC load_lang
        FUNCTION load_lang,0201H
        LOCFRAME CSTACK, 56, STACK
        PUBLIC loading
        FUNCTION loading,0203H
        LOCFRAME CSTACK, 112, STACK
        PUBLIC main
        FUNCTION main,0a01H
        LOCFRAME CSTACK, 48, STACK
        PUBLIC main_y
        PUBLIC maincsm_name_body
        FUNCTION maincsm_onclose,0603H
        LOCFRAME CSTACK, 8, STACK
        FUNCTION maincsm_oncreate,0603H
        LOCFRAME CSTACK, 12, STACK
        FUNCTION maincsm_onmessage,0603H
        LOCFRAME CSTACK, 4, STACK
        PUBLIC malloclang
        FUNCTION malloclang,0201H
        LOCFRAME CSTACK, 8, STACK
        PUBLIC method8
        FUNCTION method8,0603H
        PUBLIC method9
        FUNCTION method9,0603H
        PUBLIC mfreeImages
        FUNCTION mfreeImages,0201H
        LOCFRAME CSTACK, 8, STACK
        PUBLIC mfreelang
        FUNCTION mfreelang,0201H
        LOCFRAME CSTACK, 8, STACK
        PUBLIC minus11
        PUBLIC mode
        PUBLIC move_ball
        FUNCTION move_ball,0201H
        LOCFRAME CSTACK, 40, STACK
        PUBLIC move_block
        FUNCTION move_block,0201H
        LOCFRAME CSTACK, 16, STACK
        FUNCTION onClose,0603H
        LOCFRAME CSTACK, 8, STACK
        FUNCTION onCreate,0603H
        LOCFRAME CSTACK, 8, STACK
        FUNCTION onFocus,0603H
        LOCFRAME CSTACK, 8, STACK
        FUNCTION onUnfocus,0603H
        LOCFRAME CSTACK, 8, STACK
        PUBLIC on_off_sound
        PUBLIC openconf
        FUNCTION openconf,0201H
        LOCFRAME CSTACK, 12, STACK
        PUBLIC outtextxy
        FUNCTION outtextxy,0203H
        LOCFRAME CSTACK, 32, STACK
        PUBLIC parserecord
        FUNCTION parserecord,0203H
        LOCFRAME CSTACK, 36, STACK
        PUBLIC per_s
        PUBLIC perc_t
        PUBLIC pics
        PUBLIC png
        FUNCTION png,0203H
        LOCFRAME CSTACK, 8, STACK
        PUBLIC record
        PUBLIC resh_but
        FUNCTION resh_but,0201H
        LOCFRAME CSTACK, 8, STACK
        PUBLIC right_but
        FUNCTION right_but,0201H
        LOCFRAME CSTACK, 12, STACK
        PUBLIC right_soft
        FUNCTION right_soft,0201H
        LOCFRAME CSTACK, 4, STACK
        PUBLIC rndindex
        PUBLIC rndtable
        PUBLIC running
        PUBLIC saveSettings
        FUNCTION saveSettings,0201H
        LOCFRAME CSTACK, 12, STACK
        PUBLIC savedata
        FUNCTION savedata,0203H
        LOCFRAME CSTACK, 12, STACK
        PUBLIC saveload
        PUBLIC setgame
        FUNCTION setgame,0203H
        LOCFRAME CSTACK, 16, STACK
        PUBLIC setpause
        FUNCTION setpause,0201H
        LOCFRAME CSTACK, 12, STACK
        PUBLIC shift_block
        FUNCTION shift_block,0203H
        LOCFRAME CSTACK, 4, STACK
        PUBLIC shift_cpu
        FUNCTION shift_cpu,0203H
        LOCFRAME CSTACK, 4, STACK
        PUBLIC speed_game
        PUBLIC start_vibra
        FUNCTION start_vibra,0203H
        LOCFRAME CSTACK, 16, STACK
        PUBLIC startcont
        FUNCTION startcont,0201H
        LOCFRAME CSTACK, 12, STACK
        PUBLIC status
        PUBLIC stop
        FUNCTION stop,0203H
        LOCFRAME CSTACK, 16, STACK
        PUBLIC stop_vibra
        FUNCTION stop_vibra,0603H
        LOCFRAME CSTACK, 4, STACK
        PUBLIC tmr
        PUBLIC up_but
        FUNCTION up_but,0201H
        LOCFRAME CSTACK, 4, STACK
        PUBLIC user
        PUBLIC vibr
        PUBLIC vibra
        PUBLIC win
        FUNCTION win,0201H
        LOCFRAME CSTACK, 56, STACK
        
        CFI Names cfiNames0
        CFI StackFrame CFA R13 HUGEDATA
        CFI Resource R0:32, R1:32, R2:32, R3:32, R4:32, R5:32, R6:32, R7:32
        CFI Resource R8:32, R9:32, R10:32, R11:32, R12:32, CPSR:32, R13:32
        CFI Resource R14:32, SPSR:32
        CFI VirtualResource ?RET:32
        CFI EndNames cfiNames0
        
        CFI Common cfiCommon0 Using cfiNames0
        CFI CodeAlign 2
        CFI DataAlign 4
        CFI ReturnAddress ?RET CODE
        CFI CFA R13+0
        CFI R0 Undefined
        CFI R1 Undefined
        CFI R2 Undefined
        CFI R3 Undefined
        CFI R4 SameValue
        CFI R5 SameValue
        CFI R6 SameValue
        CFI R7 SameValue
        CFI R8 SameValue
        CFI R9 SameValue
        CFI R10 SameValue
        CFI R11 SameValue
        CFI R12 Undefined
        CFI CPSR SameValue
        CFI R14 Undefined
        CFI SPSR SameValue
        CFI ?RET R14
        CFI EndCommon cfiCommon0
        
        
        CFI Common cfiCommon1 Using cfiNames0
        CFI CodeAlign 4
        CFI DataAlign 4
        CFI ReturnAddress ?RET CODE
        CFI CFA R13+0
        CFI R0 Undefined
        CFI R1 Undefined
        CFI R2 Undefined
        CFI R3 Undefined
        CFI R4 SameValue
        CFI R5 SameValue
        CFI R6 SameValue
        CFI R7 SameValue
        CFI R8 SameValue
        CFI R9 SameValue
        CFI R10 SameValue
        CFI R11 SameValue
        CFI R12 Undefined
        CFI CPSR SameValue
        CFI R14 Undefined
        CFI SPSR SameValue
        CFI ?RET R14
        CFI EndCommon cfiCommon1
        
InitConfig          SYMBOL "InitConfig"
kill_data           SYMBOL "kill_data"
AI                  SYMBOL "AI"
??AI??rT            SYMBOL "??rT", AI
DRE                 SYMBOL "DRE"
??DRE??rT           SYMBOL "??rT", DRE
DrwImg              SYMBOL "DrwImg"
??DrwImg??rT        SYMBOL "??rT", DrwImg
ElfKiller           SYMBOL "ElfKiller"
??ElfKiller??rT     SYMBOL "??rT", ElfKiller
GetSize             SYMBOL "GetSize"
??GetSize??rT       SYMBOL "??rT", GetSize
Init                SYMBOL "Init"
??Init??rT          SYMBOL "??rT", Init
??InitConfig??rA    SYMBOL "??rA", InitConfig
Play                SYMBOL "Play"
??Play??rT          SYMBOL "??rT", Play
Redraw              SYMBOL "Redraw"
??Redraw??rT        SYMBOL "??rT", Redraw
T_Load_IMG          SYMBOL "T_Load_IMG"
??T_Load_IMG??rT    SYMBOL "??rT", T_Load_IMG
UpdateCSMname       SYMBOL "UpdateCSMname"
??UpdateCSMname??rT SYMBOL "??rT", UpdateCSMname
deleteIMGHDR        SYMBOL "deleteIMGHDR"
??deleteIMGHDR??rT  SYMBOL "??rT", deleteIMGHDR
delimghdr           SYMBOL "delimghdr"
??delimghdr??rT     SYMBOL "??rT", delimghdr
deltimers           SYMBOL "deltimers"
??deltimers??rT     SYMBOL "??rT", deltimers
down_but            SYMBOL "down_but"
??down_but??rT      SYMBOL "??rT", down_but
enter_but           SYMBOL "enter_but"
??enter_but??rT     SYMBOL "??rT", enter_but
exit                SYMBOL "exit"
??exit??rT          SYMBOL "??rT", exit
gameover            SYMBOL "gameover"
??gameover??rT      SYMBOL "??rT", gameover
green_but           SYMBOL "green_but"
??green_but??rT     SYMBOL "??rT", green_but
??kill_data??rA     SYMBOL "??rA", kill_data
left_but            SYMBOL "left_but"
??left_but??rT      SYMBOL "??rT", left_but
left_soft           SYMBOL "left_soft"
??left_soft??rT     SYMBOL "??rT", left_soft
lgpInitLangPack     SYMBOL "lgpInitLangPack"
??lgpInitLangPack??rT SYMBOL "??rT", lgpInitLangPack
loadNastr           SYMBOL "loadNastr"
??loadNastr??rT     SYMBOL "??rT", loadNastr
loadSettings        SYMBOL "loadSettings"
??loadSettings??rT  SYMBOL "??rT", loadSettings
load_lang           SYMBOL "load_lang"
??load_lang??rT     SYMBOL "??rT", load_lang
loading             SYMBOL "loading"
??loading??rT       SYMBOL "??rT", loading
main                SYMBOL "main"
??main??rT          SYMBOL "??rT", main
malloclang          SYMBOL "malloclang"
??malloclang??rT    SYMBOL "??rT", malloclang
method8             SYMBOL "method8"
??method8??rT       SYMBOL "??rT", method8
method9             SYMBOL "method9"
??method9??rT       SYMBOL "??rT", method9
mfreeImages         SYMBOL "mfreeImages"
??mfreeImages??rT   SYMBOL "??rT", mfreeImages
mfreelang           SYMBOL "mfreelang"
??mfreelang??rT     SYMBOL "??rT", mfreelang
move_ball           SYMBOL "move_ball"
??move_ball??rT     SYMBOL "??rT", move_ball
move_block          SYMBOL "move_block"
??move_block??rT    SYMBOL "??rT", move_block
openconf            SYMBOL "openconf"
??openconf??rT      SYMBOL "??rT", openconf
outtextxy           SYMBOL "outtextxy"
??outtextxy??rT     SYMBOL "??rT", outtextxy
parserecord         SYMBOL "parserecord"
??parserecord??rT   SYMBOL "??rT", parserecord
png                 SYMBOL "png"
??png??rT           SYMBOL "??rT", png
resh_but            SYMBOL "resh_but"
??resh_but??rT      SYMBOL "??rT", resh_but
right_but           SYMBOL "right_but"
??right_but??rT     SYMBOL "??rT", right_but
right_soft          SYMBOL "right_soft"
??right_soft??rT    SYMBOL "??rT", right_soft
saveSettings        SYMBOL "saveSettings"
??saveSettings??rT  SYMBOL "??rT", saveSettings
savedata            SYMBOL "savedata"
??savedata??rT      SYMBOL "??rT", savedata
setgame             SYMBOL "setgame"
??setgame??rT       SYMBOL "??rT", setgame
setpause            SYMBOL "setpause"
??setpause??rT      SYMBOL "??rT", setpause
shift_block         SYMBOL "shift_block"
??shift_block??rT   SYMBOL "??rT", shift_block
shift_cpu           SYMBOL "shift_cpu"
??shift_cpu??rT     SYMBOL "??rT", shift_cpu
start_vibra         SYMBOL "start_vibra"
??start_vibra??rT   SYMBOL "??rT", start_vibra
startcont           SYMBOL "startcont"
??startcont??rT     SYMBOL "??rT", startcont
stop                SYMBOL "stop"
??stop??rT          SYMBOL "??rT", stop
stop_vibra          SYMBOL "stop_vibra"
??stop_vibra??rT    SYMBOL "??rT", stop_vibra
up_but              SYMBOL "up_but"
??up_but??rT        SYMBOL "??rT", up_but
win                 SYMBOL "win"
??win??rT           SYMBOL "??rT", win

        EXTERN ELF_BEGIN
        EXTERN InitConfig
        FUNCTION InitConfig,0200H
        EXTERN folder
        EXTERN kill_data
        FUNCTION kill_data,0602H
        EXTERN name
        EXTERN successed_config_filename


        RSEG DATA_C:CONST:SORT:NOROOT(2)
        DATA
        DC8 "Cpu"

        RSEG DATA_C:CONST:SORT:NOROOT(2)
`?<Constant "\\314\\345\\344\\353\\345\\355\\355\\356 >`:
        DATA
        DC8 "\314\345\344\353\345\355\355\356 >"
        DC8 0
        DC8 "< \301\373\361\362\360\356 >"
        DC8 0
        DC8 "< \316\367\345\355\374 \341\373\361\362\360\356"
        DC8 0
        DC8 "\306\350\347\355\350"
        DC8 0, 0
        DC8 "\302\373\341\360\340\355 \360\345\346\350\354 \355\340 \356\367\352\350"
        DC8 0, 0, 0
        DC8 "\307\342\363\352\350"
        DC8 0, 0
        DC8 "\315\340\361\362\360\356\350\362\374"
        DC8 0, 0
        DC8 "\302\352\353. \347\342\363\352?"
        DC8 0
        DC8 "\315\345\362 >"
        DC8 0, 0
        DC8 "< \304\340"
        DC8 0, 0, 0
        DC8 "< \307\342\363\352\350 >"
        DC8 0, 0
        DC8 "< \314\363\347\373\352\340"
        DC8 0, 0, 0
        DC8 "\303\360\356\354\352\356\361\362\374"
        DC8 0, 0
        DC8 "\302\350\341\360\340\366\350\377"
        DC8 0, 0, 0
        DC8 "\320\345\352\356\360\344\373"
        DC8 "< \317\363\361\362\356 >"
        DC8 0, 0
        DC8 "\316\367\350\371\345\355\356"
        DC8 "\307\340\343\360\363\347\352\340."
        DC8 0, 0
        DC8 "\307\340\343\360\363\347\352\340.."
        DC8 0
        DC8 "\307\340\343\360\363\347\352\340..."
        DC8 "\307\340\343\360\363\347\352\340...."
        DC8 0, 0, 0
        DC8 "\347\340\343\360\363\346\345\355"
        DC8 0, 0, 0
        DC8 "\355\345 \355\340\351\344\345\355!"
        DC8 0
        DC8 "< Sounds >"
        DC8 0
        DC8 "\316\370\350\341\352\340!\316\362\361\363\362\361\362\342\363\345\362 \343\360\340\364\350\352\340!"
        DC8 "\316\370\350\341\352\340!\012\316\362\361\363\362\361\362\342\363\345\362 \343\360\340\364\350\352\340!\012\012\322\360\345\341\363\345\354\373\351 \357\363\362\374\015\012"
        DC8 0
        DC8 "\317\360\356\350\343\360\340\353"
        DC8 0, 0, 0
        DC8 "\342\373\350\343\360\340\353"
        DC8 "\315\340\346\354\350\362\345 '0'"
        DC8 "\357\340\363\347\340"
        DC8 0, 0
        DC8 "\362\345\341\345 \343\356\353"
        DC8 0, 0, 0
        DC8 "\352\356\354\357 \357\356\362\345\360\377\353 \370\340\360\350\352:-)"
        DC8 0, 0
        DC8 0EDH, 0E5H, 0ECH, 0EEH, 0E3H, 0F3H, 20H, 0F1H
        DC8 0EEH, 0F5H, 0F0H, 0E0H, 0EDH, 0E8H, 0F2H, 0FCH
        DC8 20H, 64H, 61H, 74H, 61H, 2EH, 73H, 79H
        DC8 73H, 21H, 0CFH, 0F0H, 0EEH, 0E2H, 0E5H, 0F0H
        DC8 0FCH, 0F2H, 0E5H, 20H, 0EFH, 0F3H, 0F2H, 0FCH
        DC8 20H, 0E2H, 20H, 0EAH, 0EEH, 0EDH, 0F4H, 0E8H
        DC8 0E3H, 0E5H, 21H, 0
        DC8 0EDH, 0E5H, 0ECH, 0EEH, 0E3H, 0F3H, 20H, 0E7H
        DC8 0E0H, 0E3H, 0F0H, 0F3H, 0E7H, 0E8H, 0F2H, 0FCH
        DC8 20H, 64H, 61H, 74H, 61H, 2EH, 73H, 79H
        DC8 73H, 21H, 0CFH, 0F0H, 0EEH, 0E2H, 0E5H, 0F0H
        DC8 0FCH, 0F2H, 0E5H, 20H, 0EFH, 0F3H, 0F2H, 0FCH
        DC8 20H, 0E2H, 20H, 0EAH, 0EEH, 0EDH, 0F4H, 0E8H
        DC8 0E3H, 0E5H, 21H, 0
        DC8 "\310\343\360\340 \363\361\357\345\370\355\356 \361\356\365\360\340\355\345\355\340!"
        DC8 0EDH, 0E5H, 0ECH, 0EEH, 0E3H, 0F3H, 20H, 0F1H
        DC8 0EEH, 0F5H, 0F0H, 0E0H, 0EDH, 0E8H, 0F2H, 0FCH
        DC8 20H, 73H, 61H, 76H, 65H, 64H, 61H, 74H
        DC8 61H, 2EH, 70H, 70H, 21H, 0CFH, 0F0H, 0EEH
        DC8 0E2H, 0E5H, 0F0H, 0FCH, 0F2H, 0E5H, 20H, 0EFH
        DC8 0F3H, 0F2H, 0FCH, 20H, 0E2H, 20H, 0EAH, 0EEH
        DC8 0EDH, 0F4H, 0E8H, 0E3H, 0E5H, 21H, 0
        DC8 0
        DC8 "\310\343\360\340 \363\361\357\345\370\355\356 \347\340\343\360\363\346\345\355\340!"
        DC8 0EDH, 0E5H, 20H, 0ECH, 0EEH, 0E3H, 0F3H, 20H
        DC8 0E7H, 0E0H, 0E3H, 0F0H, 0F3H, 0E7H, 0E8H, 0F2H
        DC8 0FCH, 20H, 73H, 61H, 76H, 65H, 64H, 61H
        DC8 74H, 61H, 2EH, 70H, 70H, 21H, 0CFH, 0F0H
        DC8 0EEH, 0E2H, 0E5H, 0F0H, 0FCH, 0F2H, 0E5H, 20H
        DC8 0EFH, 0F3H, 0F2H, 0FCH, 20H, 0E2H, 20H, 0EAH
        DC8 0EEH, 0EDH, 0F4H, 0E8H, 0E3H, 0E5H, 21H, 0
        DC8 "Ping-Pong"
        DC8 0, 0
        DC8 "Newgame"
        DC8 "Newgame >"
        DC8 0, 0
        DC8 "< Continue >"
        DC8 0, 0, 0
        DC8 "< Save"
        DC8 0
        DC8 "Load >"
        DC8 0
        DC8 "< Lives"
        DC8 "< Career"
        DC8 0, 0, 0
        DC8 "Points >"
        DC8 0, 0, 0
        DC8 "Best Record"
        DC8 "Preferences"
        DC8 "Exit"
        DC8 0, 0, 0
        DC8 "Parametrs of game"
        DC8 0, 0
        DC8 "Image"
        DC8 0, 0
        DC8 "Path"
        DC8 0, 0, 0
        DC8 "Complexity"
        DC8 0
        DC8 "Easy >"
        DC8 0
        DC8 "< Normal >"
        DC8 0
        DC8 "< Hard"
        DC8 0
        DC8 "Speed"
        DC8 0, 0
        DC8 "Slow >"
        DC8 0
        DC8 "< Fast >"
        DC8 0, 0, 0
        DC8 "< Veryfast"
        DC8 0
        DC8 "Lives"
        DC8 0, 0
        DC8 "Selected for the points"
        DC8 "Sounds"
        DC8 0
        DC8 "Customize"
        DC8 0, 0
        DC8 "Inc. sound?"
        DC8 "No >"
        DC8 0, 0, 0
        DC8 "< Yes"
        DC8 0, 0
        DC8 "\310\343\360\340 \347\340\343\360\363\346\345\355\340"
        DC8 0
        DC8 "< Music"
        DC8 "Volume"
        DC8 0
        DC8 "Vibration"
        DC8 0, 0
        DC8 "records"
        DC8 "< Empty >"
        DC8 0, 0
        DC8 "Scavenged"
        DC8 0, 0
        DC8 "Loading."
        DC8 0, 0, 0
        DC8 "Loading.."
        DC8 0, 0
        DC8 "Loading..."
        DC8 0
        DC8 "Loading...."
        DC8 "loaded"
        DC8 0
        DC8 "Notfound!"
        DC8 0, 0
        DC8 "Error!Missing graphics!"
        DC8 "The game loaded"
        DC8 "Error!\012Missing graphics!\012\012There quired path\012\012"
        DC8 0, 0
        DC8 "lost:("
        DC8 0
        DC8 "You won:)"
        DC8 0, 0
        DC8 "Press'0'"
        DC8 0, 0, 0
        DC8 "pause"
        DC8 0, 0
        DC8 "your goal("
        DC8 0
        DC8 "PC loser:-)"
        DC8 "can not save data.sys!Check path in the config!"
        DC8 "can not load data.sys!Check path in the config!"
        DC8 "The game successfully saved!"
        DC8 0, 0, 0
        DC8 63H, 61H, 6EH, 20H, 6EH, 6FH, 74H, 20H
        DC8 73H, 61H, 76H, 65H, 20H, 73H, 61H, 76H
        DC8 65H, 64H, 61H, 74H, 61H, 2EH, 70H, 70H
        DC8 21H, 43H, 68H, 65H, 63H, 6BH, 20H, 70H
        DC8 61H, 74H, 68H, 20H, 69H, 6EH, 20H, 74H
        DC8 68H, 65H, 20H, 63H, 6FH, 6EH, 66H, 69H
        DC8 67H, 21H, 0
        DC8 0
        DC8 "The game has successfully loaded!"
        DC8 0, 0
        DC8 63H, 61H, 6EH, 20H, 6EH, 6FH, 74H, 20H
        DC8 6CH, 6FH, 61H, 64H, 20H, 73H, 61H, 76H
        DC8 65H, 64H, 61H, 74H, 61H, 2EH, 70H, 70H
        DC8 21H, 43H, 68H, 65H, 63H, 6BH, 20H, 74H
        DC8 68H, 65H, 20H, 70H, 61H, 74H, 68H, 20H
        DC8 69H, 6EH, 20H, 74H, 68H, 65H, 20H, 63H
        DC8 6FH, 6EH, 66H, 69H, 67H, 21H, 0
        DC8 0
        DC8 "\317\350\355\343-\317\356\355\343"
        DC8 0, 0
        DC8 "\315\356\342\340\377 \350\343\360\340"
        DC8 0
        DC8 "\315\356\342\340\377 \350\343\360\340 >"
        DC8 0, 0, 0
        DC8 "< \317\360\356\344\356\353\346\350\362\374 >"
        DC8 0
        DC8 "< \321\356\365\360\340\355\350\362\374"
        DC8 "\307\340\343\360\363\347\350\362\374 >"
        DC8 "< \306\350\347\355\350"
        DC8 "< \312\340\360\374\345\360\340"
        DC8 0, 0
        DC8 "\316\367\352\350 >"
        DC8 0
        DC8 "\313\363\367\370\350\345 \360\345\352\356\360\344\373"
        DC8 0
        DC8 "\315\340\361\362\360\356\351\352\350"
        DC8 0, 0
        DC8 "\302\373\365\356\344"
        DC8 0, 0
        DC8 "\317\340\360\340\354\345\362\360\373 \350\343\360\373"
        DC8 0
        DC8 "\303\360\340\364\350\352\340"
        DC8 "\317\363\362\374"
        DC8 0, 0, 0
        DC8 "\321\353\356\346\355\356\361\362\374"
        DC8 0, 0
        DC8 "\313\345\343\352\356 >"
        DC8 "< \321\360\345\344\355\345 >"
        DC8 0
        DC8 "< \321\353\356\346\355\356"
        DC8 0, 0, 0
        DC8 "\321\352\356\360\356\361\362\374"
        DC8 0, 0, 0
// C:\arm\pp\main.c
//    1 /*
//    2 * (c) Danil e71
//    3 * 2009 - 2010
//    4 * Спасибо огромное за помощь в разработке Half, Gangster
//    5 * Tails [sc], Snoop-Cat и многим другим за тестирование
//    6 * Dj_Shell за графику
//    7 * http://team-sc.ru/
//    8 * http://code.google.com/p/sieelf-dev/
//    9 */
//   10 
//   11 #include "..\inc\swilib.h"
//   12 #include "conf_loader.h"
//   13 #include "rect_patcher.h"
//   14 #include "main.h"

        RSEG DATA_C:CONST:SORT:NOROOT(2)
`?<Constant "kick.mid">`:
        DATA
        DC8 "kick.mid"
        DC8 0, 0, 0
        DC8 "game.mid"
        DC8 0, 0, 0
        DC8 "Sounds\\"
        DC8 "img\\logo.png"
        DC8 0, 0, 0
        DC8 "img\\cursor.png"
        DC8 0
        DC8 "img\\fon.png"
        DC8 "img\\user2.png"
        DC8 0, 0
        DC8 "img\\user1.png"
        DC8 0, 0
        DC8 "img\\ball.png"
        DC8 0, 0, 0
// char const __data per_s[5]
per_s:
        DC8 "%s%s"
        DC8 0, 0, 0

        RSEG DATA_Z:DATA:SORT:NOROOT(2)
// unsigned short __data maincsm_name_body[140]
maincsm_name_body:
        DS8 280

        RSEG DATA_Z:DATA:SORT:NOROOT(2)
// unsigned int __data MAINCSM_ID
MAINCSM_ID:
        DS8 4

        RSEG DATA_Z:DATA:SORT:NOROOT(2)
// unsigned int __data MAINGUI_ID
MAINGUI_ID:
        DS8 4

        RSEG DATA_I:DATA:SORT:NOROOT(2)
// char *__data lang[60]
lang:
        DS8 240
        REQUIRE `?<Initializer for lang>`
//   15 #include "save.c"
// struct <unnamed> __data record
record:
        DS8 116
        REQUIRE `?<Initializer for record>`
// Mytype __data ball
ball:
        DS8 36
        REQUIRE `?<Initializer for ball>`
// Mytype __data user
user:
        DS8 36
        REQUIRE `?<Initializer for user>`
// Mytype __data cpu
cpu:
        DS8 36
        REQUIRE `?<Initializer for cpu>`
// struct <unnamed> *__data pics[6]
pics:
        DS8 24
        REQUIRE `?<Initializer for pics>`
// char *__data images[6]
images:
        DS8 24
        REQUIRE `?<Initializer for images>`
// struct <unnamed> __data Time
Time:
        DS8 20
        REQUIRE `?<Initializer for Time>`
// int __data color_frame[8]
color_frame:
        DS8 32
        REQUIRE `?<Initializer for color_frame>`
// int __data clear
clear:
        DS8 4
        REQUIRE `?<Initializer for clear>`
// int __data rndindex
rndindex:
        DS8 4
        REQUIRE `?<Initializer for rndindex>`
// int volatile __data running
running:
        DS8 4
        REQUIRE `?<Initializer for running>`
// int __data cur_x
cur_x:
        DS8 4
        REQUIRE `?<Initializer for cur_x>`
// int __data cur_y
cur_y:
        DS8 4
        REQUIRE `?<Initializer for cur_y>`
// int __data main_y
main_y:
        DS8 4
        REQUIRE `?<Initializer for main_y>`
// int __data difficult
difficult:
        DS8 4
        REQUIRE `?<Initializer for difficult>`
// int __data lives
lives:
        DS8 4
        REQUIRE `?<Initializer for lives>`
// int __data mode
mode:
        DS8 4
        REQUIRE `?<Initializer for mode>`
// int __data speed_game
speed_game:
        DS8 4
        REQUIRE `?<Initializer for speed_game>`
// int __data gdy
gdy:
        DS8 4
        REQUIRE `?<Initializer for gdy>`
// int __data def_vol
def_vol:
        DS8 4
        REQUIRE `?<Initializer for def_vol>`
// int __data on_off_sound
on_off_sound:
        DS8 4
        REQUIRE `?<Initializer for on_off_sound>`
// int __data PLAY_ID
PLAY_ID:
        DS8 4
        REQUIRE `?<Initializer for PLAY_ID>`
// int __data saveload
saveload:
        DS8 4
        REQUIRE `?<Initializer for saveload>`
// int __data img_count
img_count:
        DS8 4
        REQUIRE `?<Initializer for img_count>`
// int __data game_new_cont
game_new_cont:
        DS8 4
        REQUIRE `?<Initializer for game_new_cont>`
// int __data langenru
langenru:
        DS8 4
        REQUIRE `?<Initializer for langenru>`
// int __data vibra
vibra:
        DS8 4
        REQUIRE `?<Initializer for vibra>`
// int __data exiting
exiting:
        DS8 4
        REQUIRE `?<Initializer for exiting>`
// int __data error_count
error_count:
        DS8 4
        REQUIRE `?<Initializer for error_count>`
// int __data AI_line
AI_line:
        DS8 4
        REQUIRE `?<Initializer for AI_line>`
// int __data isload
isload:
        DS8 4
        REQUIRE `?<Initializer for isload>`
// char *__data folders
folders:
        DS8 4
        REQUIRE `?<Initializer for folders>`
// enum <unnamed> __data status
status:
        DS8 1
        REQUIRE `?<Initializer for status>`
        DS8 3
// GBSTMR __data tmr
tmr:
        DS8 16
        REQUIRE `?<Initializer for tmr>`
// GBSTMR __data vibr
vibr:
        DS8 16
        REQUIRE `?<Initializer for vibr>`

        RSEG CODE:CODE:NOROOT(2)
        CFI Block cfiBlock0 Using cfiCommon0
        CFI NoFunction
        THUMB
??parserecord??rT:
        BX       PC
        Nop      
        CFI EndBlock cfiBlock0
        REQUIRE parserecord

        RSEG CODE:CODE:NOROOT(2)
        CFI Block cfiBlock1 Using cfiCommon1
        CFI Function parserecord
        ARM
// __??Code32?? __code __interwork __atpcs void parserecord(int)
parserecord:
        PUSH     {R4-R11,LR}
        CFI ?RET Frame(CFA, -4)
        CFI R11 Frame(CFA, -8)
        CFI R10 Frame(CFA, -12)
        CFI R9 Frame(CFA, -16)
        CFI R8 Frame(CFA, -20)
        CFI R7 Frame(CFA, -24)
        CFI R6 Frame(CFA, -28)
        CFI R5 Frame(CFA, -32)
        CFI R4 Frame(CFA, -36)
        CFI CFA R13+36
        LDR      R7,??DataTable19  ;; lang
        MOV      R4,#+448
        MOV      R5,#+412
        MOV      R6,#+332
        MOV      R8,#+0
        CMP      R0,#+1
        BNE      ??parserecord_0
        MOV      R10,#+0
        B        ??parserecord_1
??parserecord_2:
        ADD      R10,R10,#+1
        CMP      R10,#+5
        BGE      ??parserecord_3
??parserecord_1:
        LDR      R1,[R5, +R7]
        ADD      R9,R7,R10, LSL #+2
        LDR      R0,[R6, +R9]
        CMP      R0,R1
        LDRGE    R1,[R4, +R7]
        CMPGE    R0,R1
        BGE      ??parserecord_2
        MOV      R11,#+5
??parserecord_4:
        RSB      R0,R11,R11, LSL #+4
        ADD      R0,R0,R7
        ADD      R1,R0,#+225
        ADD      R0,R0,#+240
        SWI      +26
        SUB      R0,R11,#+1
        ADD      R2,R7,R0, LSL #+2
        LDR      R2,[R6, +R2]
        ADD      R1,R7,R11, LSL #+2
        STR      R2,[R6, +R1]
        MOV      R11,R0
        CMP      R10,R11
        BLT      ??parserecord_4
        LDR      R1,[R6, +R9]
        RSB      R0,R10,R10, LSL #+4
        ADD      R10,R0,R7
        LDR      R0,[R5, +R7]
        CMP      R0,R1
        LDRGE    R1,[R4, +R7]
        CMPGE    R0,R1
        BLT      ??parserecord_5
        LDR      R1,??DataTable1  ;; name
        ADD      R0,R10,#+240
        SWI      +26
        LDR      R0,[R5, +R7]
        STR      R0,[R6, +R9]
??parserecord_5:
        LDR      R0,[R4, +R7]
        LDR      R1,[R6, +R9]
        CMP      R1,R0
        LDRLT    R1,[R5, +R7]
        CMPLT    R1,R0
        BGE      ??parserecord_3
        ADR      R1,??parserecord_6  ;; "Cpu"
        ADD      R0,R10,#+240
        SWI      +26
        LDR      R0,[R4, +R7]
        STR      R0,[R6, +R9]
        STR      R8,[R4, +R7]
        STR      R8,[R5, +R7]
        POP      {R4-R11,PC}
??parserecord_0:
        MOV      R9,#+0
??parserecord_7:
        LDR      R1,[R7, #+144]
        RSB      R0,R9,R9, LSL #+4
        ADD      R0,R0,R7
        ADD      R0,R0,#+240
        SWI      +26
        ADD      R0,R7,R9, LSL #+2
        STR      R8,[R6, +R0]
        ADD      R9,R9,#+1
        CMP      R9,#+5
        BLT      ??parserecord_7
??parserecord_3:
        STR      R8,[R4, +R7]
        STR      R8,[R5, +R7]
        POP      {R4-R11,PC}      ;; return
        DATA
??parserecord_6:
        DC8      "Cpu"
        CFI EndBlock cfiBlock1

        RSEG CODE:CODE:NOROOT(2)
        DATA
??DataTable1:
        DC32     name

        RSEG CODE:CODE:NOROOT(2)
        CFI Block cfiBlock2 Using cfiCommon0
        CFI NoFunction
        THUMB
??savedata??rT:
        BX       PC
        Nop      
        CFI EndBlock cfiBlock2
        REQUIRE savedata

        RSEG CODE:CODE:NOROOT(2)
        CFI Block cfiBlock3 Using cfiCommon1
        CFI Function savedata
        ARM
// __??Code32?? __code __interwork __atpcs void savedata(int)
savedata:
        PUSH     {R4,R5,LR}
        CFI ?RET Frame(CFA, -4)
        CFI R5 Frame(CFA, -8)
        CFI R4 Frame(CFA, -12)
        CFI CFA R13+12
        LDR      R4,??DataTable5  ;; `?<Constant "data.sys">`
        LDR      R5,??DataTable26  ;; lang
        BL       parserecord
        MOV      R0,R4
        SWI      +27
        ADD      R0,R0,#+129
        SWI      +20
        LDR      R1,??DataTable29  ;; folder
        STR      R0,[R5, #+656]
        SWI      +26
        LDR      R0,[R5, #+656]
        MOV      R1,R4
        SWI      +23
        LDR      R0,[R5, #+656]
        MOV      R3,#+0
        MOV      R2,#+256
        MOV      R1,#+1
        ORR      R1,R1,#0x8300
        SWI      +10
        MOV      R4,R0
        CMN      R4,#+1
        BEQ      ??savedata_0
        MOV      R3,#+0
        MOV      R2,#+4
        ADD      R1,R5,#+632
        SWI      +12
        MOV      R3,#+0
        MOV      R2,#+4
        ADD      R1,R5,#+620
        MOV      R0,R4
        SWI      +12
        MOV      R3,#+0
        MOV      R2,#+4
        ADD      R1,R5,#+596
        MOV      R0,R4
        SWI      +12
        MOV      R3,#+0
        MOV      R2,#+4
        ADD      R1,R5,#+612
        MOV      R0,R4
        SWI      +12
        MOV      R3,#+0
        MOV      R2,#+4
        ADD      R1,R5,#+588
        MOV      R0,R4
        SWI      +12
        MOV      R3,#+0
        MOV      R2,#+4
        ADD      R1,R5,#+600
        MOV      R0,R4
        SWI      +12
        MOV      R3,#+0
        MOV      R2,#+4
        ADD      R1,R5,#+592
        MOV      R0,R4
        SWI      +12
        MOV      R3,#+0
        MOV      R2,#+4
        ADD      R1,R5,#+608
        MOV      R0,R4
        SWI      +12
        MOV      R3,#+0
        MOV      R2,#+4
        ADD      R1,R5,#+636
        MOV      R0,R4
        SWI      +12
        MOV      R3,#+0
        MOV      R2,#+116
        ADD      R1,R5,#+240
        MOV      R0,R4
        SWI      +12
        MOV      R1,#+0
        MOV      R0,R4
        SWI      +13
??savedata_0:
        LDR      R0,[R5, #+656]
        SWI      +21
        POP      {R4,R5,PC}       ;; return
        CFI EndBlock cfiBlock3

        RSEG CODE:CODE:NOROOT(2)
        CFI Block cfiBlock4 Using cfiCommon0
        CFI NoFunction
        THUMB
??loadNastr??rT:
        BX       PC
        Nop      
        CFI EndBlock cfiBlock4
        REQUIRE loadNastr

        RSEG CODE:CODE:NOROOT(2)
        CFI Block cfiBlock5 Using cfiCommon1
        CFI Function loadNastr
        ARM
// __??Code32?? __code __interwork __atpcs void loadNastr()
loadNastr:
        PUSH     {R4,R5,LR}
        CFI ?RET Frame(CFA, -4)
        CFI R5 Frame(CFA, -8)
        CFI R4 Frame(CFA, -12)
        CFI CFA R13+12
        LDR      R4,??DataTable5  ;; `?<Constant "data.sys">`
        LDR      R5,??DataTable26  ;; lang
        MOV      R0,R4
        SWI      +27
        ADD      R0,R0,#+129
        SWI      +20
        LDR      R1,??DataTable29  ;; folder
        STR      R0,[R5, #+656]
        SWI      +26
        LDR      R0,[R5, #+656]
        MOV      R1,R4
        SWI      +23
        LDR      R0,[R5, #+656]
        MOV      R3,#+0
        MOV      R2,#+128
        MOV      R1,#+32768
        SWI      +10
        MOV      R4,R0
        CMN      R4,#+1
        BEQ      ??loadNastr_0
        MOV      R3,#+0
        MOV      R2,#+4
        ADD      R1,R5,#+632
        SWI      +11
        MOV      R3,#+0
        MOV      R2,#+4
        ADD      R1,R5,#+620
        MOV      R0,R4
        SWI      +11
        MOV      R3,#+0
        MOV      R2,#+4
        ADD      R1,R5,#+596
        MOV      R0,R4
        SWI      +11
        MOV      R3,#+0
        MOV      R2,#+4
        ADD      R1,R5,#+612
        MOV      R0,R4
        SWI      +11
        MOV      R3,#+0
        MOV      R2,#+4
        ADD      R1,R5,#+588
        MOV      R0,R4
        SWI      +11
        MOV      R3,#+0
        MOV      R2,#+4
        ADD      R1,R5,#+600
        MOV      R0,R4
        SWI      +11
        MOV      R3,#+0
        MOV      R2,#+4
        ADD      R1,R5,#+592
        MOV      R0,R4
        SWI      +11
        MOV      R3,#+0
        MOV      R2,#+4
        ADD      R1,R5,#+608
        MOV      R0,R4
        SWI      +11
        MOV      R3,#+0
        MOV      R2,#+4
        ADD      R1,R5,#+636
        MOV      R0,R4
        SWI      +11
        MOV      R3,#+0
        MOV      R2,#+116
        ADD      R1,R5,#+240
        MOV      R0,R4
        SWI      +11
        MOV      R1,#+0
        MOV      R0,R4
        SWI      +13
        BL       lgpInitLangPack
        BL       T_Load_IMG
        LDR      R0,[R5, #+656]
        SWI      +21
        POP      {R4,R5,PC}
??loadNastr_0:
        MOV      R0,#+1
        STR      R0,[R5, #+652]
        BL       load_lang
        LDR      R0,[R5, #+656]
        SWI      +21
        POP      {R4,R5,PC}       ;; return
        CFI EndBlock cfiBlock5

        RSEG CODE:CODE:NOROOT(2)
        DATA
??DataTable5:
        DC32     `?<Constant "data.sys">`

        RSEG CODE:CODE:NOROOT(2)
        CFI Block cfiBlock6 Using cfiCommon0
        CFI NoFunction
        THUMB
??saveSettings??rT:
        BX       PC
        Nop      
        CFI EndBlock cfiBlock6
        REQUIRE saveSettings

        RSEG CODE:CODE:NOROOT(2)
        CFI Block cfiBlock7 Using cfiCommon1
        CFI Function saveSettings
        ARM
// __??Code32?? __code __interwork __atpcs void saveSettings()
saveSettings:
        PUSH     {R4,R5,LR}
        CFI ?RET Frame(CFA, -4)
        CFI R5 Frame(CFA, -8)
        CFI R4 Frame(CFA, -12)
        CFI CFA R13+12
        LDR      R4,??DataTable11  ;; `?<Constant "save\\\\savedata.pp">`
        LDR      R5,??DataTable26  ;; lang
        MOV      R0,R4
        SWI      +27
        ADD      R0,R0,#+129
        SWI      +20
        LDR      R1,??DataTable29  ;; folder
        STR      R0,[R5, #+656]
        SWI      +26
        LDR      R0,[R5, #+656]
        MOV      R1,R4
        SWI      +23
        LDR      R0,[R5, #+656]
        MOV      R3,#+0
        MOV      R2,#+256
        MOV      R1,#+1
        ORR      R1,R1,#0x8300
        SWI      +10
        MOV      R4,R0
        CMN      R4,#+1
        BEQ      ??saveSettings_0
        MOV      R3,#+0
        MOV      R2,#+36
        ADD      R1,R5,#+392
        SWI      +12
        MOV      R3,#+0
        MOV      R2,#+36
        ADD      R1,R5,#+428
        MOV      R0,R4
        SWI      +12
        MOV      R3,#+0
        MOV      R2,#+36
        ADD      R1,R5,#+356
        MOV      R0,R4
        SWI      +12
        MOV      R3,#+0
        MOV      R2,#+4
        ADD      R1,R5,#+596
        MOV      R0,R4
        SWI      +12
        MOV      R3,#+0
        MOV      R2,#+4
        ADD      R1,R5,#+612
        MOV      R0,R4
        SWI      +12
        MOV      R3,#+0
        MOV      R2,#+4
        ADD      R1,R5,#+648
        MOV      R0,R4
        SWI      +12
        MOV      R3,#+0
        MOV      R2,#+20
        ADD      R1,R5,#+512
        MOV      R0,R4
        SWI      +12
        MOV      R1,#+0
        MOV      R0,R4
        SWI      +13
??saveSettings_0:
        LDR      R0,[R5, #+656]
        SWI      +21
        MOV      R0,#+2
        STR      R0,[R5, #+620]
        SWI      +319
        POP      {R4,R5,PC}       ;; return
        CFI EndBlock cfiBlock7

        RSEG CODE:CODE:NOROOT(2)
        CFI Block cfiBlock8 Using cfiCommon0
        CFI NoFunction
        THUMB
??loadSettings??rT:
        BX       PC
        Nop      
        CFI EndBlock cfiBlock8
        REQUIRE loadSettings

        RSEG CODE:CODE:NOROOT(2)
        CFI Block cfiBlock9 Using cfiCommon1
        CFI Function loadSettings
        ARM
// __??Code32?? __code __interwork __atpcs void loadSettings()
loadSettings:
        PUSH     {R4,R5,LR}
        CFI ?RET Frame(CFA, -4)
        CFI R5 Frame(CFA, -8)
        CFI R4 Frame(CFA, -12)
        CFI CFA R13+12
        LDR      R4,??DataTable11  ;; `?<Constant "save\\\\savedata.pp">`
        LDR      R5,??DataTable26  ;; lang
        MOV      R0,R4
        SWI      +27
        ADD      R0,R0,#+129
        SWI      +20
        LDR      R1,??DataTable29  ;; folder
        STR      R0,[R5, #+656]
        SWI      +26
        LDR      R0,[R5, #+656]
        MOV      R1,R4
        SWI      +23
        LDR      R0,[R5, #+656]
        MOV      R3,#+0
        MOV      R2,#+128
        MOV      R1,#+32768
        SWI      +10
        MOV      R4,R0
        CMN      R4,#+1
        BEQ      ??loadSettings_0
        MOV      R3,#+0
        MOV      R2,#+36
        ADD      R1,R5,#+392
        SWI      +11
        MOV      R3,#+0
        MOV      R2,#+36
        ADD      R1,R5,#+428
        MOV      R0,R4
        SWI      +11
        MOV      R3,#+0
        MOV      R2,#+36
        ADD      R1,R5,#+356
        MOV      R0,R4
        SWI      +11
        MOV      R3,#+0
        MOV      R2,#+4
        ADD      R1,R5,#+596
        MOV      R0,R4
        SWI      +11
        MOV      R3,#+0
        MOV      R2,#+4
        ADD      R1,R5,#+612
        MOV      R0,R4
        SWI      +11
        MOV      R3,#+0
        MOV      R2,#+4
        ADD      R1,R5,#+648
        MOV      R0,R4
        SWI      +11
        MOV      R3,#+0
        MOV      R2,#+20
        ADD      R1,R5,#+512
        MOV      R0,R4
        SWI      +11
        MOV      R1,#+0
        MOV      R0,R4
        SWI      +13
        MOV      R0,#+1
        STR      R0,[R5, #+620]
        MOV      R0,#+3
        STR      R0,[R5, #+628]
??loadSettings_0:
        SWI      +319
        LDR      R0,[R5, #+656]
        SWI      +21
        POP      {R4,R5,PC}       ;; return
        CFI EndBlock cfiBlock9

        RSEG CODE:CODE:NOROOT(2)
        DATA
??DataTable11:
        DC32     `?<Constant "save\\\\savedata.pp">`

        RSEG CODE:CODE:NOROOT(2)
        CFI Block cfiBlock10 Using cfiCommon0
        CFI NoFunction
        THUMB
??DRE??rT:
        BX       PC
        Nop      
        CFI EndBlock cfiBlock10
        REQUIRE DRE
//   16 #include "Redraw.c"

        RSEG CODE:CODE:NOROOT(2)
        CFI Block cfiBlock11 Using cfiCommon1
        CFI Function DRE
        ARM
// __??Code32?? __code __interwork __atpcs void DRE(int, int)
DRE:
        PUSH     {R4,R5,LR}
        CFI ?RET Frame(CFA, -4)
        CFI R5 Frame(CFA, -8)
        CFI R4 Frame(CFA, -12)
        CFI CFA R13+12
        MOV      R4,R0
        MOV      R0,R1
        SWI      +302
        MOV      R5,R0
        MOV      R0,#+22
        SWI      +302
        PUSH     {R5}
        CFI CFA R13+16
        PUSH     {R0}
        CFI CFA R13+20
        MOV      R3,#+240
        ADD      R2,R4,#+10
        MOV      R1,#+220
        MOV      R0,#+0
        PUSH     {R0}
        CFI CFA R13+24
        MOV      R0,R4
        SWI      +436
        POP      {R0-R2,R4,R5,PC}  ;; return
        CFI EndBlock cfiBlock11

        RSEG CODE:CODE:NOROOT(2)
        CFI Block cfiBlock12 Using cfiCommon0
        CFI NoFunction
        THUMB
??outtextxy??rT:
        BX       PC
        Nop      
        CFI EndBlock cfiBlock12
        REQUIRE outtextxy

        RSEG CODE:CODE:NOROOT(2)
        CFI Block cfiBlock13 Using cfiCommon1
        CFI Function outtextxy
        ARM
// __??Code32?? __code __interwork __atpcs void outtextxy(char *)
outtextxy:
        PUSH     {R4,R5,LR}
        CFI ?RET Frame(CFA, -4)
        CFI R5 Frame(CFA, -8)
        CFI R4 Frame(CFA, -12)
        CFI CFA R13+12
        MOV      R4,R0
        SWI      +27
        ADD      R0,R0,#+1
        SWI      +293
        LDR      R1,??DataTable27  ;; perc_t
        MOV      R5,R0
        MOV      R2,R4
        SWI      +292
        MOV      R0,#+6
        SWI      +302
        MOV      R1,#+0
        PUSH     {R1}
        CFI CFA R13+16
        PUSH     {R0}
        CFI CFA R13+20
        MOV      R3,#+239
        MOV      R2,#+130
        MOV      R0,#+2
        PUSH     {R0}
        CFI CFA R13+24
        MOV      R0,#+9
        PUSH     {R0}
        CFI CFA R13+28
        MOV      R0,#+54
        ORR      R0,R0,#0x100
        PUSH     {R0}
        CFI CFA R13+32
        MOV      R0,R5
        SWI      +332
        MOV      R0,R5
        SWI      +297
        ADD      SP,SP,#+20
        CFI CFA R13+12
        POP      {R4,R5,PC}       ;; return
        CFI EndBlock cfiBlock13

        RSEG CODE:CODE:NOROOT(2)
        CFI Block cfiBlock14 Using cfiCommon0
        CFI NoFunction
        THUMB
??png??rT:
        BX       PC
        Nop      
        CFI EndBlock cfiBlock14
        REQUIRE png

        RSEG CODE:CODE:NOROOT(2)
        CFI Block cfiBlock15 Using cfiCommon1
        CFI Function png
        ARM
// __??Code32?? __code __interwork __atpcs void png(int)
png:
        PUSH     {R4,LR}
        CFI ?RET Frame(CFA, -4)
        CFI R4 Frame(CFA, -8)
        CFI CFA R13+8
        LDR      R4,??DataTable26  ;; lang
        CMP      R0,#+5
        LDR      R1,[R4, #+564]
        ADD      R1,R1,#+1
        STR      R1,[R4, #+564]
        POPHI    {R4,PC}
        ADR      R1,??png_0
        LDRB     R1,[R1, R0]
        ADD      PC,PC,R1, LSL #+2
        DATA
??png_0:
        DC8      +21,+16,+26,+6
        DC8      +1,+11,+0,+0
        ARM
??png_1:
        LDR      R0,[R4, #+504]
        MOV      R1,#+2
        SWI      +489
        STR      R0,[R4, #+464]
        POP      {R4,PC}
??png_2:
        LDR      R0,[R4, #+500]
        MOV      R1,#+2
        SWI      +489
        STR      R0,[R4, #+468]
        POP      {R4,PC}
??png_3:
        LDR      R0,[R4, #+508]
        MOV      R1,#+2
        SWI      +489
        STR      R0,[R4, #+472]
        POP      {R4,PC}
??png_4:
        LDR      R0,[R4, #+492]
        MOV      R1,#+2
        SWI      +489
        STR      R0,[R4, #+476]
        POP      {R4,PC}
??png_5:
        LDR      R0,[R4, #+488]
        MOV      R1,#+2
        SWI      +489
        STR      R0,[R4, #+480]
        POP      {R4,PC}
??png_6:
        LDR      R0,[R4, #+496]
        MOV      R1,#+2
        SWI      +489
        STR      R0,[R4, #+484]
??png_7:
        POP      {R4,PC}          ;; return
        CFI EndBlock cfiBlock15

        RSEG CODE:CODE:NOROOT(2)
        CFI Block cfiBlock16 Using cfiCommon0
        CFI NoFunction
        THUMB
??T_Load_IMG??rT:
        BX       PC
        Nop      
        CFI EndBlock cfiBlock16
        REQUIRE T_Load_IMG

        RSEG CODE:CODE:NOROOT(2)
        CFI Block cfiBlock17 Using cfiCommon1
        CFI Function T_Load_IMG
        ARM
// __??Code32?? __code __interwork __atpcs void T_Load_IMG()
T_Load_IMG:
        PUSH     {R4,R5,LR}
        CFI ?RET Frame(CFA, -4)
        CFI R5 Frame(CFA, -8)
        CFI R4 Frame(CFA, -12)
        CFI CFA R13+12
        LDR      R4,??DataTable26  ;; lang
        MOV      R5,#+664
        LDR      R0,[R4, #+624]
        BL       loading
        LDR      R0,[R4, #+624]
        ADD      R0,R0,#+1
        STR      R0,[R4, #+624]
        CMP      R0,#+8
        BGE      ??T_Load_IMG_0
        LDR      R2,??T_Load_IMG_1  ;; T_Load_IMG
        MOV      R1,#+5
        ADD      R0,R5,R4
        SWI      +77
??T_Load_IMG_0:
        LDR      R0,[R4, #+624]
        CMP      R0,#+8
        POPNE    {R4,R5,PC}
        ADD      R0,R5,R4
        SWI      +396
        POP      {R4,R5,PC}       ;; return
        DATA
??T_Load_IMG_1:
        DC32     T_Load_IMG
        CFI EndBlock cfiBlock17

        RSEG CODE:CODE:NOROOT(2)
        CFI Block cfiBlock18 Using cfiCommon0
        CFI NoFunction
        THUMB
??DrwImg??rT:
        BX       PC
        Nop      
        CFI EndBlock cfiBlock18
        REQUIRE DrwImg

        RSEG CODE:CODE:NOROOT(2)
        CFI Block cfiBlock19 Using cfiCommon1
        CFI Function DrwImg
        ARM
// __??Code32?? __code __interwork __atpcs void DrwImg(struct <unnamed> *, int, int)
DrwImg:
        PUSH     {R4,LR}
        CFI ?RET Frame(CFA, -4)
        CFI R4 Frame(CFA, -8)
        CFI CFA R13+8
        SUB      SP,SP,#+44
        CFI CFA R13+52
        MOV      R4,R0
        LDRH     R0,[R4, #+2]
        PUSH     {R0}
        CFI CFA R13+56
        LDRH     R3,[R4, #+0]
        ADD      R0,SP,#+4
        SWI      +307
        MOV      R3,R4
        MOV      R2,#+0
        ADD      R1,SP,#+4
        ADD      R0,SP,#+12
        SWI      +337
        ADD      R0,SP,#+12
        SWI      +298
        ADD      SP,SP,#+48
        CFI CFA R13+8
        POP      {R4,PC}          ;; return
        CFI EndBlock cfiBlock19

        RSEG CODE:CODE:NOROOT(2)
        CFI Block cfiBlock20 Using cfiCommon0
        CFI NoFunction
        THUMB
??mfreeImages??rT:
        BX       PC
        Nop      
        CFI EndBlock cfiBlock20
        REQUIRE mfreeImages

        RSEG CODE:CODE:NOROOT(2)
        CFI Block cfiBlock21 Using cfiCommon1
        CFI Function mfreeImages
        ARM
// __??Code32?? __code __interwork __atpcs void mfreeImages()
mfreeImages:
        PUSH     {R4,LR}
        CFI ?RET Frame(CFA, -4)
        CFI R4 Frame(CFA, -8)
        CFI CFA R13+8
        MOV      R4,#+0
??mfreeImages_0:
        LDR      R0,??DataTable26  ;; lang
        ADD      R0,R0,R4, LSL #+2
        LDR      R0,[R0, #+488]
        ADD      R4,R4,#+1
        SWI      +21
        CMP      R4,#+5
        BLT      ??mfreeImages_0
        POP      {R4,PC}          ;; return
        CFI EndBlock cfiBlock21

        RSEG CODE:CODE:NOROOT(2)
        CFI Block cfiBlock22 Using cfiCommon0
        CFI NoFunction
        THUMB
??mfreelang??rT:
        BX       PC
        Nop      
        CFI EndBlock cfiBlock22
        REQUIRE mfreelang

        RSEG CODE:CODE:NOROOT(2)
        CFI Block cfiBlock23 Using cfiCommon1
        CFI Function mfreelang
        ARM
// __??Code32?? __code __interwork __atpcs void mfreelang()
mfreelang:
        PUSH     {R4,LR}
        CFI ?RET Frame(CFA, -4)
        CFI R4 Frame(CFA, -8)
        CFI CFA R13+8
        MOV      R4,#+0
??mfreelang_0:
        LDR      R0,??DataTable19  ;; lang
        LDR      R0,[R0, +R4, LSL #+2]
        ADD      R4,R4,#+1
        SWI      +21
        CMP      R4,#+58
        BLT      ??mfreelang_0
        POP      {R4,PC}          ;; return
        CFI EndBlock cfiBlock23

        RSEG CODE:CODE:NOROOT(2)
        CFI Block cfiBlock24 Using cfiCommon0
        CFI NoFunction
        THUMB
??malloclang??rT:
        BX       PC
        Nop      
        CFI EndBlock cfiBlock24
        REQUIRE malloclang

        RSEG CODE:CODE:NOROOT(2)
        CFI Block cfiBlock25 Using cfiCommon1
        CFI Function malloclang
        ARM
// __??Code32?? __code __interwork __atpcs void malloclang()
malloclang:
        PUSH     {R4,LR}
        CFI ?RET Frame(CFA, -4)
        CFI R4 Frame(CFA, -8)
        CFI CFA R13+8
        MOV      R4,#+0
??malloclang_0:
        MOV      R0,#+60
        SWI      +20
        LDR      R1,??DataTable19  ;; lang
        STR      R0,[R1, +R4, LSL #+2]
        ADD      R4,R4,#+1
        CMP      R4,#+59
        BLT      ??malloclang_0
        POP      {R4,PC}          ;; return
        CFI EndBlock cfiBlock25

        RSEG CODE:CODE:NOROOT(2)
        DATA
??DataTable19:
        DC32     lang

        RSEG CODE:CODE:NOROOT(2)
        CFI Block cfiBlock26 Using cfiCommon0
        CFI NoFunction
        THUMB
??deleteIMGHDR??rT:
        BX       PC
        Nop      
        CFI EndBlock cfiBlock26
        REQUIRE deleteIMGHDR

        RSEG CODE:CODE:NOROOT(2)
        CFI Block cfiBlock27 Using cfiCommon1
        CFI Function deleteIMGHDR
        ARM
// __??Code32?? __code __interwork __atpcs void deleteIMGHDR(struct <unnamed> *)
deleteIMGHDR:
        PUSH     {R4,LR}
        CFI ?RET Frame(CFA, -4)
        CFI R4 Frame(CFA, -8)
        CFI CFA R13+8
        MOVS     R4,R0
        LDRNE    R0,[R4, #+8]
        CMPNE    R0,#+0
        POPEQ    {R4,PC}
        SWI      +21
        MOV      R0,R4
        SWI      +21
        POP      {R4,PC}          ;; return
        CFI EndBlock cfiBlock27

        RSEG CODE:CODE:NOROOT(2)
        CFI Block cfiBlock28 Using cfiCommon0
        CFI NoFunction
        THUMB
??delimghdr??rT:
        BX       PC
        Nop      
        CFI EndBlock cfiBlock28
        REQUIRE delimghdr

        RSEG CODE:CODE:NOROOT(2)
        CFI Block cfiBlock29 Using cfiCommon1
        CFI Function delimghdr
        ARM
// __??Code32?? __code __interwork __atpcs void delimghdr()
delimghdr:
        PUSH     {R4,R5,LR}
        CFI ?RET Frame(CFA, -4)
        CFI R5 Frame(CFA, -8)
        CFI R4 Frame(CFA, -12)
        CFI CFA R13+12
        LDR      R5,??DataTable26  ;; lang
        MOV      R4,#+0
        LDR      R0,[R5, #+564]
        CMP      R0,#+1
        BGE      ??delimghdr_0
        POP      {R4,R5,PC}
??delimghdr_1:
        ADD      R0,R5,R4, LSL #+2
        LDR      R0,[R0, #+464]
        ADD      R4,R4,#+1
        BL       deleteIMGHDR
??delimghdr_0:
        LDR      R0,[R5, #+564]
        CMP      R4,R0
        BLT      ??delimghdr_1
        POP      {R4,R5,PC}       ;; return
        CFI EndBlock cfiBlock29

        RSEG CODE:CODE:NOROOT(2)
        CFI Block cfiBlock30 Using cfiCommon0
        CFI NoFunction
        THUMB
??GetSize??rT:
        BX       PC
        Nop      
        CFI EndBlock cfiBlock30
        REQUIRE GetSize

        RSEG CODE:CODE:NOROOT(2)
        CFI Block cfiBlock31 Using cfiCommon1
        CFI Function GetSize
        ARM
// __??Code32?? __code __interwork __atpcs void GetSize()
GetSize:
        LDR      R0,??DataTable26  ;; lang
        LDR      R1,[R0, #+464]
        LDRH     R2,[R1, #+0]
        STR      R2,[R0, #+404]
        LDRH     R2,[R1, #+2]
        STR      R2,[R0, #+400]
        LDR      R2,[R0, #+468]
        LDRH     R2,[R2, #+0]
        STR      R2,[R0, #+440]
        LDRH     R1,[R1, #+2]
        STR      R1,[R0, #+436]
        LDR      R1,[R0, #+472]
        LDRH     R2,[R1, #+0]
        STR      R2,[R0, #+368]
        LDRH     R1,[R1, #+2]
        STR      R1,[R0, #+364]
        BX       LR               ;; return
        CFI EndBlock cfiBlock31

        RSEG CODE:CODE:NOROOT(2)
        CFI Block cfiBlock32 Using cfiCommon0
        CFI NoFunction
        THUMB
??Init??rT:
        BX       PC
        Nop      
        CFI EndBlock cfiBlock32
        REQUIRE Init

        RSEG CODE:CODE:NOROOT(2)
        CFI Block cfiBlock33 Using cfiCommon1
        CFI Function Init
        ARM
// __??Code32?? __code __interwork __atpcs void Init()
Init:
        PUSH     {R4-R11,LR}
        CFI ?RET Frame(CFA, -4)
        CFI R11 Frame(CFA, -8)
        CFI R10 Frame(CFA, -12)
        CFI R9 Frame(CFA, -16)
        CFI R8 Frame(CFA, -20)
        CFI R7 Frame(CFA, -24)
        CFI R6 Frame(CFA, -28)
        CFI R5 Frame(CFA, -32)
        CFI R4 Frame(CFA, -36)
        CFI CFA R13+36
        LDR      R4,??DataTable26  ;; lang
        LDR      R5,??DataTable23  ;; `?<Constant "kick.mid">`
        LDR      R11,??DataTable29  ;; folder
        MOV      R0,#+112
        STR      R0,[R4, #+580]
        MOV      R0,#+0
        STRB     R0,[R4, #+660]
        BL       malloclang
        ADD      R0,R5,#+32
        SWI      +27
        ADD      R0,R0,#+129
        SWI      +20
        STR      R0,[R4, #+488]
        ADD      R0,R5,#+48
        SWI      +27
        MOV      R6,#+492
        ADD      R0,R0,#+129
        SWI      +20
        STR      R0,[R6, +R4]
        ADD      R0,R5,#+64
        SWI      +27
        MOV      R7,#+496
        ADD      R0,R0,#+129
        SWI      +20
        STR      R0,[R7, +R4]
        ADD      R0,R5,#+76
        SWI      +27
        MOV      R8,#+500
        ADD      R0,R0,#+129
        SWI      +20
        STR      R0,[R8, +R4]
        ADD      R0,R5,#+92
        SWI      +27
        MOV      R9,#+504
        ADD      R0,R0,#+129
        SWI      +20
        STR      R0,[R9, +R4]
        ADD      R0,R5,#+108
        SWI      +27
        MOV      R10,#+508
        ADD      R0,R0,#+129
        SWI      +20
        STR      R0,[R10, +R4]
        LDR      R0,[R4, #+488]
        ADD      R3,R5,#+32
        MOV      R2,R11
        ADD      R1,R5,#+124
        SWI      +22
        LDR      R0,[R6, +R4]
        ADD      R3,R5,#+48
        MOV      R2,R11
        ADD      R1,R5,#+124
        SWI      +22
        LDR      R0,[R7, +R4]
        ADD      R3,R5,#+64
        MOV      R2,R11
        ADD      R1,R5,#+124
        SWI      +22
        LDR      R0,[R8, +R4]
        ADD      R3,R5,#+76
        MOV      R2,R11
        ADD      R1,R5,#+124
        SWI      +22
        LDR      R0,[R9, +R4]
        ADD      R3,R5,#+92
        MOV      R2,R11
        ADD      R1,R5,#+124
        SWI      +22
        LDR      R0,[R10, +R4]
        ADD      R3,R5,#+108
        MOV      R2,R11
        ADD      R1,R5,#+124
        SWI      +22
        BL       loadNastr
        POP      {R4-R11,PC}      ;; return
        CFI EndBlock cfiBlock33

        RSEG CODE:CODE:NOROOT(2)
        DATA
??DataTable23:
        DC32     `?<Constant "kick.mid">`

        RSEG CODE:CODE:NOROOT(2)
        CFI Block cfiBlock34 Using cfiCommon0
        CFI NoFunction
        THUMB
??Redraw??rT:
        BX       PC
        Nop      
        CFI EndBlock cfiBlock34
        REQUIRE Redraw

        RSEG CODE:CODE:NOROOT(2)
        CFI Block cfiBlock35 Using cfiCommon1
        CFI Function Redraw
        ARM
// __??Code32?? __code __interwork __atpcs void Redraw()
Redraw:
        PUSH     {LR}
        CFI ?RET Frame(CFA, -4)
        CFI CFA R13+4
        SWI      +319
        LDR      R2,??Redraw_0    ;; Redraw
        LDR      R0,??Redraw_0+0x4  ;; lang + 664
        MOV      R1,#+5
        SWI      +77
        POP      {PC}             ;; return
        DATA
??Redraw_0:
        DC32     Redraw
        DC32     lang + 664
        CFI EndBlock cfiBlock35

        RSEG CODE:CODE:NOROOT(2)
        CFI Block cfiBlock36 Using cfiCommon0
        CFI NoFunction
        THUMB
??load_lang??rT:
        BX       PC
        Nop      
        CFI EndBlock cfiBlock36
        REQUIRE load_lang

        RSEG CODE:CODE:NOROOT(2)
        CFI Block cfiBlock37 Using cfiCommon1
        CFI Function load_lang
        ARM
// __??Code32?? __code __interwork __atpcs void load_lang()
load_lang:
        PUSH     {R4-R6,LR}
        CFI ?RET Frame(CFA, -4)
        CFI R6 Frame(CFA, -8)
        CFI R5 Frame(CFA, -12)
        CFI R4 Frame(CFA, -16)
        CFI CFA R13+16
        LDR      R5,??DataTable27  ;; perc_t
        LDR      R6,??DataTable26  ;; lang
        MOV      R0,#+64
        SWI      +293
        MOV      R4,R0
        ADD      R0,R5,#+188
        PUSH     {R0}
        CFI CFA R13+20
        MOV      R3,#+320
        MOV      R2,#+240
        MOV      R1,#+0
        MOV      R0,#+0
        PUSH     {R0}
        CFI CFA R13+24
        PUSH     {R0}
        CFI CFA R13+28
        PUSH     {R0}
        CFI CFA R13+32
        PUSH     {R0}
        CFI CFA R13+36
        SWI      +336
        LDR      R1,[R6, #+580]
        ADD      R0,R5,#+180
        PUSH     {R0}
        CFI CFA R13+40
        ADD      R3,R1,#+30
        MOV      R2,#+210
        MOV      R0,#+0
        PUSH     {R0}
        CFI CFA R13+44
        PUSH     {R0}
        CFI CFA R13+48
        PUSH     {R0}
        CFI CFA R13+52
        PUSH     {R0}
        CFI CFA R13+56
        LDR      R0,[R6, #+576]
        SWI      +336
        ADD      SP,SP,#+40
        CFI CFA R13+16
        LDR      R0,[R6, #+632]
        CMP      R0,#+0
        BEQ      ??load_lang_0
        SUBS     R0,R0,#+1
        BEQ      ??load_lang_1
        B        ??load_lang_2
??load_lang_0:
        ADD      R2,R5,#+108
        B        ??load_lang_3
??load_lang_1:
        ADD      R2,R5,#+124
??load_lang_3:
        MOV      R1,R5
        MOV      R0,R4
        SWI      +292
??load_lang_2:
        MOV      R0,#+23
        SWI      +302
        MOV      R6,R0
        MOV      R0,#+2
        SWI      +302
        PUSH     {R6}
        CFI CFA R13+20
        PUSH     {R0}
        CFI CFA R13+24
        MOV      R3,#+240
        MOV      R2,#+80
        MOV      R1,#+0
        MOV      R0,#+2
        PUSH     {R0}
        CFI CFA R13+28
        MOV      R0,#+9
        PUSH     {R0}
        CFI CFA R13+32
        MOV      R0,#+320
        PUSH     {R0}
        CFI CFA R13+36
        MOV      R0,R4
        SWI      +332
        ADD      R2,R5,#+140
        MOV      R1,R5
        MOV      R0,R4
        SWI      +292
        MOV      R0,#+23
        SWI      +302
        MOV      R6,R0
        MOV      R0,#+2
        SWI      +302
        PUSH     {R6}
        CFI CFA R13+40
        PUSH     {R0}
        CFI CFA R13+44
        MOV      R3,#+240
        MOV      R2,#+120
        MOV      R1,#+0
        MOV      R0,#+2
        PUSH     {R0}
        CFI CFA R13+48
        MOV      R0,#+9
        PUSH     {R0}
        CFI CFA R13+52
        MOV      R0,#+320
        PUSH     {R0}
        CFI CFA R13+56
        MOV      R0,R4
        SWI      +332
        ADD      SP,SP,#+40
        CFI CFA R13+16
        ADD      R2,R5,#+148
        MOV      R1,R5
        MOV      R0,R4
        SWI      +292
        MOV      R0,#+23
        SWI      +302
        MOV      R5,R0
        MOV      R0,#+2
        SWI      +302
        PUSH     {R5}
        CFI CFA R13+20
        PUSH     {R0}
        CFI CFA R13+24
        MOV      R3,#+240
        MOV      R2,#+160
        MOV      R1,#+0
        MOV      R0,#+2
        PUSH     {R0}
        CFI CFA R13+28
        MOV      R0,#+9
        PUSH     {R0}
        CFI CFA R13+32
        MOV      R0,#+320
        PUSH     {R0}
        CFI CFA R13+36
        MOV      R0,R4
        SWI      +332
        MOV      R0,R4
        SWI      +297
        ADD      SP,SP,#+20
        CFI CFA R13+16
        POP      {R4-R6,PC}       ;; return
        CFI EndBlock cfiBlock37

        RSEG CODE:CODE:NOROOT(2)
        DATA
??DataTable26:
        DC32     lang

        RSEG CODE:CODE:NOROOT(2)
        CFI Block cfiBlock38 Using cfiCommon0
        CFI NoFunction
        THUMB
??loading??rT:
        BX       PC
        Nop      
        CFI EndBlock cfiBlock38
        REQUIRE loading

        RSEG CODE:CODE:NOROOT(2)
        CFI Block cfiBlock39 Using cfiCommon1
        CFI Function loading
        ARM
// __??Code32?? __code __interwork __atpcs void loading(int)
loading:
        PUSH     {R4-R9,LR}
        CFI ?RET Frame(CFA, -4)
        CFI R9 Frame(CFA, -8)
        CFI R8 Frame(CFA, -12)
        CFI R7 Frame(CFA, -16)
        CFI R6 Frame(CFA, -20)
        CFI R5 Frame(CFA, -24)
        CFI R4 Frame(CFA, -28)
        CFI CFA R13+28
        LDR      R6,??DataTable27  ;; perc_t
        SUB      SP,SP,#+40
        CFI CFA R13+68
        MOV      R8,R0
        MOV      R0,#+64
        SWI      +293
        MOV      R4,R0
        MOV      R0,#+64
        SWI      +293
        MOV      R5,R0
        ADD      R0,R6,#+188
        PUSH     {R0}
        CFI CFA R13+72
        MOV      R3,#+320
        MOV      R2,#+240
        MOV      R1,#+0
        MOV      R0,#+0
        PUSH     {R0}
        CFI CFA R13+76
        PUSH     {R0}
        CFI CFA R13+80
        PUSH     {R0}
        CFI CFA R13+84
        PUSH     {R0}
        CFI CFA R13+88
        SWI      +336
        MOV      R0,#+23
        SWI      +302
        MOV      R7,R0
        MOV      R0,#+2
        SWI      +302
        PUSH     {R7}
        CFI CFA R13+92
        PUSH     {R0}
        CFI CFA R13+96
        MOV      R3,#+198
        MOV      R2,#+237
        MOV      R1,#+186
        MOV      R0,#+0
        PUSH     {R0}
        CFI CFA R13+100
        MOV      R0,#+3
        SWI      +436
        MOV      R0,#+22
        SWI      +302
        MOV      R7,R0
        MOV      R0,#+2
        SWI      +302
        PUSH     {R7}
        CFI CFA R13+104
        LDR      R7,??DataTable41  ;; lang
        PUSH     {R0}
        CFI CFA R13+108
        MOV      R3,#+196
        MOV      R0,#+0
        PUSH     {R0}
        CFI CFA R13+112
        MOV      R0,#+29
        MUL      R1,R0,R8
        MOV      R0,#+5
        ADD      R2,R1,#+32
        MOV      R1,#+188
        SWI      +436
        ADD      SP,SP,#+44
        CFI CFA R13+68
        LDR      R2,[R7, #+0]
        MOV      R1,R6
        MOV      R0,R5
        SWI      +292
        MOV      R0,#+23
        SWI      +302
        MOV      R9,R0
        MOV      R0,#+2
        SWI      +302
        PUSH     {R9}
        CFI CFA R13+72
        PUSH     {R0}
        CFI CFA R13+76
        MOV      R3,#+240
        MOV      R2,#+64
        MOV      R1,#+0
        MOV      R0,#+2
        PUSH     {R0}
        CFI CFA R13+80
        MOV      R9,#+1
        MOV      R0,#+9
        PUSH     {R0}
        CFI CFA R13+84
        MOV      R0,#+320
        PUSH     {R0}
        CFI CFA R13+88
        MOV      R0,R5
        SWI      +332
        ADD      SP,SP,#+20
        CFI CFA R13+68
??loading_0:
        ADD      R0,R7,R9, LSL #+2
        LDR      R1,[R0, #+532]
        MOV      R0,#+30
        MUL      R2,R0,R9
        ADD      R9,R9,#+1
        ADD      R0,R2,#+3
        BL       DRE
        CMP      R9,#+7
        BLT      ??loading_0
        LDR      R0,[R7, #+644]
        SUBS     R1,R8,#+6
        BEQ      ??loading_1
        SUBS     R1,R1,#+1
        BEQ      ??loading_2
        B        ??loading_3
??loading_1:
        CMP      R0,#+1
        BLT      ??loading_4
        ADD      R0,R6,#+188
        PUSH     {R0}
        CFI CFA R13+72
        MOV      R3,#+320
        MOV      R2,#+240
        MOV      R1,#+0
        MOV      R0,#+0
        PUSH     {R0}
        CFI CFA R13+76
        PUSH     {R0}
        CFI CFA R13+80
        PUSH     {R0}
        CFI CFA R13+84
        PUSH     {R0}
        CFI CFA R13+88
        SWI      +336
        MOV      R0,#+128
        SWI      +293
        LDR      R2,[R7, #+176]
        MOV      R8,R0
        MOV      R1,R6
        SWI      +292
        MOV      R0,#+23
        SWI      +302
        MOV      R6,R0
        MOV      R0,#+2
        SWI      +302
        PUSH     {R6}
        CFI CFA R13+92
        PUSH     {R0}
        CFI CFA R13+96
        MOV      R3,#+240
        MOV      R2,#+120
        MOV      R1,#+0
        MOV      R0,#+2
        PUSH     {R0}
        CFI CFA R13+100
        MOV      R0,#+9
        PUSH     {R0}
        CFI CFA R13+104
        MOV      R0,#+320
        PUSH     {R0}
        CFI CFA R13+108
        MOV      R0,R8
        SWI      +332
        ADD      SP,SP,#+40
        CFI CFA R13+68
        MOV      R0,R8
        SWI      +297
        B        ??loading_5
??loading_4:
        MOV      R0,#+128
        SWI      +293
        LDR      R2,[R7, #+180]
        MOV      R8,R0
        MOV      R1,R6
        SWI      +292
        MOV      R0,#+23
        SWI      +302
        MOV      R6,R0
        MOV      R0,#+2
        SWI      +302
        PUSH     {R6}
        CFI CFA R13+72
        PUSH     {R0}
        CFI CFA R13+76
        MOV      R3,#+240
        MOV      R2,#+120
        MOV      R1,#+0
        MOV      R0,#+2
        PUSH     {R0}
        CFI CFA R13+80
        MOV      R0,#+9
        PUSH     {R0}
        CFI CFA R13+84
        MOV      R0,#+320
        PUSH     {R0}
        CFI CFA R13+88
        MOV      R0,R8
        SWI      +332
        MOV      R0,R8
        SWI      +297
        ADD      SP,SP,#+20
        CFI CFA R13+68
??loading_5:
        BL       GetSize
        B        ??loading_6
??loading_2:
        CMP      R0,#+1
        BLT      ??loading_7
        ADD      R0,R6,#+188
        PUSH     {R0}
        CFI CFA R13+72
        MOV      R3,#+320
        MOV      R2,#+240
        MOV      R1,#+0
        MOV      R0,#+0
        PUSH     {R0}
        CFI CFA R13+76
        PUSH     {R0}
        CFI CFA R13+80
        PUSH     {R0}
        CFI CFA R13+84
        PUSH     {R0}
        CFI CFA R13+88
        SWI      +336
        MOV      R0,#+128
        SWI      +293
        LDR      R3,??DataTable29  ;; folder
        MOV      R8,R0
        ADD      R0,R6,#+164
        PUSH     {R0}
        CFI CFA R13+92
        LDR      R2,[R7, #+184]
        ADD      R1,R6,#+156
        MOV      R0,R8
        SWI      +292
        MOV      R0,#+23
        SWI      +302
        MOV      R6,R0
        MOV      R0,#+2
        SWI      +302
        PUSH     {R6}
        CFI CFA R13+96
        PUSH     {R0}
        CFI CFA R13+100
        MOV      R3,#+240
        MOV      R2,#+30
        MOV      R1,#+0
        MOV      R0,#+2
        PUSH     {R0}
        CFI CFA R13+104
        MOV      R0,#+9
        PUSH     {R0}
        CFI CFA R13+108
        MOV      R0,#+320
        PUSH     {R0}
        CFI CFA R13+112
        MOV      R0,R8
        SWI      +332
        ADD      SP,SP,#+44
        CFI CFA R13+68
        MOV      R0,R8
        SWI      +297
        B        ??loading_6
??loading_7:
        MOV      R0,#+52
        STR      R0,[R7, #+580]
        MOV      R0,#+1
        STRB     R0,[R7, #+660]
        SWI      +319
        B        ??loading_6
??loading_3:
        ADD      R9,R7,R8, LSL #+2
        LDR      R0,[R9, #+488]
        MOV      R2,#+0
        MOV      R1,SP
        SWI      +132
        CMN      R0,#+1
        BEQ      ??loading_8
        LDR      R3,[R7, #+168]
        LDR      R2,[R9, #+488]
        ADD      R1,R6,#+172
        MOV      R0,R4
        SWI      +292
        MOV      R0,R8
        BL       png
        MOV      R0,#+4
        STR      R0,[R9, #+536]
        B        ??loading_9
??loading_8:
        LDR      R0,[R7, #+644]
        ADD      R1,R6,#+172
        ADD      R0,R0,#+1
        STR      R0,[R7, #+644]
        MOV      R0,#+2
        STR      R0,[R9, #+536]
        LDR      R3,[R7, #+172]
        LDR      R2,[R9, #+488]
        MOV      R0,R4
        SWI      +292
??loading_9:
        MOV      R0,#+23
        SWI      +302
        MOV      R6,R0
        MOV      R0,#+2
        SWI      +302
        PUSH     {R6}
        CFI CFA R13+72
        PUSH     {R0}
        CFI CFA R13+76
        MOV      R3,#+240
        MOV      R2,#+106
        MOV      R1,#+0
        MOV      R0,#+2
        PUSH     {R0}
        CFI CFA R13+80
        MOV      R0,#+9
        PUSH     {R0}
        CFI CFA R13+84
        MOV      R0,#+320
        PUSH     {R0}
        CFI CFA R13+88
        MOV      R0,R4
        SWI      +332
        ADD      SP,SP,#+20
        CFI CFA R13+68
??loading_6:
        MOV      R0,R4
        SWI      +297
        MOV      R0,R5
        SWI      +297
        ADD      SP,SP,#+40
        CFI CFA R13+28
        POP      {R4-R9,PC}       ;; return
        CFI EndBlock cfiBlock39

        RSEG CODE:CODE:NOROOT(2)
        DATA
??DataTable27:
        DC32     perc_t

        RSEG CODE:CODE:NOROOT(2)
        DATA
??DataTable29:
        DC32     folder

        RSEG CODE:CODE:NOROOT(2)
        CFI Block cfiBlock40 Using cfiCommon0
        CFI NoFunction
        THUMB
??move_block??rT:
        BX       PC
        Nop      
        CFI EndBlock cfiBlock40
        REQUIRE move_block
//   17 #include "pp.c"

        RSEG CODE:CODE:NOROOT(2)
        CFI Block cfiBlock41 Using cfiCommon1
        CFI Function move_block
        ARM
// __??Code32?? __code __interwork __atpcs void move_block()
move_block:
        PUSH     {R4-R6,LR}
        CFI ?RET Frame(CFA, -4)
        CFI R6 Frame(CFA, -8)
        CFI R5 Frame(CFA, -12)
        CFI R4 Frame(CFA, -16)
        CFI CFA R13+16
        LDR      R6,??DataTable39  ;; lang
        MOV      R5,#+420
        LDR      R0,[R5, +R6]
        MOV      R4,#+408
        CMP      R0,#+1
        BNE      ??move_block_0
        LDR      R0,[R4, +R6]
        RSB      R0,R0,#+0
        BL       shift_block
??move_block_0:
        LDR      R0,[R5, +R6]
        CMP      R0,#+2
        POPNE    {R4-R6,PC}
        LDR      R0,[R4, +R6]
        BL       shift_block
        POP      {R4-R6,PC}       ;; return
        CFI EndBlock cfiBlock41

        RSEG CODE:CODE:NOROOT(2)
        CFI Block cfiBlock42 Using cfiCommon0
        CFI NoFunction
        THUMB
??shift_block??rT:
        BX       PC
        Nop      
        CFI EndBlock cfiBlock42
        REQUIRE shift_block

        RSEG CODE:CODE:NOROOT(2)
        CFI Block cfiBlock43 Using cfiCommon1
        CFI Function shift_block
        ARM
// __??Code32?? __code __interwork __atpcs void shift_block(int)
shift_block:
        LDR      R2,??DataTable39  ;; lang
        PUSH     {R4}
        CFI R4 Frame(CFA, -4)
        CFI CFA R13+4
        MOV      R1,#+392
        LDR      R3,[R1, +R2]
        MOV      R12,R0
        RSB      R12,R12,#+0
        CMP      R3,R12
        MOVLT    R3,#+0
        BLT      ??shift_block_0
        LDR      R12,[R2, #+404]
        ADD      R3,R0,R3
        ADD      R4,R12,R3
        CMP      R4,#+241
        CMPGE    R0,#+1
        RSBGE    R3,R12,#+240
??shift_block_0:
        STR      R3,[R1, +R2]
        POP      {R4}
        CFI R4 SameValue
        CFI CFA R13+0
        BX       LR               ;; return
        CFI EndBlock cfiBlock43

        RSEG CODE:CODE:NOROOT(2)
        CFI Block cfiBlock44 Using cfiCommon0
        CFI NoFunction
        THUMB
??shift_cpu??rT:
        BX       PC
        Nop      
        CFI EndBlock cfiBlock44
        REQUIRE shift_cpu

        RSEG CODE:CODE:NOROOT(2)
        CFI Block cfiBlock45 Using cfiCommon1
        CFI Function shift_cpu
        ARM
// __??Code32?? __code __interwork __atpcs void shift_cpu(int)
shift_cpu:
        LDR      R2,??DataTable39  ;; lang
        PUSH     {R4}
        CFI R4 Frame(CFA, -4)
        CFI CFA R13+4
        MOV      R1,#+428
        LDR      R3,[R1, +R2]
        MOV      R12,R0
        RSB      R12,R12,#+0
        CMP      R3,R12
        MOVLT    R3,#+0
        BLT      ??shift_cpu_0
        LDR      R12,[R2, #+440]
        ADD      R3,R0,R3
        ADD      R4,R12,R3
        CMP      R4,#+241
        CMPGE    R0,#+1
        RSBGE    R3,R12,#+240
??shift_cpu_0:
        STR      R3,[R1, +R2]
        POP      {R4}
        CFI R4 SameValue
        CFI CFA R13+0
        BX       LR               ;; return
        CFI EndBlock cfiBlock45

        RSEG CODE:CODE:NOROOT(2)
        CFI Block cfiBlock46 Using cfiCommon0
        CFI NoFunction
        THUMB
??move_ball??rT:
        BX       PC
        Nop      
        CFI EndBlock cfiBlock46
        REQUIRE move_ball

        RSEG CODE:CODE:NOROOT(2)
        CFI Block cfiBlock47 Using cfiCommon1
        CFI Function move_ball
        ARM
// __??Code32?? __code __interwork __atpcs void move_ball()
move_ball:
        PUSH     {R4-R11,LR}
        CFI ?RET Frame(CFA, -4)
        CFI R11 Frame(CFA, -8)
        CFI R10 Frame(CFA, -12)
        CFI R9 Frame(CFA, -16)
        CFI R8 Frame(CFA, -20)
        CFI R7 Frame(CFA, -24)
        CFI R6 Frame(CFA, -28)
        CFI R5 Frame(CFA, -32)
        CFI R4 Frame(CFA, -36)
        CFI CFA R13+36
        LDR      R5,??DataTable39  ;; lang
        SUB      SP,SP,#+4
        CFI CFA R13+40
        MOV      R4,#+388
        LDR      R0,[R4, +R5]
        MOV      R6,#+360
        LDR      R1,[R6, +R5]
        MOV      R2,R0
        ADD      R12,R0,R1
        LDR      R0,[R5, #+368]
        MOV      R9,#+392
        LDR      R3,[R9, +R5]
        MOV      R7,#+356
        LDR      R1,[R7, +R5]
        RSB      R2,R2,#+0
        STR      R2,[SP, #+0]
        MOV      R8,#+384
        ADD      R2,R0,R1
        CMP      R2,R3
        BLT      ??move_ball_0
        MOV      R2,#+404
        LDR      R10,[R2, +R5]
        ADD      R3,R10,R3
        CMP      R3,R1
        BLT      ??move_ball_0
        LDR      LR,[R5, #+400]
        MOV      R3,#+396
        LDR      R10,[R3, +R5]
        SUB      R10,R10,LR
        CMP      R10,R12
        BGE      ??move_ball_0
        LDR      R10,[SP, #+0]
        LDR      R9,[R9, +R5]
        STR      R10,[R4, +R5]
        ADD      R10,R0,R0, LSR #+31
        ASR      R12,R10,#+1
        SUB      R10,R9,R12
        CMP      R10,R1
        LDRGE    R10,[R8, +R5]
        CMPGE    R10,#+1
        BGE      ??move_ball_1
        LDR      R2,[R2, +R5]
        LDR      LR,[R8, +R5]
        ADD      R2,R2,R9
        SUB      R2,R2,R12
        CMP      R1,R2
        BLT      ??move_ball_2
        CMP      LR,#+0
        BPL      ??move_ball_2
??move_ball_1:
        LDR      R0,[R8, +R5]
        LDR      R1,[R5, #+364]
        RSB      R0,R0,#+0
        STR      R0,[R8, +R5]
        LDR      R0,[R3, +R5]
        SUB      R0,R0,R1
??move_ball_3:
        STR      R0,[R6, +R5]
        B        ??move_ball_4
??move_ball_2:
        LDR      R0,[R5, #+420]
        SUBS     R0,R0,#+1
        BEQ      ??move_ball_5
        SUBS     R0,R0,#+1
        BEQ      ??move_ball_6
        B        ??move_ball_4
??move_ball_5:
        SUB      R0,LR,#+2
        B        ??move_ball_7
??move_ball_6:
        ADD      R0,LR,#+2
??move_ball_7:
        STR      R0,[R8, +R5]
??move_ball_4:
        LDR      R0,[R5, #+612]
        CMP      R0,#+1
        BNE      ??move_ball_8
        BL       Play
??move_ball_8:
        MOV      R1,#+2
        MOV      R0,#+0
        BL       start_vibra
??move_ball_9:
        LDR      R0,[R8, +R5]
        CMP      R0,#+8
        BLT      ??move_ball_10
        MOV      R0,#+7
        STR      R0,[R8, +R5]
        B        ??move_ball_11
??move_ball_0:
        MOV      R9,#+428
        LDR      R2,[R9, +R5]
        CMP      R1,R2
        BLT      ??move_ball_9
        MOV      LR,#+440
        LDR      R3,[LR, +R5]
        ADD      R2,R3,R2
        CMP      R2,R1
        BLT      ??move_ball_9
        MOV      R2,#+436
        LDR      R11,[R2, +R5]
        MOV      R3,#+432
        LDR      R10,[R3, +R5]
        ADD      R10,R11,R10
        CMP      R12,R10
        BGE      ??move_ball_9
        LDR      R10,[SP, #+0]
        LDR      R9,[R9, +R5]
        STR      R10,[R4, +R5]
        ADD      R10,R0,R0, LSR #+31
        ASR      R12,R10,#+1
        SUB      R10,R9,R12
        CMP      R10,R1
        LDRGE    R10,[R8, +R5]
        CMPGE    R10,#+1
        BGE      ??move_ball_12
        LDR      R10,[LR, +R5]
        LDR      LR,[R8, +R5]
        ADD      R11,R10,R9
        SUB      R11,R11,R12
        CMP      R1,R11
        BLT      ??move_ball_13
        CMP      LR,#+0
        BPL      ??move_ball_13
??move_ball_12:
        LDR      R0,[R8, +R5]
        LDR      R1,[R2, +R5]
        RSB      R0,R0,#+0
        STR      R0,[R8, +R5]
        LDR      R0,[R3, +R5]
        ADD      R0,R1,R0
        B        ??move_ball_3
??move_ball_13:
        ADD      R0,R10,R10, LSR #+31
        ADD      R0,R9,R0, ASR #+1
        CMP      R1,R0
        SUBLT    R0,LR,#+1
        ADDGE    R0,LR,#+1
        B        ??move_ball_7
??move_ball_10:
        MVN      R1,#+6
        CMP      R0,R1
        STRLT    R1,[R8, +R5]
??move_ball_11:
        LDR      R0,[R8, +R5]
        LDR      R1,[R7, +R5]
        ADD      R1,R0,R1
        CMP      R1,#+2
        BGE      ??move_ball_14
        MOV      R1,#+1
        STR      R1,[R7, +R5]
        RSB      R0,R0,#+0
        STR      R0,[R8, +R5]
??move_ball_14:
        LDR      R0,[R5, #+368]
        LDR      R1,[R8, +R5]
        LDR      R2,[R7, +R5]
        RSB      R0,R0,#+239
        ADD      R2,R1,R2
        CMP      R2,R0
        STRGE    R0,[R7, +R5]
        RSBGE    R0,R1,#+0
        STRGE    R0,[R8, +R5]
        LDR      R0,[R7, +R5]
        LDR      R1,[R8, +R5]
        ADD      R0,R1,R0
        LDR      R1,[R4, +R5]
        STR      R0,[R7, +R5]
        LDR      R0,[R6, +R5]
        ADD      R0,R1,R0
        STR      R0,[R6, +R5]
        BL       AI
        BL       win
        POP      {R0,R4-R11,PC}   ;; return
        CFI EndBlock cfiBlock47

        RSEG CODE:CODE:NOROOT(2)
        CFI Block cfiBlock48 Using cfiCommon0
        CFI NoFunction
        THUMB
??AI??rT:
        BX       PC
        Nop      
        CFI EndBlock cfiBlock48
        REQUIRE AI

        RSEG CODE:CODE:NOROOT(2)
        CFI Block cfiBlock49 Using cfiCommon1
        CFI Function AI
        ARM
// __??Code32?? __code __interwork __atpcs void AI()
AI:
        PUSH     {R4-R7,LR}
        CFI ?RET Frame(CFA, -4)
        CFI R7 Frame(CFA, -8)
        CFI R6 Frame(CFA, -12)
        CFI R5 Frame(CFA, -16)
        CFI R4 Frame(CFA, -20)
        CFI CFA R13+20
        LDR      R4,??DataTable39  ;; lang
        LDR      R1,[R4, #+360]
        LDR      R12,[R4, #+648]
        MOV      R5,#+444
        LDR      R0,[R5, +R4]
        MOV      R7,#+440
        LDR      R3,[R7, +R4]
        MOV      R6,#+428
        LDR      R2,[R6, +R4]
        CMP      R1,R12
        BGE      ??AI_0
        LDR      R5,[R4, #+368]
        ADD      R1,R3,R3, LSR #+31
        ADD      R6,R2,R1, ASR #+1
        ADD      R1,R5,R5, LSR #+31
        ASR      R7,R1,#+1
        LDR      R1,[R4, #+384]
        LDR      R4,[R4, #+356]
        ADD      R12,R7,R6
        CMP      R4,R12
        BLT      ??AI_1
        CMP      R1,R0
        BGE      ??AI_2
        ADD      R3,R3,R3, LSL #+1
        ASR      R5,R3,#+1
        ADD      R3,R3,R5, LSR #+30
        ADD      R2,R2,R3, ASR #+2
        CMP      R4,R2
        BGE      ??AI_2
        CMP      R1,#+0
        BMI      ??AI_2
??AI_3:
        MOV      R0,R1
??AI_4:
        B        ??AI_2
??AI_1:
        SUB      R6,R6,R7
        CMP      R6,R4
        POPLT    {R4-R7,PC}
        RSB      R0,R0,#+0
        CMP      R0,R1
        BGE      ??AI_2
        ASR      R5,R3,#+1
        ADD      R3,R3,R5, LSR #+30
        ADD      R2,R2,R3, ASR #+2
        CMP      R2,R4
        BGE      ??AI_2
        CMP      R1,#+1
        BLT      ??AI_3
        BL       shift_cpu
        POP      {R4-R7,PC}
??AI_0:
        ADD      R1,R3,R3, LSR #+31
        CMP      R2,R1, ASR #+1
        BGE      ??AI_5
        BL       shift_cpu
??AI_5:
        LDR      R0,[R7, +R4]
        MOV      R1,#+240
        ADD      R2,R0,R0, LSR #+31
        SUB      R1,R1,R2, ASR #+1
        LDR      R2,[R6, +R4]
        ADD      R0,R0,R2
        CMP      R1,R0
        POPGE    {R4-R7,PC}
        LDR      R0,[R5, +R4]
        RSB      R0,R0,#+0
??AI_2:
        BL       shift_cpu
        POP      {R4-R7,PC}       ;; return
        CFI EndBlock cfiBlock49

        RSEG CODE:CODE:NOROOT(2)
        CFI Block cfiBlock50 Using cfiCommon0
        CFI NoFunction
        THUMB
??start_vibra??rT:
        BX       PC
        Nop      
        CFI EndBlock cfiBlock50
        REQUIRE start_vibra

        RSEG CODE:CODE:NOROOT(2)
        CFI Block cfiBlock51 Using cfiCommon1
        CFI Function start_vibra
        ARM
// __??Code32?? __code __interwork __atpcs void start_vibra(int, int)
start_vibra:
        PUSH     {R4-R6,LR}
        CFI ?RET Frame(CFA, -4)
        CFI R6 Frame(CFA, -8)
        CFI R5 Frame(CFA, -12)
        CFI R4 Frame(CFA, -16)
        CFI CFA R13+16
        LDR      R6,??DataTable39  ;; lang
        MOV      R4,R0
        LDR      R0,[R6, #+636]
        MOV      R5,R1
        CMP      R0,#+0
        POPEQ    {R4-R6,PC}
        SWI      +110
        CMP      R0,#+0
        POPNE    {R4-R6,PC}
        CMP      R4,#+0
        BEQ      ??start_vibra_0
        SUBS     R4,R4,#+1
        BNE      ??start_vibra_1
        MOV      R0,#+15
        B        ??start_vibra_2
??start_vibra_0:
        MOV      R0,#+40
??start_vibra_2:
        SWI      +124
??start_vibra_1:
        LDR      R2,??start_vibra_3  ;; stop_vibra
        MOV      R0,#+108
        ASR      R1,R0,R5
        ADD      R0,R6,#+680
        SWI      +77
        POP      {R4-R6,PC}       ;; return
        DATA
??start_vibra_3:
        DC32     stop_vibra
        CFI EndBlock cfiBlock51

        RSEG CODE:CODE:NOROOT(2)
        CFI Block cfiBlock52 Using cfiCommon0
        CFI NoFunction
        THUMB
??stop_vibra??rT:
        BX       PC
        Nop      
        CFI EndBlock cfiBlock52
        REQUIRE stop_vibra

        RSEG CODE:CODE:NOROOT(2)
        CFI Block cfiBlock53 Using cfiCommon1
        CFI Function stop_vibra
        ARM
// __??Code32?? __code __interwork __atpcs void stop_vibra(void)
stop_vibra:
        PUSH     {LR}
        CFI ?RET Frame(CFA, -4)
        CFI CFA R13+4
        MOV      R0,#+0
        SWI      +124
        POP      {PC}             ;; return
        CFI EndBlock cfiBlock53

        RSEG CODE:CODE:NOROOT(2)
        CFI Block cfiBlock54 Using cfiCommon0
        CFI NoFunction
        THUMB
??win??rT:
        BX       PC
        Nop      
        CFI EndBlock cfiBlock54
        REQUIRE win

        RSEG CODE:CODE:NOROOT(2)
        CFI Block cfiBlock55 Using cfiCommon1
        CFI Function win
        ARM
// __??Code32?? __code __interwork __atpcs void win()
win:
        PUSH     {R4-R11,LR}
        CFI ?RET Frame(CFA, -4)
        CFI R11 Frame(CFA, -8)
        CFI R10 Frame(CFA, -12)
        CFI R9 Frame(CFA, -16)
        CFI R8 Frame(CFA, -20)
        CFI R7 Frame(CFA, -24)
        CFI R6 Frame(CFA, -28)
        CFI R5 Frame(CFA, -32)
        CFI R4 Frame(CFA, -36)
        CFI CFA R13+36
        LDR      R9,??DataTable39  ;; lang
        LDR      R5,??DataTable37  ;; name
        MOV      R0,#+48
        SWI      +293
        MOV      R4,R0
        LDR      R0,[R9, #+596]
        MOV      R6,#+412
        MOV      R7,#+448
        MOV      R8,#+1
        CMP      R0,#+1
        BNE      ??win_0
        LDR      R0,[R9, #+528]
        LDR      R1,??win_1       ;; `?<Constant "%t:%d %d cpu:%d %d \\302\\360...">`
        PUSH     {R0}
        CFI CFA R13+40
        MOV      R11,#+452
        LDR      R0,[R11, +R9]
        MOV      R10,#+416
        PUSH     {R0}
        CFI CFA R13+44
        LDR      R0,[R7, +R9]
        MOV      R2,R5
        PUSH     {R0}
        CFI CFA R13+48
        LDR      R0,[R10, +R9]
        PUSH     {R0}
        CFI CFA R13+52
        LDR      R3,[R6, +R9]
        MOV      R0,R4
        SWI      +292
        LDR      R1,[R9, #+400]
        LDR      R0,[R9, #+360]
        LDR      R2,[R9, #+396]
        ADD      R1,R1,R1, LSR #+31
        ADD      R1,R2,R1, ASR #+1
        CMP      R1,R0
        ADD      SP,SP,#+16
        CFI CFA R13+36
        BGE      ??win_2
        LDR      R0,[R6, +R9]
        MOV      R1,#+1
        SUB      R0,R0,#+1
        STR      R0,[R6, +R9]
        MOV      R0,R1
        BL       start_vibra
        MOV      R0,#+0
        STR      R0,[R9, #+604]
        BL       setgame
        MOV      R0,R8
        B        ??win_3
??win_2:
        LDR      R1,[R9, #+436]
        LDR      R2,[R9, #+432]
        ADD      R1,R1,R1, LSR #+31
        SUB      R1,R2,R1, ASR #+1
        CMP      R0,R1
        BGE      ??win_4
        LDR      R0,[R7, +R9]
        MOV      R1,#+1
        SUB      R0,R0,#+1
        STR      R0,[R7, +R9]
        MOV      R0,R1
        BL       start_vibra
        STR      R8,[R9, #+604]
        MOV      R0,#+0
        BL       setgame
        MOV      R0,#+2
??win_3:
        BL       stop
??win_4:
        LDR      R0,[R6, +R9]
        CMP      R0,#+0
        BNE      ??win_5
        BL       gameover
        LDR      R0,[R11, +R9]
        ADD      R0,R0,#+1
        STR      R0,[R11, +R9]
??win_5:
        LDR      R0,[R7, +R9]
        CMP      R0,#+0
        BNE      ??win_0
        BL       gameover
        LDR      R0,[R10, +R9]
        ADD      R0,R0,#+1
        STR      R0,[R10, +R9]
??win_0:
        LDR      R0,[R9, #+596]
        CMP      R0,#+0
        BNE      ??win_6
        LDR      R1,[R9, #+400]
        LDR      R0,[R9, #+360]
        LDR      R2,[R9, #+396]
        ADD      R1,R1,R1, LSR #+31
        ADD      R1,R2,R1, ASR #+1
        CMP      R1,R0
        BGE      ??win_7
        LDR      R0,[R7, +R9]
        MOV      R1,#+1
        ADD      R0,R0,#+1
        STR      R0,[R7, +R9]
        MOV      R0,R1
        BL       start_vibra
        MOV      R0,#+0
        STR      R0,[R9, #+604]
        BL       setgame
        MOV      R0,R8
        B        ??win_8
??win_7:
        LDR      R1,[R9, #+436]
        LDR      R2,[R9, #+432]
        ADD      R1,R1,R1, LSR #+31
        SUB      R1,R2,R1, ASR #+1
        CMP      R0,R1
        BGE      ??win_9
        LDR      R0,[R6, +R9]
        MOV      R1,#+1
        ADD      R0,R0,#+1
        STR      R0,[R6, +R9]
        MOV      R0,R1
        BL       start_vibra
        LDR      R0,[R9, #+648]
        STR      R8,[R9, #+604]
        SUB      R0,R0,#+3
        STR      R0,[R9, #+648]
        MOV      R0,#+444
        LDR      R1,[R0, +R9]
        ADD      R1,R1,#+1
        STR      R1,[R0, +R9]
        MOV      R0,#+408
        LDR      R1,[R0, +R9]
        CMP      R1,#+6
        SUBGE    R1,R1,#+1
        STRGE    R1,[R0, +R9]
        MOV      R0,#+0
        BL       setgame
        MOV      R0,#+2
??win_8:
        BL       stop
??win_9:
        LDR      R0,[R9, #+528]
        LDR      R1,??win_1+0x4   ;; `?<Constant "%t:%d %d cpu:%d %d \\302\\360...">` + 32
        PUSH     {R0}
        CFI CFA R13+40
        LDR      R0,[R7, +R9]
        MOV      R2,R5
        PUSH     {R0}
        CFI CFA R13+44
        LDR      R3,[R6, +R9]
        MOV      R0,R4
        SWI      +292
        ADD      SP,SP,#+8
        CFI CFA R13+36
??win_6:
        MOV      R0,#+9
        SWI      +302
        MOV      R5,R0
        MOV      R0,#+9
        SWI      +453
        MOV      R6,R0
        MOV      R1,#+9
        MOV      R0,R4
        SWI      +520
        MOV      R1,#+0
        PUSH     {R1}
        CFI CFA R13+40
        PUSH     {R5}
        CFI CFA R13+44
        ADD      R3,R0,#+2
        MOV      R1,#+1
        PUSH     {R1}
        CFI CFA R13+48
        MOV      R2,R8
        MOV      R0,R4
        MOV      R1,#+9
        PUSH     {R1}
        CFI CFA R13+52
        ADD      R1,R6,#+1
        PUSH     {R1}
        CFI CFA R13+56
        MOV      R1,#+2
        SWI      +332
        MOV      R0,R4
        SWI      +297
        ADD      SP,SP,#+20
        CFI CFA R13+36
        POP      {R4-R11,PC}      ;; return
        DATA
??win_1:
        DC32     `?<Constant "%t:%d %d cpu:%d %d \\302\\360...">`
        DC32     `?<Constant "%t:%d %d cpu:%d %d \\302\\360...">` + 32
        CFI EndBlock cfiBlock55

        RSEG CODE:CODE:NOROOT(2)
        DATA
??DataTable37:
        DC32     name

        RSEG CODE:CODE:NOROOT(2)
        CFI Block cfiBlock56 Using cfiCommon0
        CFI NoFunction
        THUMB
??gameover??rT:
        BX       PC
        Nop      
        CFI EndBlock cfiBlock56
        REQUIRE gameover

        RSEG CODE:CODE:NOROOT(2)
        CFI Block cfiBlock57 Using cfiCommon1
        CFI Function gameover
        ARM
// __??Code32?? __code __interwork __atpcs void gameover()
gameover:
        PUSH     {R4-R6,LR}
        CFI ?RET Frame(CFA, -4)
        CFI R6 Frame(CFA, -8)
        CFI R5 Frame(CFA, -12)
        CFI R4 Frame(CFA, -16)
        CFI CFA R13+16
        LDR      R6,??DataTable41  ;; lang
        MOV      R5,#+412
        LDR      R0,[R5, +R6]
        MOV      R4,#+448
        CMP      R0,#+0
        LDREQ    R0,[R6, #+188]
        BEQ      ??gameover_0
        LDR      R0,[R4, +R6]
        CMP      R0,#+0
        BNE      ??gameover_1
        LDR      R0,[R6, #+192]
??gameover_0:
        BL       outtextxy
??gameover_1:
        LDR      R0,[R6, #+592]
        STR      R0,[R4, +R6]
        STR      R0,[R5, +R6]
        POP      {R4-R6,PC}       ;; return
        CFI EndBlock cfiBlock57

        RSEG CODE:CODE:NOROOT(2)
        CFI Block cfiBlock58 Using cfiCommon0
        CFI NoFunction
        THUMB
??setgame??rT:
        BX       PC
        Nop      
        CFI EndBlock cfiBlock58
        REQUIRE setgame

        RSEG CODE:CODE:NOROOT(2)
        CFI Block cfiBlock59 Using cfiCommon1
        CFI Function setgame
        ARM
// __??Code32?? __code __interwork __atpcs void setgame(int)
setgame:
        LDR      R1,??DataTable39  ;; lang
        PUSH     {R4-R7}
        CFI R7 Frame(CFA, -4)
        CFI R6 Frame(CFA, -8)
        CFI R5 Frame(CFA, -12)
        CFI R4 Frame(CFA, -16)
        CFI CFA R13+16
        LDR      R7,[R1, #+596]
        MOV      R2,#+12
        MOV      R3,#+17
        MOV      R12,#+10
        MOV      R5,#+412
        MOV      R6,#+448
        MOV      R4,#+0
        CMP      R7,#+0
        BEQ      ??setgame_0
        SUBS     R7,R7,#+1
        BNE      ??setgame_1
        CMP      R0,#+0
        LDRNE    R0,[R1, #+592]
        STRNE    R0,[R6, +R1]
        LDR      R6,[R1, #+588]
        STRNE    R0,[R5, +R1]
        MOV      R0,#+444
        MOV      R5,#+408
        CMP      R6,#+0
        BEQ      ??setgame_2
        SUBS     R6,R6,#+1
        BEQ      ??setgame_3
        SUBS     R6,R6,#+1
        BEQ      ??setgame_4
        B        ??setgame_1
??setgame_2:
        MOV      R6,#+140
        STR      R6,[R1, #+648]
        STR      R2,[R5, +R1]
        STR      R12,[R0, +R1]
        B        ??setgame_1
??setgame_3:
        MOV      R6,#+110
        STR      R6,[R1, #+648]
        MOV      R6,#+11
        STR      R6,[R5, +R1]
        STR      R6,[R0, +R1]
        B        ??setgame_1
??setgame_4:
        MOV      R6,#+90
        STR      R6,[R1, #+648]
        STR      R12,[R5, +R1]
        STR      R3,[R0, +R1]
        B        ??setgame_1
??setgame_0:
        MOV      R7,#+120
        STR      R7,[R1, #+648]
        CMP      R0,#+0
        STRNE    R4,[R6, +R1]
        STRNE    R4,[R5, +R1]
??setgame_1:
        LDR      R0,[R1, #+404]
        MOV      R5,#+400
        LDR      R7,[R5, +R1]
        RSB      R0,R0,#+240
        ADD      R0,R0,R0, LSR #+31
        ASR      R0,R0,#+1
        STR      R0,[R1, #+392]
        MOV      R0,#+396
        SUB      R6,R0,#+77
        SUB      R6,R6,R7
        STR      R6,[R0, +R1]
        LDR      R6,[R1, #+368]
        MOV      R7,#+24
        RSB      R6,R6,#+240
        ADD      R6,R6,R6, LSR #+31
        ASR      R6,R6,#+1
        STR      R6,[R1, #+356]
        LDR      R6,[R1, #+440]
        STR      R4,[R1, #+420]
        RSB      R6,R6,#+240
        ADD      R6,R6,R6, LSR #+31
        ASR      R6,R6,#+1
        STR      R6,[R1, #+428]
        MOV      R6,#+432
        STR      R7,[R6, +R1]
        LDR      R7,[R1, #+568]
        CMP      R7,#+64
        LDR      R7,??setgame_5   ;; rndtable
        STREQ    R4,[R1, #+568]
        LDR      R4,[R1, #+568]
        ADD      R4,R4,#+1
        STR      R4,[R1, #+568]
        ADD      R4,R7,R4, LSL #+2
        LDR      R4,[R4, #-20]
        LDR      R7,[R1, #+600]
        STR      R4,[R1, #+384]
        MOV      R4,#+388
        CMP      R7,#+0
        BEQ      ??setgame_6
        SUBS     R7,R7,#+1
        BEQ      ??setgame_7
        SUBS     R7,R7,#+1
        BEQ      ??setgame_8
        SUBS     R7,R7,#+1
        STREQ    R3,[R4, +R1]
        B        ??setgame_9
??setgame_6:
        STR      R12,[R4, +R1]
        B        ??setgame_9
??setgame_7:
        STR      R2,[R4, +R1]
        B        ??setgame_9
??setgame_8:
        MOV      R2,#+14
        B        ??setgame_7
??setgame_9:
        LDR      R3,[R1, #+604]
        MOV      R2,#+360
        CMP      R3,#+0
        BEQ      ??setgame_10
        SUBS     R3,R3,#+1
        BNE      ??setgame_11
        LDR      R3,[R4, +R1]
        LDR      R0,[R0, +R1]
        RSB      R3,R3,#+0
        STR      R3,[R4, +R1]
        LDR      R3,[R5, +R1]
        SUB      R0,R0,R3
        B        ??setgame_12
??setgame_10:
        LDR      R0,[R6, +R1]
        LDR      R3,[R1, #+436]
        ADD      R0,R3,R0
??setgame_12:
        STR      R0,[R2, +R1]
??setgame_11:
        MOV      R0,#+5
        STRB     R0,[R1, #+660]
        POP      {R4-R7}
        CFI R4 SameValue
        CFI R5 SameValue
        CFI R6 SameValue
        CFI R7 SameValue
        CFI CFA R13+0
        BX       LR               ;; return
        DATA
??setgame_5:
        DC32     rndtable
        CFI EndBlock cfiBlock59

        RSEG CODE:CODE:NOROOT(2)
        DATA
??DataTable39:
        DC32     lang

        RSEG CODE:CODE:NOROOT(2)
        CFI Block cfiBlock60 Using cfiCommon0
        CFI NoFunction
        THUMB
??setpause??rT:
        BX       PC
        Nop      
        CFI EndBlock cfiBlock60
        REQUIRE setpause

        RSEG CODE:CODE:NOROOT(2)
        CFI Block cfiBlock61 Using cfiCommon1
        CFI Function setpause
        ARM
// __??Code32?? __code __interwork __atpcs void setpause()
setpause:
        PUSH     {R4,R5,LR}
        CFI ?RET Frame(CFA, -4)
        CFI R5 Frame(CFA, -8)
        CFI R4 Frame(CFA, -12)
        CFI CFA R13+12
        LDR      R4,??DataTable41  ;; lang
        LDR      R0,[R4, #+572]
        CMP      R0,#+0
        BEQ      ??setpause_0
        MOV      R0,#+0
        STR      R0,[R4, #+572]
        SWI      +319
        MOV      R5,#+664
        ADD      R0,R5,R4
        SWI      +422
        CMP      R0,#+0
        BEQ      ??setpause_1
        ADD      R0,R5,R4
        SWI      +324
??setpause_1:
        LDR      R0,[R4, #+616]
        SWI      +551
        LDR      R0,[R4, #+200]
        BL       outtextxy
        POP      {R4,R5,PC}
??setpause_0:
        MOV      R0,#+5
        STRB     R0,[R4, #+660]
        MOV      R0,#+1
        STR      R0,[R4, #+572]
        LDR      R0,[R4, #+612]
        CMP      R0,#+0
        BEQ      ??setpause_2
        LDR      R0,[R4, #+616]
        SWI      +552
??setpause_2:
        SWI      +319
        POP      {R4,R5,PC}       ;; return
        CFI EndBlock cfiBlock61

        RSEG CODE:CODE:NOROOT(2)
        CFI Block cfiBlock62 Using cfiCommon0
        CFI NoFunction
        THUMB
??stop??rT:
        BX       PC
        Nop      
        CFI EndBlock cfiBlock62
        REQUIRE stop

        RSEG CODE:CODE:NOROOT(2)
        CFI Block cfiBlock63 Using cfiCommon1
        CFI Function stop
        ARM
// __??Code32?? __code __interwork __atpcs void stop(int)
stop:
        PUSH     {R4-R6,LR}
        CFI ?RET Frame(CFA, -4)
        CFI R6 Frame(CFA, -8)
        CFI R5 Frame(CFA, -12)
        CFI R4 Frame(CFA, -16)
        CFI CFA R13+16
        LDR      R5,??DataTable41  ;; lang
        MOV      R4,R0
        LDR      R0,[R5, #+572]
        CMP      R0,#+0
        BEQ      ??stop_0
        MOV      R0,#+0
        STR      R0,[R5, #+572]
        SWI      +319
        MOV      R6,#+664
        ADD      R0,R6,R5
        SWI      +422
        CMP      R0,#+0
        BEQ      ??stop_0
        ADD      R0,R6,R5
        SWI      +396
??stop_0:
        SUBS     R4,R4,#+1
        BEQ      ??stop_1
        SUBS     R4,R4,#+1
        BEQ      ??stop_2
        POP      {R4-R6,PC}
??stop_1:
        LDR      R0,[R5, #+204]
        BL       outtextxy
        POP      {R4-R6,PC}
??stop_2:
        LDR      R0,[R5, #+208]
        BL       outtextxy
        POP      {R4-R6,PC}       ;; return
        CFI EndBlock cfiBlock63

        RSEG CODE:CODE:NOROOT(2)
        DATA
??DataTable41:
        DC32     lang

        RSEG CODE:CODE:NOROOT(2)
        CFI Block cfiBlock64 Using cfiCommon0
        CFI NoFunction
        THUMB
??lgpInitLangPack??rT:
        BX       PC
        Nop      
        CFI EndBlock cfiBlock64
        REQUIRE lgpInitLangPack
//   18 #include "lang.c"

        RSEG CODE:CODE:NOROOT(2)
        CFI Block cfiBlock65 Using cfiCommon1
        CFI Function lgpInitLangPack
        ARM
// __??Code32?? __code __interwork __atpcs void lgpInitLangPack()
lgpInitLangPack:
        PUSH     {R4-R6,LR}
        CFI ?RET Frame(CFA, -4)
        CFI R6 Frame(CFA, -8)
        CFI R5 Frame(CFA, -12)
        CFI R4 Frame(CFA, -16)
        CFI CFA R13+16
        LDR      R4,??DataTable42  ;; lang
        LDR      R5,??lgpInitLangPack_0  ;; `?<Constant "\\314\\345\\344\\353\\345\\355\\355\\356 >`
        LDR      R1,[R4, #+632]
        LDR      R0,[R4, #+0]
        CMP      R1,#+1
        BNE      ??lgpInitLangPack_1
        ADD      R1,R5,#+700
        SWI      +26
        LDR      R0,[R4, #+4]
        ADD      R1,R5,#+712
        SWI      +26
        LDR      R0,[R4, #+8]
        ADD      R1,R5,#+720
        SWI      +26
        LDR      R0,[R4, #+12]
        ADD      R1,R5,#+732
        SWI      +26
        LDR      R0,[R4, #+16]
        ADD      R1,R5,#+748
        SWI      +26
        LDR      R0,[R4, #+20]
        ADD      R1,R5,#+756
        SWI      +26
        LDR      R0,[R4, #+24]
        ADD      R1,R5,#+764
        SWI      +26
        LDR      R0,[R4, #+28]
        ADD      R1,R5,#+772
        SWI      +26
        LDR      R0,[R4, #+32]
        ADD      R1,R5,#+784
        SWI      +26
        LDR      R0,[R4, #+36]
        ADD      R1,R5,#+796
        SWI      +26
        LDR      R0,[R4, #+40]
        ADD      R1,R5,#+808
        SWI      +26
        LDR      R0,[R4, #+44]
        ADD      R1,R5,#+820
        SWI      +26
        LDR      R0,[R4, #+48]
        ADD      R1,R5,#+828
        SWI      +26
        LDR      R0,[R4, #+52]
        ADD      R1,R5,#+848
        SWI      +26
        LDR      R0,[R4, #+56]
        ADD      R1,R5,#+856
        SWI      +26
        LDR      R0,[R4, #+60]
        ADD      R1,R5,#+864
        SWI      +26
        LDR      R0,[R4, #+64]
        ADD      R1,R5,#+876
        SWI      +26
        LDR      R0,[R4, #+68]
        MOV      R6,#+884
        ADD      R1,R6,R5
        SWI      +26
        LDR      R0,[R4, #+72]
        ADD      R1,R5,#+896
        SWI      +26
        LDR      R0,[R4, #+76]
        ADD      R1,R5,#+904
        SWI      +26
        LDR      R0,[R4, #+80]
        ADD      R1,R5,#+912
        SWI      +26
        LDR      R0,[R4, #+84]
        ADD      R1,R6,R5
        SWI      +26
        LDR      R0,[R4, #+88]
        ADD      R1,R5,#+920
        SWI      +26
        LDR      R0,[R4, #+92]
        ADD      R1,R5,#+932
        SWI      +26
        LDR      R0,[R4, #+96]
        ADD      R1,R5,#+944
        SWI      +26
        LDR      R0,[R4, #+100]
        ADD      R1,R5,#+952
        SWI      +26
        LDR      R0,[R4, #+104]
        ADD      R1,R5,#+976
        SWI      +26
        LDR      R0,[R4, #+108]
        ADD      R1,R5,#+984
        SWI      +26
        LDR      R0,[R4, #+112]
        ADD      R1,R5,#+996
        SWI      +26
        LDR      R0,[R4, #+116]
        ADD      R1,R5,#+1008
        SWI      +26
        LDR      R0,[R4, #+120]
        ADD      R1,R5,#+1016
        SWI      +26
        LDR      R0,[R4, #+124]
        ADD      R1,R5,#+272
        SWI      +26
        LDR      R0,[R4, #+128]
        ADD      R1,R5,#+1040
        SWI      +26
        ADD      R0,R6,#+164
        ADD      R1,R0,R5
        LDR      R0,[R4, #+132]
        SWI      +26
        LDR      R0,[R4, #+136]
        ADD      R1,R5,#+1056
        SWI      +26
        ADD      R0,R6,#+184
        ADD      R1,R0,R5
        LDR      R0,[R4, #+140]
        SWI      +26
        ADD      R0,R6,#+192
        ADD      R1,R0,R5
        LDR      R0,[R4, #+144]
        SWI      +26
        LDR      R0,[R4, #+148]
        ADD      R1,R5,#+1088
        SWI      +26
        ADD      R0,R6,#+216
        ADD      R1,R0,R5
        LDR      R0,[R4, #+152]
        SWI      +26
        ADD      R0,R6,#+228
        ADD      R1,R0,R5
        LDR      R0,[R4, #+156]
        SWI      +26
        ADD      R0,R6,#+240
        ADD      R1,R0,R5
        LDR      R0,[R4, #+160]
        SWI      +26
        LDR      R0,[R4, #+164]
        ADD      R1,R5,#+1136
        SWI      +26
        ADD      R0,R6,#+264
        ADD      R1,R0,R5
        LDR      R0,[R4, #+168]
        SWI      +26
        ADD      R0,R6,#+272
        ADD      R1,R0,R5
        LDR      R0,[R4, #+172]
        SWI      +26
        LDR      R0,[R4, #+176]
        ADD      R1,R5,#+1168
        SWI      +26
        ADD      R0,R6,#+308
        ADD      R1,R0,R5
        LDR      R0,[R4, #+180]
        SWI      +26
        ADD      R0,R6,#+324
        ADD      R1,R0,R5
        LDR      R0,[R4, #+184]
        SWI      +26
        ADD      R0,R6,#+372
        ADD      R1,R0,R5
        LDR      R0,[R4, #+188]
        SWI      +26
        LDR      R0,[R4, #+192]
        ADD      R1,R5,#+1264
        SWI      +26
        ADD      R0,R6,#+392
        ADD      R1,R0,R5
        LDR      R0,[R4, #+196]
        SWI      +26
        ADD      R0,R6,#+404
        ADD      R1,R0,R5
        LDR      R0,[R4, #+200]
        SWI      +26
        LDR      R0,[R4, #+204]
        ADD      R1,R5,#+1296
        SWI      +26
        ADD      R0,R6,#+424
        ADD      R1,R0,R5
        LDR      R0,[R4, #+208]
        SWI      +26
        ADD      R0,R6,#+436
        ADD      R1,R0,R5
        LDR      R0,[R4, #+212]
        SWI      +26
        ADD      R0,R6,#+484
        ADD      R1,R0,R5
        LDR      R0,[R4, #+216]
        SWI      +26
        ADD      R0,R6,#+532
        ADD      R1,R0,R5
        LDR      R0,[R4, #+220]
        SWI      +26
        ADD      R0,R6,#+564
        ADD      R1,R0,R5
        LDR      R0,[R4, #+224]
        SWI      +26
        ADD      R0,R6,#+616
        ADD      R1,R0,R5
        LDR      R0,[R4, #+228]
        SWI      +26
        LDR      R0,[R4, #+232]
        ADD      R1,R5,#+1536
        SWI      +26
        POP      {R4-R6,PC}
??lgpInitLangPack_1:
        MOV      R1,#+56
        ORR      R1,R1,#0x600
        ADD      R1,R1,R5
        SWI      +26
        MOV      R0,#+68
        ORR      R0,R0,#0x600
        ADD      R1,R0,R5
        LDR      R0,[R4, #+4]
        MOV      R6,#+252
        SWI      +26
        LDR      R0,[R4, #+8]
        ADD      R1,R5,#+1616
        SWI      +26
        LDR      R0,[R4, #+12]
        ADD      R1,R5,#+1632
        SWI      +26
        LDR      R0,[R4, #+16]
        ADD      R1,R5,#+1648
        SWI      +26
        MOV      R0,#+124
        ORR      R0,R0,#0x600
        ADD      R1,R0,R5
        LDR      R0,[R4, #+20]
        ORR      R6,R6,#0x600
        SWI      +26
        MOV      R0,#+136
        ORR      R0,R0,#0x600
        ADD      R1,R0,R5
        LDR      R0,[R4, #+24]
        SWI      +26
        LDR      R0,[R4, #+28]
        ADD      R1,R5,#+1680
        SWI      +26
        MOV      R0,#+156
        ORR      R0,R0,#0x600
        ADD      R1,R0,R5
        LDR      R0,[R4, #+32]
        SWI      +26
        MOV      R0,#+164
        ORR      R0,R0,#0x600
        ADD      R1,R0,R5
        LDR      R0,[R4, #+36]
        SWI      +26
        MOV      R0,#+180
        ORR      R0,R0,#0x600
        ADD      R1,R0,R5
        LDR      R0,[R4, #+40]
        SWI      +26
        LDR      R0,[R4, #+44]
        ADD      R1,R5,#+1728
        SWI      +26
        MOV      R0,#+200
        ORR      R0,R0,#0x600
        ADD      R1,R0,R5
        LDR      R0,[R4, #+48]
        SWI      +26
        MOV      R0,#+216
        ORR      R0,R0,#0x600
        ADD      R1,R0,R5
        LDR      R0,[R4, #+52]
        SWI      +26
        LDR      R0,[R4, #+56]
        ADD      R1,R5,#+1760
        SWI      +26
        MOV      R0,#+232
        ORR      R0,R0,#0x600
        ADD      R1,R0,R5
        LDR      R0,[R4, #+60]
        SWI      +26
        MOV      R0,#+244
        ORR      R0,R0,#0x600
        ADD      R1,R0,R5
        LDR      R0,[R4, #+64]
        SWI      +26
        LDR      R0,[R4, #+68]
        ADD      R1,R6,R5
        SWI      +26
        ADD      R0,R6,#+12
        ADD      R1,R0,R5
        LDR      R0,[R4, #+72]
        SWI      +26
        ADD      R0,R6,#+24
        ADD      R1,R0,R5
        LDR      R0,[R4, #+76]
        SWI      +26
        LDR      R0,[R4, #+80]
        MOV      R1,R5
        SWI      +26
        LDR      R0,[R4, #+84]
        ADD      R1,R6,R5
        SWI      +26
        LDR      R0,[R4, #+88]
        ADD      R1,R5,#+12
        SWI      +26
        LDR      R0,[R4, #+92]
        ADD      R1,R5,#+24
        SWI      +26
        LDR      R0,[R4, #+96]
        ADD      R1,R5,#+40
        SWI      +26
        LDR      R0,[R4, #+100]
        ADD      R1,R5,#+48
        SWI      +26
        LDR      R0,[R4, #+104]
        ADD      R1,R5,#+72
        SWI      +26
        LDR      R0,[R4, #+108]
        ADD      R1,R5,#+80
        SWI      +26
        LDR      R0,[R4, #+112]
        ADD      R1,R5,#+92
        SWI      +26
        LDR      R0,[R4, #+116]
        ADD      R1,R5,#+104
        SWI      +26
        LDR      R0,[R4, #+120]
        ADD      R1,R5,#+112
        SWI      +26
        LDR      R0,[R4, #+124]
        ADD      R1,R5,#+120
        SWI      +26
        LDR      R0,[R4, #+128]
        ADD      R1,R5,#+132
        SWI      +26
        LDR      R0,[R4, #+132]
        ADD      R1,R5,#+144
        SWI      +26
        ADD      R1,R5,#+156
        LDR      R0,[R4, #+136]
        SWI      +26
        LDR      R0,[R4, #+140]
        ADD      R1,R5,#+168
        SWI      +26
        LDR      R0,[R4, #+144]
        ADD      R1,R5,#+176
        SWI      +26
        LDR      R0,[R4, #+148]
        ADD      R1,R5,#+188
        SWI      +26
        LDR      R0,[R4, #+152]
        ADD      R1,R5,#+196
        SWI      +26
        LDR      R0,[R4, #+156]
        ADD      R1,R5,#+208
        SWI      +26
        LDR      R0,[R4, #+160]
        ADD      R1,R5,#+220
        SWI      +26
        LDR      R0,[R4, #+164]
        ADD      R1,R5,#+232
        SWI      +26
        LDR      R0,[R4, #+168]
        ADD      R1,R5,#+248
        SWI      +26
        LDR      R0,[R4, #+172]
        ADD      R1,R5,#+260
        SWI      +26
        LDR      R0,[R4, #+176]
        ADD      R1,R5,#+284
        SWI      +26
        LDR      R0,[R4, #+180]
        ADD      R1,R5,#+1024
        SWI      +26
        LDR      R0,[R4, #+184]
        ADD      R1,R5,#+312
        SWI      +26
        LDR      R0,[R4, #+188]
        ADD      R1,R5,#+360
        SWI      +26
        LDR      R0,[R4, #+192]
        ADD      R1,R5,#+372
        SWI      +26
        LDR      R0,[R4, #+196]
        ADD      R1,R5,#+380
        SWI      +26
        LDR      R0,[R4, #+200]
        ADD      R1,R5,#+392
        SWI      +26
        LDR      R0,[R4, #+204]
        ADD      R1,R5,#+400
        SWI      +26
        LDR      R0,[R4, #+208]
        ADD      R1,R5,#+412
        SWI      +26
        LDR      R0,[R4, #+212]
        ADD      R1,R5,#+436
        SWI      +26
        LDR      R0,[R4, #+216]
        ADD      R1,R5,#+488
        SWI      +26
        LDR      R0,[R4, #+220]
        ADD      R1,R5,#+540
        SWI      +26
        LDR      R0,[R4, #+224]
        ADD      R1,R5,#+564
        SWI      +26
        LDR      R0,[R4, #+228]
        ADD      R1,R5,#+620
        SWI      +26
        LDR      R0,[R4, #+232]
        ADD      R1,R5,#+644
        SWI      +26
        POP      {R4-R6,PC}       ;; return
        DATA
??lgpInitLangPack_0:
        DC32     `?<Constant "\\314\\345\\344\\353\\345\\355\\355\\356 >`
        CFI EndBlock cfiBlock65

        RSEG CODE:CODE:NOROOT(2)
        DATA
??DataTable42:
        DC32     lang

        RSEG CODE:CODE:NOROOT(2)
        CFI Block cfiBlock66 Using cfiCommon0
        CFI NoFunction
        THUMB
??left_but??rT:
        BX       PC
        Nop      
        CFI EndBlock cfiBlock66
        REQUIRE left_but
//   19 #include "keys.c"

        RSEG CODE:CODE:NOROOT(2)
        CFI Block cfiBlock67 Using cfiCommon1
        CFI Function left_but
        ARM
// __??Code32?? __code __interwork __atpcs void left_but()
left_but:
        LDR      R0,??DataTable57  ;; lang
        PUSH     {R4,R5,LR}
        CFI ?RET Frame(CFA, -4)
        CFI R5 Frame(CFA, -8)
        CFI R4 Frame(CFA, -12)
        CFI CFA R13+12
        LDR      R1,[R0, #+596]
        LDR      R2,[R0, #+580]
        LDRB     R5,[R0, #+660]
        MOV      R3,#+2
        MOV      R12,#+0
        MOV      R4,#+1
        SUBS     R5,R5,#+1
        BEQ      ??left_but_0
        SUBS     R5,R5,#+2
        BEQ      ??left_but_1
        SUBS     R5,R5,#+1
        BEQ      ??left_but_2
        SUBS     R5,R5,#+1
        POPNE    {R4,R5,PC}
        LDR      R2,[R0, #+392]
        MOV      R1,#+420
        CMP      R2,#+1
        STRNE    R4,[R1, +R0]
        POPNE    {R4,R5,PC}
        STR      R12,[R1, +R0]
        POP      {R4,R5,PC}
??left_but_0:
        CMP      R2,#+52
        BNE      ??left_but_3
        LDR      R1,[R0, #+628]
        CMP      R1,#+3
        STREQ    R3,[R0, #+628]
        BEQ      ??left_but_4
        CMP      R1,#+4
        BNE      ??left_but_4
        MOV      R1,#+3
        STR      R1,[R0, #+628]
        B        ??left_but_5
??left_but_3:
        CMP      R2,#+92
        BNE      ??left_but_6
        LDR      R1,[R0, #+620]
        CMP      R1,#+1
        BNE      ??left_but_4
        STR      R3,[R0, #+620]
??left_but_5:
        SWI      +319
        POP      {R4,R5,PC}
??left_but_6:
        CMP      R2,#+132
        BNE      ??left_but_4
        CMP      R1,#+1
        STREQ    R12,[R0, #+596]
        STR      R12,[R0, #+592]
        STR      R4,[R0, #+628]
??left_but_4:
        SWI      +319
        POP      {R4,R5,PC}
??left_but_1:
        LDR      R5,[R0, #+592]
        CMP      R2,#+92
        BNE      ??left_but_7
        LDR      R2,[R0, #+588]
        SUBS     R2,R2,#+1
        BEQ      ??left_but_8
        SUBS     R2,R2,#+1
        STREQ    R4,[R0, #+588]
        B        ??left_but_9
??left_but_8:
        STR      R12,[R0, #+588]
        B        ??left_but_9
??left_but_7:
        CMP      R2,#+172
        BNE      ??left_but_10
        LDR      R2,[R0, #+600]
        SUBS     R2,R2,#+1
        BEQ      ??left_but_11
        SUBS     R2,R2,#+1
        BEQ      ??left_but_12
        SUBS     R2,R2,#+1
        STREQ    R3,[R0, #+600]
        B        ??left_but_9
??left_but_11:
        STR      R12,[R0, #+600]
        B        ??left_but_9
??left_but_12:
        STR      R4,[R0, #+600]
        B        ??left_but_9
??left_but_10:
        CMP      R2,#+252
        BNE      ??left_but_9
        CMP      R1,#+1
        SUBEQ    R5,R5,#+1
        CMP      R5,#+1
        MOVLT    R5,#+99
??left_but_9:
        STR      R5,[R0, #+592]
        STR      R4,[R0, #+628]
        CMP      R1,#+0
        BNE      ??left_but_4
        MOV      R0,#+1
        BL       savedata
        B        ??left_but_5
??left_but_2:
        CMP      R2,#+92
        BNE      ??left_but_13
        LDR      R1,[R0, #+612]
        CMP      R1,#+1
        STREQ    R12,[R0, #+612]
        BEQ      ??left_but_4
        CMP      R1,#+2
        BNE      ??left_but_4
        STR      R4,[R0, #+612]
        B        ??left_but_5
??left_but_13:
        CMP      R2,#+172
        BNE      ??left_but_14
        LDR      R1,[R0, #+608]
        SUBS     R1,R1,#+1
        STR      R1,[R0, #+608]
        BPL      ??left_but_4
        MOV      R1,#+6
        STR      R1,[R0, #+608]
        B        ??left_but_5
??left_but_14:
        CMP      R2,#+252
        LDREQ    R1,[R0, #+636]
        CMPEQ    R1,#+1
        BNE      ??left_but_4
        STR      R12,[R0, #+636]
        B        ??left_but_5
        CFI EndBlock cfiBlock67

        RSEG CODE:CODE:NOROOT(2)
        CFI Block cfiBlock68 Using cfiCommon0
        CFI NoFunction
        THUMB
??right_but??rT:
        BX       PC
        Nop      
        CFI EndBlock cfiBlock68
        REQUIRE right_but

        RSEG CODE:CODE:NOROOT(2)
        CFI Block cfiBlock69 Using cfiCommon1
        CFI Function right_but
        ARM
// __??Code32?? __code __interwork __atpcs void right_but()
right_but:
        PUSH     {R4,R5,LR}
        CFI ?RET Frame(CFA, -4)
        CFI R5 Frame(CFA, -8)
        CFI R4 Frame(CFA, -12)
        CFI CFA R13+12
        LDR      R4,??DataTable57  ;; lang
        MOV      R3,#+3
        LDR      R1,[R4, #+596]
        LDRB     LR,[R4, #+660]
        LDR      R2,[R4, #+580]
        MOV      R0,#+2
        MOV      R5,#+1
        MOV      R12,#+0
        SUBS     LR,LR,#+1
        BEQ      ??right_but_0
        SUBS     LR,LR,#+2
        BEQ      ??right_but_1
        SUBS     LR,LR,#+1
        BEQ      ??right_but_2
        SUBS     LR,LR,#+1
        POPNE    {R4,R5,PC}
        LDR      R2,[R4, #+392]
        LDR      R3,[R4, #+404]
        MOV      R1,#+420
        RSB      R3,R3,#+239
        CMP      R2,R3
        STRNE    R0,[R1, +R4]
        POPNE    {R4,R5,PC}
        STR      R12,[R1, +R4]
        POP      {R4,R5,PC}
??right_but_0:
        CMP      R2,#+52
        BNE      ??right_but_3
        LDR      R0,[R4, #+628]
        CMP      R0,#+2
        STREQ    R3,[R4, #+628]
        BEQ      ??right_but_4
        CMP      R0,#+3
        BNE      ??right_but_4
        MOV      R0,#+4
        STR      R0,[R4, #+628]
        B        ??right_but_5
??right_but_3:
        CMP      R2,#+92
        BNE      ??right_but_6
        LDR      R0,[R4, #+620]
        CMP      R0,#+2
        BNE      ??right_but_4
        STR      R5,[R4, #+620]
??right_but_5:
        SWI      +319
        POP      {R4,R5,PC}
??right_but_6:
        CMP      R2,#+132
        CMPEQ    R1,#+0
        BNE      ??right_but_4
        MOV      R0,#+1
        BL       savedata
        STR      R5,[R4, #+596]
        MOV      R0,#+7
        STR      R0,[R4, #+592]
        STR      R5,[R4, #+628]
??right_but_4:
        SWI      +319
        POP      {R4,R5,PC}
??right_but_1:
        CMP      R2,#+92
        BNE      ??right_but_7
        LDR      R2,[R4, #+588]
        CMP      R2,#+1
        STREQ    R0,[R4, #+588]
        BEQ      ??right_but_8
        CMP      R2,#+0
        BNE      ??right_but_8
        STR      R5,[R4, #+588]
        B        ??right_but_8
??right_but_7:
        CMP      R2,#+172
        BNE      ??right_but_9
        LDR      R2,[R4, #+600]
        CMP      R2,#+2
        STREQ    R3,[R4, #+600]
        BEQ      ??right_but_8
        CMP      R2,#+1
        STREQ    R0,[R4, #+600]
        BEQ      ??right_but_8
        CMP      R2,#+0
        BNE      ??right_but_8
        STR      R5,[R4, #+600]
        B        ??right_but_8
??right_but_9:
        CMP      R2,#+252
        CMPEQ    R1,#+1
        BNE      ??right_but_8
        LDR      R0,[R4, #+592]
        ADD      R0,R0,#+1
        STR      R0,[R4, #+592]
        CMP      R0,#+100
        STRGE    R5,[R4, #+592]
??right_but_8:
        STR      R5,[R4, #+628]
        CMP      R1,#+0
        BNE      ??right_but_4
        MOV      R0,#+1
        BL       savedata
        B        ??right_but_5
??right_but_2:
        CMP      R2,#+92
        BNE      ??right_but_10
        LDR      R1,[R4, #+612]
        CMP      R1,#+1
        STREQ    R0,[R4, #+612]
        BEQ      ??right_but_4
        CMP      R1,#+0
        BNE      ??right_but_4
        STR      R5,[R4, #+612]
        B        ??right_but_5
??right_but_10:
        CMP      R2,#+172
        BNE      ??right_but_11
        LDR      R0,[R4, #+608]
        ADD      R0,R0,#+1
        STR      R0,[R4, #+608]
        CMP      R0,#+7
        BLT      ??right_but_4
        STR      R12,[R4, #+608]
        B        ??right_but_5
??right_but_11:
        CMP      R2,#+252
        LDREQ    R0,[R4, #+636]
        CMPEQ    R0,#+0
        BNE      ??right_but_4
        STR      R5,[R4, #+636]
        B        ??right_but_5
        CFI EndBlock cfiBlock69

        RSEG CODE:CODE:NOROOT(2)
        CFI Block cfiBlock70 Using cfiCommon0
        CFI NoFunction
        THUMB
??up_but??rT:
        BX       PC
        Nop      
        CFI EndBlock cfiBlock70
        REQUIRE up_but

        RSEG CODE:CODE:NOROOT(2)
        CFI Block cfiBlock71 Using cfiCommon1
        CFI Function up_but
        ARM
// __??Code32?? __code __interwork __atpcs void up_but()
up_but:
        LDR      R0,??DataTable57  ;; lang
        PUSH     {LR}
        CFI ?RET Frame(CFA, -4)
        CFI CFA R13+4
        LDRB     R3,[R0, #+660]
        LDR      R1,[R0, #+580]
        MOV      R2,#+252
        SUB      R1,R1,#+40
        CMP      R3,#+4
        POPHI    {PC}
        ADR      R12,??up_but_0
        LDRB     R12,[R12, R3]
        ADD      PC,PC,R12, LSL #+2
        DATA
??up_but_0:
        DC8      +1,+17,+22,+29
        DC8      +44,+0,+0,+0
        ARM
??up_but_1:
        LDR      R2,[R0, #+652]
        CMP      R2,#+0
        POPEQ    {PC}
        STR      R1,[R0, #+580]
        CMP      R1,#+112
        MOVLT    R1,#+152
        STRLT    R1,[R0, #+580]
        BLT      ??up_but_2
        MOVEQ    R1,#+0
        BEQ      ??up_but_3
        CMP      R1,#+152
        BNE      ??up_but_4
??up_but_2:
        MOV      R1,#+1
??up_but_3:
        STR      R1,[R0, #+632]
??up_but_4:
        BL       load_lang
??up_but_5:
        POP      {PC}             ;; return
??up_but_6:
        STR      R1,[R0, #+580]
        CMP      R1,#+52
        STRLT    R2,[R0, #+580]
??up_but_7:
        SWI      +319
        POP      {PC}
??up_but_8:
        STR      R1,[R0, #+580]
        CMP      R1,#+52
        BGE      ??up_but_7
        MOV      R1,#+92
        STR      R1,[R0, #+580]
        SWI      +319
        POP      {PC}
??up_but_9:
        STR      R1,[R0, #+580]
        CMP      R1,#+92
        STRLT    R2,[R0, #+580]
        MOV      R1,#+0
??up_but_10:
        MOV      R3,#+40
        MUL      R2,R3,R1
        LDR      R3,[R0, #+580]
        ADD      R12,R2,#+52
        CMP      R3,R12
        ADDEQ    R2,R2,#+12
        STREQ    R2,[R0, #+580]
        ADD      R1,R1,#+2
        CMP      R1,#+5
        BGE      ??up_but_7
        B        ??up_but_10
??up_but_11:
        STR      R1,[R0, #+580]
        CMP      R1,#+92
        STRLT    R2,[R0, #+580]
        MOV      R1,#+0
??up_but_12:
        MOV      R3,#+40
        MUL      R2,R3,R1
        LDR      R3,[R0, #+580]
        ADD      R12,R2,#+52
        CMP      R3,R12
        ADDEQ    R2,R2,#+12
        STREQ    R2,[R0, #+580]
        ADD      R1,R1,#+2
        CMP      R1,#+5
        BGE      ??up_but_7
        B        ??up_but_12
        CFI EndBlock cfiBlock71

        RSEG CODE:CODE:NOROOT(2)
        CFI Block cfiBlock72 Using cfiCommon0
        CFI NoFunction
        THUMB
??down_but??rT:
        BX       PC
        Nop      
        CFI EndBlock cfiBlock72
        REQUIRE down_but

        RSEG CODE:CODE:NOROOT(2)
        CFI Block cfiBlock73 Using cfiCommon1
        CFI Function down_but
        ARM
// __??Code32?? __code __interwork __atpcs void down_but()
down_but:
        LDR      R0,??DataTable57  ;; lang
        PUSH     {LR}
        CFI ?RET Frame(CFA, -4)
        CFI CFA R13+4
        LDRB     R3,[R0, #+660]
        LDR      R1,[R0, #+580]
        MOV      R2,#+52
        ADD      R1,R1,#+40
        CMP      R3,#+4
        POPHI    {PC}
        ADR      R12,??down_but_0
        LDRB     R12,[R12, R3]
        ADD      PC,PC,R12, LSL #+2
        DATA
??down_but_0:
        DC8      +1,+19,+24,+27
        DC8      +42,+0,+0,+0
        ARM
??down_but_1:
        LDR      R2,[R0, #+652]
        CMP      R2,#+1
        POPNE    {PC}
        STR      R1,[R0, #+580]
        CMP      R1,#+153
        MOVGE    R1,#+112
        STRGE    R1,[R0, #+580]
        BGE      ??down_but_2
        CMP      R1,#+112
        BNE      ??down_but_3
??down_but_2:
        MOV      R1,#+0
        B        ??down_but_4
??down_but_3:
        CMP      R1,#+152
        BNE      ??down_but_5
        MOV      R1,#+1
??down_but_4:
        STR      R1,[R0, #+632]
??down_but_5:
        BL       load_lang
??down_but_6:
        POP      {PC}             ;; return
??down_but_7:
        STR      R1,[R0, #+580]
        CMP      R1,#+253
??down_but_8:
        STRGE    R2,[R0, #+580]
??down_but_9:
        SWI      +319
        POP      {PC}
??down_but_10:
        STR      R1,[R0, #+580]
        CMP      R1,#+93
        B        ??down_but_8
??down_but_11:
        STR      R1,[R0, #+580]
        CMP      R1,#+253
        STRGE    R2,[R0, #+580]
        MOV      R1,#+0
??down_but_12:
        MOV      R3,#+40
        MUL      R2,R3,R1
        LDR      R3,[R0, #+580]
        ADD      R12,R2,#+52
        CMP      R3,R12
        ADDEQ    R2,R2,#+92
        STREQ    R2,[R0, #+580]
        ADD      R1,R1,#+2
        CMP      R1,#+5
        BGE      ??down_but_9
        B        ??down_but_12
??down_but_13:
        STR      R1,[R0, #+580]
        CMP      R1,#+253
        STRGE    R2,[R0, #+580]
        MOV      R1,#+0
??down_but_14:
        MOV      R3,#+40
        MUL      R2,R3,R1
        LDR      R3,[R0, #+580]
        ADD      R12,R2,#+52
        CMP      R3,R12
        ADDEQ    R2,R2,#+92
        STREQ    R2,[R0, #+580]
        ADD      R1,R1,#+2
        CMP      R1,#+5
        BGE      ??down_but_9
        B        ??down_but_14
        CFI EndBlock cfiBlock73

        RSEG CODE:CODE:NOROOT(2)
        CFI Block cfiBlock74 Using cfiCommon0
        CFI NoFunction
        THUMB
??enter_but??rT:
        BX       PC
        Nop      
        CFI EndBlock cfiBlock74
        REQUIRE enter_but

        RSEG CODE:CODE:NOROOT(2)
        CFI Block cfiBlock75 Using cfiCommon1
        CFI Function enter_but
        ARM
// __??Code32?? __code __interwork __atpcs void enter_but()
enter_but:
        PUSH     {R4,R5,LR}
        CFI ?RET Frame(CFA, -4)
        CFI R5 Frame(CFA, -8)
        CFI R4 Frame(CFA, -12)
        CFI CFA R13+12
        LDR      R4,??DataTable57  ;; lang
        MOV      R5,#+52
        LDRB     R1,[R4, #+660]
        LDR      R0,[R4, #+580]
        CMP      R1,#+0
        BEQ      ??enter_but_0
        SUBS     R1,R1,#+1
        BEQ      ??enter_but_1
        SUBS     R1,R1,#+1
        BEQ      ??enter_but_2
        POP      {R4,R5,PC}
??enter_but_0:
        LDR      R0,[R4, #+652]
        CMP      R0,#+1
        POPNE    {R4,R5,PC}
        STR      R5,[R4, #+580]
        BL       lgpInitLangPack
        MOV      R0,#+2
        BL       savedata
        MOV      R0,#+0
        STR      R0,[R4, #+652]
        BL       T_Load_IMG
        POP      {R4,R5,PC}       ;; return
??enter_but_1:
        CMP      R0,#+52
        BNE      ??enter_but_3
        BL       startcont
??enter_but_3:
        LDR      R0,[R4, #+580]
        CMP      R0,#+252
        MOVEQ    R0,#+1
        STREQ    R0,[R4, #+640]
        BEQ      ??enter_but_4
        CMP      R0,#+92
        BNE      ??enter_but_5
        LDR      R0,[R4, #+620]
        CMP      R0,#+1
        BNE      ??enter_but_6
        BL       saveSettings
        B        ??enter_but_5
??enter_but_6:
        CMP      R0,#+2
        BNE      ??enter_but_4
        BL       loadSettings
??enter_but_5:
        LDR      R0,[R4, #+580]
        CMP      R0,#+172
        MOVEQ    R0,#+6
        BEQ      ??enter_but_7
        CMP      R0,#+212
        BNE      ??enter_but_4
        MOV      R0,#+2
??enter_but_7:
        STRB     R0,[R4, #+660]
        STR      R5,[R4, #+580]
??enter_but_4:
        SWI      +319
        POP      {R4,R5,PC}
??enter_but_2:
        CMP      R0,#+52
        BNE      ??enter_but_8
        MOV      R0,#+3
        STRB     R0,[R4, #+660]
        MOV      R0,#+92
        STR      R0,[R4, #+580]
        B        ??enter_but_9
??enter_but_8:
        CMP      R0,#+92
        BNE      ??enter_but_4
        MOV      R0,#+4
        STRB     R0,[R4, #+660]
??enter_but_9:
        SWI      +319
        POP      {R4,R5,PC}
        CFI EndBlock cfiBlock75

        RSEG CODE:CODE:NOROOT(2)
        CFI Block cfiBlock76 Using cfiCommon0
        CFI NoFunction
        THUMB
??left_soft??rT:
        BX       PC
        Nop      
        CFI EndBlock cfiBlock76
        REQUIRE left_soft

        RSEG CODE:CODE:NOROOT(2)
        CFI Block cfiBlock77 Using cfiCommon1
        CFI Function left_soft
        ARM
// __??Code32?? __code __interwork __atpcs void left_soft()
left_soft:
        PUSH     {R4,R5,LR}
        CFI ?RET Frame(CFA, -4)
        CFI R5 Frame(CFA, -8)
        CFI R4 Frame(CFA, -12)
        CFI CFA R13+12
        LDR      R4,??DataTable57  ;; lang
        LDRB     R0,[R4, #+660]
        CMP      R0,#+5
        POPNE    {R4,R5,PC}
        MOV      R0,#+0
        STR      R0,[R4, #+572]
        LDR      R0,[R4, #+616]
        MOV      R5,#+664
        SWI      +551
        ADD      R0,R5,R4
        SWI      +422
        CMP      R0,#+0
        BEQ      ??left_soft_0
        ADD      R0,R5,R4
        SWI      +324
??left_soft_0:
        MOV      R0,#+1
        STRB     R0,[R4, #+660]
        MOV      R0,#+3
        STR      R0,[R4, #+628]
        SWI      +319
        POP      {R4,R5,PC}       ;; return
        CFI EndBlock cfiBlock77

        RSEG CODE:CODE:NOROOT(2)
        CFI Block cfiBlock78 Using cfiCommon0
        CFI NoFunction
        THUMB
??right_soft??rT:
        BX       PC
        Nop      
        CFI EndBlock cfiBlock78
        REQUIRE right_soft

        RSEG CODE:CODE:NOROOT(2)
        CFI Block cfiBlock79 Using cfiCommon1
        CFI Function right_soft
        ARM
// __??Code32?? __code __interwork __atpcs void right_soft()
right_soft:
        LDR      R1,??DataTable57  ;; lang
        PUSH     {LR}
        CFI ?RET Frame(CFA, -4)
        CFI CFA R13+4
        LDRB     R2,[R1, #+660]
        MOV      R0,#+52
        SUBS     R2,R2,#+2
        BEQ      ??right_soft_0
        SUB      R2,R2,#+1
        CMP      R2,#+1
        BLS      ??right_soft_1
        SUBS     R2,R2,#+3
        POPNE    {PC}
??right_soft_0:
        MOV      R2,#+1
        B        ??right_soft_2
??right_soft_1:
        MOV      R2,#+2
??right_soft_2:
        STRB     R2,[R1, #+660]
        STR      R0,[R1, #+580]
        SWI      +319
        POP      {PC}             ;; return
        CFI EndBlock cfiBlock79

        RSEG CODE:CODE:NOROOT(2)
        CFI Block cfiBlock80 Using cfiCommon0
        CFI NoFunction
        THUMB
??green_but??rT:
        BX       PC
        Nop      
        CFI EndBlock cfiBlock80
        REQUIRE green_but

        RSEG CODE:CODE:NOROOT(2)
        CFI Block cfiBlock81 Using cfiCommon1
        CFI Function green_but
        ARM
// __??Code32?? __code __interwork __atpcs void green_but()
green_but:
        LDR      R0,??green_but_0  ;; lang + 660
        PUSH     {LR}
        CFI ?RET Frame(CFA, -4)
        CFI CFA R13+4
        LDRB     R0,[R0, #+0]
        CMP      R0,#+6
        POPNE    {PC}
        MOV      R0,#+0
        BL       savedata
        SWI      +319
        POP      {PC}             ;; return
        DATA
??green_but_0:
        DC32     lang + 660
        CFI EndBlock cfiBlock81

        RSEG CODE:CODE:NOROOT(2)
        CFI Block cfiBlock82 Using cfiCommon0
        CFI NoFunction
        THUMB
??resh_but??rT:
        BX       PC
        Nop      
        CFI EndBlock cfiBlock82
        REQUIRE resh_but

        RSEG CODE:CODE:NOROOT(2)
        CFI Block cfiBlock83 Using cfiCommon1
        CFI Function resh_but
        ARM
// __??Code32?? __code __interwork __atpcs void resh_but()
resh_but:
        PUSH     {R4,LR}
        CFI ?RET Frame(CFA, -4)
        CFI R4 Frame(CFA, -8)
        CFI CFA R13+8
        LDR      R4,??DataTable57  ;; lang
        LDRB     R0,[R4, #+660]
        CMP      R0,#+1
        POPNE    {R4,PC}
        BL       openconf
        MOV      R0,#+0
        STR      R0,[R4, #+572]
        POP      {R4,PC}          ;; return
        CFI EndBlock cfiBlock83

        RSEG CODE:CODE:NOROOT(2)
        CFI Block cfiBlock84 Using cfiCommon0
        CFI NoFunction
        THUMB
??deltimers??rT:
        BX       PC
        Nop      
        CFI EndBlock cfiBlock84
        REQUIRE deltimers
//   20 #include "other.c"

        RSEG CODE:CODE:NOROOT(2)
        CFI Block cfiBlock85 Using cfiCommon1
        CFI Function deltimers
        ARM
// __??Code32?? __code __interwork __atpcs void deltimers()
deltimers:
        PUSH     {R4,R5,LR}
        CFI ?RET Frame(CFA, -4)
        CFI R5 Frame(CFA, -8)
        CFI R4 Frame(CFA, -12)
        CFI CFA R13+12
        LDR      R5,??DataTable57  ;; lang
        MOV      R4,#+664
        ADD      R0,R4,R5
        SWI      +422
        CMP      R0,#+0
        BEQ      ??deltimers_0
        ADD      R0,R4,R5
        SWI      +396
??deltimers_0:
        MOV      R4,#+680
        ADD      R0,R4,R5
        SWI      +422
        CMP      R0,#+0
        POPEQ    {R4,R5,PC}
        ADD      R0,R4,R5
        SWI      +396
        POP      {R4,R5,PC}       ;; return
        CFI EndBlock cfiBlock85

        RSEG CODE:CODE:NOROOT(2)
        CFI Block cfiBlock86 Using cfiCommon0
        CFI NoFunction
        THUMB
??Play??rT:
        BX       PC
        Nop      
        CFI EndBlock cfiBlock86
        REQUIRE Play

        RSEG CODE:CODE:NOROOT(2)
        CFI Block cfiBlock87 Using cfiCommon1
        CFI Function Play
        ARM
// __??Code32?? __code __interwork __atpcs void Play(int)
Play:
        PUSH     {R4-R9,LR}
        CFI ?RET Frame(CFA, -4)
        CFI R9 Frame(CFA, -8)
        CFI R8 Frame(CFA, -12)
        CFI R7 Frame(CFA, -16)
        CFI R6 Frame(CFA, -20)
        CFI R5 Frame(CFA, -24)
        CFI R4 Frame(CFA, -28)
        CFI CFA R13+28
        LDR      R4,??DataTable57  ;; lang
        SUB      SP,SP,#+36
        CFI CFA R13+64
        MOV      R7,R0
        LDR      R0,[R4, #+612]
        CMP      R0,#+0
        BEQ      ??Play_0
        LDR      R9,??DataTable53  ;; `?<Constant "kick.mid">`
        MOV      R0,#+128
        SWI      +293
        MOV      R5,R0
        MOV      R0,#+128
        SWI      +293
        MOV      R6,R0
        CMP      R7,#+1
        MOVEQ    R8,#+1
        MOVEQ    R1,R9
        BEQ      ??Play_1
        CMP      R7,#+2
        BNE      ??Play_2
        MOV      R8,#+231
        ORR      R8,R8,#0x300
        ADD      R1,R9,#+12
??Play_1:
        SWI      +292
??Play_2:
        LDR      R2,??DataTable54  ;; folder
        ADD      R3,R9,#+24
        ADD      R1,R9,#+124
        MOV      R0,R5
        SWI      +292
        MOV      R1,#+36
        MOV      R0,SP
        SWI      +285
        STRH     R8,[SP, #+0]
        MOV      R0,#+0
        STR      R0,[SP, #+4]
        STR      R0,[SP, #+8]
        LDR      R1,[R4, #+608]
        MOV      R0,#+1
        STR      R1,[SP, #+12]
        STR      R0,[SP, #+20]
        STR      R0,[SP, #+24]
        MOV      R1,#+2
        STR      R1,[SP, #+32]
        SWI      +325
        MOV      R1,SP
        PUSH     {R1}
        CFI CFA R13+68
        MOV      R3,R0
        MOV      R2,R6
        MOV      R0,#+16
        MOV      R1,#+188
        ORR      R1,R1,#0x7000
        PUSH     {R1}
        CFI CFA R13+72
        MOV      R1,R5
        SWI      +74
        STR      R0,[R4, #+616]
        MOV      R0,R5
        SWI      +297
        MOV      R0,R6
        SWI      +297
        ADD      SP,SP,#+8
        CFI CFA R13+64
??Play_0:
        ADD      SP,SP,#+36       ;; stack cleaning
        CFI CFA R13+28
        POP      {R4-R9,PC}       ;; return
        CFI EndBlock cfiBlock87

        RSEG CODE:CODE:NOROOT(2)
        DATA
??DataTable53:
        DC32     `?<Constant "kick.mid">`

        RSEG CODE:CODE:NOROOT(2)
        DATA
??DataTable54:
        DC32     folder

        RSEG CODE:CODE:NOROOT(2)
        CFI Block cfiBlock88 Using cfiCommon0
        CFI NoFunction
        THUMB
??openconf??rT:
        BX       PC
        Nop      
        CFI EndBlock cfiBlock88
        REQUIRE openconf

        RSEG CODE:CODE:NOROOT(2)
        CFI Block cfiBlock89 Using cfiCommon1
        CFI Function openconf
        ARM
// __??Code32?? __code __interwork __atpcs int openconf()
openconf:
        PUSH     {R4,R5,LR}
        CFI ?RET Frame(CFA, -4)
        CFI R5 Frame(CFA, -8)
        CFI R4 Frame(CFA, -12)
        CFI CFA R13+12
        LDR      R4,??DataTable55  ;; successed_config_filename
        LDR      R0,[R4, #+0]
        SWI      +27
        ADD      R0,R0,#+1
        SWI      +293
        LDR      R2,[R4, #+0]
        LDR      R1,??DataTable59  ;; perc_t
        MOV      R5,R0
        SWI      +292
        MOV      R2,#+0
        MOV      R1,#+0
        MOV      R0,R5
        SWI      +148
        MOV      R0,R5
        SWI      +297
        MOV      R0,#+0
        POP      {R4,R5,PC}       ;; return
        CFI EndBlock cfiBlock89

        RSEG CODE:CODE:NOROOT(2)
        DATA
??DataTable55:
        DC32     successed_config_filename

        RSEG CODE:CODE:NOROOT(2)
        CFI Block cfiBlock90 Using cfiCommon0
        CFI NoFunction
        THUMB
??startcont??rT:
        BX       PC
        Nop      
        CFI EndBlock cfiBlock90
        REQUIRE startcont

        RSEG CODE:CODE:NOROOT(2)
        CFI Block cfiBlock91 Using cfiCommon1
        CFI Function startcont
        ARM
// __??Code32?? __code __interwork __atpcs void startcont()
startcont:
        PUSH     {R4,R5,LR}
        CFI ?RET Frame(CFA, -4)
        CFI R5 Frame(CFA, -8)
        CFI R4 Frame(CFA, -12)
        CFI CFA R13+12
        LDR      R5,??DataTable57  ;; lang
        MOV      R4,#+0
        LDR      R0,[R5, #+628]
        SUB      R0,R0,#+1
        CMP      R0,#+1
        BLS      ??startcont_0
        SUBS     R0,R0,#+2
        MOVEQ    R0,#+5
        STRBEQ   R0,[R5, #+660]
        STREQ    R4,[R5, #+572]
        B        ??startcont_1
??startcont_0:
        MOV      R0,#+1
        BL       setgame
        STR      R4,[R5, #+524]
        STR      R4,[R5, #+512]
        STR      R4,[R5, #+516]
        STR      R4,[R5, #+520]
??startcont_1:
        LDR      R0,[R5, #+612]
        CMP      R0,#+2
        POPNE    {R4,R5,PC}
        BL       Play
        POP      {R4,R5,PC}       ;; return
        CFI EndBlock cfiBlock91

        RSEG CODE:CODE:NOROOT(2)
        DATA
??DataTable57:
        DC32     lang

        RSEG CODE:CODE:NOROOT(2)
        CFI Block cfiBlock92 Using cfiCommon0
        CFI NoFunction
        THUMB
??exit??rT:
        BX       PC
        Nop      
        CFI EndBlock cfiBlock92
        REQUIRE exit

        RSEG CODE:CODE:NOROOT(2)
        CFI Block cfiBlock93 Using cfiCommon1
        CFI Function exit
        ARM
// __??Code32?? __code __interwork __atpcs void exit()
exit:
        LDR      R0,??exit_0      ;; lang + 640
        MOV      R1,#+1
        STR      R1,[R0, #+0]
        BX       LR               ;; return
        DATA
??exit_0:
        DC32     lang + 640
        CFI EndBlock cfiBlock93

        RSEG CODE:CODE:NOROOT(2)
        CFI Block cfiBlock94 Using cfiCommon0
        CFI NoFunction
        THUMB
??OnRedraw??rT:
        BX       PC
        Nop      
        CFI EndBlock cfiBlock94
        REQUIRE OnRedraw
//   21 
//   22 
//   23 
//   24 

        RSEG CODE:CODE:NOROOT(2)
        CFI Block cfiBlock95 Using cfiCommon1
        CFI Function OnRedraw
        ARM
//   25 static void OnRedraw(MAIN_GUI *data)
//   26 {
OnRedraw:
        PUSH     {R4-R11,LR}
        CFI ?RET Frame(CFA, -4)
        CFI R11 Frame(CFA, -8)
        CFI R10 Frame(CFA, -12)
        CFI R9 Frame(CFA, -16)
        CFI R8 Frame(CFA, -20)
        CFI R7 Frame(CFA, -24)
        CFI R6 Frame(CFA, -28)
        CFI R5 Frame(CFA, -32)
        CFI R4 Frame(CFA, -36)
        CFI CFA R13+36
//   27 WSHDR *ws_menu = AllocWS(32);
//   28 if(status!=game)
        LDR      R5,??DataTable58  ;; lang
        MOV      R0,#+32
        SWI      +293
        MOV      R4,R0
        LDRB     R0,[R5, #+660]
        CMP      R0,#+5
        BEQ      ??OnRedraw_1
//   29 {
//   30 DrwImg(pics[4],0,0);
        LDR      R0,[R5, #+480]
        MOV      R2,#+0
        MOV      R1,#+0
        BL       DrwImg
//   31 if(status!=rec)DrwImg(pics[3],cur_x,cur_y);
        LDRB     R0,[R5, #+660]
        CMP      R0,#+6
        BEQ      ??OnRedraw_1
        LDR      R2,[R5, #+580]
        LDR      R1,[R5, #+576]
        LDR      R0,[R5, #+476]
        BL       DrwImg
//   32 }
//   33 switch(status)
??OnRedraw_1:
        LDRB     R0,[R5, #+660]
        LDR      R6,??DataTable59  ;; perc_t
        SUB      R0,R0,#+1
        CMP      R0,#+5
        BHI      ??OnRedraw_2
        ADR      R1,??OnRedraw_0
        MOV      R0,R0, LSL #+1
        LDRH     R1,[R1, R0]
        ADD      PC,PC,R1, LSL #+2
        DATA
??OnRedraw_0:
        DC16     +92,+258,+301,+480
        DC16     +2,+616
        ARM
//   34 {
//   35 case game:
//   36 {
//   37 if (running==1)
??OnRedraw_3:
        LDR      R0,[R5, #+572]
        CMP      R0,#+1
        BNE      ??OnRedraw_2
//   38 {
//   39 Time.mymsec++;
        MOV      R2,#+512
        LDR      R0,[R2, +R5]
//   40 if(Time.mymsec>=(TMR_SECOND/timer_speed)){Time.mymsec=0;Time.sec++;}
        MOV      R1,#+524
        ADD      R3,R0,#+1
        STR      R3,[R2, +R5]
        MOV      R0,#+0
        CMP      R3,#+43
        BLT      ??OnRedraw_4
        STR      R0,[R2, +R5]
        LDR      R2,[R1, +R5]
        ADD      R2,R2,#+1
        STR      R2,[R1, +R5]
//   41 if(Time.sec==60){Time.min++;Time.sec=0;}
??OnRedraw_4:
        LDR      R3,[R1, +R5]
        MOV      R2,#+520
        CMP      R3,#+60
        BNE      ??OnRedraw_5
        LDR      R3,[R2, +R5]
        STR      R0,[R1, +R5]
        ADD      R3,R3,#+1
        STR      R3,[R2, +R5]
//   42 if(Time.min==60){Time.hour++;Time.min=0;}
??OnRedraw_5:
        LDR      R3,[R2, +R5]
        MOV      R7,#+516
        CMP      R3,#+60
        BNE      ??OnRedraw_6
        LDR      R3,[R7, +R5]
        STR      R0,[R2, +R5]
        ADD      R3,R3,#+1
        STR      R3,[R7, +R5]
??OnRedraw_6:
        LDR      R3,[R1, +R5]
        LDR      R1,[R2, +R5]
        LDR      R2,[R7, +R5]
        LDR      R0,[R5, #+528]
        CMP      R2,#+1
        BLT      ??OnRedraw_7
//   43 if(Time.hour>=1)sprintf(Time.str,"%d ч %d м %d с",Time.hour,Time.min,Time.sec);
        PUSH     {R3}
        CFI CFA R13+40
        MOV      R3,R1
        ADD      R1,R6,#+4
        SWI      +22
        ADD      SP,SP,#+4
        CFI CFA R13+36
        B        ??OnRedraw_8
//   44 else if(Time.min>=1)sprintf(Time.str,"%d м %d с",Time.min,Time.sec);
??OnRedraw_7:
        CMP      R1,#+1
        BLT      ??OnRedraw_9
        MOV      R2,R1
        ADD      R1,R6,#+20
        SWI      +22
        B        ??OnRedraw_8
//   45 else sprintf(Time.str,"%d с",Time.sec);
??OnRedraw_9:
        MOV      R2,R3
        ADD      R1,R6,#+32
        SWI      +22
//   46 move_ball();
??OnRedraw_8:
        BL       move_ball
//   47 move_block();
        BL       move_block
//   48 DrwImg(pics[5],0,0);
        LDR      R0,[R5, #+484]
        MOV      R2,#+0
        MOV      R1,#+0
        BL       DrwImg
//   49 DrawLine(1,((max_height-cpu.height-user.height-cpu.y)/2)+cpu.y,max_width-1,((max_height-cpu.height-user.height-cpu.y)/2)+cpu.y,0,linecol2);
        LDR      R1,[R5, #+436]
        LDR      R2,[R5, #+400]
        MOV      R7,#+432
        LDR      R0,[R7, +R5]
        RSB      R1,R1,#+320
        SUB      R1,R1,R2
        SUB      R8,R1,R0
        ADD      R1,R8,R8, LSR #+31
        ADD      R1,R0,R1, ASR #+1
        ADD      R0,R6,#+184
        PUSH     {R0}
        CFI CFA R13+40
        MOV      R3,R1
        MOV      R2,#+239
        MOV      R0,#+0
        PUSH     {R0}
        CFI CFA R13+44
        MOV      R0,#+1
        SWI      +435
//   50 DrwImg(pics[0],user.x,user.y);
        LDR      R2,[R5, #+396]
        LDR      R1,[R5, #+392]
        LDR      R0,[R5, #+464]
        BL       DrwImg
//   51 DrwImg(pics[2],ball.x,ball.y);
        LDR      R2,[R5, #+360]
        LDR      R1,[R5, #+356]
        LDR      R0,[R5, #+472]
        BL       DrwImg
//   52 DrwImg(pics[1],cpu.x,cpu.y);
        LDR      R2,[R7, +R5]
        LDR      R1,[R5, #+428]
        LDR      R0,[R5, #+468]
        BL       DrwImg
//   53 Redraw();
        BL       Redraw
        ADD      SP,SP,#+8
        CFI CFA R13+36
        B        ??OnRedraw_10
//   54 }
//   55 
//   56 }
//   57 break;
//   58 case menu:
//   59  {
//   60 switch(game_new_cont)
??OnRedraw_11:
        LDR      R0,[R5, #+628]
        SUBS     R0,R0,#+1
        BEQ      ??OnRedraw_12
        SUBS     R0,R0,#+1
        BEQ      ??OnRedraw_13
        SUBS     R0,R0,#+1
        BEQ      ??OnRedraw_14
        B        ??OnRedraw_15
//   61 {
//   62 case 1:wsprintf(ws_menu,perc_t,lang[1]);break;
??OnRedraw_12:
        LDR      R2,[R5, #+4]
        B        ??OnRedraw_16
//   63 case 2:wsprintf(ws_menu,perc_t,lang[2]);break;
??OnRedraw_13:
        LDR      R2,[R5, #+8]
        B        ??OnRedraw_16
//   64 case 3:wsprintf(ws_menu,perc_t,lang[3]);break;
??OnRedraw_14:
        LDR      R2,[R5, #+12]
??OnRedraw_16:
        MOV      R1,R6
        MOV      R0,R4
        SWI      +292
//   65 }
//   66 DrawString(ws_menu,0,main_y,max_width,max_height,FONT,2,GetPaletteAdrByColorIndex(2),GetPaletteAdrByColorIndex(23));
??OnRedraw_15:
        MOV      R0,#+23
        SWI      +302
        MOV      R7,R0
        MOV      R0,#+2
        SWI      +302
        PUSH     {R7}
        CFI CFA R13+40
        PUSH     {R0}
        CFI CFA R13+44
        MOV      R3,#+240
        MOV      R1,#+0
        MOV      R0,#+2
        PUSH     {R0}
        CFI CFA R13+48
        MOV      R0,#+9
        PUSH     {R0}
        CFI CFA R13+52
        MOV      R0,#+320
        PUSH     {R0}
        CFI CFA R13+56
        LDR      R2,[R5, #+584]
        MOV      R0,R4
        SWI      +332
//   67 switch(saveload)
        LDR      R0,[R5, #+620]
        ADD      SP,SP,#+20
        CFI CFA R13+36
        CMP      R0,#+2
//   68 {
//   69 case 2:wsprintf(ws_menu,perc_t,lang[5]);break;
        LDREQ    R2,[R5, #+20]
//   70 default:wsprintf(ws_menu,perc_t,lang[4]);break; 
        MOV      R1,R6
        LDRNE    R2,[R5, #+16]
        MOV      R0,R4
        SWI      +292
//   71 }
//   72 DrawString(ws_menu,0,main_y+nimg*40,max_width,max_height,FONT,2,GetPaletteAdrByColorIndex(2),GetPaletteAdrByColorIndex(23));
        MOV      R0,#+23
        SWI      +302
        MOV      R7,R0
        MOV      R0,#+2
        SWI      +302
        PUSH     {R7}
        CFI CFA R13+40
        PUSH     {R0}
        CFI CFA R13+44
        MOV      R3,#+240
        MOV      R1,#+0
        MOV      R0,#+2
        PUSH     {R0}
        CFI CFA R13+48
        MOV      R0,#+9
        PUSH     {R0}
        CFI CFA R13+52
        MOV      R0,#+320
        PUSH     {R0}
        CFI CFA R13+56
        LDR      R0,[R5, #+584]
        ADD      R2,R0,#+40
        MOV      R0,R4
        SWI      +332
//   73 switch(mode)
        LDR      R0,[R5, #+596]
        ADD      SP,SP,#+20
        CFI CFA R13+36
        CMP      R0,#+0
        BEQ      ??OnRedraw_17
        SUBS     R0,R0,#+1
        BNE      ??OnRedraw_18
//   74 {
//   75 case 1: wsprintf(ws_menu,perc_t,lang[6]); break; 
        LDR      R2,[R5, #+24]
        B        ??OnRedraw_19
//   76 case 0: wsprintf(ws_menu,perc_t,lang[8]); break;
??OnRedraw_17:
        LDR      R2,[R5, #+32]
??OnRedraw_19:
        MOV      R1,R6
        MOV      R0,R4
        SWI      +292
//   77 }
//   78 DrawString(ws_menu,0,main_y+nimg*80,max_width,max_height,FONT,2,GetPaletteAdrByColorIndex(2),GetPaletteAdrByColorIndex(23));
??OnRedraw_18:
        MOV      R0,#+23
        SWI      +302
        MOV      R7,R0
        MOV      R0,#+2
        SWI      +302
        PUSH     {R7}
        CFI CFA R13+40
        PUSH     {R0}
        CFI CFA R13+44
        MOV      R3,#+240
        MOV      R1,#+0
        MOV      R0,#+2
        PUSH     {R0}
        CFI CFA R13+48
        MOV      R0,#+9
        PUSH     {R0}
        CFI CFA R13+52
        MOV      R0,#+320
        PUSH     {R0}
        CFI CFA R13+56
        LDR      R0,[R5, #+584]
        ADD      R2,R0,#+80
        MOV      R0,R4
        SWI      +332
//   79 
//   80 wsprintf(ws_menu,perc_t,lang[9]);
        LDR      R2,[R5, #+36]
        MOV      R1,R6
        MOV      R0,R4
        SWI      +292
//   81 DrawString(ws_menu,0,main_y+nimg*120,max_width,max_height,FONT,2,GetPaletteAdrByColorIndex(2),GetPaletteAdrByColorIndex(23));
        MOV      R0,#+23
        SWI      +302
        MOV      R7,R0
        MOV      R0,#+2
        SWI      +302
        PUSH     {R7}
        CFI CFA R13+60
        PUSH     {R0}
        CFI CFA R13+64
        MOV      R3,#+240
        MOV      R1,#+0
        MOV      R0,#+2
        PUSH     {R0}
        CFI CFA R13+68
        MOV      R0,#+9
        PUSH     {R0}
        CFI CFA R13+72
        MOV      R0,#+320
        PUSH     {R0}
        CFI CFA R13+76
        LDR      R0,[R5, #+584]
        ADD      R2,R0,#+120
        MOV      R0,R4
        SWI      +332
        ADD      SP,SP,#+40
        CFI CFA R13+36
//   82 
//   83 wsprintf(ws_menu,perc_t,lang[10]);
        LDR      R2,[R5, #+40]
        MOV      R1,R6
        MOV      R0,R4
        SWI      +292
//   84 DrawString(ws_menu,0,main_y+nimg*160,max_width,max_height,FONT,2,GetPaletteAdrByColorIndex(2),GetPaletteAdrByColorIndex(23));
        MOV      R0,#+23
        SWI      +302
        MOV      R7,R0
        MOV      R0,#+2
        SWI      +302
        PUSH     {R7}
        CFI CFA R13+40
        PUSH     {R0}
        CFI CFA R13+44
        MOV      R3,#+240
        MOV      R1,#+0
        MOV      R0,#+2
        PUSH     {R0}
        CFI CFA R13+48
        MOV      R0,#+9
        PUSH     {R0}
        CFI CFA R13+52
        MOV      R0,#+320
        PUSH     {R0}
        CFI CFA R13+56
        LDR      R0,[R5, #+584]
        ADD      R2,R0,#+160
        MOV      R0,R4
        SWI      +332
//   85 
//   86 wsprintf(ws_menu,perc_t,lang[11]);
        LDR      R2,[R5, #+44]
        MOV      R1,R6
        MOV      R0,R4
        SWI      +292
//   87 DrawString(ws_menu,0,main_y+nimg*200,max_width,max_height,FONT,2,GetPaletteAdrByColorIndex(2),GetPaletteAdrByColorIndex(23));
        MOV      R0,#+23
        SWI      +302
        MOV      R6,R0
        MOV      R0,#+2
        SWI      +302
        PUSH     {R6}
        CFI CFA R13+60
        PUSH     {R0}
        CFI CFA R13+64
        MOV      R3,#+240
        MOV      R0,#+2
        PUSH     {R0}
        CFI CFA R13+68
        MOV      R0,#+9
        PUSH     {R0}
        CFI CFA R13+72
        MOV      R0,#+320
        PUSH     {R0}
        CFI CFA R13+76
        LDR      R0,[R5, #+584]
        ADD      R2,R0,#+200
??OnRedraw_20:
        MOV      R1,#+0
        MOV      R0,R4
        SWI      +332
        ADD      SP,SP,#+40
        CFI CFA R13+36
??OnRedraw_10:
        MOV      R0,R4
        SWI      +297
        POP      {R4-R11,PC}
//   88 }
//   89 break;
//   90 case settings:
//   91 {
//   92 wsprintf(ws_menu,perc_t,lang[12]);
??OnRedraw_21:
        LDR      R2,[R5, #+48]
        MOV      R1,R6
        MOV      R0,R4
        SWI      +292
//   93 DrawString(ws_menu,0,main_y,max_width,max_height,FONT,2,GetPaletteAdrByColorIndex(2),GetPaletteAdrByColorIndex(23));
        MOV      R0,#+23
        SWI      +302
        MOV      R7,R0
        MOV      R0,#+2
        SWI      +302
        PUSH     {R7}
        CFI CFA R13+40
        PUSH     {R0}
        CFI CFA R13+44
        MOV      R3,#+240
        MOV      R1,#+0
        MOV      R0,#+2
        PUSH     {R0}
        CFI CFA R13+48
        MOV      R0,#+9
        PUSH     {R0}
        CFI CFA R13+52
        MOV      R0,#+320
        PUSH     {R0}
        CFI CFA R13+56
        LDR      R2,[R5, #+584]
        MOV      R0,R4
        SWI      +332
//   94 wsprintf(ws_menu,perc_t,lang[26]);
        LDR      R2,[R5, #+104]
        MOV      R1,R6
        MOV      R0,R4
        SWI      +292
//   95 DrawString(ws_menu,0,main_y+nimg*40,max_width,max_height,FONT,2,GetPaletteAdrByColorIndex(2),GetPaletteAdrByColorIndex(23));
        MOV      R0,#+23
        SWI      +302
        MOV      R6,R0
        MOV      R0,#+2
        SWI      +302
        PUSH     {R6}
        CFI CFA R13+60
        PUSH     {R0}
        CFI CFA R13+64
        MOV      R3,#+240
        MOV      R0,#+2
        PUSH     {R0}
        CFI CFA R13+68
        MOV      R0,#+9
        PUSH     {R0}
        CFI CFA R13+72
        MOV      R0,#+320
        PUSH     {R0}
        CFI CFA R13+76
        LDR      R0,[R5, #+584]
        ADD      R2,R0,#+40
        B        ??OnRedraw_20
        CFI CFA R13+36
//   96 }
//   97 break;
//   98 case settings_igra:
//   99 {
//  100 wsprintf(ws_menu,perc_t,lang[15]);
??OnRedraw_22:
        LDR      R2,[R5, #+60]
        MOV      R1,R6
        MOV      R0,R4
        SWI      +292
//  101 DrawString(ws_menu,0,main_y,max_width,max_height,FONT,2,GetPaletteAdrByColorIndex(3),GetPaletteAdrByColorIndex(23));
        MOV      R0,#+23
        SWI      +302
        MOV      R7,R0
        MOV      R0,#+3
        SWI      +302
        PUSH     {R7}
        CFI CFA R13+40
        PUSH     {R0}
        CFI CFA R13+44
        MOV      R3,#+240
        MOV      R1,#+0
        MOV      R0,#+2
        PUSH     {R0}
        CFI CFA R13+48
        MOV      R0,#+9
        PUSH     {R0}
        CFI CFA R13+52
        MOV      R0,#+320
        PUSH     {R0}
        CFI CFA R13+56
        LDR      R2,[R5, #+584]
        MOV      R0,R4
        SWI      +332
//  102 switch(difficult)
        LDR      R0,[R5, #+588]
        ADD      SP,SP,#+20
        CFI CFA R13+36
        CMP      R0,#+0
        BEQ      ??OnRedraw_23
        SUBS     R0,R0,#+1
        BEQ      ??OnRedraw_24
        SUBS     R0,R0,#+1
        BEQ      ??OnRedraw_25
        B        ??OnRedraw_26
//  103 {
//  104 case 0:wsprintf(ws_menu,perc_t,lang[16]);break;
??OnRedraw_23:
        LDR      R2,[R5, #+64]
        B        ??OnRedraw_27
//  105 case 1:wsprintf(ws_menu,perc_t,lang[17]);break;
??OnRedraw_24:
        LDR      R2,[R5, #+68]
        B        ??OnRedraw_27
//  106 case 2:wsprintf(ws_menu,perc_t,lang[18]);break;
??OnRedraw_25:
        LDR      R2,[R5, #+72]
??OnRedraw_27:
        MOV      R1,R6
        MOV      R0,R4
        SWI      +292
//  107 }
//  108 DrawString(ws_menu,0,main_y+nimg*40,max_width,max_height,FONT,2,GetPaletteAdrByColorIndex(2),GetPaletteAdrByColorIndex(23));
??OnRedraw_26:
        MOV      R0,#+23
        SWI      +302
        MOV      R7,R0
        MOV      R0,#+2
        SWI      +302
        PUSH     {R7}
        CFI CFA R13+40
        PUSH     {R0}
        CFI CFA R13+44
        MOV      R3,#+240
        MOV      R1,#+0
        MOV      R0,#+2
        PUSH     {R0}
        CFI CFA R13+48
        MOV      R0,#+9
        PUSH     {R0}
        CFI CFA R13+52
        MOV      R0,#+320
        PUSH     {R0}
        CFI CFA R13+56
        LDR      R0,[R5, #+584]
        ADD      R2,R0,#+40
        MOV      R0,R4
        SWI      +332
//  109 
//  110 wsprintf(ws_menu,perc_t,lang[19]);
        LDR      R2,[R5, #+76]
        MOV      R1,R6
        MOV      R0,R4
        SWI      +292
//  111 DrawString(ws_menu,0,main_y+nimg*80,max_width,max_height,FONT,2,GetPaletteAdrByColorIndex(3),GetPaletteAdrByColorIndex(23));
        MOV      R0,#+23
        SWI      +302
        MOV      R7,R0
        MOV      R0,#+3
        SWI      +302
        PUSH     {R7}
        CFI CFA R13+60
        PUSH     {R0}
        CFI CFA R13+64
        MOV      R3,#+240
        MOV      R1,#+0
        MOV      R0,#+2
        PUSH     {R0}
        CFI CFA R13+68
        MOV      R0,#+9
        PUSH     {R0}
        CFI CFA R13+72
        MOV      R0,#+320
        PUSH     {R0}
        CFI CFA R13+76
        LDR      R0,[R5, #+584]
        ADD      R2,R0,#+80
        MOV      R0,R4
        SWI      +332
        ADD      SP,SP,#+40
        CFI CFA R13+36
//  112 switch(speed_game)
        LDR      R0,[R5, #+600]
        CMP      R0,#+0
        BEQ      ??OnRedraw_28
        SUBS     R0,R0,#+1
        BEQ      ??OnRedraw_29
        SUBS     R0,R0,#+1
        BEQ      ??OnRedraw_30
        SUBS     R0,R0,#+1
        BEQ      ??OnRedraw_31
        B        ??OnRedraw_32
//  113 {
//  114 case 0:wsprintf(ws_menu,perc_t,lang[20]);break;
??OnRedraw_28:
        LDR      R2,[R5, #+80]
        B        ??OnRedraw_33
//  115 case 1:wsprintf(ws_menu,perc_t,lang[21]);break;
??OnRedraw_29:
        LDR      R2,[R5, #+84]
        B        ??OnRedraw_33
//  116 case 2:wsprintf(ws_menu,perc_t,lang[22]);break;
??OnRedraw_30:
        LDR      R2,[R5, #+88]
        B        ??OnRedraw_33
//  117 case 3:wsprintf(ws_menu,perc_t,lang[23]);break;
??OnRedraw_31:
        LDR      R2,[R5, #+92]
??OnRedraw_33:
        MOV      R1,R6
        MOV      R0,R4
        SWI      +292
//  118 }
//  119 DrawString(ws_menu,0,main_y+nimg*120,max_width,max_height,FONT,2,GetPaletteAdrByColorIndex(2),GetPaletteAdrByColorIndex(23));
??OnRedraw_32:
        MOV      R0,#+23
        SWI      +302
        MOV      R7,R0
        MOV      R0,#+2
        SWI      +302
        PUSH     {R7}
        CFI CFA R13+40
        PUSH     {R0}
        CFI CFA R13+44
        MOV      R3,#+240
        MOV      R1,#+0
        MOV      R0,#+2
        PUSH     {R0}
        CFI CFA R13+48
        MOV      R0,#+9
        PUSH     {R0}
        CFI CFA R13+52
        MOV      R0,#+320
        PUSH     {R0}
        CFI CFA R13+56
        LDR      R0,[R5, #+584]
        ADD      R2,R0,#+120
        MOV      R0,R4
        SWI      +332
//  120 wsprintf(ws_menu,perc_t,lang[24]);
        LDR      R2,[R5, #+96]
        MOV      R1,R6
        MOV      R0,R4
        SWI      +292
//  121 DrawString(ws_menu,0,main_y+nimg*160 ,max_width,max_height,FONT,2,GetPaletteAdrByColorIndex(3),GetPaletteAdrByColorIndex(23));
        MOV      R0,#+23
        SWI      +302
        MOV      R7,R0
        MOV      R0,#+3
        SWI      +302
        PUSH     {R7}
        CFI CFA R13+60
        PUSH     {R0}
        CFI CFA R13+64
        MOV      R3,#+240
        MOV      R1,#+0
        MOV      R0,#+2
        PUSH     {R0}
        CFI CFA R13+68
        MOV      R0,#+9
        PUSH     {R0}
        CFI CFA R13+72
        MOV      R0,#+320
        PUSH     {R0}
        CFI CFA R13+76
        LDR      R0,[R5, #+584]
        ADD      R2,R0,#+160
        MOV      R0,R4
        SWI      +332
        ADD      SP,SP,#+40
        CFI CFA R13+36
//  122 switch(mode)
        LDR      R0,[R5, #+596]
        CMP      R0,#+0
        BEQ      ??OnRedraw_34
        SUBS     R0,R0,#+1
        BEQ      ??OnRedraw_35
        B        ??OnRedraw_36
//  123 {
//  124 case 0:wsprintf(ws_menu,perc_t,lang[25]);break;
??OnRedraw_34:
        LDR      R2,[R5, #+100]
        MOV      R1,R6
        B        ??OnRedraw_37
//  125 case 1:wsprintf(ws_menu,"<  %d  >",lives);break;
??OnRedraw_35:
        LDR      R2,[R5, #+592]
        ADD      R1,R6,#+40
??OnRedraw_37:
        MOV      R0,R4
??OnRedraw_38:
        SWI      +292
//  126 }
//  127 DrawString(ws_menu,0,main_y+nimg*200,max_width,max_height,FONT,2,GetPaletteAdrByColorIndex(2),GetPaletteAdrByColorIndex(23));
??OnRedraw_36:
        MOV      R0,#+23
        SWI      +302
        MOV      R6,R0
        MOV      R0,#+2
        SWI      +302
        PUSH     {R6}
        CFI CFA R13+40
        PUSH     {R0}
        CFI CFA R13+44
        MOV      R3,#+240
        MOV      R1,#+0
        MOV      R0,#+2
        PUSH     {R0}
        CFI CFA R13+48
        MOV      R0,#+9
        PUSH     {R0}
        CFI CFA R13+52
        MOV      R0,#+320
        PUSH     {R0}
        CFI CFA R13+56
        LDR      R0,[R5, #+584]
        ADD      R2,R0,#+200
        MOV      R0,R4
        SWI      +332
        ADD      SP,SP,#+20
        CFI CFA R13+36
        B        ??OnRedraw_10
//  128 }
//  129 break;
//  130 case music:
//  131 {
//  132 wsprintf(ws_menu,perc_t,lang[28]);
??OnRedraw_39:
        LDR      R2,[R5, #+112]
        MOV      R1,R6
        MOV      R0,R4
        SWI      +292
//  133 DrawString(ws_menu,0,main_y,max_width,max_height,FONT,2,GetPaletteAdrByColorIndex(3),GetPaletteAdrByColorIndex(23));
        MOV      R0,#+23
        SWI      +302
        MOV      R7,R0
        MOV      R0,#+3
        SWI      +302
        PUSH     {R7}
        CFI CFA R13+40
        PUSH     {R0}
        CFI CFA R13+44
        MOV      R3,#+240
        MOV      R1,#+0
        MOV      R0,#+2
        PUSH     {R0}
        CFI CFA R13+48
        MOV      R0,#+9
        PUSH     {R0}
        CFI CFA R13+52
        MOV      R0,#+320
        PUSH     {R0}
        CFI CFA R13+56
        LDR      R2,[R5, #+584]
        MOV      R0,R4
        SWI      +332
//  134 switch(on_off_sound)
        LDR      R0,[R5, #+612]
        ADD      SP,SP,#+20
        CFI CFA R13+36
        CMP      R0,#+0
        BEQ      ??OnRedraw_40
        SUBS     R0,R0,#+1
        BEQ      ??OnRedraw_41
        SUBS     R0,R0,#+1
        BEQ      ??OnRedraw_42
        B        ??OnRedraw_43
//  135 {
//  136 case 0:wsprintf(ws_menu,perc_t,lang[29]);break;
??OnRedraw_40:
        LDR      R2,[R5, #+116]
        B        ??OnRedraw_44
//  137 case 1:wsprintf(ws_menu,perc_t,lang[31]);break;
??OnRedraw_41:
        LDR      R2,[R5, #+124]
        B        ??OnRedraw_44
//  138 case 2:wsprintf(ws_menu,perc_t,lang[32]);break;
??OnRedraw_42:
        LDR      R2,[R5, #+128]
??OnRedraw_44:
        MOV      R1,R6
        MOV      R0,R4
        SWI      +292
//  139 }
//  140 DrawString(ws_menu,0,main_y+nimg*40,max_width,max_height,FONT,2,GetPaletteAdrByColorIndex(2),GetPaletteAdrByColorIndex(23));
??OnRedraw_43:
        MOV      R0,#+23
        SWI      +302
        MOV      R7,R0
        MOV      R0,#+2
        SWI      +302
        PUSH     {R7}
        CFI CFA R13+40
        PUSH     {R0}
        CFI CFA R13+44
        MOV      R3,#+240
        MOV      R1,#+0
        MOV      R0,#+2
        PUSH     {R0}
        CFI CFA R13+48
        MOV      R0,#+9
        PUSH     {R0}
        CFI CFA R13+52
        MOV      R0,#+320
        PUSH     {R0}
        CFI CFA R13+56
        LDR      R0,[R5, #+584]
        ADD      R2,R0,#+40
        MOV      R0,R4
        SWI      +332
//  141 wsprintf(ws_menu,perc_t,lang[33]);
        LDR      R2,[R5, #+132]
        MOV      R1,R6
        MOV      R0,R4
        SWI      +292
//  142 DrawString(ws_menu,0,main_y+nimg*80,max_width,max_height,FONT,2,GetPaletteAdrByColorIndex(3),GetPaletteAdrByColorIndex(23));
        MOV      R0,#+23
        SWI      +302
        MOV      R7,R0
        MOV      R0,#+3
        SWI      +302
        PUSH     {R7}
        CFI CFA R13+60
        PUSH     {R0}
        CFI CFA R13+64
        MOV      R3,#+240
        MOV      R1,#+0
        MOV      R0,#+2
        PUSH     {R0}
        CFI CFA R13+68
        MOV      R0,#+9
        PUSH     {R0}
        CFI CFA R13+72
        MOV      R0,#+320
        PUSH     {R0}
        CFI CFA R13+76
        LDR      R0,[R5, #+584]
        ADD      R2,R0,#+80
        MOV      R0,R4
        SWI      +332
        ADD      SP,SP,#+40
        CFI CFA R13+36
//  143 wsprintf(ws_menu,"<  %d  >",def_vol);
        LDR      R2,[R5, #+608]
        ADD      R1,R6,#+40
        MOV      R0,R4
        SWI      +292
//  144 DrawString(ws_menu,0,main_y+nimg*120,max_width,max_height,FONT,2,GetPaletteAdrByColorIndex(2),GetPaletteAdrByColorIndex(23));
        MOV      R0,#+23
        SWI      +302
        MOV      R7,R0
        MOV      R0,#+2
        SWI      +302
        PUSH     {R7}
        CFI CFA R13+40
        PUSH     {R0}
        CFI CFA R13+44
        MOV      R3,#+240
        MOV      R1,#+0
        MOV      R0,#+2
        PUSH     {R0}
        CFI CFA R13+48
        MOV      R0,#+9
        PUSH     {R0}
        CFI CFA R13+52
        MOV      R0,#+320
        PUSH     {R0}
        CFI CFA R13+56
        LDR      R0,[R5, #+584]
        ADD      R2,R0,#+120
        MOV      R0,R4
        SWI      +332
//  145 wsprintf(ws_menu,perc_t,lang[34]);
        LDR      R2,[R5, #+136]
        MOV      R1,R6
        MOV      R0,R4
        SWI      +292
//  146 DrawString(ws_menu,0,main_y+nimg*160,max_width,max_height,FONT,2,GetPaletteAdrByColorIndex(3),GetPaletteAdrByColorIndex(23));
        MOV      R0,#+23
        SWI      +302
        MOV      R7,R0
        MOV      R0,#+3
        SWI      +302
        PUSH     {R7}
        CFI CFA R13+60
        PUSH     {R0}
        CFI CFA R13+64
        MOV      R3,#+240
        MOV      R1,#+0
        MOV      R0,#+2
        PUSH     {R0}
        CFI CFA R13+68
        MOV      R0,#+9
        PUSH     {R0}
        CFI CFA R13+72
        MOV      R0,#+320
        PUSH     {R0}
        CFI CFA R13+76
        LDR      R0,[R5, #+584]
        ADD      R2,R0,#+160
        MOV      R0,R4
        SWI      +332
        ADD      SP,SP,#+40
        CFI CFA R13+36
//  147 switch(vibra)
        LDR      R0,[R5, #+636]
//  148 {
//  149 case 1:wsprintf(ws_menu,perc_t,lang[30]);break;
//  150 default:wsprintf(ws_menu,perc_t,lang[29]);break;
        MOV      R1,R6
        CMP      R0,#+1
        LDREQ    R2,[R5, #+120]
        MOV      R0,R4
        LDRNE    R2,[R5, #+116]
        B        ??OnRedraw_38
//  151 }
//  152 DrawString(ws_menu,0,main_y+nimg*200,max_width,max_height,FONT,2,GetPaletteAdrByColorIndex(2),GetPaletteAdrByColorIndex(23));
//  153 }
//  154 break;
//  155 case rec:
//  156 {
//  157 wsprintf(ws_menu,perc_t,lang[35]);
??OnRedraw_45:
        LDR      R2,[R5, #+140]
        MOV      R1,R6
        MOV      R0,R4
        SWI      +292
//  158 DrawString(ws_menu,0,nimg*17,max_width,max_height,FONT,2,GetPaletteAdrByColorIndex(2),GetPaletteAdrByColorIndex(23));
        MOV      R0,#+23
        SWI      +302
        MOV      R7,R0
        MOV      R0,#+2
        SWI      +302
        PUSH     {R7}
        CFI CFA R13+40
        PUSH     {R0}
        CFI CFA R13+44
        MOV      R3,#+240
        MOV      R2,#+17
        MOV      R1,#+0
        MOV      R0,#+2
        PUSH     {R0}
        CFI CFA R13+48
//  159 for(int i=0;i<NUM_RECORD;i++)
        MOV      R7,#+0
        MOV      R0,#+9
        PUSH     {R0}
        CFI CFA R13+52
        MOV      R0,#+320
        PUSH     {R0}
        CFI CFA R13+56
        MOV      R0,R4
        SWI      +332
        ADD      SP,SP,#+20
        CFI CFA R13+36
//  160 {
//  161 wsprintf(ws_menu,"%d.  %s  %d",i+1,record.name[i],record.points[i]);
??OnRedraw_46:
        ADD      R0,R5,R7, LSL #+2
        LDR      R0,[R0, #+332]
        ADD      R8,R7,#+1
        PUSH     {R0}
        CFI CFA R13+40
        MOV      R2,R8
        ADD      R1,R6,#+52
        RSB      R0,R7,R7, LSL #+4
        ADD      R0,R0,R5
        ADD      R3,R0,#+240
        MOV      R0,R4
        SWI      +292
//  162 DrawString(ws_menu,nimg*35,nimg*37+i*(30),nimg*35+Get_WS_width(ws_menu,FONT),nimg*37+i*(30)+GetFontYSIZE(FONT),FONT,2,GetPaletteAdrByColorIndex(3),GetPaletteAdrByColorIndex(23));
        MOV      R0,#+23
        SWI      +302
        MOV      R9,R0
        MOV      R0,#+3
        SWI      +302
        MOV      R10,R0
        MOV      R0,#+9
        SWI      +453
        MOV      R11,R0
        MOV      R1,#+9
        MOV      R0,R4
        SWI      +520
        MOV      R2,#+30
        MUL      R1,R2,R7
        PUSH     {R9}
        CFI CFA R13+44
        PUSH     {R10}
        CFI CFA R13+48
        MOV      R2,#+2
        PUSH     {R2}
        CFI CFA R13+52
        ADD      R3,R0,#+35
        MOV      R0,R4
//  163 }
        MOV      R7,R8
        MOV      R2,#+9
        PUSH     {R2}
        CFI CFA R13+56
        ADD      R2,R1,R11
        ADD      R2,R2,#+37
        PUSH     {R2}
        CFI CFA R13+60
        ADD      R2,R1,#+37
        MOV      R1,#+35
        SWI      +332
        CMP      R7,#+5
        ADD      SP,SP,#+24
        CFI CFA R13+36
        BLT      ??OnRedraw_46
//  164 }
//  165 break;
//  166 }
//  167 FreeWS(ws_menu);
??OnRedraw_2:
        MOV      R0,R4
        SWI      +297
//  168 }
        POP      {R4-R11,PC}      ;; return
        CFI EndBlock cfiBlock95

        RSEG CODE:CODE:NOROOT(2)
        DATA
??DataTable58:
        DC32     lang

        RSEG CODE:CODE:NOROOT(2)
        DATA
??DataTable59:
        DC32     perc_t

        RSEG CODE:CODE:NOROOT(2)
        CFI Block cfiBlock96 Using cfiCommon0
        CFI NoFunction
        THUMB
??onCreate??rT:
        BX       PC
        Nop      
        CFI EndBlock cfiBlock96
        REQUIRE onCreate

        RSEG CODE:CODE:NOROOT(2)
        CFI Block cfiBlock97 Using cfiCommon1
        CFI Function onCreate
        ARM
//  169 static void onCreate(MAIN_GUI *data, void *(*malloc_adr)(int))//Тут делаем что либо при создании гуи
//  170 {
onCreate:
        PUSH     {R4,LR}
        CFI ?RET Frame(CFA, -4)
        CFI R4 Frame(CFA, -8)
        CFI CFA R13+8
        MOV      R4,R0
//  171   #ifdef ELKA//Если елка,то отключаем иконбар
//  172   DisableIconBar(1);
        MOV      R0,#+1
        SWI      +571
//  173   #endif
//  174   Time.str=malloc(24);
        MOV      R0,#+24
        SWI      +20
        LDR      R1,??DataTable61  ;; lang + 528
        STR      R0,[R1, #+0]
//  175   data->ws1=AllocWS(256);//Выделяем память под строку
        MOV      R0,#+256
        SWI      +293
        STR      R0,[R4, #+52]
//  176   data->gui.state=1;
        MOV      R0,#+1
        STRB     R0,[R4, #+12]
//  177 }
        POP      {R4,PC}          ;; return
        CFI EndBlock cfiBlock97

        RSEG CODE:CODE:NOROOT(2)
        CFI Block cfiBlock98 Using cfiCommon0
        CFI NoFunction
        THUMB
??onClose??rT:
        BX       PC
        Nop      
        CFI EndBlock cfiBlock98
        REQUIRE onClose

        RSEG CODE:CODE:NOROOT(2)
        CFI Block cfiBlock99 Using cfiCommon1
        CFI Function onClose
        ARM
//  178 static void onClose(MAIN_GUI *data, void (*mfree_adr)(void *))//Сдесь делаем что нить при закрытии гуи:)
//  179 {
onClose:
        PUSH     {R4,LR}
        CFI ?RET Frame(CFA, -4)
        CFI R4 Frame(CFA, -8)
        CFI CFA R13+8
        MOV      R4,R0
//  180   data->gui.state=0;
        MOV      R0,#+0
        STRB     R0,[R4, #+12]
//  181   mfree(Time.str);
        LDR      R0,??DataTable61  ;; lang + 528
        LDR      R0,[R0, #+0]
        SWI      +21
//  182   FreeWS(data->ws1);//например, освобождаем память
        LDR      R0,[R4, #+52]
        SWI      +297
//  183   FreeWS(data->ws5);
        LDR      R0,[R4, #+60]
        SWI      +297
//  184 }
        POP      {R4,PC}          ;; return
        CFI EndBlock cfiBlock99

        RSEG CODE:CODE:NOROOT(2)
        DATA
??DataTable61:
        DC32     lang + 528

        RSEG CODE:CODE:NOROOT(2)
        CFI Block cfiBlock100 Using cfiCommon0
        CFI NoFunction
        THUMB
??onFocus??rT:
        BX       PC
        Nop      
        CFI EndBlock cfiBlock100
        REQUIRE onFocus
//  185 

        RSEG CODE:CODE:NOROOT(2)
        CFI Block cfiBlock101 Using cfiCommon1
        CFI Function onFocus
        ARM
//  186 static void onFocus(MAIN_GUI *data, void *(*malloc_adr)(int), void (*mfree_adr)(void *))//Если гуи на верху то опять же делаем что нужно
//  187 {
onFocus:
        PUSH     {R4,LR}
        CFI ?RET Frame(CFA, -4)
        CFI R4 Frame(CFA, -8)
        CFI CFA R13+8
        MOV      R4,R0
//  188   #ifdef ELKA//Если елка,то отключаем иконбар
//  189   DisableIconBar(1);
        MOV      R0,#+1
        SWI      +571
//  190   #endif
//  191   data->gui.state=2;
        MOV      R0,#+2
        STRB     R0,[R4, #+12]
//  192   DisableIDLETMR();//отключаем таймер,иначе через 2 минуты эльф закроется
        SWI      +383
//  193 }
        POP      {R4,PC}          ;; return
        CFI EndBlock cfiBlock101

        RSEG CODE:CODE:NOROOT(2)
        CFI Block cfiBlock102 Using cfiCommon0
        CFI NoFunction
        THUMB
??onUnfocus??rT:
        BX       PC
        Nop      
        CFI EndBlock cfiBlock102
        REQUIRE onUnfocus
//  194 

        RSEG CODE:CODE:NOROOT(2)
        CFI Block cfiBlock103 Using cfiCommon1
        CFI Function onUnfocus
        ARM
//  195 static void onUnfocus(MAIN_GUI *data, void (*mfree_adr)(void *))//а если гуи не вверху,то можно закрыть эльф например:)
//  196 {
onUnfocus:
        PUSH     {R4,LR}
        CFI ?RET Frame(CFA, -4)
        CFI R4 Frame(CFA, -8)
        CFI CFA R13+8
        MOV      R4,R0
//  197   UpdateCSMname();//обновляем имя для хтаска
        BL       UpdateCSMname
//  198   deltimers();
        BL       deltimers
//  199   if(status==load)exit();//антилаг
        LDR      R1,??DataTable66  ;; lang
        MOV      R0,#+1
        LDRB     R2,[R1, #+660]
        CMP      R2,#+0
        STREQ    R0,[R1, #+640]
//  200   if (data->gui.state!=2) return;
        LDRB     R1,[R4, #+12]
        CMP      R1,#+2
//  201   data->gui.state=1;
        STRBEQ   R0,[R4, #+12]
//  202 }
        POP      {R4,PC}          ;; return
        CFI EndBlock cfiBlock103

        RSEG CODE:CODE:NOROOT(2)
        CFI Block cfiBlock104 Using cfiCommon0
        CFI NoFunction
        THUMB
??OnKey??rT:
        BX       PC
        Nop      
        CFI EndBlock cfiBlock104
        REQUIRE OnKey
//  203 
//  204 
//  205 

        RSEG CODE:CODE:NOROOT(2)
        CFI Block cfiBlock105 Using cfiCommon1
        CFI Function OnKey
        ARM
//  206 static int OnKey(MAIN_GUI *data, GUI_MSG *msg)//Ну это кей хук
//  207 {
OnKey:
        PUSH     {R4,LR}
        CFI ?RET Frame(CFA, -4)
        CFI R4 Frame(CFA, -8)
        CFI CFA R13+8
//  208   switch(msg->gbsmsg->msg)
        LDR      R0,[R1, #+4]
        LDR      R4,??DataTable66  ;; lang
        LDR      R1,[R0, #+4]
        MOV      R2,#+147
        ORR      R2,R2,#0x100
        CMP      R1,R2
        BEQ      ??OnKey_1
        CMP      R1,#+404
        BEQ      ??OnKey_2
        ADD      R2,R2,#+2
        CMP      R1,R2
        BEQ      ??OnKey_1
        MOV      R0,#+0
        POP      {R4,PC}
//  209   {
//  210    case KEY_UP: user.dx=STOP_SIDE; break;
??OnKey_2:
        MOV      R0,#+0
        STR      R0,[R4, #+420]
//  211    case LONG_PRESS: // Клавиша удерживается долго (повтор)
//  212    case KEY_DOWN: // Клавиша нажата
//  213          switch(msg->gbsmsg->submess)
//  214          { 
//  215          case RIGHT_SOFT:right_soft();break;
//  216          case LEFT_SOFT:left_soft();break;
//  217          case UP_BUTTON: case '2':up_but();break;
//  218          case DOWN_BUTTON: case '8':down_but();break; 
//  219          case ENTER_BUTTON:enter_but();break;
//  220          case LEFT_BUTTON: case '4':left_but();break;
//  221          case RIGHT_BUTTON: case '6':right_but();break;
//  222          case GREEN_BUTTON:green_but();break; 
//  223          case '0':if(status==game)setpause();break;  
//  224          case '#':if(msg->gbsmsg->msg==LONG_PRESS)resh_but();break;
//  225          }
//  226          if(exiting) return 1;
//  227    }
//  228    
//  229  
//  230   return(0);
        MOV      R0,#+0
        POP      {R4,PC}          ;; return
??OnKey_1:
        LDR      R1,[R0, #+8]
        SUB      R1,R1,#+1
        CMP      R1,#+61
        BHI      ??OnKey_3
        ADR      R2,??OnKey_0
        LDRB     R2,[R2, R1]
        ADD      PC,PC,R2, LSL #+2
        DATA
??OnKey_0:
        DC8      +17,+42,+42,+15
        DC8      +42,+42,+42,+42
        DC8      +42,+42,+29,+42
        DC8      +42,+42,+42,+42
        DC8      +42,+42,+42,+42
        DC8      +42,+42,+42,+42
        DC8      +42,+23,+42,+42
        DC8      +42,+42,+42,+42
        DC8      +42,+42,+36,+42
        DC8      +42,+42,+42,+42
        DC8      +42,+42,+42,+42
        DC8      +42,+42,+42,+31
        DC8      +42,+19,+42,+25
        DC8      +42,+27,+42,+21
        DC8      +42,+42,+19,+21
        DC8      +25,+27,+0,+0
        ARM
??OnKey_4:
        BL       right_soft
        B        ??OnKey_3
??OnKey_5:
        BL       left_soft
        B        ??OnKey_3
??OnKey_6:
        BL       up_but
        B        ??OnKey_3
??OnKey_7:
        BL       down_but
        B        ??OnKey_3
??OnKey_8:
        BL       enter_but
        B        ??OnKey_3
??OnKey_9:
        BL       left_but
        B        ??OnKey_3
??OnKey_10:
        BL       right_but
        B        ??OnKey_3
??OnKey_11:
        BL       green_but
        B        ??OnKey_3
??OnKey_12:
        LDRB     R0,[R4, #+660]
        CMP      R0,#+5
        BNE      ??OnKey_3
        BL       setpause
        B        ??OnKey_3
??OnKey_13:
        LDR      R0,[R0, #+4]
        MOV      R1,#+149
        ORR      R1,R1,#0x100
        CMP      R0,R1
        BNE      ??OnKey_3
        BL       resh_but
??OnKey_3:
        LDR      R0,[R4, #+640]
        CMP      R0,#+0
        POPEQ    {R4,PC}
        MOV      R0,#+1
        POP      {R4,PC}
        CFI EndBlock cfiBlock105
//  231 }

        RSEG CODE:CODE:NOROOT(2)
        CFI Block cfiBlock106 Using cfiCommon0
        CFI NoFunction
        THUMB
??method8??rT:
        BX       PC
        Nop      
        CFI EndBlock cfiBlock106
        REQUIRE method8
//  232   
//  233 
//  234 extern void kill_data(void *p, void (*func_p)(void *));
//  235 

        RSEG CODE:CODE:NOROOT(2)
        CFI Block cfiBlock107 Using cfiCommon1
        CFI Function method8
        ARM
//  236 int method8(void){return(0);}
method8:
        MOV      R0,#+0
        BX       LR               ;; return
        CFI EndBlock cfiBlock107

        RSEG CODE:CODE:NOROOT(2)
        CFI Block cfiBlock108 Using cfiCommon0
        CFI NoFunction
        THUMB
??method9??rT:
        BX       PC
        Nop      
        CFI EndBlock cfiBlock108
        REQUIRE method9

        RSEG CODE:CODE:NOROOT(2)
        CFI Block cfiBlock109 Using cfiCommon1
        CFI Function method9
        ARM
//  237 int method9(void){return(0);}
method9:
        MOV      R0,#+0
        BX       LR               ;; return
        CFI EndBlock cfiBlock109

        RSEG CODE:CODE:NOROOT(2)
        CFI Block cfiBlock110 Using cfiCommon0
        CFI NoFunction
        THUMB
??maincsm_oncreate??rT:
        BX       PC
        Nop      
        CFI EndBlock cfiBlock110
        REQUIRE maincsm_oncreate
//  238 
//  239 const void * const gui_methods[11]={
//  240   (void *)OnRedraw,
//  241   (void *)onCreate,
//  242   (void *)onClose,
//  243   (void *)onFocus,
//  244   (void *)onUnfocus,
//  245   (void *)OnKey,
//  246   0,
//  247   (void *)kill_data,
//  248   (void *)method8,
//  249   (void *)method9,
//  250   0
//  251 };
//  252 

        RSEG CODE:CODE:NOROOT(2)
        CFI Block cfiBlock111 Using cfiCommon1
        CFI Function maincsm_oncreate
        ARM
//  253 static void maincsm_oncreate(CSM_RAM *data)
//  254 {
maincsm_oncreate:
        PUSH     {R4,R5,LR}
        CFI ?RET Frame(CFA, -4)
        CFI R5 Frame(CFA, -8)
        CFI R4 Frame(CFA, -12)
        CFI CFA R13+12
        MOV      R4,R0
//  255   static const RECT Canvas={0,0,max_width-1,max_height-1};
//  256   MAIN_GUI *main_gui=malloc(sizeof(MAIN_GUI));
        MOV      R0,#+68
        SWI      +20
        MOV      R5,R0
//  257   MAIN_CSM*csm=(MAIN_CSM*)data;
//  258   zeromem(main_gui,sizeof(MAIN_GUI));
        MOV      R1,#+68
        SWI      +285
//  259   main_gui->gui.canvas=(void *)(&Canvas);
        LDR      R0,??maincsm_oncreate_0  ;; gui_methods
        ADD      R1,R0,#+44
        STR      R1,[R5, #+0]
//  260   main_gui->gui.flag30=2;
        MOV      R1,#+2
        STR      R1,[R5, #+48]
//  261   main_gui->gui.methods=(void *)gui_methods;
        STR      R0,[R5, #+4]
//  262   main_gui->gui.item_ll.data_mfree=(void (*)(void *))mfree_adr();
        SWI      +32789
        STR      R0,[R5, #+32]
//  263   csm->csm.state=0;
        MOV      R0,#+0
        STR      R0,[R4, #+16]
//  264   csm->csm.unk1=0;
        STR      R0,[R4, #+20]
//  265   csm->gui_id=CreateGUI(main_gui);
        MOV      R0,R5
        SWI      +311
        STR      R0,[R4, #+40]
//  266 }
        POP      {R4,R5,PC}       ;; return
        DATA
??maincsm_oncreate_0:
        DC32     gui_methods
        CFI EndBlock cfiBlock111

        RSEG CODE:CODE:NOROOT(2)
        CFI Block cfiBlock112 Using cfiCommon0
        CFI NoFunction
        THUMB
??ElfKiller??rT:
        BX       PC
        Nop      
        CFI EndBlock cfiBlock112
        REQUIRE ElfKiller
//  267 
//  268 

        RSEG CODE:CODE:NOROOT(2)
        CFI Block cfiBlock113 Using cfiCommon1
        CFI Function ElfKiller
        ARM
//  269 void ElfKiller(void)
//  270 {
ElfKiller:
        PUSH     {LR}
        CFI ?RET Frame(CFA, -4)
        CFI CFA R13+4
//  271   extern void *ELF_BEGIN;
//  272   kill_data(&ELF_BEGIN,(void (*)(void *))mfree_adr());
        SWI      +32789
        MOV      R1,R0
        LDR      R0,??ElfKiller_0  ;; ELF_BEGIN
        POP      {LR}             ;; Pop
        CFI ?RET R14
        CFI CFA R13+0
        _BF      kill_data,??kill_data??rA  ;; tailcall
        DATA
??ElfKiller_0:
        DC32     ELF_BEGIN
        CFI EndBlock cfiBlock113
//  273 }

        RSEG CODE:CODE:NOROOT(2)
        CFI Block cfiBlock114 Using cfiCommon0
        CFI NoFunction
        THUMB
??maincsm_onclose??rT:
        BX       PC
        Nop      
        CFI EndBlock cfiBlock114
        REQUIRE maincsm_onclose
//  274 

        RSEG CODE:CODE:NOROOT(2)
        CFI Block cfiBlock115 Using cfiCommon1
        CFI Function maincsm_onclose
        ARM
//  275 static void maincsm_onclose(CSM_RAM *csm)
//  276 {
maincsm_onclose:
        PUSH     {R4,LR}
        CFI ?RET Frame(CFA, -4)
        CFI R4 Frame(CFA, -8)
        CFI CFA R13+8
//  277   mfreeImages();
//  278   mfreelang();
//  279   deltimers();
//  280   SetVibration(0);
//  281   delimghdr();
//  282   PlayMelody_StopPlayback(PLAY_ID);
        LDR      R4,??DataTable66  ;; lang
        BL       mfreeImages
        BL       mfreelang
        BL       deltimers
        MOV      R0,#+0
        SWI      +124
        BL       delimghdr
        LDR      R0,[R4, #+616]
        SWI      +550
//  283   if(mode==0)savedata(1);
        LDR      R0,[R4, #+596]
        CMP      R0,#+0
        BNE      ??maincsm_onclose_0
        MOV      R0,#+1
        BL       savedata
//  284   SUBPROC((void *)ElfKiller);
??maincsm_onclose_0:
        LDR      R0,??maincsm_onclose_1  ;; ElfKiller
        SWI      +369
//  285 }
        POP      {R4,PC}          ;; return
        DATA
??maincsm_onclose_1:
        DC32     ElfKiller
        CFI EndBlock cfiBlock115

        RSEG CODE:CODE:NOROOT(2)
        CFI Block cfiBlock116 Using cfiCommon0
        CFI NoFunction
        THUMB
??maincsm_onmessage??rT:
        BX       PC
        Nop      
        CFI EndBlock cfiBlock116
        REQUIRE maincsm_onmessage
//  286 

        RSEG CODE:CODE:NOROOT(2)
        CFI Block cfiBlock117 Using cfiCommon1
        CFI Function maincsm_onmessage
        ARM
//  287 static int maincsm_onmessage(CSM_RAM *data, GBS_MSG *msg)
//  288 {
maincsm_onmessage:
        PUSH     {LR}
        CFI ?RET Frame(CFA, -4)
        CFI CFA R13+4
//  289 
//  290   MAIN_CSM *csm=(MAIN_CSM*)data;
//  291   if ((msg->msg==MSG_GUI_DESTROYED)&&((int)msg->data0==csm->gui_id))
        LDR      R2,[R1, #+4]
        MOV      R3,#+14
        ORR      R3,R3,#0x6400
        CMP      R2,R3
        BNE      ??maincsm_onmessage_0
        LDR      R2,[R1, #+12]
        LDR      R3,[R0, #+40]
        CMP      R2,R3
        BNE      ??maincsm_onmessage_1
//  292   {
//  293     csm->csm.state=-3;
        MVN      R2,#+2
        STR      R2,[R0, #+16]
//  294   }
//  295  if (msg->msg==MSG_RECONFIGURE_REQ)
??maincsm_onmessage_0:
        LDR      R0,[R1, #+4]
        MOV      R2,#+175
        ORR      R2,R2,#0xDE00
        CMP      R0,R2
        BNE      ??maincsm_onmessage_1
//  296   {
//  297     extern const char *successed_config_filename;
//  298     if (strcmp_nocase(successed_config_filename,(char *)msg->data0)==0)
        LDR      R0,[R1, #+12]
        LDR      R1,??DataTable65  ;; successed_config_filename
        LDR      R1,[R1, #+0]
??maincsm_onmessage_2:
        LDRB     R2,[R1, #+0]
        CMP      R2,#+97
        BLT      ??maincsm_onmessage_3
        CMP      R2,#+123
        SUBLT    R2,R2,#+32
??maincsm_onmessage_3:
        LDRB     R3,[R0, #+0]
        ADD      R1,R1,#+1
        CMP      R3,#+97
        BLT      ??maincsm_onmessage_4
        CMP      R3,#+123
        SUBLT    R3,R3,#+32
??maincsm_onmessage_4:
        ADD      R0,R0,#+1
        SUBS     R3,R2,R3
        BNE      ??maincsm_onmessage_1
        CMP      R2,#+0
        BNE      ??maincsm_onmessage_2
//  299     {
//  300       InitConfig();
        _BLF     InitConfig,??InitConfig??rA
//  301       DirectRedrawGUI();
        SWI      +319
//  302     }
//  303   }
//  304    return(1);
??maincsm_onmessage_1:
        MOV      R0,#+1
        POP      {PC}             ;; return
        CFI EndBlock cfiBlock117
//  305 }

        RSEG CODE:CODE:NOROOT(2)
        DATA
??DataTable65:
        DC32     successed_config_filename

        RSEG CODE:CODE:NOROOT(2)
        CFI Block cfiBlock118 Using cfiCommon0
        CFI NoFunction
        THUMB
??UpdateCSMname??rT:
        BX       PC
        Nop      
        CFI EndBlock cfiBlock118
        REQUIRE UpdateCSMname

        RSEG DATA_C:CONST:SORT:NOROOT(2)
// char const __data perc_t[3]
perc_t:
        DATA
        DC8 "%t"
        DC8 0
        DC8 "%d \367 %d \354 %d \361"
        DC8 0
        DC8 "%d \354 %d \361"
        DC8 0, 0
        DC8 "%d \361"
        DC8 0, 0, 0
        DC8 "<  %d  >"
        DC8 0, 0, 0
        DC8 "%d.  %s  %d"
        DC8 "%t: %d vs Cpu: %d "
        DC8 0
        DC8 "Ping-Pong Last Edition"
        DC8 0
        DC8 "\302\373\341\345\360\350\362\345 \377\347\373\352"
        DC8 0, 0
        DC8 "Select language"
        DC8 "\320\363\361\361\352\350\351"
        DC8 "English"
        DC8 "%t%s%s"
        DC8 0
        DC8 "img\\"
        DC8 0, 0, 0
        DC8 "%s: %t"
        DC8 0
// char const __data bgcol_lang_cur[4]
bgcol_lang_cur:
        DC8 1, 1, 1, 100
// char const __data linecol2[4]
linecol2:
        DC8 100, 0, 0, 100
// char const __data bgcol[4]
bgcol:
        DC8 50, 50, 50, 255
        DC32 maincsm_onmessage, maincsm_oncreate, 0, 0, 0, 0, maincsm_onclose
        DC32 44, 1, minus11, maincsm_name_body, 55AACCCCH, 3333AA55H, 0
        DC16 139
        DC8 0, 0

        RSEG DATA_C:CONST:SORT:NOROOT(2)
`?<Constant "data.sys">`:
        DATA
        DC8 "data.sys"
        DC8 0, 0, 0

        RSEG DATA_C:CONST:SORT:NOROOT(2)
`?<Constant "save\\\\savedata.pp">`:
        DATA
        DC8 "save\\savedata.pp"
        DC8 0, 0, 0

        RSEG DATA_C:CONST:SORT:NOROOT(2)
`?<Constant "%t:%d %d cpu:%d %d \\302\\360...">`:
        DATA
        DC8 "%t:%d %d cpu:%d %d \302\360\345\354\377: %s"
        DC8 0, 0, 0
        DC8 "%t:%d cpu:%d \302\360\345\354\377: %s"
        DC8 0

        RSEG DATA_C:CONST:SORT:NOROOT(2)
// int const __data rndtable[64]
rndtable:
        DATA
        DC32 0, 1, 6, -3, 7, -2, 5, -1, 3, 4, 2, -7, -5, 0, 4, 1, 3, -4, 4, 6
        DC32 -1, 2, 7, -3, -7, -5, -3, 0, 3, 0, 2, 4, -7, 1, 5, 3, 0, 2, -5, -2
        DC32 5, 7, -1, 2, -5, 3, 1, 4, -3, -7, 2, 6, 0, -2, 1, 3, 5, -4, -1, 2
        DC32 0, -3, 4, -6

        RSEG DATA_C:CONST:SORT:NOROOT(2)
// int const __data minus11
minus11:
        DATA
        DC32 -11

        RSEG DATA_C:CONST:SORT:NOROOT(2)
gui_methods:
        DATA
        DC32 OnRedraw, onCreate, onClose, onFocus, onUnfocus, OnKey, 0H
        DC32 kill_data, method8, method9, 0H
        DC16 0, 0, 239, 319
//  306 
//  307 
//  308 static const struct
//  309 {
//  310   CSM_DESC maincsm;
//  311   WSHDR maincsm_name;
//  312 }MAINCSM =
//  313 {
//  314   {
//  315   maincsm_onmessage,
//  316   maincsm_oncreate,
//  317 #ifdef NEWSGOLD
//  318   0,
//  319   0,
//  320   0,
//  321   0,
//  322 #endif
//  323   maincsm_onclose,
//  324   sizeof(MAIN_CSM),
//  325   1,
//  326   &minus11
//  327   },
//  328   {
//  329     maincsm_name_body,
//  330     NAMECSM_MAGIC1,
//  331     NAMECSM_MAGIC2,
//  332     0x0,
//  333     139
//  334   }
//  335 };

        RSEG CODE:CODE:NOROOT(2)
        CFI Block cfiBlock119 Using cfiCommon1
        CFI Function UpdateCSMname
        ARM
//  336 void UpdateCSMname(void)
//  337 {
//  338   if (status==game)wsprintf((WSHDR *)(&MAINCSM.maincsm_name),"%t: %d vs Cpu: %d ",name,user.lifetime,cpu.lifetime);
UpdateCSMname:
        LDR      R1,??DataTable66  ;; lang
        LDR      R0,??DataTable67  ;; perc_t
        PUSH     {LR}
        CFI ?RET Frame(CFA, -4)
        CFI CFA R13+4
        LDRB     R2,[R1, #+660]
        CMP      R2,#+5
        BNE      ??UpdateCSMname_0
        LDR      R2,[R1, #+448]
        PUSH     {R2}
        CFI CFA R13+8
        LDR      R3,[R1, #+412]
        LDR      R2,??DataTable68  ;; name
        ADD      R1,R0,#+64
        ADD      R0,R0,#+232
        SWI      +292
        ADD      SP,SP,#+4
        CFI CFA R13+4
        POP      {PC}
//  339   else wsprintf((WSHDR *)(&MAINCSM.maincsm_name),perc_t,"Ping-Pong Last Edition");
??UpdateCSMname_0:
        ADD      R2,R0,#+84
        MOV      R1,R0
        ADD      R0,R0,#+232
        SWI      +292
//  340 }
        POP      {PC}             ;; return
        CFI EndBlock cfiBlock119

        RSEG CODE:CODE:NOROOT(2)
        DATA
??DataTable66:
        DC32     lang

        RSEG CODE:CODE:NOROOT(2)
        DATA
??DataTable67:
        DC32     perc_t

        RSEG CODE:CODE:NOROOT(2)
        DATA
??DataTable68:
        DC32     name

        RSEG CODE:CODE:NOROOT(2)
        CFI Block cfiBlock120 Using cfiCommon0
        CFI NoFunction
        THUMB
??main??rT:
        BX       PC
        Nop      
        CFI EndBlock cfiBlock120
        REQUIRE main
//  341 
//  342 

        RSEG CODE:CODE:NOROOT(2)
        CFI Block cfiBlock121 Using cfiCommon1
        CFI Function main
        ARM
//  343 int main()
//  344 {
main:
        PUSH     {LR}
        CFI ?RET Frame(CFA, -4)
        CFI CFA R13+4
        SUB      SP,SP,#+44
        CFI CFA R13+48
//  345   MAIN_CSM main_csm;
//  346   UpdateCSMname();
        BL       UpdateCSMname
//  347   CreateCSM(&MAINCSM.maincsm,&main_csm,0);
        LDR      R0,??main_0      ;; perc_t + 192
        MOV      R2,#+0
        MOV      R1,SP
        SWI      +263
//  348   InitConfig();
        _BLF     InitConfig,??InitConfig??rA
//  349   Init();
        BL       Init
//  350   return 0;
        MOV      R0,#+0
        ADD      SP,SP,#+44
        CFI CFA R13+4
        POP      {PC}             ;; return
        DATA
??main_0:
        DC32     perc_t + 192
        CFI EndBlock cfiBlock121
//  351 }

        RSEG CODE:CODE:NOROOT(2)
        CFI Block cfiBlock122 Using cfiCommon1
        CFI NoFunction
        ARM
??kill_data??rA:
        LDR      R12,??Subroutine61_0  ;; kill_data
        BX       R12
        DATA
??Subroutine61_0:
        DC32     kill_data
        CFI EndBlock cfiBlock122

        RSEG CODE:CODE:NOROOT(2)
        CFI Block cfiBlock123 Using cfiCommon1
        CFI NoFunction
        ARM
??InitConfig??rA:
        LDR      R12,??Subroutine62_0  ;; InitConfig
        BX       R12
        DATA
??Subroutine62_0:
        DC32     InitConfig
        CFI EndBlock cfiBlock123

        RSEG DATA_ID:CONST:SORT:NOROOT(2)
`?<Initializer for lang>`:
        DATA
        DC8 0, 0, 0, 0, 0, 0, 0, 0, 0, 0, 0, 0, 0, 0, 0, 0
        DC8 0, 0, 0, 0, 0, 0, 0, 0, 0, 0, 0, 0, 0, 0, 0, 0
        DC8 0, 0, 0, 0, 0, 0, 0, 0, 0, 0, 0, 0, 0, 0, 0, 0
        DC8 0, 0, 0, 0, 0, 0, 0, 0, 0, 0, 0, 0, 0, 0, 0, 0
        DC8 0, 0, 0, 0, 0, 0, 0, 0, 0, 0, 0, 0, 0, 0, 0, 0
        DC8 0, 0, 0, 0, 0, 0, 0, 0, 0, 0, 0, 0, 0, 0, 0, 0
        DC8 0, 0, 0, 0, 0, 0, 0, 0, 0, 0, 0, 0, 0, 0, 0, 0
        DC8 0, 0, 0, 0, 0, 0, 0, 0, 0, 0, 0, 0, 0, 0, 0, 0
        DC8 0, 0, 0, 0, 0, 0, 0, 0, 0, 0, 0, 0, 0, 0, 0, 0
        DC8 0, 0, 0, 0, 0, 0, 0, 0, 0, 0, 0, 0, 0, 0, 0, 0
        DC8 0, 0, 0, 0, 0, 0, 0, 0, 0, 0, 0, 0, 0, 0, 0, 0
        DC8 0, 0, 0, 0, 0, 0, 0, 0, 0, 0, 0, 0, 0, 0, 0, 0
        DC8 0, 0, 0, 0, 0, 0, 0, 0, 0, 0, 0, 0, 0, 0, 0, 0
        DC8 0, 0, 0, 0, 0, 0, 0, 0, 0, 0, 0, 0, 0, 0, 0, 0
        DC8 0, 0, 0, 0, 0, 0, 0, 0, 0, 0, 0, 0, 0, 0, 0, 0
`?<Initializer for record>`:
        DC8 0, 0, 0, 0, 0, 0, 0, 0, 0, 0, 0, 0, 0, 0, 0, 0
        DC8 0, 0, 0, 0, 0, 0, 0, 0, 0, 0, 0, 0, 0, 0, 0, 0
        DC8 0, 0, 0, 0, 0, 0, 0, 0, 0, 0, 0, 0, 0, 0, 0, 0
        DC8 0, 0, 0, 0, 0, 0, 0, 0, 0, 0, 0, 0, 0, 0, 0, 0
        DC8 0, 0, 0, 0, 0, 0, 0, 0, 0, 0, 0, 0, 0, 0, 0, 0
        DC8 0, 0, 0, 0, 0, 0, 0, 0, 0, 0, 0, 0, 0, 0, 0, 0
        DC8 0, 0, 0, 0, 0, 0, 0, 0, 0, 0, 0, 0, 0, 0, 0, 0, 0, 0, 0, 0
`?<Initializer for ball>`:
        DC8 0, 0, 0, 0, 0, 0, 0, 0, 0, 0, 0, 0, 0, 0, 0, 0
        DC8 0, 0, 0, 0, 0, 0, 0, 0, 0, 0, 0, 0, 0, 0, 0, 0, 0, 0, 0, 0
`?<Initializer for user>`:
        DC8 0, 0, 0, 0, 0, 0, 0, 0, 0, 0, 0, 0, 0, 0, 0, 0
        DC8 0, 0, 0, 0, 0, 0, 0, 0, 0, 0, 0, 0, 0, 0, 0, 0, 0, 0, 0, 0
`?<Initializer for cpu>`:
        DC8 0, 0, 0, 0, 0, 0, 0, 0, 0, 0, 0, 0, 0, 0, 0, 0
        DC8 0, 0, 0, 0, 0, 0, 0, 0, 0, 0, 0, 0, 0, 0, 0, 0, 0, 0, 0, 0
`?<Initializer for pics>`:
        DC8 0, 0, 0, 0, 0, 0, 0, 0, 0, 0, 0, 0, 0, 0, 0, 0
        DC8 0, 0, 0, 0, 0, 0, 0, 0
`?<Initializer for images>`:
        DC8 0, 0, 0, 0, 0, 0, 0, 0, 0, 0, 0, 0, 0, 0, 0, 0
        DC8 0, 0, 0, 0, 0, 0, 0, 0
`?<Initializer for Time>`:
        DC8 0, 0, 0, 0, 0, 0, 0, 0, 0, 0, 0, 0, 0, 0, 0, 0, 0, 0, 0, 0
`?<Initializer for color_frame>`:
        DC32 23, 23, 23, 23, 23, 23, 23, 23
`?<Initializer for clear>`:
        DC32 0
`?<Initializer for rndindex>`:
        DC32 0
`?<Initializer for running>`:
        DC32 0
`?<Initializer for cur_x>`:
        DC32 30
`?<Initializer for cur_y>`:
        DC32 112
`?<Initializer for main_y>`:
        DC32 60
`?<Initializer for difficult>`:
        DC32 0
`?<Initializer for lives>`:
        DC32 7
`?<Initializer for mode>`:
        DC32 0
`?<Initializer for speed_game>`:
        DC32 0
`?<Initializer for gdy>`:
        DC8 0, 0, 0, 0
`?<Initializer for def_vol>`:
        DC32 0
`?<Initializer for on_off_sound>`:
        DC32 0
`?<Initializer for PLAY_ID>`:
        DC32 4095
`?<Initializer for saveload>`:
        DC32 1
`?<Initializer for img_count>`:
        DC8 0, 0, 0, 0
`?<Initializer for game_new_cont>`:
        DC32 1
`?<Initializer for langenru>`:
        DC32 0
`?<Initializer for vibra>`:
        DC8 0, 0, 0, 0
`?<Initializer for exiting>`:
        DC32 0
`?<Initializer for error_count>`:
        DC32 0
`?<Initializer for AI_line>`:
        DC32 0
`?<Initializer for isload>`:
        DC32 0
`?<Initializer for folders>`:
        DC8 0, 0, 0, 0
`?<Initializer for status>`:
        DC8 0
        DC8 0, 0, 0
`?<Initializer for tmr>`:
        DC8 0, 0, 0, 0, 0, 0, 0, 0, 0, 0, 0, 0, 0, 0, 0, 0
`?<Initializer for vibr>`:
        DC8 0, 0, 0, 0, 0, 0, 0, 0, 0, 0, 0, 0, 0, 0, 0, 0

        RSEG INITTAB:CODE:ROOT(2)
        DATA
?init?tab?DATA_Z:
        DCD      sfe(DATA_Z) - sfb(DATA_Z), sfb(DATA_Z), sfb(DATA_Z)

        RSEG DATA_ID:CONST:SORT:NOROOT(2)
`?*?DATA_ID`:

        RSEG INITTAB:CODE:ROOT(2)
        DATA
?init?tab?DATA_I:
        DCD      sfe(DATA_I) - sfb(DATA_I), sfb(DATA_I), sfb(DATA_ID)

        END
// 
// 15 088 bytes in segment CODE
//  2 612 bytes in segment DATA_C
//    696 bytes in segment DATA_I
//    696 bytes in segment DATA_ID
//    288 bytes in segment DATA_Z
//     24 bytes in segment INITTAB
// 
// 14 820 bytes of CODE  memory (+ 292 bytes shared)
//  3 308 bytes of CONST memory
//    984 bytes of DATA  memory
//
//Errors: none
//Warnings: none
