##############################################################################
#                                                                            #
# IAR ARM ANSI C/C++ Compiler V4.42A/W32 EVALUATION    30/Jan/2010  20:43:08 #
# Copyright 1999-2005 IAR Systems. All rights reserved.                      #
#                                                                            #
#    Cpu mode        =  interwork                                            #
#    Endian          =  little                                               #
#    Stack alignment =  4                                                    #
#    Source file     =  C:\arm\sudoku\conf_loader.c                          #
#    Command line    =  C:\arm\sudoku\conf_loader.c -D NEWSGOLD -D ELKA -D   #
#                       LANG_RU -lC C:\arm\sudoku\Other\NewSGold\E71\List\   #
#                       -o C:\arm\sudoku\Other\NewSGold\E71\Obj\ -s9         #
#                       --no_unroll --no_clustering --cpu_mode arm --endian  #
#                       little --cpu ARM926EJ-S --stack_align 4 --interwork  #
#                       -e --fpu None --dlib_config "C:\arm2\Embedded        #
#                       Workbench 4.0 Evaluation\ARM\LIB\dl5tpainl8n.h" -I   #
#                       "C:\arm2\Embedded Workbench 4.0                      #
#                       Evaluation\ARM\INC\" --inline_threshold=2            #
#    List file       =  C:\arm\sudoku\Other\NewSGold\E71\List\conf_loader.ls #
#                       t                                                    #
#    Object file     =  C:\arm\sudoku\Other\NewSGold\E71\Obj\conf_loader.r79 #
#                                                                            #
#                                                                            #
##############################################################################

C:\arm\sudoku\conf_loader.c
      1          #include "..\inc\swilib.h"
      2          #include "..\inc\cfg_items.h"
      3          #include "conf_loader.h"
      4          
      5          extern char cfgfile[];
      6          

   \                                 In segment DATA_I, align 4, align-sorted
      7          const char *successed_config_filename="";
   \                     successed_config_filename:
   \   00000000                      DS8 4
   \   00000004                      REQUIRE `?<Initializer for successed_config_filename>`
      8          
      9          #pragma segment="CONFIG_C"

   \                                 In segment CODE, align 4, keep-with-next
     10          int LoadConfigData(const char *fname)
     11          {
   \                     LoadConfigData:
   \   00000000   F14F2DE9           PUSH     {R0,R4-R11,LR}
     12            int f;
     13            unsigned int ul;
     14            char *buf;
     15            int result=0;
     16            void *cfg;
     17            unsigned int rlen, end;
     18          
     19            extern const CFG_HDR cfghdr_00; //first var in CONFIG
     20            cfg=(void*)&cfghdr_00;
     21          
     22            unsigned int len=(int)__segment_end("CONFIG_C")-(int)__segment_begin("CONFIG_C");
   \   00000004   14519FE5           LDR      R5,??LoadConfigData_0  ;; SFE(CONFIG_C) - SFB(CONFIG_C)
   \   00000008   04D04DE2           SUB      SP,SP,#+4
   \   0000000C   0040A0E3           MOV      R4,#+0
     23          
     24            if (!(buf=malloc(len))) return -1;
   \   00000010   0500A0E1           MOV      R0,R5
   \   00000014   140000EF           SWI      +20
   \   00000018   0060B0E1           MOVS     R6,R0
   \   0000001C   0400E001           MVNEQ    R0,R4
   \   00000020   F68FBD08           POPEQ    {R1,R2,R4-R11,PC}
     25            if ((f=fopen(fname,A_ReadOnly+A_BIN,P_READ,&ul))!=-1)
   \   00000024   04009DE5           LDR      R0,[SP, #+4]
   \   00000028   F4709FE5           LDR      R7,??LoadConfigData_0+0x4  ;; cfghdr_00
   \   0000002C   0D30A0E1           MOV      R3,SP
   \   00000030   8020A0E3           MOV      R2,#+128
   \   00000034   801CA0E3           MOV      R1,#+32768
   \   00000038   0A0000EF           SWI      +10
   \   0000003C   00A0A0E1           MOV      R10,R0
   \   00000040   0480E0E1           MVN      R8,R4
   \   00000044   08005AE1           CMP      R10,R8
   \   00000048   1800000A           BEQ      ??LoadConfigData_1
     26            {
     27              rlen=fread(f,buf,len,&ul);
   \   0000004C   0D30A0E1           MOV      R3,SP
   \   00000050   0520A0E1           MOV      R2,R5
   \   00000054   0610A0E1           MOV      R1,R6
   \   00000058   0B0000EF           SWI      +11
   \   0000005C   0090A0E1           MOV      R9,R0
     28              end=lseek(f,0,S_END,&ul,&ul);
   \   00000060   0D00A0E1           MOV      R0,SP
   \   00000064   01002DE9           PUSH     {R0}
   \   00000068   04308DE2           ADD      R3,SP,#+4
   \   0000006C   0220A0E3           MOV      R2,#+2
   \   00000070   0010A0E3           MOV      R1,#+0
   \   00000074   0A00A0E1           MOV      R0,R10
   \   00000078   0F0000EF           SWI      +15
   \   0000007C   00B0A0E1           MOV      R11,R0
     29              fclose(f,&ul);
   \   00000080   04108DE2           ADD      R1,SP,#+4
   \   00000084   0A00A0E1           MOV      R0,R10
   \   00000088   0D0000EF           SWI      +13
     30              if (rlen!=end || rlen!=len)  goto L_SAVENEWCFG;
   \   0000008C   0B0059E1           CMP      R9,R11
   \   00000090   04D08DE2           ADD      SP,SP,#+4
   \   00000094   05005901           CMPEQ    R9,R5
   \   00000098   0400001A           BNE      ??LoadConfigData_1
     31              memcpy(cfg,buf,len);
   \   0000009C   0520A0E1           MOV      R2,R5
   \   000000A0   0610A0E1           MOV      R1,R6
   \   000000A4   0700A0E1           MOV      R0,R7
   \   000000A8   1E0100EF           SWI      +286
   \   000000AC   130000EA           B        ??LoadConfigData_2
     32            }
     33            else
     34            {
     35            L_SAVENEWCFG:
     36              if ((f=fopen(fname,A_ReadWrite+A_Create+A_Truncate,P_READ+P_WRITE,&ul))!=-1)
   \                     ??LoadConfigData_1:
   \   000000B0   04009DE5           LDR      R0,[SP, #+4]
   \   000000B4   0D30A0E1           MOV      R3,SP
   \   000000B8   602FA0E3           MOV      R2,#+384
   \   000000BC   0210A0E3           MOV      R1,#+2
   \   000000C0   C01F81E3           ORR      R1,R1,#0x300
   \   000000C4   0A0000EF           SWI      +10
   \   000000C8   00A0A0E1           MOV      R10,R0
   \   000000CC   08005AE1           CMP      R10,R8
   \   000000D0   0900000A           BEQ      ??LoadConfigData_3
     37              {
     38                if (fwrite(f,cfg,len,&ul)!=len) result=-1;
   \   000000D4   0D30A0E1           MOV      R3,SP
   \   000000D8   0520A0E1           MOV      R2,R5
   \   000000DC   0710A0E1           MOV      R1,R7
   \   000000E0   0C0000EF           SWI      +12
   \   000000E4   050050E1           CMP      R0,R5
   \   000000E8   0840A011           MOVNE    R4,R8
     39                fclose(f,&ul);
   \   000000EC   0D10A0E1           MOV      R1,SP
   \   000000F0   0A00A0E1           MOV      R0,R10
   \   000000F4   0D0000EF           SWI      +13
   \   000000F8   000000EA           B        ??LoadConfigData_2
     40              }
     41              else
     42                result=-1;
   \                     ??LoadConfigData_3:
   \   000000FC   0840A0E1           MOV      R4,R8
     43            }
     44            mfree(buf);
   \                     ??LoadConfigData_2:
   \   00000100   0600A0E1           MOV      R0,R6
   \   00000104   150000EF           SWI      +21
     45            if (result>=0) successed_config_filename=fname;
   \   00000108   000054E3           CMP      R4,#+0
   \   0000010C   14009F55           LDRPL    R0,??LoadConfigData_0+0x8  ;; successed_config_filename
   \   00000110   04109D55           LDRPL    R1,[SP, #+4]
   \   00000114   00108055           STRPL    R1,[R0, #+0]
     46            return(result);
   \   00000118   0400A0E1           MOV      R0,R4
   \   0000011C   F68FBDE8           POP      {R1,R2,R4-R11,PC}  ;; return
   \                     ??LoadConfigData_0:
   \   00000120   ........           DC32     SFE(CONFIG_C) - SFB(CONFIG_C)
   \   00000124   ........           DC32     cfghdr_00
   \   00000128   ........           DC32     successed_config_filename
     47          }

   \                                 In segment CODE, align 4, keep-with-next
     48          void InitConfig()
     49          {
     50           LoadConfigData(cfgfile);
   \                     InitConfig:
   \   00000000   00009FE5           LDR      R0,??InitConfig_0  ;; cfgfile
   \   00000004   ........           B        LoadConfigData   ;; tailcall
   \                     ??InitConfig_0:
   \   00000008   ........           DC32     cfgfile
     51          }

   \                                 In segment DATA_ID, align 4, align-sorted
   \                     `?<Initializer for successed_config_filename>`:
   \   00000000   ........           DC32 `?<Constant "">`

   \                                 In segment CONFIG_C, align 1

   \                                 In segment DATA_C, align 1, align-sorted
   \                     `?<Constant "">`:
   \   00000000   00                 DC8 ""

   Maximum stack usage in bytes:

     Function       CSTACK
     --------       ------
     InitConfig         4
     LoadConfigData    48


   Segment part sizes:

     Function/Label                 Bytes
     --------------                 -----
     successed_config_filename         4
     LoadConfigData                  300
     InitConfig                       12
     ?<Initializer for successed_config_filename>
                                       4
     ?<Constant "">                    1
      Others                          20

 
 320 bytes in segment CODE
   1 byte  in segment DATA_C
   4 bytes in segment DATA_I
   4 bytes in segment DATA_ID
  12 bytes in segment INITTAB
 
 312 bytes of CODE  memory (+ 20 bytes shared)
   5 bytes of CONST memory
   4 bytes of DATA  memory

Errors: none
Warnings: none
