##############################################################################
#                                                                            #
# IAR ARM ANSI C/C++ Compiler V4.41A/W32 EVALUATION    27/Feb/2008  23:00:43 #
# Copyright 1999-2005 IAR Systems. All rights reserved.                      #
#                                                                            #
#    Cpu mode        =  interwork                                            #
#    Endian          =  little                                               #
#    Stack alignment =  4                                                    #
#    Source file     =  D:\Pasha\elf\mod_src\naticq_2nd_mod to               #
#                       all(17.02.08)\history.c                              #
#    Command line    =  "D:\Pasha\elf\mod_src\naticq_2nd_mod to              #
#                       all(17.02.08)\history.c" -D NEWSGOLD -D ELKA -D      #
#                       EVILFOX --preprocess "D:\Pasha\elf\mod_src\naticq_2n #
#                       d_mod to all(17.02.08)\EVILFOX_ICQ\List\" -lC        #
#                       "D:\Pasha\elf\mod_src\naticq_2nd_mod to              #
#                       all(17.02.08)\EVILFOX_ICQ\List\" -o                  #
#                       "D:\Pasha\elf\mod_src\naticq_2nd_mod to              #
#                       all(17.02.08)\EVILFOX_ICQ\Obj\" -s9 --no_unroll      #
#                       --cpu_mode arm --endian little --cpu ARM926EJ-S      #
#                       --stack_align 4 --interwork -e --fpu None            #
#                       --dlib_config "D:\Pasha\ARM_Embedded_Workbench\Embed #
#                       ded Workbench 4.0 Evaluation\ARM\LIB\dl5tpainl8n.h"  #
#                       -I "D:\Pasha\ARM_Embedded_Workbench\Embedded         #
#                       Workbench 4.0 Evaluation\ARM\INC\"                   #
#                       --inline_threshold=2                                 #
#    List file       =  D:\Pasha\elf\mod_src\naticq_2nd_mod to               #
#                       all(17.02.08)\EVILFOX_ICQ\List\history.lst           #
#    Object file     =  D:\Pasha\elf\mod_src\naticq_2nd_mod to               #
#                       all(17.02.08)\EVILFOX_ICQ\Obj\history.r79            #
#                                                                            #
#                                                                            #
##############################################################################

D:\Pasha\elf\mod_src\naticq_2nd_mod to all(17.02.08)\history.c
      1          #include "../inc/swilib.h"
      2          #include "naticq.h"
      3          #include "history.h"
      4          #include "language.h"
      5          
      6          extern const char HIST_PATH[64];
      7          extern const int LOG_ALL;
      8          #ifdef EVILFOX_2
      9          #else
     10          extern const int HISTORY_TYPE;
     11          #endif
     12          extern const unsigned int UIN;
     13          /*
     14            Добавлет строку в историю контакта CLIST
     15          */
     16          #ifdef EVILFOX_2
     17          static do_logwrite(const char *n_a_m_e_z, char *text)
     18          {
     19            volatile int hFile;
     20            unsigned int io_error = 0;
     21            char error[36];
     22            char fullname[128];
     23            snprintf(fullname,127,"%s\\%u\\%s.txt", HIST_PATH, UIN, n_a_m_e_z);
     24            hFile = fopen(fullname,A_ReadWrite + A_Create + A_Append + A_BIN,P_READ+P_WRITE, &io_error);
     25            if(hFile!=-1)
     26            {
     27              fwrite(hFile, text, strlen(text), &io_error);
     28              fclose(hFile, &io_error);
     29            }
     30            else
     31            {
     32              snprintf(error,35, LG_HISTIOERR, io_error);
     33              LockSched();
     34              ShowMSG(1,(int)error); 
     35              UnlockSched();
     36            }
     37            mfree(text);
     38          }
     39          #else

   \                                 In segment CODE, align 4, keep-with-next
     40          static do_logwrite(unsigned int uin, char *text)
     41          {
     42            volatile int hFile;
     43            unsigned int io_error = 0;
     44            unsigned int ul;
     45            char error[36];
     46            char fullname[128];
     47            char hist_path[128];
     48            if(HISTORY_TYPE)
   \                     do_logwrite:
   \   00000000   ........           LDR      R3,??DataTable5  ;; HIST_PATH
   \   00000004   70402DE9           PUSH     {R4-R6,LR}
   \   00000008   ........           LDR      R6,??DataTable4  ;; `?<Constant "%s\\\\%u">`
   \   0000000C   0040A0E1           MOV      R4,R0
   \   00000010   ........           LDR      R0,??DataTable6  ;; HISTORY_TYPE
   \   00000014   4CDF4DE2           SUB      SP,SP,#+304
   \   00000018   000090E5           LDR      R0,[R0, #+0]
   \   0000001C   0150A0E1           MOV      R5,R1
   \   00000020   0010A0E3           MOV      R1,#+0
   \   00000024   00108DE5           STR      R1,[SP, #+0]
   \   00000028   000050E3           CMP      R0,#+0
   \   0000002C   0800000A           BEQ      ??do_logwrite_0
     49              snprintf(hist_path,127,"%s\\%u",HIST_PATH, UIN);
   \   00000030   ........           LDR      R0,??DataTable7  ;; UIN
   \   00000034   0620A0E1           MOV      R2,R6
   \   00000038   000090E5           LDR      R0,[R0, #+0]
   \   0000003C   7F10A0E3           MOV      R1,#+127
   \   00000040   01002DE9           PUSH     {R0}
   \   00000044   90008DE2           ADD      R0,SP,#+144
   \   00000048   1B0100EF           SWI      +283
   \   0000004C   04D08DE2           ADD      SP,SP,#+4
   \   00000050   030000EA           B        ??do_logwrite_1
     50            else
     51              snprintf(hist_path,127,"%s",HIST_PATH);
   \                     ??do_logwrite_0:
   \   00000054   342F8FE2           ADR      R2,??do_logwrite_2  ;; "%s"
   \   00000058   7F10A0E3           MOV      R1,#+127
   \   0000005C   8C008DE2           ADD      R0,SP,#+140
   \   00000060   1B0100EF           SWI      +283
     52            if (!isdir(hist_path,&ul))
   \                     ??do_logwrite_1:
   \   00000064   08108DE2           ADD      R1,SP,#+8
   \   00000068   8C008DE2           ADD      R0,SP,#+140
   \   0000006C   910000EF           SWI      +145
   \   00000070   000050E3           CMP      R0,#+0
   \   00000074   0200001A           BNE      ??do_logwrite_3
     53            {
     54              mkdir(hist_path,&ul);
   \   00000078   08108DE2           ADD      R1,SP,#+8
   \   0000007C   8C008DE2           ADD      R0,SP,#+140
   \   00000080   100000EF           SWI      +16
     55            }
     56            snprintf(fullname,127,"%s\\%u.txt", hist_path, uin);
   \                     ??do_logwrite_3:
   \   00000084   10002DE9           PUSH     {R4}
   \   00000088   90308DE2           ADD      R3,SP,#+144
   \   0000008C   082086E2           ADD      R2,R6,#+8
   \   00000090   7F10A0E3           MOV      R1,#+127
   \   00000094   10008DE2           ADD      R0,SP,#+16
   \   00000098   1B0100EF           SWI      +283
     57            // Открываем файл на дозапись и создаём в случае неудачи
     58            hFile = fopen(fullname,A_ReadWrite + A_Create + A_Append + A_BIN,P_READ+P_WRITE, &io_error);
   \   0000009C   04308DE2           ADD      R3,SP,#+4
   \   000000A0   602FA0E3           MOV      R2,#+384
   \   000000A4   0A10A0E3           MOV      R1,#+10
   \   000000A8   811C81E3           ORR      R1,R1,#0x8100
   \   000000AC   10008DE2           ADD      R0,SP,#+16
   \   000000B0   0A0000EF           SWI      +10
   \   000000B4   08008DE5           STR      R0,[SP, #+8]
     59            if(hFile!=-1)
   \   000000B8   08009DE5           LDR      R0,[SP, #+8]
   \   000000BC   04D08DE2           ADD      SP,SP,#+4
   \   000000C0   010070E3           CMN      R0,#+1
   \   000000C4   0A00000A           BEQ      ??do_logwrite_4
     60            {
     61              fwrite(hFile, text, strlen(text), &io_error);
   \   000000C8   0500A0E1           MOV      R0,R5
   \   000000CC   1B0000EF           SWI      +27
   \   000000D0   0D30A0E1           MOV      R3,SP
   \   000000D4   0020A0E1           MOV      R2,R0
   \   000000D8   04009DE5           LDR      R0,[SP, #+4]
   \   000000DC   0510A0E1           MOV      R1,R5
   \   000000E0   0C0000EF           SWI      +12
     62              fclose(hFile, &io_error);
   \   000000E4   04009DE5           LDR      R0,[SP, #+4]
   \   000000E8   0D10A0E1           MOV      R1,SP
   \   000000EC   0D0000EF           SWI      +13
   \   000000F0   090000EA           B        ??do_logwrite_5
     63            }
     64            else
     65            {
     66              snprintf(error,35, LG_HISTIOERR, io_error);
   \                     ??do_logwrite_4:
   \   000000F4   00309DE5           LDR      R3,[SP, #+0]
   \   000000F8   142086E2           ADD      R2,R6,#+20
   \   000000FC   2310A0E3           MOV      R1,#+35
   \   00000100   430F8DE2           ADD      R0,SP,#+268
   \   00000104   1B0100EF           SWI      +283
     67              LockSched();
   \   00000108   460100EF           SWI      +326
     68              ShowMSG(1,(int)error); 
   \   0000010C   431F8DE2           ADD      R1,SP,#+268
   \   00000110   0100A0E3           MOV      R0,#+1
   \   00000114   480100EF           SWI      +328
     69              UnlockSched();
   \   00000118   470100EF           SWI      +327
     70            }
     71            mfree(text);
   \                     ??do_logwrite_5:
   \   0000011C   0500A0E1           MOV      R0,R5
   \   00000120   150000EF           SWI      +21
     72          }
   \   00000124   4CDF8DE2           ADD      SP,SP,#+304
   \   00000128   7080BDE8           POP      {R4-R6,PC}       ;; return
   \                     ??do_logwrite_2:
   \   0000012C   25730000           DC8      "%s",+0
     73          #endif
     74          

   \                                 In segment CODE, align 4, keep-with-next
     75          void Add2History(CLIST *CListEx, char *header, char *message, int direction)
     76          {
   \                     Add2History:
   \   00000000   F0432DE9           PUSH     {R4-R9,LR}
   \   00000004   0040A0E1           MOV      R4,R0
     77            static const char *delim = "\r\n--------------<>-%04d\r\n";
     78            int len;
     79            if (!LOG_ALL) return;
   \   00000008   80009FE5           LDR      R0,??Add2History_0  ;; LOG_ALL
   \   0000000C   0150A0E1           MOV      R5,R1
   \   00000010   000090E5           LDR      R0,[R0, #+0]
   \   00000014   0260A0E1           MOV      R6,R2
   \   00000018   0370A0E1           MOV      R7,R3
   \   0000001C   000050E3           CMP      R0,#+0
   \   00000020   F083BD08           POPEQ    {R4-R9,PC}
     80            len=strlen(delim)+strlen(header)+strlen(message);
   \   00000024   68809FE5           LDR      R8,??Add2History_0+0x4  ;; `?<Constant "\\r\\n--------------<>-%0...">`
   \   00000028   0800A0E1           MOV      R0,R8
   \   0000002C   1B0000EF           SWI      +27
   \   00000030   0090A0E1           MOV      R9,R0
   \   00000034   0500A0E1           MOV      R0,R5
   \   00000038   1B0000EF           SWI      +27
   \   0000003C   099080E0           ADD      R9,R0,R9
   \   00000040   0600A0E1           MOV      R0,R6
   \   00000044   1B0000EF           SWI      +27
   \   00000048   090080E0           ADD      R0,R0,R9
     81            char *text=malloc(len+1);
   \   0000004C   010080E2           ADD      R0,R0,#+1
   \   00000050   140000EF           SWI      +20
   \   00000054   0090A0E1           MOV      R9,R0
     82            sprintf(text,delim,direction);
   \   00000058   0720A0E1           MOV      R2,R7
   \   0000005C   0810A0E1           MOV      R1,R8
   \   00000060   160000EF           SWI      +22
     83            strcat(text,header);
   \   00000064   0510A0E1           MOV      R1,R5
   \   00000068   0900A0E1           MOV      R0,R9
   \   0000006C   170000EF           SWI      +23
     84            strcat(text,message);
   \   00000070   0610A0E1           MOV      R1,R6
   \   00000074   0900A0E1           MOV      R0,R9
   \   00000078   170000EF           SWI      +23
     85          #ifdef EVILFOX_2
     86            do_logwrite(CListEx->name,text,CListEx->uin);
     87          #else
     88            SUBPROC((void*)do_logwrite,CListEx->uin,text);
   \   0000007C   0C1094E5           LDR      R1,[R4, #+12]
   \   00000080   10009FE5           LDR      R0,??Add2History_0+0x8  ;; do_logwrite
   \   00000084   0920A0E1           MOV      R2,R9
   \   00000088   710100EF           SWI      +369
     89          #endif
     90          }
   \   0000008C   F083BDE8           POP      {R4-R9,PC}       ;; return
   \                     ??Add2History_0:
   \   00000090   ........           DC32     LOG_ALL
   \   00000094   ........           DC32     `?<Constant "\\r\\n--------------<>-%0...">`
   \   00000098   ........           DC32     do_logwrite
     91          
     92          extern LOGQ *NewLOGQ(const char *s);
     93          extern int AddLOGQ(LOGQ **queue, LOGQ *p);
     94          
     95          //Делает ярким последний икс-статус, а остальные тусклыми

   \                                 In segment CODE, align 4, keep-with-next
     96          void ActivateLastX(LOGQ *p)
     97          {
     98            LOGQ *q = p, *lastX = 0;
   \                     ActivateLastX:
   \   00000000   0010A0E3           MOV      R1,#+0
   \   00000004   000050E3           CMP      R0,#+0
   \   00000008   1EFF2F01           BXEQ     LR
     99            while(q)
    100            {
    101              if((q->type&0x0F) == 3)
   \                     ??ActivateLastX_0:
   \   0000000C   0C2090E5           LDR      R2,[R0, #+12]
   \   00000010   0F2002E2           AND      R2,R2,#0xF
   \   00000014   030052E3           CMP      R2,#+3
    102              {
    103                lastX = q;
   \   00000018   0010A001           MOVEQ    R1,R0
    104                q->type = 0x13;
   \   0000001C   1320A003           MOVEQ    R2,#+19
   \   00000020   0C208005           STREQ    R2,[R0, #+12]
    105              }
    106              q = q->next;
   \   00000024   000090E5           LDR      R0,[R0, #+0]
    107            }
   \   00000028   000050E3           CMP      R0,#+0
   \   0000002C   F6FFFF1A           BNE      ??ActivateLastX_0
    108            if(lastX) lastX->type = 3;
   \   00000030   000051E3           CMP      R1,#+0
   \   00000034   0300A013           MOVNE    R0,#+3
   \   00000038   0C008115           STRNE    R0,[R1, #+12]
    109          }
   \   0000003C   1EFF2FE1           BX       LR               ;; return
    110          
    111          //Добавить элемент в лог первым

   \                                 In segment CODE, align 4, keep-with-next
    112          void AddFirstLOGQ(CLIST *t, LOGQ *p)
    113          {
   \                     AddFirstLOGQ:
   \   00000000   00402DE9           PUSH     {LR}
    114            LOGQ *q = t->log;
   \   00000004   702090E5           LDR      R2,[R0, #+112]
    115            if(!p) return;
   \   00000008   000051E3           CMP      R1,#+0
   \   0000000C   0080BD08           POPEQ    {PC}
    116            t->log = p;
   \   00000010   701080E5           STR      R1,[R0, #+112]
   \   00000014   003091E5           LDR      R3,[R1, #+0]
   \   00000018   000053E3           CMP      R3,#+0
   \   0000001C   0300000A           BEQ      ??AddFirstLOGQ_0
    117            while(p->next)
    118              p = p->next;
   \                     ??AddFirstLOGQ_1:
   \   00000020   001091E5           LDR      R1,[R1, #+0]
   \   00000024   003091E5           LDR      R3,[R1, #+0]
   \   00000028   000053E3           CMP      R3,#+0
   \   0000002C   FBFFFF1A           BNE      ??AddFirstLOGQ_1
    119            p->next = q;
   \                     ??AddFirstLOGQ_0:
   \   00000030   002081E5           STR      R2,[R1, #+0]
    120            ActivateLastX(t->log);
   \   00000034   700090E5           LDR      R0,[R0, #+112]
   \   00000038   ........           BL       ActivateLastX
    121          }
   \   0000003C   0080BDE8           POP      {PC}             ;; return
    122          
    123          //Удаляем лог с заданного элемента

   \                                 In segment CODE, align 4, keep-with-next
    124          void DeleteLOGQ(LOGQ *p)
    125          {
   \                     DeleteLOGQ:
   \   00000000   10402DE9           PUSH     {R4,LR}
   \   00000004   0040B0E1           MOVS     R4,R0
    126            if(!p) return;
   \   00000008   1080BD08           POPEQ    {R4,PC}
    127            if(p->next) DeleteLOGQ(p->next);
   \   0000000C   000094E5           LDR      R0,[R4, #+0]
   \   00000010   000050E3           CMP      R0,#+0
   \   00000014   0000000A           BEQ      ??DeleteLOGQ_0
   \   00000018   F8FFFFEB           BL       DeleteLOGQ
    128            mfree(p);
   \                     ??DeleteLOGQ_0:
   \   0000001C   0400A0E1           MOV      R0,R4
   \   00000020   150000EF           SWI      +21
    129          }
   \   00000024   1080BDE8           POP      {R4,PC}          ;; return
    130          
    131          //Проверка что в логе не только иксстасусы

   \                                 In segment CODE, align 4, keep-with-next
    132          int CheckLOGQ(CLIST *t)
    133          {
   \                     CheckLOGQ:
   \   00000000   10402DE9           PUSH     {R4,LR}
   \   00000004   0040A0E1           MOV      R4,R0
    134            LOGQ *p = t->log;
   \   00000008   700094E5           LDR      R0,[R4, #+112]
   \   0000000C   0010B0E1           MOVS     R1,R0
    135            if(!p) return 0;
   \   00000010   0200001A           BNE      ??CheckLOGQ_0
   \   00000014   0000A0E3           MOV      R0,#+0
   \   00000018   1080BDE8           POP      {R4,PC}
    136            for(; p->next && (p->type&0x0F)==3; p=p->next);
   \                     ??CheckLOGQ_1:
   \   0000001C   0210A0E1           MOV      R1,R2
   \                     ??CheckLOGQ_0:
   \   00000020   002091E5           LDR      R2,[R1, #+0]
   \   00000024   000052E3           CMP      R2,#+0
   \   00000028   0300000A           BEQ      ??CheckLOGQ_2
   \   0000002C   0C3091E5           LDR      R3,[R1, #+12]
   \   00000030   0F3003E2           AND      R3,R3,#0xF
   \   00000034   030053E3           CMP      R3,#+3
   \   00000038   F7FFFF0A           BEQ      ??CheckLOGQ_1
    137            if(p->next)
   \                     ??CheckLOGQ_2:
   \   0000003C   000052E3           CMP      R2,#+0
   \   00000040   0400000A           BEQ      ??CheckLOGQ_3
    138              if((p->type&0x0F)!=3)
   \   00000044   0C1091E5           LDR      R1,[R1, #+12]
   \   00000048   0F1001E2           AND      R1,R1,#0xF
   \   0000004C   030051E3           CMP      R1,#+3
    139                return 1;
   \   00000050   0100A013           MOVNE    R0,#+1
   \   00000054   1080BD18           POPNE    {R4,PC}
    140            DeleteLOGQ(t->log);
   \                     ??CheckLOGQ_3:
   \   00000058   ........           BL       DeleteLOGQ
    141            t->log = 0;
   \   0000005C   0000A0E3           MOV      R0,#+0
   \   00000060   700084E5           STR      R0,[R4, #+112]
    142            return 0;
   \   00000064   1080BDE8           POP      {R4,PC}          ;; return
    143          }
    144          

   \                                 In segment CODE, align 4, keep-with-next
    145          int GetHistory(CLIST *t, int bufsize)
    146          {
   \                     GetHistory:
   \   00000000   F14F2DE9           PUSH     {R0,R4-R11,LR}
    147            LOGQ *log, *head;
    148            static const char *delim = "\r\n--------------<>-000";
    149            volatile int hFile;
    150            unsigned int io_error = 0;
    151            char fullname[128], *s, *b, *e, *text, *str, *buf;
    152            int i, delimlen = strlen(delim)+3, direction;
   \   00000004   ........           LDR      R5,??DataTable4  ;; `?<Constant "%s\\\\%u">`
   \   00000008   90D04DE2           SUB      SP,SP,#+144
   \   0000000C   0180A0E1           MOV      R8,R1
   \   00000010   0040A0E3           MOV      R4,#+0
   \   00000014   08408DE5           STR      R4,[SP, #+8]
   \   00000018   340085E2           ADD      R0,R5,#+52
   \   0000001C   1B0000EF           SWI      +27
   \   00000020   036080E2           ADD      R6,R0,#+3
    153          #ifdef EVILFOX_2
    154          #else
    155            unsigned uin = t->uin;
   \   00000024   90009DE5           LDR      R0,[SP, #+144]
   \   00000028   0C9090E5           LDR      R9,[R0, #+12]
    156          #endif
    157            
    158            if(CheckLOGQ(t)) return 0;
   \   0000002C   ........           BL       CheckLOGQ
   \   00000030   000050E3           CMP      R0,#+0
   \   00000034   8200001A           BNE      ??GetHistory_0
    159            
    160            buf = text = malloc(bufsize);
   \   00000038   0800A0E1           MOV      R0,R8
   \   0000003C   140000EF           SWI      +20
    161            text[0] = 0;
    162            text[bufsize-1] = 0;
    163          #ifdef EVILFOX_2
    164              snprintf(fullname,127,"%s\\%u\\%s.txt", HIST_PATH, UIN, t->name);
    165          #else
    166            if(HISTORY_TYPE)
   \   00000040   ........           LDR      R3,??DataTable5  ;; HIST_PATH
   \   00000044   0070A0E1           MOV      R7,R0
   \   00000048   0C708DE5           STR      R7,[SP, #+12]
   \   0000004C   0040C7E5           STRB     R4,[R7, #+0]
   \   00000050   070088E0           ADD      R0,R8,R7
   \   00000054   014040E5           STRB     R4,[R0, #-1]
   \   00000058   ........           LDR      R0,??DataTable6  ;; HISTORY_TYPE
   \   0000005C   000090E5           LDR      R0,[R0, #+0]
   \   00000060   00022DE9           PUSH     {R9}
   \   00000064   000050E3           CMP      R0,#+0
   \   00000068   0800000A           BEQ      ??GetHistory_1
    167              snprintf(fullname,127,"%s\\%u\\%u.txt", HIST_PATH, UIN, uin);
   \   0000006C   ........           LDR      R0,??DataTable7  ;; UIN
   \   00000070   242085E2           ADD      R2,R5,#+36
   \   00000074   000090E5           LDR      R0,[R0, #+0]
   \   00000078   7F10A0E3           MOV      R1,#+127
   \   0000007C   01002DE9           PUSH     {R0}
   \   00000080   18008DE2           ADD      R0,SP,#+24
   \   00000084   1B0100EF           SWI      +283
   \   00000088   08D08DE2           ADD      SP,SP,#+8
   \   0000008C   040000EA           B        ??GetHistory_2
    168            else
    169              snprintf(fullname,127,"%s\\%u.txt", HIST_PATH, uin);
   \                     ??GetHistory_1:
   \   00000090   082085E2           ADD      R2,R5,#+8
   \   00000094   7F10A0E3           MOV      R1,#+127
   \   00000098   14008DE2           ADD      R0,SP,#+20
   \   0000009C   1B0100EF           SWI      +283
   \   000000A0   04D08DE2           ADD      SP,SP,#+4
    170          #endif
    171            // Открываем файл на чтение
    172            hFile = fopen(fullname,A_ReadOnly + A_BIN,P_READ, &io_error);
   \                     ??GetHistory_2:
   \   000000A4   08308DE2           ADD      R3,SP,#+8
   \   000000A8   8020A0E3           MOV      R2,#+128
   \   000000AC   801CA0E3           MOV      R1,#+32768
   \   000000B0   10008DE2           ADD      R0,SP,#+16
   \   000000B4   0A0000EF           SWI      +10
   \   000000B8   00008DE5           STR      R0,[SP, #+0]
   \   000000BC   00009DE5           LDR      R0,[SP, #+0]
   \   000000C0   010070E3           CMN      R0,#+1
   \   000000C4   5C00000A           BEQ      ??GetHistory_3
    173            if(hFile!=-1)
    174            {
    175              lseek(hFile, -(bufsize-1), S_END, &io_error, &io_error);
   \   000000C8   08008DE2           ADD      R0,SP,#+8
   \   000000CC   01002DE9           PUSH     {R0}
   \   000000D0   018048E2           SUB      R8,R8,#+1
   \   000000D4   0C308DE2           ADD      R3,SP,#+12
   \   000000D8   0220A0E3           MOV      R2,#+2
   \   000000DC   04009DE5           LDR      R0,[SP, #+4]
   \   000000E0   001068E2           RSB      R1,R8,#+0
   \   000000E4   0F0000EF           SWI      +15
    176              i = fread(hFile, text, bufsize-1, &io_error);
    177              text[i] = 0;
   \   000000E8   04009DE5           LDR      R0,[SP, #+4]
   \   000000EC   0C308DE2           ADD      R3,SP,#+12
   \   000000F0   0820A0E1           MOV      R2,R8
   \   000000F4   0710A0E1           MOV      R1,R7
   \   000000F8   0B0000EF           SWI      +11
   \   000000FC   0740C0E7           STRB     R4,[R0, +R7]
    178              fclose(hFile, &io_error);
   \   00000100   04009DE5           LDR      R0,[SP, #+4]
   \   00000104   0C108DE2           ADD      R1,SP,#+12
   \   00000108   0D0000EF           SWI      +13
    179              s = strstr(text, delim);  
   \   0000010C   341085E2           ADD      R1,R5,#+52
   \   00000110   0700A0E1           MOV      R0,R7
   \   00000114   180100EF           SWI      +280
   \   00000118   0080A0E1           MOV      R8,R0
   \   0000011C   4B0F8FE2           ADR      R0,??GetHistory_4  ;; ""
    180              
    181              head = NewLOGQ("");
   \   00000120   ........           _BLF     NewLOGQ,??NewLOGQ??rA
   \   00000124   08008DE5           STR      R0,[SP, #+8]
    182              head->next = 0;
   \   00000128   004080E5           STR      R4,[R0, #+0]
   \   0000012C   04D08DE2           ADD      SP,SP,#+4
   \   00000130   100000EA           B        ??GetHistory_5
    183              
    184              while(s && text)
    185              {
    186                direction = (*(s+delimlen-3))-0x30; 
    187                text = s+delimlen;
    188                s = strstr(text, delim); 
    189                e = !s?(text+strlen(text)):s;
    190                
    191                str = malloc(e-text+1);
    192                if(e-text > 0) memcpy(str, text, e-text);
    193                str[e-text] = 0; 
    194          
    195          //      snprintf(fullname, 127, "\r\n-----\r\n%08X\r\n%08X, %d\r\n%08X, %d\r\n----\r\n", text, e, direction, s, e-text);
    196                b = strstr(str, "\r\n");
    197          
    198                
    199          //      log = NewLOGQ(fullname);
    200                if(b)
    201                {
    202                  log = NewLOGQ(b+2);
    203                  if(b-str >= 0) memcpy(log->hdr, str, b-str);
    204                  log->hdr[b-str] = 0;
    205                }
    206                else
    207                {
    208                  log = NewLOGQ("");
   \                     ??GetHistory_6:
   \   00000134   450F8FE2           ADR      R0,??GetHistory_4  ;; ""
   \   00000138   ........           _BLF     NewLOGQ,??NewLOGQ??rA
   \   0000013C   00A0A0E1           MOV      R10,R0
    209                  strcpy(log->hdr, str);
   \   00000140   0910A0E1           MOV      R1,R9
   \   00000144   10008AE2           ADD      R0,R10,#+16
   \   00000148   1A0000EF           SWI      +26
    210                }
    211                
    212                log->type = direction|0x10;
   \                     ??GetHistory_7:
   \   0000014C   00009DE5           LDR      R0,[SP, #+0]
    213                log->acked = 0;
    214                log->ID=0xFFFFFFFF;
    215                
    216                AddLOGQ(&head, log);
   \   00000150   0A10A0E1           MOV      R1,R10
   \   00000154   100080E3           ORR      R0,R0,#0x10
   \   00000158   0C008AE5           STR      R0,[R10, #+12]
   \   0000015C   04408AE5           STR      R4,[R10, #+4]
   \   00000160   0400E0E1           MVN      R0,R4
   \   00000164   08008AE5           STR      R0,[R10, #+8]
   \   00000168   04008DE2           ADD      R0,SP,#+4
   \   0000016C   ........           _BLF     AddLOGQ,??AddLOGQ??rA
    217                
    218                //mfree(log);
    219                mfree(str);
   \   00000170   0900A0E1           MOV      R0,R9
   \   00000174   150000EF           SWI      +21
   \                     ??GetHistory_5:
   \   00000178   000058E3           CMP      R8,#+0
   \   0000017C   00005713           CMPNE    R7,#+0
   \   00000180   2700000A           BEQ      ??GetHistory_8
   \   00000184   081086E0           ADD      R1,R6,R8
   \   00000188   031051E5           LDRB     R1,[R1, #-3]
   \   0000018C   087086E0           ADD      R7,R6,R8
   \   00000190   0700A0E1           MOV      R0,R7
   \   00000194   301041E2           SUB      R1,R1,#+48
   \   00000198   00108DE5           STR      R1,[SP, #+0]
   \   0000019C   341085E2           ADD      R1,R5,#+52
   \   000001A0   180100EF           SWI      +280
   \   000001A4   0080B0E1           MOVS     R8,R0
   \   000001A8   0200001A           BNE      ??GetHistory_9
   \   000001AC   0700A0E1           MOV      R0,R7
   \   000001B0   1B0000EF           SWI      +27
   \   000001B4   070080E0           ADD      R0,R0,R7
   \                     ??GetHistory_9:
   \   000001B8   07A040E0           SUB      R10,R0,R7
   \   000001BC   01008AE2           ADD      R0,R10,#+1
   \   000001C0   140000EF           SWI      +20
   \   000001C4   0090A0E1           MOV      R9,R0
   \   000001C8   01005AE3           CMP      R10,#+1
   \   000001CC   020000BA           BLT      ??GetHistory_10
   \   000001D0   0A20A0E1           MOV      R2,R10
   \   000001D4   0710A0E1           MOV      R1,R7
   \   000001D8   1E0100EF           SWI      +286
   \                     ??GetHistory_10:
   \   000001DC   0940CAE7           STRB     R4,[R10, +R9]
   \   000001E0   1B1F8FE2           ADR      R1,??GetHistory_4+0x4  ;; "\r\n"
   \   000001E4   0900A0E1           MOV      R0,R9
   \   000001E8   180100EF           SWI      +280
   \   000001EC   00B0B0E1           MOVS     R11,R0
   \   000001F0   CFFFFF0A           BEQ      ??GetHistory_6
   \   000001F4   02008BE2           ADD      R0,R11,#+2
   \   000001F8   ........           _BLF     NewLOGQ,??NewLOGQ??rA
   \   000001FC   00A0A0E1           MOV      R10,R0
   \   00000200   09B05BE0           SUBS     R11,R11,R9
   \   00000204   0300004A           BMI      ??GetHistory_11
   \   00000208   0B20A0E1           MOV      R2,R11
   \   0000020C   0910A0E1           MOV      R1,R9
   \   00000210   10008AE2           ADD      R0,R10,#+16
   \   00000214   1E0100EF           SWI      +286
   \                     ??GetHistory_11:
   \   00000218   0A008BE0           ADD      R0,R11,R10
   \   0000021C   1040C0E5           STRB     R4,[R0, #+16]
   \   00000220   C9FFFFEA           B        ??GetHistory_7
    220              }
    221              AddFirstLOGQ(t, head->next);
   \                     ??GetHistory_8:
   \   00000224   04009DE5           LDR      R0,[SP, #+4]
   \   00000228   001090E5           LDR      R1,[R0, #+0]
   \   0000022C   90009DE5           LDR      R0,[SP, #+144]
   \   00000230   ........           BL       AddFirstLOGQ
    222              mfree(head);
   \   00000234   04009DE5           LDR      R0,[SP, #+4]
   \   00000238   150000EF           SWI      +21
    223                
    224            }
    225          
    226            mfree(buf);
   \                     ??GetHistory_3:
   \   0000023C   0C009DE5           LDR      R0,[SP, #+12]
   \   00000240   150000EF           SWI      +21
    227            return 0;
   \                     ??GetHistory_0:
   \   00000244   0000A0E3           MOV      R0,#+0
   \   00000248   94D08DE2           ADD      SP,SP,#+148
   \   0000024C   F08FBDE8           POP      {R4-R11,PC}      ;; return
   \                     ??GetHistory_4:
   \   00000250   00000000           DC8      "",+0,+0,+0
   \   00000254   0D0A0000           DC8      "\r\n",+0
    228          }
    229          

   \                                 In segment CODE, align 4, keep-with-next
    230          void GetStatusById(char *buffer, int id)
    231          {
    232            
    233            // ??? Тут надо разбираться со статусами
    234            // Похоже, не все коды верные...
    235          switch(id)
   \                     GetStatusById:
   \   00000000   7C309FE5           LDR      R3,??GetStatusById_1+0xC  ;; `?<Constant "Online">`
   \   00000004   00402DE9           PUSH     {LR}
   \   00000008   0120A0E1           MOV      R2,R1
   \   0000000C   070052E3           CMP      R2,#+7
   \   00000010   1400008A           BHI      ??GetStatusById_2
   \   00000014   01CF8FE2           ADR      R12,??GetStatusById_0
   \   00000018   02C0DCE7           LDRB     R12,[R12, R2]
   \   0000001C   0CF18FE0           ADD      PC,PC,R12, LSL #+2
   \                     ??GetStatusById_0:
   \   00000020   01030609           DC8      +1,+3,+6,+9
   \   00000024   0B0D010F           DC8      +11,+13,+1,+15
    236          {
    237          case 0: {strcpy(buffer,"Online");break;}
   \                     ??GetStatusById_3:
   \   00000028   0310A0E1           MOV      R1,R3
   \   0000002C   030000EA           B        ??GetStatusById_4
    238          case 1: {strcpy(buffer, "Invisible");break;}
   \                     ??GetStatusById_5:
   \   00000030   081083E2           ADD      R1,R3,#+8
   \   00000034   1A0000EF           SWI      +26
   \   00000038   0080BDE8           POP      {PC}
    239          case 2: {strcpy(buffer, "Away");break;}
   \                     ??GetStatusById_6:
   \   0000003C   141083E2           ADD      R1,R3,#+20
   \                     ??GetStatusById_4:
   \   00000040   1A0000EF           SWI      +26
   \   00000044   0080BDE8           POP      {PC}
    240          case 3: {strcpy(buffer, "N/A");break;}
   \                     ??GetStatusById_7:
   \   00000048   0A1F8FE2           ADR      R1,??GetStatusById_1  ;; "N/A"
   \   0000004C   FBFFFFEA           B        ??GetStatusById_4
    241          case 4: {strcpy(buffer, "Occupied");break;}
   \                     ??GetStatusById_8:
   \   00000050   1C1083E2           ADD      R1,R3,#+28
   \   00000054   F9FFFFEA           B        ??GetStatusById_4
    242          case 5: {strcpy(buffer, "DND");break;}
   \                     ??GetStatusById_9:
   \   00000058   071F8FE2           ADR      R1,??GetStatusById_1+0x4  ;; "DND"
   \   0000005C   F7FFFFEA           B        ??GetStatusById_4
    243          case 6: {strcpy(buffer, "Online");break;}
    244          case 7: {strcpy(buffer, "FFC");break;}
   \                     ??GetStatusById_10:
   \   00000060   061F8FE2           ADR      R1,??GetStatusById_1+0x8  ;; "FFC"
   \   00000064   F5FFFFEA           B        ??GetStatusById_4
    245          default: {sprintf(buffer, "UNK: %d", id);}
   \                     ??GetStatusById_2:
   \   00000068   0120A0E1           MOV      R2,R1
   \   0000006C   281083E2           ADD      R1,R3,#+40
   \   00000070   160000EF           SWI      +22
    246          }
    247          }
   \   00000074   0080BDE8           POP      {PC}             ;; return
   \                     ??GetStatusById_1:
   \   00000078   4E2F4100           DC8      "N/A"
   \   0000007C   444E4400           DC8      "DND"
   \   00000080   46464300           DC8      "FFC"
   \   00000084   ........           DC32     `?<Constant "Online">`
    248          

   \                                 In segment CODE, align 4, keep-with-next
    249          void LogStatusChange(CLIST *CListEx)
    250          {
   \                     LogStatusChange:
   \   00000000   F0402DE9           PUSH     {R4-R7,LR}
   \   00000004   0040A0E1           MOV      R4,R0
    251            extern const int LOG_STATCH;
    252            if(!LOG_STATCH){return;}
   \   00000008   B0009FE5           LDR      R0,??LogStatusChange_0+0x4  ;; LOG_STATCH
   \   0000000C   E8D04DE2           SUB      SP,SP,#+232
   \   00000010   000090E5           LDR      R0,[R0, #+0]
   \   00000014   000050E3           CMP      R0,#+0
   \   00000018   2500000A           BEQ      ??LogStatusChange_1
    253            if(CListEx->state>7){return;}
   \   0000001C   B405D4E1           LDRH     R0,[R4, #+84]
   \   00000020   080050E3           CMP      R0,#+8
   \   00000024   2200002A           BCS      ??LogStatusChange_1
    254            if(CListEx->log==NULL){return;}
   \   00000028   700094E5           LDR      R0,[R4, #+112]
   \   0000002C   000050E3           CMP      R0,#+0
   \   00000030   1F00000A           BEQ      ??LogStatusChange_1
    255            char hdr[] = "(System message) ";
   \   00000034   88109FE5           LDR      R1,??LogStatusChange_0+0x8  ;; `?<Constant "(System message) ">`
   \   00000038   D4008DE2           ADD      R0,SP,#+212
   \   0000003C   2C5091E8           LDM      R1,{R2,R3,R5,R12,LR}
    256            char msg[] = "%s меняет статус на %s\r\n";
   \   00000040   80109FE5           LDR      R1,??LogStatusChange_0+0xC  ;; `?<Constant "%s \\354\\345\\355\\377\\345\\362 \\361\\3`
   \   00000044   2C5080E8           STM      R0,{R2,R3,R5,R12,LR}
   \   00000048   EC5091E8           LDM      R1,{R2,R3,R5-R7,R12,LR}
   \   0000004C   B8008DE2           ADD      R0,SP,#+184
   \   00000050   EC5080E8           STM      R0,{R2,R3,R5-R7,R12,LR}
    257            char message[100];
    258            char nickname[64];
    259            char status[20];
    260            if(CListEx->name)
   \   00000054   140094E2           ADDS     R0,R4,#+20
   \   00000058   0300000A           BEQ      ??LogStatusChange_2
    261            {
    262              strcpy(nickname, CListEx->name);
   \   0000005C   141084E2           ADD      R1,R4,#+20
   \   00000060   78008DE2           ADD      R0,SP,#+120
   \   00000064   1A0000EF           SWI      +26
   \   00000068   040000EA           B        ??LogStatusChange_3
    263            }
    264            else
    265            {
    266              snprintf(nickname,63, "%u", CListEx->uin);
   \                     ??LogStatusChange_2:
   \   0000006C   0C3094E5           LDR      R3,[R4, #+12]
   \   00000070   112F8FE2           ADR      R2,??LogStatusChange_0  ;; "%u"
   \   00000074   3F10A0E3           MOV      R1,#+63
   \   00000078   78008DE2           ADD      R0,SP,#+120
   \   0000007C   1B0100EF           SWI      +283
    267            }
    268            GetStatusById(status, CListEx->state);
   \                     ??LogStatusChange_3:
   \   00000080   B415D4E1           LDRH     R1,[R4, #+84]
   \   00000084   0D00A0E1           MOV      R0,SP
   \   00000088   ........           BL       GetStatusById
    269            sprintf(message, msg, nickname, status);
   \   0000008C   0D30A0E1           MOV      R3,SP
   \   00000090   78208DE2           ADD      R2,SP,#+120
   \   00000094   B8108DE2           ADD      R1,SP,#+184
   \   00000098   14008DE2           ADD      R0,SP,#+20
   \   0000009C   160000EF           SWI      +22
    270            Add2History(CListEx, hdr, message, 0);
   \   000000A0   0030A0E3           MOV      R3,#+0
   \   000000A4   14208DE2           ADD      R2,SP,#+20
   \   000000A8   D4108DE2           ADD      R1,SP,#+212
   \   000000AC   0400A0E1           MOV      R0,R4
   \   000000B0   ........           BL       Add2History
    271          }
   \                     ??LogStatusChange_1:
   \   000000B4   E8D08DE2           ADD      SP,SP,#+232      ;; stack cleaning
   \   000000B8   F080BDE8           POP      {R4-R7,PC}       ;; return
   \                     ??LogStatusChange_0:
   \   000000BC   25750000           DC8      "%u",+0
   \   000000C0   ........           DC32     LOG_STATCH
   \   000000C4   ........           DC32     `?<Constant "(System message) ">`
   \   000000C8   ........           DC32     `?<Constant "%s \\354\\345\\355\\377\\345\\362 \\361\\3`

   \                                 In segment CODE, align 4, keep-with-next
   \                     ??DataTable4:
   \   00000000   ........           DC32     `?<Constant "%s\\\\%u">`

   \                                 In segment CODE, align 4, keep-with-next
   \                     ??DataTable5:
   \   00000000   ........           DC32     HIST_PATH

   \                                 In segment CODE, align 4, keep-with-next
   \                     ??DataTable6:
   \   00000000   ........           DC32     HISTORY_TYPE

   \                                 In segment CODE, align 4, keep-with-next
   \                     ??DataTable7:
   \   00000000   ........           DC32     UIN

   \                                 In segment DATA_C, align 4, align-sorted
   \                     `?<Constant "%s\\\\%u">`:
   \   00000000   25735C257500       DC8 "%s\\%u"
   \   00000006   0000               DC8 0, 0
   \   00000008   25735C25752E       DC8 "%s\\%u.txt"
   \              74787400    
   \   00000012   0000               DC8 0, 0
   \   00000014   CEF8E8E1EAE0       DC8 "\316\370\350\341\352\340 I/O  #%u"
   \              20492F4F2020
   \              23257500    
   \   00000024   25735C25755C       DC8 "%s\\%u\\%u.txt"
   \              25752E747874
   \              00          
   \   00000031   000000             DC8 0, 0, 0
   \   00000034   0D0A2D2D2D2D       DC8 "\015\012--------------<>-000"
   \              2D2D2D2D2D2D
   \              2D2D2D2D3C3E
   \              2D30303000  
   \   0000004B   00                 DC8 0

   \                                 In segment DATA_C, align 1, align-sorted
   \   00000000   257300             DC8 "%s"

   \                                 In segment DATA_C, align 4, align-sorted
   \                     `?<Constant "\\r\\n--------------<>-%0...">`:
   \   00000000   0D0A2D2D2D2D       DC8 "\015\012--------------<>-%04d\015\012"
   \              2D2D2D2D2D2D
   \              2D2D2D2D3C3E
   \              2D253034640D
   \              0A00        
   \   0000001A   0000               DC8 0, 0

   \                                 In segment DATA_C, align 1, align-sorted
   \   00000000   00                 DC8 ""

   \                                 In segment DATA_C, align 1, align-sorted
   \   00000000   0D0A00             DC8 "\015\012"

   \                                 In segment DATA_C, align 4, align-sorted
   \                     `?<Constant "Online">`:
   \   00000000   4F6E6C696E65       DC8 "Online"
   \              00          
   \   00000007   00                 DC8 0
   \   00000008   496E76697369       DC8 "Invisible"
   \              626C6500    
   \   00000012   0000               DC8 0, 0
   \   00000014   4177617900         DC8 "Away"
   \   00000019   000000             DC8 0, 0, 0
   \   0000001C   4F6363757069       DC8 "Occupied"
   \              656400      
   \   00000025   000000             DC8 0, 0, 0
   \   00000028   554E4B3A2025       DC8 "UNK: %d"
   \              6400        

   \                                 In segment DATA_C, align 4, align-sorted
   \   00000000   4E2F4100           DC8 "N/A"

   \                                 In segment DATA_C, align 4, align-sorted
   \   00000000   444E4400           DC8 "DND"

   \                                 In segment DATA_C, align 4, align-sorted
   \   00000000   46464300           DC8 "FFC"

   \                                 In segment DATA_C, align 4, align-sorted
   \                     `?<Constant "(System message) ">`:
   \   00000000   285379737465       DC8 "(System message) "
   \              6D206D657373
   \              616765292000
   \   00000012   0000               DC8 0, 0

   \                                 In segment DATA_C, align 4, align-sorted
   \                     `?<Constant "%s \\354\\345\\355\\377\\345\\362 \\361\\3`:
   \   00000000   257320ECE5ED       DC8 "%s \354\345\355\377\345\362 \361\362\340\362\363\361 \355\340 %s\015\012"
   \              FFE5F220F1F2
   \              E0F2F3F120ED
   \              E02025730D0A
   \              00          
   \   00000019   000000             DC8 0, 0, 0

   \                                 In segment DATA_C, align 1, align-sorted
   \   00000000   257500             DC8 "%u"

   Maximum stack usage in bytes:

     Function        CSTACK
     --------        ------
     ActivateLastX       0
     Add2History        28
     AddFirstLOGQ        4
     CheckLOGQ           8
     DeleteLOGQ          8
     GetHistory        192
     GetStatusById       4
     LogStatusChange   252
     do_logwrite       324


   Segment part sizes:

     Function/Label                 Bytes
     --------------                 -----
     do_logwrite                     304
     Add2History                     156
     ActivateLastX                    64
     AddFirstLOGQ                     64
     DeleteLOGQ                       40
     CheckLOGQ                       104
     GetHistory                      600
     GetStatusById                   136
     LogStatusChange                 204
     ??DataTable4                      4
     ??DataTable5                      4
     ??DataTable6                      4
     ??DataTable7                      4
     ?<Constant "%s\\%u">             76
     ?<Constant "%s">                  3
     ?<Constant "\r\n--------------<>-%0...">
                                      28
     ?<Constant "">                    1
     ?<Constant "\r\n">                3
     ?<Constant "Online">             48
     ?<Constant "N/A">                 4
     ?<Constant "DND">                 4
     ?<Constant "FFC">                 4
     ?<Constant "(System message) ">
                                      20
     ?<Constant "%s \354\345\355\377\345\362 \361\3
                                      28
     ?<Constant "%u">                  3
      Others                          60

 
 1 748 bytes in segment CODE
   222 bytes in segment DATA_C
 
 1 688 bytes of CODE  memory (+ 60 bytes shared)
   222 bytes of CONST memory

Errors: none
Warnings: none
