Warning[w6]: Type conflict for external/entry "isfile", in module Main against external/entry in module register; prototyped function vs K&R function
  /* In module Main: */
  /* K&R Function, args 0, attr 0 */
  int (__atpcs __interwork isfile)();
  /* In module register: */
  /* Function, args 1, attr 0 */
  int (__atpcs __interwork isfile)(char *);
################################################################################
#                                                                              #
#      IAR Universal Linker V4.59Z/386                                         #
#                                                                              #
#           Link time     =  15/Mar/2008  23:03:18                             #
#           Target CPU    =  ARM                                               #
#           List file     =  F:\ÝLF\Iar1\arm\Project\Release_ELKA\List\Mirrr_X #
#                            XX.map                                            #
#           Output file 1 =  F:\ÝLF\Iar1\arm\Project\Release_ELKA\Exe\Mirrr_XX #
#                            X.elf                                             #
#                            Format: elf, variant: -ynpraw                     #
#           Command line  =  F:\ÝLF\Iar1\arm\Project\DIV.R79                   #
#                            F:\ÝLF\Iar1\arm\Project\Release_ELKA\Obj\Main.r79 #
#                            F:\ÝLF\Iar1\arm\Project\Release_ELKA\Obj\Siemens. #
#                            r79                                               #
#                            F:\ÝLF\Iar1\arm\Project\Release_ELKA\Obj\Swi.r79  #
#                            F:\ÝLF\Iar1\arm\Project\Release_ELKA\Obj\devka.r7 #
#                            9                                                 #
#                            F:\ÝLF\Iar1\arm\Project\Release_ELKA\Obj\readimg. #
#                            r79                                               #
#                            F:\ÝLF\Iar1\arm\Project\Release_ELKA\Obj\register #
#                            .r79                                              #
#                            "F:\ÝLF\Iar1\arm\Rebel Editor\jpeglib\Release\Exe #
#                            \jpeglib.r79"                                     #
#                            -o                                                #
#                            F:\ÝLF\Iar1\arm\Project\Release_ELKA\Exe\Mirrr_XX #
#                            X.elf                                             #
#                            -Felf -l                                          #
#                            F:\ÝLF\Iar1\arm\Project\Release_ELKA\List\Mirrr_X #
#                            XX.map                                            #
#                            -xmsnio -f F:\ÝLF\Iar1\arm\Project\test.xcl       #
#                            (-carm -V(CODE)CODE_AREA,12                       #
#                            -V(DATA)DATA_AREA,12                              #
#                            -Z(CODE_AREA)ELFBEGIN,DATA_ID,START,CODE,DATA_C,I #
#                            NITTAB,DATA_Z,DATA_N,CONFIG_C=0-FFFFFFFF          #
#                            -Z(DATA_AREA)DATA_I=0-FFFFFFFF) -ynpraw -s main   #
#                                                                              #
#                        Copyright 1987-2006 IAR Systems. All rights reserved. #
################################################################################





                ****************************************
                *                                      *
                *           CROSS REFERENCE            *
                *                                      *
                ****************************************

       Program entry at : CODE_AREA 00001890  Relocatable, from module : Siemens




                ****************************************
                *                                      *
                *            RUNTIME MODEL             *
                *                                      *
                ****************************************

  StackAlign4  = USED
  __cpu_mode   = __pcs__interwork
  __data_model = absolute
  __endian     = little
  __rt_version = 6



                ****************************************
                *                                      *
                *              MODULE MAP              *
                *                                      *
                ****************************************


  DEFINED ABSOLUTE ENTRIES
    *************************************************************************

  DEFINED ABSOLUTE ENTRIES
    *************************************************************************

  FILE NAME : F:\ÝLF\Iar1\arm\Project\DIV.R79
  LIBRARY MODULE, NAME : ?div_module

  SEGMENTS IN THE MODULE
  ======================
CODE
  Segment part 0. NOT NEEDED.
           ENTRY                   ADDRESS         REF BY
           =====                   =======         ======
           ??divu8_t               
    -------------------------------------------------------------------------
CODE
  Segment part 1. NOT NEEDED.
           ENTRY                   ADDRESS         REF BY
           =====                   =======         ======
           ??divu8_a               
    -------------------------------------------------------------------------
CODE
  Segment part 2. NOT NEEDED.
           ENTRY                   ADDRESS         REF BY
           =====                   =======         ======
           ??divu16_t              
    -------------------------------------------------------------------------
CODE
  Segment part 3. NOT NEEDED.
           ENTRY                   ADDRESS         REF BY
           =====                   =======         ======
           ??divu16_a              
    -------------------------------------------------------------------------
CODE
  Relative segment, address: CODE_AREA 000010A4 - 000010A7 (0x4 bytes), align: 2
  Segment part 4.
           ENTRY                   ADDRESS         REF BY
           =====                   =======         ======
           ??divu32_t              000010A5        alloc_barray (jmemmgr)
                                                   alloc_sarray (jmemmgr)
                                                   decompress_data (jdcoefct)
                                                   decompress_smooth_data (jdcoefct)
                                                   per_scan_setup (jdinput)
                                                   realize_virt_arrays (jmemmgr)
                                                   set_bottom_pointers (jdmainct)
    -------------------------------------------------------------------------
CODE
  Relative segment, address: CODE_AREA 000010A8 - 000010B3 (0xc bytes), align: 2
  Segment part 5.             Intra module refs:   ??divu32_t
           ENTRY                   ADDRESS         REF BY
           =====                   =======         ======
           ??divu32_a              000010A8 
    -------------------------------------------------------------------------
CODE
  Segment part 6. NOT NEEDED.
           ENTRY                   ADDRESS         REF BY
           =====                   =======         ======
           ??div8_t                
    -------------------------------------------------------------------------
CODE
  Segment part 7. NOT NEEDED.
           ENTRY                   ADDRESS         REF BY
           =====                   =======         ======
           ??div8_a                
    -------------------------------------------------------------------------
CODE
  Segment part 8. NOT NEEDED.
           ENTRY                   ADDRESS         REF BY
           =====                   =======         ======
           ??div16_t               
    -------------------------------------------------------------------------
CODE
  Segment part 9. NOT NEEDED.
           ENTRY                   ADDRESS         REF BY
           =====                   =======         ======
           ??div16_a               
    -------------------------------------------------------------------------
CODE
  Relative segment, address: CODE_AREA 000010B4 - 000010B7 (0x4 bytes), align: 2
  Segment part 10.
           ENTRY                   ADDRESS         REF BY
           =====                   =======         ======
           ??div32_t               000010B5        alloc_funny_pointers (jdmainct)
                                                   decompress_smooth_data (jdcoefct)
                                                   jdiv_round_up (jutils)
                                                   jinit_d_main_controller (jdmainct)
                                                   jinit_upsampler (jdsample)
                                                   jround_up (jutils)
                                                   make_funny_pointers (jdmainct)
                                                   realize_virt_arrays (jmemmgr)
                                                   set_bottom_pointers (jdmainct)
                                                   set_wraparound_pointers (jdmainct)
    -------------------------------------------------------------------------
CODE
  Relative segment, address: CODE_AREA 000010B8 - 000010CF (0x18 bytes), align: 2
  Segment part 11.            Intra module refs:   ??div32_t
           ENTRY                   ADDRESS         REF BY
           =====                   =======         ======
           ??div32_a               000010B8 
    -------------------------------------------------------------------------
CODE
  Relative segment, address: CODE_AREA 000010D0 - 000011A7 (0xd8 bytes), align: 2
  Segment part 12.            Intra module refs:   ??div32_a
                                                   ??divu32_a

    *************************************************************************

  FILE NAME : F:\ÝLF\Iar1\arm\Project\Release_ELKA\Obj\Main.r79
  PROGRAM MODULE, NAME : Main

  SEGMENTS IN THE MODULE
  ======================
CODE
  Segment part 54. NOT NEEDED.
    -------------------------------------------------------------------------
CODE
  Segment part 55. NOT NEEDED.
           ENTRY                   ADDRESS         REF BY
           =====                   =======         ======
           DisIconbar              
               not allocated function
    -------------------------------------------------------------------------
CODE
  Segment part 56. NOT NEEDED.
    -------------------------------------------------------------------------
DATA_I
  Segment part 19. NOT NEEDED.
           ENTRY                   ADDRESS         REF BY
           =====                   =======         ======
           nite                    
    -------------------------------------------------------------------------
DATA_I
  Segment part 27. NOT NEEDED.
           ENTRY                   ADDRESS         REF BY
           =====                   =======         ======
           curcolor                
    -------------------------------------------------------------------------
DATA_I
  Segment part 29. NOT NEEDED.
           ENTRY                   ADDRESS         REF BY
           =====                   =======         ======
           maskcolor               
    -------------------------------------------------------------------------
DATA_Z
  Segment part 16. NOT NEEDED.
           ENTRY                   ADDRESS         REF BY
           =====                   =======         ======
           lenta                   
           loadfilesize            
    -------------------------------------------------------------------------
DATA_Z
  Segment part 17. NOT NEEDED.
           ENTRY                   ADDRESS         REF BY
           =====                   =======         ======
           loggerCWILIB            
    -------------------------------------------------------------------------
DATA_Z
  Segment part 18. NOT NEEDED.
           ENTRY                   ADDRESS         REF BY
           =====                   =======         ======
           intlog                  
    -------------------------------------------------------------------------
DATA_Z
  Segment part 21. NOT NEEDED.
           ENTRY                   ADDRESS         REF BY
           =====                   =======         ======
           fastfon                 
    -------------------------------------------------------------------------
DATA_Z
  Segment part 22. NOT NEEDED.
           ENTRY                   ADDRESS         REF BY
           =====                   =======         ======
           tmpfnt                  
    -------------------------------------------------------------------------
DATA_Z
  Segment part 23. NOT NEEDED.
           ENTRY                   ADDRESS         REF BY
           =====                   =======         ======
           regfile                 
    -------------------------------------------------------------------------
DATA_Z
  Segment part 24. NOT NEEDED.
           ENTRY                   ADDRESS         REF BY
           =====                   =======         ======
           wsbuf                   
    -------------------------------------------------------------------------
DATA_Z
  Segment part 25. NOT NEEDED.
           ENTRY                   ADDRESS         REF BY
           =====                   =======         ======
           fon                     
    -------------------------------------------------------------------------
DATA_Z
  Segment part 26. NOT NEEDED.
           ENTRY                   ADDRESS         REF BY
           =====                   =======         ======
           curImg                  
    -------------------------------------------------------------------------
DATA_Z
  Segment part 35. NOT NEEDED.
           ENTRY                   ADDRESS         REF BY
           =====                   =======         ======
           movecolor               
    -------------------------------------------------------------------------
DATA_Z
  Segment part 36. NOT NEEDED.
           ENTRY                   ADDRESS         REF BY
           =====                   =======         ======
           menubkcolor             
    -------------------------------------------------------------------------
DATA_Z
  Segment part 39. NOT NEEDED.
           ENTRY                   ADDRESS         REF BY
           =====                   =======         ======
           err                     
    -------------------------------------------------------------------------
DATA_Z
  Segment part 40. NOT NEEDED.
           ENTRY                   ADDRESS         REF BY
           =====                   =======         ======
           bufan2                  
    -------------------------------------------------------------------------
DATA_Z
  Segment part 41. NOT NEEDED.
           ENTRY                   ADDRESS         REF BY
           =====                   =======         ======
           bufan                   
    -------------------------------------------------------------------------
CODE
  Segment part 57. NOT NEEDED.
           ENTRY                   ADDRESS         REF BY
           =====                   =======         ======
           strh2int                
               not allocated function
    -------------------------------------------------------------------------
CODE
  Segment part 58. NOT NEEDED.
    -------------------------------------------------------------------------
CODE
  Segment part 59. NOT NEEDED.
           ENTRY                   ADDRESS         REF BY
           =====                   =======         ======
           RunEntry                
               not allocated function
    -------------------------------------------------------------------------
CODE
  Segment part 60. NOT NEEDED.
    -------------------------------------------------------------------------
CODE
  Segment part 61. NOT NEEDED.
           ENTRY                   ADDRESS         REF BY
           =====                   =======         ======
           min                     
               not allocated function
    -------------------------------------------------------------------------
CODE
  Segment part 62. NOT NEEDED.
    -------------------------------------------------------------------------
CODE
  Segment part 63. NOT NEEDED.
           ENTRY                   ADDRESS         REF BY
           =====                   =======         ======
           max                     
               not allocated function
    -------------------------------------------------------------------------
CODE
  Segment part 64. NOT NEEDED.
    -------------------------------------------------------------------------
CODE
  Segment part 65. NOT NEEDED.
    -------------------------------------------------------------------------
CODE
  Segment part 66. NOT NEEDED.
           ENTRY                   ADDRESS         REF BY
           =====                   =======         ======
           fgets                   
               not allocated function
    -------------------------------------------------------------------------
CODE
  Segment part 67. NOT NEEDED.
    -------------------------------------------------------------------------
CODE
  Segment part 68. NOT NEEDED.
           ENTRY                   ADDRESS         REF BY
           =====                   =======         ======
           printf                  
               not allocated function
    -------------------------------------------------------------------------
CODE
  Segment part 69. NOT NEEDED.
    -------------------------------------------------------------------------
CODE
  Segment part 70. NOT NEEDED.
           ENTRY                   ADDRESS         REF BY
           =====                   =======         ======
           strdup                  
               not allocated function
    -------------------------------------------------------------------------
CODE
  Segment part 71. NOT NEEDED.
    -------------------------------------------------------------------------
CODE
  Segment part 72. NOT NEEDED.
           ENTRY                   ADDRESS         REF BY
           =====                   =======         ======
           savefile                
               not allocated function
    -------------------------------------------------------------------------
CODE
  Segment part 73. NOT NEEDED.
    -------------------------------------------------------------------------
CODE
  Segment part 74. NOT NEEDED.
           ENTRY                   ADDRESS         REF BY
           =====                   =======         ======
           loadfile                
               not allocated function
    -------------------------------------------------------------------------
CODE
  Segment part 75. NOT NEEDED.
    -------------------------------------------------------------------------
CODE
  Segment part 76. NOT NEEDED.
           ENTRY                   ADDRESS         REF BY
           =====                   =======         ======
           toup                    
               not allocated function
    -------------------------------------------------------------------------
CODE
  Segment part 77. NOT NEEDED.
    -------------------------------------------------------------------------
CODE
  Segment part 78. NOT NEEDED.
           ENTRY                   ADDRESS         REF BY
           =====                   =======         ======
           todown                  
               not allocated function
    -------------------------------------------------------------------------
CODE
  Segment part 79. NOT NEEDED.
    -------------------------------------------------------------------------
CODE
  Segment part 80. NOT NEEDED.
           ENTRY                   ADDRESS         REF BY
           =====                   =======         ======
           isalth                  
               not allocated function
    -------------------------------------------------------------------------
CODE
  Segment part 81. NOT NEEDED.
    -------------------------------------------------------------------------
CODE
  Segment part 82. NOT NEEDED.
    -------------------------------------------------------------------------
CODE
  Segment part 83. NOT NEEDED.
           ENTRY                   ADDRESS         REF BY
           =====                   =======         ======
           isval                   
               not allocated function
    -------------------------------------------------------------------------
CODE
  Segment part 84. NOT NEEDED.
    -------------------------------------------------------------------------
CODE
  Segment part 85. NOT NEEDED.
           ENTRY                   ADDRESS         REF BY
           =====                   =======         ======
           strchrpos               
               not allocated function
    -------------------------------------------------------------------------
CODE
  Segment part 86. NOT NEEDED.
    -------------------------------------------------------------------------
CODE
  Segment part 87. NOT NEEDED.
           ENTRY                   ADDRESS         REF BY
           =====                   =======         ======
           emptystr                
               not allocated function
    -------------------------------------------------------------------------
CODE
  Segment part 88. NOT NEEDED.
    -------------------------------------------------------------------------
CODE
  Segment part 89. NOT NEEDED.
    -------------------------------------------------------------------------
CODE
  Segment part 90. NOT NEEDED.
           ENTRY                   ADDRESS         REF BY
           =====                   =======         ======
           strcmpsize              
               not allocated function
    -------------------------------------------------------------------------
CODE
  Segment part 91. NOT NEEDED.
    -------------------------------------------------------------------------
CODE
  Segment part 92. NOT NEEDED.
           ENTRY                   ADDRESS         REF BY
           =====                   =======         ======
           getint                  
               not allocated function
    -------------------------------------------------------------------------
CODE
  Segment part 93. NOT NEEDED.
    -------------------------------------------------------------------------
CODE
  Segment part 94. NOT NEEDED.
           ENTRY                   ADDRESS         REF BY
           =====                   =======         ======
           get3int                 
               not allocated function
    -------------------------------------------------------------------------
CODE
  Segment part 95. NOT NEEDED.
    -------------------------------------------------------------------------
CODE
  Segment part 96. NOT NEEDED.
           ENTRY                   ADDRESS         REF BY
           =====                   =======         ======
           getshort                
               not allocated function
    -------------------------------------------------------------------------
CODE
  Segment part 97. NOT NEEDED.
    -------------------------------------------------------------------------
CODE
  Segment part 98. NOT NEEDED.
           ENTRY                   ADDRESS         REF BY
           =====                   =======         ======
           putint                  
               not allocated function
    -------------------------------------------------------------------------
CODE
  Segment part 99. NOT NEEDED.
    -------------------------------------------------------------------------
CODE
  Segment part 100. NOT NEEDED.
           ENTRY                   ADDRESS         REF BY
           =====                   =======         ======
           intToChar               
               not allocated function
    -------------------------------------------------------------------------
CODE
  Segment part 101. NOT NEEDED.
    -------------------------------------------------------------------------
CODE
  Segment part 102. NOT NEEDED.
           ENTRY                   ADDRESS         REF BY
           =====                   =======         ======
           putshort                
               not allocated function
    -------------------------------------------------------------------------
CODE
  Segment part 103. NOT NEEDED.
    -------------------------------------------------------------------------
DATA_Z
  Segment part 42. NOT NEEDED.
           ENTRY                   ADDRESS         REF BY
           =====                   =======         ======
           loadgraphsize           
    -------------------------------------------------------------------------
DATA_C
  Segment part 2. NOT NEEDED.
    -------------------------------------------------------------------------
DATA_C
  Relative segment, address: CODE_AREA 00008230 - 0000823F (0x10 bytes), align: 2
  Segment part 3.             Intra module refs:   Segment part 45
    -------------------------------------------------------------------------
DATA_C
  Relative segment, address: CODE_AREA 00008240 - 0000825B (0x1c bytes), align: 2
  Segment part 4.             Intra module refs:   onstart
    -------------------------------------------------------------------------
DATA_C
  Segment part 5. NOT NEEDED.
    -------------------------------------------------------------------------
DATA_C
  Relative segment, address: CODE_AREA 0000825C - 0000827F (0x24 bytes), align: 2
  Segment part 6.             Intra module refs:   odraw
    -------------------------------------------------------------------------
DATA_C
  Segment part 7. NOT NEEDED.
    -------------------------------------------------------------------------
DATA_C
  Segment part 8. NOT NEEDED.
    -------------------------------------------------------------------------
DATA_C
  Relative segment, address: CODE_AREA 00008280 - 000082DF (0x60 bytes), align: 2
  Segment part 9.             Intra module refs:   Segment part 111
    -------------------------------------------------------------------------
DATA_C
  Relative segment, address: CODE_AREA 000082E0 - 0000833F (0x60 bytes), align: 2
  Segment part 10.            Intra module refs:   drawim
    -------------------------------------------------------------------------
DATA_C
  Segment part 11. NOT NEEDED.
    -------------------------------------------------------------------------
DATA_C
  Segment part 12. NOT NEEDED.
    -------------------------------------------------------------------------
DATA_C
  Relative segment, address: CODE_AREA 00008340 - 0000834F (0x10 bytes), align: 2
  Segment part 13.            Intra module refs:   Segment part 49
    -------------------------------------------------------------------------
DATA_C
  Relative segment, address: CODE_AREA 00008350 - 00008373 (0x24 bytes), align: 2
  Segment part 14.            Intra module refs:   Segment part 49
    -------------------------------------------------------------------------
DATA_C
  Segment part 15. NOT NEEDED.
    -------------------------------------------------------------------------
DATA_C
  Segment part 43. NOT NEEDED.
           ENTRY                   ADDRESS         REF BY
           =====                   =======         ======
           graphpoints             
    -------------------------------------------------------------------------
CODE
  Segment part 104. NOT NEEDED.
           ENTRY                   ADDRESS         REF BY
           =====                   =======         ======
           loadgraph               
               not allocated function
    -------------------------------------------------------------------------
CODE
  Segment part 105. NOT NEEDED.
    -------------------------------------------------------------------------
CODE
  Relative segment, address: CODE_AREA 000011A8 - 0000136B (0x1c4 bytes), align: 2
  Segment part 106.           Intra module refs:   odraw
           ENTRY                   ADDRESS         REF BY
           =====                   =======         ======
           drawim                  000011A8 
               stack 1 = 00000000 ( 000000BC )
    -------------------------------------------------------------------------
CODE
  Segment part 107. NOT NEEDED.
    -------------------------------------------------------------------------
CODE
  Segment part 108. NOT NEEDED.
           ENTRY                   ADDRESS         REF BY
           =====                   =======         ======
           drawimb                 
               not allocated function
    -------------------------------------------------------------------------
CODE
  Segment part 109. NOT NEEDED.
    -------------------------------------------------------------------------
CODE
  Segment part 110. NOT NEEDED.
           ENTRY                   ADDRESS         REF BY
           =====                   =======         ======
           drawimblack             
               not allocated function
    -------------------------------------------------------------------------
CODE
  Relative segment, address: CODE_AREA 0000136C - 00001377 (0xc bytes), align: 2
  Segment part 111.           Intra module refs:   drawim
    -------------------------------------------------------------------------
CODE
  Segment part 112. NOT NEEDED.
    -------------------------------------------------------------------------
CODE
  Segment part 113. NOT NEEDED.
           ENTRY                   ADDRESS         REF BY
           =====                   =======         ======
           x_str                   
               not allocated function
    -------------------------------------------------------------------------
CODE
  Segment part 114. NOT NEEDED.
    -------------------------------------------------------------------------
CODE
  Segment part 115. NOT NEEDED.
           ENTRY                   ADDRESS         REF BY
           =====                   =======         ======
           hex                     
               not allocated function
    -------------------------------------------------------------------------
CODE
  Segment part 116. NOT NEEDED.
    -------------------------------------------------------------------------
CODE
  Segment part 117. NOT NEEDED.
           ENTRY                   ADDRESS         REF BY
           =====                   =======         ======
           hexer                   
               not allocated function
    -------------------------------------------------------------------------
CODE
  Segment part 118. NOT NEEDED.
    -------------------------------------------------------------------------
CODE
  Segment part 119. NOT NEEDED.
    -------------------------------------------------------------------------
DATA_I
  Relative segment, address: DATA_AREA 00000000 - 0000000F (0x10 bytes), align: 2
  Segment part 31.            Intra module refs:   cls
                                                   odraw
                                                   onstart
           ENTRY                   ADDRESS         REF BY
           =====                   =======         ======
           FImage                  00000008 
           bkcolor                 00000000 
           frcolor                 00000004 
           maks                    0000000C 
    -------------------------------------------------------------------------
DATA_I
  Segment part 33. NOT NEEDED.
           ENTRY                   ADDRESS         REF BY
           =====                   =======         ======
           menucolor               
    -------------------------------------------------------------------------
DATA_I
  Segment part 37. NOT NEEDED.
           ENTRY                   ADDRESS         REF BY
           =====                   =======         ======
           belex                   
    -------------------------------------------------------------------------
DATA_I
  Relative segment, address: DATA_AREA 00000010 - 00000013 (0x4 bytes), align: 2
  Segment part 44.
           ENTRY                   ADDRESS         REF BY
           =====                   =======         ======
           Title                   00000010        UpdateCSMname (Siemens)
    -------------------------------------------------------------------------
DATA_I
  Segment part 46. NOT NEEDED.
           ENTRY                   ADDRESS         REF BY
           =====                   =======         ======
           enter                   
    -------------------------------------------------------------------------
DATA_I
  Relative segment, address: DATA_AREA 00000014 - 0000001F (0xc bytes), align: 2
  Segment part 48.
           ENTRY                   ADDRESS         REF BY
           =====                   =======         ======
           errors                  00000014        main (Siemens)
    -------------------------------------------------------------------------
DATA_Z
  Relative segment, address: CODE_AREA 000086EC - 000086EF (0x4 bytes), align: 2
  Segment part 50.            Intra module refs:   Segment part 130
           ENTRY                   ADDRESS         REF BY
           =====                   =======         ======
           running                 000086EC 
    -------------------------------------------------------------------------
DATA_Z
  Segment part 51. NOT NEEDED.
           ENTRY                   ADDRESS         REF BY
           =====                   =======         ======
           mode                    
    -------------------------------------------------------------------------
DATA_I
  Relative segment, address: DATA_AREA 00000020 - 00000027 (0x8 bytes), align: 2
  Segment part 52.            Intra module refs:   onkey
           ENTRY                   ADDRESS         REF BY
           =====                   =======         ======
           curx                    00000020 
           cury                    00000024 
    -------------------------------------------------------------------------
CODE
  Segment part 120. NOT NEEDED.
           ENTRY                   ADDRESS         REF BY
           =====                   =======         ======
           drawcur                 
               not allocated function
    -------------------------------------------------------------------------
CODE
  Segment part 121. NOT NEEDED.
    -------------------------------------------------------------------------
CODE
  Segment part 122. NOT NEEDED.
    -------------------------------------------------------------------------
CODE
  Relative segment, address: CODE_AREA 00001378 - 0000137B (0x4 bytes), align: 2
  Segment part 123.
           ENTRY                   ADDRESS         REF BY
           =====                   =======         ======
           onredraw                00001378        method0 (Siemens)
               stack 1 = 00000000 ( 00000004 )
    -------------------------------------------------------------------------
CODE
  Segment part 124. NOT NEEDED.
    -------------------------------------------------------------------------
CODE
  Relative segment, address: CODE_AREA 0000137C - 0000143F (0xc4 bytes), align: 2
  Segment part 125.
           ENTRY                   ADDRESS         REF BY
           =====                   =======         ======
           odraw                   0000137C        DrawScreen (Siemens)
               stack 1 = 00000000 ( 00000038 )
    -------------------------------------------------------------------------
CODE
  Segment part 126. NOT NEEDED.
    -------------------------------------------------------------------------
CODE
  Relative segment, address: CODE_AREA 00001440 - 0000158B (0x14c bytes), align: 2
  Segment part 127.
           ENTRY                   ADDRESS         REF BY
           =====                   =======         ======
           onkey                   00001440        method5 (Siemens)
               stack 1 = 00000000 ( 0000000C )
    -------------------------------------------------------------------------
CODE
  Segment part 128. NOT NEEDED.
    -------------------------------------------------------------------------
CODE
  Relative segment, address: CODE_AREA 0000158C - 00001593 (0x8 bytes), align: 2
  Segment part 129.
           ENTRY                   ADDRESS         REF BY
           =====                   =======         ======
           onclose                 0000158C        maincsm_onclose (Siemens)
    -------------------------------------------------------------------------
CODE
  Relative segment, address: CODE_AREA 00001594 - 0000159F (0xc bytes), align: 2
  Segment part 130.           Intra module refs:   onclose
    -------------------------------------------------------------------------
CODE
  Segment part 131. NOT NEEDED.
    -------------------------------------------------------------------------
CODE
  Relative segment, address: CODE_AREA 000015A0 - 000015A3 (0x4 bytes), align: 2
  Segment part 132.
           ENTRY                   ADDRESS         REF BY
           =====                   =======         ======
           onexit                  000015A0        Killer (Siemens)
    -------------------------------------------------------------------------
CODE
  Segment part 133. NOT NEEDED.
    -------------------------------------------------------------------------
CODE
  Relative segment, address: CODE_AREA 000015A4 - 000015A7 (0x4 bytes), align: 2
  Segment part 134.
           ENTRY                   ADDRESS         REF BY
           =====                   =======         ======
           oncreate                000015A4        method1 (Siemens)
    -------------------------------------------------------------------------
CODE
  Segment part 135. NOT NEEDED.
    -------------------------------------------------------------------------
CODE
  Relative segment, address: CODE_AREA 000015A8 - 0000160B (0x64 bytes), align: 2
  Segment part 136.
           ENTRY                   ADDRESS         REF BY
           =====                   =======         ======
           onstart                 000015A8        main (Siemens)
               stack 1 = 00000000 ( 00000008 )
    -------------------------------------------------------------------------
CODE
  Segment part 137. NOT NEEDED.
    -------------------------------------------------------------------------
CODE
  Segment part 138. NOT NEEDED.
    -------------------------------------------------------------------------
CODE
  Segment part 139. NOT NEEDED.Intra module refs   cls
    -------------------------------------------------------------------------
CODE
  Segment part 140. NOT NEEDED.Intra module refs   onredraw
    -------------------------------------------------------------------------
CODE
  Segment part 141. NOT NEEDED.Intra module refs   onstart
    -------------------------------------------------------------------------
CODE
  Segment part 142. NOT NEEDED.Intra module refs   onstart
    -------------------------------------------------------------------------
CODE
  Segment part 143. NOT NEEDED.
           ENTRY                   ADDRESS         REF BY
           =====                   =======         ======
           rgb888tobyte            
               not allocated function
    -------------------------------------------------------------------------
CODE
  Relative segment, address: CODE_AREA 0000160C - 00001637 (0x2c bytes), align: 2
  Segment part 144.           Intra module refs:   onredraw
           ENTRY                   ADDRESS         REF BY
           =====                   =======         ======
           cls                     0000160C 
               stack 1 = 00000000 ( 00000004 )
    -------------------------------------------------------------------------
CSTACK
  Segment part 1. NOT NEEDED.
    -------------------------------------------------------------------------
DATA_ID
  Segment part 20. NOT NEEDED.
    -------------------------------------------------------------------------
DATA_ID
  Segment part 28. NOT NEEDED.
    -------------------------------------------------------------------------
DATA_ID
  Segment part 30. NOT NEEDED.
    -------------------------------------------------------------------------
DATA_ID
  Relative segment, address: CODE_AREA 00000000 - 0000000F (0x10 bytes), align: 2
  Segment part 32.            Intra module refs:   Segment part 31
    -------------------------------------------------------------------------
DATA_ID
  Segment part 34. NOT NEEDED.
    -------------------------------------------------------------------------
DATA_ID
  Segment part 38. NOT NEEDED.
    -------------------------------------------------------------------------
DATA_ID
  Relative segment, address: CODE_AREA 00000010 - 00000013 (0x4 bytes), align: 2
  Segment part 45.            Intra module refs:   Title
    -------------------------------------------------------------------------
DATA_ID
  Segment part 47. NOT NEEDED.
    -------------------------------------------------------------------------
DATA_ID
  Relative segment, address: CODE_AREA 00000014 - 0000001F (0xc bytes), align: 2
  Segment part 49.            Intra module refs:   errors
    -------------------------------------------------------------------------
DATA_ID
  Relative segment, address: CODE_AREA 00000020 - 00000027 (0x8 bytes), align: 2
  Segment part 53.            Intra module refs:   Segment part 52
    -------------------------------------------------------------------------
DATA_ID
  Segment part 145. NOT NEEDED.
           ENTRY                   ADDRESS         REF BY
           =====                   =======         ======
           ?*?DATA_ID              
    -------------------------------------------------------------------------
INITTAB
  Relative segment, address: CODE_AREA 000086D4 - 000086DF (0xc bytes), align: 2
  Segment part 146. ROOT.
           ENTRY                   ADDRESS         REF BY
           =====                   =======         ======
           ?init?tab?DATA_I        000086D4 
    -------------------------------------------------------------------------
INITTAB
  Relative segment, address: CODE_AREA 000086E0 - 000086EB (0xc bytes), align: 2
  Segment part 147. ROOT.
           ENTRY                   ADDRESS         REF BY
           =====                   =======         ======
           ?init?tab?DATA_Z        000086E0 

    *************************************************************************

  FILE NAME : F:\ÝLF\Iar1\arm\Project\Release_ELKA\Obj\Siemens.r79
  PROGRAM MODULE, NAME : Siemens

  SEGMENTS IN THE MODULE
  ======================
DATA_Z
  Segment part 7. NOT NEEDED.
           ENTRY                   ADDRESS         REF BY
           =====                   =======         ======
           C65                     
    -------------------------------------------------------------------------
DATA_Z
  Segment part 8. NOT NEEDED.
           ENTRY                   ADDRESS         REF BY
           =====                   =======         ======
           S75                     
    -------------------------------------------------------------------------
CODE
  Segment part 14. NOT NEEDED.
    -------------------------------------------------------------------------
CODE
  Relative segment, address: CODE_AREA 00001638 - 000016B7 (0x80 bytes), align: 2
  Segment part 15.            Intra module refs:   method0
           ENTRY                   ADDRESS         REF BY
           =====                   =======         ======
           DrawScreen              00001638 
               stack 1 = 00000000 ( 00000038 )
    -------------------------------------------------------------------------
CODE
  Segment part 16. NOT NEEDED.
    -------------------------------------------------------------------------
CODE
  Relative segment, address: CODE_AREA 000016B8 - 000016C7 (0x10 bytes), align: 2
  Segment part 17.            Intra module refs:   gui_methods
           ENTRY                   ADDRESS         REF BY
           =====                   =======         ======
           method0                 000016B8 
               stack 1 = 00000000 ( 00000004 )
    -------------------------------------------------------------------------
CODE
  Segment part 18. NOT NEEDED.
    -------------------------------------------------------------------------
CODE
  Relative segment, address: CODE_AREA 000016C8 - 000016DB (0x14 bytes), align: 2
  Segment part 19.            Intra module refs:   gui_methods
           ENTRY                   ADDRESS         REF BY
           =====                   =======         ======
           method1                 000016C8 
               stack 1 = 00000000 ( 00000008 )
    -------------------------------------------------------------------------
CODE
  Segment part 20. NOT NEEDED.
    -------------------------------------------------------------------------
CODE
  Relative segment, address: CODE_AREA 000016DC - 000016E7 (0xc bytes), align: 2
  Segment part 21.            Intra module refs:   gui_methods
           ENTRY                   ADDRESS         REF BY
           =====                   =======         ======
           method2                 000016DC 
    -------------------------------------------------------------------------
CODE
  Segment part 22. NOT NEEDED.
    -------------------------------------------------------------------------
CODE
  Relative segment, address: CODE_AREA 000016E8 - 000016F7 (0x10 bytes), align: 2
  Segment part 23.            Intra module refs:   gui_methods
           ENTRY                   ADDRESS         REF BY
           =====                   =======         ======
           method3                 000016E8 
               stack 1 = 00000000 ( 00000008 )
    -------------------------------------------------------------------------
CODE
  Relative segment, address: CODE_AREA 000016F8 - 000016FF (0x8 bytes), align: 2
  Segment part 24.            Intra module refs:   method1
                                                   method3
    -------------------------------------------------------------------------
CODE
  Segment part 25. NOT NEEDED.
    -------------------------------------------------------------------------
CODE
  Relative segment, address: CODE_AREA 00001700 - 00001713 (0x14 bytes), align: 2
  Segment part 26.            Intra module refs:   gui_methods
           ENTRY                   ADDRESS         REF BY
           =====                   =======         ======
           method4                 00001700 
    -------------------------------------------------------------------------
CODE
  Segment part 27. NOT NEEDED.
    -------------------------------------------------------------------------
CODE
  Relative segment, address: CODE_AREA 00001714 - 0000173B (0x28 bytes), align: 2
  Segment part 28.            Intra module refs:   gui_methods
           ENTRY                   ADDRESS         REF BY
           =====                   =======         ======
           method5                 00001714 
               stack 1 = 00000000 ( 00000004 )
    -------------------------------------------------------------------------
CODE
  Segment part 29. NOT NEEDED.
    -------------------------------------------------------------------------
CODE
  Relative segment, address: CODE_AREA 0000173C - 0000173F (0x4 bytes), align: 2
  Segment part 30.            Intra module refs:   gui_methods
           ENTRY                   ADDRESS         REF BY
           =====                   =======         ======
           method7                 0000173C 
    -------------------------------------------------------------------------
CODE
  Segment part 31. NOT NEEDED.
    -------------------------------------------------------------------------
CODE
  Relative segment, address: CODE_AREA 00001740 - 00001743 (0x4 bytes), align: 2
  Segment part 32.            Intra module refs:   gui_methods
           ENTRY                   ADDRESS         REF BY
           =====                   =======         ======
           method8                 00001740 
    -------------------------------------------------------------------------
CODE
  Segment part 33. NOT NEEDED.
    -------------------------------------------------------------------------
CODE
  Relative segment, address: CODE_AREA 00001744, align: 2
  Segment part 34.            Intra module refs:   gui_methods
           ENTRY                   ADDRESS         REF BY
           =====                   =======         ======
           method9                 00001744 
    -------------------------------------------------------------------------
CODE
  Relative segment, address: CODE_AREA 00001744 - 0000174B (0x8 bytes), align: 2
  Segment part 35.            Intra module refs:   method8
                                                   method9
    -------------------------------------------------------------------------
CODE
  Segment part 36. NOT NEEDED.
    -------------------------------------------------------------------------
DATA_I
  Relative segment, address: DATA_AREA 00000028 - 00000051 (0x2a bytes), align: 2
  Segment part 3.             Intra module refs:   Killer
                                                   Segment part 41
                                                   Segment part 49
                                                   Segment part 52
           ENTRY                   ADDRESS         REF BY
           =====                   =======         ======
           Canvas                  00000028 
           EL71                    00000051 
           SGOLD2                  00000050 
           height                  00000044 
           img                     00000030 
           msgerror                0000003C 
           screen                  0000004C        cls (Main)
           screensize              00000048        cls (Main)
           width                   00000040 
    -------------------------------------------------------------------------
DATA_I
  Relative segment, address: DATA_AREA 000010A0 - 000010A0 (0x1 bytes), align: 0
  Segment part 5.             Intra module refs:   maincsm_onclose
           ENTRY                   ADDRESS         REF BY
           =====                   =======         ======
           closer                  000010A0 
    -------------------------------------------------------------------------
CODE
  Relative segment, address: CODE_AREA 0000174C - 0000178B (0x40 bytes), align: 2
  Segment part 37.            Intra module refs:   MAINCSM
           ENTRY                   ADDRESS         REF BY
           =====                   =======         ======
           maincsm_oncreate        0000174C 
               stack 1 = 00000000 ( 0000000C )
    -------------------------------------------------------------------------
CODE
  Segment part 38. NOT NEEDED.
    -------------------------------------------------------------------------
CODE
  Segment part 39. NOT NEEDED.
           ENTRY                   ADDRESS         REF BY
           =====                   =======         ======
           maincsm_oncreate2       
               not allocated function
    -------------------------------------------------------------------------
CODE
  Relative segment, address: CODE_AREA 0000178C - 000017C3 (0x38 bytes), align: 2
  Segment part 40.            Intra module refs:   maincsm_oncreate
    -------------------------------------------------------------------------
CODE
  Relative segment, address: CODE_AREA 000017C4 - 000017C7 (0x4 bytes), align: 2
  Segment part 41.            Intra module refs:   maincsm_oncreate
    -------------------------------------------------------------------------
CODE
  Relative segment, address: CODE_AREA 000017C8 - 000017CB (0x4 bytes), align: 2
  Segment part 42.            Intra module refs:   Segment part 40
    -------------------------------------------------------------------------
CODE
  Segment part 43. NOT NEEDED.
    -------------------------------------------------------------------------
CODE
  Relative segment, address: CODE_AREA 000017CC - 00001803 (0x38 bytes), align: 2
  Segment part 44.            Intra module refs:   Segment part 53
           ENTRY                   ADDRESS         REF BY
           =====                   =======         ======
           Killer                  000017CC 
               stack 1 = 00000000 ( 00000004 )
    -------------------------------------------------------------------------
CODE
  Segment part 45. NOT NEEDED.
    -------------------------------------------------------------------------
CODE
  Relative segment, address: CODE_AREA 00001804 - 00001837 (0x34 bytes), align: 2
  Segment part 46.            Intra module refs:   MAINCSM
           ENTRY                   ADDRESS         REF BY
           =====                   =======         ======
           maincsm_onclose         00001804 
               stack 1 = 00000000 ( 00000008 )
    -------------------------------------------------------------------------
CODE
  Segment part 47. NOT NEEDED.
    -------------------------------------------------------------------------
CODE
  Relative segment, address: CODE_AREA 00001838 - 0000188B (0x54 bytes), align: 2
  Segment part 48.            Intra module refs:   MAINCSM
           ENTRY                   ADDRESS         REF BY
           =====                   =======         ======
           maincsm_onmessage       00001838 
    -------------------------------------------------------------------------
CODE
  Relative segment, address: CODE_AREA 0000188C - 0000188F (0x4 bytes), align: 2
  Segment part 49.            Intra module refs:   maincsm_onmessage
                                                   method5
    -------------------------------------------------------------------------
CODE
  Segment part 50. NOT NEEDED.
    -------------------------------------------------------------------------
DATA_Z
  Relative segment, address: CODE_AREA 000086F0 - 00008807 (0x118 bytes), align: 2
  Segment part 11.            Intra module refs:   MAINCSM
           ENTRY                   ADDRESS         REF BY
           =====                   =======         ======
           maincsm_name_body       000086F0 
    -------------------------------------------------------------------------
DATA_Z
  Segment part 12. NOT NEEDED.
           ENTRY                   ADDRESS         REF BY
           =====                   =======         ======
           maincsm_name_body2      
    -------------------------------------------------------------------------
DATA_C
  Relative segment, address: CODE_AREA 00008374 - 000083CB (0x58 bytes), align: 2
  Segment part 2.             Intra module refs:   UpdateCSMname
                                                   main
           ENTRY                   ADDRESS         REF BY
           =====                   =======         ======
           MAINCSM                 00008390 
    -------------------------------------------------------------------------
DATA_C
  Relative segment, address: CODE_AREA 000083CC - 000083F7 (0x2c bytes), align: 2
  Segment part 9.             Intra module refs:   Segment part 42
           ENTRY                   ADDRESS         REF BY
           =====                   =======         ======
           gui_methods             000083CC 
    -------------------------------------------------------------------------
DATA_C
  Relative segment, address: CODE_AREA 000083F8 - 000083FB (0x4 bytes), align: 2
  Segment part 10.            Intra module refs:   MAINCSM
           ENTRY                   ADDRESS         REF BY
           =====                   =======         ======
           minus11                 000083F8 
    -------------------------------------------------------------------------
DATA_C
  Segment part 13. NOT NEEDED.
           ENTRY                   ADDRESS         REF BY
           =====                   =======         ======
           MAINCSM2                
    -------------------------------------------------------------------------
CODE
  Relative segment, address: CODE_AREA 00001890 - 00001993 (0x104 bytes), align: 2
  Segment part 51.
           ENTRY                   ADDRESS         REF BY
           =====                   =======         ======
           main                    00001890        Absolute parts (?ABS_ENTRY_MOD)
               stack 1 = 00000000 ( 000000C8 )
    -------------------------------------------------------------------------
CODE
  Relative segment, address: CODE_AREA 00001994 - 00001997 (0x4 bytes), align: 2
  Segment part 52.            Intra module refs:   DrawScreen
                                                   main
    -------------------------------------------------------------------------
CODE
  Relative segment, address: CODE_AREA 00001998 - 0000199B (0x4 bytes), align: 2
  Segment part 53.            Intra module refs:   main
                                                   maincsm_onclose
    -------------------------------------------------------------------------
CODE
  Segment part 54. NOT NEEDED.Intra module refs:   DrawScreen
    -------------------------------------------------------------------------
CODE
  Segment part 55. NOT NEEDED.Intra module refs:   method0
    -------------------------------------------------------------------------
CODE
  Segment part 56. NOT NEEDED.Intra module refs:   method1
    -------------------------------------------------------------------------
CODE
  Segment part 57. NOT NEEDED.Intra module refs:   method5
    -------------------------------------------------------------------------
CODE
  Segment part 58. NOT NEEDED.Intra module refs:   Segment part 40
    -------------------------------------------------------------------------
CODE
  Segment part 59. NOT NEEDED.Intra module refs:   Killer
    -------------------------------------------------------------------------
CODE
  Segment part 60. NOT NEEDED.Intra module refs:   Killer
    -------------------------------------------------------------------------
CODE
  Segment part 61. NOT NEEDED.Intra module refs:   maincsm_onclose
    -------------------------------------------------------------------------
CODE
  Segment part 62. NOT NEEDED.Intra module refs:   main
    -------------------------------------------------------------------------
CODE
  Relative segment, address: CODE_AREA 0000199C - 000019BB (0x20 bytes), align: 2
  Segment part 63.            Intra module refs:   Segment part 40
           ENTRY                   ADDRESS         REF BY
           =====                   =======         ======
           UpdateCSMname           0000199C 
               stack 1 = 00000000 ( 00000004 )
    -------------------------------------------------------------------------
CSTACK
  Segment part 1. NOT NEEDED.
    -------------------------------------------------------------------------
DATA_ID
  Relative segment, address: CODE_AREA 00000028 - 00000051 (0x2a bytes), align: 2
  Segment part 4.             Intra module refs:   Segment part 3
    -------------------------------------------------------------------------
DATA_ID
  Relative segment, address: CODE_AREA 000010A0 - 000010A0 (0x1 bytes), align: 0
  Segment part 6.             Intra module refs:   closer
    -------------------------------------------------------------------------
INITTAB
  Segment part 64. TENTATIVE. Used definition from Main
           ENTRY                   ADDRESS         REF BY
           =====                   =======         ======
           ?init?tab?DATA_Z        
    -------------------------------------------------------------------------
DATA_ID
  Segment part 65. TENTATIVE. Used definition from Main
           ENTRY                   ADDRESS         REF BY
           =====                   =======         ======
           ?*?DATA_ID              
    -------------------------------------------------------------------------
INITTAB
  Segment part 66. TENTATIVE. Used definition from Main
           ENTRY                   ADDRESS         REF BY
           =====                   =======         ======
           ?init?tab?DATA_I        

    *************************************************************************

  FILE NAME : F:\ÝLF\Iar1\arm\Project\Release_ELKA\Obj\Swi.r79
  PROGRAM MODULE, NAME : Swi

  SEGMENTS IN THE MODULE
  ======================
CODE
  Relative segment, address: CODE_AREA 000019BC - 00001CDB (0x320 bytes), align: 2
  Segment part 0. ROOT.
           ENTRY                   ADDRESS         REF BY
           =====                   =======         ======
           kill_data               000019BC        Killer (Siemens)
           ?call_ctors             000019C0 
           strlen                  000019C4 
           strchr                  000019E4 
           strrchr                 00001A10 
           strcpy                  00001A48 
           strcat                  00001A64 
           memcmp                  00001A90 
           strcmp                  00001AC0 
           stricmp                 00001AE4 
           strncmp                 00001B10 
           strnicmp                00001B40 
           memcpy                  00001B78 
           movsw                   00001BC4 
           movsd                   00001BE0 
           memset                  00001BFC 
           memsetw                 00001C54        cls (Main)
           memsetd                 00001C74 
           memmov                  00001C94 
           iszero                  00001CBC 
    -------------------------------------------------------------------------
ELFBEGIN
  Relative segment, address: CODE_AREA 00000000, align: 0
  Segment part 1. ROOT.
           ENTRY                   ADDRESS         REF BY
           =====                   =======         ======
           ELF_BEGIN               00000000        Killer (Siemens)

    *************************************************************************

  FILE NAME : F:\ÝLF\Iar1\arm\Project\Release_ELKA\Obj\devka.r79
  PROGRAM MODULE, NAME : devka

  SEGMENTS IN THE MODULE
  ======================
DATA_I
  Relative segment, address: DATA_AREA 00000054 - 0000109F (0x104c bytes), align: 2
  Segment part 2.
           ENTRY                   ADDRESS         REF BY
           =====                   =======         ======
           devka                   00000054        onstart (Main)
    -------------------------------------------------------------------------
CSTACK
  Segment part 1. NOT NEEDED.
    -------------------------------------------------------------------------
DATA_ID
  Relative segment, address: CODE_AREA 00000054 - 0000109F (0x104c bytes), align: 2
  Segment part 3.             Intra module refs:   devka
    -------------------------------------------------------------------------
DATA_ID
  Segment part 4. TENTATIVE. Used definition from Main
           ENTRY                   ADDRESS         REF BY
           =====                   =======         ======
           ?*?DATA_ID              
    -------------------------------------------------------------------------
INITTAB
  Segment part 5. TENTATIVE. Used definition from Main
           ENTRY                   ADDRESS         REF BY
           =====                   =======         ======
           ?init?tab?DATA_I        

    *************************************************************************

  FILE NAME : F:\ÝLF\Iar1\arm\Project\Release_ELKA\Obj\readimg.r79
  PROGRAM MODULE, NAME : readimg

  SEGMENTS IN THE MODULE
  ======================
CODE
  Segment part 4. NOT NEEDED.
    -------------------------------------------------------------------------
CODE
  Segment part 5. NOT NEEDED.
           ENTRY                   ADDRESS         REF BY
           =====                   =======         ======
           xmalloc                 
               not allocated function
    -------------------------------------------------------------------------
CODE
  Segment part 6. NOT NEEDED.
    -------------------------------------------------------------------------
CODE
  Segment part 7. NOT NEEDED.
           ENTRY                   ADDRESS         REF BY
           =====                   =======         ======
           xmfree                  
               not allocated function
    -------------------------------------------------------------------------
CODE
  Segment part 8. NOT NEEDED.
    -------------------------------------------------------------------------
CODE
  Segment part 9. NOT NEEDED.
           ENTRY                   ADDRESS         REF BY
           =====                   =======         ======
           read_data_fn            
               not allocated function
    -------------------------------------------------------------------------
CODE
  Segment part 10. NOT NEEDED.
    -------------------------------------------------------------------------
CODE
  Segment part 11. NOT NEEDED.
           ENTRY                   ADDRESS         REF BY
           =====                   =======         ======
           read_pngimg             
               not allocated function
    -------------------------------------------------------------------------
CODE
  Segment part 12. NOT NEEDED.
    -------------------------------------------------------------------------
CODE
  Relative segment, address: CODE_AREA 00001CDC - 00001CFB (0x20 bytes), align: 2
  Segment part 13.            Intra module refs:   Segment part 20
           LOCAL                   ADDRESS         
           =====                   =======         
           my_error_exit           00001CDC 
               stack 1 = 00000000 ( 00000008 )
    -------------------------------------------------------------------------
CODE
  Segment part 14. NOT NEEDED.
    -------------------------------------------------------------------------
DATA_C
  Segment part 2. NOT NEEDED.
    -------------------------------------------------------------------------
DATA_C
  Relative segment, address: CODE_AREA 000086D0 - 000086D1 (0x2 bytes), align: 0
  Segment part 3.             Intra module refs:   read_jpgimg
           ENTRY                   ADDRESS         REF BY
           =====                   =======         ======
           jpg_hdr                 000086D0 
    -------------------------------------------------------------------------
CODE
  Relative segment, address: CODE_AREA 00001CFC - 00001E9F (0x1a4 bytes), align: 2
  Segment part 15.
           ENTRY                   ADDRESS         REF BY
           =====                   =======         ======
           read_jpgimg             00001CFC        onstart (Main)
               stack 1 = 00000000 ( 0000029C )
    -------------------------------------------------------------------------
CODE
  Segment part 16. NOT NEEDED.
    -------------------------------------------------------------------------
CODE
  Segment part 17. NOT NEEDED.
           ENTRY                   ADDRESS         REF BY
           =====                   =======         ======
           write_JPEG_file         
               not allocated function
    -------------------------------------------------------------------------
CODE
  Segment part 18. NOT NEEDED.
    -------------------------------------------------------------------------
CODE
  Segment part 19. NOT NEEDED.
           ENTRY                   ADDRESS         REF BY
           =====                   =======         ======
           write_jpgimg            
               not allocated function
    -------------------------------------------------------------------------
CODE
  Relative segment, address: CODE_AREA 00001EA0 - 00001EA3 (0x4 bytes), align: 2
  Segment part 20.            Intra module refs:   read_jpgimg
    -------------------------------------------------------------------------
CODE
  Segment part 21. NOT NEEDED.
    -------------------------------------------------------------------------
CODE
  Segment part 22. NOT NEEDED.
           ENTRY                   ADDRESS         REF BY
           =====                   =======         ======
           ConvertRGBAToRGB8       
               not allocated function
    -------------------------------------------------------------------------
CODE
  Segment part 23. NOT NEEDED.
    -------------------------------------------------------------------------
CODE
  Segment part 24. NOT NEEDED.
           ENTRY                   ADDRESS         REF BY
           =====                   =======         ======
           CreateFrame             
               not allocated function
    -------------------------------------------------------------------------
CODE
  Segment part 25. NOT NEEDED.
    -------------------------------------------------------------------------
CODE
  Segment part 26. NOT NEEDED.
           ENTRY                   ADDRESS         REF BY
           =====                   =======         ======
           CreateDelimiter         
               not allocated function
    -------------------------------------------------------------------------
CODE
  Segment part 27. NOT NEEDED.
    -------------------------------------------------------------------------
CODE
  Segment part 28. NOT NEEDED.Intra module refs:   read_jpgimg
    -------------------------------------------------------------------------
CODE
  Segment part 29. NOT NEEDED.Intra module refs:   read_jpgimg
    -------------------------------------------------------------------------
CODE
  Segment part 30. NOT NEEDED.Intra module refs:   read_jpgimg
    -------------------------------------------------------------------------
CODE
  Segment part 31. NOT NEEDED.Intra module refs:   read_jpgimg
    -------------------------------------------------------------------------
CODE
  Segment part 32. NOT NEEDED.Intra module refs:   read_jpgimg
    -------------------------------------------------------------------------
CODE
  Segment part 33. NOT NEEDED.Intra module refs:   read_jpgimg
    -------------------------------------------------------------------------
CODE
  Segment part 34. NOT NEEDED.Intra module refs:   read_jpgimg
    -------------------------------------------------------------------------
CODE
  Segment part 35. NOT NEEDED.Intra module refs:   read_jpgimg
    -------------------------------------------------------------------------
CODE
  Segment part 36. NOT NEEDED.
    -------------------------------------------------------------------------
CODE
  Segment part 37. NOT NEEDED.
    -------------------------------------------------------------------------
CODE
  Segment part 38. NOT NEEDED.
    -------------------------------------------------------------------------
CODE
  Segment part 39. NOT NEEDED.
    -------------------------------------------------------------------------
CODE
  Segment part 40. NOT NEEDED.
    -------------------------------------------------------------------------
CODE
  Segment part 41. NOT NEEDED.
    -------------------------------------------------------------------------
CODE
  Segment part 42. NOT NEEDED.
    -------------------------------------------------------------------------
CSTACK
  Segment part 1. NOT NEEDED.

    *************************************************************************

  FILE NAME : F:\ÝLF\Iar1\arm\Project\Release_ELKA\Obj\register.r79
  PROGRAM MODULE, NAME : register

  SEGMENTS IN THE MODULE
  ======================
DATA_Z
  Segment part 8. NOT NEEDED.
           ENTRY                   ADDRESS         REF BY
           =====                   =======         ======
           lent                    
    -------------------------------------------------------------------------
CODE
  Segment part 9. NOT NEEDED.
    -------------------------------------------------------------------------
CODE
  Segment part 10. NOT NEEDED.
           ENTRY                   ADDRESS         REF BY
           =====                   =======         ======
           loadfiles               
               not allocated function
    -------------------------------------------------------------------------
CODE
  Segment part 11. NOT NEEDED.
    -------------------------------------------------------------------------
CODE
  Segment part 12. NOT NEEDED.
           ENTRY                   ADDRESS         REF BY
           =====                   =======         ======
           savefiles               
               not allocated function
    -------------------------------------------------------------------------
CODE
  Segment part 13. NOT NEEDED.
    -------------------------------------------------------------------------
CODE
  Relative segment, address: CODE_AREA 00001EA4 - 00001ED7 (0x34 bytes), align: 2
  Segment part 14.
           ENTRY                   ADDRESS         REF BY
           =====                   =======         ======
           isfile                  00001EA4        onstart (Main)
               stack 1 = 00000000 ( 0000000C )
    -------------------------------------------------------------------------
CODE
  Segment part 15. NOT NEEDED.
    -------------------------------------------------------------------------
CODE
  Segment part 16. NOT NEEDED.
           ENTRY                   ADDRESS         REF BY
           =====                   =======         ======
           test_dir                
               not allocated function
    -------------------------------------------------------------------------
CSTACK
  Segment part 1. NOT NEEDED.
    -------------------------------------------------------------------------
INITTAB
  Segment part 17. TENTATIVE. Used definition from Main
           ENTRY                   ADDRESS         REF BY
           =====                   =======         ======
           ?init?tab?DATA_Z        
    -------------------------------------------------------------------------
DATA_C
  Segment part 2. NOT NEEDED.
    -------------------------------------------------------------------------
DATA_C
  Segment part 3. NOT NEEDED.
    -------------------------------------------------------------------------
DATA_C
  Segment part 4. NOT NEEDED.
    -------------------------------------------------------------------------
DATA_C
  Segment part 5. NOT NEEDED.
    -------------------------------------------------------------------------
DATA_C
  Segment part 6. NOT NEEDED.
    -------------------------------------------------------------------------
DATA_C
  Segment part 7. NOT NEEDED.

    *************************************************************************

  FILE NAME : F:\ÝLF\Iar1\arm\Rebel Editor\jpeglib\Release\Exe\jpeglib.r79
  LIBRARY MODULE, NAME : jcapimin

  SEGMENTS IN THE MODULE
  ======================
CODE
  Segment part 2. NOT NEEDED.
    -------------------------------------------------------------------------
CODE
  Segment part 3. NOT NEEDED.
           ENTRY                   ADDRESS         REF BY
           =====                   =======         ======
           jpeg_CreateCompress     
               not allocated function
    -------------------------------------------------------------------------
CODE
  Segment part 4. NOT NEEDED.
    -------------------------------------------------------------------------
CODE
  Segment part 5. NOT NEEDED.
           ENTRY                   ADDRESS         REF BY
           =====                   =======         ======
           jpeg_destroy_compress   
               not allocated function
    -------------------------------------------------------------------------
CODE
  Segment part 6. NOT NEEDED.
    -------------------------------------------------------------------------
CODE
  Segment part 7. NOT NEEDED.
           ENTRY                   ADDRESS         REF BY
           =====                   =======         ======
           jpeg_abort_compress     
               not allocated function
    -------------------------------------------------------------------------
CODE
  Segment part 8. NOT NEEDED.
    -------------------------------------------------------------------------
CODE
  Segment part 9. NOT NEEDED.
           ENTRY                   ADDRESS         REF BY
           =====                   =======         ======
           jpeg_suppress_tables    
               not allocated function
    -------------------------------------------------------------------------
CODE
  Segment part 10. NOT NEEDED.
    -------------------------------------------------------------------------
CODE
  Segment part 11. NOT NEEDED.
           ENTRY                   ADDRESS         REF BY
           =====                   =======         ======
           jpeg_finish_compress    
               not allocated function
    -------------------------------------------------------------------------
CODE
  Segment part 12. NOT NEEDED.
    -------------------------------------------------------------------------
CODE
  Segment part 13. NOT NEEDED.
           ENTRY                   ADDRESS         REF BY
           =====                   =======         ======
           jpeg_write_marker       
               not allocated function
    -------------------------------------------------------------------------
CODE
  Segment part 14. NOT NEEDED.
    -------------------------------------------------------------------------
CODE
  Segment part 15. NOT NEEDED.
           ENTRY                   ADDRESS         REF BY
           =====                   =======         ======
           jpeg_write_m_header     
               not allocated function
    -------------------------------------------------------------------------
CODE
  Segment part 16. NOT NEEDED.
    -------------------------------------------------------------------------
CODE
  Segment part 17. NOT NEEDED.
           ENTRY                   ADDRESS         REF BY
           =====                   =======         ======
           jpeg_write_m_byte       
               not allocated function
    -------------------------------------------------------------------------
CODE
  Segment part 18. NOT NEEDED.
    -------------------------------------------------------------------------
CODE
  Segment part 19. NOT NEEDED.
           ENTRY                   ADDRESS         REF BY
           =====                   =======         ======
           jpeg_write_tables       
               not allocated function
    -------------------------------------------------------------------------
CODE
  Segment part 20. NOT NEEDED.
    -------------------------------------------------------------------------
CODE
  Segment part 21. NOT NEEDED.
    -------------------------------------------------------------------------
CODE
  Segment part 22. NOT NEEDED.
    -------------------------------------------------------------------------
CODE
  Segment part 23. NOT NEEDED.
    -------------------------------------------------------------------------
CSTACK
  Segment part 1. NOT NEEDED.

    -------------------------------------------------------------------------
  LIBRARY MODULE, NAME : jcapistd

  SEGMENTS IN THE MODULE
  ======================
CODE
  Segment part 2. NOT NEEDED.
    -------------------------------------------------------------------------
CODE
  Segment part 3. NOT NEEDED.
           ENTRY                   ADDRESS         REF BY
           =====                   =======         ======
           jpeg_start_compress     
               not allocated function
    -------------------------------------------------------------------------
CODE
  Segment part 4. NOT NEEDED.
    -------------------------------------------------------------------------
CODE
  Segment part 5. NOT NEEDED.
           ENTRY                   ADDRESS         REF BY
           =====                   =======         ======
           jpeg_write_scanlines    
               not allocated function
    -------------------------------------------------------------------------
CODE
  Segment part 6. NOT NEEDED.
    -------------------------------------------------------------------------
CODE
  Segment part 7. NOT NEEDED.
           ENTRY                   ADDRESS         REF BY
           =====                   =======         ======
           jpeg_write_raw_data     
               not allocated function
    -------------------------------------------------------------------------
CODE
  Segment part 8. NOT NEEDED.
    -------------------------------------------------------------------------
CODE
  Segment part 9. NOT NEEDED.
    -------------------------------------------------------------------------
CSTACK
  Segment part 1. NOT NEEDED.

    -------------------------------------------------------------------------
  LIBRARY MODULE, NAME : jccoefct

  SEGMENTS IN THE MODULE
  ======================
CODE
  Segment part 2. NOT NEEDED.
    -------------------------------------------------------------------------
CODE
  Segment part 3. NOT NEEDED.
           LOCAL                   ADDRESS         
           =====                   =======         
           start_iMCU_row          
               not allocated function
    -------------------------------------------------------------------------
CODE
  Segment part 4. NOT NEEDED.
    -------------------------------------------------------------------------
CODE
  Segment part 5. NOT NEEDED.
           LOCAL                   ADDRESS         
           =====                   =======         
           start_pass_coef         
               not allocated function
    -------------------------------------------------------------------------
CODE
  Segment part 6. NOT NEEDED.
    -------------------------------------------------------------------------
CODE
  Segment part 7. NOT NEEDED.
           LOCAL                   ADDRESS         
           =====                   =======         
           compress_data           
               not allocated function
    -------------------------------------------------------------------------
CODE
  Segment part 8. NOT NEEDED.
    -------------------------------------------------------------------------
CODE
  Segment part 9. NOT NEEDED.
           LOCAL                   ADDRESS         
           =====                   =======         
           compress_first_pass     
               not allocated function
    -------------------------------------------------------------------------
CODE
  Segment part 10. NOT NEEDED.
    -------------------------------------------------------------------------
CODE
  Segment part 11. NOT NEEDED.
           LOCAL                   ADDRESS         
           =====                   =======         
           compress_output         
               not allocated function
    -------------------------------------------------------------------------
CODE
  Segment part 12. NOT NEEDED.
    -------------------------------------------------------------------------
CODE
  Segment part 13. NOT NEEDED.
           ENTRY                   ADDRESS         REF BY
           =====                   =======         ======
           jinit_c_coef_controller
                                   
               not allocated function
    -------------------------------------------------------------------------
CODE
  Segment part 14. NOT NEEDED.
    -------------------------------------------------------------------------
CODE
  Segment part 15. NOT NEEDED.
    -------------------------------------------------------------------------
CODE
  Segment part 16. NOT NEEDED.
    -------------------------------------------------------------------------
CSTACK
  Segment part 1. NOT NEEDED.

    -------------------------------------------------------------------------
  LIBRARY MODULE, NAME : jccolor

  SEGMENTS IN THE MODULE
  ======================
CODE
  Segment part 2. NOT NEEDED.
    -------------------------------------------------------------------------
CODE
  Segment part 3. NOT NEEDED.
           LOCAL                   ADDRESS         
           =====                   =======         
           rgb_ycc_start           
               not allocated function
    -------------------------------------------------------------------------
CODE
  Segment part 4. NOT NEEDED.
    -------------------------------------------------------------------------
CODE
  Segment part 5. NOT NEEDED.
           LOCAL                   ADDRESS         
           =====                   =======         
           rgb_ycc_convert         
               not allocated function
    -------------------------------------------------------------------------
CODE
  Segment part 6. NOT NEEDED.
    -------------------------------------------------------------------------
CODE
  Segment part 7. NOT NEEDED.
           LOCAL                   ADDRESS         
           =====                   =======         
           rgb_gray_convert        
               not allocated function
    -------------------------------------------------------------------------
CODE
  Segment part 8. NOT NEEDED.
    -------------------------------------------------------------------------
CODE
  Segment part 9. NOT NEEDED.
           LOCAL                   ADDRESS         
           =====                   =======         
           cmyk_ycck_convert       
               not allocated function
    -------------------------------------------------------------------------
CODE
  Segment part 10. NOT NEEDED.
    -------------------------------------------------------------------------
CODE
  Segment part 11. NOT NEEDED.
           LOCAL                   ADDRESS         
           =====                   =======         
           grayscale_convert       
               not allocated function
    -------------------------------------------------------------------------
CODE
  Segment part 12. NOT NEEDED.
    -------------------------------------------------------------------------
CODE
  Segment part 13. NOT NEEDED.
           LOCAL                   ADDRESS         
           =====                   =======         
           null_convert            
               not allocated function
    -------------------------------------------------------------------------
CODE
  Segment part 14. NOT NEEDED.
    -------------------------------------------------------------------------
CODE
  Segment part 15. NOT NEEDED.
           LOCAL                   ADDRESS         
           =====                   =======         
           null_method             
               not allocated function
    -------------------------------------------------------------------------
CODE
  Segment part 16. NOT NEEDED.
    -------------------------------------------------------------------------
CODE
  Segment part 17. NOT NEEDED.
           ENTRY                   ADDRESS         REF BY
           =====                   =======         ======
           jinit_color_converter   
               not allocated function
    -------------------------------------------------------------------------
CSTACK
  Segment part 1. NOT NEEDED.

    -------------------------------------------------------------------------
  LIBRARY MODULE, NAME : jcdctmgr

  SEGMENTS IN THE MODULE
  ======================
DATA_C
  Segment part 2. NOT NEEDED.
    -------------------------------------------------------------------------
CODE
  Segment part 3. NOT NEEDED.
    -------------------------------------------------------------------------
CODE
  Segment part 4. NOT NEEDED.
           LOCAL                   ADDRESS         
           =====                   =======         
           start_pass_fdctmgr      
               not allocated function
    -------------------------------------------------------------------------
CODE
  Segment part 5. NOT NEEDED.
    -------------------------------------------------------------------------
CODE
  Segment part 6. NOT NEEDED.
           LOCAL                   ADDRESS         
           =====                   =======         
           forward_DCT             
               not allocated function
    -------------------------------------------------------------------------
CODE
  Segment part 7. NOT NEEDED.
    -------------------------------------------------------------------------
CODE
  Segment part 8. NOT NEEDED.
           ENTRY                   ADDRESS         REF BY
           =====                   =======         ======
           jinit_forward_dct       
               not allocated function
    -------------------------------------------------------------------------
CODE
  Segment part 9. NOT NEEDED.
    -------------------------------------------------------------------------
CSTACK
  Segment part 1. NOT NEEDED.

    -------------------------------------------------------------------------
  LIBRARY MODULE, NAME : jchuff

  SEGMENTS IN THE MODULE
  ======================
CODE
  Segment part 2. NOT NEEDED.
    -------------------------------------------------------------------------
CODE
  Segment part 3. NOT NEEDED.
           LOCAL                   ADDRESS         
           =====                   =======         
           start_pass_huff         
               not allocated function
    -------------------------------------------------------------------------
CODE
  Segment part 4. NOT NEEDED.
    -------------------------------------------------------------------------
CODE
  Segment part 5. NOT NEEDED.
    -------------------------------------------------------------------------
CODE
  Segment part 6. NOT NEEDED.
           ENTRY                   ADDRESS         REF BY
           =====                   =======         ======
           jpeg_make_c_derived_tbl
                                   
               not allocated function
    -------------------------------------------------------------------------
CODE
  Segment part 7. NOT NEEDED.
    -------------------------------------------------------------------------
CODE
  Segment part 8. NOT NEEDED.
           LOCAL                   ADDRESS         
           =====                   =======         
           dump_buffer             
               not allocated function
    -------------------------------------------------------------------------
CODE
  Segment part 9. NOT NEEDED.
    -------------------------------------------------------------------------
CODE
  Segment part 10. NOT NEEDED.
           LOCAL                   ADDRESS         
           =====                   =======         
           emit_bits               
               not allocated function
    -------------------------------------------------------------------------
CODE
  Segment part 11. NOT NEEDED.
    -------------------------------------------------------------------------
CODE
  Segment part 12. NOT NEEDED.
           LOCAL                   ADDRESS         
           =====                   =======         
           flush_bits              
               not allocated function
    -------------------------------------------------------------------------
CODE
  Segment part 13. NOT NEEDED.
    -------------------------------------------------------------------------
CODE
  Segment part 14. NOT NEEDED.
           LOCAL                   ADDRESS         
           =====                   =======         
           encode_one_block        
               not allocated function
    -------------------------------------------------------------------------
CODE
  Segment part 15. NOT NEEDED.
    -------------------------------------------------------------------------
CODE
  Segment part 16. NOT NEEDED.
           LOCAL                   ADDRESS         
           =====                   =======         
           encode_mcu_huff         
               not allocated function
    -------------------------------------------------------------------------
CODE
  Segment part 17. NOT NEEDED.
    -------------------------------------------------------------------------
CODE
  Segment part 18. NOT NEEDED.
           LOCAL                   ADDRESS         
           =====                   =======         
           finish_pass_huff        
               not allocated function
    -------------------------------------------------------------------------
CODE
  Segment part 19. NOT NEEDED.
    -------------------------------------------------------------------------
CODE
  Segment part 20. NOT NEEDED.
           LOCAL                   ADDRESS         
           =====                   =======         
           htest_one_block         
               not allocated function
    -------------------------------------------------------------------------
CODE
  Segment part 21. NOT NEEDED.
    -------------------------------------------------------------------------
CODE
  Segment part 22. NOT NEEDED.
    -------------------------------------------------------------------------
CODE
  Segment part 23. NOT NEEDED.
           LOCAL                   ADDRESS         
           =====                   =======         
           encode_mcu_gather       
               not allocated function
    -------------------------------------------------------------------------
CODE
  Segment part 24. NOT NEEDED.
    -------------------------------------------------------------------------
CODE
  Segment part 25. NOT NEEDED.
           ENTRY                   ADDRESS         REF BY
           =====                   =======         ======
           jpeg_gen_optimal_table
                                   
               not allocated function
    -------------------------------------------------------------------------
CODE
  Segment part 26. NOT NEEDED.
    -------------------------------------------------------------------------
CODE
  Segment part 27. NOT NEEDED.
    -------------------------------------------------------------------------
CODE
  Segment part 28. NOT NEEDED.
           LOCAL                   ADDRESS         
           =====                   =======         
           finish_pass_gather      
               not allocated function
    -------------------------------------------------------------------------
CODE
  Segment part 29. NOT NEEDED.
    -------------------------------------------------------------------------
CODE
  Segment part 30. NOT NEEDED.
           ENTRY                   ADDRESS         REF BY
           =====                   =======         ======
           jinit_huff_encoder      
               not allocated function
    -------------------------------------------------------------------------
CODE
  Segment part 31. NOT NEEDED.
    -------------------------------------------------------------------------
CSTACK
  Segment part 1. NOT NEEDED.

    -------------------------------------------------------------------------
  LIBRARY MODULE, NAME : jcinit

  SEGMENTS IN THE MODULE
  ======================
CODE
  Segment part 2. NOT NEEDED.
    -------------------------------------------------------------------------
CODE
  Segment part 3. NOT NEEDED.
           ENTRY                   ADDRESS         REF BY
           =====                   =======         ======
           jinit_compress_master   
               not allocated function
    -------------------------------------------------------------------------
CODE
  Segment part 4. NOT NEEDED.
    -------------------------------------------------------------------------
CODE
  Segment part 5. NOT NEEDED.
    -------------------------------------------------------------------------
CODE
  Segment part 6. NOT NEEDED.
    -------------------------------------------------------------------------
CODE
  Segment part 7. NOT NEEDED.
    -------------------------------------------------------------------------
CODE
  Segment part 8. NOT NEEDED.
    -------------------------------------------------------------------------
CODE
  Segment part 9. NOT NEEDED.
    -------------------------------------------------------------------------
CODE
  Segment part 10. NOT NEEDED.
    -------------------------------------------------------------------------
CODE
  Segment part 11. NOT NEEDED.
    -------------------------------------------------------------------------
CODE
  Segment part 12. NOT NEEDED.
    -------------------------------------------------------------------------
CODE
  Segment part 13. NOT NEEDED.
    -------------------------------------------------------------------------
CSTACK
  Segment part 1. NOT NEEDED.

    -------------------------------------------------------------------------
  LIBRARY MODULE, NAME : jcmainct

  SEGMENTS IN THE MODULE
  ======================
CODE
  Segment part 2. NOT NEEDED.
    -------------------------------------------------------------------------
CODE
  Segment part 3. NOT NEEDED.
           LOCAL                   ADDRESS         
           =====                   =======         
           start_pass_main         
               not allocated function
    -------------------------------------------------------------------------
CODE
  Segment part 4. NOT NEEDED.
    -------------------------------------------------------------------------
CODE
  Segment part 5. NOT NEEDED.
           LOCAL                   ADDRESS         
           =====                   =======         
           process_data_simple_main
                                   
               not allocated function
    -------------------------------------------------------------------------
CODE
  Segment part 6. NOT NEEDED.
    -------------------------------------------------------------------------
CODE
  Segment part 7. NOT NEEDED.
           ENTRY                   ADDRESS         REF BY
           =====                   =======         ======
           jinit_c_main_controller
                                   
               not allocated function
    -------------------------------------------------------------------------
CSTACK
  Segment part 1. NOT NEEDED.

    -------------------------------------------------------------------------
  LIBRARY MODULE, NAME : jcmarker

  SEGMENTS IN THE MODULE
  ======================
CODE
  Segment part 2. NOT NEEDED.
    -------------------------------------------------------------------------
CODE
  Segment part 3. NOT NEEDED.
           LOCAL                   ADDRESS         
           =====                   =======         
           emit_byte               
               not allocated function
    -------------------------------------------------------------------------
CODE
  Segment part 4. NOT NEEDED.
    -------------------------------------------------------------------------
CODE
  Segment part 5. NOT NEEDED.
           LOCAL                   ADDRESS         
           =====                   =======         
           emit_marker             
               not allocated function
    -------------------------------------------------------------------------
CODE
  Segment part 6. NOT NEEDED.
    -------------------------------------------------------------------------
CODE
  Segment part 7. NOT NEEDED.
    -------------------------------------------------------------------------
CODE
  Segment part 8. NOT NEEDED.
           LOCAL                   ADDRESS         
           =====                   =======         
           emit_2bytes             
               not allocated function
    -------------------------------------------------------------------------
CODE
  Segment part 9. NOT NEEDED.
    -------------------------------------------------------------------------
CODE
  Segment part 10. NOT NEEDED.
           LOCAL                   ADDRESS         
           =====                   =======         
           emit_dqt                
               not allocated function
    -------------------------------------------------------------------------
CODE
  Segment part 11. NOT NEEDED.
    -------------------------------------------------------------------------
CODE
  Segment part 12. NOT NEEDED.
           LOCAL                   ADDRESS         
           =====                   =======         
           emit_dht                
               not allocated function
    -------------------------------------------------------------------------
CODE
  Segment part 13. NOT NEEDED.
    -------------------------------------------------------------------------
CODE
  Segment part 14. NOT NEEDED.
           LOCAL                   ADDRESS         
           =====                   =======         
           emit_sof                
               not allocated function
    -------------------------------------------------------------------------
CODE
  Segment part 15. NOT NEEDED.
    -------------------------------------------------------------------------
CODE
  Segment part 16. NOT NEEDED.
           LOCAL                   ADDRESS         
           =====                   =======         
           emit_sos                
               not allocated function
    -------------------------------------------------------------------------
CODE
  Segment part 17. NOT NEEDED.
    -------------------------------------------------------------------------
CODE
  Segment part 18. NOT NEEDED.
           LOCAL                   ADDRESS         
           =====                   =======         
           write_marker_header     
               not allocated function
    -------------------------------------------------------------------------
CODE
  Segment part 19. NOT NEEDED.
    -------------------------------------------------------------------------
CODE
  Segment part 20. NOT NEEDED.
           LOCAL                   ADDRESS         
           =====                   =======         
           write_marker_byte       
               not allocated function
    -------------------------------------------------------------------------
CODE
  Segment part 21. NOT NEEDED.
    -------------------------------------------------------------------------
CODE
  Segment part 22. NOT NEEDED.
           LOCAL                   ADDRESS         
           =====                   =======         
           write_file_header       
               not allocated function
    -------------------------------------------------------------------------
CODE
  Segment part 23. NOT NEEDED.
    -------------------------------------------------------------------------
CODE
  Segment part 24. NOT NEEDED.
           LOCAL                   ADDRESS         
           =====                   =======         
           write_frame_header      
               not allocated function
    -------------------------------------------------------------------------
CODE
  Segment part 25. NOT NEEDED.
    -------------------------------------------------------------------------
CODE
  Segment part 26. NOT NEEDED.
           LOCAL                   ADDRESS         
           =====                   =======         
           write_scan_header       
               not allocated function
    -------------------------------------------------------------------------
CODE
  Segment part 27. NOT NEEDED.
    -------------------------------------------------------------------------
CODE
  Segment part 28. NOT NEEDED.
           LOCAL                   ADDRESS         
           =====                   =======         
           write_file_trailer      
               not allocated function
    -------------------------------------------------------------------------
CODE
  Segment part 29. NOT NEEDED.
    -------------------------------------------------------------------------
CODE
  Segment part 30. NOT NEEDED.
           LOCAL                   ADDRESS         
           =====                   =======         
           write_tables_only       
               not allocated function
    -------------------------------------------------------------------------
CODE
  Segment part 31. NOT NEEDED.
    -------------------------------------------------------------------------
CODE
  Segment part 32. NOT NEEDED.
           ENTRY                   ADDRESS         REF BY
           =====                   =======         ======
           jinit_marker_writer     
               not allocated function
    -------------------------------------------------------------------------
CSTACK
  Segment part 1. NOT NEEDED.

    -------------------------------------------------------------------------
  LIBRARY MODULE, NAME : jcmaster

  SEGMENTS IN THE MODULE
  ======================
CODE
  Segment part 2. NOT NEEDED.
    -------------------------------------------------------------------------
CODE
  Segment part 3. NOT NEEDED.
           LOCAL                   ADDRESS         
           =====                   =======         
           initial_setup           
               not allocated function
    -------------------------------------------------------------------------
CODE
  Segment part 4. NOT NEEDED.
    -------------------------------------------------------------------------
CODE
  Segment part 5. NOT NEEDED.
           LOCAL                   ADDRESS         
           =====                   =======         
           validate_script         
               not allocated function
    -------------------------------------------------------------------------
CODE
  Segment part 6. NOT NEEDED.
    -------------------------------------------------------------------------
CODE
  Segment part 7. NOT NEEDED.
           LOCAL                   ADDRESS         
           =====                   =======         
           select_scan_parameters
                                   
               not allocated function
    -------------------------------------------------------------------------
CODE
  Segment part 8. NOT NEEDED.
    -------------------------------------------------------------------------
CODE
  Segment part 9. NOT NEEDED.
           LOCAL                   ADDRESS         
           =====                   =======         
           per_scan_setup          
               not allocated function
    -------------------------------------------------------------------------
CODE
  Segment part 10. NOT NEEDED.
    -------------------------------------------------------------------------
CODE
  Segment part 11. NOT NEEDED.
           LOCAL                   ADDRESS         
           =====                   =======         
           prepare_for_pass        
               not allocated function
    -------------------------------------------------------------------------
CODE
  Segment part 12. NOT NEEDED.
    -------------------------------------------------------------------------
CODE
  Segment part 13. NOT NEEDED.
           LOCAL                   ADDRESS         
           =====                   =======         
           pass_startup            
               not allocated function
    -------------------------------------------------------------------------
CODE
  Segment part 14. NOT NEEDED.
    -------------------------------------------------------------------------
CODE
  Segment part 15. NOT NEEDED.
           LOCAL                   ADDRESS         
           =====                   =======         
           finish_pass_master      
               not allocated function
    -------------------------------------------------------------------------
CODE
  Segment part 16. NOT NEEDED.
    -------------------------------------------------------------------------
CODE
  Segment part 17. NOT NEEDED.
           ENTRY                   ADDRESS         REF BY
           =====                   =======         ======
           jinit_c_master_control
                                   
               not allocated function
    -------------------------------------------------------------------------
CODE
  Segment part 18. NOT NEEDED.
    -------------------------------------------------------------------------
CODE
  Segment part 19. NOT NEEDED.
    -------------------------------------------------------------------------
CSTACK
  Segment part 1. NOT NEEDED.

    -------------------------------------------------------------------------
  LIBRARY MODULE, NAME : jcomapi

  SEGMENTS IN THE MODULE
  ======================
CODE
  Segment part 2. NOT NEEDED.
    -------------------------------------------------------------------------
CODE
  Relative segment, address: CODE_AREA 00001ED8 - 00001F05 (0x2e bytes), align: 2
  Segment part 3.
           ENTRY                   ADDRESS         REF BY
           =====                   =======         ======
           jpeg_abort              00001ED9        jpeg_finish_decompress (jdapimin)
                                                   jpeg_read_header (jdapimin)
               stack 1 = 00000000 ( 0000000C )
    -------------------------------------------------------------------------
CODE
  Segment part 4. NOT NEEDED.
    -------------------------------------------------------------------------
CODE
  Relative segment, address: CODE_AREA 00001F08 - 00001F1D (0x16 bytes), align: 2
  Segment part 5.
           ENTRY                   ADDRESS         REF BY
           =====                   =======         ======
           jpeg_destroy            00001F09        error_exit (jerror)
                                                   jpeg_destroy_decompress (jdapimin)
               stack 1 = 00000000 ( 00000008 )
    -------------------------------------------------------------------------
CODE
  Segment part 6. NOT NEEDED.
    -------------------------------------------------------------------------
CODE
  Relative segment, address: CODE_AREA 00001F20 - 00001F2F (0x10 bytes), align: 2
  Segment part 7.
           ENTRY                   ADDRESS         REF BY
           =====                   =======         ======
           jpeg_alloc_quant_table
                                   00001F21        get_dqt (jdmarker)
               stack 1 = 00000000 ( 00000004 )
    -------------------------------------------------------------------------
CODE
  Segment part 8. NOT NEEDED.
    -------------------------------------------------------------------------
CODE
  Relative segment, address: CODE_AREA 00001F30 - 00001F43 (0x14 bytes), align: 2
  Segment part 9.
           ENTRY                   ADDRESS         REF BY
           =====                   =======         ======
           jpeg_alloc_huff_table   00001F31        get_dht (jdmarker)
               stack 1 = 00000000 ( 00000004 )
    -------------------------------------------------------------------------
CODE
  Relative segment, address: CODE_AREA 00001F44 - 00001F49 (0x6 bytes), align: 2
  Segment part 10.            Intra module refs:   jpeg_alloc_huff_table
                                                   jpeg_alloc_quant_table
    -------------------------------------------------------------------------
CSTACK
  Segment part 1. NOT NEEDED.

    -------------------------------------------------------------------------
  LIBRARY MODULE, NAME : jcparam

  SEGMENTS IN THE MODULE
  ======================
CODE
  Segment part 4. NOT NEEDED.
    -------------------------------------------------------------------------
CODE
  Segment part 5. NOT NEEDED.
           ENTRY                   ADDRESS         REF BY
           =====                   =======         ======
           jpeg_add_quant_table    
               not allocated function
    -------------------------------------------------------------------------
CODE
  Segment part 6. NOT NEEDED.
    -------------------------------------------------------------------------
CODE
  Segment part 7. NOT NEEDED.
           ENTRY                   ADDRESS         REF BY
           =====                   =======         ======
           jpeg_set_linear_quality
                                   
               not allocated function
    -------------------------------------------------------------------------
CODE
  Segment part 8. NOT NEEDED.
    -------------------------------------------------------------------------
DATA_C
  Segment part 2. NOT NEEDED.
    -------------------------------------------------------------------------
CODE
  Segment part 9. NOT NEEDED.
           ENTRY                   ADDRESS         REF BY
           =====                   =======         ======
           jpeg_quality_scaling    
               not allocated function
    -------------------------------------------------------------------------
CODE
  Segment part 10. NOT NEEDED.
    -------------------------------------------------------------------------
CODE
  Segment part 11. NOT NEEDED.
           ENTRY                   ADDRESS         REF BY
           =====                   =======         ======
           jpeg_set_quality        
               not allocated function
    -------------------------------------------------------------------------
CODE
  Segment part 12. NOT NEEDED.
    -------------------------------------------------------------------------
CODE
  Segment part 13. NOT NEEDED.
           LOCAL                   ADDRESS         
           =====                   =======         
           add_huff_table          
               not allocated function
    -------------------------------------------------------------------------
CODE
  Segment part 14. NOT NEEDED.
    -------------------------------------------------------------------------
DATA_C
  Segment part 3. NOT NEEDED.
    -------------------------------------------------------------------------
CODE
  Segment part 15. NOT NEEDED.
           ENTRY                   ADDRESS         REF BY
           =====                   =======         ======
           jpeg_set_defaults       
               not allocated function
    -------------------------------------------------------------------------
CODE
  Segment part 16. NOT NEEDED.
    -------------------------------------------------------------------------
CODE
  Segment part 17. NOT NEEDED.
           ENTRY                   ADDRESS         REF BY
           =====                   =======         ======
           jpeg_default_colorspace
                                   
               not allocated function
    -------------------------------------------------------------------------
CODE
  Segment part 18. NOT NEEDED.
    -------------------------------------------------------------------------
CODE
  Segment part 19. NOT NEEDED.
           ENTRY                   ADDRESS         REF BY
           =====                   =======         ======
           jpeg_set_colorspace     
               not allocated function
    -------------------------------------------------------------------------
CODE
  Segment part 20. NOT NEEDED.
    -------------------------------------------------------------------------
CODE
  Segment part 21. NOT NEEDED.
           LOCAL                   ADDRESS         
           =====                   =======         
           fill_a_scan             
               not allocated function
    -------------------------------------------------------------------------
CODE
  Segment part 22. NOT NEEDED.
    -------------------------------------------------------------------------
CODE
  Segment part 23. NOT NEEDED.
           LOCAL                   ADDRESS         
           =====                   =======         
           fill_scans              
               not allocated function
    -------------------------------------------------------------------------
CODE
  Segment part 24. NOT NEEDED.
    -------------------------------------------------------------------------
CODE
  Segment part 25. NOT NEEDED.
           LOCAL                   ADDRESS         
           =====                   =======         
           fill_dc_scans           
               not allocated function
    -------------------------------------------------------------------------
CODE
  Segment part 26. NOT NEEDED.
    -------------------------------------------------------------------------
CODE
  Segment part 27. NOT NEEDED.
           ENTRY                   ADDRESS         REF BY
           =====                   =======         ======
           jpeg_simple_progression
                                   
               not allocated function
    -------------------------------------------------------------------------
CODE
  Segment part 28. NOT NEEDED.
    -------------------------------------------------------------------------
CODE
  Segment part 29. NOT NEEDED.
    -------------------------------------------------------------------------
CODE
  Segment part 30. NOT NEEDED.
    -------------------------------------------------------------------------
CSTACK
  Segment part 1. NOT NEEDED.

    -------------------------------------------------------------------------
  LIBRARY MODULE, NAME : jcphuff

  SEGMENTS IN THE MODULE
  ======================
CODE
  Segment part 2. NOT NEEDED.
    -------------------------------------------------------------------------
CODE
  Segment part 3. NOT NEEDED.
           LOCAL                   ADDRESS         
           =====                   =======         
           start_pass_phuff        
               not allocated function
    -------------------------------------------------------------------------
CODE
  Segment part 4. NOT NEEDED.
    -------------------------------------------------------------------------
CODE
  Segment part 5. NOT NEEDED.
           LOCAL                   ADDRESS         
           =====                   =======         
           dump_buffer             
               not allocated function
    -------------------------------------------------------------------------
CODE
  Segment part 6. NOT NEEDED.
    -------------------------------------------------------------------------
CODE
  Segment part 7. NOT NEEDED.
           LOCAL                   ADDRESS         
           =====                   =======         
           emit_bits               
               not allocated function
    -------------------------------------------------------------------------
CODE
  Segment part 8. NOT NEEDED.
    -------------------------------------------------------------------------
CODE
  Segment part 9. NOT NEEDED.
           LOCAL                   ADDRESS         
           =====                   =======         
           flush_bits              
               not allocated function
    -------------------------------------------------------------------------
CODE
  Segment part 10. NOT NEEDED.
    -------------------------------------------------------------------------
CODE
  Segment part 11. NOT NEEDED.
           LOCAL                   ADDRESS         
           =====                   =======         
           emit_symbol             
               not allocated function
    -------------------------------------------------------------------------
CODE
  Segment part 12. NOT NEEDED.
    -------------------------------------------------------------------------
CODE
  Segment part 13. NOT NEEDED.
           LOCAL                   ADDRESS         
           =====                   =======         
           emit_buffered_bits      
               not allocated function
    -------------------------------------------------------------------------
CODE
  Segment part 14. NOT NEEDED.
    -------------------------------------------------------------------------
CODE
  Segment part 15. NOT NEEDED.
           LOCAL                   ADDRESS         
           =====                   =======         
           emit_eobrun             
               not allocated function
    -------------------------------------------------------------------------
CODE
  Segment part 16. NOT NEEDED.
    -------------------------------------------------------------------------
CODE
  Segment part 17. NOT NEEDED.
           LOCAL                   ADDRESS         
           =====                   =======         
           emit_restart            
               not allocated function
    -------------------------------------------------------------------------
CODE
  Segment part 18. NOT NEEDED.
    -------------------------------------------------------------------------
CODE
  Segment part 19. NOT NEEDED.
           LOCAL                   ADDRESS         
           =====                   =======         
           encode_mcu_DC_first     
               not allocated function
    -------------------------------------------------------------------------
CODE
  Segment part 20. NOT NEEDED.
    -------------------------------------------------------------------------
CODE
  Segment part 21. NOT NEEDED.
           LOCAL                   ADDRESS         
           =====                   =======         
           encode_mcu_AC_first     
               not allocated function
    -------------------------------------------------------------------------
CODE
  Segment part 22. NOT NEEDED.
    -------------------------------------------------------------------------
CODE
  Segment part 23. NOT NEEDED.
           LOCAL                   ADDRESS         
           =====                   =======         
           encode_mcu_DC_refine    
               not allocated function
    -------------------------------------------------------------------------
CODE
  Segment part 24. NOT NEEDED.
    -------------------------------------------------------------------------
CODE
  Segment part 25. NOT NEEDED.
           LOCAL                   ADDRESS         
           =====                   =======         
           encode_mcu_AC_refine    
               not allocated function
    -------------------------------------------------------------------------
CODE
  Segment part 26. NOT NEEDED.
    -------------------------------------------------------------------------
CODE
  Segment part 27. NOT NEEDED.
    -------------------------------------------------------------------------
CODE
  Segment part 28. NOT NEEDED.
    -------------------------------------------------------------------------
CODE
  Segment part 29. NOT NEEDED.
           LOCAL                   ADDRESS         
           =====                   =======         
           finish_pass_phuff       
               not allocated function
    -------------------------------------------------------------------------
CODE
  Segment part 30. NOT NEEDED.
    -------------------------------------------------------------------------
CODE
  Segment part 31. NOT NEEDED.
           LOCAL                   ADDRESS         
           =====                   =======         
           finish_pass_gather_phuff
                                   
               not allocated function
    -------------------------------------------------------------------------
CODE
  Segment part 32. NOT NEEDED.
    -------------------------------------------------------------------------
CODE
  Segment part 33. NOT NEEDED.
           ENTRY                   ADDRESS         REF BY
           =====                   =======         ======
           jinit_phuff_encoder     
               not allocated function
    -------------------------------------------------------------------------
CODE
  Segment part 34. NOT NEEDED.
    -------------------------------------------------------------------------
CODE
  Segment part 35. NOT NEEDED.
    -------------------------------------------------------------------------
CODE
  Segment part 36. NOT NEEDED.
    -------------------------------------------------------------------------
CSTACK
  Segment part 1. NOT NEEDED.

    -------------------------------------------------------------------------
  LIBRARY MODULE, NAME : jcprepct

  SEGMENTS IN THE MODULE
  ======================
CODE
  Segment part 2. NOT NEEDED.
    -------------------------------------------------------------------------
CODE
  Segment part 3. NOT NEEDED.
           LOCAL                   ADDRESS         
           =====                   =======         
           start_pass_prep         
               not allocated function
    -------------------------------------------------------------------------
CODE
  Segment part 4. NOT NEEDED.
    -------------------------------------------------------------------------
CODE
  Segment part 5. NOT NEEDED.
           LOCAL                   ADDRESS         
           =====                   =======         
           expand_bottom_edge      
               not allocated function
    -------------------------------------------------------------------------
CODE
  Segment part 6. NOT NEEDED.
    -------------------------------------------------------------------------
CODE
  Segment part 7. NOT NEEDED.
           LOCAL                   ADDRESS         
           =====                   =======         
           pre_process_data        
               not allocated function
    -------------------------------------------------------------------------
CODE
  Segment part 8. NOT NEEDED.
    -------------------------------------------------------------------------
CODE
  Segment part 9. NOT NEEDED.
           LOCAL                   ADDRESS         
           =====                   =======         
           pre_process_context     
               not allocated function
    -------------------------------------------------------------------------
CODE
  Segment part 10. NOT NEEDED.
    -------------------------------------------------------------------------
CODE
  Segment part 11. NOT NEEDED.
           LOCAL                   ADDRESS         
           =====                   =======         
           create_context_buffer   
               not allocated function
    -------------------------------------------------------------------------
CODE
  Segment part 12. NOT NEEDED.
    -------------------------------------------------------------------------
CODE
  Segment part 13. NOT NEEDED.
           ENTRY                   ADDRESS         REF BY
           =====                   =======         ======
           jinit_c_prep_controller
                                   
               not allocated function
    -------------------------------------------------------------------------
CODE
  Segment part 14. NOT NEEDED.
    -------------------------------------------------------------------------
CODE
  Segment part 15. NOT NEEDED.
    -------------------------------------------------------------------------
CSTACK
  Segment part 1. NOT NEEDED.

    -------------------------------------------------------------------------
  LIBRARY MODULE, NAME : jcsample

  SEGMENTS IN THE MODULE
  ======================
CODE
  Segment part 2. NOT NEEDED.
    -------------------------------------------------------------------------
CODE
  Segment part 3. NOT NEEDED.
           LOCAL                   ADDRESS         
           =====                   =======         
           start_pass_downsample   
               not allocated function
    -------------------------------------------------------------------------
CODE
  Segment part 4. NOT NEEDED.
    -------------------------------------------------------------------------
CODE
  Segment part 5. NOT NEEDED.
           LOCAL                   ADDRESS         
           =====                   =======         
           expand_right_edge       
               not allocated function
    -------------------------------------------------------------------------
CODE
  Segment part 6. NOT NEEDED.
    -------------------------------------------------------------------------
CODE
  Segment part 7. NOT NEEDED.
           LOCAL                   ADDRESS         
           =====                   =======         
           sep_downsample          
               not allocated function
    -------------------------------------------------------------------------
CODE
  Segment part 8. NOT NEEDED.
    -------------------------------------------------------------------------
CODE
  Segment part 9. NOT NEEDED.
           LOCAL                   ADDRESS         
           =====                   =======         
           int_downsample          
               not allocated function
    -------------------------------------------------------------------------
CODE
  Segment part 10. NOT NEEDED.
    -------------------------------------------------------------------------
CODE
  Segment part 11. NOT NEEDED.
           LOCAL                   ADDRESS         
           =====                   =======         
           fullsize_downsample     
               not allocated function
    -------------------------------------------------------------------------
CODE
  Segment part 12. NOT NEEDED.
    -------------------------------------------------------------------------
CODE
  Segment part 13. NOT NEEDED.
           LOCAL                   ADDRESS         
           =====                   =======         
           h2v1_downsample         
               not allocated function
    -------------------------------------------------------------------------
CODE
  Segment part 14. NOT NEEDED.
    -------------------------------------------------------------------------
CODE
  Segment part 15. NOT NEEDED.
           LOCAL                   ADDRESS         
           =====                   =======         
           h2v2_downsample         
               not allocated function
    -------------------------------------------------------------------------
CODE
  Segment part 16. NOT NEEDED.
    -------------------------------------------------------------------------
CODE
  Segment part 17. NOT NEEDED.
           LOCAL                   ADDRESS         
           =====                   =======         
           h2v2_smooth_downsample
                                   
               not allocated function
    -------------------------------------------------------------------------
CODE
  Segment part 18. NOT NEEDED.
    -------------------------------------------------------------------------
CODE
  Segment part 19. NOT NEEDED.
           LOCAL                   ADDRESS         
           =====                   =======         
           fullsize_smooth_downsample
                                   
               not allocated function
    -------------------------------------------------------------------------
CODE
  Segment part 20. NOT NEEDED.
    -------------------------------------------------------------------------
CODE
  Segment part 21. NOT NEEDED.
           ENTRY                   ADDRESS         REF BY
           =====                   =======         ======
           jinit_downsampler       
               not allocated function
    -------------------------------------------------------------------------
CODE
  Segment part 22. NOT NEEDED.
    -------------------------------------------------------------------------
CODE
  Segment part 23. NOT NEEDED.
    -------------------------------------------------------------------------
CSTACK
  Segment part 1. NOT NEEDED.

    -------------------------------------------------------------------------
  LIBRARY MODULE, NAME : jdapimin

  SEGMENTS IN THE MODULE
  ======================
CODE
  Relative segment, address: CODE_AREA 00001F4C - 00001F53 (0x8 bytes), align: 2
  Segment part 2.
           ENTRY                   ADDRESS         REF BY
           =====                   =======         ======
           jpeg_CreateDecompress::??rA
                                   00001F4C 
    -------------------------------------------------------------------------
CODE
  Relative segment, address: CODE_AREA 00001F54 - 00001FF7 (0xa4 bytes), align: 2
  Segment part 3.             Intra module refs:   jpeg_CreateDecompress::??rA
           ENTRY                   ADDRESS         REF BY
           =====                   =======         ======
           jpeg_CreateDecompress   00001F55        read_jpgimg (readimg)
               stack 1 = 00000000 ( 00000018 )
    -------------------------------------------------------------------------
CODE
  Relative segment, address: CODE_AREA 00001FF8 - 00001FFF (0x8 bytes), align: 2
  Segment part 4.
           ENTRY                   ADDRESS         REF BY
           =====                   =======         ======
           jpeg_destroy_decompress::??rA
                                   00001FF8 
    -------------------------------------------------------------------------
CODE
  Relative segment, address: CODE_AREA 00002000 - 00002007 (0x8 bytes), align: 2
  Segment part 5.             Intra module refs:   jpeg_destroy_decompress::??rA
           ENTRY                   ADDRESS         REF BY
           =====                   =======         ======
           jpeg_destroy_decompress
                                   00002001        read_jpgimg (readimg)
               stack 1 = 00000000 ( 00000004 )
    -------------------------------------------------------------------------
CODE
  Segment part 6. NOT NEEDED.
    -------------------------------------------------------------------------
CODE
  Segment part 7. NOT NEEDED.
           ENTRY                   ADDRESS         REF BY
           =====                   =======         ======
           jpeg_abort_decompress   
               not allocated function
    -------------------------------------------------------------------------
CODE
  Segment part 8. NOT NEEDED.
    -------------------------------------------------------------------------
CODE
  Relative segment, address: CODE_AREA 00002008 - 00002117 (0x110 bytes), align: 2
  Segment part 9.             Intra module refs:   jpeg_consume_input
           LOCAL                   ADDRESS         
           =====                   =======         
           default_decompress_parms
                                   00002009 
               stack 1 = 00000000 ( 00000014 )
    -------------------------------------------------------------------------
CODE
  Relative segment, address: CODE_AREA 00002118 - 0000211F (0x8 bytes), align: 2
  Segment part 10.
           ENTRY                   ADDRESS         REF BY
           =====                   =======         ======
           jpeg_read_header::??rA
                                   00002118 
    -------------------------------------------------------------------------
CODE
  Relative segment, address: CODE_AREA 00002120 - 0000216F (0x50 bytes), align: 2
  Segment part 11.            Intra module refs:   jpeg_read_header::??rA
           ENTRY                   ADDRESS         REF BY
           =====                   =======         ======
           jpeg_read_header        00002121        read_jpgimg (readimg)
               stack 1 = 00000000 ( 0000000C )
    -------------------------------------------------------------------------
CODE
  Segment part 12. NOT NEEDED.
    -------------------------------------------------------------------------
CODE
  Relative segment, address: CODE_AREA 00002170 - 000021E9 (0x7a bytes), align: 2
  Segment part 13.            Intra module refs:   jpeg_read_header
           ENTRY                   ADDRESS         REF BY
           =====                   =======         ======
           jpeg_consume_input      00002171 
               stack 1 = 00000000 ( 00000010 )
    -------------------------------------------------------------------------
CODE
  Segment part 14. NOT NEEDED.
    -------------------------------------------------------------------------
CODE
  Segment part 15. NOT NEEDED.
           ENTRY                   ADDRESS         REF BY
           =====                   =======         ======
           jpeg_input_complete     
               not allocated function
    -------------------------------------------------------------------------
CODE
  Segment part 16. NOT NEEDED.
    -------------------------------------------------------------------------
CODE
  Segment part 17. NOT NEEDED.
           ENTRY                   ADDRESS         REF BY
           =====                   =======         ======
           jpeg_has_multiple_scans
                                   
               not allocated function
    -------------------------------------------------------------------------
CODE
  Relative segment, address: CODE_AREA 000021EC - 000021F3 (0x8 bytes), align: 2
  Segment part 18.
           ENTRY                   ADDRESS         REF BY
           =====                   =======         ======
           jpeg_finish_decompress::??rA
                                   000021EC 
    -------------------------------------------------------------------------
CODE
  Relative segment, address: CODE_AREA 000021F4 - 00002277 (0x84 bytes), align: 2
  Segment part 19.            Intra module refs:   jpeg_finish_decompress::??rA
           ENTRY                   ADDRESS         REF BY
           =====                   =======         ======
           jpeg_finish_decompress
                                   000021F5        read_jpgimg (readimg)
               stack 1 = 00000000 ( 0000000C )
    -------------------------------------------------------------------------
CODE
  Segment part 20. NOT NEEDED.Intra module refs:   jpeg_CreateDecompress
    -------------------------------------------------------------------------
CODE
  Segment part 21. NOT NEEDED.Intra module refs:   jpeg_CreateDecompress
    -------------------------------------------------------------------------
CODE
  Segment part 22. NOT NEEDED.Intra module refs:   jpeg_CreateDecompress
    -------------------------------------------------------------------------
CODE
  Segment part 23. NOT NEEDED.Intra module refs:   jpeg_destroy_decompress
    -------------------------------------------------------------------------
CODE
  Segment part 24. NOT NEEDED.Intra module refs:   jpeg_finish_decompress
                                                   jpeg_read_header
    -------------------------------------------------------------------------
CSTACK
  Segment part 1. NOT NEEDED.

    -------------------------------------------------------------------------
  LIBRARY MODULE, NAME : jdapistd

  SEGMENTS IN THE MODULE
  ======================
CODE
  Relative segment, address: CODE_AREA 00002278 - 0000227F (0x8 bytes), align: 2
  Segment part 2.
           ENTRY                   ADDRESS         REF BY
           =====                   =======         ======
           jpeg_start_decompress::??rA
                                   00002278 
    -------------------------------------------------------------------------
CODE
  Relative segment, address: CODE_AREA 00002280 - 00002321 (0xa2 bytes), align: 2
  Segment part 3.             Intra module refs:   jpeg_start_decompress::??rA
           ENTRY                   ADDRESS         REF BY
           =====                   =======         ======
           jpeg_start_decompress   00002281        read_jpgimg (readimg)
               stack 1 = 00000000 ( 0000000C )
    -------------------------------------------------------------------------
CODE
  Segment part 4. NOT NEEDED.
    -------------------------------------------------------------------------
CODE
  Relative segment, address: CODE_AREA 00002324 - 0000236B (0x48 bytes), align: 2
  Segment part 5.             Intra module refs:   jpeg_start_decompress
           LOCAL                   ADDRESS         
           =====                   =======         
           output_pass_setup       00002325 
               stack 1 = 00000000 ( 0000000C )
    -------------------------------------------------------------------------
CODE
  Relative segment, address: CODE_AREA 0000236C - 00002373 (0x8 bytes), align: 2
  Segment part 6.
           ENTRY                   ADDRESS         REF BY
           =====                   =======         ======
           jpeg_read_scanlines::??rA
                                   0000236C 
    -------------------------------------------------------------------------
CODE
  Relative segment, address: CODE_AREA 00002374 - 000023EB (0x78 bytes), align: 2
  Segment part 7.             Intra module refs:   jpeg_read_scanlines::??rA
           ENTRY                   ADDRESS         REF BY
           =====                   =======         ======
           jpeg_read_scanlines     00002375        read_jpgimg (readimg)
               stack 1 = 00000000 ( 00000018 )
    -------------------------------------------------------------------------
CODE
  Segment part 8. NOT NEEDED.
    -------------------------------------------------------------------------
CODE
  Segment part 9. NOT NEEDED.
           ENTRY                   ADDRESS         REF BY
           =====                   =======         ======
           jpeg_read_raw_data      
               not allocated function
    -------------------------------------------------------------------------
CODE
  Relative segment, address: CODE_AREA 000023EC - 000023F1 (0x6 bytes), align: 2
  Segment part 10.            Intra module refs:   jpeg_read_scanlines
    -------------------------------------------------------------------------
CODE
  Segment part 11. NOT NEEDED.
    -------------------------------------------------------------------------
CODE
  Segment part 12. NOT NEEDED.
           ENTRY                   ADDRESS         REF BY
           =====                   =======         ======
           jpeg_start_output       
               not allocated function
    -------------------------------------------------------------------------
CODE
  Segment part 13. NOT NEEDED.
    -------------------------------------------------------------------------
CODE
  Segment part 14. NOT NEEDED.
           ENTRY                   ADDRESS         REF BY
           =====                   =======         ======
           jpeg_finish_output      
               not allocated function
    -------------------------------------------------------------------------
CODE
  Relative segment, address: CODE_AREA 000023F4 - 000023FB (0x8 bytes), align: 2
  Segment part 15.            Intra module refs:   jpeg_start_decompress
                                                   output_pass_setup
    -------------------------------------------------------------------------
CODE
  Segment part 16. NOT NEEDED.Intra module refs:   jpeg_start_decompress
    -------------------------------------------------------------------------
CSTACK
  Segment part 1. NOT NEEDED.

    -------------------------------------------------------------------------
  LIBRARY MODULE, NAME : jdatadst

  SEGMENTS IN THE MODULE
  ======================
CODE
  Segment part 2. NOT NEEDED.
    -------------------------------------------------------------------------
CODE
  Segment part 3. NOT NEEDED.
           LOCAL                   ADDRESS         
           =====                   =======         
           init_destination        
               not allocated function
    -------------------------------------------------------------------------
CODE
  Segment part 4. NOT NEEDED.
    -------------------------------------------------------------------------
CODE
  Segment part 5. NOT NEEDED.
           LOCAL                   ADDRESS         
           =====                   =======         
           empty_output_buffer     
               not allocated function
    -------------------------------------------------------------------------
CODE
  Segment part 6. NOT NEEDED.
    -------------------------------------------------------------------------
CODE
  Segment part 7. NOT NEEDED.
           LOCAL                   ADDRESS         
           =====                   =======         
           term_destination        
               not allocated function
    -------------------------------------------------------------------------
CODE
  Segment part 8. NOT NEEDED.
    -------------------------------------------------------------------------
CODE
  Segment part 9. NOT NEEDED.
           ENTRY                   ADDRESS         REF BY
           =====                   =======         ======
           jpeg_stdio_dest         
               not allocated function
    -------------------------------------------------------------------------
CSTACK
  Segment part 1. NOT NEEDED.

    -------------------------------------------------------------------------
  LIBRARY MODULE, NAME : jdatasrc

  SEGMENTS IN THE MODULE
  ======================
CODE
  Segment part 2. NOT NEEDED.
    -------------------------------------------------------------------------
CODE
  Relative segment, address: CODE_AREA 000023FC - 00002409 (0xe bytes), align: 2
  Segment part 3.             Intra module refs:   jpeg_stdio_src
           LOCAL                   ADDRESS         
           =====                   =======         
           init_source             000023FD 
    -------------------------------------------------------------------------
CODE
  Segment part 4. NOT NEEDED.
    -------------------------------------------------------------------------
CODE
  Relative segment, address: CODE_AREA 0000240C - 00002423 (0x18 bytes), align: 2
  Segment part 5.             Intra module refs:   jpeg_stdio_src
           LOCAL                   ADDRESS         
           =====                   =======         
           fill_input_buffer       0000240D 
    -------------------------------------------------------------------------
CODE
  Segment part 6. NOT NEEDED.
    -------------------------------------------------------------------------
CODE
  Relative segment, address: CODE_AREA 00002424 - 00002433 (0x10 bytes), align: 2
  Segment part 7.             Intra module refs:   jpeg_stdio_src
           LOCAL                   ADDRESS         
           =====                   =======         
           skip_input_data         00002425 
    -------------------------------------------------------------------------
CODE
  Segment part 8. NOT NEEDED.
    -------------------------------------------------------------------------
CODE
  Relative segment, address: CODE_AREA 00002434 - 00002435 (0x2 bytes), align: 2
  Segment part 9.             Intra module refs:   jpeg_stdio_src
           LOCAL                   ADDRESS         
           =====                   =======         
           term_source             00002435 
    -------------------------------------------------------------------------
CODE
  Relative segment, address: CODE_AREA 00002438 - 0000243F (0x8 bytes), align: 2
  Segment part 10.
           ENTRY                   ADDRESS         REF BY
           =====                   =======         ======
           jpeg_stdio_src::??rA    00002438 
    -------------------------------------------------------------------------
CODE
  Relative segment, address: CODE_AREA 00002440 - 0000248F (0x50 bytes), align: 2
  Segment part 11.            Intra module refs:   jpeg_stdio_src::??rA
           ENTRY                   ADDRESS         REF BY
           =====                   =======         ======
           jpeg_stdio_src          00002441        read_jpgimg (readimg)
               stack 1 = 00000000 ( 0000000C )
    -------------------------------------------------------------------------
CSTACK
  Segment part 1. NOT NEEDED.

    -------------------------------------------------------------------------
  LIBRARY MODULE, NAME : jdcoefct

  SEGMENTS IN THE MODULE
  ======================
CODE
  Segment part 2. NOT NEEDED.
    -------------------------------------------------------------------------
CODE
  Relative segment, address: CODE_AREA 00002490 - 000024C1 (0x32 bytes), align: 2
  Segment part 3.             Intra module refs:   consume_data
                                                   decompress_onepass
                                                   start_input_pass
           LOCAL                   ADDRESS         
           =====                   =======         
           start_iMCU_row          00002491 
               stack 1 = 00000000 ( 00000004 )
    -------------------------------------------------------------------------
CODE
  Segment part 4. NOT NEEDED.
    -------------------------------------------------------------------------
CODE
  Relative segment, address: CODE_AREA 000024C4 - 000024CB (0x8 bytes), align: 2
  Segment part 5.             Intra module refs:   jinit_d_coef_controller
           LOCAL                   ADDRESS         
           =====                   =======         
           start_input_pass        000024C5 
               stack 1 = 00000000 ( 00000004 )
    -------------------------------------------------------------------------
CODE
  Segment part 6. NOT NEEDED.
    -------------------------------------------------------------------------
CODE
  Relative segment, address: CODE_AREA 000024CC - 000024FF (0x34 bytes), align: 2
  Segment part 7.             Intra module refs:   jinit_d_coef_controller
           LOCAL                   ADDRESS         
           =====                   =======         
           start_output_pass       000024CD 
               stack 1 = 00000000 ( 0000000C )
    -------------------------------------------------------------------------
CODE
  Relative segment, address: CODE_AREA 00002500 - 00002503 (0x4 bytes), align: 2
  Segment part 8.             Intra module refs:   start_output_pass
    -------------------------------------------------------------------------
CODE
  Segment part 9. NOT NEEDED.
    -------------------------------------------------------------------------
CODE
  Relative segment, address: CODE_AREA 00002504 - 00002691 (0x18e bytes), align: 2
  Segment part 10.            Intra module refs:   jinit_d_coef_controller
           LOCAL                   ADDRESS         
           =====                   =======         
           decompress_onepass      00002505 
               stack 1 = 00000000 ( 00000058 )
    -------------------------------------------------------------------------
CODE
  Segment part 11. NOT NEEDED.
    -------------------------------------------------------------------------
CODE
  Relative segment, address: CODE_AREA 00002694 - 00002697 (0x4 bytes), align: 2
  Segment part 12.            Intra module refs:   jinit_d_coef_controller
           LOCAL                   ADDRESS         
           =====                   =======         
           dummy_consume_data      00002695 
    -------------------------------------------------------------------------
CODE
  Segment part 13. NOT NEEDED.
    -------------------------------------------------------------------------
CODE
  Relative segment, address: CODE_AREA 00002698 - 000027C1 (0x12a bytes), align: 2
  Segment part 14.            Intra module refs:   jinit_d_coef_controller
           LOCAL                   ADDRESS         
           =====                   =======         
           consume_data            00002699 
               stack 1 = 00000000 ( 00000040 )
    -------------------------------------------------------------------------
CODE
  Segment part 15. NOT NEEDED.
    -------------------------------------------------------------------------
CODE
  Relative segment, address: CODE_AREA 000027C4 - 000028F9 (0x136 bytes), align: 2
  Segment part 16.            Intra module refs:   Segment part 23
                                                   Segment part 8
           LOCAL                   ADDRESS         
           =====                   =======         
           decompress_data         000027C5 
               stack 1 = 00000000 ( 0000004C )
    -------------------------------------------------------------------------
CODE
  Segment part 17. NOT NEEDED.
    -------------------------------------------------------------------------
CODE
  Relative segment, address: CODE_AREA 000028FC - 000029B3 (0xb8 bytes), align: 2
  Segment part 18.            Intra module refs:   start_output_pass
           LOCAL                   ADDRESS         
           =====                   =======         
           smoothing_ok            000028FD 
               stack 1 = 00000000 ( 00000020 )
    -------------------------------------------------------------------------
CODE
  Segment part 19. NOT NEEDED.
    -------------------------------------------------------------------------
CODE
  Relative segment, address: CODE_AREA 000029B4 - 00002DD3 (0x420 bytes), align: 2
  Segment part 20.            Intra module refs:   start_output_pass
           LOCAL                   ADDRESS         
           =====                   =======         
           decompress_smooth_data
                                   000029B5 
               stack 1 = 00000000 ( 0000012C )
    -------------------------------------------------------------------------
CODE
  Segment part 21. NOT NEEDED.
    -------------------------------------------------------------------------
CODE
  Relative segment, address: CODE_AREA 00002DD4 - 00002EB3 (0xe0 bytes), align: 2
  Segment part 22.
           ENTRY                   ADDRESS         REF BY
           =====                   =======         ======
           jinit_d_coef_controller
                                   00002DD5        master_selection (jdmaster)
               stack 1 = 00000000 ( 0000002C )
    -------------------------------------------------------------------------
CODE
  Relative segment, address: CODE_AREA 00002EB4 - 00002EB7 (0x4 bytes), align: 2
  Segment part 23.            Intra module refs:   jinit_d_coef_controller
    -------------------------------------------------------------------------
CODE
  Segment part 24. NOT NEEDED.Intra module refs:   decompress_onepass
    -------------------------------------------------------------------------
CODE
  Segment part 25. NOT NEEDED.Intra module refs:   decompress_data
                                                   decompress_smooth_data
    -------------------------------------------------------------------------
CODE
  Segment part 26. NOT NEEDED.Intra module refs:   decompress_smooth_data
    -------------------------------------------------------------------------
CODE
  Segment part 27. NOT NEEDED.Intra module refs:   decompress_smooth_data
    -------------------------------------------------------------------------
CODE
  Segment part 28. NOT NEEDED.Intra module refs:   jinit_d_coef_controller
    -------------------------------------------------------------------------
CSTACK
  Segment part 1. NOT NEEDED.

    -------------------------------------------------------------------------
  LIBRARY MODULE, NAME : jdcolor

  SEGMENTS IN THE MODULE
  ======================
CODE
  Segment part 2. NOT NEEDED.
    -------------------------------------------------------------------------
CODE
  Relative segment, address: CODE_AREA 00002EB8 - 00002F4B (0x94 bytes), align: 2
  Segment part 3.             Intra module refs:   jinit_color_deconverter
           LOCAL                   ADDRESS         
           =====                   =======         
           build_ycc_rgb_table     00002EB9 
               stack 1 = 00000000 ( 00000010 )
    -------------------------------------------------------------------------
CODE
  Segment part 4. NOT NEEDED.
    -------------------------------------------------------------------------
CODE
  Relative segment, address: CODE_AREA 00002F4C - 00002FF1 (0xa6 bytes), align: 2
  Segment part 5.             Intra module refs:   jinit_color_deconverter
           LOCAL                   ADDRESS         
           =====                   =======         
           ycc_rgb_convert         00002F4D 
               stack 1 = 00000000 ( 00000044 )
    -------------------------------------------------------------------------
CODE
  Segment part 6. NOT NEEDED.
    -------------------------------------------------------------------------
CODE
  Relative segment, address: CODE_AREA 00002FF4 - 00003039 (0x46 bytes), align: 2
  Segment part 7.             Intra module refs:   jinit_color_deconverter
           LOCAL                   ADDRESS         
           =====                   =======         
           null_convert            00002FF5 
               stack 1 = 00000000 ( 00000020 )
    -------------------------------------------------------------------------
CODE
  Segment part 8. NOT NEEDED.
    -------------------------------------------------------------------------
CODE
  Relative segment, address: CODE_AREA 0000303C - 00003057 (0x1c bytes), align: 2
  Segment part 9.             Intra module refs:   jinit_color_deconverter
           LOCAL                   ADDRESS         
           =====                   =======         
           grayscale_convert       0000303D 
               stack 1 = 00000000 ( 00000014 )
    -------------------------------------------------------------------------
CODE
  Segment part 10. NOT NEEDED.
    -------------------------------------------------------------------------
CODE
  Relative segment, address: CODE_AREA 00003058 - 00003085 (0x2e bytes), align: 2
  Segment part 11.            Intra module refs:   jinit_color_deconverter
           LOCAL                   ADDRESS         
           =====                   =======         
           gray_rgb_convert        00003059 
               stack 1 = 00000000 ( 00000018 )
    -------------------------------------------------------------------------
CODE
  Segment part 12. NOT NEEDED.
    -------------------------------------------------------------------------
CODE
  Relative segment, address: CODE_AREA 00003088 - 0000313D (0xb6 bytes), align: 2
  Segment part 13.            Intra module refs:   jinit_color_deconverter
           LOCAL                   ADDRESS         
           =====                   =======         
           ycck_cmyk_convert       00003089 
               stack 1 = 00000000 ( 00000048 )
    -------------------------------------------------------------------------
CODE
  Segment part 14. NOT NEEDED.
    -------------------------------------------------------------------------
CODE
  Relative segment, address: CODE_AREA 00003140 - 00003141 (0x2 bytes), align: 2
  Segment part 15.            Intra module refs:   jinit_color_deconverter
           LOCAL                   ADDRESS         
           =====                   =======         
           start_pass_dcolor       00003141 
    -------------------------------------------------------------------------
CODE
  Segment part 16. NOT NEEDED.
    -------------------------------------------------------------------------
CODE
  Relative segment, address: CODE_AREA 00003144 - 0000324F (0x10c bytes), align: 2
  Segment part 17.
           ENTRY                   ADDRESS         REF BY
           =====                   =======         ======
           jinit_color_deconverter
                                   00003145        master_selection (jdmaster)
               stack 1 = 00000000 ( 00000014 )
    -------------------------------------------------------------------------
CODE
  Segment part 18. NOT NEEDED.Intra module refs:   grayscale_convert
    -------------------------------------------------------------------------
CSTACK
  Segment part 1. NOT NEEDED.

    -------------------------------------------------------------------------
  LIBRARY MODULE, NAME : jddctmgr

  SEGMENTS IN THE MODULE
  ======================
DATA_C
  Relative segment, address: CODE_AREA 000083FC - 0000847B (0x80 bytes), align: 2
  Segment part 2.             Intra module refs:   start_pass
    -------------------------------------------------------------------------
CODE
  Segment part 3. NOT NEEDED.
    -------------------------------------------------------------------------
CODE
  Relative segment, address: CODE_AREA 00003250 - 0000336B (0x11c bytes), align: 2
  Segment part 4.             Intra module refs:   jinit_inverse_dct
           LOCAL                   ADDRESS         
           =====                   =======         
           start_pass              00003251 
               stack 1 = 00000000 ( 00000028 )
    -------------------------------------------------------------------------
CODE
  Segment part 5. NOT NEEDED.
    -------------------------------------------------------------------------
CODE
  Relative segment, address: CODE_AREA 0000336C - 000033CF (0x64 bytes), align: 2
  Segment part 6.
           ENTRY                   ADDRESS         REF BY
           =====                   =======         ======
           jinit_inverse_dct       0000336D        master_selection (jdmaster)
               stack 1 = 00000000 ( 0000001C )
    -------------------------------------------------------------------------
CSTACK
  Segment part 1. NOT NEEDED.

    -------------------------------------------------------------------------
  LIBRARY MODULE, NAME : jdhuff

  SEGMENTS IN THE MODULE
  ======================
CODE
  Segment part 3. NOT NEEDED.
    -------------------------------------------------------------------------
CODE
  Relative segment, address: CODE_AREA 000033D0 - 000034C7 (0xf8 bytes), align: 2
  Segment part 4.             Intra module refs:   jinit_huff_decoder
           LOCAL                   ADDRESS         
           =====                   =======         
           start_pass_huff_decoder
                                   000033D1 
               stack 1 = 00000000 ( 00000018 )
    -------------------------------------------------------------------------
CODE
  Segment part 5. NOT NEEDED.
    -------------------------------------------------------------------------
CODE
  Relative segment, address: CODE_AREA 000034C8 - 0000370B (0x244 bytes), align: 2
  Segment part 6.             Intra module refs:   start_pass_huff_decoder
           ENTRY                   ADDRESS         REF BY
           =====                   =======         ======
           jpeg_make_d_derived_tbl
                                   000034C9        start_pass_phuff_decoder (jdphuff)
               stack 1 = 00000000 ( 00000530 )
    -------------------------------------------------------------------------
CODE
  Segment part 7. NOT NEEDED.
    -------------------------------------------------------------------------
CODE
  Relative segment, address: CODE_AREA 0000370C - 000037D5 (0xca bytes), align: 2
  Segment part 8.             Intra module refs:   decode_mcu
                                                   jpeg_huff_decode
           ENTRY                   ADDRESS         REF BY
           =====                   =======         ======
           jpeg_fill_bit_buffer    0000370D        decode_mcu_AC_first (jdphuff)
                                                   decode_mcu_AC_refine (jdphuff)
                                                   decode_mcu_DC_first (jdphuff)
                                                   decode_mcu_DC_refine (jdphuff)
               stack 1 = 00000000 ( 00000024 )
    -------------------------------------------------------------------------
CODE
  Segment part 9. NOT NEEDED.
    -------------------------------------------------------------------------
CODE
  Relative segment, address: CODE_AREA 000037D8 - 00003867 (0x90 bytes), align: 2
  Segment part 10.            Intra module refs:   decode_mcu
           ENTRY                   ADDRESS         REF BY
           =====                   =======         ======
           jpeg_huff_decode        000037D9        decode_mcu_AC_first (jdphuff)
                                                   decode_mcu_AC_refine (jdphuff)
                                                   decode_mcu_DC_first (jdphuff)
               stack 1 = 00000000 ( 00000014 )
    -------------------------------------------------------------------------
CODE
  Segment part 11. NOT NEEDED.
    -------------------------------------------------------------------------
DATA_C
  Relative segment, address: CODE_AREA 0000847C - 000084FB (0x80 bytes), align: 2
  Segment part 2.             Intra module refs:   decode_mcu
    -------------------------------------------------------------------------
CODE
  Relative segment, address: CODE_AREA 00003868 - 00003B73 (0x30c bytes), align: 2
  Segment part 12.            Intra module refs:   jinit_huff_decoder
           LOCAL                   ADDRESS         
           =====                   =======         
           decode_mcu              00003869 
               stack 1 = 00000000 ( 00000054 )
    -------------------------------------------------------------------------
CODE
  Segment part 13. NOT NEEDED.
    -------------------------------------------------------------------------
CODE
  Relative segment, address: CODE_AREA 00003B74 - 00003BB3 (0x40 bytes), align: 2
  Segment part 14.
           ENTRY                   ADDRESS         REF BY
           =====                   =======         ======
           jinit_huff_decoder      00003B75        master_selection (jdmaster)
               stack 1 = 00000000 ( 0000000C )
    -------------------------------------------------------------------------
CSTACK
  Segment part 1. NOT NEEDED.

    -------------------------------------------------------------------------
  LIBRARY MODULE, NAME : jdinput

  SEGMENTS IN THE MODULE
  ======================
CODE
  Segment part 2. NOT NEEDED.
    -------------------------------------------------------------------------
CODE
  Relative segment, address: CODE_AREA 00003BB4 - 00003CFB (0x148 bytes), align: 2
  Segment part 3.             Intra module refs:   consume_markers
           LOCAL                   ADDRESS         
           =====                   =======         
           initial_setup           00003BB5 
               stack 1 = 00000000 ( 00000014 )
    -------------------------------------------------------------------------
CODE
  Segment part 4. NOT NEEDED.
    -------------------------------------------------------------------------
CODE
  Relative segment, address: CODE_AREA 00003CFC - 00003DF5 (0xfa bytes), align: 2
  Segment part 5.             Intra module refs:   start_input_pass
           LOCAL                   ADDRESS         
           =====                   =======         
           per_scan_setup          00003CFD 
               stack 1 = 00000000 ( 00000018 )
    -------------------------------------------------------------------------
CODE
  Segment part 6. NOT NEEDED.
    -------------------------------------------------------------------------
CODE
  Relative segment, address: CODE_AREA 00003DF8 - 00003E67 (0x70 bytes), align: 2
  Segment part 7.             Intra module refs:   start_input_pass
           LOCAL                   ADDRESS         
           =====                   =======         
           latch_quant_tables      00003DF9 
               stack 1 = 00000000 ( 00000018 )
    -------------------------------------------------------------------------
CODE
  Segment part 8. NOT NEEDED.
    -------------------------------------------------------------------------
CODE
  Relative segment, address: CODE_AREA 00003E68 - 00003E95 (0x2e bytes), align: 2
  Segment part 9.             Intra module refs:   consume_markers
                                                   jinit_input_controller
           LOCAL                   ADDRESS         
           =====                   =======         
           start_input_pass        00003E69 
               stack 1 = 00000000 ( 0000000C )
    -------------------------------------------------------------------------
CODE
  Segment part 10. NOT NEEDED.
    -------------------------------------------------------------------------
CODE
  Relative segment, address: CODE_AREA 00003E98 - 00003EA3 (0xc bytes), align: 2
  Segment part 11.            Intra module refs:   jinit_input_controller
           LOCAL                   ADDRESS         
           =====                   =======         
           finish_input_pass       00003E99 
    -------------------------------------------------------------------------
CODE
  Segment part 12. NOT NEEDED.
    -------------------------------------------------------------------------
CODE
  Relative segment, address: CODE_AREA 00003EA4 - 00003F2D (0x8a bytes), align: 2
  Segment part 13.            Intra module refs:   Segment part 18
           LOCAL                   ADDRESS         
           =====                   =======         
           consume_markers         00003EA5 
               stack 1 = 00000000 ( 00000014 )
    -------------------------------------------------------------------------
CODE
  Segment part 14. NOT NEEDED.
    -------------------------------------------------------------------------
CODE
  Relative segment, address: CODE_AREA 00003F30 - 00003F5F (0x30 bytes), align: 2
  Segment part 15.            Intra module refs:   jinit_input_controller
           LOCAL                   ADDRESS         
           =====                   =======         
           reset_input_controller
                                   00003F31 
               stack 1 = 00000000 ( 00000010 )
    -------------------------------------------------------------------------
CODE
  Segment part 16. NOT NEEDED.
    -------------------------------------------------------------------------
CODE
  Relative segment, address: CODE_AREA 00003F60 - 00003F9B (0x3c bytes), align: 2
  Segment part 17.
           ENTRY                   ADDRESS         REF BY
           =====                   =======         ======
           jinit_input_controller
                                   00003F61        jpeg_CreateDecompress (jdapimin)
               stack 1 = 00000000 ( 00000008 )
    -------------------------------------------------------------------------
CODE
  Relative segment, address: CODE_AREA 00003F9C - 00003F9F (0x4 bytes), align: 2
  Segment part 18.            Intra module refs:   finish_input_pass
                                                   jinit_input_controller
                                                   reset_input_controller
    -------------------------------------------------------------------------
CODE
  Segment part 19. NOT NEEDED.Intra module refs:   initial_setup
                                                   per_scan_setup
    -------------------------------------------------------------------------
CODE
  Segment part 20. NOT NEEDED.Intra module refs:   per_scan_setup
    -------------------------------------------------------------------------
CSTACK
  Segment part 1. NOT NEEDED.

    -------------------------------------------------------------------------
  LIBRARY MODULE, NAME : jdmainct

  SEGMENTS IN THE MODULE
  ======================
CODE
  Segment part 2. NOT NEEDED.
    -------------------------------------------------------------------------
CODE
  Relative segment, address: CODE_AREA 00003FA0 - 0000402F (0x90 bytes), align: 2
  Segment part 3.             Intra module refs:   jinit_d_main_controller
           LOCAL                   ADDRESS         
           =====                   =======         
           alloc_funny_pointers    00003FA1 
               stack 1 = 00000000 ( 00000028 )
    -------------------------------------------------------------------------
CODE
  Segment part 4. NOT NEEDED.
    -------------------------------------------------------------------------
CODE
  Relative segment, address: CODE_AREA 00004030 - 000040ED (0xbe bytes), align: 2
  Segment part 5.             Intra module refs:   start_pass_main
           LOCAL                   ADDRESS         
           =====                   =======         
           make_funny_pointers     00004031 
               stack 1 = 00000000 ( 00000030 )
    -------------------------------------------------------------------------
CODE
  Segment part 6. NOT NEEDED.
    -------------------------------------------------------------------------
CODE
  Relative segment, address: CODE_AREA 000040F0 - 0000417B (0x8c bytes), align: 2
  Segment part 7.             Intra module refs:   process_data_context_main
           LOCAL                   ADDRESS         
           =====                   =======         
           set_wraparound_pointers
                                   000040F1 
               stack 1 = 00000000 ( 00000028 )
    -------------------------------------------------------------------------
CODE
  Segment part 8. NOT NEEDED.
    -------------------------------------------------------------------------
CODE
  Relative segment, address: CODE_AREA 0000417C - 000041FF (0x84 bytes), align: 2
  Segment part 9.             Intra module refs:   process_data_context_main
           LOCAL                   ADDRESS         
           =====                   =======         
           set_bottom_pointers     0000417D 
               stack 1 = 00000000 ( 00000020 )
    -------------------------------------------------------------------------
CODE
  Segment part 10. NOT NEEDED.
    -------------------------------------------------------------------------
CODE
  Relative segment, address: CODE_AREA 00004200 - 0000424F (0x50 bytes), align: 2
  Segment part 11.            Intra module refs:   jinit_d_main_controller
           LOCAL                   ADDRESS         
           =====                   =======         
           start_pass_main         00004201 
               stack 1 = 00000000 ( 0000000C )
    -------------------------------------------------------------------------
CODE
  Segment part 12. NOT NEEDED.
    -------------------------------------------------------------------------
CODE
  Relative segment, address: CODE_AREA 00004250 - 000042A1 (0x52 bytes), align: 2
  Segment part 13.            Intra module refs:   start_pass_main
           LOCAL                   ADDRESS         
           =====                   =======         
           process_data_simple_main
                                   00004251 
               stack 1 = 00000000 ( 0000002C )
    -------------------------------------------------------------------------
CODE
  Segment part 14. NOT NEEDED.
    -------------------------------------------------------------------------
CODE
  Relative segment, address: CODE_AREA 000042A4 - 00004385 (0xe2 bytes), align: 2
  Segment part 15.            Intra module refs:   start_pass_main
           LOCAL                   ADDRESS         
           =====                   =======         
           process_data_context_main
                                   000042A5 
               stack 1 = 00000000 ( 0000002C )
    -------------------------------------------------------------------------
CODE
  Segment part 16. NOT NEEDED.
    -------------------------------------------------------------------------
CODE
  Relative segment, address: CODE_AREA 00004388 - 0000442F (0xa8 bytes), align: 2
  Segment part 17.
           ENTRY                   ADDRESS         REF BY
           =====                   =======         ======
           jinit_d_main_controller
                                   00004389        master_selection (jdmaster)
               stack 1 = 00000000 ( 0000001C )
    -------------------------------------------------------------------------
CODE
  Segment part 18. NOT NEEDED.Intra module refs:   alloc_funny_pointers
                                                   jinit_d_main_controller
                                                   make_funny_pointers
                                                   set_bottom_pointers
                                                   set_wraparound_pointers
    -------------------------------------------------------------------------
CODE
  Segment part 19. NOT NEEDED.Intra module refs:   set_bottom_pointers
    -------------------------------------------------------------------------
CSTACK
  Segment part 1. NOT NEEDED.

    -------------------------------------------------------------------------
  LIBRARY MODULE, NAME : jdmarker

  SEGMENTS IN THE MODULE
  ======================
CODE
  Segment part 2. NOT NEEDED.
    -------------------------------------------------------------------------
CODE
  Relative segment, address: CODE_AREA 00004430 - 000044A7 (0x78 bytes), align: 2
  Segment part 3.             Intra module refs:   read_markers
           LOCAL                   ADDRESS         
           =====                   =======         
           get_soi                 00004431 
               stack 1 = 00000000 ( 00000014 )
    -------------------------------------------------------------------------
CODE
  Segment part 4. NOT NEEDED.
    -------------------------------------------------------------------------
CODE
  Relative segment, address: CODE_AREA 000044A8 - 0000470B (0x264 bytes), align: 2
  Segment part 5.             Intra module refs:   read_markers
           LOCAL                   ADDRESS         
           =====                   =======         
           get_sof                 000044A9 
               stack 1 = 00000000 ( 0000001C )
    -------------------------------------------------------------------------
CODE
  Segment part 6. NOT NEEDED.
    -------------------------------------------------------------------------
CODE
  Relative segment, address: CODE_AREA 0000470C - 0000496B (0x260 bytes), align: 2
  Segment part 7.             Intra module refs:   read_markers
           LOCAL                   ADDRESS         
           =====                   =======         
           get_sos                 0000470D 
               stack 1 = 00000000 ( 00000028 )
    -------------------------------------------------------------------------
CODE
  Segment part 8. NOT NEEDED.
    -------------------------------------------------------------------------
CODE
  Relative segment, address: CODE_AREA 0000496C - 00004B95 (0x22a bytes), align: 2
  Segment part 9.             Intra module refs:   read_markers
           LOCAL                   ADDRESS         
           =====                   =======         
           get_dht                 0000496D 
               stack 1 = 00000000 ( 00000138 )
    -------------------------------------------------------------------------
CODE
  Segment part 10. NOT NEEDED.
    -------------------------------------------------------------------------
CODE
  Relative segment, address: CODE_AREA 00004B98 - 00004D77 (0x1e0 bytes), align: 2
  Segment part 11.            Intra module refs:   read_markers
           LOCAL                   ADDRESS         
           =====                   =======         
           get_dqt                 00004B99 
               stack 1 = 00000000 ( 00000028 )
    -------------------------------------------------------------------------
CODE
  Segment part 12. NOT NEEDED.
    -------------------------------------------------------------------------
CODE
  Relative segment, address: CODE_AREA 00004D78 - 00004E2F (0xb8 bytes), align: 2
  Segment part 13.            Intra module refs:   read_markers
           LOCAL                   ADDRESS         
           =====                   =======         
           get_dri                 00004D79 
               stack 1 = 00000000 ( 00000018 )
    -------------------------------------------------------------------------
CODE
  Segment part 14. NOT NEEDED.
    -------------------------------------------------------------------------
CODE
  Relative segment, address: CODE_AREA 00004E30 - 00004F7D (0x14e bytes), align: 2
  Segment part 15.            Intra module refs:   get_interesting_appn
           LOCAL                   ADDRESS         
           =====                   =======         
           examine_app0            00004E31 
               stack 1 = 00000000 ( 00000014 )
    -------------------------------------------------------------------------
CODE
  Segment part 16. NOT NEEDED.
    -------------------------------------------------------------------------
CODE
  Relative segment, address: CODE_AREA 00004F80 - 00004FFF (0x80 bytes), align: 2
  Segment part 17.            Intra module refs:   get_interesting_appn
           LOCAL                   ADDRESS         
           =====                   =======         
           examine_app14           00004F81 
               stack 1 = 00000000 ( 00000010 )
    -------------------------------------------------------------------------
CODE
  Segment part 18. NOT NEEDED.
    -------------------------------------------------------------------------
CODE
  Relative segment, address: CODE_AREA 00005000 - 000050E7 (0xe8 bytes), align: 2
  Segment part 19.            Intra module refs:   Segment part 42
           LOCAL                   ADDRESS         
           =====                   =======         
           get_interesting_appn    00005001 
               stack 1 = 00000000 ( 00000030 )
    -------------------------------------------------------------------------
CODE
  Segment part 20. NOT NEEDED.
    -------------------------------------------------------------------------
CODE
  Segment part 21. NOT NEEDED.
           LOCAL                   ADDRESS         
           =====                   =======         
           save_marker             
               not allocated function
    -------------------------------------------------------------------------
CODE
  Segment part 22. NOT NEEDED.
    -------------------------------------------------------------------------
CODE
  Segment part 23. NOT NEEDED.
    -------------------------------------------------------------------------
CODE
  Relative segment, address: CODE_AREA 000050E8 - 00005163 (0x7c bytes), align: 2
  Segment part 24.            Intra module refs:   Segment part 41
                                                   read_markers
           LOCAL                   ADDRESS         
           =====                   =======         
           skip_variable           000050E9 
               stack 1 = 00000000 ( 00000018 )
    -------------------------------------------------------------------------
CODE
  Segment part 25. NOT NEEDED.
    -------------------------------------------------------------------------
CODE
  Relative segment, address: CODE_AREA 00005164 - 00005221 (0xbe bytes), align: 2
  Segment part 26.            Intra module refs:   jpeg_resync_to_restart
                                                   read_markers
                                                   read_restart_marker
           LOCAL                   ADDRESS         
           =====                   =======         
           next_marker             00005165 
               stack 1 = 00000000 ( 0000001C )
    -------------------------------------------------------------------------
CODE
  Segment part 27. NOT NEEDED.
    -------------------------------------------------------------------------
CODE
  Relative segment, address: CODE_AREA 00005224 - 00005299 (0x76 bytes), align: 2
  Segment part 28.            Intra module refs:   read_markers
           LOCAL                   ADDRESS         
           =====                   =======         
           first_marker            00005225 
               stack 1 = 00000000 ( 0000001C )
    -------------------------------------------------------------------------
CODE
  Segment part 29. NOT NEEDED.
    -------------------------------------------------------------------------
CODE
  Relative segment, address: CODE_AREA 0000529C - 000053E7 (0x14c bytes), align: 2
  Segment part 30.            Intra module refs:   jinit_marker_reader
           LOCAL                   ADDRESS         
           =====                   =======         
           read_markers            0000529D 
               stack 1 = 00000000 ( 00000014 )
    -------------------------------------------------------------------------
CODE
  Segment part 31. NOT NEEDED.
    -------------------------------------------------------------------------
CODE
  Relative segment, address: CODE_AREA 000053E8 - 0000544D (0x66 bytes), align: 2
  Segment part 32.            Intra module refs:   jinit_marker_reader
           LOCAL                   ADDRESS         
           =====                   =======         
           read_restart_marker     000053E9 
               stack 1 = 00000000 ( 0000000C )
    -------------------------------------------------------------------------
CODE
  Segment part 33. NOT NEEDED.
    -------------------------------------------------------------------------
CODE
  Relative segment, address: CODE_AREA 00005450 - 000054FB (0xac bytes), align: 2
  Segment part 34.
           ENTRY                   ADDRESS         REF BY
           =====                   =======         ======
           jpeg_resync_to_restart
                                   00005451        jpeg_stdio_src (jdatasrc)
               stack 1 = 00000000 ( 00000014 )
    -------------------------------------------------------------------------
CODE
  Segment part 35. NOT NEEDED.
    -------------------------------------------------------------------------
CODE
  Relative segment, address: CODE_AREA 000054FC - 0000551D (0x22 bytes), align: 2
  Segment part 36.            Intra module refs:   jinit_marker_reader
           LOCAL                   ADDRESS         
           =====                   =======         
           reset_marker_reader     000054FD 
    -------------------------------------------------------------------------
CODE
  Segment part 37. NOT NEEDED.
    -------------------------------------------------------------------------
CODE
  Relative segment, address: CODE_AREA 00005520 - 00005577 (0x58 bytes), align: 2
  Segment part 38.
           ENTRY                   ADDRESS         REF BY
           =====                   =======         ======
           jinit_marker_reader     00005521        jpeg_CreateDecompress (jdapimin)
               stack 1 = 00000000 ( 00000010 )
    -------------------------------------------------------------------------
CODE
  Segment part 39. NOT NEEDED.
    -------------------------------------------------------------------------
CODE
  Segment part 40. NOT NEEDED.
           ENTRY                   ADDRESS         REF BY
           =====                   =======         ======
           jpeg_save_markers       
               not allocated function
    -------------------------------------------------------------------------
CODE
  Relative segment, address: CODE_AREA 00005578 - 0000557B (0x4 bytes), align: 2
  Segment part 41.            Intra module refs:   jinit_marker_reader
    -------------------------------------------------------------------------
CODE
  Relative segment, address: CODE_AREA 0000557C - 0000557F (0x4 bytes), align: 2
  Segment part 42.            Intra module refs:   jinit_marker_reader
    -------------------------------------------------------------------------
CODE
  Segment part 43. NOT NEEDED.
    -------------------------------------------------------------------------
CODE
  Segment part 44. NOT NEEDED.
    -------------------------------------------------------------------------
CODE
  Segment part 45. NOT NEEDED.
           ENTRY                   ADDRESS         REF BY
           =====                   =======         ======
           jpeg_set_marker_processor
                                   
               not allocated function
    -------------------------------------------------------------------------
CODE
  Segment part 46. NOT NEEDED.
    -------------------------------------------------------------------------
CODE
  Segment part 47. NOT NEEDED.Intra module refs:   get_dht
    -------------------------------------------------------------------------
CODE
  Segment part 48. NOT NEEDED.Intra module refs:   get_dqt
    -------------------------------------------------------------------------
CSTACK
  Segment part 1. NOT NEEDED.

    -------------------------------------------------------------------------
  LIBRARY MODULE, NAME : jdmaster

  SEGMENTS IN THE MODULE
  ======================
CODE
  Segment part 2. NOT NEEDED.
    -------------------------------------------------------------------------
CODE
  Relative segment, address: CODE_AREA 00005580 - 000055F3 (0x74 bytes), align: 2
  Segment part 3.             Intra module refs:   jpeg_calc_output_dimensions
                                                   master_selection
           LOCAL                   ADDRESS         
           =====                   =======         
           use_merged_upsample     00005581 
               stack 1 = 00000000 ( 00000004 )
    -------------------------------------------------------------------------
CODE
  Segment part 4. NOT NEEDED.
    -------------------------------------------------------------------------
CODE
  Relative segment, address: CODE_AREA 000055F4 - 00005753 (0x160 bytes), align: 2
  Segment part 5.             Intra module refs:   master_selection
           ENTRY                   ADDRESS         REF BY
           =====                   =======         ======
           jpeg_calc_output_dimensions
                                   000055F5 
               stack 1 = 00000000 ( 00000014 )
    -------------------------------------------------------------------------
CODE
  Segment part 6. NOT NEEDED.
    -------------------------------------------------------------------------
CODE
  Relative segment, address: CODE_AREA 00005754 - 000057B1 (0x5e bytes), align: 2
  Segment part 7.             Intra module refs:   master_selection
           LOCAL                   ADDRESS         
           =====                   =======         
           prepare_range_limit_table
                                   00005755 
               stack 1 = 00000000 ( 00000010 )
    -------------------------------------------------------------------------
CODE
  Segment part 8. NOT NEEDED.
    -------------------------------------------------------------------------
CODE
  Relative segment, address: CODE_AREA 000057B4 - 00005955 (0x1a2 bytes), align: 2
  Segment part 9.             Intra module refs:   jinit_master_decompress
           LOCAL                   ADDRESS         
           =====                   =======         
           master_selection        000057B5 
               stack 1 = 00000000 ( 00000014 )
    -------------------------------------------------------------------------
CODE
  Segment part 10. NOT NEEDED.
    -------------------------------------------------------------------------
CODE
  Relative segment, address: CODE_AREA 00005958 - 00005A51 (0xfa bytes), align: 2
  Segment part 11.            Intra module refs:   jinit_master_decompress
           LOCAL                   ADDRESS         
           =====                   =======         
           prepare_for_output_pass
                                   00005959 
               stack 1 = 00000000 ( 00000014 )
    -------------------------------------------------------------------------
CODE
  Segment part 12. NOT NEEDED.
    -------------------------------------------------------------------------
CODE
  Relative segment, address: CODE_AREA 00005A54 - 00005A71 (0x1e bytes), align: 2
  Segment part 13.            Intra module refs:   jinit_master_decompress
           LOCAL                   ADDRESS         
           =====                   =======         
           finish_output_pass      00005A55 
               stack 1 = 00000000 ( 00000008 )
    -------------------------------------------------------------------------
CODE
  Segment part 14. NOT NEEDED.
    -------------------------------------------------------------------------
CODE
  Segment part 15. NOT NEEDED.
           ENTRY                   ADDRESS         REF BY
           =====                   =======         ======
           jpeg_new_colormap       
               not allocated function
    -------------------------------------------------------------------------
CODE
  Segment part 16. NOT NEEDED.
    -------------------------------------------------------------------------
CODE
  Relative segment, address: CODE_AREA 00005A74 - 00005AA3 (0x30 bytes), align: 2
  Segment part 17.
           ENTRY                   ADDRESS         REF BY
           =====                   =======         ======
           jinit_master_decompress
                                   00005A75        jpeg_start_decompress (jdapistd)
               stack 1 = 00000000 ( 00000008 )
    -------------------------------------------------------------------------
CODE
  Segment part 18. NOT NEEDED.Intra module refs:   jpeg_calc_output_dimensions
    -------------------------------------------------------------------------
CODE
  Segment part 19. NOT NEEDED.Intra module refs:   master_selection
    -------------------------------------------------------------------------
CODE
  Segment part 20. NOT NEEDED.Intra module refs:   master_selection
    -------------------------------------------------------------------------
CODE
  Segment part 21. NOT NEEDED.Intra module refs:   master_selection
    -------------------------------------------------------------------------
CODE
  Segment part 22. NOT NEEDED.Intra module refs:   master_selection
    -------------------------------------------------------------------------
CODE
  Segment part 23. NOT NEEDED.Intra module refs:   master_selection
    -------------------------------------------------------------------------
CODE
  Segment part 24. NOT NEEDED.Intra module refs:   master_selection
    -------------------------------------------------------------------------
CODE
  Segment part 25. NOT NEEDED.Intra module refs:   master_selection
    -------------------------------------------------------------------------
CODE
  Segment part 26. NOT NEEDED.Intra module refs:   master_selection
    -------------------------------------------------------------------------
CODE
  Segment part 27. NOT NEEDED.Intra module refs:   master_selection
    -------------------------------------------------------------------------
CSTACK
  Segment part 1. NOT NEEDED.

    -------------------------------------------------------------------------
  LIBRARY MODULE, NAME : jdmerge

  SEGMENTS IN THE MODULE
  ======================
CODE
  Segment part 2. NOT NEEDED.
    -------------------------------------------------------------------------
CODE
  Relative segment, address: CODE_AREA 00005AA4 - 00005B37 (0x94 bytes), align: 2
  Segment part 3.             Intra module refs:   jinit_merged_upsampler
           LOCAL                   ADDRESS         
           =====                   =======         
           build_ycc_rgb_table     00005AA5 
               stack 1 = 00000000 ( 00000010 )
    -------------------------------------------------------------------------
CODE
  Segment part 4. NOT NEEDED.
    -------------------------------------------------------------------------
CODE
  Relative segment, address: CODE_AREA 00005B38 - 00005B47 (0x10 bytes), align: 2
  Segment part 5.             Intra module refs:   jinit_merged_upsampler
           LOCAL                   ADDRESS         
           =====                   =======         
           start_pass_merged_upsample
                                   00005B39 
    -------------------------------------------------------------------------
CODE
  Segment part 6. NOT NEEDED.
    -------------------------------------------------------------------------
CODE
  Relative segment, address: CODE_AREA 00005B48 - 00005BDF (0x98 bytes), align: 2
  Segment part 7.             Intra module refs:   jinit_merged_upsampler
           LOCAL                   ADDRESS         
           =====                   =======         
           merged_2v_upsample      00005B49 
               stack 1 = 00000000 ( 00000030 )
    -------------------------------------------------------------------------
CODE
  Segment part 8. NOT NEEDED.
    -------------------------------------------------------------------------
CODE
  Relative segment, address: CODE_AREA 00005BE0 - 00005C0B (0x2c bytes), align: 2
  Segment part 9.             Intra module refs:   jinit_merged_upsampler
           LOCAL                   ADDRESS         
           =====                   =======         
           merged_1v_upsample      00005BE1 
               stack 1 = 00000000 ( 00000014 )
    -------------------------------------------------------------------------
CODE
  Segment part 10. NOT NEEDED.
    -------------------------------------------------------------------------
CODE
  Relative segment, address: CODE_AREA 00005C0C - 00005D01 (0xf6 bytes), align: 2
  Segment part 11.            Intra module refs:   jinit_merged_upsampler
           LOCAL                   ADDRESS         
           =====                   =======         
           h2v1_merged_upsample    00005C0D 
               stack 1 = 00000000 ( 0000003C )
    -------------------------------------------------------------------------
CODE
  Segment part 12. NOT NEEDED.
    -------------------------------------------------------------------------
CODE
  Relative segment, address: CODE_AREA 00005D04 - 00005E65 (0x162 bytes), align: 2
  Segment part 13.            Intra module refs:   jinit_merged_upsampler
           LOCAL                   ADDRESS         
           =====                   =======         
           h2v2_merged_upsample    00005D05 
               stack 1 = 00000000 ( 00000040 )
    -------------------------------------------------------------------------
CODE
  Segment part 14. NOT NEEDED.
    -------------------------------------------------------------------------
CODE
  Relative segment, address: CODE_AREA 00005E68 - 00005ED7 (0x70 bytes), align: 2
  Segment part 15.
           ENTRY                   ADDRESS         REF BY
           =====                   =======         ======
           jinit_merged_upsampler
                                   00005E69        master_selection (jdmaster)
               stack 1 = 00000000 ( 00000010 )
    -------------------------------------------------------------------------
CODE
  Segment part 16. NOT NEEDED.Intra module refs:   merged_2v_upsample
    -------------------------------------------------------------------------
CSTACK
  Segment part 1. NOT NEEDED.

    -------------------------------------------------------------------------
  LIBRARY MODULE, NAME : jdphuff

  SEGMENTS IN THE MODULE
  ======================
CODE
  Segment part 3. NOT NEEDED.
    -------------------------------------------------------------------------
CODE
  Relative segment, address: CODE_AREA 00005ED8 - 0000609F (0x1c8 bytes), align: 2
  Segment part 4.             Intra module refs:   jinit_phuff_decoder
           LOCAL                   ADDRESS         
           =====                   =======         
           start_pass_phuff_decoder
                                   00005ED9 
               stack 1 = 00000000 ( 00000028 )
    -------------------------------------------------------------------------
CODE
  Segment part 5. NOT NEEDED.
    -------------------------------------------------------------------------
DATA_C
  Relative segment, address: CODE_AREA 000084FC - 0000857B (0x80 bytes), align: 2
  Segment part 2.             Intra module refs:   Segment part 11
    -------------------------------------------------------------------------
CODE
  Relative segment, address: CODE_AREA 000060A0 - 000060F9 (0x5a bytes), align: 2
  Segment part 6.             Intra module refs:   decode_mcu_AC_first
                                                   decode_mcu_AC_refine
                                                   decode_mcu_DC_first
                                                   decode_mcu_DC_refine
           LOCAL                   ADDRESS         
           =====                   =======         
           process_restart         000060A1 
               stack 1 = 00000000 ( 00000014 )
    -------------------------------------------------------------------------
CODE
  Segment part 7. NOT NEEDED.
    -------------------------------------------------------------------------
CODE
  Relative segment, address: CODE_AREA 000060FC - 00006269 (0x16e bytes), align: 2
  Segment part 8.             Intra module refs:   start_pass_phuff_decoder
           LOCAL                   ADDRESS         
           =====                   =======         
           decode_mcu_DC_first     000060FD 
               stack 1 = 00000000 ( 00000050 )
    -------------------------------------------------------------------------
CODE
  Segment part 9. NOT NEEDED.
    -------------------------------------------------------------------------
CODE
  Relative segment, address: CODE_AREA 0000626C - 000063F3 (0x188 bytes), align: 2
  Segment part 10.            Intra module refs:   start_pass_phuff_decoder
           LOCAL                   ADDRESS         
           =====                   =======         
           decode_mcu_AC_first     0000626D 
               stack 1 = 00000000 ( 00000044 )
    -------------------------------------------------------------------------
CODE
  Relative segment, address: CODE_AREA 000063F4 - 000063F7 (0x4 bytes), align: 2
  Segment part 11.            Intra module refs:   decode_mcu_AC_first
                                                   decode_mcu_DC_first
    -------------------------------------------------------------------------
CODE
  Relative segment, address: CODE_AREA 000063F8 - 000063FB (0x4 bytes), align: 2
  Segment part 12.            Intra module refs:   decode_mcu_AC_first
    -------------------------------------------------------------------------
CODE
  Segment part 13. NOT NEEDED.
    -------------------------------------------------------------------------
CODE
  Relative segment, address: CODE_AREA 000063FC - 0000649B (0xa0 bytes), align: 2
  Segment part 14.            Intra module refs:   start_pass_phuff_decoder
           LOCAL                   ADDRESS         
           =====                   =======         
           decode_mcu_DC_refine    000063FD 
               stack 1 = 00000000 ( 00000030 )
    -------------------------------------------------------------------------
CODE
  Segment part 15. NOT NEEDED.
    -------------------------------------------------------------------------
CODE
  Relative segment, address: CODE_AREA 0000649C - 00006747 (0x2ac bytes), align: 2
  Segment part 16.            Intra module refs:   start_pass_phuff_decoder
           LOCAL                   ADDRESS         
           =====                   =======         
           decode_mcu_AC_refine    0000649D 
               stack 1 = 00000000 ( 00000158 )
    -------------------------------------------------------------------------
CODE
  Relative segment, address: CODE_AREA 00006748 - 0000674B (0x4 bytes), align: 2
  Segment part 17.            Intra module refs:   decode_mcu_AC_refine
    -------------------------------------------------------------------------
CODE
  Segment part 18. NOT NEEDED.
    -------------------------------------------------------------------------
CODE
  Relative segment, address: CODE_AREA 0000674C - 000067AB (0x60 bytes), align: 2
  Segment part 19.
           ENTRY                   ADDRESS         REF BY
           =====                   =======         ======
           jinit_phuff_decoder     0000674D        master_selection (jdmaster)
               stack 1 = 00000000 ( 00000014 )
    -------------------------------------------------------------------------
CODE
  Segment part 20. NOT NEEDED.Intra module refs:   start_pass_phuff_decoder
    -------------------------------------------------------------------------
CODE
  Segment part 21. NOT NEEDED.Intra module refs:   decode_mcu_AC_first
                                                   decode_mcu_AC_refine
                                                   decode_mcu_DC_first
                                                   decode_mcu_DC_refine
    -------------------------------------------------------------------------
CODE
  Segment part 22. NOT NEEDED.Intra module refs:   decode_mcu_AC_first
                                                   decode_mcu_AC_refine
                                                   decode_mcu_DC_first
    -------------------------------------------------------------------------
CSTACK
  Segment part 1. NOT NEEDED.

    -------------------------------------------------------------------------
  LIBRARY MODULE, NAME : jdpostct

  SEGMENTS IN THE MODULE
  ======================
CODE
  Segment part 2. NOT NEEDED.
    -------------------------------------------------------------------------
CODE
  Relative segment, address: CODE_AREA 000067AC - 00006807 (0x5c bytes), align: 2
  Segment part 3.             Intra module refs:   jinit_d_post_controller
           LOCAL                   ADDRESS         
           =====                   =======         
           start_pass_dpost        000067AD 
               stack 1 = 00000000 ( 00000010 )
    -------------------------------------------------------------------------
CODE
  Segment part 4. NOT NEEDED.
    -------------------------------------------------------------------------
CODE
  Relative segment, address: CODE_AREA 00006808 - 0000685D (0x56 bytes), align: 2
  Segment part 5.             Intra module refs:   start_pass_dpost
           LOCAL                   ADDRESS         
           =====                   =======         
           post_process_1pass      00006809 
               stack 1 = 00000000 ( 0000002C )
    -------------------------------------------------------------------------
CODE
  Segment part 6. NOT NEEDED.
    -------------------------------------------------------------------------
CODE
  Relative segment, address: CODE_AREA 00006860 - 000068BB (0x5c bytes), align: 2
  Segment part 7.
           ENTRY                   ADDRESS         REF BY
           =====                   =======         ======
           jinit_d_post_controller
                                   00006861        master_selection (jdmaster)
               stack 1 = 00000000 ( 00000010 )
    -------------------------------------------------------------------------
CSTACK
  Segment part 1. NOT NEEDED.

    -------------------------------------------------------------------------
  LIBRARY MODULE, NAME : jdsample

  SEGMENTS IN THE MODULE
  ======================
CODE
  Segment part 2. NOT NEEDED.
    -------------------------------------------------------------------------
CODE
  Relative segment, address: CODE_AREA 000068BC - 000068CF (0x14 bytes), align: 2
  Segment part 3.             Intra module refs:   jinit_upsampler
           LOCAL                   ADDRESS         
           =====                   =======         
           start_pass_upsample     000068BD 
    -------------------------------------------------------------------------
CODE
  Segment part 4. NOT NEEDED.
    -------------------------------------------------------------------------
CODE
  Relative segment, address: CODE_AREA 000068D0 - 00006987 (0xb8 bytes), align: 2
  Segment part 5.             Intra module refs:   jinit_upsampler
           LOCAL                   ADDRESS         
           =====                   =======         
           sep_upsample            000068D1 
               stack 1 = 00000000 ( 0000002C )
    -------------------------------------------------------------------------
CODE
  Segment part 6. NOT NEEDED.
    -------------------------------------------------------------------------
CODE
  Relative segment, address: CODE_AREA 00006988 - 0000698B (0x4 bytes), align: 2
  Segment part 7.             Intra module refs:   jinit_upsampler
           LOCAL                   ADDRESS         
           =====                   =======         
           fullsize_upsample       00006989 
    -------------------------------------------------------------------------
CODE
  Segment part 8. NOT NEEDED.
    -------------------------------------------------------------------------
CODE
  Relative segment, address: CODE_AREA 0000698C - 00006991 (0x6 bytes), align: 2
  Segment part 9.             Intra module refs:   jinit_upsampler
           LOCAL                   ADDRESS         
           =====                   =======         
           noop_upsample           0000698D 
    -------------------------------------------------------------------------
CODE
  Segment part 10. NOT NEEDED.
    -------------------------------------------------------------------------
CODE
  Relative segment, address: CODE_AREA 00006994 - 00006A13 (0x80 bytes), align: 2
  Segment part 11.            Intra module refs:   jinit_upsampler
           LOCAL                   ADDRESS         
           =====                   =======         
           int_upsample            00006995 
               stack 1 = 00000000 ( 00000030 )
    -------------------------------------------------------------------------
CODE
  Segment part 12. NOT NEEDED.
    -------------------------------------------------------------------------
CODE
  Relative segment, address: CODE_AREA 00006A14 - 00006A45 (0x32 bytes), align: 2
  Segment part 13.            Intra module refs:   jinit_upsampler
           LOCAL                   ADDRESS         
           =====                   =======         
           h2v1_upsample           00006A15 
               stack 1 = 00000000 ( 00000018 )
    -------------------------------------------------------------------------
CODE
  Segment part 14. NOT NEEDED.
    -------------------------------------------------------------------------
CODE
  Relative segment, address: CODE_AREA 00006A48 - 00006A99 (0x52 bytes), align: 2
  Segment part 15.            Intra module refs:   jinit_upsampler
           LOCAL                   ADDRESS         
           =====                   =======         
           h2v2_upsample           00006A49 
               stack 1 = 00000000 ( 00000024 )
    -------------------------------------------------------------------------
CODE
  Segment part 16. NOT NEEDED.
    -------------------------------------------------------------------------
CODE
  Relative segment, address: CODE_AREA 00006A9C - 00006B0D (0x72 bytes), align: 2
  Segment part 17.            Intra module refs:   jinit_upsampler
           LOCAL                   ADDRESS         
           =====                   =======         
           h2v1_fancy_upsample     00006A9D 
               stack 1 = 00000000 ( 0000001C )
    -------------------------------------------------------------------------
CODE
  Segment part 18. NOT NEEDED.
    -------------------------------------------------------------------------
CODE
  Relative segment, address: CODE_AREA 00006B10 - 00006BE5 (0xd6 bytes), align: 2
  Segment part 19.            Intra module refs:   jinit_upsampler
           LOCAL                   ADDRESS         
           =====                   =======         
           h2v2_fancy_upsample     00006B11 
               stack 1 = 00000000 ( 00000038 )
    -------------------------------------------------------------------------
CODE
  Segment part 20. NOT NEEDED.
    -------------------------------------------------------------------------
CODE
  Relative segment, address: CODE_AREA 00006BE8 - 00006D7F (0x198 bytes), align: 2
  Segment part 21.
           ENTRY                   ADDRESS         REF BY
           =====                   =======         ======
           jinit_upsampler         00006BE9        master_selection (jdmaster)
               stack 1 = 00000000 ( 00000028 )
    -------------------------------------------------------------------------
CODE
  Segment part 22. NOT NEEDED.Intra module refs:   h2v2_upsample
                                                   int_upsample
    -------------------------------------------------------------------------
CODE
  Segment part 23. NOT NEEDED.Intra module refs:   jinit_upsampler
    -------------------------------------------------------------------------
CODE
  Segment part 24. NOT NEEDED.Intra module refs:   jinit_upsampler
    -------------------------------------------------------------------------
CSTACK
  Segment part 1. NOT NEEDED.

    -------------------------------------------------------------------------
  LIBRARY MODULE, NAME : jerror

  SEGMENTS IN THE MODULE
  ======================
DATA_C
  Relative segment, address: CODE_AREA 0000857C - 0000857F (0x4 bytes), align: 2
  Segment part 2.             Intra module refs:   jpeg_std_error
           ENTRY                   ADDRESS         REF BY
           =====                   =======         ======
           jpeg_std_message_table
                                   0000857C 
    -------------------------------------------------------------------------
CODE
  Segment part 3. NOT NEEDED.
    -------------------------------------------------------------------------
CODE
  Relative segment, address: CODE_AREA 00006D80 - 00006D91 (0x12 bytes), align: 2
  Segment part 4.             Intra module refs:   jpeg_std_error
           LOCAL                   ADDRESS         
           =====                   =======         
           error_exit              00006D81 
               stack 1 = 00000000 ( 00000008 )
    -------------------------------------------------------------------------
CODE
  Segment part 5. NOT NEEDED.
    -------------------------------------------------------------------------
CODE
  Relative segment, address: CODE_AREA 00006D94 - 00006D95 (0x2 bytes), align: 2
  Segment part 6.             Intra module refs:   jpeg_std_error
           LOCAL                   ADDRESS         
           =====                   =======         
           output_message          00006D95 
    -------------------------------------------------------------------------
CODE
  Segment part 7. NOT NEEDED.
    -------------------------------------------------------------------------
CODE
  Relative segment, address: CODE_AREA 00006D98 - 00006DC3 (0x2c bytes), align: 2
  Segment part 8.             Intra module refs:   jpeg_std_error
           LOCAL                   ADDRESS         
           =====                   =======         
           emit_message            00006D99 
               stack 1 = 00000000 ( 00000008 )
    -------------------------------------------------------------------------
CODE
  Segment part 9. NOT NEEDED.
    -------------------------------------------------------------------------
CODE
  Relative segment, address: CODE_AREA 00006DC4 - 00006DC5 (0x2 bytes), align: 2
  Segment part 10.            Intra module refs:   jpeg_std_error
           LOCAL                   ADDRESS         
           =====                   =======         
           format_message          00006DC5 
    -------------------------------------------------------------------------
CODE
  Segment part 11. NOT NEEDED.
    -------------------------------------------------------------------------
CODE
  Relative segment, address: CODE_AREA 00006DC8 - 00006DD1 (0xa bytes), align: 2
  Segment part 12.            Intra module refs:   jpeg_std_error
           LOCAL                   ADDRESS         
           =====                   =======         
           reset_error_mgr         00006DC9 
    -------------------------------------------------------------------------
CODE
  Relative segment, address: CODE_AREA 00006DD4 - 00006DDB (0x8 bytes), align: 2
  Segment part 13.
           ENTRY                   ADDRESS         REF BY
           =====                   =======         ======
           jpeg_std_error::??rA    00006DD4 
    -------------------------------------------------------------------------
CODE
  Relative segment, address: CODE_AREA 00006DDC - 00006E23 (0x48 bytes), align: 2
  Segment part 14.            Intra module refs:   jpeg_std_error::??rA
           ENTRY                   ADDRESS         REF BY
           =====                   =======         ======
           jpeg_std_error          00006DDD        read_jpgimg (readimg)
    -------------------------------------------------------------------------
CODE
  Segment part 15. NOT NEEDED.Intra module refs:   error_exit
    -------------------------------------------------------------------------
CSTACK
  Segment part 1. NOT NEEDED.

    -------------------------------------------------------------------------
  LIBRARY MODULE, NAME : jfdctfst

  SEGMENTS IN THE MODULE
  ======================
CODE
  Segment part 2. NOT NEEDED.
    -------------------------------------------------------------------------
CODE
  Segment part 3. NOT NEEDED.
           ENTRY                   ADDRESS         REF BY
           =====                   =======         ======
           jpeg_fdct_ifast         
               not allocated function
    -------------------------------------------------------------------------
CSTACK
  Segment part 1. NOT NEEDED.

    -------------------------------------------------------------------------
  LIBRARY MODULE, NAME : jfdctint

  SEGMENTS IN THE MODULE
  ======================
CODE
  Segment part 2. NOT NEEDED.
    -------------------------------------------------------------------------
CODE
  Segment part 3. NOT NEEDED.
           ENTRY                   ADDRESS         REF BY
           =====                   =======         ======
           jpeg_fdct_islow         
               not allocated function
    -------------------------------------------------------------------------
CSTACK
  Segment part 1. NOT NEEDED.

    -------------------------------------------------------------------------
  LIBRARY MODULE, NAME : jidctfst

  SEGMENTS IN THE MODULE
  ======================
CODE
  Segment part 2. NOT NEEDED.
    -------------------------------------------------------------------------
CODE
  Relative segment, address: CODE_AREA 00006E24 - 0000711F (0x2fc bytes), align: 2
  Segment part 3.
           ENTRY                   ADDRESS         REF BY
           =====                   =======         ======
           jpeg_idct_ifast         00006E25        start_pass (jddctmgr)
               stack 1 = 00000000 ( 0000013C )
    -------------------------------------------------------------------------
CSTACK
  Segment part 1. NOT NEEDED.

    -------------------------------------------------------------------------
  LIBRARY MODULE, NAME : jidctint

  SEGMENTS IN THE MODULE
  ======================
CODE
  Segment part 2. NOT NEEDED.
    -------------------------------------------------------------------------
CODE
  Relative segment, address: CODE_AREA 00007120 - 000074BF (0x3a0 bytes), align: 2
  Segment part 3.
           ENTRY                   ADDRESS         REF BY
           =====                   =======         ======
           jpeg_idct_islow         00007121        start_pass (jddctmgr)
               stack 1 = 00000000 ( 00000154 )
    -------------------------------------------------------------------------
CSTACK
  Segment part 1. NOT NEEDED.

    -------------------------------------------------------------------------
  LIBRARY MODULE, NAME : jidctred

  SEGMENTS IN THE MODULE
  ======================
CODE
  Segment part 2. NOT NEEDED.
    -------------------------------------------------------------------------
CODE
  Relative segment, address: CODE_AREA 000074C0 - 00007723 (0x264 bytes), align: 2
  Segment part 3.
           ENTRY                   ADDRESS         REF BY
           =====                   =======         ======
           jpeg_idct_4x4           000074C1        start_pass (jddctmgr)
               stack 1 = 00000000 ( 000000B0 )
    -------------------------------------------------------------------------
CODE
  Segment part 4. NOT NEEDED.
    -------------------------------------------------------------------------
CODE
  Relative segment, address: CODE_AREA 00007724 - 00007877 (0x154 bytes), align: 2
  Segment part 5.
           ENTRY                   ADDRESS         REF BY
           =====                   =======         ======
           jpeg_idct_2x2           00007725        start_pass (jddctmgr)
               stack 1 = 00000000 ( 0000005C )
    -------------------------------------------------------------------------
CODE
  Segment part 6. NOT NEEDED.
    -------------------------------------------------------------------------
CODE
  Relative segment, address: CODE_AREA 00007878 - 000078A1 (0x2a bytes), align: 2
  Segment part 7.
           ENTRY                   ADDRESS         REF BY
           =====                   =======         ======
           jpeg_idct_1x1           00007879        start_pass (jddctmgr)
               stack 1 = 00000000 ( 00000008 )
    -------------------------------------------------------------------------
CSTACK
  Segment part 1. NOT NEEDED.

    -------------------------------------------------------------------------
  LIBRARY MODULE, NAME : jmemansi

  SEGMENTS IN THE MODULE
  ======================
CODE
  Segment part 3. NOT NEEDED.
    -------------------------------------------------------------------------
CODE
  Relative segment, address: CODE_AREA 000078A4 - 000078A7 (0x4 bytes), align: 2
  Segment part 4.
           ENTRY                   ADDRESS         REF BY
           =====                   =======         ======
           jpeg_get_small          000078A5        alloc_small (jmemmgr)
                                                   jinit_memory_mgr (jmemmgr)
               stack 1 = 00000000 ( 00000004 )
    -------------------------------------------------------------------------
CODE
  Segment part 5. NOT NEEDED.
    -------------------------------------------------------------------------
CODE
  Relative segment, address: CODE_AREA 000078A8 - 000078AB (0x4 bytes), align: 2
  Segment part 6.
           ENTRY                   ADDRESS         REF BY
           =====                   =======         ======
           jpeg_free_small         000078A9        free_pool (jmemmgr)
                                                   self_destruct (jmemmgr)
               stack 1 = 00000000 ( 00000004 )
    -------------------------------------------------------------------------
CODE
  Segment part 7. NOT NEEDED.
    -------------------------------------------------------------------------
CODE
  Relative segment, address: CODE_AREA 000078AC - 000078AF (0x4 bytes), align: 2
  Segment part 8.
           ENTRY                   ADDRESS         REF BY
           =====                   =======         ======
           jpeg_get_large          000078AD        alloc_large (jmemmgr)
               stack 1 = 00000000 ( 00000004 )
    -------------------------------------------------------------------------
CODE
  Relative segment, address: CODE_AREA 000078B0 - 000078B5 (0x6 bytes), align: 2
  Segment part 9.             Intra module refs:   jpeg_get_large
                                                   jpeg_get_small
    -------------------------------------------------------------------------
CODE
  Segment part 10. NOT NEEDED.
    -------------------------------------------------------------------------
CODE
  Relative segment, address: CODE_AREA 000078B8 - 000078BB (0x4 bytes), align: 2
  Segment part 11.
           ENTRY                   ADDRESS         REF BY
           =====                   =======         ======
           jpeg_free_large         000078B9        free_pool (jmemmgr)
               stack 1 = 00000000 ( 00000004 )
    -------------------------------------------------------------------------
CODE
  Relative segment, address: CODE_AREA 000078BC - 000078C1 (0x6 bytes), align: 2
  Segment part 12.            Intra module refs:   jpeg_free_large
                                                   jpeg_free_small
    -------------------------------------------------------------------------
CODE
  Segment part 13. NOT NEEDED.
    -------------------------------------------------------------------------
CODE
  Relative segment, address: CODE_AREA 000078C4 - 000078CB (0x8 bytes), align: 2
  Segment part 14.
           ENTRY                   ADDRESS         REF BY
           =====                   =======         ======
           jpeg_mem_available      000078C5        realize_virt_arrays (jmemmgr)
    -------------------------------------------------------------------------
CODE
  Segment part 15. NOT NEEDED.
    -------------------------------------------------------------------------
CODE
  Relative segment, address: CODE_AREA 000078CC - 00007911 (0x46 bytes), align: 2
  Segment part 16.            Intra module refs:   jpeg_open_backing_store
           LOCAL                   ADDRESS         
           =====                   =======         
           read_backing_store      000078CD 
               stack 1 = 00000000 ( 0000001C )
    -------------------------------------------------------------------------
CODE
  Segment part 17. NOT NEEDED.
    -------------------------------------------------------------------------
CODE
  Relative segment, address: CODE_AREA 00007914 - 00007959 (0x46 bytes), align: 2
  Segment part 18.            Intra module refs:   jpeg_open_backing_store
           LOCAL                   ADDRESS         
           =====                   =======         
           write_backing_store     00007915 
               stack 1 = 00000000 ( 0000001C )
    -------------------------------------------------------------------------
CODE
  Segment part 19. NOT NEEDED.
    -------------------------------------------------------------------------
CODE
  Relative segment, address: CODE_AREA 0000795C - 00007967 (0xc bytes), align: 2
  Segment part 20.            Intra module refs:   jpeg_open_backing_store
           LOCAL                   ADDRESS         
           =====                   =======         
           close_backing_store     0000795D 
               stack 1 = 00000000 ( 00000008 )
    -------------------------------------------------------------------------
CODE
  Segment part 21. NOT NEEDED.
    -------------------------------------------------------------------------
CODE
  Relative segment, address: CODE_AREA 00007968 - 000079AB (0x44 bytes), align: 2
  Segment part 22.
           ENTRY                   ADDRESS         REF BY
           =====                   =======         ======
           jpeg_open_backing_store
                                   00007969        realize_virt_arrays (jmemmgr)
               stack 1 = 00000000 ( 0000000C )
    -------------------------------------------------------------------------
CODE
  Segment part 23. NOT NEEDED.
    -------------------------------------------------------------------------
CODE
  Relative segment, address: CODE_AREA 000079AC - 000079B3 (0x8 bytes), align: 2
  Segment part 24.
           ENTRY                   ADDRESS         REF BY
           =====                   =======         ======
           jpeg_mem_init           000079AD        jinit_memory_mgr (jmemmgr)
    -------------------------------------------------------------------------
CODE
  Segment part 25. NOT NEEDED.
    -------------------------------------------------------------------------
CODE
  Relative segment, address: CODE_AREA 000079B4 - 000079B5 (0x2 bytes), align: 2
  Segment part 26.
           ENTRY                   ADDRESS         REF BY
           =====                   =======         ======
           jpeg_mem_term           000079B5        jinit_memory_mgr (jmemmgr)
                                                   self_destruct (jmemmgr)
    -------------------------------------------------------------------------
CSTACK
  Segment part 1. NOT NEEDED.
    -------------------------------------------------------------------------
DATA_C
  Segment part 2. NOT NEEDED.

    -------------------------------------------------------------------------
  LIBRARY MODULE, NAME : jmemmgr

  SEGMENTS IN THE MODULE
  ======================
CODE
  Segment part 3. NOT NEEDED.
    -------------------------------------------------------------------------
CODE
  Relative segment, address: CODE_AREA 000079B8 - 000079C7 (0x10 bytes), align: 2
  Segment part 4.             Intra module refs:   alloc_large
                                                   alloc_small
           LOCAL                   ADDRESS         
           =====                   =======         
           out_of_memory           000079B9 
               stack 1 = 00000000 ( 00000004 )
    -------------------------------------------------------------------------
CODE
  Segment part 5. NOT NEEDED.
    -------------------------------------------------------------------------
DATA_C
  Relative segment, address: CODE_AREA 00008580 - 0000858F (0x10 bytes), align: 2
  Segment part 2.             Intra module refs:   alloc_small
    -------------------------------------------------------------------------
CODE
  Relative segment, address: CODE_AREA 000079C8 - 00007A9B (0xd4 bytes), align: 2
  Segment part 6.             Intra module refs:   alloc_barray
                                                   alloc_sarray
                                                   jinit_memory_mgr
                                                   request_virt_barray
                                                   request_virt_sarray
           LOCAL                   ADDRESS         
           =====                   =======         
           alloc_small             000079C9 
               stack 1 = 00000000 ( 00000020 )
    -------------------------------------------------------------------------
CODE
  Relative segment, address: CODE_AREA 00007A9C - 00007A9F (0x4 bytes), align: 2
  Segment part 7.             Intra module refs:   alloc_small
    -------------------------------------------------------------------------
CODE
  Segment part 8. NOT NEEDED.
    -------------------------------------------------------------------------
CODE
  Relative segment, address: CODE_AREA 00007AA0 - 00007B15 (0x76 bytes), align: 2
  Segment part 9.             Intra module refs:   alloc_barray
                                                   alloc_sarray
                                                   jinit_memory_mgr
           LOCAL                   ADDRESS         
           =====                   =======         
           alloc_large             00007AA1 
               stack 1 = 00000000 ( 00000018 )
    -------------------------------------------------------------------------
CODE
  Relative segment, address: CODE_AREA 00007B18 - 00007B1B (0x4 bytes), align: 2
  Segment part 10.            Intra module refs:   alloc_large
                                                   alloc_small
    -------------------------------------------------------------------------
CODE
  Segment part 11. NOT NEEDED.
    -------------------------------------------------------------------------
CODE
  Relative segment, address: CODE_AREA 00007B1C - 00007B85 (0x6a bytes), align: 2
  Segment part 12.            Intra module refs:   jinit_memory_mgr
                                                   realize_virt_arrays
           LOCAL                   ADDRESS         
           =====                   =======         
           alloc_sarray            00007B1D 
               stack 1 = 00000000 ( 00000020 )
    -------------------------------------------------------------------------
CODE
  Segment part 13. NOT NEEDED.
    -------------------------------------------------------------------------
CODE
  Relative segment, address: CODE_AREA 00007B88 - 00007BF5 (0x6e bytes), align: 2
  Segment part 14.            Intra module refs:   jinit_memory_mgr
                                                   realize_virt_arrays
           LOCAL                   ADDRESS         
           =====                   =======         
           alloc_barray            00007B89 
               stack 1 = 00000000 ( 00000020 )
    -------------------------------------------------------------------------
CODE
  Relative segment, address: CODE_AREA 00007BF8 - 00007BFB (0x4 bytes), align: 2
  Segment part 15.            Intra module refs:   alloc_barray
                                                   alloc_sarray
    -------------------------------------------------------------------------
CODE
  Segment part 16. NOT NEEDED.
    -------------------------------------------------------------------------
CODE
  Relative segment, address: CODE_AREA 00007BFC - 00007C41 (0x46 bytes), align: 2
  Segment part 17.            Intra module refs:   jinit_memory_mgr
           LOCAL                   ADDRESS         
           =====                   =======         
           request_virt_sarray     00007BFD 
               stack 1 = 00000000 ( 0000001C )
    -------------------------------------------------------------------------
CODE
  Segment part 18. NOT NEEDED.
    -------------------------------------------------------------------------
CODE
  Relative segment, address: CODE_AREA 00007C44 - 00007C89 (0x46 bytes), align: 2
  Segment part 19.            Intra module refs:   jinit_memory_mgr
           LOCAL                   ADDRESS         
           =====                   =======         
           request_virt_barray     00007C45 
               stack 1 = 00000000 ( 0000001C )
    -------------------------------------------------------------------------
CODE
  Segment part 20. NOT NEEDED.
    -------------------------------------------------------------------------
CODE
  Relative segment, address: CODE_AREA 00007C8C - 00007DBB (0x130 bytes), align: 2
  Segment part 21.            Intra module refs:   jinit_memory_mgr
           LOCAL                   ADDRESS         
           =====                   =======         
           realize_virt_arrays     00007C8D 
               stack 1 = 00000000 ( 0000001C )
    -------------------------------------------------------------------------
CODE
  Segment part 22. NOT NEEDED.
    -------------------------------------------------------------------------
CODE
  Relative segment, address: CODE_AREA 00007DBC - 00007DC5 (0xa bytes), align: 2
  Segment part 23.            Intra module refs:   access_virt_sarray
           LOCAL                   ADDRESS         
           =====                   =======         
           do_sarray_io            00007DBD 
               stack 1 = 00000000 ( 00000028 )
    -------------------------------------------------------------------------
CODE
  Segment part 24. NOT NEEDED.
    -------------------------------------------------------------------------
CODE
  Relative segment, address: CODE_AREA 00007DC8 - 00007DD3 (0xc bytes), align: 2
  Segment part 25.            Intra module refs:   access_virt_barray
           LOCAL                   ADDRESS         
           =====                   =======         
           do_barray_io            00007DC9 
               stack 1 = 00000000 ( 00000028 )
    -------------------------------------------------------------------------
CODE
  Relative segment, address: CODE_AREA 00007DD4 - 00007E55 (0x82 bytes), align: 2
  Segment part 26.            Intra module refs:   do_barray_io
                                                   do_sarray_io
    -------------------------------------------------------------------------
CODE
  Segment part 27. NOT NEEDED.
    -------------------------------------------------------------------------
CODE
  Relative segment, address: CODE_AREA 00007E58 - 00007F43 (0xec bytes), align: 2
  Segment part 28.            Intra module refs:   jinit_memory_mgr
           LOCAL                   ADDRESS         
           =====                   =======         
           access_virt_sarray      00007E59 
               stack 1 = 00000000 ( 00000020 )
    -------------------------------------------------------------------------
CODE
  Segment part 29. NOT NEEDED.
    -------------------------------------------------------------------------
CODE
  Relative segment, address: CODE_AREA 00007F44 - 0000802F (0xec bytes), align: 2
  Segment part 30.            Intra module refs:   jinit_memory_mgr
           LOCAL                   ADDRESS         
           =====                   =======         
           access_virt_barray      00007F45 
               stack 1 = 00000000 ( 00000020 )
    -------------------------------------------------------------------------
CODE
  Relative segment, address: CODE_AREA 00008030 - 0000803B (0xc bytes), align: 2
  Segment part 31.            Intra module refs:   access_virt_barray
                                                   access_virt_sarray
    -------------------------------------------------------------------------
CODE
  Segment part 32. NOT NEEDED.
    -------------------------------------------------------------------------
CODE
  Relative segment, address: CODE_AREA 0000803C - 000080F7 (0xbc bytes), align: 2
  Segment part 33.            Intra module refs:   jinit_memory_mgr
                                                   self_destruct
           LOCAL                   ADDRESS         
           =====                   =======         
           free_pool               0000803D 
               stack 1 = 00000000 ( 00000018 )
    -------------------------------------------------------------------------
CODE
  Segment part 34. NOT NEEDED.
    -------------------------------------------------------------------------
CODE
  Relative segment, address: CODE_AREA 000080F8 - 0000811F (0x28 bytes), align: 2
  Segment part 35.            Intra module refs:   jinit_memory_mgr
           LOCAL                   ADDRESS         
           =====                   =======         
           self_destruct           000080F9 
               stack 1 = 00000000 ( 0000000C )
    -------------------------------------------------------------------------
CODE
  Segment part 36. NOT NEEDED.
    -------------------------------------------------------------------------
CODE
  Relative segment, address: CODE_AREA 00008120 - 000081CB (0xac bytes), align: 2
  Segment part 37.
           ENTRY                   ADDRESS         REF BY
           =====                   =======         ======
           jinit_memory_mgr        00008121        jpeg_CreateDecompress (jdapimin)
               stack 1 = 00000000 ( 00000014 )
    -------------------------------------------------------------------------
CODE
  Relative segment, address: CODE_AREA 000081CC - 000081CF (0x4 bytes), align: 2
  Segment part 38.            Intra module refs:   jinit_memory_mgr
    -------------------------------------------------------------------------
CODE
  Segment part 39. NOT NEEDED.Intra module refs:   alloc_small
                                                   jinit_memory_mgr
    -------------------------------------------------------------------------
CODE
  Segment part 40. NOT NEEDED.Intra module refs:   alloc_large
    -------------------------------------------------------------------------
CODE
  Segment part 41. NOT NEEDED.Intra module refs:   alloc_barray
                                                   alloc_sarray
                                                   realize_virt_arrays
    -------------------------------------------------------------------------
CODE
  Segment part 42. NOT NEEDED.Intra module refs:   realize_virt_arrays
    -------------------------------------------------------------------------
CODE
  Segment part 43. NOT NEEDED.Intra module refs:   realize_virt_arrays
    -------------------------------------------------------------------------
CODE
  Segment part 44. NOT NEEDED.Intra module refs:   realize_virt_arrays
    -------------------------------------------------------------------------
CODE
  Segment part 45. NOT NEEDED.Intra module refs:   access_virt_barray
                                                   access_virt_sarray
    -------------------------------------------------------------------------
CODE
  Segment part 46. NOT NEEDED.Intra module refs:   free_pool
    -------------------------------------------------------------------------
CODE
  Segment part 47. NOT NEEDED.Intra module refs:   free_pool
                                                   self_destruct
    -------------------------------------------------------------------------
CODE
  Segment part 48. NOT NEEDED.Intra module refs:   jinit_memory_mgr
                                                   self_destruct
    -------------------------------------------------------------------------
CODE
  Segment part 49. NOT NEEDED.Intra module refs:   jinit_memory_mgr
    -------------------------------------------------------------------------
CSTACK
  Segment part 1. NOT NEEDED.

    -------------------------------------------------------------------------
  LIBRARY MODULE, NAME : jutils

  SEGMENTS IN THE MODULE
  ======================
DATA_C
  Relative segment, address: CODE_AREA 00008590 - 000086CF (0x140 bytes), align: 2
  Segment part 2.
           ENTRY                   ADDRESS         REF BY
           =====                   =======         ======
           jpeg_natural_order      00008590        Segment part 12 (jdphuff)
                                                   Segment part 17 (jdphuff)
                                                   decode_mcu (jdhuff)
                                                   get_dqt (jdmarker)
    -------------------------------------------------------------------------
CODE
  Segment part 3. NOT NEEDED.
    -------------------------------------------------------------------------
CODE
  Relative segment, address: CODE_AREA 000081D0 - 000081DD (0xe bytes), align: 2
  Segment part 4.
           ENTRY                   ADDRESS         REF BY
           =====                   =======         ======
           jdiv_round_up           000081D1        initial_setup (jdinput)
                                                   jpeg_calc_output_dimensions (jdmaster)
                                                   per_scan_setup (jdinput)
               stack 1 = 00000000 ( 00000004 )
    -------------------------------------------------------------------------
CODE
  Segment part 5. NOT NEEDED.
    -------------------------------------------------------------------------
CODE
  Relative segment, address: CODE_AREA 000081E0 - 000081EF (0x10 bytes), align: 2
  Segment part 6.
           ENTRY                   ADDRESS         REF BY
           =====                   =======         ======
           jround_up               000081E1        jinit_d_coef_controller (jdcoefct)
                                                   jinit_upsampler (jdsample)
               stack 1 = 00000000 ( 00000004 )
    -------------------------------------------------------------------------
CODE
  Segment part 7. NOT NEEDED.
    -------------------------------------------------------------------------
CODE
  Relative segment, address: CODE_AREA 000081F0 - 00008215 (0x26 bytes), align: 2
  Segment part 8.
           ENTRY                   ADDRESS         REF BY
           =====                   =======         ======
           jcopy_sample_rows       000081F1        grayscale_convert (jdcolor)
                                                   h2v2_upsample (jdsample)
                                                   int_upsample (jdsample)
                                                   merged_2v_upsample (jdmerge)
               stack 1 = 00000000 ( 00000014 )
    -------------------------------------------------------------------------
CODE
  Segment part 9. NOT NEEDED.
    -------------------------------------------------------------------------
CODE
  Relative segment, address: CODE_AREA 00008218 - 00008227 (0x10 bytes), align: 2
  Segment part 10.
           ENTRY                   ADDRESS         REF BY
           =====                   =======         ======
           jcopy_block_row         00008219        decompress_smooth_data (jdcoefct)
               stack 1 = 00000000 ( 00000004 )
    -------------------------------------------------------------------------
CODE
  Segment part 11. NOT NEEDED.
    -------------------------------------------------------------------------
CODE
  Relative segment, address: CODE_AREA 00008228 - 0000822F (0x8 bytes), align: 2
  Segment part 12.
           ENTRY                   ADDRESS         REF BY
           =====                   =======         ======
           jzero_far               00008229        access_virt_barray (jmemmgr)
                                                   access_virt_sarray (jmemmgr)
                                                   decompress_onepass (jdcoefct)
               stack 1 = 00000000 ( 00000004 )
    -------------------------------------------------------------------------
CODE
  Segment part 13. NOT NEEDED.Intra module refs:   jdiv_round_up
                                                   jround_up
    -------------------------------------------------------------------------
CSTACK
  Segment part 1. NOT NEEDED.




                ****************************************
                *                                      *
                *            MODULE SUMMARY            *
                *                                      *
                ****************************************

Module             CODE   DATA
------             ----   ----
                  (Rel)  (Rel)
?div_module         260
Main              1 536     40
  + shared           24
Siemens           1 361     45
Swi                 800
devka             4 172  4 172
jcomapi             114
jdapimin            812
jdapistd            388
jdatasrc            148
jdcoefct          2 600
jdcolor             920
jddctmgr            512
jdhuff            2 148
jdinput           1 004
jdmainct          1 168
jdmarker          4 432
jdmaster          1 316
jdmerge           1 076
jdphuff           2 388
jdpostct            272
jdsample          1 220
jerror              168
jidctfst            764
jidctint            928
jidctred            994
jmemansi            274
jmemmgr           2 088
jutils              416
readimg             458
register             52
N/A (alignment)       6
------           ------  -----
Total:           34 819  4 257


                ****************************************
                *                                      *
                *              CALL GRAPH              *
                *                                      *
                ****************************************

  ->Sub-tree of type: Indirectly called function tree that does not make
                    : indirect calls (Is not an interrupt and is not flagged
                    : as not overlayable)
                             CSTACK
    | Stack used (prev) :  00000000
  01  method0
      | Stack used (prev) :  00000000
      | + function block  :  00000004
  <-Sub-tree of type: Indirectly called function tree that does not make
                    : indirect calls (Is not an interrupt and is not flagged
                    : as not overlayable)
    | Stack used          :  00000004


  ->Sub-tree of type: Indirectly called function tree that does not make
                    : indirect calls (Is not an interrupt and is not flagged
                    : as not overlayable)
                             CSTACK
    | Stack used (prev) :  00000000
  01  method1
      | Stack used (prev) :  00000000
      | + function block  :  00000008
  <-Sub-tree of type: Indirectly called function tree that does not make
                    : indirect calls (Is not an interrupt and is not flagged
                    : as not overlayable)
    | Stack used          :  00000008


  ->Sub-tree of type: Indirectly called function tree that does not make
                    : indirect calls (Is not an interrupt and is not flagged
                    : as not overlayable)
                             CSTACK
    | Stack used (prev) :  00000000
  01  method2
      | Stack used (prev) :  00000000
      | + function block  :  00000000
  <-Sub-tree of type: Indirectly called function tree that does not make
                    : indirect calls (Is not an interrupt and is not flagged
                    : as not overlayable)
    | Stack used          :  00000000


  ->Sub-tree of type: Indirectly called function tree that does not make
                    : indirect calls (Is not an interrupt and is not flagged
                    : as not overlayable)
                             CSTACK
    | Stack used (prev) :  00000000
  01  method3
      | Stack used (prev) :  00000000
      | + function block  :  00000008
  <-Sub-tree of type: Indirectly called function tree that does not make
                    : indirect calls (Is not an interrupt and is not flagged
                    : as not overlayable)
    | Stack used          :  00000008


  ->Sub-tree of type: Indirectly called function tree that does not make
                    : indirect calls (Is not an interrupt and is not flagged
                    : as not overlayable)
                             CSTACK
    | Stack used (prev) :  00000000
  01  method4
      | Stack used (prev) :  00000000
      | + function block  :  00000000
  <-Sub-tree of type: Indirectly called function tree that does not make
                    : indirect calls (Is not an interrupt and is not flagged
                    : as not overlayable)
    | Stack used          :  00000000


  ->Sub-tree of type: Indirectly called function tree that does not make
                    : indirect calls (Is not an interrupt and is not flagged
                    : as not overlayable)
                             CSTACK
    | Stack used (prev) :  00000000
  01  method5
      | Stack used (prev) :  00000000
      | + function block  :  00000004
  <-Sub-tree of type: Indirectly called function tree that does not make
                    : indirect calls (Is not an interrupt and is not flagged
                    : as not overlayable)
    | Stack used          :  00000004


  ->Sub-tree of type: Indirectly called function tree that does not make
                    : indirect calls (Is not an interrupt and is not flagged
                    : as not overlayable)
                             CSTACK
    | Stack used (prev) :  00000000
  01  method7
      | Stack used (prev) :  00000000
      | + function block  :  00000000
  <-Sub-tree of type: Indirectly called function tree that does not make
                    : indirect calls (Is not an interrupt and is not flagged
                    : as not overlayable)
    | Stack used          :  00000000


  ->Sub-tree of type: Indirectly called function tree that does not make
                    : indirect calls (Is not an interrupt and is not flagged
                    : as not overlayable)
                             CSTACK
    | Stack used (prev) :  00000000
  01  method8
      | Stack used (prev) :  00000000
      | + function block  :  00000000
  <-Sub-tree of type: Indirectly called function tree that does not make
                    : indirect calls (Is not an interrupt and is not flagged
                    : as not overlayable)
    | Stack used          :  00000000


  ->Sub-tree of type: Indirectly called function tree that does not make
                    : indirect calls (Is not an interrupt and is not flagged
                    : as not overlayable)
                             CSTACK
    | Stack used (prev) :  00000000
  01  method9
      | Stack used (prev) :  00000000
      | + function block  :  00000000
  <-Sub-tree of type: Indirectly called function tree that does not make
                    : indirect calls (Is not an interrupt and is not flagged
                    : as not overlayable)
    | Stack used          :  00000000


  ->Sub-tree of type: Indirectly called function tree that does not make
                    : indirect calls (Is not an interrupt and is not flagged
                    : as not overlayable)
                             CSTACK
    | Stack used (prev) :  00000000
  01  maincsm_oncreate
      | Stack used (prev) :  00000000
      | + function block  :  0000000C
  <-Sub-tree of type: Indirectly called function tree that does not make
                    : indirect calls (Is not an interrupt and is not flagged
                    : as not overlayable)
    | Stack used          :  0000000C


  ->Sub-tree of type: Indirectly called function tree that does not make
                    : indirect calls (Is not an interrupt and is not flagged
                    : as not overlayable)
                             CSTACK
    | Stack used (prev) :  00000000
  01  Killer
      | Stack used (prev) :  00000000
      | + function block  :  00000004
  <-Sub-tree of type: Indirectly called function tree that does not make
                    : indirect calls (Is not an interrupt and is not flagged
                    : as not overlayable)
    | Stack used          :  00000004


  ->Sub-tree of type: Indirectly called function tree that does not make
                    : indirect calls (Is not an interrupt and is not flagged
                    : as not overlayable)
                             CSTACK
    | Stack used (prev) :  00000000
  01  maincsm_onclose
      | Stack used (prev) :  00000000
      | + function block  :  00000008
  <-Sub-tree of type: Indirectly called function tree that does not make
                    : indirect calls (Is not an interrupt and is not flagged
                    : as not overlayable)
    | Stack used          :  00000008


  ->Sub-tree of type: Indirectly called function tree that does not make
                    : indirect calls (Is not an interrupt and is not flagged
                    : as not overlayable)
                             CSTACK
    | Stack used (prev) :  00000000
  01  maincsm_onmessage
      | Stack used (prev) :  00000000
      | + function block  :  00000000
  <-Sub-tree of type: Indirectly called function tree that does not make
                    : indirect calls (Is not an interrupt and is not flagged
                    : as not overlayable)
    | Stack used          :  00000000


  ->Sub-tree of type: Indirectly called function tree that does not make
                    : indirect calls (Is not an interrupt and is not flagged
                    : as not overlayable)
                             CSTACK
    | Stack used (prev) :  00000000
  01  my_error_exit
      | Stack used (prev) :  00000000
      | + function block  :  00000008
  <-Sub-tree of type: Indirectly called function tree that does not make
                    : indirect calls (Is not an interrupt and is not flagged
                    : as not overlayable)
    | Stack used          :  00000008


  ->Sub-tree of type: Indirectly called function tree that does not make
                    : indirect calls (Is not an interrupt and is not flagged
                    : as not overlayable)
                             CSTACK
    | Stack used (prev) :  00000000
  01  init_source
      | Stack used (prev) :  00000000
      | + function block  :  00000000
  <-Sub-tree of type: Indirectly called function tree that does not make
                    : indirect calls (Is not an interrupt and is not flagged
                    : as not overlayable)
    | Stack used          :  00000000


  ->Sub-tree of type: Indirectly called function tree that does not make
                    : indirect calls (Is not an interrupt and is not flagged
                    : as not overlayable)
                             CSTACK
    | Stack used (prev) :  00000000
  01  fill_input_buffer
      | Stack used (prev) :  00000000
      | + function block  :  00000000
  <-Sub-tree of type: Indirectly called function tree that does not make
                    : indirect calls (Is not an interrupt and is not flagged
                    : as not overlayable)
    | Stack used          :  00000000


  ->Sub-tree of type: Indirectly called function tree that does not make
                    : indirect calls (Is not an interrupt and is not flagged
                    : as not overlayable)
                             CSTACK
    | Stack used (prev) :  00000000
  01  skip_input_data
      | Stack used (prev) :  00000000
      | + function block  :  00000000
  <-Sub-tree of type: Indirectly called function tree that does not make
                    : indirect calls (Is not an interrupt and is not flagged
                    : as not overlayable)
    | Stack used          :  00000000


  ->Sub-tree of type: Indirectly called function tree that does not make
                    : indirect calls (Is not an interrupt and is not flagged
                    : as not overlayable)
                             CSTACK
    | Stack used (prev) :  00000000
  01  term_source
      | Stack used (prev) :  00000000
      | + function block  :  00000000
  <-Sub-tree of type: Indirectly called function tree that does not make
                    : indirect calls (Is not an interrupt and is not flagged
                    : as not overlayable)
    | Stack used          :  00000000


  ->Sub-tree of type: Indirectly called function tree that does not make
                    : indirect calls (Is not an interrupt and is not flagged
                    : as not overlayable)
                             CSTACK
    | Stack used (prev) :  00000000
  01  start_input_pass
      | Stack used (prev) :  00000000
      | + function block  :  00000004
  <-Sub-tree of type: Indirectly called function tree that does not make
                    : indirect calls (Is not an interrupt and is not flagged
                    : as not overlayable)
    | Stack used          :  00000004


  ->Sub-tree of type: Indirectly called function tree that does not make
                    : indirect calls (Is not an interrupt and is not flagged
                    : as not overlayable)
                             CSTACK
    | Stack used (prev) :  00000000
  01  start_output_pass
      | Stack used (prev) :  00000000
      | + function block  :  0000000C
  <-Sub-tree of type: Indirectly called function tree that does not make
                    : indirect calls (Is not an interrupt and is not flagged
                    : as not overlayable)
    | Stack used          :  0000000C


  ->Sub-tree of type: Indirectly called function tree that does not make
                    : indirect calls (Is not an interrupt and is not flagged
                    : as not overlayable)
                             CSTACK
    | Stack used (prev) :  00000000
  01  decompress_onepass
      | Stack used (prev) :  00000000
      | + function block  :  00000058
  <-Sub-tree of type: Indirectly called function tree that does not make
                    : indirect calls (Is not an interrupt and is not flagged
                    : as not overlayable)
    | Stack used          :  00000058


  ->Sub-tree of type: Indirectly called function tree that does not make
                    : indirect calls (Is not an interrupt and is not flagged
                    : as not overlayable)
                             CSTACK
    | Stack used (prev) :  00000000
  01  dummy_consume_data
      | Stack used (prev) :  00000000
      | + function block  :  00000000
  <-Sub-tree of type: Indirectly called function tree that does not make
                    : indirect calls (Is not an interrupt and is not flagged
                    : as not overlayable)
    | Stack used          :  00000000


  ->Sub-tree of type: Indirectly called function tree that does not make
                    : indirect calls (Is not an interrupt and is not flagged
                    : as not overlayable)
                             CSTACK
    | Stack used (prev) :  00000000
  01  consume_data
      | Stack used (prev) :  00000000
      | + function block  :  00000040
  <-Sub-tree of type: Indirectly called function tree that does not make
                    : indirect calls (Is not an interrupt and is not flagged
                    : as not overlayable)
    | Stack used          :  00000040


  ->Sub-tree of type: Indirectly called function tree that does not make
                    : indirect calls (Is not an interrupt and is not flagged
                    : as not overlayable)
                             CSTACK
    | Stack used (prev) :  00000000
  01  decompress_data
      | Stack used (prev) :  00000000
      | + function block  :  0000004C
  <-Sub-tree of type: Indirectly called function tree that does not make
                    : indirect calls (Is not an interrupt and is not flagged
                    : as not overlayable)
    | Stack used          :  0000004C


  ->Sub-tree of type: Indirectly called function tree that does not make
                    : indirect calls (Is not an interrupt and is not flagged
                    : as not overlayable)
                             CSTACK
    | Stack used (prev) :  00000000
  01  decompress_smooth_data
      | Stack used (prev) :  00000000
      | + function block  :  0000012C
  <-Sub-tree of type: Indirectly called function tree that does not make
                    : indirect calls (Is not an interrupt and is not flagged
                    : as not overlayable)
    | Stack used          :  0000012C


  ->Sub-tree of type: Indirectly called function tree that does not make
                    : indirect calls (Is not an interrupt and is not flagged
                    : as not overlayable)
                             CSTACK
    | Stack used (prev) :  00000000
  01  ycc_rgb_convert
      | Stack used (prev) :  00000000
      | + function block  :  00000044
  <-Sub-tree of type: Indirectly called function tree that does not make
                    : indirect calls (Is not an interrupt and is not flagged
                    : as not overlayable)
    | Stack used          :  00000044


  ->Sub-tree of type: Indirectly called function tree that does not make
                    : indirect calls (Is not an interrupt and is not flagged
                    : as not overlayable)
                             CSTACK
    | Stack used (prev) :  00000000
  01  null_convert
      | Stack used (prev) :  00000000
      | + function block  :  00000020
  <-Sub-tree of type: Indirectly called function tree that does not make
                    : indirect calls (Is not an interrupt and is not flagged
                    : as not overlayable)
    | Stack used          :  00000020


  ->Sub-tree of type: Indirectly called function tree that does not make
                    : indirect calls (Is not an interrupt and is not flagged
                    : as not overlayable)
                             CSTACK
    | Stack used (prev) :  00000000
  01  grayscale_convert
      | Stack used (prev) :  00000000
      | + function block  :  00000014
  <-Sub-tree of type: Indirectly called function tree that does not make
                    : indirect calls (Is not an interrupt and is not flagged
                    : as not overlayable)
    | Stack used          :  00000014


  ->Sub-tree of type: Indirectly called function tree that does not make
                    : indirect calls (Is not an interrupt and is not flagged
                    : as not overlayable)
                             CSTACK
    | Stack used (prev) :  00000000
  01  gray_rgb_convert
      | Stack used (prev) :  00000000
      | + function block  :  00000018
  <-Sub-tree of type: Indirectly called function tree that does not make
                    : indirect calls (Is not an interrupt and is not flagged
                    : as not overlayable)
    | Stack used          :  00000018


  ->Sub-tree of type: Indirectly called function tree that does not make
                    : indirect calls (Is not an interrupt and is not flagged
                    : as not overlayable)
                             CSTACK
    | Stack used (prev) :  00000000
  01  ycck_cmyk_convert
      | Stack used (prev) :  00000000
      | + function block  :  00000048
  <-Sub-tree of type: Indirectly called function tree that does not make
                    : indirect calls (Is not an interrupt and is not flagged
                    : as not overlayable)
    | Stack used          :  00000048


  ->Sub-tree of type: Indirectly called function tree that does not make
                    : indirect calls (Is not an interrupt and is not flagged
                    : as not overlayable)
                             CSTACK
    | Stack used (prev) :  00000000
  01  start_pass_dcolor
      | Stack used (prev) :  00000000
      | + function block  :  00000000
  <-Sub-tree of type: Indirectly called function tree that does not make
                    : indirect calls (Is not an interrupt and is not flagged
                    : as not overlayable)
    | Stack used          :  00000000


  ->Sub-tree of type: Indirectly called function tree that does not make
                    : indirect calls (Is not an interrupt and is not flagged
                    : as not overlayable)
                             CSTACK
    | Stack used (prev) :  00000000
  01  start_pass
      | Stack used (prev) :  00000000
      | + function block  :  00000028
  <-Sub-tree of type: Indirectly called function tree that does not make
                    : indirect calls (Is not an interrupt and is not flagged
                    : as not overlayable)
    | Stack used          :  00000028


  ->Sub-tree of type: Indirectly called function tree that does not make
                    : indirect calls (Is not an interrupt and is not flagged
                    : as not overlayable)
                             CSTACK
    | Stack used (prev) :  00000000
  01  start_pass_huff_decoder
      | Stack used (prev) :  00000000
      | + function block  :  00000018
  <-Sub-tree of type: Indirectly called function tree that does not make
                    : indirect calls (Is not an interrupt and is not flagged
                    : as not overlayable)
    | Stack used          :  00000018


  ->Sub-tree of type: Indirectly called function tree that does not make
                    : indirect calls (Is not an interrupt and is not flagged
                    : as not overlayable)
                             CSTACK
    | Stack used (prev) :  00000000
  01  decode_mcu
      | Stack used (prev) :  00000000
      | + function block  :  00000054
  <-Sub-tree of type: Indirectly called function tree that does not make
                    : indirect calls (Is not an interrupt and is not flagged
                    : as not overlayable)
    | Stack used          :  00000054


  ->Sub-tree of type: Indirectly called function tree that does not make
                    : indirect calls (Is not an interrupt and is not flagged
                    : as not overlayable)
                             CSTACK
    | Stack used (prev) :  00000000
  01  start_input_pass
      | Stack used (prev) :  00000000
      | + function block  :  0000000C
  <-Sub-tree of type: Indirectly called function tree that does not make
                    : indirect calls (Is not an interrupt and is not flagged
                    : as not overlayable)
    | Stack used          :  0000000C


  ->Sub-tree of type: Indirectly called function tree that does not make
                    : indirect calls (Is not an interrupt and is not flagged
                    : as not overlayable)
                             CSTACK
    | Stack used (prev) :  00000000
  01  finish_input_pass
      | Stack used (prev) :  00000000
      | + function block  :  00000000
  <-Sub-tree of type: Indirectly called function tree that does not make
                    : indirect calls (Is not an interrupt and is not flagged
                    : as not overlayable)
    | Stack used          :  00000000


  ->Sub-tree of type: Indirectly called function tree that does not make
                    : indirect calls (Is not an interrupt and is not flagged
                    : as not overlayable)
                             CSTACK
    | Stack used (prev) :  00000000
  01  consume_markers
      | Stack used (prev) :  00000000
      | + function block  :  00000014
  <-Sub-tree of type: Indirectly called function tree that does not make
                    : indirect calls (Is not an interrupt and is not flagged
                    : as not overlayable)
    | Stack used          :  00000014


  ->Sub-tree of type: Indirectly called function tree that does not make
                    : indirect calls (Is not an interrupt and is not flagged
                    : as not overlayable)
                             CSTACK
    | Stack used (prev) :  00000000
  01  reset_input_controller
      | Stack used (prev) :  00000000
      | + function block  :  00000010
  <-Sub-tree of type: Indirectly called function tree that does not make
                    : indirect calls (Is not an interrupt and is not flagged
                    : as not overlayable)
    | Stack used          :  00000010


  ->Sub-tree of type: Indirectly called function tree that does not make
                    : indirect calls (Is not an interrupt and is not flagged
                    : as not overlayable)
                             CSTACK
    | Stack used (prev) :  00000000
  01  start_pass_main
      | Stack used (prev) :  00000000
      | + function block  :  0000000C
  <-Sub-tree of type: Indirectly called function tree that does not make
                    : indirect calls (Is not an interrupt and is not flagged
                    : as not overlayable)
    | Stack used          :  0000000C


  ->Sub-tree of type: Indirectly called function tree that does not make
                    : indirect calls (Is not an interrupt and is not flagged
                    : as not overlayable)
                             CSTACK
    | Stack used (prev) :  00000000
  01  process_data_simple_main
      | Stack used (prev) :  00000000
      | + function block  :  0000002C
  <-Sub-tree of type: Indirectly called function tree that does not make
                    : indirect calls (Is not an interrupt and is not flagged
                    : as not overlayable)
    | Stack used          :  0000002C


  ->Sub-tree of type: Indirectly called function tree that does not make
                    : indirect calls (Is not an interrupt and is not flagged
                    : as not overlayable)
                             CSTACK
    | Stack used (prev) :  00000000
  01  process_data_context_main
      | Stack used (prev) :  00000000
      | + function block  :  0000002C
  <-Sub-tree of type: Indirectly called function tree that does not make
                    : indirect calls (Is not an interrupt and is not flagged
                    : as not overlayable)
    | Stack used          :  0000002C


  ->Sub-tree of type: Indirectly called function tree that does not make
                    : indirect calls (Is not an interrupt and is not flagged
                    : as not overlayable)
                             CSTACK
    | Stack used (prev) :  00000000
  01  get_interesting_appn
      | Stack used (prev) :  00000000
      | + function block  :  00000030
  <-Sub-tree of type: Indirectly called function tree that does not make
                    : indirect calls (Is not an interrupt and is not flagged
                    : as not overlayable)
    | Stack used          :  00000030


  ->Sub-tree of type: Indirectly called function tree that does not make
                    : indirect calls (Is not an interrupt and is not flagged
                    : as not overlayable)
                             CSTACK
    | Stack used (prev) :  00000000
  01  skip_variable
      | Stack used (prev) :  00000000
      | + function block  :  00000018
  <-Sub-tree of type: Indirectly called function tree that does not make
                    : indirect calls (Is not an interrupt and is not flagged
                    : as not overlayable)
    | Stack used          :  00000018


  ->Sub-tree of type: Indirectly called function tree that does not make
                    : indirect calls (Is not an interrupt and is not flagged
                    : as not overlayable)
                             CSTACK
    | Stack used (prev) :  00000000
  01  read_markers
      | Stack used (prev) :  00000000
      | + function block  :  00000014
  <-Sub-tree of type: Indirectly called function tree that does not make
                    : indirect calls (Is not an interrupt and is not flagged
                    : as not overlayable)
    | Stack used          :  00000014


  ->Sub-tree of type: Indirectly called function tree that does not make
                    : indirect calls (Is not an interrupt and is not flagged
                    : as not overlayable)
                             CSTACK
    | Stack used (prev) :  00000000
  01  read_restart_marker
      | Stack used (prev) :  00000000
      | + function block  :  0000000C
  <-Sub-tree of type: Indirectly called function tree that does not make
                    : indirect calls (Is not an interrupt and is not flagged
                    : as not overlayable)
    | Stack used          :  0000000C


  ->Sub-tree of type: Indirectly called function tree that does not make
                    : indirect calls (Is not an interrupt and is not flagged
                    : as not overlayable)
                             CSTACK
    | Stack used (prev) :  00000000
  01  jpeg_resync_to_restart
      | Stack used (prev) :  00000000
      | + function block  :  00000014
  <-Sub-tree of type: Indirectly called function tree that does not make
                    : indirect calls (Is not an interrupt and is not flagged
                    : as not overlayable)
    | Stack used          :  00000014


  ->Sub-tree of type: Indirectly called function tree that does not make
                    : indirect calls (Is not an interrupt and is not flagged
                    : as not overlayable)
                             CSTACK
    | Stack used (prev) :  00000000
  01  reset_marker_reader
      | Stack used (prev) :  00000000
      | + function block  :  00000000
  <-Sub-tree of type: Indirectly called function tree that does not make
                    : indirect calls (Is not an interrupt and is not flagged
                    : as not overlayable)
    | Stack used          :  00000000


  ->Sub-tree of type: Indirectly called function tree that does not make
                    : indirect calls (Is not an interrupt and is not flagged
                    : as not overlayable)
                             CSTACK
    | Stack used (prev) :  00000000
  01  prepare_for_output_pass
      | Stack used (prev) :  00000000
      | + function block  :  00000014
  <-Sub-tree of type: Indirectly called function tree that does not make
                    : indirect calls (Is not an interrupt and is not flagged
                    : as not overlayable)
    | Stack used          :  00000014


  ->Sub-tree of type: Indirectly called function tree that does not make
                    : indirect calls (Is not an interrupt and is not flagged
                    : as not overlayable)
                             CSTACK
    | Stack used (prev) :  00000000
  01  finish_output_pass
      | Stack used (prev) :  00000000
      | + function block  :  00000008
  <-Sub-tree of type: Indirectly called function tree that does not make
                    : indirect calls (Is not an interrupt and is not flagged
                    : as not overlayable)
    | Stack used          :  00000008


  ->Sub-tree of type: Indirectly called function tree that does not make
                    : indirect calls (Is not an interrupt and is not flagged
                    : as not overlayable)
                             CSTACK
    | Stack used (prev) :  00000000
  01  start_pass_merged_upsample
      | Stack used (prev) :  00000000
      | + function block  :  00000000
  <-Sub-tree of type: Indirectly called function tree that does not make
                    : indirect calls (Is not an interrupt and is not flagged
                    : as not overlayable)
    | Stack used          :  00000000


  ->Sub-tree of type: Indirectly called function tree that does not make
                    : indirect calls (Is not an interrupt and is not flagged
                    : as not overlayable)
                             CSTACK
    | Stack used (prev) :  00000000
  01  merged_2v_upsample
      | Stack used (prev) :  00000000
      | + function block  :  00000030
  <-Sub-tree of type: Indirectly called function tree that does not make
                    : indirect calls (Is not an interrupt and is not flagged
                    : as not overlayable)
    | Stack used          :  00000030


  ->Sub-tree of type: Indirectly called function tree that does not make
                    : indirect calls (Is not an interrupt and is not flagged
                    : as not overlayable)
                             CSTACK
    | Stack used (prev) :  00000000
  01  merged_1v_upsample
      | Stack used (prev) :  00000000
      | + function block  :  00000014
  <-Sub-tree of type: Indirectly called function tree that does not make
                    : indirect calls (Is not an interrupt and is not flagged
                    : as not overlayable)
    | Stack used          :  00000014


  ->Sub-tree of type: Indirectly called function tree that does not make
                    : indirect calls (Is not an interrupt and is not flagged
                    : as not overlayable)
                             CSTACK
    | Stack used (prev) :  00000000
  01  h2v1_merged_upsample
      | Stack used (prev) :  00000000
      | + function block  :  0000003C
  <-Sub-tree of type: Indirectly called function tree that does not make
                    : indirect calls (Is not an interrupt and is not flagged
                    : as not overlayable)
    | Stack used          :  0000003C


  ->Sub-tree of type: Indirectly called function tree that does not make
                    : indirect calls (Is not an interrupt and is not flagged
                    : as not overlayable)
                             CSTACK
    | Stack used (prev) :  00000000
  01  h2v2_merged_upsample
      | Stack used (prev) :  00000000
      | + function block  :  00000040
  <-Sub-tree of type: Indirectly called function tree that does not make
                    : indirect calls (Is not an interrupt and is not flagged
                    : as not overlayable)
    | Stack used          :  00000040


  ->Sub-tree of type: Indirectly called function tree that does not make
                    : indirect calls (Is not an interrupt and is not flagged
                    : as not overlayable)
                             CSTACK
    | Stack used (prev) :  00000000
  01  start_pass_phuff_decoder
      | Stack used (prev) :  00000000
      | + function block  :  00000028
  <-Sub-tree of type: Indirectly called function tree that does not make
                    : indirect calls (Is not an interrupt and is not flagged
                    : as not overlayable)
    | Stack used          :  00000028


  ->Sub-tree of type: Indirectly called function tree that does not make
                    : indirect calls (Is not an interrupt and is not flagged
                    : as not overlayable)
                             CSTACK
    | Stack used (prev) :  00000000
  01  decode_mcu_DC_first
      | Stack used (prev) :  00000000
      | + function block  :  00000050
  <-Sub-tree of type: Indirectly called function tree that does not make
                    : indirect calls (Is not an interrupt and is not flagged
                    : as not overlayable)
    | Stack used          :  00000050


  ->Sub-tree of type: Indirectly called function tree that does not make
                    : indirect calls (Is not an interrupt and is not flagged
                    : as not overlayable)
                             CSTACK
    | Stack used (prev) :  00000000
  01  decode_mcu_AC_first
      | Stack used (prev) :  00000000
      | + function block  :  00000044
  <-Sub-tree of type: Indirectly called function tree that does not make
                    : indirect calls (Is not an interrupt and is not flagged
                    : as not overlayable)
    | Stack used          :  00000044


  ->Sub-tree of type: Indirectly called function tree that does not make
                    : indirect calls (Is not an interrupt and is not flagged
                    : as not overlayable)
                             CSTACK
    | Stack used (prev) :  00000000
  01  decode_mcu_DC_refine
      | Stack used (prev) :  00000000
      | + function block  :  00000030
  <-Sub-tree of type: Indirectly called function tree that does not make
                    : indirect calls (Is not an interrupt and is not flagged
                    : as not overlayable)
    | Stack used          :  00000030


  ->Sub-tree of type: Indirectly called function tree that does not make
                    : indirect calls (Is not an interrupt and is not flagged
                    : as not overlayable)
                             CSTACK
    | Stack used (prev) :  00000000
  01  decode_mcu_AC_refine
      | Stack used (prev) :  00000000
      | + function block  :  00000158
  <-Sub-tree of type: Indirectly called function tree that does not make
                    : indirect calls (Is not an interrupt and is not flagged
                    : as not overlayable)
    | Stack used          :  00000158


  ->Sub-tree of type: Indirectly called function tree that does not make
                    : indirect calls (Is not an interrupt and is not flagged
                    : as not overlayable)
                             CSTACK
    | Stack used (prev) :  00000000
  01  start_pass_dpost
      | Stack used (prev) :  00000000
      | + function block  :  00000010
  <-Sub-tree of type: Indirectly called function tree that does not make
                    : indirect calls (Is not an interrupt and is not flagged
                    : as not overlayable)
    | Stack used          :  00000010


  ->Sub-tree of type: Indirectly called function tree that does not make
                    : indirect calls (Is not an interrupt and is not flagged
                    : as not overlayable)
                             CSTACK
    | Stack used (prev) :  00000000
  01  post_process_1pass
      | Stack used (prev) :  00000000
      | + function block  :  0000002C
  <-Sub-tree of type: Indirectly called function tree that does not make
                    : indirect calls (Is not an interrupt and is not flagged
                    : as not overlayable)
    | Stack used          :  0000002C


  ->Sub-tree of type: Indirectly called function tree that does not make
                    : indirect calls (Is not an interrupt and is not flagged
                    : as not overlayable)
                             CSTACK
    | Stack used (prev) :  00000000
  01  start_pass_upsample
      | Stack used (prev) :  00000000
      | + function block  :  00000000
  <-Sub-tree of type: Indirectly called function tree that does not make
                    : indirect calls (Is not an interrupt and is not flagged
                    : as not overlayable)
    | Stack used          :  00000000


  ->Sub-tree of type: Indirectly called function tree that does not make
                    : indirect calls (Is not an interrupt and is not flagged
                    : as not overlayable)
                             CSTACK
    | Stack used (prev) :  00000000
  01  sep_upsample
      | Stack used (prev) :  00000000
      | + function block  :  0000002C
  <-Sub-tree of type: Indirectly called function tree that does not make
                    : indirect calls (Is not an interrupt and is not flagged
                    : as not overlayable)
    | Stack used          :  0000002C


  ->Sub-tree of type: Indirectly called function tree that does not make
                    : indirect calls (Is not an interrupt and is not flagged
                    : as not overlayable)
                             CSTACK
    | Stack used (prev) :  00000000
  01  fullsize_upsample
      | Stack used (prev) :  00000000
      | + function block  :  00000000
  <-Sub-tree of type: Indirectly called function tree that does not make
                    : indirect calls (Is not an interrupt and is not flagged
                    : as not overlayable)
    | Stack used          :  00000000


  ->Sub-tree of type: Indirectly called function tree that does not make
                    : indirect calls (Is not an interrupt and is not flagged
                    : as not overlayable)
                             CSTACK
    | Stack used (prev) :  00000000
  01  noop_upsample
      | Stack used (prev) :  00000000
      | + function block  :  00000000
  <-Sub-tree of type: Indirectly called function tree that does not make
                    : indirect calls (Is not an interrupt and is not flagged
                    : as not overlayable)
    | Stack used          :  00000000


  ->Sub-tree of type: Indirectly called function tree that does not make
                    : indirect calls (Is not an interrupt and is not flagged
                    : as not overlayable)
                             CSTACK
    | Stack used (prev) :  00000000
  01  int_upsample
      | Stack used (prev) :  00000000
      | + function block  :  00000030
  <-Sub-tree of type: Indirectly called function tree that does not make
                    : indirect calls (Is not an interrupt and is not flagged
                    : as not overlayable)
    | Stack used          :  00000030


  ->Sub-tree of type: Indirectly called function tree that does not make
                    : indirect calls (Is not an interrupt and is not flagged
                    : as not overlayable)
                             CSTACK
    | Stack used (prev) :  00000000
  01  h2v1_upsample
      | Stack used (prev) :  00000000
      | + function block  :  00000018
  <-Sub-tree of type: Indirectly called function tree that does not make
                    : indirect calls (Is not an interrupt and is not flagged
                    : as not overlayable)
    | Stack used          :  00000018


  ->Sub-tree of type: Indirectly called function tree that does not make
                    : indirect calls (Is not an interrupt and is not flagged
                    : as not overlayable)
                             CSTACK
    | Stack used (prev) :  00000000
  01  h2v2_upsample
      | Stack used (prev) :  00000000
      | + function block  :  00000024
  <-Sub-tree of type: Indirectly called function tree that does not make
                    : indirect calls (Is not an interrupt and is not flagged
                    : as not overlayable)
    | Stack used          :  00000024


  ->Sub-tree of type: Indirectly called function tree that does not make
                    : indirect calls (Is not an interrupt and is not flagged
                    : as not overlayable)
                             CSTACK
    | Stack used (prev) :  00000000
  01  h2v1_fancy_upsample
      | Stack used (prev) :  00000000
      | + function block  :  0000001C
  <-Sub-tree of type: Indirectly called function tree that does not make
                    : indirect calls (Is not an interrupt and is not flagged
                    : as not overlayable)
    | Stack used          :  0000001C


  ->Sub-tree of type: Indirectly called function tree that does not make
                    : indirect calls (Is not an interrupt and is not flagged
                    : as not overlayable)
                             CSTACK
    | Stack used (prev) :  00000000
  01  h2v2_fancy_upsample
      | Stack used (prev) :  00000000
      | + function block  :  00000038
  <-Sub-tree of type: Indirectly called function tree that does not make
                    : indirect calls (Is not an interrupt and is not flagged
                    : as not overlayable)
    | Stack used          :  00000038


  ->Sub-tree of type: Indirectly called function tree that does not make
                    : indirect calls (Is not an interrupt and is not flagged
                    : as not overlayable)
                             CSTACK
    | Stack used (prev) :  00000000
  01  error_exit
      | Stack used (prev) :  00000000
      | + function block  :  00000008
  <-Sub-tree of type: Indirectly called function tree that does not make
                    : indirect calls (Is not an interrupt and is not flagged
                    : as not overlayable)
    | Stack used          :  00000008


  ->Sub-tree of type: Indirectly called function tree that does not make
                    : indirect calls (Is not an interrupt and is not flagged
                    : as not overlayable)
                             CSTACK
    | Stack used (prev) :  00000000
  01  output_message
      | Stack used (prev) :  00000000
      | + function block  :  00000000
  <-Sub-tree of type: Indirectly called function tree that does not make
                    : indirect calls (Is not an interrupt and is not flagged
                    : as not overlayable)
    | Stack used          :  00000000


  ->Sub-tree of type: Indirectly called function tree that does not make
                    : indirect calls (Is not an interrupt and is not flagged
                    : as not overlayable)
                             CSTACK
    | Stack used (prev) :  00000000
  01  emit_message
      | Stack used (prev) :  00000000
      | + function block  :  00000008
  <-Sub-tree of type: Indirectly called function tree that does not make
                    : indirect calls (Is not an interrupt and is not flagged
                    : as not overlayable)
    | Stack used          :  00000008


  ->Sub-tree of type: Indirectly called function tree that does not make
                    : indirect calls (Is not an interrupt and is not flagged
                    : as not overlayable)
                             CSTACK
    | Stack used (prev) :  00000000
  01  format_message
      | Stack used (prev) :  00000000
      | + function block  :  00000000
  <-Sub-tree of type: Indirectly called function tree that does not make
                    : indirect calls (Is not an interrupt and is not flagged
                    : as not overlayable)
    | Stack used          :  00000000


  ->Sub-tree of type: Indirectly called function tree that does not make
                    : indirect calls (Is not an interrupt and is not flagged
                    : as not overlayable)
                             CSTACK
    | Stack used (prev) :  00000000
  01  reset_error_mgr
      | Stack used (prev) :  00000000
      | + function block  :  00000000
  <-Sub-tree of type: Indirectly called function tree that does not make
                    : indirect calls (Is not an interrupt and is not flagged
                    : as not overlayable)
    | Stack used          :  00000000


  ->Sub-tree of type: Indirectly called function tree that does not make
                    : indirect calls (Is not an interrupt and is not flagged
                    : as not overlayable)
                             CSTACK
    | Stack used (prev) :  00000000
  01  jpeg_idct_ifast
      | Stack used (prev) :  00000000
      | + function block  :  0000013C
  <-Sub-tree of type: Indirectly called function tree that does not make
                    : indirect calls (Is not an interrupt and is not flagged
                    : as not overlayable)
    | Stack used          :  0000013C


  ->Sub-tree of type: Indirectly called function tree that does not make
                    : indirect calls (Is not an interrupt and is not flagged
                    : as not overlayable)
                             CSTACK
    | Stack used (prev) :  00000000
  01  jpeg_idct_islow
      | Stack used (prev) :  00000000
      | + function block  :  00000154
  <-Sub-tree of type: Indirectly called function tree that does not make
                    : indirect calls (Is not an interrupt and is not flagged
                    : as not overlayable)
    | Stack used          :  00000154


  ->Sub-tree of type: Indirectly called function tree that does not make
                    : indirect calls (Is not an interrupt and is not flagged
                    : as not overlayable)
                             CSTACK
    | Stack used (prev) :  00000000
  01  jpeg_idct_4x4
      | Stack used (prev) :  00000000
      | + function block  :  000000B0
  <-Sub-tree of type: Indirectly called function tree that does not make
                    : indirect calls (Is not an interrupt and is not flagged
                    : as not overlayable)
    | Stack used          :  000000B0


  ->Sub-tree of type: Indirectly called function tree that does not make
                    : indirect calls (Is not an interrupt and is not flagged
                    : as not overlayable)
                             CSTACK
    | Stack used (prev) :  00000000
  01  jpeg_idct_2x2
      | Stack used (prev) :  00000000
      | + function block  :  0000005C
  <-Sub-tree of type: Indirectly called function tree that does not make
                    : indirect calls (Is not an interrupt and is not flagged
                    : as not overlayable)
    | Stack used          :  0000005C


  ->Sub-tree of type: Indirectly called function tree that does not make
                    : indirect calls (Is not an interrupt and is not flagged
                    : as not overlayable)
                             CSTACK
    | Stack used (prev) :  00000000
  01  jpeg_idct_1x1
      | Stack used (prev) :  00000000
      | + function block  :  00000008
  <-Sub-tree of type: Indirectly called function tree that does not make
                    : indirect calls (Is not an interrupt and is not flagged
                    : as not overlayable)
    | Stack used          :  00000008


  ->Sub-tree of type: Indirectly called function tree that does not make
                    : indirect calls (Is not an interrupt and is not flagged
                    : as not overlayable)
                             CSTACK
    | Stack used (prev) :  00000000
  01  read_backing_store
      | Stack used (prev) :  00000000
      | + function block  :  0000001C
  <-Sub-tree of type: Indirectly called function tree that does not make
                    : indirect calls (Is not an interrupt and is not flagged
                    : as not overlayable)
    | Stack used          :  0000001C


  ->Sub-tree of type: Indirectly called function tree that does not make
                    : indirect calls (Is not an interrupt and is not flagged
                    : as not overlayable)
                             CSTACK
    | Stack used (prev) :  00000000
  01  write_backing_store
      | Stack used (prev) :  00000000
      | + function block  :  0000001C
  <-Sub-tree of type: Indirectly called function tree that does not make
                    : indirect calls (Is not an interrupt and is not flagged
                    : as not overlayable)
    | Stack used          :  0000001C


  ->Sub-tree of type: Indirectly called function tree that does not make
                    : indirect calls (Is not an interrupt and is not flagged
                    : as not overlayable)
                             CSTACK
    | Stack used (prev) :  00000000
  01  close_backing_store
      | Stack used (prev) :  00000000
      | + function block  :  00000008
  <-Sub-tree of type: Indirectly called function tree that does not make
                    : indirect calls (Is not an interrupt and is not flagged
                    : as not overlayable)
    | Stack used          :  00000008


  ->Sub-tree of type: Indirectly called function tree that does not make
                    : indirect calls (Is not an interrupt and is not flagged
                    : as not overlayable)
                             CSTACK
    | Stack used (prev) :  00000000
  01  alloc_small
      | Stack used (prev) :  00000000
      | + function block  :  00000020
  <-Sub-tree of type: Indirectly called function tree that does not make
                    : indirect calls (Is not an interrupt and is not flagged
                    : as not overlayable)
    | Stack used          :  00000020


  ->Sub-tree of type: Indirectly called function tree that does not make
                    : indirect calls (Is not an interrupt and is not flagged
                    : as not overlayable)
                             CSTACK
    | Stack used (prev) :  00000000
  01  alloc_large
      | Stack used (prev) :  00000000
      | + function block  :  00000018
  <-Sub-tree of type: Indirectly called function tree that does not make
                    : indirect calls (Is not an interrupt and is not flagged
                    : as not overlayable)
    | Stack used          :  00000018


  ->Sub-tree of type: Indirectly called function tree that does not make
                    : indirect calls (Is not an interrupt and is not flagged
                    : as not overlayable)
                             CSTACK
    | Stack used (prev) :  00000000
  01  alloc_sarray
      | Stack used (prev) :  00000000
      | + function block  :  00000020
  <-Sub-tree of type: Indirectly called function tree that does not make
                    : indirect calls (Is not an interrupt and is not flagged
                    : as not overlayable)
    | Stack used          :  00000020


  ->Sub-tree of type: Indirectly called function tree that does not make
                    : indirect calls (Is not an interrupt and is not flagged
                    : as not overlayable)
                             CSTACK
    | Stack used (prev) :  00000000
  01  alloc_barray
      | Stack used (prev) :  00000000
      | + function block  :  00000020
  <-Sub-tree of type: Indirectly called function tree that does not make
                    : indirect calls (Is not an interrupt and is not flagged
                    : as not overlayable)
    | Stack used          :  00000020


  ->Sub-tree of type: Indirectly called function tree that does not make
                    : indirect calls (Is not an interrupt and is not flagged
                    : as not overlayable)
                             CSTACK
    | Stack used (prev) :  00000000
  01  request_virt_sarray
      | Stack used (prev) :  00000000
      | + function block  :  0000001C
  <-Sub-tree of type: Indirectly called function tree that does not make
                    : indirect calls (Is not an interrupt and is not flagged
                    : as not overlayable)
    | Stack used          :  0000001C


  ->Sub-tree of type: Indirectly called function tree that does not make
                    : indirect calls (Is not an interrupt and is not flagged
                    : as not overlayable)
                             CSTACK
    | Stack used (prev) :  00000000
  01  request_virt_barray
      | Stack used (prev) :  00000000
      | + function block  :  0000001C
  <-Sub-tree of type: Indirectly called function tree that does not make
                    : indirect calls (Is not an interrupt and is not flagged
                    : as not overlayable)
    | Stack used          :  0000001C


  ->Sub-tree of type: Indirectly called function tree that does not make
                    : indirect calls (Is not an interrupt and is not flagged
                    : as not overlayable)
                             CSTACK
    | Stack used (prev) :  00000000
  01  realize_virt_arrays
      | Stack used (prev) :  00000000
      | + function block  :  0000001C
  <-Sub-tree of type: Indirectly called function tree that does not make
                    : indirect calls (Is not an interrupt and is not flagged
                    : as not overlayable)
    | Stack used          :  0000001C


  ->Sub-tree of type: Indirectly called function tree that does not make
                    : indirect calls (Is not an interrupt and is not flagged
                    : as not overlayable)
                             CSTACK
    | Stack used (prev) :  00000000
  01  access_virt_sarray
      | Stack used (prev) :  00000000
      | + function block  :  00000020
  <-Sub-tree of type: Indirectly called function tree that does not make
                    : indirect calls (Is not an interrupt and is not flagged
                    : as not overlayable)
    | Stack used          :  00000020


  ->Sub-tree of type: Indirectly called function tree that does not make
                    : indirect calls (Is not an interrupt and is not flagged
                    : as not overlayable)
                             CSTACK
    | Stack used (prev) :  00000000
  01  access_virt_barray
      | Stack used (prev) :  00000000
      | + function block  :  00000020
  <-Sub-tree of type: Indirectly called function tree that does not make
                    : indirect calls (Is not an interrupt and is not flagged
                    : as not overlayable)
    | Stack used          :  00000020


  ->Sub-tree of type: Indirectly called function tree that does not make
                    : indirect calls (Is not an interrupt and is not flagged
                    : as not overlayable)
                             CSTACK
    | Stack used (prev) :  00000000
  01  free_pool
      | Stack used (prev) :  00000000
      | + function block  :  00000018
  <-Sub-tree of type: Indirectly called function tree that does not make
                    : indirect calls (Is not an interrupt and is not flagged
                    : as not overlayable)
    | Stack used          :  00000018


  ->Sub-tree of type: Indirectly called function tree that does not make
                    : indirect calls (Is not an interrupt and is not flagged
                    : as not overlayable)
                             CSTACK
    | Stack used (prev) :  00000000
  01  self_destruct
      | Stack used (prev) :  00000000
      | + function block  :  0000000C
  <-Sub-tree of type: Indirectly called function tree that does not make
                    : indirect calls (Is not an interrupt and is not flagged
                    : as not overlayable)
    | Stack used          :  0000000C


  ->Sub-tree of type: Function tree
                             CSTACK
    | Stack used (prev) :  00000158
  01  drawim
      | Stack used (prev) :  00000158
      | + function block  :  000000BC
  <-Sub-tree of type: Function tree
    | Stack used          :  00000214


  ->Sub-tree of type: Function tree
                             CSTACK
    | Stack used (prev) :  00000214
  01  onredraw
      | Stack used (prev) :  00000214
      | + function block  :  00000004
  <-Sub-tree of type: Function tree
    | Stack used          :  00000218


  ->Sub-tree of type: Function tree
                             CSTACK
    | Stack used (prev) :  00000218
  01  odraw
      | Stack used (prev) :  00000218
      | + function block  :  00000038
  <-Sub-tree of type: Function tree
    | Stack used          :  00000250


  ->Sub-tree of type: Function tree
                             CSTACK
    | Stack used (prev) :  00000250
  01  onkey
      | Stack used (prev) :  00000250
      | + function block  :  0000000C
  <-Sub-tree of type: Function tree
    | Stack used          :  0000025C


  ->Sub-tree of type: Function tree
                             CSTACK
    | Stack used (prev) :  0000025C
  01  onclose
      | Stack used (prev) :  0000025C
      | + function block  :  00000000
  <-Sub-tree of type: Function tree
    | Stack used          :  0000025C


  ->Sub-tree of type: Function tree
                             CSTACK
    | Stack used (prev) :  0000025C
  01  onexit
      | Stack used (prev) :  0000025C
      | + function block  :  00000000
  <-Sub-tree of type: Function tree
    | Stack used          :  0000025C


  ->Sub-tree of type: Function tree
                             CSTACK
    | Stack used (prev) :  0000025C
  01  oncreate
      | Stack used (prev) :  0000025C
      | + function block  :  00000000
  <-Sub-tree of type: Function tree
    | Stack used          :  0000025C


  ->Sub-tree of type: Function tree
                             CSTACK
    | Stack used (prev) :  0000025C
  01  onstart
      | Stack used (prev) :  0000025C
      | + function block  :  00000008
  <-Sub-tree of type: Function tree
    | Stack used          :  00000264


  ->Sub-tree of type: Function tree
                             CSTACK
    | Stack used (prev) :  00000264
  01  cls
      | Stack used (prev) :  00000264
      | + function block  :  00000004
  <-Sub-tree of type: Function tree
    | Stack used          :  00000268


  ->Sub-tree of type: Function tree
                             CSTACK
    | Stack used (prev) :  00000268
  01  DrawScreen
      | Stack used (prev) :  00000268
      | + function block  :  00000038
  <-Sub-tree of type: Function tree
    | Stack used          :  000002A0


  ->Sub-tree of type: Function tree
                             CSTACK
    | Stack used (prev) :  000002A0
  01  main
      | Stack used (prev) :  000002A0
      | + function block  :  000000C8
  <-Sub-tree of type: Function tree
    | Stack used          :  00000368


  ->Sub-tree of type: Function tree
                             CSTACK
    | Stack used (prev) :  00000368
  01  UpdateCSMname
      | Stack used (prev) :  00000368
      | + function block  :  00000004
  <-Sub-tree of type: Function tree
    | Stack used          :  0000036C


  ->Sub-tree of type: Function tree
                             CSTACK
    | Stack used (prev) :  0000036C
  01  read_jpgimg
      | Stack used (prev) :  0000036C
      | + function block  :  0000029C
  <-Sub-tree of type: Function tree
    | Stack used          :  00000608


  ->Sub-tree of type: Function tree
                             CSTACK
    | Stack used (prev) :  00000608
  01  isfile
      | Stack used (prev) :  00000608
      | + function block  :  0000000C
  <-Sub-tree of type: Function tree
    | Stack used          :  00000614


  ->Sub-tree of type: Function tree
                             CSTACK
    | Stack used (prev) :  00000614
  01  jpeg_abort
      | Stack used (prev) :  00000614
      | + function block  :  0000000C
  <-Sub-tree of type: Function tree
    | Stack used          :  00000620


  ->Sub-tree of type: Function tree
                             CSTACK
    | Stack used (prev) :  00000620
  01  jpeg_destroy
      | Stack used (prev) :  00000620
      | + function block  :  00000008
  <-Sub-tree of type: Function tree
    | Stack used          :  00000628


  ->Sub-tree of type: Function tree
                             CSTACK
    | Stack used (prev) :  00000628
  01  jpeg_alloc_quant_table
      | Stack used (prev) :  00000628
      | + function block  :  00000004
  <-Sub-tree of type: Function tree
    | Stack used          :  0000062C


  ->Sub-tree of type: Function tree
                             CSTACK
    | Stack used (prev) :  0000062C
  01  jpeg_alloc_huff_table
      | Stack used (prev) :  0000062C
      | + function block  :  00000004
  <-Sub-tree of type: Function tree
    | Stack used          :  00000630


  ->Sub-tree of type: Function tree
                             CSTACK
    | Stack used (prev) :  00000630
  01  jpeg_CreateDecompress
      | Stack used (prev) :  00000630
      | + function block  :  00000018
  <-Sub-tree of type: Function tree
    | Stack used          :  00000648


  ->Sub-tree of type: Function tree
                             CSTACK
    | Stack used (prev) :  00000648
  01  jpeg_destroy_decompress
      | Stack used (prev) :  00000648
      | + function block  :  00000004
  <-Sub-tree of type: Function tree
    | Stack used          :  0000064C


  ->Sub-tree of type: Function tree
                             CSTACK
    | Stack used (prev) :  0000064C
  01  default_decompress_parms
      | Stack used (prev) :  0000064C
      | + function block  :  00000014
  <-Sub-tree of type: Function tree
    | Stack used          :  00000660


  ->Sub-tree of type: Function tree
                             CSTACK
    | Stack used (prev) :  00000660
  01  jpeg_read_header
      | Stack used (prev) :  00000660
      | + function block  :  0000000C
  <-Sub-tree of type: Function tree
    | Stack used          :  0000066C


  ->Sub-tree of type: Function tree
                             CSTACK
    | Stack used (prev) :  0000066C
  01  jpeg_consume_input
      | Stack used (prev) :  0000066C
      | + function block  :  00000010
  <-Sub-tree of type: Function tree
    | Stack used          :  0000067C


  ->Sub-tree of type: Function tree
                             CSTACK
    | Stack used (prev) :  0000067C
  01  jpeg_finish_decompress
      | Stack used (prev) :  0000067C
      | + function block  :  0000000C
  <-Sub-tree of type: Function tree
    | Stack used          :  00000688


  ->Sub-tree of type: Function tree
                             CSTACK
    | Stack used (prev) :  00000688
  01  jpeg_start_decompress
      | Stack used (prev) :  00000688
      | + function block  :  0000000C
  <-Sub-tree of type: Function tree
    | Stack used          :  00000694


  ->Sub-tree of type: Function tree
                             CSTACK
    | Stack used (prev) :  00000694
  01  output_pass_setup
      | Stack used (prev) :  00000694
      | + function block  :  0000000C
  <-Sub-tree of type: Function tree
    | Stack used          :  000006A0


  ->Sub-tree of type: Function tree
                             CSTACK
    | Stack used (prev) :  000006A0
  01  jpeg_read_scanlines
      | Stack used (prev) :  000006A0
      | + function block  :  00000018
  <-Sub-tree of type: Function tree
    | Stack used          :  000006B8


  ->Sub-tree of type: Function tree
                             CSTACK
    | Stack used (prev) :  000006B8
  01  jpeg_stdio_src
      | Stack used (prev) :  000006B8
      | + function block  :  0000000C
  <-Sub-tree of type: Function tree
    | Stack used          :  000006C4


  ->Sub-tree of type: Function tree
                             CSTACK
    | Stack used (prev) :  000006C4
  01  start_iMCU_row
      | Stack used (prev) :  000006C4
      | + function block  :  00000004
  <-Sub-tree of type: Function tree
    | Stack used          :  000006C8


  ->Sub-tree of type: Function tree
                             CSTACK
    | Stack used (prev) :  000006C8
  01  smoothing_ok
      | Stack used (prev) :  000006C8
      | + function block  :  00000020
  <-Sub-tree of type: Function tree
    | Stack used          :  000006E8


  ->Sub-tree of type: Function tree
                             CSTACK
    | Stack used (prev) :  000006E8
  01  jinit_d_coef_controller
      | Stack used (prev) :  000006E8
      | + function block  :  0000002C
  <-Sub-tree of type: Function tree
    | Stack used          :  00000714


  ->Sub-tree of type: Function tree
                             CSTACK
    | Stack used (prev) :  00000714
  01  build_ycc_rgb_table
      | Stack used (prev) :  00000714
      | + function block  :  00000010
  <-Sub-tree of type: Function tree
    | Stack used          :  00000724


  ->Sub-tree of type: Function tree
                             CSTACK
    | Stack used (prev) :  00000724
  01  jinit_color_deconverter
      | Stack used (prev) :  00000724
      | + function block  :  00000014
  <-Sub-tree of type: Function tree
    | Stack used          :  00000738


  ->Sub-tree of type: Function tree
                             CSTACK
    | Stack used (prev) :  00000738
  01  jinit_inverse_dct
      | Stack used (prev) :  00000738
      | + function block  :  0000001C
  <-Sub-tree of type: Function tree
    | Stack used          :  00000754


  ->Sub-tree of type: Function tree
                             CSTACK
    | Stack used (prev) :  00000754
  01  jpeg_make_d_derived_tbl
      | Stack used (prev) :  00000754
      | + function block  :  00000530
  <-Sub-tree of type: Function tree
    | Stack used          :  00000C84


  ->Sub-tree of type: Function tree
                             CSTACK
    | Stack used (prev) :  00000C84
  01  jpeg_fill_bit_buffer
      | Stack used (prev) :  00000C84
      | + function block  :  00000024
  <-Sub-tree of type: Function tree
    | Stack used          :  00000CA8


  ->Sub-tree of type: Function tree
                             CSTACK
    | Stack used (prev) :  00000CA8
  01  jpeg_huff_decode
      | Stack used (prev) :  00000CA8
      | + function block  :  00000014
  <-Sub-tree of type: Function tree
    | Stack used          :  00000CBC


  ->Sub-tree of type: Function tree
                             CSTACK
    | Stack used (prev) :  00000CBC
  01  jinit_huff_decoder
      | Stack used (prev) :  00000CBC
      | + function block  :  0000000C
  <-Sub-tree of type: Function tree
    | Stack used          :  00000CC8


  ->Sub-tree of type: Function tree
                             CSTACK
    | Stack used (prev) :  00000CC8
  01  initial_setup
      | Stack used (prev) :  00000CC8
      | + function block  :  00000014
  <-Sub-tree of type: Function tree
    | Stack used          :  00000CDC


  ->Sub-tree of type: Function tree
                             CSTACK
    | Stack used (prev) :  00000CDC
  01  per_scan_setup
      | Stack used (prev) :  00000CDC
      | + function block  :  00000018
  <-Sub-tree of type: Function tree
    | Stack used          :  00000CF4


  ->Sub-tree of type: Function tree
                             CSTACK
    | Stack used (prev) :  00000CF4
  01  latch_quant_tables
      | Stack used (prev) :  00000CF4
      | + function block  :  00000018
  <-Sub-tree of type: Function tree
    | Stack used          :  00000D0C


  ->Sub-tree of type: Function tree
                             CSTACK
    | Stack used (prev) :  00000D0C
  01  jinit_input_controller
      | Stack used (prev) :  00000D0C
      | + function block  :  00000008
  <-Sub-tree of type: Function tree
    | Stack used          :  00000D14


  ->Sub-tree of type: Function tree
                             CSTACK
    | Stack used (prev) :  00000D14
  01  alloc_funny_pointers
      | Stack used (prev) :  00000D14
      | + function block  :  00000028
  <-Sub-tree of type: Function tree
    | Stack used          :  00000D3C


  ->Sub-tree of type: Function tree
                             CSTACK
    | Stack used (prev) :  00000D3C
  01  make_funny_pointers
      | Stack used (prev) :  00000D3C
      | + function block  :  00000030
  <-Sub-tree of type: Function tree
    | Stack used          :  00000D6C


  ->Sub-tree of type: Function tree
                             CSTACK
    | Stack used (prev) :  00000D6C
  01  set_wraparound_pointers
      | Stack used (prev) :  00000D6C
      | + function block  :  00000028
  <-Sub-tree of type: Function tree
    | Stack used          :  00000D94


  ->Sub-tree of type: Function tree
                             CSTACK
    | Stack used (prev) :  00000D94
  01  set_bottom_pointers
      | Stack used (prev) :  00000D94
      | + function block  :  00000020
  <-Sub-tree of type: Function tree
    | Stack used          :  00000DB4


  ->Sub-tree of type: Function tree
                             CSTACK
    | Stack used (prev) :  00000DB4
  01  jinit_d_main_controller
      | Stack used (prev) :  00000DB4
      | + function block  :  0000001C
  <-Sub-tree of type: Function tree
    | Stack used          :  00000DD0


  ->Sub-tree of type: Function tree
                             CSTACK
    | Stack used (prev) :  00000DD0
  01  get_soi
      | Stack used (prev) :  00000DD0
      | + function block  :  00000014
  <-Sub-tree of type: Function tree
    | Stack used          :  00000DE4


  ->Sub-tree of type: Function tree
                             CSTACK
    | Stack used (prev) :  00000DE4
  01  get_sof
      | Stack used (prev) :  00000DE4
      | + function block  :  0000001C
  <-Sub-tree of type: Function tree
    | Stack used          :  00000E00


  ->Sub-tree of type: Function tree
                             CSTACK
    | Stack used (prev) :  00000E00
  01  get_sos
      | Stack used (prev) :  00000E00
      | + function block  :  00000028
  <-Sub-tree of type: Function tree
    | Stack used          :  00000E28


  ->Sub-tree of type: Function tree
                             CSTACK
    | Stack used (prev) :  00000E28
  01  get_dht
      | Stack used (prev) :  00000E28
      | + function block  :  00000138
  <-Sub-tree of type: Function tree
    | Stack used          :  00000F60


  ->Sub-tree of type: Function tree
                             CSTACK
    | Stack used (prev) :  00000F60
  01  get_dqt
      | Stack used (prev) :  00000F60
      | + function block  :  00000028
  <-Sub-tree of type: Function tree
    | Stack used          :  00000F88


  ->Sub-tree of type: Function tree
                             CSTACK
    | Stack used (prev) :  00000F88
  01  get_dri
      | Stack used (prev) :  00000F88
      | + function block  :  00000018
  <-Sub-tree of type: Function tree
    | Stack used          :  00000FA0


  ->Sub-tree of type: Function tree
                             CSTACK
    | Stack used (prev) :  00000FA0
  01  examine_app0
      | Stack used (prev) :  00000FA0
      | + function block  :  00000014
  <-Sub-tree of type: Function tree
    | Stack used          :  00000FB4


  ->Sub-tree of type: Function tree
                             CSTACK
    | Stack used (prev) :  00000FB4
  01  examine_app14
      | Stack used (prev) :  00000FB4
      | + function block  :  00000010
  <-Sub-tree of type: Function tree
    | Stack used          :  00000FC4


  ->Sub-tree of type: Function tree
                             CSTACK
    | Stack used (prev) :  00000FC4
  01  next_marker
      | Stack used (prev) :  00000FC4
      | + function block  :  0000001C
  <-Sub-tree of type: Function tree
    | Stack used          :  00000FE0


  ->Sub-tree of type: Function tree
                             CSTACK
    | Stack used (prev) :  00000FE0
  01  first_marker
      | Stack used (prev) :  00000FE0
      | + function block  :  0000001C
  <-Sub-tree of type: Function tree
    | Stack used          :  00000FFC


  ->Sub-tree of type: Function tree
                             CSTACK
    | Stack used (prev) :  00000FFC
  01  jinit_marker_reader
      | Stack used (prev) :  00000FFC
      | + function block  :  00000010
  <-Sub-tree of type: Function tree
    | Stack used          :  0000100C


  ->Sub-tree of type: Function tree
                             CSTACK
    | Stack used (prev) :  0000100C
  01  use_merged_upsample
      | Stack used (prev) :  0000100C
      | + function block  :  00000004
  <-Sub-tree of type: Function tree
    | Stack used          :  00001010


  ->Sub-tree of type: Function tree
                             CSTACK
    | Stack used (prev) :  00001010
  01  jpeg_calc_output_dimensions
      | Stack used (prev) :  00001010
      | + function block  :  00000014
  <-Sub-tree of type: Function tree
    | Stack used          :  00001024


  ->Sub-tree of type: Function tree
                             CSTACK
    | Stack used (prev) :  00001024
  01  prepare_range_limit_table
      | Stack used (prev) :  00001024
      | + function block  :  00000010
  <-Sub-tree of type: Function tree
    | Stack used          :  00001034


  ->Sub-tree of type: Function tree
                             CSTACK
    | Stack used (prev) :  00001034
  01  master_selection
      | Stack used (prev) :  00001034
      | + function block  :  00000014
  <-Sub-tree of type: Function tree
    | Stack used          :  00001048


  ->Sub-tree of type: Function tree
                             CSTACK
    | Stack used (prev) :  00001048
  01  jinit_master_decompress
      | Stack used (prev) :  00001048
      | + function block  :  00000008
  <-Sub-tree of type: Function tree
    | Stack used          :  00001050


  ->Sub-tree of type: Function tree
                             CSTACK
    | Stack used (prev) :  00001050
  01  build_ycc_rgb_table
      | Stack used (prev) :  00001050
      | + function block  :  00000010
  <-Sub-tree of type: Function tree
    | Stack used          :  00001060


  ->Sub-tree of type: Function tree
                             CSTACK
    | Stack used (prev) :  00001060
  01  jinit_merged_upsampler
      | Stack used (prev) :  00001060
      | + function block  :  00000010
  <-Sub-tree of type: Function tree
    | Stack used          :  00001070


  ->Sub-tree of type: Function tree
                             CSTACK
    | Stack used (prev) :  00001070
  01  process_restart
      | Stack used (prev) :  00001070
      | + function block  :  00000014
  <-Sub-tree of type: Function tree
    | Stack used          :  00001084


  ->Sub-tree of type: Function tree
                             CSTACK
    | Stack used (prev) :  00001084
  01  jinit_phuff_decoder
      | Stack used (prev) :  00001084
      | + function block  :  00000014
  <-Sub-tree of type: Function tree
    | Stack used          :  00001098


  ->Sub-tree of type: Function tree
                             CSTACK
    | Stack used (prev) :  00001098
  01  jinit_d_post_controller
      | Stack used (prev) :  00001098
      | + function block  :  00000010
  <-Sub-tree of type: Function tree
    | Stack used          :  000010A8


  ->Sub-tree of type: Function tree
                             CSTACK
    | Stack used (prev) :  000010A8
  01  jinit_upsampler
      | Stack used (prev) :  000010A8
      | + function block  :  00000028
  <-Sub-tree of type: Function tree
    | Stack used          :  000010D0


  ->Sub-tree of type: Function tree
                             CSTACK
    | Stack used (prev) :  000010D0
  01  jpeg_std_error
      | Stack used (prev) :  000010D0
      | + function block  :  00000000
  <-Sub-tree of type: Function tree
    | Stack used          :  000010D0


  ->Sub-tree of type: Function tree
                             CSTACK
    | Stack used (prev) :  000010D0
  01  jpeg_get_small
      | Stack used (prev) :  000010D0
      | + function block  :  00000004
  <-Sub-tree of type: Function tree
    | Stack used          :  000010D4


  ->Sub-tree of type: Function tree
                             CSTACK
    | Stack used (prev) :  000010D4
  01  jpeg_free_small
      | Stack used (prev) :  000010D4
      | + function block  :  00000004
  <-Sub-tree of type: Function tree
    | Stack used          :  000010D8


  ->Sub-tree of type: Function tree
                             CSTACK
    | Stack used (prev) :  000010D8
  01  jpeg_get_large
      | Stack used (prev) :  000010D8
      | + function block  :  00000004
  <-Sub-tree of type: Function tree
    | Stack used          :  000010DC


  ->Sub-tree of type: Function tree
                             CSTACK
    | Stack used (prev) :  000010DC
  01  jpeg_free_large
      | Stack used (prev) :  000010DC
      | + function block  :  00000004
  <-Sub-tree of type: Function tree
    | Stack used          :  000010E0


  ->Sub-tree of type: Function tree
                             CSTACK
    | Stack used (prev) :  000010E0
  01  jpeg_mem_available
      | Stack used (prev) :  000010E0
      | + function block  :  00000000
  <-Sub-tree of type: Function tree
    | Stack used          :  000010E0


  ->Sub-tree of type: Function tree
                             CSTACK
    | Stack used (prev) :  000010E0
  01  jpeg_open_backing_store
      | Stack used (prev) :  000010E0
      | + function block  :  0000000C
  <-Sub-tree of type: Function tree
    | Stack used          :  000010EC


  ->Sub-tree of type: Function tree
                             CSTACK
    | Stack used (prev) :  000010EC
  01  jpeg_mem_init
      | Stack used (prev) :  000010EC
      | + function block  :  00000000
  <-Sub-tree of type: Function tree
    | Stack used          :  000010EC


  ->Sub-tree of type: Function tree
                             CSTACK
    | Stack used (prev) :  000010EC
  01  jpeg_mem_term
      | Stack used (prev) :  000010EC
      | + function block  :  00000000
  <-Sub-tree of type: Function tree
    | Stack used          :  000010EC


  ->Sub-tree of type: Function tree
                             CSTACK
    | Stack used (prev) :  000010EC
  01  out_of_memory
      | Stack used (prev) :  000010EC
      | + function block  :  00000004
  <-Sub-tree of type: Function tree
    | Stack used          :  000010F0


  ->Sub-tree of type: Function tree
                             CSTACK
    | Stack used (prev) :  000010F0
  01  do_sarray_io
      | Stack used (prev) :  000010F0
      | + function block  :  00000028
  <-Sub-tree of type: Function tree
    | Stack used          :  00001118


  ->Sub-tree of type: Function tree
                             CSTACK
    | Stack used (prev) :  00001118
  01  do_barray_io
      | Stack used (prev) :  00001118
      | + function block  :  00000028
  <-Sub-tree of type: Function tree
    | Stack used          :  00001140


  ->Sub-tree of type: Function tree
                             CSTACK
    | Stack used (prev) :  00001140
  01  jinit_memory_mgr
      | Stack used (prev) :  00001140
      | + function block  :  00000014
  <-Sub-tree of type: Function tree
    | Stack used          :  00001154


  ->Sub-tree of type: Function tree
                             CSTACK
    | Stack used (prev) :  00001154
  01  jdiv_round_up
      | Stack used (prev) :  00001154
      | + function block  :  00000004
  <-Sub-tree of type: Function tree
    | Stack used          :  00001158


  ->Sub-tree of type: Function tree
                             CSTACK
    | Stack used (prev) :  00001158
  01  jround_up
      | Stack used (prev) :  00001158
      | + function block  :  00000004
  <-Sub-tree of type: Function tree
    | Stack used          :  0000115C


  ->Sub-tree of type: Function tree
                             CSTACK
    | Stack used (prev) :  0000115C
  01  jcopy_sample_rows
      | Stack used (prev) :  0000115C
      | + function block  :  00000014
  <-Sub-tree of type: Function tree
    | Stack used          :  00001170


  ->Sub-tree of type: Function tree
                             CSTACK
    | Stack used (prev) :  00001170
  01  jcopy_block_row
      | Stack used (prev) :  00001170
      | + function block  :  00000004
  <-Sub-tree of type: Function tree
    | Stack used          :  00001174


  ->Sub-tree of type: Function tree
                             CSTACK
    | Stack used (prev) :  00001174
  01  jzero_far
      | Stack used (prev) :  00001174
      | + function block  :  00000004
  <-Sub-tree of type: Function tree
    | Stack used          :  00001178




                ****************************************
                *                                      *
                *      SEGMENTS IN ADDRESS ORDER       *
                *                                      *
                ****************************************


SEGMENT              SPACE    START ADDRESS   END ADDRESS     SIZE  TYPE  ALIGN
=======              =====    =============   ===========     ====  ====  =====
ELFBEGIN             CODE_AREA           00000000                     rel    0
DATA_ID              CODE_AREA      00000000 - 000010A0        10A1   rel    2
START                CODE_AREA           000010A1                     dse    0
CODE                 CODE_AREA      000010A4 - 0000822F        718C   rel    2
DATA_C               CODE_AREA      00008230 - 000086D1         4A2   rel    2
INITTAB              CODE_AREA      000086D4 - 000086EB          18   rel    2
DATA_Z               CODE_AREA      000086EC - 00008807         11C   rel    2
DATA_I               DATA_AREA      00000000 - 000010A0        10A1   rel    2

                ****************************************
                *                                      *
                *        END OF CROSS REFERENCE        *
                *                                      *
                ****************************************

 34 819 bytes of CODE memory
  4 257 bytes of DATA memory

Errors: none
Warnings: 1

