################################################################################
#                                                                              #
#      IAR Universal Linker V4.60I/386                                         #
#                                                                              #
#           Link time     =  02/Apr/2009  12:33:07                             #
#           Target CPU    =  ARM                                               #
#           List file     =  D:\pasha\elf\SVN2\TED\Release_ELKA\List\TED.map   #
#           Output file 1 =  D:\pasha\elf\SVN2\TED\Release_ELKA\Exe\TED.elf    #
#                            Format: elf, variant: -ynpraw                     #
#           Command line  =  D:\pasha\elf\SVN2\TED\Release_ELKA\Obj\config_dat #
#                            a.r79                                             #
#                            D:\pasha\elf\SVN2\TED\Release_ELKA\Obj\convert_fo #
#                            rmat.r79                                          #
#                            D:\pasha\elf\SVN2\TED\Release_ELKA\Obj\convert_si #
#                            mple.r79                                          #
#                            D:\pasha\elf\SVN2\TED\Release_ELKA\Obj\func.r79   #
#                            D:\pasha\elf\SVN2\TED\Release_ELKA\Obj\linework.r #
#                            79                                                #
#                            D:\pasha\elf\SVN2\TED\Release_ELKA\Obj\main.r79   #
#                            D:\pasha\elf\SVN2\TED\Release_ELKA\Obj\saver.r79  #
#                            D:\pasha\elf\SVN2\TED\div.r79 -o                  #
#                            D:\pasha\elf\SVN2\TED\Release_ELKA\Exe\TED.elf    #
#                            -Felf -l                                          #
#                            D:\pasha\elf\SVN2\TED\Release_ELKA\List\TED.map   #
#                            -xmsnio -f D:\pasha\elf\SVN2\TED\test.xcl         #
#                            (-carm -V(CODE)CODE_AREA,12                       #
#                            -V(DATA)DATA_AREA,12                              #
#                            -Z(CODE_AREA)ELFBEGIN,DATA_ID,START,CODE,DATA_C,I #
#                            NITTAB,DATA_Z,DATA_N,CONFIG_C=0-FFFFFFFF          #
#                            -Z(DATA_AREA)DATA_I=0-FFFFFFFF) -ynpraw -s main   #
#                                                                              #
#                        Copyright 1987-2007 IAR Systems. All rights reserved. #
################################################################################





                ****************************************
                *                                      *
                *           CROSS REFERENCE            *
                *                                      *
                ****************************************

       Program entry at : CODE_AREA 00007B44  Relocatable, from module : main




                ****************************************
                *                                      *
                *            RUNTIME MODEL             *
                *                                      *
                ****************************************

  StackAlign4  = USED
  __cpu_mode   = __pcs__interwork
  __data_model = absolute
  __endian     = little
  __rt_version = 6



                ****************************************
                *                                      *
                *              MODULE MAP              *
                *                                      *
                ****************************************


  DEFINED ABSOLUTE ENTRIES
    *************************************************************************

  DEFINED ABSOLUTE ENTRIES
    *************************************************************************

  FILE NAME : D:\pasha\elf\SVN2\TED\Release_ELKA\Obj\config_data.r79
  PROGRAM MODULE, NAME : config_data

  SEGMENTS IN THE MODULE
  ======================
CONFIG_C
  Relative segment, address: CODE_AREA 0000DB94 - 0000DBBF (0x2c bytes), align: 2
  Segment part 2. ROOT.
           ENTRY                   ADDRESS         REF BY
           =====                   =======         ======
           cfghdr0                 0000DB94        LoadConfigData (main)
    -------------------------------------------------------------------------
CONFIG_C
  Relative segment, address: CODE_AREA 0000DBC0 - 0000DBC3 (0x4 bytes), align: 2
  Segment part 3. ROOT.
           ENTRY                   ADDRESS         REF BY
           =====                   =======         ======
           INK                     0000DBC0        DrawScreen (main)
    -------------------------------------------------------------------------
CONFIG_C
  Relative segment, address: CODE_AREA 0000DBC4 - 0000DBEF (0x2c bytes), align: 2
  Segment part 4. ROOT.
           ENTRY                   ADDRESS         REF BY
           =====                   =======         ======
           cfghdr1                 0000DBC4 
    -------------------------------------------------------------------------
CONFIG_C
  Relative segment, address: CODE_AREA 0000DBF0 - 0000DBF3 (0x4 bytes), align: 2
  Segment part 5. ROOT.
           ENTRY                   ADDRESS         REF BY
           =====                   =======         ======
           PAPER                   0000DBF0        DrawScreen (main)
    -------------------------------------------------------------------------
CONFIG_C
  Relative segment, address: CODE_AREA 0000DBF4 - 0000DC1F (0x2c bytes), align: 2
  Segment part 6. ROOT.
           ENTRY                   ADDRESS         REF BY
           =====                   =======         ======
           cfghdr2                 0000DBF4 
    -------------------------------------------------------------------------
CONFIG_C
  Relative segment, address: CODE_AREA 0000DC20 - 0000DC5F (0x40 bytes), align: 2
  Segment part 7. ROOT.
           ENTRY                   ADDRESS         REF BY
           =====                   =======         ======
           ted_path                0000DC20        Segment part 268 (main)
                                                   Segment part 446 (main)
                                                   Segment part 609 (main)
    -------------------------------------------------------------------------
CONFIG_C
  Relative segment, address: CODE_AREA 0000DC60 - 0000DC8B (0x2c bytes), align: 2
  Segment part 8. ROOT.
           ENTRY                   ADDRESS         REF BY
           =====                   =======         ======
           cfghdr3                 0000DC60 
    -------------------------------------------------------------------------
CONFIG_C
  Relative segment, address: CODE_AREA 0000DC8C - 0000DC8F (0x4 bytes), align: 2
  Segment part 9. ROOT.
           ENTRY                   ADDRESS         REF BY
           =====                   =======         ======
           DISPLAY_LIGHT           0000DC8C 
    -------------------------------------------------------------------------
CONFIG_C
  Relative segment, address: CODE_AREA 0000DC90 - 0000DCBB (0x2c bytes), align: 2
  Segment part 10. ROOT.
           ENTRY                   ADDRESS         REF BY
           =====                   =======         ======
           cfghdr4                 0000DC90 
    -------------------------------------------------------------------------
CONFIG_C
  Relative segment, address: CODE_AREA 0000DCBC - 0000DCBF (0x4 bytes), align: 2
  Segment part 11. ROOT.
           ENTRY                   ADDRESS         REF BY
           =====                   =======         ======
           ADJ_LIGHT               0000DCBC 
    -------------------------------------------------------------------------
CONFIG_C
  Relative segment, address: CODE_AREA 0000DCC0 - 0000DCFF (0x40 bytes), align: 2
  Segment part 12. ROOT.
           ENTRY                   ADDRESS         REF BY
           =====                   =======         ======
           cfgcbox4                0000DCC0 
    -------------------------------------------------------------------------
CONFIG_C
  Relative segment, address: CODE_AREA 0000DD00 - 0000DD2B (0x2c bytes), align: 2
  Segment part 13. ROOT.
           ENTRY                   ADDRESS         REF BY
           =====                   =======         ======
           cfghdr5                 0000DD00 
    -------------------------------------------------------------------------
CONFIG_C
  Relative segment, address: CODE_AREA 0000DD2C - 0000DD2F (0x4 bytes), align: 2
  Segment part 14. ROOT.
           ENTRY                   ADDRESS         REF BY
           =====                   =======         ======
           ENA_AUTOF               0000DD2C        FirstLoadFile (main)
    -------------------------------------------------------------------------
CONFIG_C
  Relative segment, address: CODE_AREA 0000DD30 - 0000DD6F (0x40 bytes), align: 2
  Segment part 15. ROOT.
           ENTRY                   ADDRESS         REF BY
           =====                   =======         ======
           cfgcbox5                0000DD30 
    -------------------------------------------------------------------------
CONFIG_C
  Relative segment, address: CODE_AREA 0000DD70 - 0000DD9B (0x2c bytes), align: 2
  Segment part 16. ROOT.
           ENTRY                   ADDRESS         REF BY
           =====                   =======         ======
           cfghdr6                 0000DD70 
    -------------------------------------------------------------------------
CONFIG_C
  Relative segment, address: CODE_AREA 0000DD9C - 0000DD9F (0x4 bytes), align: 2
  Segment part 17. ROOT.
           ENTRY                   ADDRESS         REF BY
           =====                   =======         ======
           AUTOF_MODE              0000DD9C        FirstLoadFile (main)
    -------------------------------------------------------------------------
CONFIG_C
  Relative segment, address: CODE_AREA 0000DDA0 - 0000DDFF (0x60 bytes), align: 2
  Segment part 18. ROOT.
           ENTRY                   ADDRESS         REF BY
           =====                   =======         ======
           cfgcbox6                0000DDA0 
    -------------------------------------------------------------------------
CONFIG_C
  Relative segment, address: CODE_AREA 0000DE00 - 0000DE2B (0x2c bytes), align: 2
  Segment part 19. ROOT.
           ENTRY                   ADDRESS         REF BY
           =====                   =======         ======
           cfghdr7                 0000DE00 
    -------------------------------------------------------------------------
CONFIG_C
  Relative segment, address: CODE_AREA 0000DE2C - 0000DE2F (0x4 bytes), align: 2
  Segment part 20. ROOT.
           ENTRY                   ADDRESS         REF BY
           =====                   =======         ======
           AUTOF_FONT              0000DE2C        FirstLoadFile (main)
    -------------------------------------------------------------------------
CONFIG_C
  Relative segment, address: CODE_AREA 0000DE30 - 0000DEEF (0xc0 bytes), align: 2
  Segment part 21. ROOT.
           ENTRY                   ADDRESS         REF BY
           =====                   =======         ======
           cfgcbox7                0000DE30 
    -------------------------------------------------------------------------
CSTACK
  Segment part 1. NOT NEEDED.

    *************************************************************************

  FILE NAME : D:\pasha\elf\SVN2\TED\Release_ELKA\Obj\convert_format.r79
  PROGRAM MODULE, NAME : convert_format

  SEGMENTS IN THE MODULE
  ======================
DATA_C
  Relative segment, address: CODE_AREA 000081DC - 0000825B (0x80 bytes), align: 2
  Segment part 2.             Intra module refs:   GetCharType_x
    -------------------------------------------------------------------------
CODE
  Segment part 5. NOT NEEDED.
    -------------------------------------------------------------------------
CODE
  Relative segment, address: CODE_AREA 000005E8 - 00000673 (0x8c bytes), align: 2
  Segment part 6.             Intra module refs:   ConvertFormat
           ENTRY                   ADDRESS         REF BY
           =====                   =======         ======
           GetCharType_x           000005E8 
    -------------------------------------------------------------------------
CODE
  Segment part 7. NOT NEEDED.
    -------------------------------------------------------------------------
CODE
  Relative segment, address: CODE_AREA 00000674 - 00000AE7 (0x474 bytes), align: 2
  Segment part 8.
           ENTRY                   ADDRESS         REF BY
           =====                   =======         ======
           ConvertFormat           00000674        FirstLoadFile (main)
               stack 1 = 00000000 ( 00000140 )
    -------------------------------------------------------------------------
CODE
  Relative segment, address: CODE_AREA 00000AE8 - 00000AEB (0x4 bytes), align: 2
  Segment part 9.             Intra module refs:   ConvertFormat
                                                   GetCharType_x
    -------------------------------------------------------------------------
CODE
  Segment part 10. NOT NEEDED.
    -------------------------------------------------------------------------
DATA_C
  Relative segment, address: CODE_AREA 0000825C - 000082DB (0x80 bytes), align: 2
  Segment part 3.             Intra module refs:   Segment part 19
    -------------------------------------------------------------------------
CODE
  Segment part 11. NOT NEEDED.
           ENTRY                   ADDRESS         REF BY
           =====                   =======         ======
           alt2num                 
               not allocated function
    -------------------------------------------------------------------------
CODE
  Segment part 12. NOT NEEDED.
    -------------------------------------------------------------------------
CODE
  Segment part 13. NOT NEEDED.
           ENTRY                   ADDRESS         REF BY
           =====                   =======         ======
           koi2num                 
               not allocated function
    -------------------------------------------------------------------------
CODE
  Segment part 14. NOT NEEDED.
    -------------------------------------------------------------------------
DATA_C
  Relative segment, address: CODE_AREA 000082DC - 000082FB (0x20 bytes), align: 2
  Segment part 4.             Intra module refs:   Segment part 20
    -------------------------------------------------------------------------
CODE
  Segment part 15. NOT NEEDED.
           ENTRY                   ADDRESS         REF BY
           =====                   =======         ======
           work_2s                 
               not allocated function
    -------------------------------------------------------------------------
CODE
  Segment part 16. NOT NEEDED.
    -------------------------------------------------------------------------
CODE
  Relative segment, address: CODE_AREA 00000AEC - 00000CEF (0x204 bytes), align: 2
  Segment part 17.            Intra module refs:   ConvertFormat
           ENTRY                   ADDRESS         REF BY
           =====                   =======         ======
           def_code                00000AEC 
               stack 1 = 00000000 ( 00000128 )
    -------------------------------------------------------------------------
CODE
  Relative segment, address: CODE_AREA 00000CF0 - 00000CF3 (0x4 bytes), align: 2
  Segment part 18.            Intra module refs:   ConvertFormat
                                                   def_code
    -------------------------------------------------------------------------
CODE
  Relative segment, address: CODE_AREA 00000CF4 - 00000CF7 (0x4 bytes), align: 2
  Segment part 19.            Intra module refs:   def_code
    -------------------------------------------------------------------------
CODE
  Relative segment, address: CODE_AREA 00000CF8 - 00000CFB (0x4 bytes), align: 2
  Segment part 20.            Intra module refs:   def_code
    -------------------------------------------------------------------------
CODE
  Segment part 21. NOT NEEDED.Intra module refs:   ConvertFormat
    -------------------------------------------------------------------------
CODE
  Segment part 22. NOT NEEDED.Intra module refs:   ConvertFormat
    -------------------------------------------------------------------------
CODE
  Segment part 23. NOT NEEDED.Intra module refs:   ConvertFormat
    -------------------------------------------------------------------------
CSTACK
  Segment part 1. NOT NEEDED.

    *************************************************************************

  FILE NAME : D:\pasha\elf\SVN2\TED\Release_ELKA\Obj\convert_simple.r79
  PROGRAM MODULE, NAME : convert_simple

  SEGMENTS IN THE MODULE
  ======================
CODE
  Segment part 2. NOT NEEDED.
    -------------------------------------------------------------------------
CODE
  Relative segment, address: CODE_AREA 00000CFC - 00000E63 (0x168 bytes), align: 2
  Segment part 3.
           ENTRY                   ADDRESS         REF BY
           =====                   =======         ======
           ConvertSimple           00000CFC        FirstLoadFile (main)
               stack 1 = 00000000 ( 0000003C )
    -------------------------------------------------------------------------
CODE
  Segment part 4. NOT NEEDED. Intra module refs:   ConvertSimple
    -------------------------------------------------------------------------
CODE
  Segment part 5. NOT NEEDED. Intra module refs:   ConvertSimple
    -------------------------------------------------------------------------
CSTACK
  Segment part 1. NOT NEEDED.

    *************************************************************************

  FILE NAME : D:\pasha\elf\SVN2\TED\Release_ELKA\Obj\func.r79
  PROGRAM MODULE, NAME : func

  SEGMENTS IN THE MODULE
  ======================
ELFBEGIN
  Relative segment, address: CODE_AREA 00000000, align: 0
  Segment part 0. ROOT.
           ENTRY                   ADDRESS         REF BY
           =====                   =======         ======
           ELF_BEGIN               00000000        Killer2 (main)
    -------------------------------------------------------------------------
CODE
  Relative segment, address: CODE_AREA 00000E64 - 00000E67 (0x4 bytes), align: 2
  Segment part 1. ROOT.
           ENTRY                   ADDRESS         REF BY
           =====                   =======         ======
           kill_data               00000E64        Killer2 (main)
                                                   method7 (main)

    *************************************************************************

  FILE NAME : D:\pasha\elf\SVN2\TED\Release_ELKA\Obj\linework.r79
  PROGRAM MODULE, NAME : linework

  SEGMENTS IN THE MODULE
  ======================
CODE
  Segment part 2. NOT NEEDED.
    -------------------------------------------------------------------------
CODE
  Relative segment, address: CODE_AREA 00000E68 - 00000E93 (0x2c bytes), align: 2
  Segment part 3.
           ENTRY                   ADDRESS         REF BY
           =====                   =======         ======
           bl_us                   00000E68        DrawScreen (main)
    -------------------------------------------------------------------------
CODE
  Segment part 4. NOT NEEDED.
    -------------------------------------------------------------------------
CODE
  Relative segment, address: CODE_AREA 00000E94 - 00000EC3 (0x30 bytes), align: 2
  Segment part 5.
           ENTRY                   ADDRESS         REF BY
           =====                   =======         ======
           bl_ds                   00000E94        DrawScreen (main)
                                                   delline (main)
                                                   ed_inp_redraw (main)
                                                   joinlines (main)
    -------------------------------------------------------------------------
CODE
  Segment part 6. NOT NEEDED.
    -------------------------------------------------------------------------
CODE
  Relative segment, address: CODE_AREA 00000EC4 - 00000F67 (0xa4 bytes), align: 2
  Segment part 7.
           ENTRY                   ADDRESS         REF BY
           =====                   =======         ======
           move_up                 00000EC4        GotoLine (main)
                                                   PageUp (main)
                                                   actUp (main)
                                                   maincsm_onmessage (main)
               stack 1 = 00000000 ( 00000008 )
    -------------------------------------------------------------------------
CODE
  Segment part 8. NOT NEEDED.
    -------------------------------------------------------------------------
CODE
  Relative segment, address: CODE_AREA 00000F68 - 00000FC7 (0x60 bytes), align: 2
  Segment part 9.
           ENTRY                   ADDRESS         REF BY
           =====                   =======         ======
           move_dw                 00000F68        GotoLine (main)
                                                   LineDw (main)
                                                   actDown (main)
                                                   maincsm_onmessage (main)
                                                   method5 (main)
               stack 1 = 00000000 ( 0000000C )
    -------------------------------------------------------------------------
CODE
  Relative segment, address: CODE_AREA 00000FC8 - 00000FCB (0x4 bytes), align: 2
  Segment part 10.            Intra module refs:   move_dw
                                                   move_up
    -------------------------------------------------------------------------
CODE
  Relative segment, address: CODE_AREA 00000FCC - 00000FCF (0x4 bytes), align: 2
  Segment part 11.            Intra module refs:   move_dw
                                                   move_up
    -------------------------------------------------------------------------
CODE
  Relative segment, address: CODE_AREA 00000FD0 - 00000FD3 (0x4 bytes), align: 2
  Segment part 12.            Intra module refs:   bl_ds
                                                   move_dw
                                                   move_up
    -------------------------------------------------------------------------
CODE
  Relative segment, address: CODE_AREA 00000FD4 - 00000FD7 (0x4 bytes), align: 2
  Segment part 13.            Intra module refs:   bl_ds
                                                   move_dw
    -------------------------------------------------------------------------
CODE
  Relative segment, address: CODE_AREA 00000FD8 - 00000FDB (0x4 bytes), align: 2
  Segment part 14.            Intra module refs:   bl_us
                                                   move_dw
                                                   move_up
    -------------------------------------------------------------------------
CSTACK
  Segment part 1. NOT NEEDED.

    *************************************************************************

  FILE NAME : D:\pasha\elf\SVN2\TED\Release_ELKA\Obj\main.r79
  PROGRAM MODULE, NAME : main

  SEGMENTS IN THE MODULE
  ======================
DATA_I
  Relative segment, address: DATA_AREA 00000000 - 0000000B (0xc bytes), align: 2
  Segment part 67.            Intra module refs:   Segment part 160
                                                   Segment part 179
                                                   Segment part 196
                                                   Segment part 204
                                                   Segment part 212
           ENTRY                   ADDRESS         REF BY
           =====                   =======         ======
           menusoftkeys            00000000 
    -------------------------------------------------------------------------
DATA_I
  Relative segment, address: DATA_AREA 0000000C - 00000023 (0x18 bytes), align: 2
  Segment part 69.            Intra module refs:   Segment part 72
           ENTRY                   ADDRESS         REF BY
           =====                   =======         ======
           menu_sk                 0000000C 
    -------------------------------------------------------------------------
DATA_I
  Relative segment, address: DATA_AREA 00000024 - 0000002B (0x8 bytes), align: 2
  Segment part 71.            Intra module refs:   Segment part 160
                                                   Segment part 167
                                                   Segment part 173
                                                   Segment part 179
                                                   Segment part 188
                                                   Segment part 196
                                                   Segment part 204
                                                   Segment part 212
           ENTRY                   ADDRESS         REF BY
           =====                   =======         ======
           menu_skt                00000024 
    -------------------------------------------------------------------------
DATA_I
  Relative segment, address: DATA_AREA 0000002C - 0000003B (0x10 bytes), align: 2
  Segment part 73.            Intra module refs:   DrawSoftMenu
                                                   Segment part 192
                                                   Segment part 198
           ENTRY                   ADDRESS         REF BY
           =====                   =======         ======
           t_bm1                   0000002C 
    -------------------------------------------------------------------------
DATA_I
  Relative segment, address: DATA_AREA 0000003C - 0000004B (0x10 bytes), align: 2
  Segment part 75.            Intra module refs:   DrawSoftMenu
                                                   Segment part 192
                                                   Segment part 198
           ENTRY                   ADDRESS         REF BY
           =====                   =======         ======
           t_bm2                   0000003C 
    -------------------------------------------------------------------------
DATA_I
  Relative segment, address: DATA_AREA 0000004C - 0000005B (0x10 bytes), align: 2
  Segment part 77.            Intra module refs:   DrawSoftMenu
                                                   Segment part 192
                                                   Segment part 198
           ENTRY                   ADDRESS         REF BY
           =====                   =======         ======
           t_bm3                   0000004C 
    -------------------------------------------------------------------------
DATA_I
  Relative segment, address: DATA_AREA 0000005C - 0000006B (0x10 bytes), align: 2
  Segment part 79.            Intra module refs:   DrawSoftMenu
                                                   Segment part 192
                                                   Segment part 198
           ENTRY                   ADDRESS         REF BY
           =====                   =======         ======
           t_bm4                   0000005C 
    -------------------------------------------------------------------------
DATA_Z
  Relative segment, address: CODE_AREA 00008C00 - 00008C03 (0x4 bytes), align: 2
  Segment part 81.            Intra module refs:   Segment part 319
                                                   Segment part 592
           ENTRY                   ADDRESS         REF BY
           =====                   =======         ======
           info_ws                 00008C00 
    -------------------------------------------------------------------------
DATA_Z
  Relative segment, address: CODE_AREA 00008C04 - 00008C07 (0x4 bytes), align: 2
  Segment part 82.            Intra module refs:   Segment part 316
                                                   Segment part 593
           ENTRY                   ADDRESS         REF BY
           =====                   =======         ======
           upinfo_ws               00008C04 
    -------------------------------------------------------------------------
DATA_Z
  Relative segment, address: CODE_AREA 00008C08 - 00008C0B (0x4 bytes), align: 2
  Segment part 83.            Intra module refs:   Segment part 318
                                                   Segment part 436
                                                   Segment part 594
           ENTRY                   ADDRESS         REF BY
           =====                   =======         ======
           e_ws                    00008C08 
    -------------------------------------------------------------------------
DATA_Z
  Relative segment, address: CODE_AREA 00008C0C - 00008C0F (0x4 bytes), align: 2
  Segment part 84.            Intra module refs:   Segment part 281
                                                   Segment part 459
                                                   Segment part 553
           ENTRY                   ADDRESS         REF BY
           =====                   =======         ======
           terminated              00008C0C 
    -------------------------------------------------------------------------
DATA_Z
  Relative segment, address: CODE_AREA 00008C10 - 00008C13 (0x4 bytes), align: 2
  Segment part 85.            Intra module refs:   Segment part 471
                                                   Segment part 569
                                                   maincsm_onmessage
           ENTRY                   ADDRESS         REF BY
           =====                   =======         ======
           loadmenu_id             00008C10 
    -------------------------------------------------------------------------
DATA_Z
  Relative segment, address: CODE_AREA 00008C14 - 00008C17 (0x4 bytes), align: 2
  Segment part 86.            Intra module refs:   Segment part 380
                                                   maincsm_onmessage
           ENTRY                   ADDRESS         REF BY
           =====                   =======         ======
           edit_id                 00008C14 
    -------------------------------------------------------------------------
DATA_Z
  Relative segment, address: CODE_AREA 00008C18 - 00008C1B (0x4 bytes), align: 2
  Segment part 87.            Intra module refs:   Segment part 370
                                                   Segment part 428
                                                   Segment part 584
           ENTRY                   ADDRESS         REF BY
           =====                   =======         ======
           text_changed            00008C18 
    -------------------------------------------------------------------------
DATA_Z
  Relative segment, address: CODE_AREA 00008C1C - 00008C1F (0x4 bytes), align: 2
  Segment part 88.            Intra module refs:   Segment part 246
                                                   Segment part 305
                                                   Segment part 335
                                                   Segment part 420
                                                   maincsm_onmessage
           ENTRY                   ADDRESS         REF BY
           =====                   =======         ======
           editmode                00008C1C 
    -------------------------------------------------------------------------
DATA_I
  Relative segment, address: DATA_AREA 0000006C - 0000006F (0x4 bytes), align: 2
  Segment part 89.            Intra module refs:   Segment part 279
           ENTRY                   ADDRESS         REF BY
           =====                   =======         ======
           stk_fhandle             0000006C 
    -------------------------------------------------------------------------
DATA_Z
  Relative segment, address: CODE_AREA 00008C20 - 00008C23 (0x4 bytes), align: 2
  Segment part 91.            Intra module refs:   Segment part 234
                                                   Segment part 271
                                                   Segment part 329
                                                   Segment part 419
                                                   Segment part 464
                                                   Segment part 574
                                                   maincsm_onmessage
           ENTRY                   ADDRESS         REF BY
           =====                   =======         ======
           rotate                  00008C20 
    -------------------------------------------------------------------------
DATA_I
  Relative segment, address: DATA_AREA 00000070 - 00000073 (0x4 bytes), align: 2
  Segment part 92.            Intra module refs:   Segment part 280
                                                   Segment part 340
                                                   Segment part 413
                                                   Segment part 526
                                                   Segment part 576
           ENTRY                   ADDRESS         REF BY
           =====                   =======         ======
           draw_mode               00000070        savetext (saver)
    -------------------------------------------------------------------------
DATA_I
  Relative segment, address: DATA_AREA 00000074 - 00000077 (0x4 bytes), align: 2
  Segment part 94.            Intra module refs:   Segment part 272
                                                   Segment part 483
                                                   Segment part 557
           ENTRY                   ADDRESS         REF BY
           =====                   =======         ======
           font_size               00000074 
    -------------------------------------------------------------------------
DATA_Z
  Relative segment, address: CODE_AREA 00008C24 - 00008C27 (0x4 bytes), align: 2
  Segment part 96.            Intra module refs:   Segment part 493
                                                   Segment part 588
                                                   Segment part 615
           ENTRY                   ADDRESS         REF BY
           =====                   =======         ======
           fonts_count             00008C24 
    -------------------------------------------------------------------------
DATA_Z
  Relative segment, address: CODE_AREA 00008C28 - 00008C2B (0x4 bytes), align: 2
  Segment part 97.            Intra module refs:   Segment part 362
           ENTRY                   ADDRESS         REF BY
           =====                   =======         ======
           clip_pasted             00008C28 
    -------------------------------------------------------------------------
DATA_C
  Relative segment, address: CODE_AREA 000082FC - 00008307 (0xc bytes), align: 2
  Segment part 2.             Intra module refs:   Segment part 156
    -------------------------------------------------------------------------
DATA_C
  Relative segment, address: CODE_AREA 00008308 - 00008313 (0xc bytes), align: 2
  Segment part 3.             Intra module refs:   Segment part 192
    -------------------------------------------------------------------------
DATA_C
  Relative segment, address: CODE_AREA 00008314 - 0000831B (0x8 bytes), align: 2
  Segment part 4.             Intra module refs:   Segment part 192
    -------------------------------------------------------------------------
DATA_C
  Relative segment, address: CODE_AREA 0000831C - 00008323 (0x8 bytes), align: 2
  Segment part 5.             Intra module refs:   Segment part 192
    -------------------------------------------------------------------------
DATA_C
  Relative segment, address: CODE_AREA 00008324 - 0000832B (0x8 bytes), align: 2
  Segment part 6.             Intra module refs:   Segment part 192
    -------------------------------------------------------------------------
DATA_C
  Relative segment, address: CODE_AREA 0000832C - 0000832F (0x4 bytes), align: 2
  Segment part 7.             Intra module refs:   Segment part 192
    -------------------------------------------------------------------------
DATA_C
  Relative segment, address: CODE_AREA 00008330 - 0000833B (0xc bytes), align: 2
  Segment part 8.             Intra module refs:   Segment part 186
    -------------------------------------------------------------------------
DATA_C
  Relative segment, address: CODE_AREA 0000833C - 0000834B (0x10 bytes), align: 2
  Segment part 9.             Intra module refs:   Segment part 184
    -------------------------------------------------------------------------
DATA_C
  Relative segment, address: CODE_AREA 0000834C - 00008357 (0xc bytes), align: 2
  Segment part 10.            Intra module refs:   Segment part 177
    -------------------------------------------------------------------------
DATA_C
  Relative segment, address: CODE_AREA 00008358 - 00008363 (0xc bytes), align: 2
  Segment part 11.            Intra module refs:   Segment part 171
    -------------------------------------------------------------------------
DATA_C
  Relative segment, address: CODE_AREA 00008364 - 0000836F (0xc bytes), align: 2
  Segment part 12.            Intra module refs:   instime
    -------------------------------------------------------------------------
DATA_C
  Relative segment, address: CODE_AREA 00008370 - 0000837B (0xc bytes), align: 2
  Segment part 13.            Intra module refs:   Segment part 158
    -------------------------------------------------------------------------
DATA_C
  Relative segment, address: CODE_AREA 0000837C - 0000838B (0x10 bytes), align: 2
  Segment part 14.            Intra module refs:   Segment part 156
    -------------------------------------------------------------------------
DATA_C
  Relative segment, address: CODE_AREA 0000838C - 00008393 (0x8 bytes), align: 2
  Segment part 15.            Intra module refs:   Segment part 156
    -------------------------------------------------------------------------
DATA_C
  Relative segment, address: CODE_AREA 00008394 - 0000839F (0xc bytes), align: 2
  Segment part 16.            Intra module refs:   Segment part 156
    -------------------------------------------------------------------------
DATA_C
  Relative segment, address: CODE_AREA 000083A0 - 000083AB (0xc bytes), align: 2
  Segment part 17.            Intra module refs:   Segment part 156
    -------------------------------------------------------------------------
DATA_C
  Relative segment, address: CODE_AREA 000083AC - 000083B7 (0xc bytes), align: 2
  Segment part 18.            Intra module refs:   Segment part 156
    -------------------------------------------------------------------------
DATA_C
  Relative segment, address: CODE_AREA 000083B8 - 000083C3 (0xc bytes), align: 2
  Segment part 19.            Intra module refs:   Segment part 156
    -------------------------------------------------------------------------
DATA_C
  Relative segment, address: CODE_AREA 000083C4 - 000083CF (0xc bytes), align: 2
  Segment part 20.            Intra module refs:   Segment part 156
    -------------------------------------------------------------------------
DATA_C
  Relative segment, address: CODE_AREA 000083D0 - 000083D7 (0x8 bytes), align: 2
  Segment part 21.            Intra module refs:   Segment part 70
    -------------------------------------------------------------------------
DATA_C
  Relative segment, address: CODE_AREA 000083D8 - 000083DF (0x8 bytes), align: 2
  Segment part 22.            Intra module refs:   Segment part 70
    -------------------------------------------------------------------------
DATA_C
  Relative segment, address: CODE_AREA 000083E0 - 000083E7 (0x8 bytes), align: 2
  Segment part 23.            Intra module refs:   GetFontList
    -------------------------------------------------------------------------
DATA_C
  Relative segment, address: CODE_AREA 000083E8 - 000083FB (0x14 bytes), align: 2
  Segment part 24.            Intra module refs:   main
    -------------------------------------------------------------------------
DATA_C
  Relative segment, address: CODE_AREA 000083FC - 0000840F (0x14 bytes), align: 2
  Segment part 25.            Intra module refs:   main
    -------------------------------------------------------------------------
DATA_C
  Relative segment, address: CODE_AREA 00008410 - 00008427 (0x18 bytes), align: 2
  Segment part 26.            Intra module refs:   main
    -------------------------------------------------------------------------
DATA_C
  Relative segment, address: CODE_AREA 00008428 - 0000843F (0x18 bytes), align: 2
  Segment part 27.            Intra module refs:   main
    -------------------------------------------------------------------------
DATA_C
  Relative segment, address: CODE_AREA 00008440 - 00008457 (0x18 bytes), align: 2
  Segment part 28.            Intra module refs:   main
    -------------------------------------------------------------------------
DATA_C
  Relative segment, address: CODE_AREA 00008458 - 0000845F (0x8 bytes), align: 2
  Segment part 29.            Intra module refs:   UpdateCSMname
    -------------------------------------------------------------------------
DATA_C
  Relative segment, address: CODE_AREA 00008460 - 00008467 (0x8 bytes), align: 2
  Segment part 30.            Intra module refs:   Killer
    -------------------------------------------------------------------------
DATA_C
  Relative segment, address: CODE_AREA 00008468 - 0000847B (0x14 bytes), align: 2
  Segment part 31.            Intra module refs:   Killer
    -------------------------------------------------------------------------
DATA_C
  Relative segment, address: CODE_AREA 0000847C - 00008483 (0x8 bytes), align: 2
  Segment part 32.            Intra module refs:   load_menu_iconhndl
    -------------------------------------------------------------------------
DATA_C
  Relative segment, address: CODE_AREA 00008484 - 0000848F (0xc bytes), align: 2
  Segment part 33.            Intra module refs:   load_menu_iconhndl
    -------------------------------------------------------------------------
DATA_C
  Relative segment, address: CODE_AREA 00008490 - 0000849F (0x10 bytes), align: 2
  Segment part 34.            Intra module refs:   load_menu_iconhndl
    -------------------------------------------------------------------------
DATA_C
  Relative segment, address: CODE_AREA 000084A0 - 000084AB (0xc bytes), align: 2
  Segment part 35.            Intra module refs:   load_menu_iconhndl
    -------------------------------------------------------------------------
DATA_C
  Relative segment, address: CODE_AREA 000084AC - 000084B7 (0xc bytes), align: 2
  Segment part 36.            Intra module refs:   load_menu_iconhndl
    -------------------------------------------------------------------------
DATA_C
  Relative segment, address: CODE_AREA 000084B8 - 000084C3 (0xc bytes), align: 2
  Segment part 37.            Intra module refs:   load_menu_iconhndl
    -------------------------------------------------------------------------
DATA_C
  Relative segment, address: CODE_AREA 000084C4 - 000084CB (0x8 bytes), align: 2
  Segment part 38.            Intra module refs:   load_menu_iconhndl
    -------------------------------------------------------------------------
DATA_C
  Relative segment, address: CODE_AREA 000084CC - 000084DB (0x10 bytes), align: 2
  Segment part 39.            Intra module refs:   do_rotate
    -------------------------------------------------------------------------
DATA_C
  Relative segment, address: CODE_AREA 000084DC - 000084EB (0x10 bytes), align: 2
  Segment part 40.            Intra module refs:   Segment part 484
    -------------------------------------------------------------------------
DATA_C
  Segment part 41. NOT NEEDED.
    -------------------------------------------------------------------------
DATA_C
  Relative segment, address: CODE_AREA 000084EC - 000084F3 (0x8 bytes), align: 2
  Segment part 42.            Intra module refs:   Segment part 169
    -------------------------------------------------------------------------
DATA_C
  Relative segment, address: CODE_AREA 000084F4 - 000084FB (0x8 bytes), align: 2
  Segment part 43.            Intra module refs:   Segment part 162
    -------------------------------------------------------------------------
DATA_C
  Relative segment, address: CODE_AREA 000084FC - 0000850B (0x10 bytes), align: 2
  Segment part 44.            Intra module refs:   insdate
    -------------------------------------------------------------------------
DATA_C
  Relative segment, address: CODE_AREA 0000850C - 00008517 (0xc bytes), align: 2
  Segment part 45.            Intra module refs:   Segment part 165
    -------------------------------------------------------------------------
DATA_C
  Relative segment, address: CODE_AREA 00008518 - 00008573 (0x5c bytes), align: 2
  Segment part 46.            Intra module refs:   DrawScreen
    -------------------------------------------------------------------------
DATA_C
  Segment part 47. NOT NEEDED.
    -------------------------------------------------------------------------
DATA_C
  Relative segment, address: CODE_AREA 00008574 - 0000857B (0x8 bytes), align: 2
  Segment part 48.            Intra module refs:   DrawScreen
    -------------------------------------------------------------------------
DATA_C
  Relative segment, address: CODE_AREA 0000857C - 00008587 (0xc bytes), align: 2
  Segment part 49.            Intra module refs:   DrawScreen
    -------------------------------------------------------------------------
DATA_C
  Relative segment, address: CODE_AREA 00008588 - 00008593 (0xc bytes), align: 2
  Segment part 50.            Intra module refs:   DrawScreen
    -------------------------------------------------------------------------
DATA_C
  Relative segment, address: CODE_AREA 00008594 - 000085A3 (0x10 bytes), align: 2
  Segment part 51.            Intra module refs:   DrawScreen
    -------------------------------------------------------------------------
DATA_C
  Relative segment, address: CODE_AREA 000085A4 - 000085F3 (0x50 bytes), align: 2
  Segment part 52.            Intra module refs:   DrawInfo
    -------------------------------------------------------------------------
DATA_C
  Relative segment, address: CODE_AREA 000085F4 - 000085FB (0x8 bytes), align: 2
  Segment part 53.            Intra module refs:   DrawInfo
    -------------------------------------------------------------------------
DATA_C
  Relative segment, address: CODE_AREA 000085FC - 00008603 (0x8 bytes), align: 2
  Segment part 54.            Intra module refs:   DrawInfo
    -------------------------------------------------------------------------
DATA_C
  Relative segment, address: CODE_AREA 00008604 - 0000860B (0x8 bytes), align: 2
  Segment part 55.            Intra module refs:   DrawInfo
    -------------------------------------------------------------------------
DATA_C
  Relative segment, address: CODE_AREA 0000860C - 0000861B (0x10 bytes), align: 2
  Segment part 56.            Intra module refs:   Segment part 269
    -------------------------------------------------------------------------
DATA_C
  Relative segment, address: CODE_AREA 0000861C - 00008633 (0x18 bytes), align: 2
  Segment part 57.            Intra module refs:   DiskErrorMsg
    -------------------------------------------------------------------------
DATA_C
  Relative segment, address: CODE_AREA 00008634 - 0000864B (0x18 bytes), align: 2
  Segment part 58.            Intra module refs:   DiskErrorMsg
    -------------------------------------------------------------------------
DATA_C
  Relative segment, address: CODE_AREA 0000864C - 00008663 (0x18 bytes), align: 2
  Segment part 59.            Intra module refs:   DiskErrorMsg
    -------------------------------------------------------------------------
DATA_C
  Relative segment, address: CODE_AREA 00008664 - 0000867B (0x18 bytes), align: 2
  Segment part 60.            Intra module refs:   DiskErrorMsg
    -------------------------------------------------------------------------
DATA_C
  Relative segment, address: CODE_AREA 0000867C - 0000869B (0x20 bytes), align: 2
  Segment part 61.            Intra module refs:   DiskErrorMsg
    -------------------------------------------------------------------------
DATA_C
  Relative segment, address: CODE_AREA 0000869C - 000086A7 (0xc bytes), align: 2
  Segment part 62.            Intra module refs:   DrwImg
    -------------------------------------------------------------------------
DATA_C
  Relative segment, address: CODE_AREA 000086A8 - 000086B3 (0xc bytes), align: 2
  Segment part 63.            Intra module refs:   Segment part 210
    -------------------------------------------------------------------------
DATA_C
  Relative segment, address: CODE_AREA 000086B4 - 000086BF (0xc bytes), align: 2
  Segment part 64.            Intra module refs:   Segment part 206
    -------------------------------------------------------------------------
DATA_C
  Relative segment, address: CODE_AREA 000086C0 - 000086CF (0x10 bytes), align: 2
  Segment part 65.            Intra module refs:   Segment part 202
                                                   Segment part 206
    -------------------------------------------------------------------------
DATA_C
  Relative segment, address: CODE_AREA 000086D0 - 000086D7 (0x8 bytes), align: 2
  Segment part 66.            Intra module refs:   Segment part 182
                                                   Segment part 194
                                                   Segment part 206
    -------------------------------------------------------------------------
DATA_C
  Relative segment, address: CODE_AREA 000086D8 - 000086DB (0x4 bytes), align: 2
  Segment part 98.            Intra module refs:   MAINCSM
           ENTRY                   ADDRESS         REF BY
           =====                   =======         ======
           minus11                 000086D8 
    -------------------------------------------------------------------------
DATA_C
  Relative segment, address: CODE_AREA 000086DC - 000086E7 (0xc bytes), align: 2
  Segment part 99.            Intra module refs:   imgDiskAccess
           ENTRY                   ADDRESS         REF BY
           =====                   =======         ======
           bmpDiskAccess           000086DC 
    -------------------------------------------------------------------------
DATA_C
  Relative segment, address: CODE_AREA 000086E8 - 000086F3 (0xc bytes), align: 2
  Segment part 100.           Intra module refs:   DrawScreen
           ENTRY                   ADDRESS         REF BY
           =====                   =======         ======
           imgDiskAccess           000086E8 
    -------------------------------------------------------------------------
DATA_Z
  Relative segment, address: CODE_AREA 00008C2C - 00008C2F (0x4 bytes), align: 2
  Segment part 101.           Intra module refs:   Segment part 260
                                                   Segment part 559
           ENTRY                   ADDRESS         REF BY
           =====                   =======         ======
           u_disk                  00008C2C        savetext (saver)
    -------------------------------------------------------------------------
DATA_Z
  Relative segment, address: CODE_AREA 00008C30 - 00008C33 (0x4 bytes), align: 2
  Segment part 102.           Intra module refs:   Segment part 261
                                                   Segment part 560
           ENTRY                   ADDRESS         REF BY
           =====                   =======         ======
           d_disk                  00008C30        savetext (saver)
    -------------------------------------------------------------------------
DATA_Z
  Relative segment, address: CODE_AREA 00008C34 - 00008C37 (0x4 bytes), align: 2
  Segment part 103.           Intra module refs:   Segment part 259
                                                   Segment part 355
                                                   Segment part 570
           ENTRY                   ADDRESS         REF BY
           =====                   =======         ======
           usp                     00008C34        Segment part 11 (linework)
                                                   savetext (saver)
    -------------------------------------------------------------------------
DATA_Z
  Relative segment, address: CODE_AREA 00008C38 - 00008C3B (0x4 bytes), align: 2
  Segment part 104.           Intra module refs:   Segment part 303
                                                   Segment part 368
                                                   Segment part 417
                                                   Segment part 565
                                                   Segment part 602
           ENTRY                   ADDRESS         REF BY
           =====                   =======         ======
           dsp                     00008C38        Segment part 10 (linework)
                                                   savetext (saver)
    -------------------------------------------------------------------------
DATA_I
  Relative segment, address: DATA_AREA 00000078 - 0000007B (0x4 bytes), align: 2
  Segment part 105.           Intra module refs:   Segment part 277
                                                   Segment part 317
                                                   Segment part 472
                                                   Segment part 494
                                                   Segment part 586
                                                   Segment part 601
           ENTRY                   ADDRESS         REF BY
           =====                   =======         ======
           disk_access             00000078        savetext (saver)
    -------------------------------------------------------------------------
DATA_Z
  Relative segment, address: CODE_AREA 00008C3C - 00008C3F (0x4 bytes), align: 2
  Segment part 107.           Intra module refs:   DrawScreen
           ENTRY                   ADDRESS         REF BY
           =====                   =======         ======
           cursor_cnt              00008C3C 
    -------------------------------------------------------------------------
DATA_Z
  Segment part 108. NOT NEEDED.
           ENTRY                   ADDRESS         REF BY
           =====                   =======         ======
           disable_exit            
    -------------------------------------------------------------------------
DATA_Z
  Relative segment, address: CODE_AREA 00008C40 - 00008C43 (0x4 bytes), align: 2
  Segment part 109.           Intra module refs:   Segment part 273
                                                   Segment part 310
                                                   Segment part 424
                                                   Segment part 556
           ENTRY                   ADDRESS         REF BY
           =====                   =======         ======
           win_dos_koi             00008C40        Segment part 9 (convert_format)
    -------------------------------------------------------------------------
DATA_Z
  Relative segment, address: CODE_AREA 00008C44 - 00008C47 (0x4 bytes), align: 2
  Segment part 110.           Intra module refs:   Segment part 274
                                                   Segment part 341
                                                   Segment part 418
                                                   Segment part 568
           ENTRY                   ADDRESS         REF BY
           =====                   =======         ======
           cursor_off              00008C44 
    -------------------------------------------------------------------------
DATA_Z
  Relative segment, address: CODE_AREA 00008C48 - 00008CC7 (0x80 bytes), align: 2
  Segment part 111.           Intra module refs:   Segment part 251
                                                   Segment part 595
                                                   Segment part 610
           ENTRY                   ADDRESS         REF BY
           =====                   =======         ======
           stkfile                 00008C48        savetext (saver)
    -------------------------------------------------------------------------
DATA_Z
  Relative segment, address: CODE_AREA 00008CC8 - 00008CCB (0x4 bytes), align: 2
  Segment part 112.           Intra module refs:   Segment part 278
                                                   Segment part 575
           ENTRY                   ADDRESS         REF BY
           =====                   =======         ======
           seek_to_line            00008CC8 
    -------------------------------------------------------------------------
DATA_Z
  Relative segment, address: CODE_AREA 00008CCC - 00008CCF (0x4 bytes), align: 2
  Segment part 113.           Intra module refs:   Segment part 312
                                                   Segment part 372
                                                   Segment part 571
           ENTRY                   ADDRESS         REF BY
           =====                   =======         ======
           total_line              00008CCC 
    -------------------------------------------------------------------------
DATA_Z
  Relative segment, address: CODE_AREA 00008CD0 - 00008CD3 (0x4 bytes), align: 2
  Segment part 114.           Intra module refs:   Segment part 313
                                                   Segment part 357
                                                   Segment part 415
                                                   Segment part 572
                                                   maincsm_onmessage
           ENTRY                   ADDRESS         REF BY
           =====                   =======         ======
           curline                 00008CD0        ConvertFormat (convert_format)
                                                   ConvertSimple (convert_simple)
    -------------------------------------------------------------------------
DATA_Z
  Relative segment, address: CODE_AREA 00008CD4 - 00008CD7 (0x4 bytes), align: 2
  Segment part 115.           Intra module refs:   Segment part 333
                                                   Segment part 377
                                                   Segment part 422
                                                   Segment part 567
           ENTRY                   ADDRESS         REF BY
           =====                   =======         ======
           curpos                  00008CD4 
    -------------------------------------------------------------------------
DATA_Z
  Relative segment, address: CODE_AREA 00008CD8 - 00008CDB (0x4 bytes), align: 2
  Segment part 116.           Intra module refs:   Segment part 293
                                                   Segment part 325
                                                   Segment part 416
                                                   Segment part 573
                                                   maincsm_onmessage
           ENTRY                   ADDRESS         REF BY
           =====                   =======         ======
           viewline                00008CD8 
    -------------------------------------------------------------------------
DATA_Z
  Relative segment, address: CODE_AREA 00008CDC - 00008CDF (0x4 bytes), align: 2
  Segment part 117.           Intra module refs:   Segment part 332
                                                   Segment part 348
                                                   Segment part 423
                                                   Segment part 566
           ENTRY                   ADDRESS         REF BY
           =====                   =======         ======
           viewpos                 00008CDC 
    -------------------------------------------------------------------------
DATA_Z
  Relative segment, address: CODE_AREA 00008CE0 - 00008CE3 (0x4 bytes), align: 2
  Segment part 118.           Intra module refs:   Segment part 287
                                                   Segment part 327
                                                   Segment part 453
           ENTRY                   ADDRESS         REF BY
           =====                   =======         ======
           max_y                   00008CE0 
    -------------------------------------------------------------------------
DATA_Z
  Relative segment, address: CODE_AREA 00008CE4 - 00008CE7 (0x4 bytes), align: 2
  Segment part 119.           Intra module refs:   Segment part 286
                                                   Segment part 326
                                                   Segment part 414
                                                   Segment part 455
                                                   maincsm_onmessage
           ENTRY                   ADDRESS         REF BY
           =====                   =======         ======
           max_y_emode             00008CE4 
    -------------------------------------------------------------------------
DATA_Z
  Relative segment, address: CODE_AREA 00008CE8 - 00008CEB (0x4 bytes), align: 2
  Segment part 120.           Intra module refs:   Segment part 307
                                                   Segment part 337
                                                   Segment part 457
           ENTRY                   ADDRESS         REF BY
           =====                   =======         ======
           max_x                   00008CE8        ConvertFormat (convert_format)
    -------------------------------------------------------------------------
DATA_Z
  Relative segment, address: CODE_AREA 00008CEC - 00008CEF (0x4 bytes), align: 2
  Segment part 121.           Intra module refs:   Segment part 306
                                                   Segment part 336
                                                   Segment part 454
           ENTRY                   ADDRESS         REF BY
           =====                   =======         ======
           max_x_emode             00008CEC 
    -------------------------------------------------------------------------
DATA_Z
  Relative segment, address: CODE_AREA 00008CF0 - 00008CF3 (0x4 bytes), align: 2
  Segment part 122.           Intra module refs:   Segment part 323
                                                   Segment part 456
           ENTRY                   ADDRESS         REF BY
           =====                   =======         ======
           sheight_emode           00008CF0 
    -------------------------------------------------------------------------
DATA_Z
  Relative segment, address: CODE_AREA 00008CF4 - 00008CF7 (0x4 bytes), align: 2
  Segment part 123.           Intra module refs:   LoadFont
           ENTRY                   ADDRESS         REF BY
           =====                   =======         ======
           sheight                 00008CF4 
    -------------------------------------------------------------------------
DATA_I
  Relative segment, address: DATA_AREA 0000007C - 0000007F (0x4 bytes), align: 2
  Segment part 124.           Intra module refs:   Segment part 292
                                                   Segment part 369
                                                   Segment part 421
                                                   Segment part 564
                                                   Segment part 612
           ENTRY                   ADDRESS         REF BY
           =====                   =======         ======
           STKSZ                   0000007C        Segment part 13 (linework)
                                                   savetext (saver)
    -------------------------------------------------------------------------
DATA_I
  Relative segment, address: DATA_AREA 00000080 - 00000083 (0x4 bytes), align: 2
  Segment part 126.           Intra module refs:   CheckDiskAccess
           ENTRY                   ADDRESS         REF BY
           =====                   =======         ======
           STKMAX                  00000080 
    -------------------------------------------------------------------------
DATA_I
  Relative segment, address: DATA_AREA 00000084 - 00000087 (0x4 bytes), align: 2
  Segment part 128.           Intra module refs:   CheckDiskAccess
           ENTRY                   ADDRESS         REF BY
           =====                   =======         ======
           STKMIN                  00000084 
    -------------------------------------------------------------------------
DATA_I
  Relative segment, address: DATA_AREA 00000088 - 0000008B (0x4 bytes), align: 2
  Segment part 130.           Intra module refs:   Segment part 253
                                                   Segment part 552
           ENTRY                   ADDRESS         REF BY
           =====                   =======         ======
           STKSZ50                 00000088        ConvertFormat (convert_format)
                                                   ConvertSimple (convert_simple)
                                                   savetext (saver)
    -------------------------------------------------------------------------
DATA_Z
  Relative segment, address: CODE_AREA 00008CF8 - 00008CFB (0x4 bytes), align: 2
  Segment part 132.           Intra module refs:   Segment part 255
                                                   Segment part 356
                                                   Segment part 590
                                                   Segment part 613
           ENTRY                   ADDRESS         REF BY
           =====                   =======         ======
           ustk                    00008CF8        ConvertFormat (convert_format)
                                                   ConvertSimple (convert_simple)
                                                   Segment part 14 (linework)
                                                   savetext (saver)
    -------------------------------------------------------------------------
DATA_Z
  Relative segment, address: CODE_AREA 00008CFC - 00008CFF (0x4 bytes), align: 2
  Segment part 133.           Intra module refs:   Segment part 304
                                                   Segment part 371
                                                   Segment part 381
                                                   Segment part 591
                                                   Segment part 616
           ENTRY                   ADDRESS         REF BY
           =====                   =======         ======
           dstk                    00008CFC        ConvertSimple (convert_simple)
                                                   Segment part 12 (linework)
                                                   Segment part 18 (convert_format)
                                                   savetext (saver)
    -------------------------------------------------------------------------
DATA_Z
  Relative segment, address: CODE_AREA 00008D00 - 00009CFF (0x1000 bytes), align: 2
  Segment part 134.           Intra module refs:   Segment part 256
                                                   Segment part 562
           ENTRY                   ADDRESS         REF BY
           =====                   =======         ======
           dbat                    00008D00        savetext (saver)
    -------------------------------------------------------------------------
DATA_Z
  Relative segment, address: CODE_AREA 00009D00 - 0000ACFF (0x1000 bytes), align: 2
  Segment part 135.           Intra module refs:   Segment part 254
                                                   Segment part 561
           ENTRY                   ADDRESS         REF BY
           =====                   =======         ======
           ubat                    00009D00        savetext (saver)
    -------------------------------------------------------------------------
DATA_Z
  Relative segment, address: CODE_AREA 0000AD00 - 0000B0FF (0x400 bytes), align: 2
  Segment part 136.           Intra module refs:   Segment part 252
                                                   Segment part 563
           ENTRY                   ADDRESS         REF BY
           =====                   =======         ======
           bfree                   0000AD00 
    -------------------------------------------------------------------------
DATA_Z
  Relative segment, address: CODE_AREA 0000B100 - 0000B103 (0x4 bytes), align: 2
  Segment part 137.           Intra module refs:   Segment part 240
                                                   Segment part 451
                                                   Segment part 589
           ENTRY                   ADDRESS         REF BY
           =====                   =======         ======
           font                    0000B100 
    -------------------------------------------------------------------------
DATA_Z
  Relative segment, address: CODE_AREA 0000B104 - 0000B203 (0x100 bytes), align: 2
  Segment part 138.           Intra module refs:   Segment part 245
                                                   Segment part 334
           ENTRY                   ADDRESS         REF BY
           =====                   =======         ======
           chars_width             0000B104        ConvertFormat (convert_format)
    -------------------------------------------------------------------------
DATA_Z
  Relative segment, address: CODE_AREA 0000B204 - 0000B303 (0x100 bytes), align: 2
  Segment part 139.           Intra module refs:   Segment part 229
                                                   Segment part 452
           ENTRY                   ADDRESS         REF BY
           =====                   =======         ======
           chars_width_src         0000B204 
    -------------------------------------------------------------------------
DATA_Z
  Relative segment, address: CODE_AREA 0000B304 - 0000B307 (0x4 bytes), align: 2
  Segment part 140.           Intra module refs:   Segment part 237
                                                   Segment part 450
           ENTRY                   ADDRESS         REF BY
           =====                   =======         ======
           FW                      0000B304 
    -------------------------------------------------------------------------
DATA_Z
  Relative segment, address: CODE_AREA 0000B308 - 0000B30B (0x4 bytes), align: 2
  Segment part 141.           Intra module refs:   Segment part 238
                                                   Segment part 328
                                                   Segment part 449
           ENTRY                   ADDRESS         REF BY
           =====                   =======         ======
           FH                      0000B308 
    -------------------------------------------------------------------------
DATA_Z
  Relative segment, address: CODE_AREA 0000B30C - 0000B40B (0x100 bytes), align: 2
  Segment part 142.           Intra module refs:   Segment part 300
                                                   Segment part 321
                                                   Segment part 367
           ENTRY                   ADDRESS         REF BY
           =====                   =======         ======
           editline                0000B30C 
    -------------------------------------------------------------------------
DATA_Z
  Relative segment, address: CODE_AREA 0000B40C - 0000B48B (0x80 bytes), align: 2
  Segment part 143.           Intra module refs:   Segment part 311
                                                   Segment part 320
                                                   Segment part 437
                                                   Segment part 585
                                                   Segment part 611
           ENTRY                   ADDRESS         REF BY
           =====                   =======         ======
           filename                0000B40C        savetext (saver)
    -------------------------------------------------------------------------
DATA_Z
  Relative segment, address: CODE_AREA 0000B48C - 0000B52B (0xa0 bytes), align: 2
  Segment part 144.           Intra module refs:   DrawScreen
                                                   Segment part 270
                                                   Segment part 473
                                                   Segment part 477
                                                   Segment part 482
                                                   Segment part 532
                                                   Segment part 535
                                                   Segment part 538
                                                   Segment part 541
                                                   Segment part 558
                                                   Segment part 583
                                                   goto_last_saved
           ENTRY                   ADDRESS         REF BY
           =====                   =======         ======
           HISTORY                 0000B48C 
    -------------------------------------------------------------------------
DATA_Z
  Relative segment, address: CODE_AREA 0000B52C - 0000DA2B (0x2500 bytes), align: 2
  Segment part 145.           Intra module refs:   Segment part 147
                                                   Segment part 239
                                                   Segment part 322
                                                   Segment part 458
           ENTRY                   ADDRESS         REF BY
           =====                   =======         ======
           myscr                   0000B52C 
    -------------------------------------------------------------------------
DATA_I
  Relative segment, address: DATA_AREA 0000008C - 00000097 (0xc bytes), align: 2
  Segment part 146.           Intra module refs:   Segment part 221
                                                   Segment part 324
           ENTRY                   ADDRESS         REF BY
           =====                   =======         ======
           MyScrHdr                0000008C 
    -------------------------------------------------------------------------
CODE
  Segment part 219. NOT NEEDED.
    -------------------------------------------------------------------------
CODE
  Relative segment, address: CODE_AREA 00000FDC - 0000129F (0x2c4 bytes), align: 2
  Segment part 220.           Intra module refs:   DrawScreen
           ENTRY                   ADDRESS         REF BY
           =====                   =======         ======
           DrwImg                  00000FDC 
               stack 1 = 00000000 ( 0000006C )
    -------------------------------------------------------------------------
CODE
  Relative segment, address: CODE_AREA 000012A0 - 000012A3 (0x4 bytes), align: 2
  Segment part 221.           Intra module refs:   DrwImg
    -------------------------------------------------------------------------
CODE
  Segment part 222. NOT NEEDED.
    -------------------------------------------------------------------------
DATA_Z
  Relative segment, address: CODE_AREA 0000DB90 - 0000DB90 (0x1 bytes), align: 0
  Segment part 148.           Intra module refs:   DiskErrorMsg
           ENTRY                   ADDRESS         REF BY
           =====                   =======         ======
           Q_DiskError             0000DB90 
    -------------------------------------------------------------------------
CODE
  Relative segment, address: CODE_AREA 000012A4 - 0000133B (0x98 bytes), align: 2
  Segment part 223.           Intra module refs:   DoDiskAccess
                                                   FL_saver
                                                   FirstLoadFile
           ENTRY                   ADDRESS         REF BY
           =====                   =======         ======
           DiskErrorMsg            000012A4        savetext (saver)
               stack 1 = 00000000 ( 00000010 )
    -------------------------------------------------------------------------
CODE
  Segment part 224. NOT NEEDED.
    -------------------------------------------------------------------------
DATA_C
  Relative segment, address: CODE_AREA 000086F4 - 00008773 (0x80 bytes), align: 2
  Segment part 149.           Intra module refs:   Segment part 235
                                                   Segment part 382
           ENTRY                   ADDRESS         REF BY
           =====                   =======         ======
           wintranslation          000086F4        GetCharType_x (convert_format)
    -------------------------------------------------------------------------
DATA_C
  Relative segment, address: CODE_AREA 00008774 - 000087F3 (0x80 bytes), align: 2
  Segment part 150.           Intra module refs:   Segment part 236
                                                   Segment part 383
           ENTRY                   ADDRESS         REF BY
           =====                   =======         ======
           koi8translation         00008774        GetCharType_x (convert_format)
    -------------------------------------------------------------------------
DATA_C
  Relative segment, address: CODE_AREA 000087F4 - 000088F3 (0x100 bytes), align: 2
  Segment part 151.           Intra module refs:   Segment part 384
           ENTRY                   ADDRESS         REF BY
           =====                   =======         ======
           dos2unicode             000087F4 
    -------------------------------------------------------------------------
CODE
  Segment part 225. NOT NEEDED.
           ENTRY                   ADDRESS         REF BY
           =====                   =======         ======
           char8to16               
               not allocated function
    -------------------------------------------------------------------------
CODE
  Segment part 226. NOT NEEDED.
    -------------------------------------------------------------------------
CODE
  Segment part 227. NOT NEEDED.
    -------------------------------------------------------------------------
CODE
  Relative segment, address: CODE_AREA 0000133C - 000013AF (0x74 bytes), align: 2
  Segment part 228.           Intra module refs:   FirstLoadFile
                                                   LoadFont
                                                   method5
           ENTRY                   ADDRESS         REF BY
           =====                   =======         ======
           CharWidthForCodepage    0000133C        ConvertFormat (convert_format)
    -------------------------------------------------------------------------
CODE
  Relative segment, address: CODE_AREA 000013B0 - 000013B3 (0x4 bytes), align: 2
  Segment part 229.           Intra module refs:   CharWidthForCodepage
    -------------------------------------------------------------------------
CODE
  Segment part 230. NOT NEEDED.
    -------------------------------------------------------------------------
DATA_C
  Relative segment, address: CODE_AREA 000088F4 - 00008B4B (0x258 bytes), align: 2
  Segment part 152.           Intra module refs:   char16to8
           ENTRY                   ADDRESS         REF BY
           =====                   =======         ======
           unicode2char            000088F4 
    -------------------------------------------------------------------------
CODE
  Relative segment, address: CODE_AREA 000013B4 - 0000142B (0x78 bytes), align: 2
  Segment part 231.           Intra module refs:   ed_inp_redraw
           ENTRY                   ADDRESS         REF BY
           =====                   =======         ======
           char16to8               000013B4 
    -------------------------------------------------------------------------
CODE
  Segment part 232. NOT NEEDED.
    -------------------------------------------------------------------------
CODE
  Relative segment, address: CODE_AREA 0000142C - 000015EB (0x1c0 bytes), align: 2
  Segment part 233.           Intra module refs:   drawFrmStkStr
                                                   drawStkStr
           ENTRY                   ADDRESS         REF BY
           =====                   =======         ======
           DrawChar                0000142C 
               stack 1 = 00000000 ( 00000038 )
    -------------------------------------------------------------------------
CODE
  Relative segment, address: CODE_AREA 000015EC - 000015EF (0x4 bytes), align: 2
  Segment part 234.           Intra module refs:   DrawChar
                                                   DrwImg
    -------------------------------------------------------------------------
CODE
  Relative segment, address: CODE_AREA 000015F0 - 000015F3 (0x4 bytes), align: 2
  Segment part 235.           Intra module refs:   CharWidthForCodepage
                                                   DrawChar
    -------------------------------------------------------------------------
CODE
  Relative segment, address: CODE_AREA 000015F4 - 000015F7 (0x4 bytes), align: 2
  Segment part 236.           Intra module refs:   CharWidthForCodepage
                                                   DrawChar
    -------------------------------------------------------------------------
CODE
  Relative segment, address: CODE_AREA 000015F8 - 000015FB (0x4 bytes), align: 2
  Segment part 237.           Intra module refs:   DrawChar
    -------------------------------------------------------------------------
CODE
  Relative segment, address: CODE_AREA 000015FC - 000015FF (0x4 bytes), align: 2
  Segment part 238.           Intra module refs:   DrawChar
    -------------------------------------------------------------------------
CODE
  Relative segment, address: CODE_AREA 00001600 - 00001603 (0x4 bytes), align: 2
  Segment part 239.           Intra module refs:   DrawChar
                                                   DrwImg
    -------------------------------------------------------------------------
CODE
  Relative segment, address: CODE_AREA 00001604 - 00001607 (0x4 bytes), align: 2
  Segment part 240.           Intra module refs:   DrawChar
    -------------------------------------------------------------------------
CODE
  Segment part 241. NOT NEEDED.
    -------------------------------------------------------------------------
CODE
  Relative segment, address: CODE_AREA 00001608 - 000016C3 (0xbc bytes), align: 2
  Segment part 242.           Intra module refs:   DrawScreen
           ENTRY                   ADDRESS         REF BY
           =====                   =======         ======
           drawStkStr              00001608 
               stack 1 = 00000000 ( 00000024 )
    -------------------------------------------------------------------------
CODE
  Segment part 243. NOT NEEDED.
    -------------------------------------------------------------------------
CODE
  Relative segment, address: CODE_AREA 000016C4 - 000018AB (0x1e8 bytes), align: 2
  Segment part 244.           Intra module refs:   DrawScreen
           ENTRY                   ADDRESS         REF BY
           =====                   =======         ======
           drawFrmStkStr           000016C4 
               stack 1 = 00000000 ( 0000002C )
    -------------------------------------------------------------------------
CODE
  Relative segment, address: CODE_AREA 000018AC - 000018AF (0x4 bytes), align: 2
  Segment part 245.           Intra module refs:   CharWidthForCodepage
                                                   drawFrmStkStr
                                                   drawStkStr
    -------------------------------------------------------------------------
CODE
  Relative segment, address: CODE_AREA 000018B0 - 000018B3 (0x4 bytes), align: 2
  Segment part 246.           Intra module refs:   DrwImg
                                                   drawFrmStkStr
                                                   drawStkStr
    -------------------------------------------------------------------------
CODE
  Segment part 247. NOT NEEDED.
    -------------------------------------------------------------------------
CODE
  Segment part 248. NOT NEEDED.
           ENTRY                   ADDRESS         REF BY
           =====                   =======         ======
           FindFreeBlock           
               not allocated function
    -------------------------------------------------------------------------
CODE
  Segment part 249. NOT NEEDED.
    -------------------------------------------------------------------------
CODE
  Relative segment, address: CODE_AREA 000018B4 - 00001CBB (0x408 bytes), align: 2
  Segment part 250.           Intra module refs:   GotoLine
                                                   maincsm_onmessage
                                                   method5
           ENTRY                   ADDRESS         REF BY
           =====                   =======         ======
           DoDiskAccess            000018B4 
               stack 1 = 00000000 ( 00000030 )
    -------------------------------------------------------------------------
CODE
  Relative segment, address: CODE_AREA 00001CBC - 00001CBF (0x4 bytes), align: 2
  Segment part 251.           Intra module refs:   DoDiskAccess
    -------------------------------------------------------------------------
CODE
  Relative segment, address: CODE_AREA 00001CC0 - 00001CC3 (0x4 bytes), align: 2
  Segment part 252.           Intra module refs:   DoDiskAccess
    -------------------------------------------------------------------------
CODE
  Relative segment, address: CODE_AREA 00001CC4 - 00001CC7 (0x4 bytes), align: 2
  Segment part 253.           Intra module refs:   DoDiskAccess
    -------------------------------------------------------------------------
CODE
  Relative segment, address: CODE_AREA 00001CC8 - 00001CCB (0x4 bytes), align: 2
  Segment part 254.           Intra module refs:   DoDiskAccess
    -------------------------------------------------------------------------
CODE
  Relative segment, address: CODE_AREA 00001CCC - 00001CCF (0x4 bytes), align: 2
  Segment part 255.           Intra module refs:   DoDiskAccess
    -------------------------------------------------------------------------
CODE
  Relative segment, address: CODE_AREA 00001CD0 - 00001CD3 (0x4 bytes), align: 2
  Segment part 256.           Intra module refs:   DoDiskAccess
    -------------------------------------------------------------------------
CODE
  Segment part 257. NOT NEEDED.
    -------------------------------------------------------------------------
CODE
  Relative segment, address: CODE_AREA 00001CD4 - 00001D6B (0x98 bytes), align: 2
  Segment part 258.           Intra module refs:   GotoLine
                                                   maincsm_onmessage
                                                   method5
           ENTRY                   ADDRESS         REF BY
           =====                   =======         ======
           CheckDiskAccess         00001CD4 
               stack 1 = 00000000 ( 00000004 )
    -------------------------------------------------------------------------
CODE
  Relative segment, address: CODE_AREA 00001D6C - 00001D6F (0x4 bytes), align: 2
  Segment part 259.           Intra module refs:   CheckDiskAccess
                                                   DoDiskAccess
    -------------------------------------------------------------------------
CODE
  Relative segment, address: CODE_AREA 00001D70 - 00001D73 (0x4 bytes), align: 2
  Segment part 260.           Intra module refs:   CheckDiskAccess
                                                   DoDiskAccess
    -------------------------------------------------------------------------
CODE
  Relative segment, address: CODE_AREA 00001D74 - 00001D77 (0x4 bytes), align: 2
  Segment part 261.           Intra module refs:   CheckDiskAccess
                                                   DoDiskAccess
    -------------------------------------------------------------------------
CODE
  Segment part 262. NOT NEEDED.
    -------------------------------------------------------------------------
CODE
  Segment part 263. NOT NEEDED.
           ENTRY                   ADDRESS         REF BY
           =====                   =======         ======
           strcmp_nocase           
               not allocated function
    -------------------------------------------------------------------------
CODE
  Segment part 264. NOT NEEDED.
    -------------------------------------------------------------------------
CODE
  Relative segment, address: CODE_AREA 00001D78 - 00001E47 (0xd0 bytes), align: 2
  Segment part 265.           Intra module refs:   FirstLoadFile
                                                   SaveHistory
           ENTRY                   ADDRESS         REF BY
           =====                   =======         ======
           SearchHistory           00001D78 
               stack 1 = 00000000 ( 00000094 )
    -------------------------------------------------------------------------
CODE
  Segment part 266. NOT NEEDED.
    -------------------------------------------------------------------------
CODE
  Relative segment, address: CODE_AREA 00001E48 - 00001F83 (0x13c bytes), align: 2
  Segment part 267.           Intra module refs:   Killer
           ENTRY                   ADDRESS         REF BY
           =====                   =======         ======
           SaveHistory             00001E48 
               stack 1 = 00000000 ( 0000013C )
    -------------------------------------------------------------------------
CODE
  Relative segment, address: CODE_AREA 00001F84 - 00001F87 (0x4 bytes), align: 2
  Segment part 268.           Intra module refs:   SaveHistory
                                                   SearchHistory
    -------------------------------------------------------------------------
CODE
  Relative segment, address: CODE_AREA 00001F88 - 00001F8B (0x4 bytes), align: 2
  Segment part 269.           Intra module refs:   SaveHistory
                                                   SearchHistory
    -------------------------------------------------------------------------
CODE
  Relative segment, address: CODE_AREA 00001F8C - 00001F8F (0x4 bytes), align: 2
  Segment part 270.           Intra module refs:   SaveHistory
                                                   SearchHistory
    -------------------------------------------------------------------------
CODE
  Relative segment, address: CODE_AREA 00001F90 - 00001F93 (0x4 bytes), align: 2
  Segment part 271.           Intra module refs:   SaveHistory
    -------------------------------------------------------------------------
CODE
  Relative segment, address: CODE_AREA 00001F94 - 00001F97 (0x4 bytes), align: 2
  Segment part 272.           Intra module refs:   SaveHistory
    -------------------------------------------------------------------------
CODE
  Relative segment, address: CODE_AREA 00001F98 - 00001F9B (0x4 bytes), align: 2
  Segment part 273.           Intra module refs:   CharWidthForCodepage
                                                   DrawChar
                                                   SaveHistory
                                                   char16to8
    -------------------------------------------------------------------------
CODE
  Relative segment, address: CODE_AREA 00001F9C - 00001F9F (0x4 bytes), align: 2
  Segment part 274.           Intra module refs:   SaveHistory
    -------------------------------------------------------------------------
CODE
  Segment part 275. NOT NEEDED.
    -------------------------------------------------------------------------
CODE
  Relative segment, address: CODE_AREA 00001FA0 - 000020AB (0x10c bytes), align: 2
  Segment part 276.           Intra module refs:   FirstLoadFile
                                                   Segment part 527
           ENTRY                   ADDRESS         REF BY
           =====                   =======         ======
           GotoLine                00001FA0 
               stack 1 = 00000000 ( 00000014 )
    -------------------------------------------------------------------------
CODE
  Relative segment, address: CODE_AREA 000020AC - 000020AF (0x4 bytes), align: 2
  Segment part 277.           Intra module refs:   CheckDiskAccess
                                                   DoDiskAccess
                                                   GotoLine
    -------------------------------------------------------------------------
CODE
  Relative segment, address: CODE_AREA 000020B0 - 000020B3 (0x4 bytes), align: 2
  Segment part 278.           Intra module refs:   GotoLine
    -------------------------------------------------------------------------
CODE
  Relative segment, address: CODE_AREA 000020B4 - 000020B7 (0x4 bytes), align: 2
  Segment part 279.           Intra module refs:   DoDiskAccess
                                                   GotoLine
    -------------------------------------------------------------------------
CODE
  Relative segment, address: CODE_AREA 000020B8 - 000020BB (0x4 bytes), align: 2
  Segment part 280.           Intra module refs:   GotoLine
    -------------------------------------------------------------------------
CODE
  Relative segment, address: CODE_AREA 000020BC - 000020BF (0x4 bytes), align: 2
  Segment part 281.           Intra module refs:   DoDiskAccess
                                                   GotoLine
    -------------------------------------------------------------------------
CODE
  Segment part 282. NOT NEEDED.
    -------------------------------------------------------------------------
CODE
  Segment part 283. NOT NEEDED.
           ENTRY                   ADDRESS         REF BY
           =====                   =======         ======
           LineUp                  
               not allocated function
    -------------------------------------------------------------------------
CODE
  Segment part 284. NOT NEEDED.
    -------------------------------------------------------------------------
CODE
  Relative segment, address: CODE_AREA 000020C0 - 00002123 (0x64 bytes), align: 2
  Segment part 285.           Intra module refs:   actDown
                                                   maincsm_onmessage
           ENTRY                   ADDRESS         REF BY
           =====                   =======         ======
           LineDw                  000020C0 
               stack 1 = 00000000 ( 00000004 )
    -------------------------------------------------------------------------
CODE
  Relative segment, address: CODE_AREA 00002124 - 00002127 (0x4 bytes), align: 2
  Segment part 286.           Intra module refs:   GotoLine
                                                   LineDw
    -------------------------------------------------------------------------
CODE
  Relative segment, address: CODE_AREA 00002128 - 0000212B (0x4 bytes), align: 2
  Segment part 287.           Intra module refs:   GotoLine
                                                   LineDw
    -------------------------------------------------------------------------
CODE
  Segment part 288. NOT NEEDED.
    -------------------------------------------------------------------------
CODE
  Relative segment, address: CODE_AREA 0000212C - 0000218F (0x64 bytes), align: 2
  Segment part 289.           Intra module refs:   actUp
                                                   maincsm_onmessage
                                                   method5
           ENTRY                   ADDRESS         REF BY
           =====                   =======         ======
           PageUp                  0000212C 
               stack 1 = 00000000 ( 00000008 )
    -------------------------------------------------------------------------
CODE
  Segment part 290. NOT NEEDED.
    -------------------------------------------------------------------------
CODE
  Segment part 291. NOT NEEDED.
           ENTRY                   ADDRESS         REF BY
           =====                   =======         ======
           PageDw                  
               not allocated function
    -------------------------------------------------------------------------
CODE
  Relative segment, address: CODE_AREA 00002190 - 00002193 (0x4 bytes), align: 2
  Segment part 292.           Intra module refs:   DoDiskAccess
                                                   GotoLine
                                                   LineDw
    -------------------------------------------------------------------------
CODE
  Relative segment, address: CODE_AREA 00002194 - 00002197 (0x4 bytes), align: 2
  Segment part 293.           Intra module refs:   GotoLine
                                                   LineDw
                                                   PageUp
    -------------------------------------------------------------------------
CODE
  Segment part 294. NOT NEEDED.
    -------------------------------------------------------------------------
CODE
  Relative segment, address: CODE_AREA 00002198 - 00002213 (0x7c bytes), align: 2
  Segment part 295.           Intra module refs:   method5
           ENTRY                   ADDRESS         REF BY
           =====                   =======         ======
           ToEOL                   00002198 
               stack 1 = 00000000 ( 00000004 )
    -------------------------------------------------------------------------
CODE
  Segment part 296. NOT NEEDED.
    -------------------------------------------------------------------------
CODE
  Segment part 297. NOT NEEDED.
           ENTRY                   ADDRESS         REF BY
           =====                   =======         ======
           ToBOL                   
               not allocated function
    -------------------------------------------------------------------------
CODE
  Segment part 298. NOT NEEDED.
    -------------------------------------------------------------------------
CODE
  Relative segment, address: CODE_AREA 00002214 - 00002277 (0x64 bytes), align: 2
  Segment part 299.           Intra module refs:   method5
           ENTRY                   ADDRESS         REF BY
           =====                   =======         ======
           WordLeft                00002214 
    -------------------------------------------------------------------------
CODE
  Relative segment, address: CODE_AREA 00002278 - 0000227B (0x4 bytes), align: 2
  Segment part 300.           Intra module refs:   ToEOL
                                                   WordLeft
                                                   drawFrmStkStr
                                                   drawStkStr
    -------------------------------------------------------------------------
CODE
  Segment part 301. NOT NEEDED.
    -------------------------------------------------------------------------
CODE
  Relative segment, address: CODE_AREA 0000227C - 00002377 (0xfc bytes), align: 2
  Segment part 302.           Intra module refs:   method5
           ENTRY                   ADDRESS         REF BY
           =====                   =======         ======
           WordRight               0000227C 
               stack 1 = 00000000 ( 00000010 )
    -------------------------------------------------------------------------
CODE
  Relative segment, address: CODE_AREA 00002378 - 0000237B (0x4 bytes), align: 2
  Segment part 303.           Intra module refs:   CheckDiskAccess
                                                   DoDiskAccess
                                                   GotoLine
                                                   LineDw
                                                   WordRight
    -------------------------------------------------------------------------
CODE
  Relative segment, address: CODE_AREA 0000237C - 0000237F (0x4 bytes), align: 2
  Segment part 304.           Intra module refs:   DoDiskAccess
                                                   WordRight
    -------------------------------------------------------------------------
CODE
  Relative segment, address: CODE_AREA 00002380 - 00002383 (0x4 bytes), align: 2
  Segment part 305.           Intra module refs:   GotoLine
                                                   LineDw
                                                   ToEOL
                                                   WordRight
    -------------------------------------------------------------------------
CODE
  Relative segment, address: CODE_AREA 00002384 - 00002387 (0x4 bytes), align: 2
  Segment part 306.           Intra module refs:   ToEOL
                                                   WordRight
                                                   drawFrmStkStr
                                                   drawStkStr
    -------------------------------------------------------------------------
CODE
  Relative segment, address: CODE_AREA 00002388 - 0000238B (0x4 bytes), align: 2
  Segment part 307.           Intra module refs:   ToEOL
                                                   WordRight
                                                   drawFrmStkStr
                                                   drawStkStr
    -------------------------------------------------------------------------
CODE
  Segment part 308. NOT NEEDED.
    -------------------------------------------------------------------------
CODE
  Relative segment, address: CODE_AREA 0000238C - 000024DB (0x150 bytes), align: 2
  Segment part 309.           Intra module refs:   DrawScreen
           ENTRY                   ADDRESS         REF BY
           =====                   =======         ======
           DrawInfo                0000238C 
               stack 1 = 00000000 ( 00000068 )
    -------------------------------------------------------------------------
CODE
  Relative segment, address: CODE_AREA 000024DC - 000024DF (0x4 bytes), align: 2
  Segment part 310.           Intra module refs:   DrawInfo
    -------------------------------------------------------------------------
CODE
  Relative segment, address: CODE_AREA 000024E0 - 000024E3 (0x4 bytes), align: 2
  Segment part 311.           Intra module refs:   DrawInfo
                                                   SaveHistory
                                                   SearchHistory
    -------------------------------------------------------------------------
CODE
  Relative segment, address: CODE_AREA 000024E4 - 000024E7 (0x4 bytes), align: 2
  Segment part 312.           Intra module refs:   DrawInfo
                                                   SaveHistory
    -------------------------------------------------------------------------
CODE
  Relative segment, address: CODE_AREA 000024E8 - 000024EB (0x4 bytes), align: 2
  Segment part 313.           Intra module refs:   DrawInfo
                                                   GotoLine
                                                   LineDw
                                                   PageUp
                                                   SaveHistory
    -------------------------------------------------------------------------
CODE
  Segment part 314. NOT NEEDED.
    -------------------------------------------------------------------------
CODE
  Relative segment, address: CODE_AREA 000024EC - 00002EDB (0x9f0 bytes), align: 2
  Segment part 315.           Intra module refs:   ed_inp_redraw
                                                   method0
                                                   method5
           ENTRY                   ADDRESS         REF BY
           =====                   =======         ======
           DrawScreen              000024EC 
               stack 1 = 00000000 ( 00000064 )
    -------------------------------------------------------------------------
CODE
  Relative segment, address: CODE_AREA 00002EDC - 00002EDF (0x4 bytes), align: 2
  Segment part 316.           Intra module refs:   DrawScreen
    -------------------------------------------------------------------------
CODE
  Relative segment, address: CODE_AREA 00002EE0 - 00002EE3 (0x4 bytes), align: 2
  Segment part 317.           Intra module refs:   DrawScreen
    -------------------------------------------------------------------------
CODE
  Relative segment, address: CODE_AREA 00002EE4 - 00002EE7 (0x4 bytes), align: 2
  Segment part 318.           Intra module refs:   DrawInfo
                                                   DrawScreen
    -------------------------------------------------------------------------
CODE
  Relative segment, address: CODE_AREA 00002EE8 - 00002EEB (0x4 bytes), align: 2
  Segment part 319.           Intra module refs:   DrawInfo
                                                   DrawScreen
    -------------------------------------------------------------------------
CODE
  Relative segment, address: CODE_AREA 00002EEC - 00002EEF (0x4 bytes), align: 2
  Segment part 320.           Intra module refs:   DrawScreen
    -------------------------------------------------------------------------
CODE
  Relative segment, address: CODE_AREA 00002EF0 - 00002EF3 (0x4 bytes), align: 2
  Segment part 321.           Intra module refs:   DrawScreen
                                                   WordRight
    -------------------------------------------------------------------------
CODE
  Relative segment, address: CODE_AREA 00002EF4 - 00002EF7 (0x4 bytes), align: 2
  Segment part 322.           Intra module refs:   DrawScreen
    -------------------------------------------------------------------------
CODE
  Relative segment, address: CODE_AREA 00002EF8 - 00002EFB (0x4 bytes), align: 2
  Segment part 323.           Intra module refs:   DrawScreen
    -------------------------------------------------------------------------
CODE
  Relative segment, address: CODE_AREA 00002EFC - 00002EFF (0x4 bytes), align: 2
  Segment part 324.           Intra module refs:   DrawScreen
    -------------------------------------------------------------------------
CODE
  Relative segment, address: CODE_AREA 00002F00 - 00002F03 (0x4 bytes), align: 2
  Segment part 325.           Intra module refs:   DrawScreen
    -------------------------------------------------------------------------
CODE
  Relative segment, address: CODE_AREA 00002F04 - 00002F07 (0x4 bytes), align: 2
  Segment part 326.           Intra module refs:   DrawScreen
    -------------------------------------------------------------------------
CODE
  Relative segment, address: CODE_AREA 00002F08 - 00002F0B (0x4 bytes), align: 2
  Segment part 327.           Intra module refs:   DrawScreen
    -------------------------------------------------------------------------
CODE
  Relative segment, address: CODE_AREA 00002F0C - 00002F0F (0x4 bytes), align: 2
  Segment part 328.           Intra module refs:   DrawScreen
    -------------------------------------------------------------------------
CODE
  Relative segment, address: CODE_AREA 00002F10 - 00002F13 (0x4 bytes), align: 2
  Segment part 329.           Intra module refs:   DrawScreen
    -------------------------------------------------------------------------
CODE
  Segment part 330. NOT NEEDED.
    -------------------------------------------------------------------------
CODE
  Relative segment, address: CODE_AREA 00002F14 - 00002FE3 (0xd0 bytes), align: 2
  Segment part 331.           Intra module refs:   ed_inp_ghook
                                                   method5
           ENTRY                   ADDRESS         REF BY
           =====                   =======         ======
           doCurRight              00002F14 
               stack 1 = 00000000 ( 00000018 )
    -------------------------------------------------------------------------
CODE
  Relative segment, address: CODE_AREA 00002FE4 - 00002FE7 (0x4 bytes), align: 2
  Segment part 332.           Intra module refs:   DrawScreen
                                                   ToEOL
                                                   WordLeft
                                                   WordRight
                                                   doCurRight
    -------------------------------------------------------------------------
CODE
  Relative segment, address: CODE_AREA 00002FE8 - 00002FEB (0x4 bytes), align: 2
  Segment part 333.           Intra module refs:   DrawScreen
                                                   ToEOL
                                                   WordLeft
                                                   WordRight
                                                   doCurRight
    -------------------------------------------------------------------------
CODE
  Relative segment, address: CODE_AREA 00002FEC - 00002FEF (0x4 bytes), align: 2
  Segment part 334.           Intra module refs:   DrawScreen
                                                   WordRight
                                                   doCurRight
    -------------------------------------------------------------------------
CODE
  Relative segment, address: CODE_AREA 00002FF0 - 00002FF3 (0x4 bytes), align: 2
  Segment part 335.           Intra module refs:   DrawScreen
                                                   doCurRight
    -------------------------------------------------------------------------
CODE
  Relative segment, address: CODE_AREA 00002FF4 - 00002FF7 (0x4 bytes), align: 2
  Segment part 336.           Intra module refs:   DrawScreen
                                                   doCurRight
    -------------------------------------------------------------------------
CODE
  Relative segment, address: CODE_AREA 00002FF8 - 00002FFB (0x4 bytes), align: 2
  Segment part 337.           Intra module refs:   DrawScreen
                                                   doCurRight
    -------------------------------------------------------------------------
CODE
  Segment part 338. NOT NEEDED.
    -------------------------------------------------------------------------
CODE
  Relative segment, address: CODE_AREA 00002FFC - 00003083 (0x88 bytes), align: 2
  Segment part 339.           Intra module refs:   ed_inp_ghook
                                                   method5
           ENTRY                   ADDRESS         REF BY
           =====                   =======         ======
           doCurLeft               00002FFC 
               stack 1 = 00000000 ( 0000000C )
    -------------------------------------------------------------------------
CODE
  Relative segment, address: CODE_AREA 00003084 - 00003087 (0x4 bytes), align: 2
  Segment part 340.           Intra module refs:   DrawScreen
                                                   doCurLeft
                                                   doCurRight
    -------------------------------------------------------------------------
CODE
  Relative segment, address: CODE_AREA 00003088 - 0000308B (0x4 bytes), align: 2
  Segment part 341.           Intra module refs:   DrawScreen
                                                   doCurLeft
                                                   doCurRight
    -------------------------------------------------------------------------
CODE
  Segment part 342. NOT NEEDED.
    -------------------------------------------------------------------------
CODE
  Relative segment, address: CODE_AREA 0000308C - 000030D7 (0x4c bytes), align: 2
  Segment part 343.           Intra module refs:   Segment part 154
           ENTRY                   ADDRESS         REF BY
           =====                   =======         ======
           insline                 0000308C 
               stack 1 = 00000000 ( 00000004 )
    -------------------------------------------------------------------------
CODE
  Segment part 344. NOT NEEDED.
    -------------------------------------------------------------------------
CODE
  Relative segment, address: CODE_AREA 000030D8 - 00003123 (0x4c bytes), align: 2
  Segment part 345.           Intra module refs:   Segment part 154
           ENTRY                   ADDRESS         REF BY
           =====                   =======         ======
           delline                 000030D8 
               stack 1 = 00000000 ( 00000008 )
    -------------------------------------------------------------------------
CODE
  Segment part 346. NOT NEEDED.
    -------------------------------------------------------------------------
CODE
  Relative segment, address: CODE_AREA 00003124 - 0000320F (0xec bytes), align: 2
  Segment part 347.           Intra module refs:   Segment part 154
           ENTRY                   ADDRESS         REF BY
           =====                   =======         ======
           splitline               00003124 
               stack 1 = 00000000 ( 0000000C )
    -------------------------------------------------------------------------
CODE
  Relative segment, address: CODE_AREA 00003210 - 00003213 (0x4 bytes), align: 2
  Segment part 348.           Intra module refs:   doCurLeft
                                                   splitline
    -------------------------------------------------------------------------
CODE
  Segment part 349. NOT NEEDED.
    -------------------------------------------------------------------------
CODE
  Relative segment, address: CODE_AREA 00003214 - 0000329B (0x88 bytes), align: 2
  Segment part 350.           Intra module refs:   Segment part 154
           ENTRY                   ADDRESS         REF BY
           =====                   =======         ======
           joinlines               00003214 
               stack 1 = 00000000 ( 00000008 )
    -------------------------------------------------------------------------
CODE
  Segment part 351. NOT NEEDED.
    -------------------------------------------------------------------------
CODE
  Relative segment, address: CODE_AREA 0000329C - 0000331F (0x84 bytes), align: 2
  Segment part 352.           Intra module refs:   Segment part 154
           ENTRY                   ADDRESS         REF BY
           =====                   =======         ======
           instime                 0000329C 
               stack 1 = 00000000 ( 00000018 )
    -------------------------------------------------------------------------
CODE
  Segment part 353. NOT NEEDED.
    -------------------------------------------------------------------------
CODE
  Relative segment, address: CODE_AREA 00003320 - 000033AF (0x90 bytes), align: 2
  Segment part 354.           Intra module refs:   Segment part 154
           ENTRY                   ADDRESS         REF BY
           =====                   =======         ======
           insdate                 00003320 
               stack 1 = 00000000 ( 0000001C )
    -------------------------------------------------------------------------
CODE
  Relative segment, address: CODE_AREA 000033B0 - 000033B3 (0x4 bytes), align: 2
  Segment part 355.           Intra module refs:   DrawScreen
                                                   insdate
                                                   instime
                                                   splitline
    -------------------------------------------------------------------------
CODE
  Relative segment, address: CODE_AREA 000033B4 - 000033B7 (0x4 bytes), align: 2
  Segment part 356.           Intra module refs:   DrawScreen
                                                   insdate
                                                   instime
                                                   splitline
    -------------------------------------------------------------------------
CODE
  Relative segment, address: CODE_AREA 000033B8 - 000033BB (0x4 bytes), align: 2
  Segment part 357.           Intra module refs:   DrawScreen
                                                   insdate
                                                   instime
                                                   splitline
    -------------------------------------------------------------------------
CODE
  Segment part 358. NOT NEEDED.
    -------------------------------------------------------------------------
CODE
  Relative segment, address: CODE_AREA 000033BC - 000033D7 (0x1c bytes), align: 2
  Segment part 359.           Intra module refs:   Segment part 154
           ENTRY                   ADDRESS         REF BY
           =====                   =======         ======
           paste                   000033BC 
               stack 1 = 00000000 ( 00000004 )
    -------------------------------------------------------------------------
CODE
  Segment part 360. NOT NEEDED.
    -------------------------------------------------------------------------
CODE
  Relative segment, address: CODE_AREA 000033D8 - 000033F3 (0x1c bytes), align: 2
  Segment part 361.           Intra module refs:   Segment part 154
           ENTRY                   ADDRESS         REF BY
           =====                   =======         ======
           clearclipb              000033D8 
               stack 1 = 00000000 ( 00000004 )
    -------------------------------------------------------------------------
CODE
  Relative segment, address: CODE_AREA 000033F4 - 000033F7 (0x4 bytes), align: 2
  Segment part 362.           Intra module refs:   clearclipb
                                                   paste
    -------------------------------------------------------------------------
CODE
  Segment part 363. NOT NEEDED.
    -------------------------------------------------------------------------
DATA_I
  Relative segment, address: DATA_AREA 00000098 - 000000B7 (0x20 bytes), align: 2
  Segment part 153.           Intra module refs:   Segment part 160
           ENTRY                   ADDRESS         REF BY
           =====                   =======         ======
           edmenu_HNDLS            00000098 
    -------------------------------------------------------------------------
DATA_I
  Relative segment, address: DATA_AREA 000000B8 - 00000197 (0xe0 bytes), align: 2
  Segment part 155.           Intra module refs:   Segment part 160
           ENTRY                   ADDRESS         REF BY
           =====                   =======         ======
           edmenu_ITEMS            000000B8 
    -------------------------------------------------------------------------
DATA_I
  Relative segment, address: DATA_AREA 00000198 - 000001AB (0x14 bytes), align: 2
  Segment part 157.           Intra module refs:   ed_inp_onkey
           ENTRY                   ADDRESS         REF BY
           =====                   =======         ======
           edmenu_HDR              00000198 
    -------------------------------------------------------------------------
DATA_I
  Relative segment, address: DATA_AREA 000001AC - 000001D7 (0x2c bytes), align: 2
  Segment part 159.           Intra module refs:   ed_inp_onkey
           ENTRY                   ADDRESS         REF BY
           =====                   =======         ======
           edmenu_STRUCT           000001AC 
    -------------------------------------------------------------------------
CODE
  Relative segment, address: CODE_AREA 000033F8 - 0000354F (0x158 bytes), align: 2
  Segment part 364.           Intra module refs:   Segment part 167
           ENTRY                   ADDRESS         REF BY
           =====                   =======         ======
           ed_inp_onkey            000033F8 
               stack 1 = 00000000 ( 00000018 )
    -------------------------------------------------------------------------
CODE
  Segment part 365. NOT NEEDED.
    -------------------------------------------------------------------------
CODE
  Relative segment, address: CODE_AREA 00003550 - 00003627 (0xd8 bytes), align: 2
  Segment part 366.           Intra module refs:   ed_inp_ghook
           ENTRY                   ADDRESS         REF BY
           =====                   =======         ======
           ed_inp_redraw           00003550 
               stack 1 = 00000000 ( 00000020 )
    -------------------------------------------------------------------------
CODE
  Relative segment, address: CODE_AREA 00003628 - 0000362B (0x4 bytes), align: 2
  Segment part 367.           Intra module refs:   ed_inp_redraw
    -------------------------------------------------------------------------
CODE
  Relative segment, address: CODE_AREA 0000362C - 0000362F (0x4 bytes), align: 2
  Segment part 368.           Intra module refs:   DrawScreen
                                                   delline
                                                   doCurRight
                                                   ed_inp_redraw
                                                   insline
                                                   joinlines
                                                   splitline
    -------------------------------------------------------------------------
CODE
  Relative segment, address: CODE_AREA 00003630 - 00003633 (0x4 bytes), align: 2
  Segment part 369.           Intra module refs:   DrawScreen
                                                   delline
                                                   ed_inp_redraw
                                                   joinlines
                                                   splitline
    -------------------------------------------------------------------------
CODE
  Relative segment, address: CODE_AREA 00003634 - 00003637 (0x4 bytes), align: 2
  Segment part 370.           Intra module refs:   delline
                                                   ed_inp_redraw
                                                   insdate
                                                   insline
                                                   instime
                                                   joinlines
                                                   splitline
    -------------------------------------------------------------------------
CODE
  Relative segment, address: CODE_AREA 00003638 - 0000363B (0x4 bytes), align: 2
  Segment part 371.           Intra module refs:   DrawScreen
                                                   doCurRight
                                                   ed_inp_redraw
                                                   insline
                                                   joinlines
                                                   splitline
    -------------------------------------------------------------------------
CODE
  Relative segment, address: CODE_AREA 0000363C - 0000363F (0x4 bytes), align: 2
  Segment part 372.           Intra module refs:   DrawScreen
                                                   delline
                                                   ed_inp_redraw
                                                   insdate
                                                   insline
                                                   instime
                                                   joinlines
                                                   splitline
    -------------------------------------------------------------------------
CODE
  Segment part 373. NOT NEEDED.
    -------------------------------------------------------------------------
CODE
  Relative segment, address: CODE_AREA 00003640 - 00003643 (0x4 bytes), align: 2
  Segment part 374.           Intra module refs:   Segment part 167
           ENTRY                   ADDRESS         REF BY
           =====                   =======         ======
           ed_inp_locret           00003640 
    -------------------------------------------------------------------------
CODE
  Segment part 375. NOT NEEDED.
    -------------------------------------------------------------------------
CODE
  Relative segment, address: CODE_AREA 00003644 - 0000373F (0xfc bytes), align: 2
  Segment part 376.           Intra module refs:   Segment part 167
           ENTRY                   ADDRESS         REF BY
           =====                   =======         ======
           ed_inp_ghook            00003644 
               stack 1 = 00000000 ( 0000003C )
    -------------------------------------------------------------------------
CODE
  Relative segment, address: CODE_AREA 00003740 - 00003743 (0x4 bytes), align: 2
  Segment part 377.           Intra module refs:   doCurLeft
                                                   ed_inp_ghook
                                                   splitline
    -------------------------------------------------------------------------
CODE
  Segment part 378. NOT NEEDED.
    -------------------------------------------------------------------------
DATA_I
  Relative segment, address: DATA_AREA 000001D8 - 000001DF (0x8 bytes), align: 2
  Segment part 161.           Intra module refs:   ed_inp_ghook
    -------------------------------------------------------------------------
DATA_Z
  Relative segment, address: CODE_AREA 0000DA2C - 0000DA6B (0x40 bytes), align: 2
  Segment part 163.           Intra module refs:   ed_inp_ghook
    -------------------------------------------------------------------------
DATA_I
  Relative segment, address: DATA_AREA 000001E0 - 000001F3 (0x14 bytes), align: 2
  Segment part 164.           Intra module refs:   CreateEditDialog
           ENTRY                   ADDRESS         REF BY
           =====                   =======         ======
           ed_inp_hdr              000001E0 
    -------------------------------------------------------------------------
DATA_I
  Relative segment, address: DATA_AREA 000001F4 - 0000022B (0x38 bytes), align: 2
  Segment part 166.           Intra module refs:   CreateEditDialog
           ENTRY                   ADDRESS         REF BY
           =====                   =======         ======
           ed_inp_desc             000001F4 
    -------------------------------------------------------------------------
CODE
  Relative segment, address: CODE_AREA 00003744 - 00003923 (0x1e0 bytes), align: 2
  Segment part 379.           Intra module refs:   maincsm_onmessage
                                                   method5
           ENTRY                   ADDRESS         REF BY
           =====                   =======         ======
           CreateEditDialog        00003744 
               stack 1 = 00000000 ( 00000048 )
    -------------------------------------------------------------------------
CODE
  Relative segment, address: CODE_AREA 00003924 - 00003927 (0x4 bytes), align: 2
  Segment part 380.           Intra module refs:   CreateEditDialog
                                                   ed_inp_onkey
    -------------------------------------------------------------------------
CODE
  Relative segment, address: CODE_AREA 00003928 - 0000392B (0x4 bytes), align: 2
  Segment part 381.           Intra module refs:   CreateEditDialog
    -------------------------------------------------------------------------
CODE
  Relative segment, address: CODE_AREA 0000392C - 0000392F (0x4 bytes), align: 2
  Segment part 382.           Intra module refs:   CreateEditDialog
    -------------------------------------------------------------------------
CODE
  Relative segment, address: CODE_AREA 00003930 - 00003933 (0x4 bytes), align: 2
  Segment part 383.           Intra module refs:   CreateEditDialog
    -------------------------------------------------------------------------
CODE
  Relative segment, address: CODE_AREA 00003934 - 00003937 (0x4 bytes), align: 2
  Segment part 384.           Intra module refs:   CreateEditDialog
    -------------------------------------------------------------------------
CODE
  Segment part 385. NOT NEEDED.
    -------------------------------------------------------------------------
CODE
  Segment part 386. NOT NEEDED.
           ENTRY                   ADDRESS         REF BY
           =====                   =======         ======
           SetViewIllumination     
               not allocated function
    -------------------------------------------------------------------------
CODE
  Segment part 387. NOT NEEDED.
    -------------------------------------------------------------------------
CODE
  Relative segment, address: CODE_AREA 00003938 - 0000394F (0x18 bytes), align: 2
  Segment part 388.           Intra module refs:   gui_methods
           ENTRY                   ADDRESS         REF BY
           =====                   =======         ======
           method0                 00003938 
               stack 1 = 00000000 ( 00000004 )
    -------------------------------------------------------------------------
CODE
  Segment part 389. NOT NEEDED.
    -------------------------------------------------------------------------
CODE
  Relative segment, address: CODE_AREA 00003950 - 0000396F (0x20 bytes), align: 2
  Segment part 390.           Intra module refs:   gui_methods
           ENTRY                   ADDRESS         REF BY
           =====                   =======         ======
           method1                 00003950 
               stack 1 = 00000000 ( 00000008 )
    -------------------------------------------------------------------------
CODE
  Segment part 391. NOT NEEDED.
    -------------------------------------------------------------------------
CODE
  Relative segment, address: CODE_AREA 00003970 - 00003987 (0x18 bytes), align: 2
  Segment part 392.           Intra module refs:   gui_methods
           ENTRY                   ADDRESS         REF BY
           =====                   =======         ======
           method2                 00003970 
    -------------------------------------------------------------------------
CODE
  Segment part 393. NOT NEEDED.
    -------------------------------------------------------------------------
CODE
  Relative segment, address: CODE_AREA 00003988 - 000039B3 (0x2c bytes), align: 2
  Segment part 394.           Intra module refs:   gui_methods
           ENTRY                   ADDRESS         REF BY
           =====                   =======         ======
           method3                 00003988 
               stack 1 = 00000000 ( 00000008 )
    -------------------------------------------------------------------------
CODE
  Segment part 395. NOT NEEDED.
    -------------------------------------------------------------------------
CODE
  Relative segment, address: CODE_AREA 000039B4 - 000039C7 (0x14 bytes), align: 2
  Segment part 396.           Intra module refs:   gui_methods
           ENTRY                   ADDRESS         REF BY
           =====                   =======         ======
           method4                 000039B4 
    -------------------------------------------------------------------------
CODE
  Segment part 397. NOT NEEDED.
    -------------------------------------------------------------------------
CODE
  Relative segment, address: CODE_AREA 000039C8 - 000039CB (0x4 bytes), align: 2
  Segment part 398.           Intra module refs:   gui_methods
           ENTRY                   ADDRESS         REF BY
           =====                   =======         ======
           method7                 000039C8 
               stack 1 = 00000000 ( 00000004 )
    -------------------------------------------------------------------------
CODE
  Segment part 399. NOT NEEDED.
    -------------------------------------------------------------------------
CODE
  Relative segment, address: CODE_AREA 000039CC - 000039D3 (0x8 bytes), align: 2
  Segment part 400.           Intra module refs:   gui_methods
           ENTRY                   ADDRESS         REF BY
           =====                   =======         ======
           method8                 000039CC 
    -------------------------------------------------------------------------
CODE
  Segment part 401. NOT NEEDED.
    -------------------------------------------------------------------------
CODE
  Relative segment, address: CODE_AREA 000039D4 - 000039DB (0x8 bytes), align: 2
  Segment part 402.           Intra module refs:   gui_methods
           ENTRY                   ADDRESS         REF BY
           =====                   =======         ======
           method9                 000039D4 
    -------------------------------------------------------------------------
CODE
  Segment part 403. NOT NEEDED.
    -------------------------------------------------------------------------
CODE
  Segment part 404. NOT NEEDED.
           ENTRY                   ADDRESS         REF BY
           =====                   =======         ======
           actLeft                 
               not allocated function
    -------------------------------------------------------------------------
CODE
  Segment part 405. NOT NEEDED.
    -------------------------------------------------------------------------
CODE
  Segment part 406. NOT NEEDED.
           ENTRY                   ADDRESS         REF BY
           =====                   =======         ======
           actRight                
               not allocated function
    -------------------------------------------------------------------------
CODE
  Segment part 407. NOT NEEDED.
    -------------------------------------------------------------------------
CODE
  Relative segment, address: CODE_AREA 000039DC - 00003A3B (0x60 bytes), align: 2
  Segment part 408.           Intra module refs:   method5
           ENTRY                   ADDRESS         REF BY
           =====                   =======         ======
           actUp                   000039DC 
               stack 1 = 00000000 ( 00000004 )
    -------------------------------------------------------------------------
CODE
  Segment part 409. NOT NEEDED.
    -------------------------------------------------------------------------
CODE
  Relative segment, address: CODE_AREA 00003A3C - 00003AAF (0x74 bytes), align: 2
  Segment part 410.           Intra module refs:   method5
           ENTRY                   ADDRESS         REF BY
           =====                   =======         ======
           actDown                 00003A3C 
               stack 1 = 00000000 ( 00000010 )
    -------------------------------------------------------------------------
CODE
  Segment part 411. NOT NEEDED.
    -------------------------------------------------------------------------
CODE
  Relative segment, address: CODE_AREA 00003AB0 - 00003F1F (0x470 bytes), align: 2
  Segment part 412.           Intra module refs:   gui_methods
           ENTRY                   ADDRESS         REF BY
           =====                   =======         ======
           method5                 00003AB0 
               stack 1 = 00000000 ( 00000024 )
    -------------------------------------------------------------------------
CODE
  Relative segment, address: CODE_AREA 00003F20 - 00003F23 (0x4 bytes), align: 2
  Segment part 413.           Intra module refs:   actDown
                                                   actUp
                                                   ed_inp_redraw
                                                   method3
                                                   method5
    -------------------------------------------------------------------------
CODE
  Relative segment, address: CODE_AREA 00003F24 - 00003F27 (0x4 bytes), align: 2
  Segment part 414.           Intra module refs:   CreateEditDialog
                                                   method5
    -------------------------------------------------------------------------
CODE
  Relative segment, address: CODE_AREA 00003F28 - 00003F2B (0x4 bytes), align: 2
  Segment part 415.           Intra module refs:   CreateEditDialog
                                                   actDown
                                                   actUp
                                                   method5
    -------------------------------------------------------------------------
CODE
  Relative segment, address: CODE_AREA 00003F2C - 00003F2F (0x4 bytes), align: 2
  Segment part 416.           Intra module refs:   CreateEditDialog
                                                   actDown
                                                   actUp
                                                   method5
    -------------------------------------------------------------------------
CODE
  Relative segment, address: CODE_AREA 00003F30 - 00003F33 (0x4 bytes), align: 2
  Segment part 417.           Intra module refs:   CreateEditDialog
                                                   actDown
                                                   method5
    -------------------------------------------------------------------------
CODE
  Relative segment, address: CODE_AREA 00003F34 - 00003F37 (0x4 bytes), align: 2
  Segment part 418.           Intra module refs:   CreateEditDialog
                                                   actDown
                                                   actUp
                                                   method5
    -------------------------------------------------------------------------
CODE
  Relative segment, address: CODE_AREA 00003F38 - 00003F3B (0x4 bytes), align: 2
  Segment part 419.           Intra module refs:   ed_inp_onkey
                                                   method5
    -------------------------------------------------------------------------
CODE
  Relative segment, address: CODE_AREA 00003F3C - 00003F3F (0x4 bytes), align: 2
  Segment part 420.           Intra module refs:   CreateEditDialog
                                                   ed_inp_ghook
                                                   ed_inp_onkey
                                                   method5
    -------------------------------------------------------------------------
CODE
  Relative segment, address: CODE_AREA 00003F40 - 00003F43 (0x4 bytes), align: 2
  Segment part 421.           Intra module refs:   CreateEditDialog
                                                   actDown
                                                   method5
    -------------------------------------------------------------------------
CODE
  Relative segment, address: CODE_AREA 00003F44 - 00003F47 (0x4 bytes), align: 2
  Segment part 422.           Intra module refs:   method5
    -------------------------------------------------------------------------
CODE
  Relative segment, address: CODE_AREA 00003F48 - 00003F4B (0x4 bytes), align: 2
  Segment part 423.           Intra module refs:   method5
    -------------------------------------------------------------------------
CODE
  Relative segment, address: CODE_AREA 00003F4C - 00003F4F (0x4 bytes), align: 2
  Segment part 424.           Intra module refs:   CreateEditDialog
                                                   method5
    -------------------------------------------------------------------------
CODE
  Relative segment, address: CODE_AREA 00003F50 - 00003F53 (0x4 bytes), align: 2
  Segment part 425.           Intra module refs:   method1
                                                   method5
    -------------------------------------------------------------------------
CODE
  Segment part 426. NOT NEEDED.
    -------------------------------------------------------------------------
CODE
  Relative segment, address: CODE_AREA 00003F54 - 00003FBB (0x68 bytes), align: 2
  Segment part 427.           Intra module refs:   Segment part 173
           ENTRY                   ADDRESS         REF BY
           =====                   =======         ======
           sf_inp_onkey            00003F54 
               stack 1 = 00000000 ( 00000004 )
    -------------------------------------------------------------------------
CODE
  Relative segment, address: CODE_AREA 00003FBC - 00003FBF (0x4 bytes), align: 2
  Segment part 428.           Intra module refs:   sf_inp_onkey
    -------------------------------------------------------------------------
CODE
  Relative segment, address: CODE_AREA 00003FC0 - 00003FC3 (0x4 bytes), align: 2
  Segment part 429.           Intra module refs:   sf_inp_onkey
    -------------------------------------------------------------------------
CODE
  Segment part 430. NOT NEEDED.
    -------------------------------------------------------------------------
CODE
  Relative segment, address: CODE_AREA 00003FC4 - 0000400F (0x4c bytes), align: 2
  Segment part 431.           Intra module refs:   Segment part 173
           ENTRY                   ADDRESS         REF BY
           =====                   =======         ======
           sf_inp_ghook            00003FC4 
               stack 1 = 00000000 ( 00000034 )
    -------------------------------------------------------------------------
CODE
  Segment part 432. NOT NEEDED.
    -------------------------------------------------------------------------
DATA_I
  Relative segment, address: DATA_AREA 0000022C - 00000233 (0x8 bytes), align: 2
  Segment part 168.           Intra module refs:   sf_inp_ghook
    -------------------------------------------------------------------------
CODE
  Relative segment, address: CODE_AREA 00004010 - 00004013 (0x4 bytes), align: 2
  Segment part 433.           Intra module refs:   Segment part 173
           ENTRY                   ADDRESS         REF BY
           =====                   =======         ======
           sf_inp_locret           00004010 
    -------------------------------------------------------------------------
CODE
  Segment part 434. NOT NEEDED.
    -------------------------------------------------------------------------
DATA_I
  Relative segment, address: DATA_AREA 00000234 - 00000247 (0x14 bytes), align: 2
  Segment part 170.           Intra module refs:   CreateSaveAsDialog
           ENTRY                   ADDRESS         REF BY
           =====                   =======         ======
           sf_inp_hdr              00000234 
    -------------------------------------------------------------------------
DATA_I
  Relative segment, address: DATA_AREA 00000248 - 0000027F (0x38 bytes), align: 2
  Segment part 172.           Intra module refs:   CreateSaveAsDialog
           ENTRY                   ADDRESS         REF BY
           =====                   =======         ======
           sf_inp_desc             00000248 
    -------------------------------------------------------------------------
CODE
  Relative segment, address: CODE_AREA 00004014 - 0000410F (0xfc bytes), align: 2
  Segment part 435.           Intra module refs:   load_menu_onkey
           ENTRY                   ADDRESS         REF BY
           =====                   =======         ======
           CreateSaveAsDialog      00004014 
               stack 1 = 00000000 ( 00000048 )
    -------------------------------------------------------------------------
CODE
  Relative segment, address: CODE_AREA 00004110 - 00004113 (0x4 bytes), align: 2
  Segment part 436.           Intra module refs:   CreateEditDialog
                                                   CreateSaveAsDialog
                                                   ed_inp_ghook
                                                   ed_inp_redraw
                                                   sf_inp_ghook
                                                   sf_inp_onkey
    -------------------------------------------------------------------------
CODE
  Relative segment, address: CODE_AREA 00004114 - 00004117 (0x4 bytes), align: 2
  Segment part 437.           Intra module refs:   CreateSaveAsDialog
                                                   sf_inp_onkey
    -------------------------------------------------------------------------
CODE
  Segment part 438. NOT NEEDED.
    -------------------------------------------------------------------------
DATA_Z
  Relative segment, address: CODE_AREA 0000DA6C - 0000DA6F (0x4 bytes), align: 2
  Segment part 174.           Intra module refs:   Segment part 490
                                                   Segment part 587
           ENTRY                   ADDRESS         REF BY
           =====                   =======         ======
           FontList                0000DA6C 
    -------------------------------------------------------------------------
CODE
  Segment part 439. NOT NEEDED.
           ENTRY                   ADDRESS         REF BY
           =====                   =======         ======
           CreateFontListItem      
               not allocated function
    -------------------------------------------------------------------------
CODE
  Segment part 440. NOT NEEDED.
    -------------------------------------------------------------------------
CODE
  Relative segment, address: CODE_AREA 00004118 - 000041F7 (0xe0 bytes), align: 2
  Segment part 441.           Intra module refs:   GetFontList
           ENTRY                   ADDRESS         REF BY
           =====                   =======         ======
           AddFont                 00004118 
               stack 1 = 00000000 ( 00000018 )
    -------------------------------------------------------------------------
CODE
  Segment part 442. NOT NEEDED.
    -------------------------------------------------------------------------
CODE
  Relative segment, address: CODE_AREA 000041F8 - 0000423B (0x44 bytes), align: 2
  Segment part 443.           Intra module refs:   GetFontList
                                                   Killer
           ENTRY                   ADDRESS         REF BY
           =====                   =======         ======
           DeleteFonts             000041F8 
               stack 1 = 00000000 ( 00000008 )
    -------------------------------------------------------------------------
CODE
  Segment part 444. NOT NEEDED.
    -------------------------------------------------------------------------
CODE
  Relative segment, address: CODE_AREA 0000423C - 000043E3 (0x1a8 bytes), align: 2
  Segment part 445.           Intra module refs:   main
           ENTRY                   ADDRESS         REF BY
           =====                   =======         ======
           GetFontList             0000423C 
               stack 1 = 00000000 ( 0000037C )
    -------------------------------------------------------------------------
CODE
  Relative segment, address: CODE_AREA 000043E4 - 000043E7 (0x4 bytes), align: 2
  Segment part 446.           Intra module refs:   GetFontList
    -------------------------------------------------------------------------
CODE
  Segment part 447. NOT NEEDED.
    -------------------------------------------------------------------------
CODE
  Relative segment, address: CODE_AREA 000043E8 - 00004657 (0x270 bytes), align: 2
  Segment part 448.           Intra module refs:   FirstLoadFile
                                                   Segment part 485
           ENTRY                   ADDRESS         REF BY
           =====                   =======         ======
           LoadFont                000043E8 
               stack 1 = 00000000 ( 000000B0 )
    -------------------------------------------------------------------------
CODE
  Relative segment, address: CODE_AREA 00004658 - 0000465B (0x4 bytes), align: 2
  Segment part 449.           Intra module refs:   LoadFont
    -------------------------------------------------------------------------
CODE
  Relative segment, address: CODE_AREA 0000465C - 0000465F (0x4 bytes), align: 2
  Segment part 450.           Intra module refs:   LoadFont
    -------------------------------------------------------------------------
CODE
  Relative segment, address: CODE_AREA 00004660 - 00004663 (0x4 bytes), align: 2
  Segment part 451.           Intra module refs:   LoadFont
    -------------------------------------------------------------------------
CODE
  Relative segment, address: CODE_AREA 00004664 - 00004667 (0x4 bytes), align: 2
  Segment part 452.           Intra module refs:   LoadFont
    -------------------------------------------------------------------------
CODE
  Relative segment, address: CODE_AREA 00004668 - 0000466B (0x4 bytes), align: 2
  Segment part 453.           Intra module refs:   LoadFont
                                                   method5
    -------------------------------------------------------------------------
CODE
  Relative segment, address: CODE_AREA 0000466C - 0000466F (0x4 bytes), align: 2
  Segment part 454.           Intra module refs:   LoadFont
    -------------------------------------------------------------------------
CODE
  Relative segment, address: CODE_AREA 00004670 - 00004673 (0x4 bytes), align: 2
  Segment part 455.           Intra module refs:   LoadFont
    -------------------------------------------------------------------------
CODE
  Relative segment, address: CODE_AREA 00004674 - 00004677 (0x4 bytes), align: 2
  Segment part 456.           Intra module refs:   LoadFont
    -------------------------------------------------------------------------
CODE
  Relative segment, address: CODE_AREA 00004678 - 0000467B (0x4 bytes), align: 2
  Segment part 457.           Intra module refs:   LoadFont
    -------------------------------------------------------------------------
CODE
  Relative segment, address: CODE_AREA 0000467C - 0000467F (0x4 bytes), align: 2
  Segment part 458.           Intra module refs:   LoadFont
    -------------------------------------------------------------------------
CODE
  Relative segment, address: CODE_AREA 00004680 - 00004683 (0x4 bytes), align: 2
  Segment part 459.           Intra module refs:   LoadFont
                                                   method2
    -------------------------------------------------------------------------
CODE
  Segment part 460. NOT NEEDED.
    -------------------------------------------------------------------------
CODE
  Segment part 461. NOT NEEDED.
           ENTRY                   ADDRESS         REF BY
           =====                   =======         ======
           setfont                 
               not allocated function
    -------------------------------------------------------------------------
CODE
  Segment part 462. NOT NEEDED.
    -------------------------------------------------------------------------
CODE
  Relative segment, address: CODE_AREA 00004684 - 00004703 (0x80 bytes), align: 2
  Segment part 463.           Intra module refs:   load_menu_onkey
           ENTRY                   ADDRESS         REF BY
           =====                   =======         ======
           do_rotate               00004684 
               stack 1 = 00000000 ( 00000008 )
    -------------------------------------------------------------------------
CODE
  Relative segment, address: CODE_AREA 00004704 - 00004707 (0x4 bytes), align: 2
  Segment part 464.           Intra module refs:   LoadFont
                                                   do_rotate
    -------------------------------------------------------------------------
CODE
  Segment part 465. NOT NEEDED.
    -------------------------------------------------------------------------
CODE
  Relative segment, address: CODE_AREA 00004708 - 0000474F (0x48 bytes), align: 2
  Segment part 466.           Intra module refs:   load_menu_onkey
           ENTRY                   ADDRESS         REF BY
           =====                   =======         ======
           load_direct             00004708 
               stack 1 = 00000000 ( 00000004 )
    -------------------------------------------------------------------------
CODE
  Segment part 467. NOT NEEDED.
    -------------------------------------------------------------------------
CODE
  Relative segment, address: CODE_AREA 00004750 - 00004793 (0x44 bytes), align: 2
  Segment part 468.           Intra module refs:   load_menu_onkey
           ENTRY                   ADDRESS         REF BY
           =====                   =======         ======
           load_format             00004750 
               stack 1 = 00000000 ( 00000004 )
    -------------------------------------------------------------------------
CODE
  Segment part 469. NOT NEEDED.
    -------------------------------------------------------------------------
CODE
  Relative segment, address: CODE_AREA 00004794 - 000047DF (0x4c bytes), align: 2
  Segment part 470.           Intra module refs:   load_menu_onkey
           ENTRY                   ADDRESS         REF BY
           =====                   =======         ======
           load_eolspc             00004794 
               stack 1 = 00000000 ( 00000004 )
    -------------------------------------------------------------------------
CODE
  Relative segment, address: CODE_AREA 000047E0 - 000047E3 (0x4 bytes), align: 2
  Segment part 471.           Intra module refs:   load_direct
                                                   load_eolspc
                                                   load_format
                                                   method5
    -------------------------------------------------------------------------
CODE
  Relative segment, address: CODE_AREA 000047E4 - 000047E7 (0x4 bytes), align: 2
  Segment part 472.           Intra module refs:   LoadFont
                                                   do_rotate
                                                   load_direct
                                                   load_eolspc
                                                   load_format
                                                   method5
                                                   sf_inp_onkey
    -------------------------------------------------------------------------
CODE
  Relative segment, address: CODE_AREA 000047E8 - 000047EB (0x4 bytes), align: 2
  Segment part 473.           Intra module refs:   load_direct
                                                   load_eolspc
                                                   load_format
                                                   sf_inp_onkey
    -------------------------------------------------------------------------
CODE
  Relative segment, address: CODE_AREA 000047EC - 000047EF (0x4 bytes), align: 2
  Segment part 474.           Intra module refs:   do_rotate
                                                   load_direct
                                                   load_eolspc
                                                   load_format
    -------------------------------------------------------------------------
CODE
  Segment part 475. NOT NEEDED.
    -------------------------------------------------------------------------
CODE
  Segment part 476. NOT NEEDED.
           ENTRY                   ADDRESS         REF BY
           =====                   =======         ======
           load_pad                
               not allocated function
    -------------------------------------------------------------------------
CODE
  Relative segment, address: CODE_AREA 000047F0 - 000047F3 (0x4 bytes), align: 2
  Segment part 477.           Intra module refs:   do_rotate
                                                   method5
    -------------------------------------------------------------------------
CODE
  Segment part 478. NOT NEEDED.
    -------------------------------------------------------------------------
CODE
  Segment part 479. NOT NEEDED.
           ENTRY                   ADDRESS         REF BY
           =====                   =======         ======
           load_save               
               not allocated function
    -------------------------------------------------------------------------
CODE
  Segment part 480. NOT NEEDED.
    -------------------------------------------------------------------------
CODE
  Relative segment, address: CODE_AREA 000047F4 - 00004907 (0x114 bytes), align: 2
  Segment part 481.           Intra module refs:   Segment part 179
           ENTRY                   ADDRESS         REF BY
           =====                   =======         ======
           load_menu_onkey         000047F4 
               stack 1 = 00000000 ( 00000008 )
    -------------------------------------------------------------------------
CODE
  Relative segment, address: CODE_AREA 00004908 - 0000490B (0x4 bytes), align: 2
  Segment part 482.           Intra module refs:   load_menu_onkey
    -------------------------------------------------------------------------
CODE
  Relative segment, address: CODE_AREA 0000490C - 0000490F (0x4 bytes), align: 2
  Segment part 483.           Intra module refs:   LoadFont
                                                   load_menu_onkey
    -------------------------------------------------------------------------
CODE
  Relative segment, address: CODE_AREA 00004910 - 00004913 (0x4 bytes), align: 2
  Segment part 484.           Intra module refs:   load_menu_onkey
    -------------------------------------------------------------------------
CODE
  Relative segment, address: CODE_AREA 00004914 - 00004917 (0x4 bytes), align: 2
  Segment part 485.           Intra module refs:   load_menu_onkey
    -------------------------------------------------------------------------
CODE
  Segment part 486. NOT NEEDED.
    -------------------------------------------------------------------------
CODE
  Relative segment, address: CODE_AREA 00004918 - 0000492B (0x14 bytes), align: 2
  Segment part 487.           Intra module refs:   Segment part 179
           ENTRY                   ADDRESS         REF BY
           =====                   =======         ======
           load_menu_ghook         00004918 
               stack 1 = 00000000 ( 00000004 )
    -------------------------------------------------------------------------
CODE
  Segment part 488. NOT NEEDED.
    -------------------------------------------------------------------------
CODE
  Relative segment, address: CODE_AREA 0000492C - 00004A57 (0x12c bytes), align: 2
  Segment part 489.           Intra module refs:   Segment part 179
           ENTRY                   ADDRESS         REF BY
           =====                   =======         ======
           load_menu_iconhndl      0000492C 
               stack 1 = 00000000 ( 0000003C )
    -------------------------------------------------------------------------
CODE
  Relative segment, address: CODE_AREA 00004A58 - 00004A5B (0x4 bytes), align: 2
  Segment part 490.           Intra module refs:   AddFont
                                                   GetFontList
                                                   LoadFont
                                                   load_menu_iconhndl
                                                   load_menu_onkey
    -------------------------------------------------------------------------
CODE
  Segment part 491. NOT NEEDED.
    -------------------------------------------------------------------------
DATA_Z
  Segment part 175. NOT NEEDED.
           ENTRY                   ADDRESS         REF BY
           =====                   =======         ======
           loadmenu_ITEMS          
    -------------------------------------------------------------------------
DATA_I
  Relative segment, address: DATA_AREA 00000280 - 00000293 (0x14 bytes), align: 2
  Segment part 176.           Intra module refs:   DrawLoadMenu
           ENTRY                   ADDRESS         REF BY
           =====                   =======         ======
           loadmenu_HDR            00000280 
    -------------------------------------------------------------------------
DATA_I
  Relative segment, address: DATA_AREA 00000294 - 000002BF (0x2c bytes), align: 2
  Segment part 178.           Intra module refs:   DrawLoadMenu
           ENTRY                   ADDRESS         REF BY
           =====                   =======         ======
           loadmenu_STRUCT         00000294 
    -------------------------------------------------------------------------
CODE
  Relative segment, address: CODE_AREA 00004A5C - 00004ADB (0x80 bytes), align: 2
  Segment part 492.           Intra module refs:   FirstLoadFile
                                                   method5
           ENTRY                   ADDRESS         REF BY
           =====                   =======         ======
           DrawLoadMenu            00004A5C 
               stack 1 = 00000000 ( 0000001C )
    -------------------------------------------------------------------------
CODE
  Relative segment, address: CODE_AREA 00004ADC - 00004ADF (0x4 bytes), align: 2
  Segment part 493.           Intra module refs:   DeleteFonts
                                                   DrawLoadMenu
                                                   GetFontList
    -------------------------------------------------------------------------
CODE
  Relative segment, address: CODE_AREA 00004AE0 - 00004AE3 (0x4 bytes), align: 2
  Segment part 494.           Intra module refs:   DrawLoadMenu
                                                   load_menu_onkey
    -------------------------------------------------------------------------
CODE
  Segment part 495. NOT NEEDED.
    -------------------------------------------------------------------------
CODE
  Segment part 496. NOT NEEDED.
           ENTRY                   ADDRESS         REF BY
           =====                   =======         ======
           goto_l                  
               not allocated function
    -------------------------------------------------------------------------
CODE
  Segment part 497. NOT NEEDED.
    -------------------------------------------------------------------------
CODE
  Relative segment, address: CODE_AREA 00004AE4 - 00004B13 (0x30 bytes), align: 2
  Segment part 498.           Intra module refs:   Segment part 190
           ENTRY                   ADDRESS         REF BY
           =====                   =======         ======
           goto_top                00004AE4 
               stack 1 = 00000000 ( 00000004 )
    -------------------------------------------------------------------------
CODE
  Segment part 499. NOT NEEDED.
    -------------------------------------------------------------------------
CODE
  Relative segment, address: CODE_AREA 00004B14 - 00004B43 (0x30 bytes), align: 2
  Segment part 500.           Intra module refs:   Segment part 190
           ENTRY                   ADDRESS         REF BY
           =====                   =======         ======
           goto_bot                00004B14 
               stack 1 = 00000000 ( 00000004 )
    -------------------------------------------------------------------------
CODE
  Segment part 501. NOT NEEDED.
    -------------------------------------------------------------------------
DATA_Z
  Relative segment, address: CODE_AREA 0000DA70 - 0000DA73 (0x4 bytes), align: 2
  Segment part 180.           Intra module refs:   Segment part 511
           ENTRY                   ADDRESS         REF BY
           =====                   =======         ======
           gl_num                  0000DA70 
    -------------------------------------------------------------------------
CODE
  Segment part 502. NOT NEEDED.
           ENTRY                   ADDRESS         REF BY
           =====                   =======         ======
           my_atoui                
               not allocated function
    -------------------------------------------------------------------------
CODE
  Segment part 503. NOT NEEDED.
    -------------------------------------------------------------------------
CODE
  Relative segment, address: CODE_AREA 00004B44 - 00004C2B (0xe8 bytes), align: 2
  Segment part 504.           Intra module refs:   Segment part 188
           ENTRY                   ADDRESS         REF BY
           =====                   =======         ======
           gl_inp_onkey            00004B44 
               stack 1 = 00000000 ( 00000004 )
    -------------------------------------------------------------------------
CODE
  Segment part 505. NOT NEEDED.
    -------------------------------------------------------------------------
CODE
  Relative segment, address: CODE_AREA 00004C2C - 00004C77 (0x4c bytes), align: 2
  Segment part 506.           Intra module refs:   Segment part 188
           ENTRY                   ADDRESS         REF BY
           =====                   =======         ======
           gl_inp_ghook            00004C2C 
               stack 1 = 00000000 ( 00000034 )
    -------------------------------------------------------------------------
CODE
  Segment part 507. NOT NEEDED.
    -------------------------------------------------------------------------
DATA_I
  Relative segment, address: DATA_AREA 000002C0 - 000002C7 (0x8 bytes), align: 2
  Segment part 181.           Intra module refs:   gl_inp_ghook
    -------------------------------------------------------------------------
CODE
  Relative segment, address: CODE_AREA 00004C78 - 00004C7B (0x4 bytes), align: 2
  Segment part 508.           Intra module refs:   Segment part 188
           ENTRY                   ADDRESS         REF BY
           =====                   =======         ======
           gl_inp_locret           00004C78 
    -------------------------------------------------------------------------
CODE
  Segment part 509. NOT NEEDED.
    -------------------------------------------------------------------------
DATA_I
  Relative segment, address: DATA_AREA 000002C8 - 000002DB (0x14 bytes), align: 2
  Segment part 183.           Intra module refs:   goto_line_inp
           ENTRY                   ADDRESS         REF BY
           =====                   =======         ======
           gl_inp_hdr_percent      000002C8 
    -------------------------------------------------------------------------
DATA_I
  Relative segment, address: DATA_AREA 000002DC - 000002EF (0x14 bytes), align: 2
  Segment part 185.           Intra module refs:   goto_line_inp
           ENTRY                   ADDRESS         REF BY
           =====                   =======         ======
           gl_inp_hdr_line         000002DC 
    -------------------------------------------------------------------------
DATA_I
  Relative segment, address: DATA_AREA 000002F0 - 00000327 (0x38 bytes), align: 2
  Segment part 187.           Intra module refs:   goto_line_inp
           ENTRY                   ADDRESS         REF BY
           =====                   =======         ======
           gl_inp_desc             000002F0 
    -------------------------------------------------------------------------
CODE
  Relative segment, address: CODE_AREA 00004C7C - 00004DAB (0x130 bytes), align: 2
  Segment part 510.           Intra module refs:   goto_line
                                                   goto_percent
           ENTRY                   ADDRESS         REF BY
           =====                   =======         ======
           goto_line_inp           00004C7C 
               stack 1 = 00000000 ( 00000050 )
    -------------------------------------------------------------------------
CODE
  Relative segment, address: CODE_AREA 00004DAC - 00004DAF (0x4 bytes), align: 2
  Segment part 511.           Intra module refs:   gl_inp_onkey
                                                   goto_line_inp
    -------------------------------------------------------------------------
CODE
  Segment part 512. NOT NEEDED.
    -------------------------------------------------------------------------
CODE
  Relative segment, address: CODE_AREA 00004DB0 - 00004DC7 (0x18 bytes), align: 2
  Segment part 513.           Intra module refs:   Segment part 190
           ENTRY                   ADDRESS         REF BY
           =====                   =======         ======
           goto_line               00004DB0 
               stack 1 = 00000000 ( 00000004 )
    -------------------------------------------------------------------------
CODE
  Segment part 514. NOT NEEDED.
    -------------------------------------------------------------------------
CODE
  Relative segment, address: CODE_AREA 00004DC8 - 00004DDF (0x18 bytes), align: 2
  Segment part 515.           Intra module refs:   Segment part 190
           ENTRY                   ADDRESS         REF BY
           =====                   =======         ======
           goto_percent            00004DC8 
               stack 1 = 00000000 ( 00000004 )
    -------------------------------------------------------------------------
CODE
  Segment part 516. NOT NEEDED.
    -------------------------------------------------------------------------
CODE
  Relative segment, address: CODE_AREA 00004DE0 - 00004E17 (0x38 bytes), align: 2
  Segment part 517.           Intra module refs:   Segment part 190
           ENTRY                   ADDRESS         REF BY
           =====                   =======         ======
           goto_last_saved         00004DE0 
               stack 1 = 00000000 ( 00000004 )
    -------------------------------------------------------------------------
CODE
  Segment part 518. NOT NEEDED.
    -------------------------------------------------------------------------
CODE
  Relative segment, address: CODE_AREA 00004E18 - 00004E4B (0x34 bytes), align: 2
  Segment part 519.           Intra module refs:   Segment part 190
           ENTRY                   ADDRESS         REF BY
           =====                   =======         ======
           goto_book1              00004E18 
               stack 1 = 00000000 ( 00000004 )
    -------------------------------------------------------------------------
CODE
  Segment part 520. NOT NEEDED.
    -------------------------------------------------------------------------
CODE
  Relative segment, address: CODE_AREA 00004E4C - 00004E7F (0x34 bytes), align: 2
  Segment part 521.           Intra module refs:   Segment part 190
           ENTRY                   ADDRESS         REF BY
           =====                   =======         ======
           goto_book2              00004E4C 
               stack 1 = 00000000 ( 00000004 )
    -------------------------------------------------------------------------
CODE
  Segment part 522. NOT NEEDED.
    -------------------------------------------------------------------------
CODE
  Relative segment, address: CODE_AREA 00004E80 - 00004EB3 (0x34 bytes), align: 2
  Segment part 523.           Intra module refs:   Segment part 190
           ENTRY                   ADDRESS         REF BY
           =====                   =======         ======
           goto_book3              00004E80 
               stack 1 = 00000000 ( 00000004 )
    -------------------------------------------------------------------------
CODE
  Segment part 524. NOT NEEDED.
    -------------------------------------------------------------------------
CODE
  Relative segment, address: CODE_AREA 00004EB4 - 00004EE7 (0x34 bytes), align: 2
  Segment part 525.           Intra module refs:   Segment part 190
           ENTRY                   ADDRESS         REF BY
           =====                   =======         ======
           goto_book4              00004EB4 
               stack 1 = 00000000 ( 00000004 )
    -------------------------------------------------------------------------
CODE
  Relative segment, address: CODE_AREA 00004EE8 - 00004EEB (0x4 bytes), align: 2
  Segment part 526.           Intra module refs:   LoadFont
                                                   do_rotate
                                                   gl_inp_onkey
                                                   goto_book1
                                                   goto_book2
                                                   goto_book3
                                                   goto_book4
                                                   goto_bot
                                                   goto_last_saved
                                                   goto_top
                                                   load_direct
                                                   load_eolspc
                                                   load_format
                                                   load_menu_onkey
    -------------------------------------------------------------------------
CODE
  Relative segment, address: CODE_AREA 00004EEC - 00004EEF (0x4 bytes), align: 2
  Segment part 527.           Intra module refs:   gl_inp_onkey
                                                   goto_book1
                                                   goto_book2
                                                   goto_book3
                                                   goto_book4
                                                   goto_bot
                                                   goto_last_saved
                                                   goto_top
    -------------------------------------------------------------------------
CODE
  Segment part 528. NOT NEEDED.
    -------------------------------------------------------------------------
DATA_I
  Relative segment, address: DATA_AREA 00000328 - 0000034B (0x24 bytes), align: 2
  Segment part 189.           Intra module refs:   Segment part 196
           ENTRY                   ADDRESS         REF BY
           =====                   =======         ======
           gotomenu_HNDLS          00000328 
    -------------------------------------------------------------------------
DATA_I
  Relative segment, address: DATA_AREA 0000034C - 00000447 (0xfc bytes), align: 2
  Segment part 191.           Intra module refs:   Segment part 196
           ENTRY                   ADDRESS         REF BY
           =====                   =======         ======
           gotomenu_ITEMS          0000034C 
    -------------------------------------------------------------------------
DATA_I
  Relative segment, address: DATA_AREA 00000448 - 0000045B (0x14 bytes), align: 2
  Segment part 193.           Intra module refs:   goto_menu
           ENTRY                   ADDRESS         REF BY
           =====                   =======         ======
           gotomenu_HDR            00000448 
    -------------------------------------------------------------------------
DATA_I
  Relative segment, address: DATA_AREA 0000045C - 00000487 (0x2c bytes), align: 2
  Segment part 195.           Intra module refs:   goto_menu
           ENTRY                   ADDRESS         REF BY
           =====                   =======         ======
           gotomenu_STRUCT         0000045C 
    -------------------------------------------------------------------------
CODE
  Relative segment, address: CODE_AREA 00004EF0 - 00004F5F (0x70 bytes), align: 2
  Segment part 529.           Intra module refs:   Segment part 208
           ENTRY                   ADDRESS         REF BY
           =====                   =======         ======
           goto_menu               00004EF0 
               stack 1 = 00000000 ( 00000018 )
    -------------------------------------------------------------------------
CODE
  Segment part 530. NOT NEEDED.
    -------------------------------------------------------------------------
CODE
  Relative segment, address: CODE_AREA 00004F60 - 00004F7F (0x20 bytes), align: 2
  Segment part 531.           Intra module refs:   Segment part 200
           ENTRY                   ADDRESS         REF BY
           =====                   =======         ======
           set_book1               00004F60 
               stack 1 = 00000000 ( 00000004 )
    -------------------------------------------------------------------------
CODE
  Relative segment, address: CODE_AREA 00004F80 - 00004F83 (0x4 bytes), align: 2
  Segment part 532.           Intra module refs:   goto_book1
                                                   set_book1
    -------------------------------------------------------------------------
CODE
  Segment part 533. NOT NEEDED.
    -------------------------------------------------------------------------
CODE
  Relative segment, address: CODE_AREA 00004F84 - 00004FA3 (0x20 bytes), align: 2
  Segment part 534.           Intra module refs:   Segment part 200
           ENTRY                   ADDRESS         REF BY
           =====                   =======         ======
           set_book2               00004F84 
               stack 1 = 00000000 ( 00000004 )
    -------------------------------------------------------------------------
CODE
  Relative segment, address: CODE_AREA 00004FA4 - 00004FA7 (0x4 bytes), align: 2
  Segment part 535.           Intra module refs:   goto_book2
                                                   set_book2
    -------------------------------------------------------------------------
CODE
  Segment part 536. NOT NEEDED.
    -------------------------------------------------------------------------
CODE
  Relative segment, address: CODE_AREA 00004FA8 - 00004FC7 (0x20 bytes), align: 2
  Segment part 537.           Intra module refs:   Segment part 200
           ENTRY                   ADDRESS         REF BY
           =====                   =======         ======
           set_book3               00004FA8 
               stack 1 = 00000000 ( 00000004 )
    -------------------------------------------------------------------------
CODE
  Relative segment, address: CODE_AREA 00004FC8 - 00004FCB (0x4 bytes), align: 2
  Segment part 538.           Intra module refs:   goto_book3
                                                   set_book3
    -------------------------------------------------------------------------
CODE
  Segment part 539. NOT NEEDED.
    -------------------------------------------------------------------------
CODE
  Relative segment, address: CODE_AREA 00004FCC - 00004FEB (0x20 bytes), align: 2
  Segment part 540.           Intra module refs:   Segment part 200
           ENTRY                   ADDRESS         REF BY
           =====                   =======         ======
           set_book4               00004FCC 
               stack 1 = 00000000 ( 00000004 )
    -------------------------------------------------------------------------
CODE
  Relative segment, address: CODE_AREA 00004FEC - 00004FEF (0x4 bytes), align: 2
  Segment part 541.           Intra module refs:   goto_book4
                                                   set_book4
    -------------------------------------------------------------------------
CODE
  Segment part 542. NOT NEEDED.
    -------------------------------------------------------------------------
DATA_I
  Relative segment, address: DATA_AREA 00000488 - 000004F7 (0x70 bytes), align: 2
  Segment part 197.           Intra module refs:   Segment part 204
           ENTRY                   ADDRESS         REF BY
           =====                   =======         ======
           bookmenu_ITEMS          00000488 
    -------------------------------------------------------------------------
DATA_I
  Relative segment, address: DATA_AREA 000004F8 - 00000507 (0x10 bytes), align: 2
  Segment part 199.           Intra module refs:   Segment part 204
           ENTRY                   ADDRESS         REF BY
           =====                   =======         ======
           bookmenu_HNDLS          000004F8 
    -------------------------------------------------------------------------
DATA_I
  Relative segment, address: DATA_AREA 00000508 - 0000051B (0x14 bytes), align: 2
  Segment part 201.           Intra module refs:   bookm_menu
           ENTRY                   ADDRESS         REF BY
           =====                   =======         ======
           bookmenu_HDR            00000508 
    -------------------------------------------------------------------------
DATA_I
  Relative segment, address: DATA_AREA 0000051C - 00000547 (0x2c bytes), align: 2
  Segment part 203.           Intra module refs:   bookm_menu
           ENTRY                   ADDRESS         REF BY
           =====                   =======         ======
           bookmenu_STRUCT         0000051C 
    -------------------------------------------------------------------------
CODE
  Relative segment, address: CODE_AREA 00004FF0 - 0000505F (0x70 bytes), align: 2
  Segment part 543.           Intra module refs:   Segment part 208
           ENTRY                   ADDRESS         REF BY
           =====                   =======         ======
           bookm_menu              00004FF0 
               stack 1 = 00000000 ( 00000018 )
    -------------------------------------------------------------------------
CODE
  Segment part 544. NOT NEEDED.
    -------------------------------------------------------------------------
CODE
  Relative segment, address: CODE_AREA 00005060 - 00005063 (0x4 bytes), align: 2
  Segment part 545.           Intra module refs:   Segment part 208
           ENTRY                   ADDRESS         REF BY
           =====                   =======         ======
           search_menu             00005060 
    -------------------------------------------------------------------------
CODE
  Segment part 546. NOT NEEDED.
    -------------------------------------------------------------------------
DATA_I
  Relative segment, address: DATA_AREA 00000548 - 0000059B (0x54 bytes), align: 2
  Segment part 205.           Intra module refs:   Segment part 212
           ENTRY                   ADDRESS         REF BY
           =====                   =======         ======
           softmenu_ITEMS          00000548 
    -------------------------------------------------------------------------
DATA_I
  Relative segment, address: DATA_AREA 0000059C - 000005A7 (0xc bytes), align: 2
  Segment part 207.           Intra module refs:   Segment part 212
           ENTRY                   ADDRESS         REF BY
           =====                   =======         ======
           softmenu_HNDLS          0000059C 
    -------------------------------------------------------------------------
DATA_I
  Relative segment, address: DATA_AREA 000005A8 - 000005BB (0x14 bytes), align: 2
  Segment part 209.           Intra module refs:   DrawSoftMenu
           ENTRY                   ADDRESS         REF BY
           =====                   =======         ======
           softmenu_HDR            000005A8 
    -------------------------------------------------------------------------
DATA_I
  Relative segment, address: DATA_AREA 000005BC - 000005E7 (0x2c bytes), align: 2
  Segment part 211.           Intra module refs:   DrawSoftMenu
           ENTRY                   ADDRESS         REF BY
           =====                   =======         ======
           softmenu_STRUCT         000005BC 
    -------------------------------------------------------------------------
CODE
  Relative segment, address: CODE_AREA 00005064 - 00005127 (0xc4 bytes), align: 2
  Segment part 547.           Intra module refs:   method5
           ENTRY                   ADDRESS         REF BY
           =====                   =======         ======
           DrawSoftMenu            00005064 
               stack 1 = 00000000 ( 0000001C )
    -------------------------------------------------------------------------
CODE
  Segment part 548. NOT NEEDED.
    -------------------------------------------------------------------------
DATA_C
  Relative segment, address: CODE_AREA 00008BE4 - 00008BE6 (0x3 bytes), align: 0
  Segment part 213.           Intra module refs:   DrawSoftMenu
    -------------------------------------------------------------------------
CODE
  Relative segment, address: CODE_AREA 00005128 - 000051CB (0xa4 bytes), align: 2
  Segment part 549.
           ENTRY                   ADDRESS         REF BY
           =====                   =======         ======
           FL_loader               00005128        ConvertFormat (convert_format)
                                                   ConvertSimple (convert_simple)
               stack 1 = 00000000 ( 0000001C )
    -------------------------------------------------------------------------
CODE
  Segment part 550. NOT NEEDED.
    -------------------------------------------------------------------------
CODE
  Relative segment, address: CODE_AREA 000051CC - 000052BF (0xf4 bytes), align: 2
  Segment part 551.
           ENTRY                   ADDRESS         REF BY
           =====                   =======         ======
           FL_saver                000051CC        ConvertFormat (convert_format)
                                                   ConvertSimple (convert_simple)
               stack 1 = 00000000 ( 0000001C )
    -------------------------------------------------------------------------
CODE
  Relative segment, address: CODE_AREA 000052C0 - 000052C3 (0x4 bytes), align: 2
  Segment part 552.           Intra module refs:   FL_loader
                                                   FL_saver
    -------------------------------------------------------------------------
CODE
  Relative segment, address: CODE_AREA 000052C4 - 000052C7 (0x4 bytes), align: 2
  Segment part 553.           Intra module refs:   FL_saver
    -------------------------------------------------------------------------
CODE
  Segment part 554. NOT NEEDED.
    -------------------------------------------------------------------------
CODE
  Relative segment, address: CODE_AREA 000052C8 - 000055BB (0x2f4 bytes), align: 2
  Segment part 555.           Intra module refs:   Segment part 425
                                                   Segment part 474
           ENTRY                   ADDRESS         REF BY
           =====                   =======         ======
           FirstLoadFile           000052C8 
               stack 1 = 00000000 ( 00000028 )
    -------------------------------------------------------------------------
CODE
  Relative segment, address: CODE_AREA 000055BC - 000055BF (0x4 bytes), align: 2
  Segment part 556.           Intra module refs:   FirstLoadFile
    -------------------------------------------------------------------------
CODE
  Relative segment, address: CODE_AREA 000055C0 - 000055C3 (0x4 bytes), align: 2
  Segment part 557.           Intra module refs:   FirstLoadFile
    -------------------------------------------------------------------------
CODE
  Relative segment, address: CODE_AREA 000055C4 - 000055C7 (0x4 bytes), align: 2
  Segment part 558.           Intra module refs:   DrawSoftMenu
                                                   FirstLoadFile
    -------------------------------------------------------------------------
CODE
  Relative segment, address: CODE_AREA 000055C8 - 000055CB (0x4 bytes), align: 2
  Segment part 559.           Intra module refs:   FL_saver
                                                   FirstLoadFile
    -------------------------------------------------------------------------
CODE
  Relative segment, address: CODE_AREA 000055CC - 000055CF (0x4 bytes), align: 2
  Segment part 560.           Intra module refs:   FirstLoadFile
    -------------------------------------------------------------------------
CODE
  Relative segment, address: CODE_AREA 000055D0 - 000055D3 (0x4 bytes), align: 2
  Segment part 561.           Intra module refs:   FL_saver
                                                   FirstLoadFile
    -------------------------------------------------------------------------
CODE
  Relative segment, address: CODE_AREA 000055D4 - 000055D7 (0x4 bytes), align: 2
  Segment part 562.           Intra module refs:   FirstLoadFile
    -------------------------------------------------------------------------
CODE
  Relative segment, address: CODE_AREA 000055D8 - 000055DB (0x4 bytes), align: 2
  Segment part 563.           Intra module refs:   FL_saver
                                                   FirstLoadFile
    -------------------------------------------------------------------------
CODE
  Relative segment, address: CODE_AREA 000055DC - 000055DF (0x4 bytes), align: 2
  Segment part 564.           Intra module refs:   FL_loader
                                                   FirstLoadFile
    -------------------------------------------------------------------------
CODE
  Relative segment, address: CODE_AREA 000055E0 - 000055E3 (0x4 bytes), align: 2
  Segment part 565.           Intra module refs:   FirstLoadFile
    -------------------------------------------------------------------------
CODE
  Relative segment, address: CODE_AREA 000055E4 - 000055E7 (0x4 bytes), align: 2
  Segment part 566.           Intra module refs:   FirstLoadFile
    -------------------------------------------------------------------------
CODE
  Relative segment, address: CODE_AREA 000055E8 - 000055EB (0x4 bytes), align: 2
  Segment part 567.           Intra module refs:   FirstLoadFile
    -------------------------------------------------------------------------
CODE
  Relative segment, address: CODE_AREA 000055EC - 000055EF (0x4 bytes), align: 2
  Segment part 568.           Intra module refs:   FirstLoadFile
    -------------------------------------------------------------------------
CODE
  Relative segment, address: CODE_AREA 000055F0 - 000055F3 (0x4 bytes), align: 2
  Segment part 569.           Intra module refs:   FirstLoadFile
    -------------------------------------------------------------------------
CODE
  Relative segment, address: CODE_AREA 000055F4 - 000055F7 (0x4 bytes), align: 2
  Segment part 570.           Intra module refs:   FirstLoadFile
    -------------------------------------------------------------------------
CODE
  Relative segment, address: CODE_AREA 000055F8 - 000055FB (0x4 bytes), align: 2
  Segment part 571.           Intra module refs:   FirstLoadFile
                                                   gl_inp_onkey
    -------------------------------------------------------------------------
CODE
  Relative segment, address: CODE_AREA 000055FC - 000055FF (0x4 bytes), align: 2
  Segment part 572.           Intra module refs:   FirstLoadFile
                                                   set_book1
                                                   set_book2
                                                   set_book3
                                                   set_book4
    -------------------------------------------------------------------------
CODE
  Relative segment, address: CODE_AREA 00005600 - 00005603 (0x4 bytes), align: 2
  Segment part 573.           Intra module refs:   FirstLoadFile
    -------------------------------------------------------------------------
CODE
  Relative segment, address: CODE_AREA 00005604 - 00005607 (0x4 bytes), align: 2
  Segment part 574.           Intra module refs:   FirstLoadFile
    -------------------------------------------------------------------------
CODE
  Relative segment, address: CODE_AREA 00005608 - 0000560B (0x4 bytes), align: 2
  Segment part 575.           Intra module refs:   FirstLoadFile
                                                   gl_inp_onkey
                                                   goto_book1
                                                   goto_book2
                                                   goto_book3
                                                   goto_book4
                                                   goto_bot
                                                   goto_last_saved
                                                   goto_top
    -------------------------------------------------------------------------
CODE
  Relative segment, address: CODE_AREA 0000560C - 0000560F (0x4 bytes), align: 2
  Segment part 576.           Intra module refs:   FirstLoadFile
    -------------------------------------------------------------------------
CODE
  Segment part 577. NOT NEEDED.
    -------------------------------------------------------------------------
DATA_C
  Relative segment, address: CODE_AREA 00008B4C - 00008B77 (0x2c bytes), align: 2
  Segment part 214.           Intra module refs:   maincsm_oncreate
           ENTRY                   ADDRESS         REF BY
           =====                   =======         ======
           gui_methods             00008B4C 
    -------------------------------------------------------------------------
DATA_C
  Relative segment, address: CODE_AREA 00008B78 - 00008B7F (0x8 bytes), align: 2
  Segment part 215.           Intra module refs:   maincsm_oncreate
           ENTRY                   ADDRESS         REF BY
           =====                   =======         ======
           Canvas                  00008B78 
    -------------------------------------------------------------------------
CODE
  Relative segment, address: CODE_AREA 00005610 - 000056BF (0xb0 bytes), align: 2
  Segment part 578.           Intra module refs:   MAINCSM
           ENTRY                   ADDRESS         REF BY
           =====                   =======         ======
           maincsm_oncreate        00005610 
               stack 1 = 00000000 ( 00000010 )
    -------------------------------------------------------------------------
CODE
  Segment part 579. NOT NEEDED.
    -------------------------------------------------------------------------
CODE
  Relative segment, address: CODE_AREA 000056C0 - 000056DB (0x1c bytes), align: 2
  Segment part 580.           Intra module refs:   Segment part 596
                                                   Segment part 614
           ENTRY                   ADDRESS         REF BY
           =====                   =======         ======
           Killer2                 000056C0 
               stack 1 = 00000000 ( 00000004 )
    -------------------------------------------------------------------------
CODE
  Segment part 581. NOT NEEDED.
    -------------------------------------------------------------------------
CODE
  Relative segment, address: CODE_AREA 000056DC - 000057EB (0x110 bytes), align: 2
  Segment part 582.           Intra module refs:   maincsm_onclose
           ENTRY                   ADDRESS         REF BY
           =====                   =======         ======
           Killer                  000056DC 
               stack 1 = 00000000 ( 00000010 )
    -------------------------------------------------------------------------
CODE
  Relative segment, address: CODE_AREA 000057EC - 000057EF (0x4 bytes), align: 2
  Segment part 583.           Intra module refs:   Killer
    -------------------------------------------------------------------------
CODE
  Relative segment, address: CODE_AREA 000057F0 - 000057F3 (0x4 bytes), align: 2
  Segment part 584.           Intra module refs:   FirstLoadFile
                                                   Killer
    -------------------------------------------------------------------------
CODE
  Relative segment, address: CODE_AREA 000057F4 - 000057F7 (0x4 bytes), align: 2
  Segment part 585.           Intra module refs:   FirstLoadFile
                                                   Killer
    -------------------------------------------------------------------------
CODE
  Relative segment, address: CODE_AREA 000057F8 - 000057FB (0x4 bytes), align: 2
  Segment part 586.           Intra module refs:   Killer
    -------------------------------------------------------------------------
CODE
  Relative segment, address: CODE_AREA 000057FC - 000057FF (0x4 bytes), align: 2
  Segment part 587.           Intra module refs:   Killer
    -------------------------------------------------------------------------
CODE
  Relative segment, address: CODE_AREA 00005800 - 00005803 (0x4 bytes), align: 2
  Segment part 588.           Intra module refs:   FirstLoadFile
                                                   Killer
    -------------------------------------------------------------------------
CODE
  Relative segment, address: CODE_AREA 00005804 - 00005807 (0x4 bytes), align: 2
  Segment part 589.           Intra module refs:   Killer
    -------------------------------------------------------------------------
CODE
  Relative segment, address: CODE_AREA 00005808 - 0000580B (0x4 bytes), align: 2
  Segment part 590.           Intra module refs:   FL_saver
                                                   Killer
    -------------------------------------------------------------------------
CODE
  Relative segment, address: CODE_AREA 0000580C - 0000580F (0x4 bytes), align: 2
  Segment part 591.           Intra module refs:   FL_loader
                                                   Killer
    -------------------------------------------------------------------------
CODE
  Relative segment, address: CODE_AREA 00005810 - 00005813 (0x4 bytes), align: 2
  Segment part 592.           Intra module refs:   Killer
                                                   maincsm_oncreate
    -------------------------------------------------------------------------
CODE
  Relative segment, address: CODE_AREA 00005814 - 00005817 (0x4 bytes), align: 2
  Segment part 593.           Intra module refs:   Killer
                                                   maincsm_oncreate
    -------------------------------------------------------------------------
CODE
  Relative segment, address: CODE_AREA 00005818 - 0000581B (0x4 bytes), align: 2
  Segment part 594.           Intra module refs:   Killer
                                                   gl_inp_ghook
                                                   gl_inp_onkey
                                                   goto_line_inp
                                                   maincsm_oncreate
    -------------------------------------------------------------------------
CODE
  Relative segment, address: CODE_AREA 0000581C - 0000581F (0x4 bytes), align: 2
  Segment part 595.           Intra module refs:   FirstLoadFile
                                                   Killer
    -------------------------------------------------------------------------
CODE
  Relative segment, address: CODE_AREA 00005820 - 00005823 (0x4 bytes), align: 2
  Segment part 596.           Intra module refs:   Killer
    -------------------------------------------------------------------------
CODE
  Segment part 597. NOT NEEDED.
    -------------------------------------------------------------------------
DATA_Z
  Relative segment, address: CODE_AREA 0000DA74 - 0000DA77 (0x4 bytes), align: 2
  Segment part 216.           Intra module refs:   Killer
    -------------------------------------------------------------------------
CODE
  Relative segment, address: CODE_AREA 00005824 - 00005837 (0x14 bytes), align: 2
  Segment part 598.           Intra module refs:   MAINCSM
           ENTRY                   ADDRESS         REF BY
           =====                   =======         ======
           maincsm_onclose         00005824 
               stack 1 = 00000000 ( 00000004 )
    -------------------------------------------------------------------------
CODE
  Segment part 599. NOT NEEDED.
    -------------------------------------------------------------------------
CODE
  Relative segment, address: CODE_AREA 00005838 - 00007A07 (0x21d0 bytes), align: 2
  Segment part 600.           Intra module refs:   MAINCSM
           ENTRY                   ADDRESS         REF BY
           =====                   =======         ======
           maincsm_onmessage       00005838 
               stack 1 = 00000000 ( 00000018 )
    -------------------------------------------------------------------------
CODE
  Relative segment, address: CODE_AREA 00007A08 - 00007A0B (0x4 bytes), align: 2
  Segment part 601.           Intra module refs:   maincsm_onmessage
    -------------------------------------------------------------------------
CODE
  Relative segment, address: CODE_AREA 00007A0C - 00007A0F (0x4 bytes), align: 2
  Segment part 602.           Intra module refs:   maincsm_onmessage
    -------------------------------------------------------------------------
CODE
  Segment part 603. NOT NEEDED.
    -------------------------------------------------------------------------
DATA_Z
  Relative segment, address: CODE_AREA 0000DA78 - 0000DB8F (0x118 bytes), align: 2
  Segment part 217.           Intra module refs:   MAINCSM
           ENTRY                   ADDRESS         REF BY
           =====                   =======         ======
           maincsm_name_body       0000DA78 
    -------------------------------------------------------------------------
DATA_C
  Relative segment, address: CODE_AREA 00008B80 - 00008BBB (0x3c bytes), align: 2
  Segment part 218.           Intra module refs:   UpdateCSMname
                                                   main
           ENTRY                   ADDRESS         REF BY
           =====                   =======         ======
           MAINCSM                 00008B80 
    -------------------------------------------------------------------------
CODE
  Relative segment, address: CODE_AREA 00007A10 - 00007A4F (0x40 bytes), align: 2
  Segment part 604.           Intra module refs:   main
                                                   sf_inp_onkey
           ENTRY                   ADDRESS         REF BY
           =====                   =======         ======
           UpdateCSMname           00007A10 
               stack 1 = 00000000 ( 00000008 )
    -------------------------------------------------------------------------
CODE
  Segment part 605. NOT NEEDED.
    -------------------------------------------------------------------------
CODE
  Relative segment, address: CODE_AREA 00007A50 - 00007B43 (0xf4 bytes), align: 2
  Segment part 606.           Intra module refs:   main
           ENTRY                   ADDRESS         REF BY
           =====                   =======         ======
           LoadConfigData          00007A50 
               stack 1 = 00000000 ( 00000024 )
    -------------------------------------------------------------------------
CODE
  Segment part 607. NOT NEEDED.
    -------------------------------------------------------------------------
CODE
  Relative segment, address: CODE_AREA 00007B44 - 00007CB3 (0x170 bytes), align: 2
  Segment part 608.
           ENTRY                   ADDRESS         REF BY
           =====                   =======         ======
           main                    00007B44        Absolute parts (?ABS_ENTRY_MOD)
               stack 1 = 00000000 ( 0000006C )
    -------------------------------------------------------------------------
CODE
  Relative segment, address: CODE_AREA 00007CB4 - 00007CB7 (0x4 bytes), align: 2
  Segment part 609.           Intra module refs:   main
    -------------------------------------------------------------------------
CODE
  Relative segment, address: CODE_AREA 00007CB8 - 00007CBB (0x4 bytes), align: 2
  Segment part 610.           Intra module refs:   main
    -------------------------------------------------------------------------
CODE
  Relative segment, address: CODE_AREA 00007CBC - 00007CBF (0x4 bytes), align: 2
  Segment part 611.           Intra module refs:   UpdateCSMname
                                                   main
    -------------------------------------------------------------------------
CODE
  Relative segment, address: CODE_AREA 00007CC0 - 00007CC3 (0x4 bytes), align: 2
  Segment part 612.           Intra module refs:   main
                                                   maincsm_onmessage
    -------------------------------------------------------------------------
CODE
  Relative segment, address: CODE_AREA 00007CC4 - 00007CC7 (0x4 bytes), align: 2
  Segment part 613.           Intra module refs:   main
    -------------------------------------------------------------------------
CODE
  Relative segment, address: CODE_AREA 00007CC8 - 00007CCB (0x4 bytes), align: 2
  Segment part 614.           Intra module refs:   main
    -------------------------------------------------------------------------
CODE
  Relative segment, address: CODE_AREA 00007CCC - 00007CCF (0x4 bytes), align: 2
  Segment part 615.           Intra module refs:   main
    -------------------------------------------------------------------------
CODE
  Relative segment, address: CODE_AREA 00007CD0 - 00007CD3 (0x4 bytes), align: 2
  Segment part 616.           Intra module refs:   main
    -------------------------------------------------------------------------
CODE
  Segment part 617. NOT NEEDED.Intra module refs   DrawScreen
                                                   FirstLoadFile
                                                   drawFrmStkStr
    -------------------------------------------------------------------------
CODE
  Segment part 618. NOT NEEDED.Intra module refs   GotoLine
                                                   PageUp
                                                   actUp
                                                   maincsm_onmessage
    -------------------------------------------------------------------------
CODE
  Segment part 619. NOT NEEDED.Intra module refs   GotoLine
                                                   LineDw
                                                   actDown
                                                   maincsm_onmessage
                                                   method5
    -------------------------------------------------------------------------
CODE
  Segment part 620. NOT NEEDED.Intra module refs   DrawScreen
    -------------------------------------------------------------------------
CODE
  Segment part 621. NOT NEEDED.Intra module refs   DrawScreen
                                                   delline
                                                   ed_inp_redraw
                                                   joinlines
    -------------------------------------------------------------------------
CODE
  Segment part 622. NOT NEEDED.Intra module refs   Killer2
                                                   method7
    -------------------------------------------------------------------------
CODE
  Segment part 623. NOT NEEDED.Intra module refs   LoadFont
    -------------------------------------------------------------------------
CODE
  Segment part 624. NOT NEEDED.Intra module refs   FirstLoadFile
    -------------------------------------------------------------------------
CODE
  Segment part 625. NOT NEEDED.Intra module refs   FirstLoadFile
    -------------------------------------------------------------------------
CODE
  Segment part 626. NOT NEEDED.Intra module refs   Killer
    -------------------------------------------------------------------------
CODE
  Relative segment, address: CODE_AREA 00007CD4 - 00007CD7 (0x4 bytes), align: 2
  Segment part 627.
    -------------------------------------------------------------------------
CSTACK
  Segment part 1. NOT NEEDED.
    -------------------------------------------------------------------------
DATA_ID
  Relative segment, address: CODE_AREA 00000000 - 0000000B (0xc bytes), align: 2
  Segment part 68.            Intra module refs:   menusoftkeys
    -------------------------------------------------------------------------
DATA_ID
  Relative segment, address: CODE_AREA 0000000C - 00000023 (0x18 bytes), align: 2
  Segment part 70.            Intra module refs:   menu_sk
    -------------------------------------------------------------------------
DATA_ID
  Relative segment, address: CODE_AREA 00000024 - 0000002B (0x8 bytes), align: 2
  Segment part 72.            Intra module refs:   menu_skt
    -------------------------------------------------------------------------
DATA_ID
  Relative segment, address: CODE_AREA 0000002C - 0000003B (0x10 bytes), align: 2
  Segment part 74.            Intra module refs:   t_bm1
    -------------------------------------------------------------------------
DATA_ID
  Relative segment, address: CODE_AREA 0000003C - 0000004B (0x10 bytes), align: 2
  Segment part 76.            Intra module refs:   t_bm2
    -------------------------------------------------------------------------
DATA_ID
  Relative segment, address: CODE_AREA 0000004C - 0000005B (0x10 bytes), align: 2
  Segment part 78.            Intra module refs:   t_bm3
    -------------------------------------------------------------------------
DATA_ID
  Relative segment, address: CODE_AREA 0000005C - 0000006B (0x10 bytes), align: 2
  Segment part 80.            Intra module refs:   t_bm4
    -------------------------------------------------------------------------
DATA_ID
  Relative segment, address: CODE_AREA 0000006C - 0000006F (0x4 bytes), align: 2
  Segment part 90.            Intra module refs:   stk_fhandle
    -------------------------------------------------------------------------
DATA_ID
  Relative segment, address: CODE_AREA 00000070 - 00000073 (0x4 bytes), align: 2
  Segment part 93.            Intra module refs:   draw_mode
    -------------------------------------------------------------------------
DATA_ID
  Relative segment, address: CODE_AREA 00000074 - 00000077 (0x4 bytes), align: 2
  Segment part 95.            Intra module refs:   font_size
    -------------------------------------------------------------------------
DATA_ID
  Relative segment, address: CODE_AREA 00000078 - 0000007B (0x4 bytes), align: 2
  Segment part 106.           Intra module refs:   disk_access
    -------------------------------------------------------------------------
DATA_ID
  Relative segment, address: CODE_AREA 0000007C - 0000007F (0x4 bytes), align: 2
  Segment part 125.           Intra module refs:   STKSZ
    -------------------------------------------------------------------------
DATA_ID
  Relative segment, address: CODE_AREA 00000080 - 00000083 (0x4 bytes), align: 2
  Segment part 127.           Intra module refs:   STKMAX
    -------------------------------------------------------------------------
DATA_ID
  Relative segment, address: CODE_AREA 00000084 - 00000087 (0x4 bytes), align: 2
  Segment part 129.           Intra module refs:   STKMIN
    -------------------------------------------------------------------------
DATA_ID
  Relative segment, address: CODE_AREA 00000088 - 0000008B (0x4 bytes), align: 2
  Segment part 131.           Intra module refs:   STKSZ50
    -------------------------------------------------------------------------
DATA_ID
  Relative segment, address: CODE_AREA 0000008C - 00000097 (0xc bytes), align: 2
  Segment part 147.           Intra module refs:   MyScrHdr
    -------------------------------------------------------------------------
DATA_ID
  Relative segment, address: CODE_AREA 00000098 - 000000B7 (0x20 bytes), align: 2
  Segment part 154.           Intra module refs:   edmenu_HNDLS
    -------------------------------------------------------------------------
DATA_ID
  Relative segment, address: CODE_AREA 000000B8 - 00000197 (0xe0 bytes), align: 2
  Segment part 156.           Intra module refs:   edmenu_ITEMS
    -------------------------------------------------------------------------
DATA_ID
  Relative segment, address: CODE_AREA 00000198 - 000001AB (0x14 bytes), align: 2
  Segment part 158.           Intra module refs:   edmenu_HDR
    -------------------------------------------------------------------------
DATA_ID
  Relative segment, address: CODE_AREA 000001AC - 000001D7 (0x2c bytes), align: 2
  Segment part 160.           Intra module refs:   edmenu_STRUCT
    -------------------------------------------------------------------------
DATA_ID
  Relative segment, address: CODE_AREA 000001D8 - 000001DF (0x8 bytes), align: 2
  Segment part 162.           Intra module refs:   Segment part 161
    -------------------------------------------------------------------------
DATA_ID
  Relative segment, address: CODE_AREA 000001E0 - 000001F3 (0x14 bytes), align: 2
  Segment part 165.           Intra module refs:   ed_inp_hdr
    -------------------------------------------------------------------------
DATA_ID
  Relative segment, address: CODE_AREA 000001F4 - 0000022B (0x38 bytes), align: 2
  Segment part 167.           Intra module refs:   ed_inp_desc
    -------------------------------------------------------------------------
DATA_ID
  Relative segment, address: CODE_AREA 0000022C - 00000233 (0x8 bytes), align: 2
  Segment part 169.           Intra module refs:   Segment part 168
    -------------------------------------------------------------------------
DATA_ID
  Relative segment, address: CODE_AREA 00000234 - 00000247 (0x14 bytes), align: 2
  Segment part 171.           Intra module refs:   sf_inp_hdr
    -------------------------------------------------------------------------
DATA_ID
  Relative segment, address: CODE_AREA 00000248 - 0000027F (0x38 bytes), align: 2
  Segment part 173.           Intra module refs:   sf_inp_desc
    -------------------------------------------------------------------------
DATA_ID
  Relative segment, address: CODE_AREA 00000280 - 00000293 (0x14 bytes), align: 2
  Segment part 177.           Intra module refs:   loadmenu_HDR
    -------------------------------------------------------------------------
DATA_ID
  Relative segment, address: CODE_AREA 00000294 - 000002BF (0x2c bytes), align: 2
  Segment part 179.           Intra module refs:   loadmenu_STRUCT
    -------------------------------------------------------------------------
DATA_ID
  Relative segment, address: CODE_AREA 000002C0 - 000002C7 (0x8 bytes), align: 2
  Segment part 182.           Intra module refs:   Segment part 181
    -------------------------------------------------------------------------
DATA_ID
  Relative segment, address: CODE_AREA 000002C8 - 000002DB (0x14 bytes), align: 2
  Segment part 184.           Intra module refs:   gl_inp_hdr_percent
    -------------------------------------------------------------------------
DATA_ID
  Relative segment, address: CODE_AREA 000002DC - 000002EF (0x14 bytes), align: 2
  Segment part 186.           Intra module refs:   gl_inp_hdr_line
    -------------------------------------------------------------------------
DATA_ID
  Relative segment, address: CODE_AREA 000002F0 - 00000327 (0x38 bytes), align: 2
  Segment part 188.           Intra module refs:   gl_inp_desc
    -------------------------------------------------------------------------
DATA_ID
  Relative segment, address: CODE_AREA 00000328 - 0000034B (0x24 bytes), align: 2
  Segment part 190.           Intra module refs:   gotomenu_HNDLS
    -------------------------------------------------------------------------
DATA_ID
  Relative segment, address: CODE_AREA 0000034C - 00000447 (0xfc bytes), align: 2
  Segment part 192.           Intra module refs:   gotomenu_ITEMS
    -------------------------------------------------------------------------
DATA_ID
  Relative segment, address: CODE_AREA 00000448 - 0000045B (0x14 bytes), align: 2
  Segment part 194.           Intra module refs:   gotomenu_HDR
    -------------------------------------------------------------------------
DATA_ID
  Relative segment, address: CODE_AREA 0000045C - 00000487 (0x2c bytes), align: 2
  Segment part 196.           Intra module refs:   gotomenu_STRUCT
    -------------------------------------------------------------------------
DATA_ID
  Relative segment, address: CODE_AREA 00000488 - 000004F7 (0x70 bytes), align: 2
  Segment part 198.           Intra module refs:   bookmenu_ITEMS
    -------------------------------------------------------------------------
DATA_ID
  Relative segment, address: CODE_AREA 000004F8 - 00000507 (0x10 bytes), align: 2
  Segment part 200.           Intra module refs:   bookmenu_HNDLS
    -------------------------------------------------------------------------
DATA_ID
  Relative segment, address: CODE_AREA 00000508 - 0000051B (0x14 bytes), align: 2
  Segment part 202.           Intra module refs:   bookmenu_HDR
    -------------------------------------------------------------------------
DATA_ID
  Relative segment, address: CODE_AREA 0000051C - 00000547 (0x2c bytes), align: 2
  Segment part 204.           Intra module refs:   bookmenu_STRUCT
    -------------------------------------------------------------------------
DATA_ID
  Relative segment, address: CODE_AREA 00000548 - 0000059B (0x54 bytes), align: 2
  Segment part 206.           Intra module refs:   softmenu_ITEMS
    -------------------------------------------------------------------------
DATA_ID
  Relative segment, address: CODE_AREA 0000059C - 000005A7 (0xc bytes), align: 2
  Segment part 208.           Intra module refs:   softmenu_HNDLS
    -------------------------------------------------------------------------
DATA_ID
  Relative segment, address: CODE_AREA 000005A8 - 000005BB (0x14 bytes), align: 2
  Segment part 210.           Intra module refs:   softmenu_HDR
    -------------------------------------------------------------------------
DATA_ID
  Relative segment, address: CODE_AREA 000005BC - 000005E7 (0x2c bytes), align: 2
  Segment part 212.           Intra module refs:   softmenu_STRUCT
    -------------------------------------------------------------------------
INITTAB
  Relative segment, address: CODE_AREA 00008BE8 - 00008BF3 (0xc bytes), align: 2
  Segment part 628. ROOT.
           ENTRY                   ADDRESS         REF BY
           =====                   =======         ======
           ?init?tab?DATA_Z        00008BE8 
    -------------------------------------------------------------------------
DATA_ID
  Segment part 629. NOT NEEDED.
           ENTRY                   ADDRESS         REF BY
           =====                   =======         ======
           ?*?DATA_ID              
    -------------------------------------------------------------------------
INITTAB
  Relative segment, address: CODE_AREA 00008BF4 - 00008BFF (0xc bytes), align: 2
  Segment part 630. ROOT.
           ENTRY                   ADDRESS         REF BY
           =====                   =======         ======
           ?init?tab?DATA_I        00008BF4 
    -------------------------------------------------------------------------
CONFIG_C
  Segment part 631. NOT NEEDED.

    *************************************************************************

  FILE NAME : D:\pasha\elf\SVN2\TED\Release_ELKA\Obj\saver.r79
  PROGRAM MODULE, NAME : saver

  SEGMENTS IN THE MODULE
  ======================
CODE
  Segment part 4. NOT NEEDED.
    -------------------------------------------------------------------------
CODE
  Relative segment, address: CODE_AREA 00007CD8 - 000080DF (0x408 bytes), align: 2
  Segment part 5.
           ENTRY                   ADDRESS         REF BY
           =====                   =======         ======
           savetext                00007CD8        Killer (main)
                                                   Segment part 429 (main)
                                                   Segment part 627 (main)
               stack 1 = 00000000 ( 0000002C )
    -------------------------------------------------------------------------
CODE
  Segment part 6. NOT NEEDED. Intra module refs:   savetext
    -------------------------------------------------------------------------
CSTACK
  Segment part 1. NOT NEEDED.
    -------------------------------------------------------------------------
DATA_C
  Relative segment, address: CODE_AREA 00008BBC - 00008BCF (0x14 bytes), align: 2
  Segment part 2.             Intra module refs:   savetext
    -------------------------------------------------------------------------
DATA_C
  Relative segment, address: CODE_AREA 00008BD0 - 00008BE3 (0x14 bytes), align: 2
  Segment part 3.             Intra module refs:   savetext

    *************************************************************************

  FILE NAME : D:\pasha\elf\SVN2\TED\div.r79
  LIBRARY MODULE, NAME : ?div_module

  SEGMENTS IN THE MODULE
  ======================
CODE
  Segment part 0. NOT NEEDED.
           ENTRY                   ADDRESS         REF BY
           =====                   =======         ======
           ??divu8_t               
    -------------------------------------------------------------------------
CODE
  Segment part 1. NOT NEEDED.
           ENTRY                   ADDRESS         REF BY
           =====                   =======         ======
           ??divu8_a               
    -------------------------------------------------------------------------
CODE
  Segment part 2. NOT NEEDED.
           ENTRY                   ADDRESS         REF BY
           =====                   =======         ======
           ??divu16_t              
    -------------------------------------------------------------------------
CODE
  Segment part 3. NOT NEEDED.
           ENTRY                   ADDRESS         REF BY
           =====                   =======         ======
           ??divu16_a              
    -------------------------------------------------------------------------
CODE
  Segment part 4. NOT NEEDED.
           ENTRY                   ADDRESS         REF BY
           =====                   =======         ======
           ??divu32_t              
    -------------------------------------------------------------------------
CODE
  Relative segment, address: CODE_AREA 000080E0 - 000080EB (0xc bytes), align: 2
  Segment part 5.
           ENTRY                   ADDRESS         REF BY
           =====                   =======         ======
           ??divu32_a              000080E0        DrawScreen (main)
                                                   FirstLoadFile (main)
                                                   drawFrmStkStr (main)
    -------------------------------------------------------------------------
CODE
  Segment part 6. NOT NEEDED.
           ENTRY                   ADDRESS         REF BY
           =====                   =======         ======
           ??div8_t                
    -------------------------------------------------------------------------
CODE
  Segment part 7. NOT NEEDED.
           ENTRY                   ADDRESS         REF BY
           =====                   =======         ======
           ??div8_a                
    -------------------------------------------------------------------------
CODE
  Segment part 8. NOT NEEDED.
           ENTRY                   ADDRESS         REF BY
           =====                   =======         ======
           ??div16_t               
    -------------------------------------------------------------------------
CODE
  Segment part 9. NOT NEEDED.
           ENTRY                   ADDRESS         REF BY
           =====                   =======         ======
           ??div16_a               
    -------------------------------------------------------------------------
CODE
  Segment part 10. NOT NEEDED.
           ENTRY                   ADDRESS         REF BY
           =====                   =======         ======
           ??div32_t               
    -------------------------------------------------------------------------
CODE
  Relative segment, address: CODE_AREA 000080EC - 00008103 (0x18 bytes), align: 2
  Segment part 11.
           ENTRY                   ADDRESS         REF BY
           =====                   =======         ======
           ??div32_a               000080EC        LoadFont (main)
    -------------------------------------------------------------------------
CODE
  Relative segment, address: CODE_AREA 00008104 - 000081DB (0xd8 bytes), align: 2
  Segment part 12.            Intra module refs:   ??div32_a
                                                   ??divu32_a




                ****************************************
                *                                      *
                *            MODULE SUMMARY            *
                *                                      *
                ****************************************

Module            CODE   DATA
------            ----   ----
                 (Rel)  (Rel)
?div_module        252
config_data        860
convert_format   2 100
convert_simple     360
func                 4
linework           372
main            52 048  1 512
saver            1 072
------          ------  -----
Total:          57 068  1 512


                ****************************************
                *                                      *
                *              CALL GRAPH              *
                *                                      *
                ****************************************

  ->Sub-tree of type: Indirectly called function tree that does not make
                    : indirect calls (Is not an interrupt and is not flagged
                    : as not overlayable)
                             CSTACK
    | Stack used (prev) :  00000000
  01  DoDiskAccess
      | Stack used (prev) :  00000000
      | + function block  :  00000030
  <-Sub-tree of type: Indirectly called function tree that does not make
                    : indirect calls (Is not an interrupt and is not flagged
                    : as not overlayable)
    | Stack used          :  00000030


  ->Sub-tree of type: Indirectly called function tree that does not make
                    : indirect calls (Is not an interrupt and is not flagged
                    : as not overlayable)
                             CSTACK
    | Stack used (prev) :  00000000
  01  GotoLine
      | Stack used (prev) :  00000000
      | + function block  :  00000014
  <-Sub-tree of type: Indirectly called function tree that does not make
                    : indirect calls (Is not an interrupt and is not flagged
                    : as not overlayable)
    | Stack used          :  00000014


  ->Sub-tree of type: Indirectly called function tree that does not make
                    : indirect calls (Is not an interrupt and is not flagged
                    : as not overlayable)
                             CSTACK
    | Stack used (prev) :  00000000
  01  insline
      | Stack used (prev) :  00000000
      | + function block  :  00000004
  <-Sub-tree of type: Indirectly called function tree that does not make
                    : indirect calls (Is not an interrupt and is not flagged
                    : as not overlayable)
    | Stack used          :  00000004


  ->Sub-tree of type: Indirectly called function tree that does not make
                    : indirect calls (Is not an interrupt and is not flagged
                    : as not overlayable)
                             CSTACK
    | Stack used (prev) :  00000000
  01  delline
      | Stack used (prev) :  00000000
      | + function block  :  00000008
  <-Sub-tree of type: Indirectly called function tree that does not make
                    : indirect calls (Is not an interrupt and is not flagged
                    : as not overlayable)
    | Stack used          :  00000008


  ->Sub-tree of type: Indirectly called function tree that does not make
                    : indirect calls (Is not an interrupt and is not flagged
                    : as not overlayable)
                             CSTACK
    | Stack used (prev) :  00000000
  01  splitline
      | Stack used (prev) :  00000000
      | + function block  :  0000000C
  <-Sub-tree of type: Indirectly called function tree that does not make
                    : indirect calls (Is not an interrupt and is not flagged
                    : as not overlayable)
    | Stack used          :  0000000C


  ->Sub-tree of type: Indirectly called function tree that does not make
                    : indirect calls (Is not an interrupt and is not flagged
                    : as not overlayable)
                             CSTACK
    | Stack used (prev) :  00000000
  01  joinlines
      | Stack used (prev) :  00000000
      | + function block  :  00000008
  <-Sub-tree of type: Indirectly called function tree that does not make
                    : indirect calls (Is not an interrupt and is not flagged
                    : as not overlayable)
    | Stack used          :  00000008


  ->Sub-tree of type: Indirectly called function tree that does not make
                    : indirect calls (Is not an interrupt and is not flagged
                    : as not overlayable)
                             CSTACK
    | Stack used (prev) :  00000000
  01  instime
      | Stack used (prev) :  00000000
      | + function block  :  00000018
  <-Sub-tree of type: Indirectly called function tree that does not make
                    : indirect calls (Is not an interrupt and is not flagged
                    : as not overlayable)
    | Stack used          :  00000018


  ->Sub-tree of type: Indirectly called function tree that does not make
                    : indirect calls (Is not an interrupt and is not flagged
                    : as not overlayable)
                             CSTACK
    | Stack used (prev) :  00000000
  01  insdate
      | Stack used (prev) :  00000000
      | + function block  :  0000001C
  <-Sub-tree of type: Indirectly called function tree that does not make
                    : indirect calls (Is not an interrupt and is not flagged
                    : as not overlayable)
    | Stack used          :  0000001C


  ->Sub-tree of type: Indirectly called function tree that does not make
                    : indirect calls (Is not an interrupt and is not flagged
                    : as not overlayable)
                             CSTACK
    | Stack used (prev) :  00000000
  01  paste
      | Stack used (prev) :  00000000
      | + function block  :  00000004
  <-Sub-tree of type: Indirectly called function tree that does not make
                    : indirect calls (Is not an interrupt and is not flagged
                    : as not overlayable)
    | Stack used          :  00000004


  ->Sub-tree of type: Indirectly called function tree that does not make
                    : indirect calls (Is not an interrupt and is not flagged
                    : as not overlayable)
                             CSTACK
    | Stack used (prev) :  00000000
  01  clearclipb
      | Stack used (prev) :  00000000
      | + function block  :  00000004
  <-Sub-tree of type: Indirectly called function tree that does not make
                    : indirect calls (Is not an interrupt and is not flagged
                    : as not overlayable)
    | Stack used          :  00000004


  ->Sub-tree of type: Indirectly called function tree that does not make
                    : indirect calls (Is not an interrupt and is not flagged
                    : as not overlayable)
                             CSTACK
    | Stack used (prev) :  00000000
  01  ed_inp_onkey
      | Stack used (prev) :  00000000
      | + function block  :  00000018
  <-Sub-tree of type: Indirectly called function tree that does not make
                    : indirect calls (Is not an interrupt and is not flagged
                    : as not overlayable)
    | Stack used          :  00000018


  ->Sub-tree of type: Indirectly called function tree that does not make
                    : indirect calls (Is not an interrupt and is not flagged
                    : as not overlayable)
                             CSTACK
    | Stack used (prev) :  00000000
  01  ed_inp_redraw
      | Stack used (prev) :  00000000
      | + function block  :  00000020
  <-Sub-tree of type: Indirectly called function tree that does not make
                    : indirect calls (Is not an interrupt and is not flagged
                    : as not overlayable)
    | Stack used          :  00000020


  ->Sub-tree of type: Indirectly called function tree that does not make
                    : indirect calls (Is not an interrupt and is not flagged
                    : as not overlayable)
                             CSTACK
    | Stack used (prev) :  00000000
  01  ed_inp_locret
      | Stack used (prev) :  00000000
      | + function block  :  00000000
  <-Sub-tree of type: Indirectly called function tree that does not make
                    : indirect calls (Is not an interrupt and is not flagged
                    : as not overlayable)
    | Stack used          :  00000000


  ->Sub-tree of type: Indirectly called function tree that does not make
                    : indirect calls (Is not an interrupt and is not flagged
                    : as not overlayable)
                             CSTACK
    | Stack used (prev) :  00000000
  01  ed_inp_ghook
      | Stack used (prev) :  00000000
      | + function block  :  0000003C
  <-Sub-tree of type: Indirectly called function tree that does not make
                    : indirect calls (Is not an interrupt and is not flagged
                    : as not overlayable)
    | Stack used          :  0000003C


  ->Sub-tree of type: Indirectly called function tree that does not make
                    : indirect calls (Is not an interrupt and is not flagged
                    : as not overlayable)
                             CSTACK
    | Stack used (prev) :  00000000
  01  method0
      | Stack used (prev) :  00000000
      | + function block  :  00000004
  <-Sub-tree of type: Indirectly called function tree that does not make
                    : indirect calls (Is not an interrupt and is not flagged
                    : as not overlayable)
    | Stack used          :  00000004


  ->Sub-tree of type: Indirectly called function tree that does not make
                    : indirect calls (Is not an interrupt and is not flagged
                    : as not overlayable)
                             CSTACK
    | Stack used (prev) :  00000000
  01  method1
      | Stack used (prev) :  00000000
      | + function block  :  00000008
  <-Sub-tree of type: Indirectly called function tree that does not make
                    : indirect calls (Is not an interrupt and is not flagged
                    : as not overlayable)
    | Stack used          :  00000008


  ->Sub-tree of type: Indirectly called function tree that does not make
                    : indirect calls (Is not an interrupt and is not flagged
                    : as not overlayable)
                             CSTACK
    | Stack used (prev) :  00000000
  01  method2
      | Stack used (prev) :  00000000
      | + function block  :  00000000
  <-Sub-tree of type: Indirectly called function tree that does not make
                    : indirect calls (Is not an interrupt and is not flagged
                    : as not overlayable)
    | Stack used          :  00000000


  ->Sub-tree of type: Indirectly called function tree that does not make
                    : indirect calls (Is not an interrupt and is not flagged
                    : as not overlayable)
                             CSTACK
    | Stack used (prev) :  00000000
  01  method3
      | Stack used (prev) :  00000000
      | + function block  :  00000008
  <-Sub-tree of type: Indirectly called function tree that does not make
                    : indirect calls (Is not an interrupt and is not flagged
                    : as not overlayable)
    | Stack used          :  00000008


  ->Sub-tree of type: Indirectly called function tree that does not make
                    : indirect calls (Is not an interrupt and is not flagged
                    : as not overlayable)
                             CSTACK
    | Stack used (prev) :  00000000
  01  method4
      | Stack used (prev) :  00000000
      | + function block  :  00000000
  <-Sub-tree of type: Indirectly called function tree that does not make
                    : indirect calls (Is not an interrupt and is not flagged
                    : as not overlayable)
    | Stack used          :  00000000


  ->Sub-tree of type: Indirectly called function tree that does not make
                    : indirect calls (Is not an interrupt and is not flagged
                    : as not overlayable)
                             CSTACK
    | Stack used (prev) :  00000000
  01  method7
      | Stack used (prev) :  00000000
      | + function block  :  00000004
  <-Sub-tree of type: Indirectly called function tree that does not make
                    : indirect calls (Is not an interrupt and is not flagged
                    : as not overlayable)
    | Stack used          :  00000004


  ->Sub-tree of type: Indirectly called function tree that does not make
                    : indirect calls (Is not an interrupt and is not flagged
                    : as not overlayable)
                             CSTACK
    | Stack used (prev) :  00000000
  01  method8
      | Stack used (prev) :  00000000
      | + function block  :  00000000
  <-Sub-tree of type: Indirectly called function tree that does not make
                    : indirect calls (Is not an interrupt and is not flagged
                    : as not overlayable)
    | Stack used          :  00000000


  ->Sub-tree of type: Indirectly called function tree that does not make
                    : indirect calls (Is not an interrupt and is not flagged
                    : as not overlayable)
                             CSTACK
    | Stack used (prev) :  00000000
  01  method9
      | Stack used (prev) :  00000000
      | + function block  :  00000000
  <-Sub-tree of type: Indirectly called function tree that does not make
                    : indirect calls (Is not an interrupt and is not flagged
                    : as not overlayable)
    | Stack used          :  00000000


  ->Sub-tree of type: Indirectly called function tree that does not make
                    : indirect calls (Is not an interrupt and is not flagged
                    : as not overlayable)
                             CSTACK
    | Stack used (prev) :  00000000
  01  method5
      | Stack used (prev) :  00000000
      | + function block  :  00000024
  <-Sub-tree of type: Indirectly called function tree that does not make
                    : indirect calls (Is not an interrupt and is not flagged
                    : as not overlayable)
    | Stack used          :  00000024


  ->Sub-tree of type: Indirectly called function tree that does not make
                    : indirect calls (Is not an interrupt and is not flagged
                    : as not overlayable)
                             CSTACK
    | Stack used (prev) :  00000000
  01  sf_inp_onkey
      | Stack used (prev) :  00000000
      | + function block  :  00000004
  <-Sub-tree of type: Indirectly called function tree that does not make
                    : indirect calls (Is not an interrupt and is not flagged
                    : as not overlayable)
    | Stack used          :  00000004


  ->Sub-tree of type: Indirectly called function tree that does not make
                    : indirect calls (Is not an interrupt and is not flagged
                    : as not overlayable)
                             CSTACK
    | Stack used (prev) :  00000000
  01  sf_inp_ghook
      | Stack used (prev) :  00000000
      | + function block  :  00000034
  <-Sub-tree of type: Indirectly called function tree that does not make
                    : indirect calls (Is not an interrupt and is not flagged
                    : as not overlayable)
    | Stack used          :  00000034


  ->Sub-tree of type: Indirectly called function tree that does not make
                    : indirect calls (Is not an interrupt and is not flagged
                    : as not overlayable)
                             CSTACK
    | Stack used (prev) :  00000000
  01  sf_inp_locret
      | Stack used (prev) :  00000000
      | + function block  :  00000000
  <-Sub-tree of type: Indirectly called function tree that does not make
                    : indirect calls (Is not an interrupt and is not flagged
                    : as not overlayable)
    | Stack used          :  00000000


  ->Sub-tree of type: Indirectly called function tree that does not make
                    : indirect calls (Is not an interrupt and is not flagged
                    : as not overlayable)
                             CSTACK
    | Stack used (prev) :  00000000
  01  LoadFont
      | Stack used (prev) :  00000000
      | + function block  :  000000B0
  <-Sub-tree of type: Indirectly called function tree that does not make
                    : indirect calls (Is not an interrupt and is not flagged
                    : as not overlayable)
    | Stack used          :  000000B0


  ->Sub-tree of type: Indirectly called function tree that does not make
                    : indirect calls (Is not an interrupt and is not flagged
                    : as not overlayable)
                             CSTACK
    | Stack used (prev) :  00000000
  01  load_menu_onkey
      | Stack used (prev) :  00000000
      | + function block  :  00000008
  <-Sub-tree of type: Indirectly called function tree that does not make
                    : indirect calls (Is not an interrupt and is not flagged
                    : as not overlayable)
    | Stack used          :  00000008


  ->Sub-tree of type: Indirectly called function tree that does not make
                    : indirect calls (Is not an interrupt and is not flagged
                    : as not overlayable)
                             CSTACK
    | Stack used (prev) :  00000000
  01  load_menu_ghook
      | Stack used (prev) :  00000000
      | + function block  :  00000004
  <-Sub-tree of type: Indirectly called function tree that does not make
                    : indirect calls (Is not an interrupt and is not flagged
                    : as not overlayable)
    | Stack used          :  00000004


  ->Sub-tree of type: Indirectly called function tree that does not make
                    : indirect calls (Is not an interrupt and is not flagged
                    : as not overlayable)
                             CSTACK
    | Stack used (prev) :  00000000
  01  load_menu_iconhndl
      | Stack used (prev) :  00000000
      | + function block  :  0000003C
  <-Sub-tree of type: Indirectly called function tree that does not make
                    : indirect calls (Is not an interrupt and is not flagged
                    : as not overlayable)
    | Stack used          :  0000003C


  ->Sub-tree of type: Indirectly called function tree that does not make
                    : indirect calls (Is not an interrupt and is not flagged
                    : as not overlayable)
                             CSTACK
    | Stack used (prev) :  00000000
  01  goto_top
      | Stack used (prev) :  00000000
      | + function block  :  00000004
  <-Sub-tree of type: Indirectly called function tree that does not make
                    : indirect calls (Is not an interrupt and is not flagged
                    : as not overlayable)
    | Stack used          :  00000004


  ->Sub-tree of type: Indirectly called function tree that does not make
                    : indirect calls (Is not an interrupt and is not flagged
                    : as not overlayable)
                             CSTACK
    | Stack used (prev) :  00000000
  01  goto_bot
      | Stack used (prev) :  00000000
      | + function block  :  00000004
  <-Sub-tree of type: Indirectly called function tree that does not make
                    : indirect calls (Is not an interrupt and is not flagged
                    : as not overlayable)
    | Stack used          :  00000004


  ->Sub-tree of type: Indirectly called function tree that does not make
                    : indirect calls (Is not an interrupt and is not flagged
                    : as not overlayable)
                             CSTACK
    | Stack used (prev) :  00000000
  01  gl_inp_onkey
      | Stack used (prev) :  00000000
      | + function block  :  00000004
  <-Sub-tree of type: Indirectly called function tree that does not make
                    : indirect calls (Is not an interrupt and is not flagged
                    : as not overlayable)
    | Stack used          :  00000004


  ->Sub-tree of type: Indirectly called function tree that does not make
                    : indirect calls (Is not an interrupt and is not flagged
                    : as not overlayable)
                             CSTACK
    | Stack used (prev) :  00000000
  01  gl_inp_ghook
      | Stack used (prev) :  00000000
      | + function block  :  00000034
  <-Sub-tree of type: Indirectly called function tree that does not make
                    : indirect calls (Is not an interrupt and is not flagged
                    : as not overlayable)
    | Stack used          :  00000034


  ->Sub-tree of type: Indirectly called function tree that does not make
                    : indirect calls (Is not an interrupt and is not flagged
                    : as not overlayable)
                             CSTACK
    | Stack used (prev) :  00000000
  01  gl_inp_locret
      | Stack used (prev) :  00000000
      | + function block  :  00000000
  <-Sub-tree of type: Indirectly called function tree that does not make
                    : indirect calls (Is not an interrupt and is not flagged
                    : as not overlayable)
    | Stack used          :  00000000


  ->Sub-tree of type: Indirectly called function tree that does not make
                    : indirect calls (Is not an interrupt and is not flagged
                    : as not overlayable)
                             CSTACK
    | Stack used (prev) :  00000000
  01  goto_line
      | Stack used (prev) :  00000000
      | + function block  :  00000004
  <-Sub-tree of type: Indirectly called function tree that does not make
                    : indirect calls (Is not an interrupt and is not flagged
                    : as not overlayable)
    | Stack used          :  00000004


  ->Sub-tree of type: Indirectly called function tree that does not make
                    : indirect calls (Is not an interrupt and is not flagged
                    : as not overlayable)
                             CSTACK
    | Stack used (prev) :  00000000
  01  goto_percent
      | Stack used (prev) :  00000000
      | + function block  :  00000004
  <-Sub-tree of type: Indirectly called function tree that does not make
                    : indirect calls (Is not an interrupt and is not flagged
                    : as not overlayable)
    | Stack used          :  00000004


  ->Sub-tree of type: Indirectly called function tree that does not make
                    : indirect calls (Is not an interrupt and is not flagged
                    : as not overlayable)
                             CSTACK
    | Stack used (prev) :  00000000
  01  goto_last_saved
      | Stack used (prev) :  00000000
      | + function block  :  00000004
  <-Sub-tree of type: Indirectly called function tree that does not make
                    : indirect calls (Is not an interrupt and is not flagged
                    : as not overlayable)
    | Stack used          :  00000004


  ->Sub-tree of type: Indirectly called function tree that does not make
                    : indirect calls (Is not an interrupt and is not flagged
                    : as not overlayable)
                             CSTACK
    | Stack used (prev) :  00000000
  01  goto_book1
      | Stack used (prev) :  00000000
      | + function block  :  00000004
  <-Sub-tree of type: Indirectly called function tree that does not make
                    : indirect calls (Is not an interrupt and is not flagged
                    : as not overlayable)
    | Stack used          :  00000004


  ->Sub-tree of type: Indirectly called function tree that does not make
                    : indirect calls (Is not an interrupt and is not flagged
                    : as not overlayable)
                             CSTACK
    | Stack used (prev) :  00000000
  01  goto_book2
      | Stack used (prev) :  00000000
      | + function block  :  00000004
  <-Sub-tree of type: Indirectly called function tree that does not make
                    : indirect calls (Is not an interrupt and is not flagged
                    : as not overlayable)
    | Stack used          :  00000004


  ->Sub-tree of type: Indirectly called function tree that does not make
                    : indirect calls (Is not an interrupt and is not flagged
                    : as not overlayable)
                             CSTACK
    | Stack used (prev) :  00000000
  01  goto_book3
      | Stack used (prev) :  00000000
      | + function block  :  00000004
  <-Sub-tree of type: Indirectly called function tree that does not make
                    : indirect calls (Is not an interrupt and is not flagged
                    : as not overlayable)
    | Stack used          :  00000004


  ->Sub-tree of type: Indirectly called function tree that does not make
                    : indirect calls (Is not an interrupt and is not flagged
                    : as not overlayable)
                             CSTACK
    | Stack used (prev) :  00000000
  01  goto_book4
      | Stack used (prev) :  00000000
      | + function block  :  00000004
  <-Sub-tree of type: Indirectly called function tree that does not make
                    : indirect calls (Is not an interrupt and is not flagged
                    : as not overlayable)
    | Stack used          :  00000004


  ->Sub-tree of type: Indirectly called function tree that does not make
                    : indirect calls (Is not an interrupt and is not flagged
                    : as not overlayable)
                             CSTACK
    | Stack used (prev) :  00000000
  01  goto_menu
      | Stack used (prev) :  00000000
      | + function block  :  00000018
  <-Sub-tree of type: Indirectly called function tree that does not make
                    : indirect calls (Is not an interrupt and is not flagged
                    : as not overlayable)
    | Stack used          :  00000018


  ->Sub-tree of type: Indirectly called function tree that does not make
                    : indirect calls (Is not an interrupt and is not flagged
                    : as not overlayable)
                             CSTACK
    | Stack used (prev) :  00000000
  01  set_book1
      | Stack used (prev) :  00000000
      | + function block  :  00000004
  <-Sub-tree of type: Indirectly called function tree that does not make
                    : indirect calls (Is not an interrupt and is not flagged
                    : as not overlayable)
    | Stack used          :  00000004


  ->Sub-tree of type: Indirectly called function tree that does not make
                    : indirect calls (Is not an interrupt and is not flagged
                    : as not overlayable)
                             CSTACK
    | Stack used (prev) :  00000000
  01  set_book2
      | Stack used (prev) :  00000000
      | + function block  :  00000004
  <-Sub-tree of type: Indirectly called function tree that does not make
                    : indirect calls (Is not an interrupt and is not flagged
                    : as not overlayable)
    | Stack used          :  00000004


  ->Sub-tree of type: Indirectly called function tree that does not make
                    : indirect calls (Is not an interrupt and is not flagged
                    : as not overlayable)
                             CSTACK
    | Stack used (prev) :  00000000
  01  set_book3
      | Stack used (prev) :  00000000
      | + function block  :  00000004
  <-Sub-tree of type: Indirectly called function tree that does not make
                    : indirect calls (Is not an interrupt and is not flagged
                    : as not overlayable)
    | Stack used          :  00000004


  ->Sub-tree of type: Indirectly called function tree that does not make
                    : indirect calls (Is not an interrupt and is not flagged
                    : as not overlayable)
                             CSTACK
    | Stack used (prev) :  00000000
  01  set_book4
      | Stack used (prev) :  00000000
      | + function block  :  00000004
  <-Sub-tree of type: Indirectly called function tree that does not make
                    : indirect calls (Is not an interrupt and is not flagged
                    : as not overlayable)
    | Stack used          :  00000004


  ->Sub-tree of type: Indirectly called function tree that does not make
                    : indirect calls (Is not an interrupt and is not flagged
                    : as not overlayable)
                             CSTACK
    | Stack used (prev) :  00000000
  01  bookm_menu
      | Stack used (prev) :  00000000
      | + function block  :  00000018
  <-Sub-tree of type: Indirectly called function tree that does not make
                    : indirect calls (Is not an interrupt and is not flagged
                    : as not overlayable)
    | Stack used          :  00000018


  ->Sub-tree of type: Indirectly called function tree that does not make
                    : indirect calls (Is not an interrupt and is not flagged
                    : as not overlayable)
                             CSTACK
    | Stack used (prev) :  00000000
  01  search_menu
      | Stack used (prev) :  00000000
      | + function block  :  00000000
  <-Sub-tree of type: Indirectly called function tree that does not make
                    : indirect calls (Is not an interrupt and is not flagged
                    : as not overlayable)
    | Stack used          :  00000000


  ->Sub-tree of type: Indirectly called function tree that does not make
                    : indirect calls (Is not an interrupt and is not flagged
                    : as not overlayable)
                             CSTACK
    | Stack used (prev) :  00000000
  01  FirstLoadFile
      | Stack used (prev) :  00000000
      | + function block  :  00000028
  <-Sub-tree of type: Indirectly called function tree that does not make
                    : indirect calls (Is not an interrupt and is not flagged
                    : as not overlayable)
    | Stack used          :  00000028


  ->Sub-tree of type: Indirectly called function tree that does not make
                    : indirect calls (Is not an interrupt and is not flagged
                    : as not overlayable)
                             CSTACK
    | Stack used (prev) :  00000000
  01  maincsm_oncreate
      | Stack used (prev) :  00000000
      | + function block  :  00000010
  <-Sub-tree of type: Indirectly called function tree that does not make
                    : indirect calls (Is not an interrupt and is not flagged
                    : as not overlayable)
    | Stack used          :  00000010


  ->Sub-tree of type: Indirectly called function tree that does not make
                    : indirect calls (Is not an interrupt and is not flagged
                    : as not overlayable)
                             CSTACK
    | Stack used (prev) :  00000000
  01  Killer2
      | Stack used (prev) :  00000000
      | + function block  :  00000004
  <-Sub-tree of type: Indirectly called function tree that does not make
                    : indirect calls (Is not an interrupt and is not flagged
                    : as not overlayable)
    | Stack used          :  00000004


  ->Sub-tree of type: Indirectly called function tree that does not make
                    : indirect calls (Is not an interrupt and is not flagged
                    : as not overlayable)
                             CSTACK
    | Stack used (prev) :  00000000
  01  Killer
      | Stack used (prev) :  00000000
      | + function block  :  00000010
  <-Sub-tree of type: Indirectly called function tree that does not make
                    : indirect calls (Is not an interrupt and is not flagged
                    : as not overlayable)
    | Stack used          :  00000010


  ->Sub-tree of type: Indirectly called function tree that does not make
                    : indirect calls (Is not an interrupt and is not flagged
                    : as not overlayable)
                             CSTACK
    | Stack used (prev) :  00000000
  01  maincsm_onclose
      | Stack used (prev) :  00000000
      | + function block  :  00000004
  <-Sub-tree of type: Indirectly called function tree that does not make
                    : indirect calls (Is not an interrupt and is not flagged
                    : as not overlayable)
    | Stack used          :  00000004


  ->Sub-tree of type: Indirectly called function tree that does not make
                    : indirect calls (Is not an interrupt and is not flagged
                    : as not overlayable)
                             CSTACK
    | Stack used (prev) :  00000000
  01  maincsm_onmessage
      | Stack used (prev) :  00000000
      | + function block  :  00000018
  <-Sub-tree of type: Indirectly called function tree that does not make
                    : indirect calls (Is not an interrupt and is not flagged
                    : as not overlayable)
    | Stack used          :  00000018


  ->Sub-tree of type: Indirectly called function tree that does not make
                    : indirect calls (Is not an interrupt and is not flagged
                    : as not overlayable)
                             CSTACK
    | Stack used (prev) :  00000000
  01  savetext
      | Stack used (prev) :  00000000
      | + function block  :  0000002C
  <-Sub-tree of type: Indirectly called function tree that does not make
                    : indirect calls (Is not an interrupt and is not flagged
                    : as not overlayable)
    | Stack used          :  0000002C


  ->Sub-tree of type: Function tree
                             CSTACK
    | Stack used (prev) :  000000B0
  01  GetCharType_x
      | Stack used (prev) :  000000B0
      | + function block  :  00000000
  <-Sub-tree of type: Function tree
    | Stack used          :  000000B0


  ->Sub-tree of type: Function tree
                             CSTACK
    | Stack used (prev) :  000000B0
  01  ConvertFormat
      | Stack used (prev) :  000000B0
      | + function block  :  00000140
  <-Sub-tree of type: Function tree
    | Stack used          :  000001F0


  ->Sub-tree of type: Function tree
                             CSTACK
    | Stack used (prev) :  000001F0
  01  def_code
      | Stack used (prev) :  000001F0
      | + function block  :  00000128
  <-Sub-tree of type: Function tree
    | Stack used          :  00000318


  ->Sub-tree of type: Function tree
                             CSTACK
    | Stack used (prev) :  00000318
  01  ConvertSimple
      | Stack used (prev) :  00000318
      | + function block  :  0000003C
  <-Sub-tree of type: Function tree
    | Stack used          :  00000354


  ->Sub-tree of type: Function tree
                             CSTACK
    | Stack used (prev) :  00000354
  01  bl_us
      | Stack used (prev) :  00000354
      | + function block  :  00000000
  <-Sub-tree of type: Function tree
    | Stack used          :  00000354


  ->Sub-tree of type: Function tree
                             CSTACK
    | Stack used (prev) :  00000354
  01  bl_ds
      | Stack used (prev) :  00000354
      | + function block  :  00000000
  <-Sub-tree of type: Function tree
    | Stack used          :  00000354


  ->Sub-tree of type: Function tree
                             CSTACK
    | Stack used (prev) :  00000354
  01  move_up
      | Stack used (prev) :  00000354
      | + function block  :  00000008
  <-Sub-tree of type: Function tree
    | Stack used          :  0000035C


  ->Sub-tree of type: Function tree
                             CSTACK
    | Stack used (prev) :  0000035C
  01  move_dw
      | Stack used (prev) :  0000035C
      | + function block  :  0000000C
  <-Sub-tree of type: Function tree
    | Stack used          :  00000368


  ->Sub-tree of type: Function tree
                             CSTACK
    | Stack used (prev) :  00000368
  01  DrwImg
      | Stack used (prev) :  00000368
      | + function block  :  0000006C
  <-Sub-tree of type: Function tree
    | Stack used          :  000003D4


  ->Sub-tree of type: Function tree
                             CSTACK
    | Stack used (prev) :  000003D4
  01  DiskErrorMsg
      | Stack used (prev) :  000003D4
      | + function block  :  00000010
  <-Sub-tree of type: Function tree
    | Stack used          :  000003E4


  ->Sub-tree of type: Function tree
                             CSTACK
    | Stack used (prev) :  000003E4
  01  CharWidthForCodepage
      | Stack used (prev) :  000003E4
      | + function block  :  00000000
  <-Sub-tree of type: Function tree
    | Stack used          :  000003E4


  ->Sub-tree of type: Function tree
                             CSTACK
    | Stack used (prev) :  000003E4
  01  char16to8
      | Stack used (prev) :  000003E4
      | + function block  :  00000000
  <-Sub-tree of type: Function tree
    | Stack used          :  000003E4


  ->Sub-tree of type: Function tree
                             CSTACK
    | Stack used (prev) :  000003E4
  01  DrawChar
      | Stack used (prev) :  000003E4
      | + function block  :  00000038
  <-Sub-tree of type: Function tree
    | Stack used          :  0000041C


  ->Sub-tree of type: Function tree
                             CSTACK
    | Stack used (prev) :  0000041C
  01  drawStkStr
      | Stack used (prev) :  0000041C
      | + function block  :  00000024
  <-Sub-tree of type: Function tree
    | Stack used          :  00000440


  ->Sub-tree of type: Function tree
                             CSTACK
    | Stack used (prev) :  00000440
  01  drawFrmStkStr
      | Stack used (prev) :  00000440
      | + function block  :  0000002C
  <-Sub-tree of type: Function tree
    | Stack used          :  0000046C


  ->Sub-tree of type: Function tree
                             CSTACK
    | Stack used (prev) :  0000046C
  01  CheckDiskAccess
      | Stack used (prev) :  0000046C
      | + function block  :  00000004
  <-Sub-tree of type: Function tree
    | Stack used          :  00000470


  ->Sub-tree of type: Function tree
                             CSTACK
    | Stack used (prev) :  00000470
  01  SearchHistory
      | Stack used (prev) :  00000470
      | + function block  :  00000094
  <-Sub-tree of type: Function tree
    | Stack used          :  00000504


  ->Sub-tree of type: Function tree
                             CSTACK
    | Stack used (prev) :  00000504
  01  SaveHistory
      | Stack used (prev) :  00000504
      | + function block  :  0000013C
  <-Sub-tree of type: Function tree
    | Stack used          :  00000640


  ->Sub-tree of type: Function tree
                             CSTACK
    | Stack used (prev) :  00000640
  01  LineDw
      | Stack used (prev) :  00000640
      | + function block  :  00000004
  <-Sub-tree of type: Function tree
    | Stack used          :  00000644


  ->Sub-tree of type: Function tree
                             CSTACK
    | Stack used (prev) :  00000644
  01  PageUp
      | Stack used (prev) :  00000644
      | + function block  :  00000008
  <-Sub-tree of type: Function tree
    | Stack used          :  0000064C


  ->Sub-tree of type: Function tree
                             CSTACK
    | Stack used (prev) :  0000064C
  01  ToEOL
      | Stack used (prev) :  0000064C
      | + function block  :  00000004
  <-Sub-tree of type: Function tree
    | Stack used          :  00000650


  ->Sub-tree of type: Function tree
                             CSTACK
    | Stack used (prev) :  00000650
  01  WordLeft
      | Stack used (prev) :  00000650
      | + function block  :  00000000
  <-Sub-tree of type: Function tree
    | Stack used          :  00000650


  ->Sub-tree of type: Function tree
                             CSTACK
    | Stack used (prev) :  00000650
  01  WordRight
      | Stack used (prev) :  00000650
      | + function block  :  00000010
  <-Sub-tree of type: Function tree
    | Stack used          :  00000660


  ->Sub-tree of type: Function tree
                             CSTACK
    | Stack used (prev) :  00000660
  01  DrawInfo
      | Stack used (prev) :  00000660
      | + function block  :  00000068
  <-Sub-tree of type: Function tree
    | Stack used          :  000006C8


  ->Sub-tree of type: Function tree
                             CSTACK
    | Stack used (prev) :  000006C8
  01  DrawScreen
      | Stack used (prev) :  000006C8
      | + function block  :  00000064
  <-Sub-tree of type: Function tree
    | Stack used          :  0000072C


  ->Sub-tree of type: Function tree
                             CSTACK
    | Stack used (prev) :  0000072C
  01  doCurRight
      | Stack used (prev) :  0000072C
      | + function block  :  00000018
  <-Sub-tree of type: Function tree
    | Stack used          :  00000744


  ->Sub-tree of type: Function tree
                             CSTACK
    | Stack used (prev) :  00000744
  01  doCurLeft
      | Stack used (prev) :  00000744
      | + function block  :  0000000C
  <-Sub-tree of type: Function tree
    | Stack used          :  00000750


  ->Sub-tree of type: Function tree
                             CSTACK
    | Stack used (prev) :  00000750
  01  CreateEditDialog
      | Stack used (prev) :  00000750
      | + function block  :  00000048
  <-Sub-tree of type: Function tree
    | Stack used          :  00000798


  ->Sub-tree of type: Function tree
                             CSTACK
    | Stack used (prev) :  00000798
  01  actUp
      | Stack used (prev) :  00000798
      | + function block  :  00000004
  <-Sub-tree of type: Function tree
    | Stack used          :  0000079C


  ->Sub-tree of type: Function tree
                             CSTACK
    | Stack used (prev) :  0000079C
  01  actDown
      | Stack used (prev) :  0000079C
      | + function block  :  00000010
  <-Sub-tree of type: Function tree
    | Stack used          :  000007AC


  ->Sub-tree of type: Function tree
                             CSTACK
    | Stack used (prev) :  000007AC
  01  CreateSaveAsDialog
      | Stack used (prev) :  000007AC
      | + function block  :  00000048
  <-Sub-tree of type: Function tree
    | Stack used          :  000007F4


  ->Sub-tree of type: Function tree
                             CSTACK
    | Stack used (prev) :  000007F4
  01  AddFont
      | Stack used (prev) :  000007F4
      | + function block  :  00000018
  <-Sub-tree of type: Function tree
    | Stack used          :  0000080C


  ->Sub-tree of type: Function tree
                             CSTACK
    | Stack used (prev) :  0000080C
  01  DeleteFonts
      | Stack used (prev) :  0000080C
      | + function block  :  00000008
  <-Sub-tree of type: Function tree
    | Stack used          :  00000814


  ->Sub-tree of type: Function tree
                             CSTACK
    | Stack used (prev) :  00000814
  01  GetFontList
      | Stack used (prev) :  00000814
      | + function block  :  0000037C
  <-Sub-tree of type: Function tree
    | Stack used          :  00000B90


  ->Sub-tree of type: Function tree
                             CSTACK
    | Stack used (prev) :  00000B90
  01  do_rotate
      | Stack used (prev) :  00000B90
      | + function block  :  00000008
  <-Sub-tree of type: Function tree
    | Stack used          :  00000B98


  ->Sub-tree of type: Function tree
                             CSTACK
    | Stack used (prev) :  00000B98
  01  load_direct
      | Stack used (prev) :  00000B98
      | + function block  :  00000004
  <-Sub-tree of type: Function tree
    | Stack used          :  00000B9C


  ->Sub-tree of type: Function tree
                             CSTACK
    | Stack used (prev) :  00000B9C
  01  load_format
      | Stack used (prev) :  00000B9C
      | + function block  :  00000004
  <-Sub-tree of type: Function tree
    | Stack used          :  00000BA0


  ->Sub-tree of type: Function tree
                             CSTACK
    | Stack used (prev) :  00000BA0
  01  load_eolspc
      | Stack used (prev) :  00000BA0
      | + function block  :  00000004
  <-Sub-tree of type: Function tree
    | Stack used          :  00000BA4


  ->Sub-tree of type: Function tree
                             CSTACK
    | Stack used (prev) :  00000BA4
  01  DrawLoadMenu
      | Stack used (prev) :  00000BA4
      | + function block  :  0000001C
  <-Sub-tree of type: Function tree
    | Stack used          :  00000BC0


  ->Sub-tree of type: Function tree
                             CSTACK
    | Stack used (prev) :  00000BC0
  01  goto_line_inp
      | Stack used (prev) :  00000BC0
      | + function block  :  00000050
  <-Sub-tree of type: Function tree
    | Stack used          :  00000C10


  ->Sub-tree of type: Function tree
                             CSTACK
    | Stack used (prev) :  00000C10
  01  DrawSoftMenu
      | Stack used (prev) :  00000C10
      | + function block  :  0000001C
  <-Sub-tree of type: Function tree
    | Stack used          :  00000C2C


  ->Sub-tree of type: Function tree
                             CSTACK
    | Stack used (prev) :  00000C2C
  01  FL_loader
      | Stack used (prev) :  00000C2C
      | + function block  :  0000001C
  <-Sub-tree of type: Function tree
    | Stack used          :  00000C48


  ->Sub-tree of type: Function tree
                             CSTACK
    | Stack used (prev) :  00000C48
  01  FL_saver
      | Stack used (prev) :  00000C48
      | + function block  :  0000001C
  <-Sub-tree of type: Function tree
    | Stack used          :  00000C64


  ->Sub-tree of type: Function tree
                             CSTACK
    | Stack used (prev) :  00000C64
  01  UpdateCSMname
      | Stack used (prev) :  00000C64
      | + function block  :  00000008
  <-Sub-tree of type: Function tree
    | Stack used          :  00000C6C


  ->Sub-tree of type: Function tree
                             CSTACK
    | Stack used (prev) :  00000C6C
  01  LoadConfigData
      | Stack used (prev) :  00000C6C
      | + function block  :  00000024
  <-Sub-tree of type: Function tree
    | Stack used          :  00000C90


  ->Sub-tree of type: Function tree
                             CSTACK
    | Stack used (prev) :  00000C90
  01  main
      | Stack used (prev) :  00000C90
      | + function block  :  0000006C
  <-Sub-tree of type: Function tree
    | Stack used          :  00000CFC




                ****************************************
                *                                      *
                *      SEGMENTS IN ADDRESS ORDER       *
                *                                      *
                ****************************************


SEGMENT              SPACE    START ADDRESS   END ADDRESS     SIZE  TYPE  ALIGN
=======              =====    =============   ===========     ====  ====  =====
ELFBEGIN             CODE_AREA           00000000                     rel    0
DATA_ID              CODE_AREA      00000000 - 000005E7         5E8   rel    2
START                CODE_AREA           000005E8                     dse    0
CODE                 CODE_AREA      000005E8 - 000081DB        7BF4   rel    2
DATA_C               CODE_AREA      000081DC - 00008BE6         A0B   rel    2
INITTAB              CODE_AREA      00008BE8 - 00008BFF          18   rel    2
DATA_Z               CODE_AREA      00008C00 - 0000DB90        4F91   rel    2
DATA_N               CODE_AREA           0000DB91                     dse    0
CONFIG_C             CODE_AREA      0000DB94 - 0000DEEF         35C   rel    2
DATA_I               DATA_AREA      00000000 - 000005E7         5E8   rel    2

                ****************************************
                *                                      *
                *        END OF CROSS REFERENCE        *
                *                                      *
                ****************************************

 57 068 bytes of CODE memory
  1 512 bytes of DATA memory

Errors: none
Warnings: none

