##############################################################################
#                                                                            #
# IAR ARM ANSI C/C++ Compiler V4.42A/W32 EVALUATION    23/Feb/2011  16:38:20 #
# Copyright 1999-2005 IAR Systems. All rights reserved.                      #
#                                                                            #
#    Cpu mode        =  interwork                                            #
#    Endian          =  little                                               #
#    Stack alignment =  4                                                    #
#    Source file     =  C:\arm\siejc\stat_info.c                             #
#    Command line    =  C:\arm\siejc\stat_info.c -D NEWSGOLD -D ELKA         #
#                       --preprocess C:\arm\siejc\Release_ELKA\List\ -lC     #
#                       C:\arm\siejc\Release_ELKA\List\ -o                   #
#                       C:\arm\siejc\Release_ELKA\Obj\ -s9 --no_unroll       #
#                       --cpu_mode arm --endian little --cpu ARM926EJ-S      #
#                       --stack_align 4 --interwork -e --fpu None            #
#                       --dlib_config "C:\arm2\Embedded Workbench 4.0        #
#                       Evaluation\ARM\LIB\dl5tpainl8f.h" -I                 #
#                       "C:\arm2\Embedded Workbench 4.0                      #
#                       Evaluation\ARM\INC\" --inline_threshold=2            #
#    List file       =  C:\arm\siejc\Release_ELKA\List\stat_info.lst         #
#    Object file     =  C:\arm\siejc\Release_ELKA\Obj\stat_info.r79          #
#                                                                            #
#                                                                            #
##############################################################################

C:\arm\siejc\stat_info.c
      1          #include "..\inc\swilib.h"
      2          #include "string_util.h"
      3          #include "stat_info.h"
      4          #include "lang.h"
      5          #include "main.h"
      6          
      7          #include "rect_patcher.h"
      8          #define MAX_SYMB 1024
      9          
     10          WSHDR* ws_stat_info = NULL;
     11          extern JABBER_STATE Jabber_state; 
     12          char percent_i[]="%i";
     13          extern unsigned int out_virt_bytes_count;
     14          extern unsigned int out_bytes_count;
     15          extern unsigned int in_virt_bytes_count;
     16          extern unsigned int in_bytes_count;
     17          extern int sendq_l;
     18          char SW_Support_Compression=0;
     19          

   \                                 In segment CODE, align 4, keep-with-next
     20          int stat_info_onkey(GUI *gui, GUI_MSG *msg)
     21          {
     22            if (msg->keys==0x18)
   \                     stat_info_onkey:
   \   00000000   F200D1E1           LDRSH    R0,[R1, #+2]
   \   00000004   180050E3           CMP      R0,#+24
     23            {
     24              return(-1); //do redraw
   \   00000008   0000E003           MVNEQ    R0,#+0
   \   0000000C   1EFF2F01           BXEQ     LR
     25            }
     26            return(0); //Do standart keys
   \   00000010   0000A0E3           MOV      R0,#+0
   \   00000014   1EFF2FE1           BX       LR               ;; return
     27          }
     28          

   \                                 In segment CODE, align 4, keep-with-next
     29          void stat_info_ghook(GUI *gui, int cmd)
     30          {
   \                     stat_info_ghook:
   \   00000000   F0432DE9           PUSH     {R4-R9,LR}
     31            if (cmd==TI_CMD_CREATE)
     32            {
     33              //Called after onCreate
     34            }
     35            if (cmd==TI_CMD_REDRAW && !EDIT_IsMarkModeActive(gui))
   \   00000004   A8519FE5           LDR      R5,??stat_info_ghook_0  ;; stat_info_desc
   \   00000008   0040A0E1           MOV      R4,R0
   \   0000000C   070051E3           CMP      R1,#+7
   \   00000010   5C00001A           BNE      ??stat_info_ghook_1
   \   00000014   D80100EF           SWI      +472
   \   00000018   000050E3           CMP      R0,#+0
   \   0000001C   F083BD18           POPNE    {R4-R9,PC}
     36            {
     37            wsprintf(ws_stat_info,percent_i, Jabber_state);
   \   00000020   ........           LDR      R0,??DataTable7  ;; Jabber_state
     38              EDIT_SetTextToEditControl(gui, 3, ws_stat_info);
     39          
     40            if(!SW_Support_Compression)
   \   00000024   ........           LDR      R6,??DataTable12  ;; sendq_l
   \   00000028   0020D0E5           LDRB     R2,[R0, #+0]
   \   0000002C   4C0095E5           LDR      R0,[R5, #+76]
   \   00000030   ........           LDR      R7,??DataTable11  ;; out_virt_bytes_count
   \   00000034   ........           LDR      R9,??DataTable6  ;; in_bytes_count
   \   00000038   511085E2           ADD      R1,R5,#+81
   \   0000003C   240100EF           SWI      +292
   \   00000040   4C2095E5           LDR      R2,[R5, #+76]
   \   00000044   0310A0E3           MOV      R1,#+3
   \   00000048   0400A0E1           MOV      R0,R4
   \   0000004C   DE0100EF           SWI      +478
   \   00000050   5000D5E5           LDRB     R0,[R5, #+80]
   \   00000054   002099E5           LDR      R2,[R9, #+0]
   \   00000058   511085E2           ADD      R1,R5,#+81
   \   0000005C   000050E3           CMP      R0,#+0
   \   00000060   4C0095E5           LDR      R0,[R5, #+76]
   \   00000064   1500001A           BNE      ??stat_info_ghook_2
     41            {
     42            wsprintf(ws_stat_info,percent_i, in_bytes_count);
   \   00000068   240100EF           SWI      +292
     43              EDIT_SetTextToEditControl(gui, 5, ws_stat_info);
   \   0000006C   4C2095E5           LDR      R2,[R5, #+76]
   \   00000070   0510A0E3           MOV      R1,#+5
   \   00000074   0400A0E1           MOV      R0,R4
   \   00000078   DE0100EF           SWI      +478
     44            wsprintf(ws_stat_info,percent_i, out_virt_bytes_count);
   \   0000007C   002097E5           LDR      R2,[R7, #+0]
   \   00000080   4C0095E5           LDR      R0,[R5, #+76]
   \   00000084   511085E2           ADD      R1,R5,#+81
   \   00000088   240100EF           SWI      +292
     45              EDIT_SetTextToEditControl(gui, 7, ws_stat_info);
   \   0000008C   4C2095E5           LDR      R2,[R5, #+76]
   \   00000090   0710A0E3           MOV      R1,#+7
   \   00000094   0400A0E1           MOV      R0,R4
   \   00000098   DE0100EF           SWI      +478
     46            wsprintf(ws_stat_info,percent_i, sendq_l);
   \   0000009C   002096E5           LDR      R2,[R6, #+0]
   \   000000A0   4C0095E5           LDR      R0,[R5, #+76]
   \   000000A4   511085E2           ADD      R1,R5,#+81
   \   000000A8   240100EF           SWI      +292
     47              EDIT_SetTextToEditControl(gui, 9, ws_stat_info); //9 //15
   \   000000AC   4C2095E5           LDR      R2,[R5, #+76]
   \   000000B0   0910A0E3           MOV      R1,#+9
   \   000000B4   0400A0E1           MOV      R0,R4
   \   000000B8   DE0100EF           SWI      +478
   \   000000BC   F083BDE8           POP      {R4-R9,PC}
     48            } else
     49            {
     50            wsprintf(ws_stat_info,percent_i, in_bytes_count);
     51              EDIT_SetTextToEditControl(gui, 5, ws_stat_info);
     52            wsprintf(ws_stat_info,percent_i, out_bytes_count);
   \                     ??stat_info_ghook_2:
   \   000000C0   ........           LDR      R8,??DataTable10  ;; out_bytes_count
   \   000000C4   240100EF           SWI      +292
   \   000000C8   4C2095E5           LDR      R2,[R5, #+76]
   \   000000CC   0510A0E3           MOV      R1,#+5
   \   000000D0   0400A0E1           MOV      R0,R4
   \   000000D4   DE0100EF           SWI      +478
   \   000000D8   002098E5           LDR      R2,[R8, #+0]
   \   000000DC   4C0095E5           LDR      R0,[R5, #+76]
   \   000000E0   511085E2           ADD      R1,R5,#+81
   \   000000E4   240100EF           SWI      +292
     53              EDIT_SetTextToEditControl(gui, 7, ws_stat_info);
   \   000000E8   4C2095E5           LDR      R2,[R5, #+76]
   \   000000EC   0710A0E3           MOV      R1,#+7
   \   000000F0   0400A0E1           MOV      R0,R4
   \   000000F4   DE0100EF           SWI      +478
     54            wsprintf(ws_stat_info,percent_i, (in_bytes_count*100/in_virt_bytes_count));
   \   000000F8   000099E5           LDR      R0,[R9, #+0]
   \   000000FC   6410A0E3           MOV      R1,#+100
   \   00000100   910000E0           MUL      R0,R1,R0
   \   00000104   ........           LDR      R1,??DataTable9  ;; in_virt_bytes_count
   \   00000108   001091E5           LDR      R1,[R1, #+0]
   \   0000010C   ........           _BLF     ??divu32_a,??rA??divu32_a
   \   00000110   4C0095E5           LDR      R0,[R5, #+76]
   \   00000114   0120A0E1           MOV      R2,R1
   \   00000118   511085E2           ADD      R1,R5,#+81
   \   0000011C   240100EF           SWI      +292
     55          //      wsprintf(ws_stat_info,percent_i, (in_bytes_count));
     56              EDIT_SetTextToEditControl(gui, 9, ws_stat_info);
   \   00000120   4C2095E5           LDR      R2,[R5, #+76]
   \   00000124   0910A0E3           MOV      R1,#+9
   \   00000128   0400A0E1           MOV      R0,R4
   \   0000012C   DE0100EF           SWI      +478
     57            wsprintf(ws_stat_info,percent_i, (out_bytes_count*100/out_virt_bytes_count));
   \   00000130   000098E5           LDR      R0,[R8, #+0]
   \   00000134   6410A0E3           MOV      R1,#+100
   \   00000138   910000E0           MUL      R0,R1,R0
   \   0000013C   001097E5           LDR      R1,[R7, #+0]
   \   00000140   ........           _BLF     ??divu32_a,??rA??divu32_a
   \   00000144   4C0095E5           LDR      R0,[R5, #+76]
   \   00000148   0120A0E1           MOV      R2,R1
   \   0000014C   511085E2           ADD      R1,R5,#+81
   \   00000150   240100EF           SWI      +292
     58          //      wsprintf(ws_stat_info,percent_i, (out_bytes_count));
     59          
     60              EDIT_SetTextToEditControl(gui, 12, ws_stat_info);
   \   00000154   4C2095E5           LDR      R2,[R5, #+76]
   \   00000158   0C10A0E3           MOV      R1,#+12
   \   0000015C   0400A0E1           MOV      R0,R4
   \   00000160   DE0100EF           SWI      +478
     61            wsprintf(ws_stat_info,percent_i, sendq_l);
   \   00000164   002096E5           LDR      R2,[R6, #+0]
   \   00000168   4C0095E5           LDR      R0,[R5, #+76]
   \   0000016C   511085E2           ADD      R1,R5,#+81
   \   00000170   240100EF           SWI      +292
     62              EDIT_SetTextToEditControl(gui, 15, ws_stat_info); //9 //15    
   \   00000174   4C2095E5           LDR      R2,[R5, #+76]
   \   00000178   0F10A0E3           MOV      R1,#+15
   \   0000017C   0400A0E1           MOV      R0,R4
   \   00000180   DE0100EF           SWI      +478
   \   00000184   F083BDE8           POP      {R4-R9,PC}
     63            }
     64            
     65            }
     66            if(cmd==TI_CMD_FOCUS)
   \                     ??stat_info_ghook_1:
   \   00000188   0A0051E3           CMP      R1,#+10
   \   0000018C   0100001A           BNE      ??stat_info_ghook_3
     67            {
     68              DisableIDLETMR();   // Отключаем таймер выхода по таймауту
   \   00000190   7F0100EF           SWI      +383
   \   00000194   F083BDE8           POP      {R4-R9,PC}
     69            }
     70            if(cmd==TI_CMD_DESTROY)     // onDestroy
   \                     ??stat_info_ghook_3:
   \   00000198   030051E3           CMP      R1,#+3
   \   0000019C   F083BD18           POPNE    {R4-R9,PC}
     71            {
     72              FreeWS(ws_stat_info);
   \   000001A0   4C0095E5           LDR      R0,[R5, #+76]
   \   000001A4   290100EF           SWI      +297
     73              ws_stat_info = NULL;
   \   000001A8   0000A0E3           MOV      R0,#+0
   \   000001AC   4C0085E5           STR      R0,[R5, #+76]
     74            }
     75          }
   \   000001B0   F083BDE8           POP      {R4-R9,PC}       ;; return
   \                     ??stat_info_ghook_0:
   \   000001B4   ........           DC32     stat_info_desc

   \                                 In segment DATA_I, align 4, align-sorted
     76          extern void inp_locret(void);
     77          
     78          SOFTKEY_DESC stat_info_sk[]=
     79          {
     80            {0x0018,0x0000,(int)LG_SELECT},
     81            {0x0001,0x0000,(int)LG_BACK},
     82            {0x003D,0x0000,(int)LGP_DOIT_PIC}
     83          };
     84          
     85          SOFTKEYSTAB stat_info_skt=
     86          {
     87            stat_info_sk,0
     88          };
     89          
     90          INPUTDIA_DESC stat_info_desc=
   \                     stat_info_desc:
   \   00000000                      DS8 56
   \   00000038                      REQUIRE `?<Initializer for stat_info_desc>`
     91          {
     92            1,
     93            stat_info_onkey,
     94            stat_info_ghook,
     95            (void *)inp_locret,
     96            0,
     97            &stat_info_skt,
     98            {0,0,0,0},
     99            4,
    100            100,
    101            101,
    102            0,
    103            0,
    104            0x40000000// Поменять софт-кнопки
    105          };
    106          
    107          HEADER_DESC stat_info_hdr={0,0,0,0,NULL,NULL,LGP_NULL};
   \                     stat_info_hdr:
   \   00000038                      DS8 20
   \   0000004C                      REQUIRE `?<Initializer for stat_info_hdr>`
   \                     ws_stat_info:
   \   0000004C                      DS8 4
   \   00000050                      REQUIRE `?<Initializer for ws_stat_info>`
   \                     SW_Support_Compression:
   \   00000050                      DS8 1
   \   00000051                      REQUIRE `?<Initializer for SW_Support_Compression>`
   \                     percent_i:
   \   00000051                      DS8 3
   \   00000054                      REQUIRE `?<Initializer for percent_i>`

   \                                 In segment DATA_I, align 4, align-sorted
   \                     stat_info_sk:
   \   00000000                      DS8 24
   \   00000018                      REQUIRE `?<Initializer for stat_info_sk>`

   \                                 In segment DATA_I, align 4, align-sorted
   \                     stat_info_skt:
   \   00000000                      DS8 8
   \   00000008                      REQUIRE `?<Initializer for stat_info_skt>`
    108          

   \                                 In segment CODE, align 4, keep-with-next
    109          void Disp_stat_Info(void)
    110          {
   \                     Disp_stat_Info:
   \   00000000   F04F2DE9           PUSH     {R4-R11,LR}
    111            extern const int USE_ZLIB;
    112            extern char Support_Compression;
    113            // Теперь выполним приготовление самого диалога ввода
    114            ws_stat_info = AllocWS(MAX_SYMB);
   \   00000004   8C459FE5           LDR      R4,??Disp_stat_Info_0  ;; stat_info_desc
   \   00000008   2CD04DE2           SUB      SP,SP,#+44
    115            EDITCONTROL ec;
    116            void *ma=malloc_adr();
    117            void *eq;
    118            PrepareEditControl(&ec);
    119            eq=AllocEQueue(ma,mfree_adr());
    120          
    121            // Маленькая хитрость - пустой элемент, принимающий фокус ввода, в начале списка
    122            wsprintf(ws_stat_info,"");
    123            ConstructEditControl(&ec,ECT_READ_ONLY,ECF_NORMAL_STR,ws_stat_info,256);
    124            AddEditControlToEditQend(eq,&ec,ma); //1
    125          
    126            ascii2ws(ws_stat_info,LG_STAT_CONDITION_);
   \   0000000C   88759FE5           LDR      R7,??Disp_stat_Info_0+0x4  ;; `?<Constant "\\321\\356\\361\\362\\356\\377\\355\\350\\3`
    127            ConstructEditControl(&ec,ECT_HEADER,ECF_NORMAL_STR,ws_stat_info,256);
    128            AddEditControlToEditQend(eq,&ec,ma);//2
    129            wsprintf(ws_stat_info,percent_i, Jabber_state);
    130            ConstructEditControl(&ec,ECT_NORMAL_TEXT,ECF_APPEND_EOL,ws_stat_info,256);
    131            AddEditControlToEditQend(eq,&ec,ma);//3
   \   00000010   ........           LDR      R8,??DataTable6  ;; in_bytes_count
   \   00000014   400EA0E3           MOV      R0,#+1024
   \   00000018   250100EF           SWI      +293
   \   0000001C   4C0084E5           STR      R0,[R4, #+76]
   \   00000020   148000EF           SWI      +32788
   \   00000024   0060A0E1           MOV      R6,R0
   \   00000028   0D00A0E1           MOV      R0,SP
   \   0000002C   640100EF           SWI      +356
   \   00000030   158000EF           SWI      +32789
   \   00000034   0010A0E1           MOV      R1,R0
   \   00000038   0600A0E1           MOV      R0,R6
   \   0000003C   630100EF           SWI      +355
   \   00000040   0050A0E1           MOV      R5,R0
   \   00000044   4C0094E5           LDR      R0,[R4, #+76]
   \   00000048   711F8FE2           ADR      R1,??Disp_stat_Info_1  ;; ""
   \   0000004C   240100EF           SWI      +292
   \   00000050   400FA0E3           MOV      R0,#+256
   \   00000054   01002DE9           PUSH     {R0}
   \   00000058   4C3094E5           LDR      R3,[R4, #+76]
   \   0000005C   0020A0E3           MOV      R2,#+0
   \   00000060   0010A0E3           MOV      R1,#+0
   \   00000064   04008DE2           ADD      R0,SP,#+4
   \   00000068   650100EF           SWI      +357
   \   0000006C   0620A0E1           MOV      R2,R6
   \   00000070   04108DE2           ADD      R1,SP,#+4
   \   00000074   0500A0E1           MOV      R0,R5
   \   00000078   660100EF           SWI      +358
   \   0000007C   4C0094E5           LDR      R0,[R4, #+76]
   \   00000080   0710A0E1           MOV      R1,R7
   \   00000084   ........           _BLF     ascii2ws,??ascii2ws??rA
   \   00000088   400FA0E3           MOV      R0,#+256
   \   0000008C   01002DE9           PUSH     {R0}
   \   00000090   4C3094E5           LDR      R3,[R4, #+76]
   \   00000094   0020A0E3           MOV      R2,#+0
   \   00000098   0110A0E3           MOV      R1,#+1
   \   0000009C   08008DE2           ADD      R0,SP,#+8
   \   000000A0   650100EF           SWI      +357
   \   000000A4   0620A0E1           MOV      R2,R6
   \   000000A8   08108DE2           ADD      R1,SP,#+8
   \   000000AC   0500A0E1           MOV      R0,R5
   \   000000B0   660100EF           SWI      +358
   \   000000B4   ........           LDR      R0,??DataTable7  ;; Jabber_state
   \   000000B8   511084E2           ADD      R1,R4,#+81
   \   000000BC   0020D0E5           LDRB     R2,[R0, #+0]
   \   000000C0   4C0094E5           LDR      R0,[R4, #+76]
   \   000000C4   0090A0E3           MOV      R9,#+0
   \   000000C8   240100EF           SWI      +292
   \   000000CC   400FA0E3           MOV      R0,#+256
   \   000000D0   01002DE9           PUSH     {R0}
   \   000000D4   4C3094E5           LDR      R3,[R4, #+76]
   \   000000D8   4020A0E3           MOV      R2,#+64
   \   000000DC   0310A0E3           MOV      R1,#+3
   \   000000E0   0C008DE2           ADD      R0,SP,#+12
   \   000000E4   650100EF           SWI      +357
   \   000000E8   0620A0E1           MOV      R2,R6
   \   000000EC   0C108DE2           ADD      R1,SP,#+12
   \   000000F0   0500A0E1           MOV      R0,R5
   \   000000F4   660100EF           SWI      +358
   \   000000F8   A0049FE5           LDR      R0,??Disp_stat_Info_0+0x8  ;; Support_Compression
   \   000000FC   0000D0E5           LDRB     R0,[R0, #+0]
   \   00000100   0CD08DE2           ADD      SP,SP,#+12
   \   00000104   000050E3           CMP      R0,#+0
   \   00000108   0300000A           BEQ      ??Disp_stat_Info_2
   \   0000010C   90049FE5           LDR      R0,??Disp_stat_Info_0+0xC  ;; USE_ZLIB
   \   00000110   000090E5           LDR      R0,[R0, #+0]
   \   00000114   000050E3           CMP      R0,#+0
   \   00000118   3E00001A           BNE      ??Disp_stat_Info_3
    132          
    133            if(!Support_Compression || !USE_ZLIB)
    134            {
    135              SW_Support_Compression = 0;
    136          
    137            ascii2ws(ws_stat_info,LG_STAT_TRAFINPUT_);
   \                     ??Disp_stat_Info_2:
   \   0000011C   4C0094E5           LDR      R0,[R4, #+76]
   \   00000120   5090C4E5           STRB     R9,[R4, #+80]
   \   00000124   0C1087E2           ADD      R1,R7,#+12
   \   00000128   ........           _BLF     ascii2ws,??ascii2ws??rA
    138            ConstructEditControl(&ec,ECT_HEADER,ECF_APPEND_EOL,ws_stat_info,256);
   \   0000012C   400FA0E3           MOV      R0,#+256
   \   00000130   01002DE9           PUSH     {R0}
   \   00000134   4C3094E5           LDR      R3,[R4, #+76]
   \   00000138   4020A0E3           MOV      R2,#+64
   \   0000013C   0110A0E3           MOV      R1,#+1
   \   00000140   04008DE2           ADD      R0,SP,#+4
   \   00000144   650100EF           SWI      +357
    139            AddEditControlToEditQend(eq,&ec,ma);//4
   \   00000148   0620A0E1           MOV      R2,R6
   \   0000014C   04108DE2           ADD      R1,SP,#+4
   \   00000150   0500A0E1           MOV      R0,R5
   \   00000154   660100EF           SWI      +358
    140            wsprintf(ws_stat_info,percent_i, in_bytes_count);
   \   00000158   002098E5           LDR      R2,[R8, #+0]
   \   0000015C   4C0094E5           LDR      R0,[R4, #+76]
   \   00000160   511084E2           ADD      R1,R4,#+81
   \   00000164   240100EF           SWI      +292
    141            ConstructEditControl(&ec,ECT_NORMAL_TEXT,ECF_APPEND_EOL,ws_stat_info,256);
   \   00000168   400FA0E3           MOV      R0,#+256
   \   0000016C   01002DE9           PUSH     {R0}
   \   00000170   4C3094E5           LDR      R3,[R4, #+76]
   \   00000174   4020A0E3           MOV      R2,#+64
   \   00000178   0310A0E3           MOV      R1,#+3
   \   0000017C   08008DE2           ADD      R0,SP,#+8
   \   00000180   650100EF           SWI      +357
    142            AddEditControlToEditQend(eq,&ec,ma);//5
   \   00000184   0620A0E1           MOV      R2,R6
   \   00000188   08108DE2           ADD      R1,SP,#+8
   \   0000018C   0500A0E1           MOV      R0,R5
   \   00000190   660100EF           SWI      +358
    143          
    144            ascii2ws(ws_stat_info,LG_STAT_TRAFOUTPUT_);
   \   00000194   4C0094E5           LDR      R0,[R4, #+76]
   \   00000198   1C1087E2           ADD      R1,R7,#+28
   \   0000019C   ........           _BLF     ascii2ws,??ascii2ws??rA
    145            ConstructEditControl(&ec,ECT_HEADER,ECF_APPEND_EOL,ws_stat_info,256);
   \   000001A0   400FA0E3           MOV      R0,#+256
   \   000001A4   01002DE9           PUSH     {R0}
   \   000001A8   4C3094E5           LDR      R3,[R4, #+76]
   \   000001AC   4020A0E3           MOV      R2,#+64
   \   000001B0   0110A0E3           MOV      R1,#+1
   \   000001B4   0C008DE2           ADD      R0,SP,#+12
   \   000001B8   650100EF           SWI      +357
    146            AddEditControlToEditQend(eq,&ec,ma);//6
   \   000001BC   0620A0E1           MOV      R2,R6
   \   000001C0   0C108DE2           ADD      R1,SP,#+12
   \   000001C4   0500A0E1           MOV      R0,R5
   \   000001C8   660100EF           SWI      +358
    147            wsprintf(ws_stat_info,percent_i, out_virt_bytes_count);
   \   000001CC   ........           LDR      R0,??DataTable11  ;; out_virt_bytes_count
   \   000001D0   511084E2           ADD      R1,R4,#+81
   \   000001D4   002090E5           LDR      R2,[R0, #+0]
   \   000001D8   4C0094E5           LDR      R0,[R4, #+76]
   \   000001DC   240100EF           SWI      +292
    148            ConstructEditControl(&ec,ECT_NORMAL_TEXT,ECF_APPEND_EOL,ws_stat_info,256);
   \   000001E0   400FA0E3           MOV      R0,#+256
   \   000001E4   01002DE9           PUSH     {R0}
   \   000001E8   4C3094E5           LDR      R3,[R4, #+76]
   \   000001EC   4020A0E3           MOV      R2,#+64
   \   000001F0   0310A0E3           MOV      R1,#+3
   \   000001F4   10008DE2           ADD      R0,SP,#+16
   \   000001F8   650100EF           SWI      +357
    149            AddEditControlToEditQend(eq,&ec,ma);//7
   \   000001FC   0620A0E1           MOV      R2,R6
   \   00000200   10108DE2           ADD      R1,SP,#+16
   \   00000204   0500A0E1           MOV      R0,R5
   \   00000208   660100EF           SWI      +358
   \   0000020C   10D08DE2           ADD      SP,SP,#+16
   \   00000210   A10000EA           B        ??Disp_stat_Info_4
   \                     ??Disp_stat_Info_1:
   \   00000214   00000000           DC8      "",+0,+0,+0
    150            } else
    151            {
    152              SW_Support_Compression = 1;
   \                     ??Disp_stat_Info_3:
   \   00000218   0100A0E3           MOV      R0,#+1
   \   0000021C   5000C4E5           STRB     R0,[R4, #+80]
    153            ascii2ws(ws_stat_info,LG_STAT_ZIPTRAFINPUT);
   \   00000220   4C0094E5           LDR      R0,[R4, #+76]
    154            ConstructEditControl(&ec,ECT_HEADER,ECF_APPEND_EOL,ws_stat_info,256);
    155            AddEditControlToEditQend(eq,&ec,ma);//-4
    156            wsprintf(ws_stat_info,percent_i, in_virt_bytes_count);
   \   00000224   ........           LDR      R10,??DataTable9  ;; in_virt_bytes_count
    157            ConstructEditControl(&ec,ECT_NORMAL_TEXT,ECF_APPEND_EOL,ws_stat_info,256);
    158            AddEditControlToEditQend(eq,&ec,ma);//-5
    159          
    160            ascii2ws(ws_stat_info,LG_STAT_ZIPTRAFOUTPUT);
    161            ConstructEditControl(&ec,ECT_HEADER,ECF_APPEND_EOL,ws_stat_info,256);
    162            AddEditControlToEditQend(eq,&ec,ma);//=6
    163            wsprintf(ws_stat_info,percent_i, out_bytes_count);
   \   00000228   ........           LDR      R11,??DataTable10  ;; out_bytes_count
   \   0000022C   2C1087E2           ADD      R1,R7,#+44
   \   00000230   ........           _BLF     ascii2ws,??ascii2ws??rA
   \   00000234   400FA0E3           MOV      R0,#+256
   \   00000238   01002DE9           PUSH     {R0}
   \   0000023C   4C3094E5           LDR      R3,[R4, #+76]
   \   00000240   4020A0E3           MOV      R2,#+64
   \   00000244   0110A0E3           MOV      R1,#+1
   \   00000248   04008DE2           ADD      R0,SP,#+4
   \   0000024C   650100EF           SWI      +357
   \   00000250   0620A0E1           MOV      R2,R6
   \   00000254   04108DE2           ADD      R1,SP,#+4
   \   00000258   0500A0E1           MOV      R0,R5
   \   0000025C   660100EF           SWI      +358
   \   00000260   00209AE5           LDR      R2,[R10, #+0]
   \   00000264   4C0094E5           LDR      R0,[R4, #+76]
   \   00000268   511084E2           ADD      R1,R4,#+81
   \   0000026C   240100EF           SWI      +292
   \   00000270   400FA0E3           MOV      R0,#+256
   \   00000274   01002DE9           PUSH     {R0}
   \   00000278   4C3094E5           LDR      R3,[R4, #+76]
   \   0000027C   4020A0E3           MOV      R2,#+64
   \   00000280   0310A0E3           MOV      R1,#+3
   \   00000284   08008DE2           ADD      R0,SP,#+8
   \   00000288   650100EF           SWI      +357
   \   0000028C   0620A0E1           MOV      R2,R6
   \   00000290   08108DE2           ADD      R1,SP,#+8
   \   00000294   0500A0E1           MOV      R0,R5
   \   00000298   660100EF           SWI      +358
   \   0000029C   4C0094E5           LDR      R0,[R4, #+76]
   \   000002A0   441087E2           ADD      R1,R7,#+68
   \   000002A4   ........           _BLF     ascii2ws,??ascii2ws??rA
   \   000002A8   400FA0E3           MOV      R0,#+256
   \   000002AC   01002DE9           PUSH     {R0}
   \   000002B0   4C3094E5           LDR      R3,[R4, #+76]
   \   000002B4   4020A0E3           MOV      R2,#+64
   \   000002B8   0110A0E3           MOV      R1,#+1
   \   000002BC   0C008DE2           ADD      R0,SP,#+12
   \   000002C0   650100EF           SWI      +357
   \   000002C4   0620A0E1           MOV      R2,R6
   \   000002C8   0C108DE2           ADD      R1,SP,#+12
   \   000002CC   0500A0E1           MOV      R0,R5
   \   000002D0   660100EF           SWI      +358
   \   000002D4   00209BE5           LDR      R2,[R11, #+0]
   \   000002D8   4C0094E5           LDR      R0,[R4, #+76]
   \   000002DC   511084E2           ADD      R1,R4,#+81
   \   000002E0   240100EF           SWI      +292
    164            ConstructEditControl(&ec,ECT_NORMAL_TEXT,ECF_APPEND_EOL,ws_stat_info,256);
   \   000002E4   400FA0E3           MOV      R0,#+256
   \   000002E8   01002DE9           PUSH     {R0}
   \   000002EC   4C3094E5           LDR      R3,[R4, #+76]
   \   000002F0   4020A0E3           MOV      R2,#+64
   \   000002F4   0310A0E3           MOV      R1,#+3
   \   000002F8   10008DE2           ADD      R0,SP,#+16
   \   000002FC   650100EF           SWI      +357
    165            AddEditControlToEditQend(eq,&ec,ma);//-7
   \   00000300   0620A0E1           MOV      R2,R6
   \   00000304   10108DE2           ADD      R1,SP,#+16
   \   00000308   0500A0E1           MOV      R0,R5
   \   0000030C   660100EF           SWI      +358
    166          
    167            ascii2ws(ws_stat_info,LG_STAT_COMPRESIONIN);
   \   00000310   4C0094E5           LDR      R0,[R4, #+76]
   \   00000314   5C1087E2           ADD      R1,R7,#+92
   \   00000318   ........           _BLF     ascii2ws,??ascii2ws??rA
    168            ConstructEditControl(&ec,ECT_HEADER,ECF_NORMAL_STR,ws_stat_info,256);
   \   0000031C   400FA0E3           MOV      R0,#+256
   \   00000320   01002DE9           PUSH     {R0}
   \   00000324   4C3094E5           LDR      R3,[R4, #+76]
   \   00000328   0020A0E3           MOV      R2,#+0
   \   0000032C   0110A0E3           MOV      R1,#+1
   \   00000330   14008DE2           ADD      R0,SP,#+20
   \   00000334   650100EF           SWI      +357
    169            AddEditControlToEditQend(eq,&ec,ma);//8
   \   00000338   0620A0E1           MOV      R2,R6
   \   0000033C   14108DE2           ADD      R1,SP,#+20
   \   00000340   0500A0E1           MOV      R0,R5
   \   00000344   660100EF           SWI      +358
    170            wsprintf(ws_stat_info,percent_i, 100-(in_bytes_count*100/in_virt_bytes_count));
   \   00000348   000098E5           LDR      R0,[R8, #+0]
   \   0000034C   6410A0E3           MOV      R1,#+100
   \   00000350   910000E0           MUL      R0,R1,R0
   \   00000354   00109AE5           LDR      R1,[R10, #+0]
   \   00000358   ........           _BLF     ??divu32_a,??rA??divu32_a
   \   0000035C   4C0094E5           LDR      R0,[R4, #+76]
   \   00000360   642061E2           RSB      R2,R1,#+100
   \   00000364   511084E2           ADD      R1,R4,#+81
   \   00000368   240100EF           SWI      +292
    171            ConstructEditControl(&ec,ECT_NORMAL_TEXT,ECF_NORMAL_STR,ws_stat_info,256);
   \   0000036C   400FA0E3           MOV      R0,#+256
   \   00000370   01002DE9           PUSH     {R0}
   \   00000374   4C3094E5           LDR      R3,[R4, #+76]
   \   00000378   0920A0E1           MOV      R2,R9
   \   0000037C   0310A0E3           MOV      R1,#+3
   \   00000380   18008DE2           ADD      R0,SP,#+24
   \   00000384   650100EF           SWI      +357
    172            AddEditControlToEditQend(eq,&ec,ma);//9
   \   00000388   0620A0E1           MOV      R2,R6
   \   0000038C   18108DE2           ADD      R1,SP,#+24
   \   00000390   0500A0E1           MOV      R0,R5
   \   00000394   660100EF           SWI      +358
    173            ascii2ws(ws_stat_info," [%]");
   \   00000398   4C0094E5           LDR      R0,[R4, #+76]
   \   0000039C   681087E2           ADD      R1,R7,#+104
   \   000003A0   ........           _BLF     ascii2ws,??ascii2ws??rA
    174            ConstructEditControl(&ec,ECT_HEADER,ECF_APPEND_EOL,ws_stat_info,256);
   \   000003A4   400FA0E3           MOV      R0,#+256
   \   000003A8   01002DE9           PUSH     {R0}
   \   000003AC   4C3094E5           LDR      R3,[R4, #+76]
   \   000003B0   4020A0E3           MOV      R2,#+64
   \   000003B4   0110A0E3           MOV      R1,#+1
   \   000003B8   1C008DE2           ADD      R0,SP,#+28
   \   000003BC   650100EF           SWI      +357
    175            AddEditControlToEditQend(eq,&ec,ma);//10
   \   000003C0   0620A0E1           MOV      R2,R6
   \   000003C4   1C108DE2           ADD      R1,SP,#+28
   \   000003C8   0500A0E1           MOV      R0,R5
   \   000003CC   660100EF           SWI      +358
    176          
    177            ascii2ws(ws_stat_info,LG_STAT_COMPRESIONOUT);
   \   000003D0   4C0094E5           LDR      R0,[R4, #+76]
   \   000003D4   701087E2           ADD      R1,R7,#+112
   \   000003D8   ........           _BLF     ascii2ws,??ascii2ws??rA
    178            ConstructEditControl(&ec,ECT_HEADER,ECF_NORMAL_STR,ws_stat_info,256);
   \   000003DC   400FA0E3           MOV      R0,#+256
   \   000003E0   01002DE9           PUSH     {R0}
   \   000003E4   4C3094E5           LDR      R3,[R4, #+76]
   \   000003E8   0920A0E1           MOV      R2,R9
   \   000003EC   0110A0E3           MOV      R1,#+1
   \   000003F0   20008DE2           ADD      R0,SP,#+32
   \   000003F4   650100EF           SWI      +357
    179            AddEditControlToEditQend(eq,&ec,ma);//11
   \   000003F8   0620A0E1           MOV      R2,R6
   \   000003FC   20108DE2           ADD      R1,SP,#+32
   \   00000400   0500A0E1           MOV      R0,R5
   \   00000404   660100EF           SWI      +358
    180            wsprintf(ws_stat_info,percent_i, 100-(out_bytes_count*100/out_virt_bytes_count));
   \   00000408   00009BE5           LDR      R0,[R11, #+0]
   \   0000040C   6410A0E3           MOV      R1,#+100
   \   00000410   910000E0           MUL      R0,R1,R0
   \   00000414   ........           LDR      R1,??DataTable11  ;; out_virt_bytes_count
   \   00000418   001091E5           LDR      R1,[R1, #+0]
   \   0000041C   ........           _BLF     ??divu32_a,??rA??divu32_a
   \   00000420   4C0094E5           LDR      R0,[R4, #+76]
   \   00000424   642061E2           RSB      R2,R1,#+100
   \   00000428   511084E2           ADD      R1,R4,#+81
   \   0000042C   240100EF           SWI      +292
    181            ConstructEditControl(&ec,ECT_NORMAL_TEXT,ECF_NORMAL_STR,ws_stat_info,256);
   \   00000430   400FA0E3           MOV      R0,#+256
   \   00000434   01002DE9           PUSH     {R0}
   \   00000438   4C3094E5           LDR      R3,[R4, #+76]
   \   0000043C   0920A0E1           MOV      R2,R9
   \   00000440   0310A0E3           MOV      R1,#+3
   \   00000444   24008DE2           ADD      R0,SP,#+36
   \   00000448   650100EF           SWI      +357
   \   0000044C   24D08DE2           ADD      SP,SP,#+36
    182            AddEditControlToEditQend(eq,&ec,ma);//12
   \   00000450   0620A0E1           MOV      R2,R6
   \   00000454   0D10A0E1           MOV      R1,SP
   \   00000458   0500A0E1           MOV      R0,R5
   \   0000045C   660100EF           SWI      +358
    183            ascii2ws(ws_stat_info," [%]");
   \   00000460   4C0094E5           LDR      R0,[R4, #+76]
   \   00000464   681087E2           ADD      R1,R7,#+104
   \   00000468   ........           _BLF     ascii2ws,??ascii2ws??rA
    184            ConstructEditControl(&ec,ECT_HEADER,ECF_APPEND_EOL,ws_stat_info,256);
   \   0000046C   400FA0E3           MOV      R0,#+256
   \   00000470   01002DE9           PUSH     {R0}
   \   00000474   4C3094E5           LDR      R3,[R4, #+76]
   \   00000478   4020A0E3           MOV      R2,#+64
   \   0000047C   0110A0E3           MOV      R1,#+1
   \   00000480   04008DE2           ADD      R0,SP,#+4
   \   00000484   650100EF           SWI      +357
    185            AddEditControlToEditQend(eq,&ec,ma);//13
   \   00000488   0620A0E1           MOV      R2,R6
   \   0000048C   04108DE2           ADD      R1,SP,#+4
   \   00000490   0500A0E1           MOV      R0,R5
   \   00000494   660100EF           SWI      +358
   \   00000498   04D08DE2           ADD      SP,SP,#+4
    186          
    187            }
    188            ascii2ws(ws_stat_info,LG_STAT_QLENGTH);
   \                     ??Disp_stat_Info_4:
   \   0000049C   4C0094E5           LDR      R0,[R4, #+76]
   \   000004A0   801087E2           ADD      R1,R7,#+128
   \   000004A4   ........           _BLF     ascii2ws,??ascii2ws??rA
    189            ConstructEditControl(&ec,ECT_HEADER,ECF_APPEND_EOL,ws_stat_info,256);
   \   000004A8   400FA0E3           MOV      R0,#+256
   \   000004AC   01002DE9           PUSH     {R0}
   \   000004B0   4C3094E5           LDR      R3,[R4, #+76]
   \   000004B4   4020A0E3           MOV      R2,#+64
   \   000004B8   0110A0E3           MOV      R1,#+1
   \   000004BC   04008DE2           ADD      R0,SP,#+4
   \   000004C0   650100EF           SWI      +357
    190            AddEditControlToEditQend(eq,&ec,ma);//8 //14
   \   000004C4   0620A0E1           MOV      R2,R6
   \   000004C8   04108DE2           ADD      R1,SP,#+4
   \   000004CC   0500A0E1           MOV      R0,R5
   \   000004D0   660100EF           SWI      +358
    191            wsprintf(ws_stat_info,percent_i, sendq_l);
   \   000004D4   ........           LDR      R0,??DataTable12  ;; sendq_l
   \   000004D8   511084E2           ADD      R1,R4,#+81
   \   000004DC   002090E5           LDR      R2,[R0, #+0]
   \   000004E0   4C0094E5           LDR      R0,[R4, #+76]
   \   000004E4   240100EF           SWI      +292
    192            ConstructEditControl(&ec,ECT_NORMAL_TEXT,ECF_APPEND_EOL,ws_stat_info,256);
   \   000004E8   400FA0E3           MOV      R0,#+256
   \   000004EC   01002DE9           PUSH     {R0}
   \   000004F0   4C3094E5           LDR      R3,[R4, #+76]
   \   000004F4   4020A0E3           MOV      R2,#+64
   \   000004F8   0310A0E3           MOV      R1,#+3
   \   000004FC   08008DE2           ADD      R0,SP,#+8
   \   00000500   650100EF           SWI      +357
    193            AddEditControlToEditQend(eq,&ec,ma); //9 //15
   \   00000504   0620A0E1           MOV      R2,R6
   \   00000508   08108DE2           ADD      R1,SP,#+8
   \   0000050C   0500A0E1           MOV      R0,R5
   \   00000510   660100EF           SWI      +358
    194          
    195            stat_info_hdr.lgp_id=(int)LG_STAT_STATISTICS;
   \   00000514   940087E2           ADD      R0,R7,#+148
   \   00000518   440084E5           STR      R0,[R4, #+68]
    196            patch_header(&stat_info_hdr);
   \   0000051C   B893C4E1           STRH     R9,[R4, #+56]
   \   00000520   1800A0E3           MOV      R0,#+24
   \   00000524   BA03C4E1           STRH     R0,[R4, #+58]
   \   00000528   888100EF           SWI      +33160
   \   0000052C   010040E2           SUB      R0,R0,#+1
   \   00000530   BC03C4E1           STRH     R0,[R4, #+60]
   \   00000534   8A8100EF           SWI      +33162
   \   00000538   180080E2           ADD      R0,R0,#+24
   \   0000053C   BE03C4E1           STRH     R0,[R4, #+62]
    197            patch_input(&stat_info_desc);
   \   00000540   B891C4E1           STRH     R9,[R4, #+24]
   \   00000544   8A8100EF           SWI      +33162
   \   00000548   190080E2           ADD      R0,R0,#+25
   \   0000054C   BA01C4E1           STRH     R0,[R4, #+26]
   \   00000550   888100EF           SWI      +33160
   \   00000554   010040E2           SUB      R0,R0,#+1
   \   00000558   BC01C4E1           STRH     R0,[R4, #+28]
   \   0000055C   898100EF           SWI      +33161
   \   00000560   0060A0E1           MOV      R6,R0
   \   00000564   8B8100EF           SWI      +33163
   \   00000568   000046E0           SUB      R0,R6,R0
   \   0000056C   010040E2           SUB      R0,R0,#+1
   \   00000570   BE01C4E1           STRH     R0,[R4, #+30]
    198            CreateInputTextDialog(&stat_info_desc,&stat_info_hdr,eq,1, 0);
   \   00000574   0000A0E3           MOV      R0,#+0
   \   00000578   01002DE9           PUSH     {R0}
   \   0000057C   0130A0E3           MOV      R3,#+1
   \   00000580   0520A0E1           MOV      R2,R5
   \   00000584   381084E2           ADD      R1,R4,#+56
   \   00000588   0400A0E1           MOV      R0,R4
   \   0000058C   670100EF           SWI      +359
    199          }
   \   00000590   38D08DE2           ADD      SP,SP,#+56
   \   00000594   F08FBDE8           POP      {R4-R11,PC}      ;; return
   \                     ??Disp_stat_Info_0:
   \   00000598   ........           DC32     stat_info_desc
   \   0000059C   ........           DC32     `?<Constant "\\321\\356\\361\\362\\356\\377\\355\\350\\3`
   \   000005A0   ........           DC32     Support_Compression
   \   000005A4   ........           DC32     USE_ZLIB

   \                                 In segment CODE, align 4, keep-with-next
   \                     ??DataTable6:
   \   00000000   ........           DC32     in_bytes_count

   \                                 In segment CODE, align 4, keep-with-next
   \                     ??DataTable7:
   \   00000000   ........           DC32     Jabber_state

   \                                 In segment CODE, align 4, keep-with-next
   \                     ??DataTable9:
   \   00000000   ........           DC32     in_virt_bytes_count

   \                                 In segment CODE, align 4, keep-with-next
   \                     ??DataTable10:
   \   00000000   ........           DC32     out_bytes_count

   \                                 In segment CODE, align 4, keep-with-next
   \                     ??DataTable11:
   \   00000000   ........           DC32     out_virt_bytes_count

   \                                 In segment CODE, align 4, keep-with-next
   \                     ??DataTable12:
   \   00000000   ........           DC32     sendq_l

   \                                 In segment DATA_ID, align 4, align-sorted
   \                     `?<Initializer for stat_info_desc>`:
   \   00000000   01000000....       DC32 1, stat_info_onkey, stat_info_ghook, inp_locret, 0, stat_info_skt
   \              ............
   \              ........0000
   \              0000........
   \   00000018   000000000000       DC16 0, 0, 0, 0
   \              0000        
   \   00000020   040000006400       DC32 4, 100, 101, 0, 0, 1073741824
   \              000065000000
   \              000000000000
   \              000000000040
   \                     `?<Initializer for stat_info_hdr>`:
   \   00000038   000000000000       DC16 0, 0, 0, 0
   \              0000        
   \   00000040   000000000000       DC32 0H, 0, 2147483647
   \              0000FFFFFF7F
   \                     `?<Initializer for ws_stat_info>`:
   \   0000004C   00000000           DC32 0H
   \                     `?<Initializer for SW_Support_Compression>`:
   \   00000050   00                 DC8 0
   \                     `?<Initializer for percent_i>`:
   \   00000051   256900             DC8 "%i"

   \                                 In segment DATA_ID, align 4, align-sorted
   \                     `?<Initializer for stat_info_sk>`:
   \   00000000   18000000           DC16 24, 0
   \   00000004   ........           DC32 `?<Constant "\\302\\373\\341\\356\\360">`
   \   00000008   01000000           DC16 1, 0
   \   0000000C   ........           DC32 `?<Constant "\\315\\340\\347\\340\\344">`
   \   00000010   3D000000           DC16 61, 0
   \   00000014   FBC0FF7F           DC32 2147467515

   \                                 In segment DATA_ID, align 4, align-sorted
   \                     `?<Initializer for stat_info_skt>`:
   \   00000000   ........0000       DC32 stat_info_sk, 0
   \              0000        

   \                                 In segment DATA_C, align 4, align-sorted
   \                     `?<Constant "\\302\\373\\341\\356\\360">`:
   \   00000000   C2FBE1EEF000       DC8 "\302\373\341\356\360"
   \   00000006   0000               DC8 0, 0

   \                                 In segment DATA_C, align 4, align-sorted
   \                     `?<Constant "\\315\\340\\347\\340\\344">`:
   \   00000000   CDE0E7E0E400       DC8 "\315\340\347\340\344"
   \   00000006   0000               DC8 0, 0

   \                                 In segment DATA_C, align 1, align-sorted
   \   00000000   00                 DC8 ""

   \                                 In segment DATA_C, align 4, align-sorted
   \                     `?<Constant "\\321\\356\\361\\362\\356\\377\\355\\350\\3`:
   \   00000000   D1EEF1F2EEFF       DC8 "\321\356\361\362\356\377\355\350\345:"
   \              EDE8E53A00  
   \   0000000B   00                 DC8 0
   \   0000000C   C2F5EEE4FFF9       DC8 "\302\365\356\344\377\371\350\351 [b]:"
   \              E8E9205B625D
   \              3A00        
   \   0000001A   0000               DC8 0, 0
   \   0000001C   C8F1F5EEE4FF       DC8 "\310\361\365\356\344\377\371\350\351 [b]:"
   \              F9E8E9205B62
   \              5D3A00      
   \   0000002B   00                 DC8 0
   \   0000002C   C2F5EEE4FFF9       DC8 "\302\365\356\344\377\371\350\351 \361\346\340\362\373\351 [b]:"
   \              E8E920F1E6E0
   \              F2FBE9205B62
   \              5D3A00      
   \   00000041   000000             DC8 0, 0, 0
   \   00000044   C8F1F5EEE4FF       DC8 "\310\361\365\356\344\377\371\350\351 \361\346\340\362\373\351 [b]:"
   \              F9E8E920F1E6
   \              E0F2FBE9205B
   \              625D3A00    
   \   0000005A   0000               DC8 0, 0
   \   0000005C   D1E6E0F2E8E5       DC8 "\321\346\340\362\350\345 \342\365.:"
   \              20E2F52E3A00
   \   00000068   205B255D00         DC8 " [%]"
   \   0000006D   000000             DC8 0, 0, 0
   \   00000070   D1E6E0F2E8E5       DC8 "\321\346\340\362\350\345 \350\361\365.:"
   \              20E8F1F52E3A
   \              00          
   \   0000007D   000000             DC8 0, 0, 0
   \   00000080   C4EBE8EDE020       DC8 "\304\353\350\355\340 \356\367\345\360\345\344\350 [b]:"
   \              EEF7E5F0E5E4
   \              E8205B625D3A
   \              00          
   \   00000093   00                 DC8 0
   \   00000094   D1F2E0F2E8F1       DC8 "\321\362\340\362\350\361\362\350\352\340"
   \              F2E8EAE000  
   \   0000009F   00                 DC8 0
    200          //EOL,EOF
    201          

   Maximum stack usage in bytes:

     Function        CSTACK
     --------        ------
     Disp_stat_Info    116
     stat_info_ghook    28
     stat_info_onkey     0


   Segment part sizes:

     Function/Label                 Bytes
     --------------                 -----
     stat_info_onkey                  24
     stat_info_ghook                 440
     stat_info_desc                   84
     stat_info_sk                     24
     stat_info_skt                     8
     Disp_stat_Info                 1448
     ??DataTable6                      4
     ??DataTable7                      4
     ??DataTable9                      4
     ??DataTable10                     4
     ??DataTable11                     4
     ??DataTable12                     4
     ?<Initializer for stat_info_desc>
                                      84
     ?<Initializer for stat_info_sk>
                                      24
     ?<Initializer for stat_info_skt>
                                       8
     ?<Constant "\302\373\341\356\360">
                                       8
     ?<Constant "\315\340\347\340\344">
                                       8
     ?<Constant "">                    1
     ?<Constant "\321\356\361\362\356\377\355\350\3
                                     160
      Others                          48

 
 1 972 bytes in segment CODE
   177 bytes in segment DATA_C
   116 bytes in segment DATA_I
   116 bytes in segment DATA_ID
    12 bytes in segment INITTAB
 
 1 936 bytes of CODE  memory (+ 48 bytes shared)
   293 bytes of CONST memory
   116 bytes of DATA  memory

Errors: none
Warnings: none
