##############################################################################
#                                                                            #
# IAR ARM ANSI C/C++ Compiler V4.42A/W32 EVALUATION    23/Feb/2011  16:38:26 #
# Copyright 1999-2005 IAR Systems. All rights reserved.                      #
#                                                                            #
#    Cpu mode        =  interwork                                            #
#    Endian          =  little                                               #
#    Stack alignment =  4                                                    #
#    Source file     =  C:\arm\siejc\xml_parser.c                            #
#    Command line    =  C:\arm\siejc\xml_parser.c -D NEWSGOLD -D ELKA        #
#                       --preprocess C:\arm\siejc\Release_ELKA\List\ -lC     #
#                       C:\arm\siejc\Release_ELKA\List\ -o                   #
#                       C:\arm\siejc\Release_ELKA\Obj\ -s9 --no_unroll       #
#                       --cpu_mode arm --endian little --cpu ARM926EJ-S      #
#                       --stack_align 4 --interwork -e --fpu None            #
#                       --dlib_config "C:\arm2\Embedded Workbench 4.0        #
#                       Evaluation\ARM\LIB\dl5tpainl8f.h" -I                 #
#                       "C:\arm2\Embedded Workbench 4.0                      #
#                       Evaluation\ARM\INC\" --inline_threshold=2            #
#    List file       =  C:\arm\siejc\Release_ELKA\List\xml_parser.lst        #
#    Object file     =  C:\arm\siejc\Release_ELKA\Obj\xml_parser.r79         #
#                                                                            #
#                                                                            #
##############################################################################

C:\arm\siejc\xml_parser.c
      1          #include "..\inc\swilib.h"
      2          #include "main.h"
      3          #include "string_util.h"
      4          #include "xml_parser.h"
      5          

   \                                 In segment CODE, align 4, keep-with-next
      6          int IsSpace (char c){
      7          	return	c == ' ' || c == '\n' || c == '\r' || c == '\t';
   \                     IsSpace:
   \   00000000   200050E3           CMP      R0,#+32
   \   00000004   0A005013           CMPNE    R0,#+10
   \   00000008   0D005013           CMPNE    R0,#+13
   \   0000000C   09005013           CMPNE    R0,#+9
   \   00000010   0100A003           MOVEQ    R0,#+1
   \   00000014   1EFF2F01           BXEQ     LR
   \   00000018   0000A0E3           MOV      R0,#+0
   \   0000001C   1EFF2FE1           BX       LR               ;; return
      8          }
      9          

   \                                 In segment CODE, align 4, keep-with-next
     10          int IsLit (char c){
     11            return (c >= 'a' && c <= 'z') || (c >= 'A' && c <= 'Z');
   \                     IsLit:
   \   00000000   610050E3           CMP      R0,#+97
   \   00000004   0300003A           BCC      ??IsLit_0
   \   00000008   7B0050E3           CMP      R0,#+123
   \   0000000C   0500003A           BCC      ??IsLit_1
   \                     ??IsLit_2:
   \   00000010   0000A0E3           MOV      R0,#+0
   \   00000014   1EFF2FE1           BX       LR               ;; return
   \                     ??IsLit_0:
   \   00000018   410050E3           CMP      R0,#+65
   \   0000001C   FBFFFF3A           BCC      ??IsLit_2
   \   00000020   5B0050E3           CMP      R0,#+91
   \   00000024   F9FFFF2A           BCS      ??IsLit_2
   \                     ??IsLit_1:
   \   00000028   0100A0E3           MOV      R0,#+1
   \   0000002C   1EFF2FE1           BX       LR
     12          }
     13          

   \                                 In segment CODE, align 4, keep-with-next
     14          int IsNum (char c){
     15          	return (c >= '0' && c <= '9');
   \                     IsNum:
   \   00000000   300050E3           CMP      R0,#+48
   \   00000004   0200003A           BCC      ??IsNum_0
   \   00000008   3A0050E3           CMP      R0,#+58
   \   0000000C   0100A033           MOVCC    R0,#+1
   \   00000010   1EFF2F31           BXCC     LR
   \                     ??IsNum_0:
   \   00000014   0000A0E3           MOV      R0,#+0
   \   00000018   1EFF2FE1           BX       LR               ;; return
     16          }
     17          

   \                                 In segment CODE, align 4, keep-with-next
     18          int InName (char c){
   \                     InName:
   \   00000000   10402DE9           PUSH     {R4,LR}
   \   00000004   0040A0E1           MOV      R4,R0
     19            return IsLit(c) || IsNum(c) || c == '_' || c == '-' || c == ':';
   \   00000008   ........           BL       IsLit
   \   0000000C   000050E3           CMP      R0,#+0
   \   00000010   0700001A           BNE      ??InName_0
   \   00000014   0400A0E1           MOV      R0,R4
   \   00000018   ........           BL       IsNum
   \   0000001C   000050E3           CMP      R0,#+0
   \   00000020   0300001A           BNE      ??InName_0
   \   00000024   5F0054E3           CMP      R4,#+95
   \   00000028   2D005413           CMPNE    R4,#+45
   \   0000002C   3A005413           CMPNE    R4,#+58
   \   00000030   1080BD18           POPNE    {R4,PC}
   \                     ??InName_0:
   \   00000034   0100A0E3           MOV      R0,#+1
   \   00000038   1080BDE8           POP      {R4,PC}          ;; return
     20          }
     21          
     22          

   \                                 In segment DATA_I, align 4, align-sorted
     23           XMLNode *XMLTree=0;
   \                     XMLTree:
   \   00000000                      DS8 4
   \   00000004                      REQUIRE `?<Initializer for XMLTree>`
     24           XMLAttr *curattr=0;
   \                     curattr:
   \   00000004                      DS8 4
   \   00000008                      REQUIRE `?<Initializer for curattr>`
     25           int *TreeBranchs;
   \                     TreeBranchs:
   \   00000008                      DS8 4
   \   0000000C                      REQUIRE `?<Initializer for TreeBranchs>`
     26           int BranchPos=0;
   \                     BranchPos:
   \   0000000C                      DS8 4
   \   00000010                      REQUIRE `?<Initializer for BranchPos>`
     27           XMLNode *current = 0;
   \                     current:
   \   00000010                      DS8 4
   \   00000014                      REQUIRE `?<Initializer for current>`
     28           XMLNode *tmp=0;
   \                     tmp:
   \   00000014                      DS8 4
   \   00000018                      REQUIRE `?<Initializer for tmp>`
     29           XMLAttr *attribs=0;
   \                     attribs:
   \   00000018                      DS8 4
   \   0000001C                      REQUIRE `?<Initializer for attribs>`
     30           int isClosed=0;
   \                     isClosed:
   \   0000001C                      DS8 4
   \   00000020                      REQUIRE `?<Initializer for isClosed>`
     31           char *TagName;					
   \                     TagName:
   \   00000020                      DS8 4
   \   00000024                      REQUIRE `?<Initializer for TagName>`
     32           char *AttrName;				
   \                     AttrName:
   \   00000024                      DS8 4
   \   00000028                      REQUIRE `?<Initializer for AttrName>`
     33           char *AttrValue;				
   \                     AttrValue:
   \   00000028                      DS8 4
   \   0000002C                      REQUIRE `?<Initializer for AttrValue>`
     34           char *Text;
   \                     Text:
   \   0000002C                      DS8 4
   \   00000030                      REQUIRE `?<Initializer for Text>`
     35           int TagState;
   \                     TagState:
   \   00000030                      DS8 4
   \   00000034                      REQUIRE `?<Initializer for TagState>`
     36           int MSState;
   \                     MSState:
   \   00000034                      DS8 4
   \   00000038                      REQUIRE `?<Initializer for MSState>`
     37          
     38           int f;
   \                     f:
   \   00000038                      DS8 4
   \   0000003C                      REQUIRE `?<Initializer for f>`
     39           unsigned int ul;
     40          
     41           char _crlf[2] = {0xd,0xa};
     42           char tabul[100];
   \                     tabul:
   \   0000003C                      DS8 100
   \   000000A0                      REQUIRE `?<Initializer for tabul>`
   \                     _crlf:
   \   000000A0                      DS8 2
   \   000000A2                      REQUIRE `?<Initializer for _crlf>`
   \   000000A2                      DS8 2
   \                     ul:
   \   000000A4                      DS8 4
   \   000000A8                      REQUIRE `?<Initializer for ul>`
     43           char bbuf[256];
   \                     bbuf:
   \   000000A8                      DS8 256
   \   000001A8                      REQUIRE `?<Initializer for bbuf>`
     44           char bbf[256];
   \                     bbf:
   \   000001A8                      DS8 256
   \   000002A8                      REQUIRE `?<Initializer for bbf>`
     45          
     46           

   \                                 In segment CODE, align 4, keep-with-next
     47          void SaveBranch(XMLNode *tmpp){
   \                     SaveBranch:
   \   00000000   F0432DE9           PUSH     {R4-R9,LR}
   \   00000004   0040B0E1           MOVS     R4,R0
   \   00000008   F083BD08           POPEQ    {R4-R9,PC}
   \   0000000C   A8519FE5           LDR      R5,??SaveBranch_0+0x8  ;; `?<Constant "name: %s = ">`
   \   00000010   ........           LDR      R6,??DataTable5  ;; XMLTree
   \   00000014   6A7FA0E3           MOV      R7,#+424
   \   00000018   658F8FE2           ADR      R8,??SaveBranch_0  ;; "%s"
     48           while(tmpp){
     49             strcpy(bbuf,tabul);
   \                     ??SaveBranch_1:
   \   0000001C   3C1086E2           ADD      R1,R6,#+60
   \   00000020   A80086E2           ADD      R0,R6,#+168
   \   00000024   1A0000EF           SWI      +26
     50             sprintf(bbf,"name: %s = ",tmpp->name);
   \   00000028   082094E5           LDR      R2,[R4, #+8]
   \   0000002C   0510A0E1           MOV      R1,R5
   \   00000030   060087E0           ADD      R0,R7,R6
   \   00000034   160000EF           SWI      +22
     51             strcat(bbuf,bbf);
   \   00000038   061087E0           ADD      R1,R7,R6
   \   0000003C   A80086E2           ADD      R0,R6,#+168
   \   00000040   170000EF           SWI      +23
     52             if(tmpp->value){
   \   00000044   102094E5           LDR      R2,[R4, #+16]
   \   00000048   000052E3           CMP      R2,#+0
   \   0000004C   0500000A           BEQ      ??SaveBranch_2
     53               sprintf(bbf,"%s",tmpp->value);
   \   00000050   0810A0E1           MOV      R1,R8
   \   00000054   060087E0           ADD      R0,R7,R6
   \   00000058   160000EF           SWI      +22
     54               strcat(bbuf,bbf);
   \   0000005C   061087E0           ADD      R1,R7,R6
   \   00000060   A80086E2           ADD      R0,R6,#+168
   \   00000064   170000EF           SWI      +23
     55             }
     56             strcat(bbuf,_crlf);
   \                     ??SaveBranch_2:
   \   00000068   A01086E2           ADD      R1,R6,#+160
   \   0000006C   A80086E2           ADD      R0,R6,#+168
   \   00000070   170000EF           SWI      +23
     57             fwrite(f,bbuf,strlen(bbuf),&ul);
   \   00000074   A80086E2           ADD      R0,R6,#+168
   \   00000078   1B0000EF           SWI      +27
   \   0000007C   A43086E2           ADD      R3,R6,#+164
   \   00000080   0020A0E1           MOV      R2,R0
   \   00000084   380096E5           LDR      R0,[R6, #+56]
   \   00000088   A81086E2           ADD      R1,R6,#+168
   \   0000008C   0C0000EF           SWI      +12
     58             if(tmpp->attr){
   \   00000090   0C9094E5           LDR      R9,[R4, #+12]
   \   00000094   000059E3           CMP      R9,#+0
   \   00000098   2F00000A           BEQ      ??SaveBranch_3
     59               XMLAttr *ta=tmpp->attr;
     60               strcpy(bbuf,tabul);
   \   0000009C   3C1086E2           ADD      R1,R6,#+60
   \   000000A0   A80086E2           ADD      R0,R6,#+168
   \   000000A4   1A0000EF           SWI      +26
     61               strcat(bbuf,"attributes: ");
   \   000000A8   0C1085E2           ADD      R1,R5,#+12
   \   000000AC   A80086E2           ADD      R0,R6,#+168
   \   000000B0   170000EF           SWI      +23
     62               strcat(bbuf,_crlf);
   \   000000B4   A01086E2           ADD      R1,R6,#+160
   \   000000B8   A80086E2           ADD      R0,R6,#+168
   \   000000BC   170000EF           SWI      +23
     63               fwrite(f,bbuf,strlen(bbuf),&ul);
   \   000000C0   A80086E2           ADD      R0,R6,#+168
   \   000000C4   1B0000EF           SWI      +27
   \   000000C8   A43086E2           ADD      R3,R6,#+164
   \   000000CC   0020A0E1           MOV      R2,R0
   \   000000D0   380096E5           LDR      R0,[R6, #+56]
   \   000000D4   A81086E2           ADD      R1,R6,#+168
   \   000000D8   0C0000EF           SWI      +12
     64               while(ta){
     65                 strcpy(bbuf,tabul);
   \                     ??SaveBranch_4:
   \   000000DC   3C1086E2           ADD      R1,R6,#+60
   \   000000E0   A80086E2           ADD      R0,R6,#+168
   \   000000E4   1A0000EF           SWI      +26
     66                 sprintf(bbf,"%s - ",ta->name);
   \   000000E8   042099E5           LDR      R2,[R9, #+4]
   \   000000EC   1C1085E2           ADD      R1,R5,#+28
   \   000000F0   060087E0           ADD      R0,R7,R6
   \   000000F4   160000EF           SWI      +22
     67                 strcat(bbuf,bbf);
   \   000000F8   061087E0           ADD      R1,R7,R6
   \   000000FC   A80086E2           ADD      R0,R6,#+168
   \   00000100   170000EF           SWI      +23
     68                 if(ta->param){
   \   00000104   082099E5           LDR      R2,[R9, #+8]
   \   00000108   000052E3           CMP      R2,#+0
   \   0000010C   0500000A           BEQ      ??SaveBranch_5
     69                   sprintf(bbf,"%s",ta->param);
   \   00000110   0810A0E1           MOV      R1,R8
   \   00000114   060087E0           ADD      R0,R7,R6
   \   00000118   160000EF           SWI      +22
     70                   strcat(bbuf,bbf);
   \   0000011C   061087E0           ADD      R1,R7,R6
   \   00000120   A80086E2           ADD      R0,R6,#+168
   \   00000124   170000EF           SWI      +23
     71                 }
     72                 strcat(bbuf,_crlf);
   \                     ??SaveBranch_5:
   \   00000128   A01086E2           ADD      R1,R6,#+160
   \   0000012C   A80086E2           ADD      R0,R6,#+168
   \   00000130   170000EF           SWI      +23
     73                 fwrite(f,bbuf,strlen(bbuf),&ul);
   \   00000134   A80086E2           ADD      R0,R6,#+168
   \   00000138   1B0000EF           SWI      +27
   \   0000013C   A43086E2           ADD      R3,R6,#+164
   \   00000140   0020A0E1           MOV      R2,R0
   \   00000144   380096E5           LDR      R0,[R6, #+56]
   \   00000148   A81086E2           ADD      R1,R6,#+168
   \   0000014C   0C0000EF           SWI      +12
     74                 ta=ta->next;
   \   00000150   009099E5           LDR      R9,[R9, #+0]
     75               }
   \   00000154   000059E3           CMP      R9,#+0
   \   00000158   DFFFFF1A           BNE      ??SaveBranch_4
     76             }
     77             fwrite(f,_crlf,2,&ul);
   \                     ??SaveBranch_3:
   \   0000015C   380096E5           LDR      R0,[R6, #+56]
   \   00000160   A43086E2           ADD      R3,R6,#+164
   \   00000164   0220A0E3           MOV      R2,#+2
   \   00000168   A01086E2           ADD      R1,R6,#+160
   \   0000016C   0C0000EF           SWI      +12
     78             if(tmpp->subnode){
   \   00000170   040094E5           LDR      R0,[R4, #+4]
   \   00000174   000050E3           CMP      R0,#+0
   \   00000178   0900000A           BEQ      ??SaveBranch_6
     79               strcat(tabul,"  ");
   \   0000017C   0D1F8FE2           ADR      R1,??SaveBranch_0+0x4  ;; "  "
   \   00000180   3C0086E2           ADD      R0,R6,#+60
   \   00000184   170000EF           SWI      +23
     80               SaveBranch(tmpp->subnode);
   \   00000188   040094E5           LDR      R0,[R4, #+4]
   \   0000018C   9BFFFFEB           BL       SaveBranch
     81               *(tabul+strlen(tabul)-2)=0;
   \   00000190   3C0086E2           ADD      R0,R6,#+60
   \   00000194   1B0000EF           SWI      +27
   \   00000198   060080E0           ADD      R0,R0,R6
   \   0000019C   0010A0E3           MOV      R1,#+0
   \   000001A0   3A10C0E5           STRB     R1,[R0, #+58]
     82             }
     83             tmpp=tmpp->next;
   \                     ??SaveBranch_6:
   \   000001A4   004094E5           LDR      R4,[R4, #+0]
     84           }
   \   000001A8   000054E3           CMP      R4,#+0
   \   000001AC   9AFFFF1A           BNE      ??SaveBranch_1
     85          }
   \   000001B0   F083BDE8           POP      {R4-R9,PC}       ;; return
   \                     ??SaveBranch_0:
   \   000001B4   25730000           DC8      "%s",+0
   \   000001B8   20200000           DC8      "  ",+0
   \   000001BC   ........           DC32     `?<Constant "name: %s = ">`
     86          

   \                                 In segment CODE, align 4, keep-with-next
     87          void SaveTree(XMLNode *tree){
   \                     SaveTree:
   \   00000000   30402DE9           PUSH     {R4,R5,LR}
     88            //strcpy(tabul,"");
     89            zeromem(tabul,64);
   \   00000004   ........           LDR      R4,??DataTable6  ;; XMLTree
   \   00000008   14D04DE2           SUB      SP,SP,#+20
   \   0000000C   4010A0E3           MOV      R1,#+64
   \   00000010   3C0084E2           ADD      R0,R4,#+60
   \   00000014   1D0100EF           SWI      +285
     90          #ifdef NEWSGOLD
     91            const char savepath[]="4:\\xml_packet.txt";
   \   00000018   3C109FE5           LDR      R1,??SaveTree_0  ;; `?<Constant "4:\\\\xml_packet.txt">`
   \   0000001C   0D00A0E1           MOV      R0,SP
   \   00000020   2C5091E8           LDM      R1,{R2,R3,R5,R12,LR}
     92          #else
     93            const char savepath[]="0:\\xml_packet.txt";
     94          #endif
     95            f=fopen(savepath, A_ReadWrite+A_Create+A_Append+A_BIN,P_READ+P_WRITE,&ul);
   \   00000024   0A10A0E3           MOV      R1,#+10
   \   00000028   2C5080E8           STM      R0,{R2,R3,R5,R12,LR}
   \   0000002C   A43084E2           ADD      R3,R4,#+164
   \   00000030   602FA0E3           MOV      R2,#+384
   \   00000034   811C81E3           ORR      R1,R1,#0x8100
   \   00000038   0A0000EF           SWI      +10
   \   0000003C   380084E5           STR      R0,[R4, #+56]
     96            SaveBranch(XMLTree);
   \   00000040   000094E5           LDR      R0,[R4, #+0]
   \   00000044   ........           BL       SaveBranch
     97            fclose(f,&ul);
   \   00000048   380094E5           LDR      R0,[R4, #+56]
   \   0000004C   A41084E2           ADD      R1,R4,#+164
   \   00000050   0D0000EF           SWI      +13
     98          }
   \   00000054   14D08DE2           ADD      SP,SP,#+20
   \   00000058   3080BDE8           POP      {R4,R5,PC}       ;; return
   \                     ??SaveTree_0:
   \   0000005C   ........           DC32     `?<Constant "4:\\\\xml_packet.txt">`
     99           

   \                                 In segment CODE, align 4, keep-with-next
    100          void EndTag(void){
   \                     EndTag:
   \   00000000   30402DE9           PUSH     {R4,R5,LR}
    101            if((TagState == TS_NORMAL)||(TagState == TS_EMPTY)){
   \   00000004   ........           LDR      R4,??DataTable6  ;; XMLTree
   \   00000008   0050A0E3           MOV      R5,#+0
   \   0000000C   300094E5           LDR      R0,[R4, #+48]
   \   00000010   020050E3           CMP      R0,#+2
   \   00000014   04005013           CMPNE    R0,#+4
   \   00000018   2700001A           BNE      ??EndTag_0
    102              tmp=malloc(sizeof(XMLNode));
   \   0000001C   1400A0E3           MOV      R0,#+20
   \   00000020   140000EF           SWI      +20
   \   00000024   140084E5           STR      R0,[R4, #+20]
    103              zeromem(tmp,sizeof(XMLNode));
   \   00000028   1410A0E3           MOV      R1,#+20
   \   0000002C   1D0100EF           SWI      +285
    104              if (!XMLTree){
   \   00000030   000094E5           LDR      R0,[R4, #+0]
   \   00000034   000050E3           CMP      R0,#+0
    105                XMLTree=tmp;
   \   00000038   14009405           LDREQ    R0,[R4, #+20]
   \   0000003C   00008405           STREQ    R0,[R4, #+0]
   \   00000040   0500000A           BEQ      ??EndTag_1
    106              }else{
    107                if(!isClosed)current->next=tmp;
   \   00000044   100094E5           LDR      R0,[R4, #+16]
   \   00000048   141094E5           LDR      R1,[R4, #+20]
   \   0000004C   1C2094E5           LDR      R2,[R4, #+28]
   \   00000050   000052E3           CMP      R2,#+0
   \   00000054   00108005           STREQ    R1,[R0, #+0]
    108                else current->subnode=tmp;
   \   00000058   04108015           STRNE    R1,[R0, #+4]
    109              }
    110              tmp->name=malloc(strlen(TagName)+1);
   \                     ??EndTag_1:
   \   0000005C   200094E5           LDR      R0,[R4, #+32]
   \   00000060   1B0000EF           SWI      +27
   \   00000064   010080E2           ADD      R0,R0,#+1
   \   00000068   140000EF           SWI      +20
   \   0000006C   142094E5           LDR      R2,[R4, #+20]
   \   00000070   080082E5           STR      R0,[R2, #+8]
    111              if(attribs)tmp->attr=attribs;
   \   00000074   180094E5           LDR      R0,[R4, #+24]
   \   00000078   000050E3           CMP      R0,#+0
   \   0000007C   0C008215           STRNE    R0,[R2, #+12]
    112              attribs=0;
    113              strcpy(tmp->name,TagName);
   \   00000080   201094E5           LDR      R1,[R4, #+32]
   \   00000084   185084E5           STR      R5,[R4, #+24]
   \   00000088   080092E5           LDR      R0,[R2, #+8]
   \   0000008C   1A0000EF           SWI      +26
    114              *(TreeBranchs+BranchPos)=(int)tmp;
   \   00000090   140094E5           LDR      R0,[R4, #+20]
   \   00000094   0C1094E5           LDR      R1,[R4, #+12]
   \   00000098   082094E5           LDR      R2,[R4, #+8]
   \   0000009C   010182E7           STR      R0,[R2, +R1, LSL #+2]
    115              BranchPos++;
   \   000000A0   0C1094E5           LDR      R1,[R4, #+12]
    116              current=tmp;
   \   000000A4   100084E5           STR      R0,[R4, #+16]
   \   000000A8   011081E2           ADD      R1,R1,#+1
   \   000000AC   0C1084E5           STR      R1,[R4, #+12]
    117              curattr=0;
   \   000000B0   045084E5           STR      R5,[R4, #+4]
    118              isClosed=1;
   \   000000B4   0100A0E3           MOV      R0,#+1
   \   000000B8   1C0084E5           STR      R0,[R4, #+28]
    119            }
    120            if((TagState == TS_EMPTY)||(TagState == TS_CLOSE)){
   \                     ??EndTag_0:
   \   000000BC   300094E5           LDR      R0,[R4, #+48]
   \   000000C0   040050E3           CMP      R0,#+4
   \   000000C4   03005013           CMPNE    R0,#+3
   \   000000C8   3080BD18           POPNE    {R4,R5,PC}
    121              if(BranchPos>0){
   \   000000CC   0C0094E5           LDR      R0,[R4, #+12]
   \   000000D0   010050E3           CMP      R0,#+1
   \   000000D4   040000BA           BLT      ??EndTag_2
    122                BranchPos--;
    123                current=(void*)(*(TreeBranchs+BranchPos));
   \   000000D8   081094E5           LDR      R1,[R4, #+8]
   \   000000DC   010040E2           SUB      R0,R0,#+1
   \   000000E0   0C0084E5           STR      R0,[R4, #+12]
   \   000000E4   000191E7           LDR      R0,[R1, +R0, LSL #+2]
   \   000000E8   100084E5           STR      R0,[R4, #+16]
    124              }
    125              isClosed=0;
   \                     ??EndTag_2:
   \   000000EC   1C5084E5           STR      R5,[R4, #+28]
    126            }
    127          }
   \   000000F0   3080BDE8           POP      {R4,R5,PC}       ;; return
    128          

   \                                 In segment CODE, align 4, keep-with-next
    129          void EndAttr(void){
   \                     EndAttr:
   \   00000000   70402DE9           PUSH     {R4-R6,LR}
    130            XMLAttr *tmp2=malloc(sizeof(XMLAttr));
    131            zeromem(tmp2,sizeof(XMLAttr));
    132            tmp2->name=malloc(strlen(AttrName)+1);
   \   00000004   ........           LDR      R5,??DataTable5  ;; XMLTree
   \   00000008   0C00A0E3           MOV      R0,#+12
   \   0000000C   140000EF           SWI      +20
   \   00000010   0040A0E1           MOV      R4,R0
   \   00000014   0C10A0E3           MOV      R1,#+12
   \   00000018   1D0100EF           SWI      +285
   \   0000001C   240095E5           LDR      R0,[R5, #+36]
   \   00000020   1B0000EF           SWI      +27
   \   00000024   010080E2           ADD      R0,R0,#+1
   \   00000028   140000EF           SWI      +20
   \   0000002C   040084E5           STR      R0,[R4, #+4]
    133            strcpy(tmp2->name,AttrName);
   \   00000030   241095E5           LDR      R1,[R5, #+36]
   \   00000034   1A0000EF           SWI      +26
    134            if(strlen(AttrValue)>0){
   \   00000038   280095E5           LDR      R0,[R5, #+40]
   \   0000003C   1B0000EF           SWI      +27
   \   00000040   000050E3           CMP      R0,#+0
   \   00000044   0A00000A           BEQ      ??EndAttr_0
    135              char *newattrval = Replace_Special_Syms(AttrValue);
   \   00000048   280095E5           LDR      R0,[R5, #+40]
   \   0000004C   ........           _BLF     Replace_Special_Syms,??Replace_Special_Syms??rA
   \   00000050   0060A0E1           MOV      R6,R0
    136             tmp2->param=malloc(strlen(newattrval)+1);
   \   00000054   1B0000EF           SWI      +27
   \   00000058   010080E2           ADD      R0,R0,#+1
   \   0000005C   140000EF           SWI      +20
   \   00000060   080084E5           STR      R0,[R4, #+8]
    137             strcpy(tmp2->param,newattrval);
   \   00000064   0610A0E1           MOV      R1,R6
   \   00000068   1A0000EF           SWI      +26
    138             mfree(newattrval);
   \   0000006C   0600A0E1           MOV      R0,R6
   \   00000070   150000EF           SWI      +21
    139            }
    140            if(!curattr){
   \                     ??EndAttr_0:
   \   00000074   040095E5           LDR      R0,[R5, #+4]
   \   00000078   000050E3           CMP      R0,#+0
    141              attribs=tmp2;
   \   0000007C   18408505           STREQ    R4,[R5, #+24]
    142            }else{
    143              curattr->next=tmp2;
   \   00000080   00408015           STRNE    R4,[R0, #+0]
    144            }
    145            curattr=tmp2;
   \   00000084   044085E5           STR      R4,[R5, #+4]
    146          }
   \   00000088   7080BDE8           POP      {R4-R6,PC}       ;; return
    147          

   \                                 In segment CODE, align 4, keep-with-next
    148          void DestroyTree(XMLNode *tmpp){
   \                     DestroyTree:
   \   00000000   30402DE9           PUSH     {R4,R5,LR}
   \   00000004   0040B0E1           MOVS     R4,R0
   \   00000008   2200000A           BEQ      ??DestroyTree_0
    149           while(tmpp){
    150             XMLAttr *ta=tmpp->attr;
   \                     ??DestroyTree_1:
   \   0000000C   0C5094E5           LDR      R5,[R4, #+12]
   \   00000010   000055E3           CMP      R5,#+0
   \   00000014   0E00000A           BEQ      ??DestroyTree_2
    151             while(ta){
    152                 tmpp->attr=ta->next;
   \                     ??DestroyTree_3:
   \   00000018   000095E5           LDR      R0,[R5, #+0]
   \   0000001C   0C0084E5           STR      R0,[R4, #+12]
    153                 if(ta->name)mfree(ta->name);
   \   00000020   040095E5           LDR      R0,[R5, #+4]
   \   00000024   000050E3           CMP      R0,#+0
   \   00000028   0000000A           BEQ      ??DestroyTree_4
   \   0000002C   150000EF           SWI      +21
    154                 if(ta->param)mfree(ta->param);
   \                     ??DestroyTree_4:
   \   00000030   080095E5           LDR      R0,[R5, #+8]
   \   00000034   000050E3           CMP      R0,#+0
   \   00000038   0000000A           BEQ      ??DestroyTree_5
   \   0000003C   150000EF           SWI      +21
    155                 mfree(ta);
   \                     ??DestroyTree_5:
   \   00000040   0500A0E1           MOV      R0,R5
   \   00000044   150000EF           SWI      +21
    156                 ta=tmpp->attr;
   \   00000048   0C5094E5           LDR      R5,[R4, #+12]
    157             }
   \   0000004C   000055E3           CMP      R5,#+0
   \   00000050   F0FFFF1A           BNE      ??DestroyTree_3
    158             if(tmpp->subnode){
   \                     ??DestroyTree_2:
   \   00000054   040094E5           LDR      R0,[R4, #+4]
   \   00000058   000050E3           CMP      R0,#+0
   \   0000005C   0000000A           BEQ      ??DestroyTree_6
    159               DestroyTree(tmpp->subnode);
   \   00000060   E6FFFFEB           BL       DestroyTree
    160             }
    161             XMLNode *tmpp2=tmpp->next;
    162             if(tmpp->name)mfree(tmpp->name);
   \                     ??DestroyTree_6:
   \   00000064   080094E5           LDR      R0,[R4, #+8]
   \   00000068   005094E5           LDR      R5,[R4, #+0]
   \   0000006C   000050E3           CMP      R0,#+0
   \   00000070   0000000A           BEQ      ??DestroyTree_7
   \   00000074   150000EF           SWI      +21
    163             if(tmpp->value)mfree(tmpp->value);
   \                     ??DestroyTree_7:
   \   00000078   100094E5           LDR      R0,[R4, #+16]
   \   0000007C   000050E3           CMP      R0,#+0
   \   00000080   0000000A           BEQ      ??DestroyTree_8
   \   00000084   150000EF           SWI      +21
    164             mfree(tmpp);
   \                     ??DestroyTree_8:
   \   00000088   0400A0E1           MOV      R0,R4
   \   0000008C   150000EF           SWI      +21
    165             tmpp=tmpp2;
   \   00000090   0540B0E1           MOVS     R4,R5
    166           }
   \   00000094   DCFFFF1A           BNE      ??DestroyTree_1
    167           
    168           XMLTree=0;
   \                     ??DestroyTree_0:
   \   00000098   ........           LDR      R0,??DataTable6  ;; XMLTree
   \   0000009C   0010A0E3           MOV      R1,#+0
   \   000000A0   001080E5           STR      R1,[R0, #+0]
    169           curattr=0;
   \   000000A4   041080E5           STR      R1,[R0, #+4]
    170           BranchPos=0;
   \   000000A8   0C1080E5           STR      R1,[R0, #+12]
    171           current = 0;
   \   000000AC   101080E5           STR      R1,[R0, #+16]
    172           tmp=0;
   \   000000B0   141080E5           STR      R1,[R0, #+20]
    173           attribs=0;
   \   000000B4   181080E5           STR      R1,[R0, #+24]
    174           isClosed=0; 
   \   000000B8   1C1080E5           STR      R1,[R0, #+28]
    175          }
   \   000000BC   3080BDE8           POP      {R4,R5,PC}       ;; return
    176          

   \                                 In segment CODE, align 4, keep-with-next
    177          void Finish(void){
   \                     Finish:
   \   00000000   10402DE9           PUSH     {R4,LR}
    178           mfree(TagName);
   \   00000004   ........           LDR      R4,??DataTable5  ;; XMLTree
   \   00000008   200094E5           LDR      R0,[R4, #+32]
   \   0000000C   150000EF           SWI      +21
    179           mfree(AttrName);
   \   00000010   240094E5           LDR      R0,[R4, #+36]
   \   00000014   150000EF           SWI      +21
    180           mfree(AttrValue);
   \   00000018   280094E5           LDR      R0,[R4, #+40]
   \   0000001C   150000EF           SWI      +21
    181           mfree(Text);
   \   00000020   2C0094E5           LDR      R0,[R4, #+44]
   \   00000024   150000EF           SWI      +21
    182           mfree(TreeBranchs);
   \   00000028   080094E5           LDR      R0,[R4, #+8]
   \   0000002C   150000EF           SWI      +21
    183          }
   \   00000030   1080BDE8           POP      {R4,PC}          ;; return
    184          

   \                                 In segment CODE, align 4, keep-with-next
    185          void *XMLDecode(char *buf, int size){
   \                     XMLDecode:
   \   00000000   F14F2DE9           PUSH     {R0,R4-R11,LR}
    186          
    187           
    188           TagName=malloc(size);					
   \   00000004   ........           LDR      R5,??DataTable6  ;; XMLTree
   \   00000008   04D04DE2           SUB      SP,SP,#+4
   \   0000000C   0140A0E1           MOV      R4,R1
   \   00000010   0400A0E1           MOV      R0,R4
   \   00000014   140000EF           SWI      +20
   \   00000018   200085E5           STR      R0,[R5, #+32]
    189           AttrName=malloc(size);				
   \   0000001C   0400A0E1           MOV      R0,R4
   \   00000020   140000EF           SWI      +20
   \   00000024   240085E5           STR      R0,[R5, #+36]
    190           AttrValue=malloc(size);				
   \   00000028   0400A0E1           MOV      R0,R4
   \   0000002C   140000EF           SWI      +20
   \   00000030   280085E5           STR      R0,[R5, #+40]
    191           Text=malloc(size);
   \   00000034   0400A0E1           MOV      R0,R4
   \   00000038   140000EF           SWI      +20
   \   0000003C   2C0085E5           STR      R0,[R5, #+44]
    192           TreeBranchs=malloc(1024);
   \   00000040   400EA0E3           MOV      R0,#+1024
   \   00000044   140000EF           SWI      +20
   \   00000048   080085E5           STR      R0,[R5, #+8]
    193          
    194           zeromem(TagName,size);
   \   0000004C   200095E5           LDR      R0,[R5, #+32]
   \   00000050   0410A0E1           MOV      R1,R4
   \   00000054   1D0100EF           SWI      +285
    195           zeromem(AttrName,size);
   \   00000058   240095E5           LDR      R0,[R5, #+36]
   \   0000005C   0410A0E1           MOV      R1,R4
   \   00000060   1D0100EF           SWI      +285
    196           zeromem(AttrValue,size);
   \   00000064   280095E5           LDR      R0,[R5, #+40]
   \   00000068   0410A0E1           MOV      R1,R4
   \   0000006C   1D0100EF           SWI      +285
    197           zeromem(Text,size);
   \   00000070   2C0095E5           LDR      R0,[R5, #+44]
   \   00000074   0410A0E1           MOV      R1,R4
   \   00000078   1D0100EF           SWI      +285
    198           MSState = MS_BEGIN;
    199           TagState = TS_INDEFINITE;
    200           char sh_str[2]=".\0";
   \   0000007C   18139FE5           LDR      R1,??XMLDecode_1+0x4  ;; `?<Constant ".">`
   \   00000080   0100A0E3           MOV      R0,#+1
   \   00000084   0020D1E5           LDRB     R2,[R1, #0]
   \   00000088   340085E5           STR      R0,[R5, #+52]
   \   0000008C   300085E5           STR      R0,[R5, #+48]
   \   00000090   0D00A0E1           MOV      R0,SP
   \   00000094   0020C0E5           STRB     R2,[R0, #+0]
   \   00000098   0120D1E5           LDRB     R2,[R1, #+1]
    201           int i = 0;
   \   0000009C   0060A0E3           MOV      R6,#+0
   \   000000A0   BCAF8FE2           ADR      R10,??XMLDecode_1  ;; ""
   \   000000A4   0120C0E5           STRB     R2,[R0, #+1]
   \   000000A8   02B0A0E3           MOV      R11,#+2
   \   000000AC   050000EA           B        ??XMLDecode_2
    202          
    203          	while ((i<size)){
    204                      char c = *(buf+i);
    205                      sh_str[0]=c;
    206                      
    207          	    switch (MSState){
    208          		case MS_BEGIN:
    209          			if (c == '<'){
    210          				MSState = MS_BEGINTAG;
    211          			}else if (!IsSpace (c)){
    212          				Finish();
    213          				return XMLTree;//0;
    214                                          //EndParse = 1;
    215          			}
    216          			break;
    217          
    218          		case MS_BEGINTAG:
    219                                  strcpy(AttrName,"");
    220          			if (IsLit (c)){
    221          				MSState = MS_TAGNAME;
    222          				TagState = TS_NORMAL;
    223                                          strcpy(TagName,sh_str);
    224          
    225          			}else if (IsSpace(c)){
    226          				MSState = MS_MIDDLETAG;
    227          				TagState = TS_NORMAL;
    228          			}else if (c == '?'){
    229          				TagState = TS_DECLARATION;
    230          				MSState = MS_MIDDLETAG;
    231          			}else if (c == '/'){
    232          				TagState = TS_CLOSE;
    233          				MSState = MS_MIDDLETAG;
    234          			}else{
    235          				Finish();
    236          				return XMLTree;//0;
    237                                          //EndParse = 1;
    238          			}
    239          			break;
    240          
    241          		case MS_MIDDLETAG:
    242          			if (IsLit (c)){
    243          				MSState = MS_TAGNAME;
    244          				strcpy(TagName,sh_str);
    245          			}else if (!IsSpace (c)){
    246          				Finish();
    247          				return XMLTree;//0;
    248                                          //EndParse = 1;
    249          			}
    250          			break;
    251          
    252          		case MS_TAGNAME:
    253          			if (InName (c)){
    254          				strcat(TagName,sh_str);
    255          			}else if (IsSpace(c)){
    256          				MSState = MS_ENDTAGNAME;
    257          			}else if (c == '/'){
    258          				MSState = MS_ENDTAG;
    259          				TagState = TS_EMPTY;
    260          			}else if (c == '>'){
    261          				MSState = MS_TEXT;
    262          				EndTag();
    263          			}else{
    264          				Finish();
    265          				return XMLTree;//0;
    266                                          //EndParse = 1;
    267          			}
    268          			break;
    269          
    270          		case MS_ENDTAGNAME:
    271          			if (IsLit (c)){
    272          				MSState = MS_ATTRIBNAME;
    273          				strcpy(AttrName,sh_str);
    274          			}else if (c == '/'){
    275          				MSState = MS_ENDTAG;
    276          				TagState = TS_EMPTY;
    277          			}else if (c == '>'){
    278          				MSState = MS_TEXT;
    279          				EndTag();
    280          			}else if (!IsSpace(c) && (c != '?' && TagState != TS_DECLARATION)){
    281          				Finish();
    282          				return XMLTree;//0;
    283                                          //EndParse = 1;
    284          			}
    285          			break;
    286          
    287          		case MS_ATTRIBNAME:
    288          			if (InName(c)){
    289          				strcat(AttrName,sh_str);
    290          			}else if (c == '='){
    291          				MSState = MS_ENDEQUALLY;
    292          			}else if (IsSpace(c)){
    293          				MSState = MS_ENDATTRIBNAME;
    294          			}else{
    295          				Finish();
    296          				return XMLTree;//0;
    297                                          //EndParse = 1;
    298          			}
    299          			break;
    300          
    301                          case MS_ENDATTRIBNAME:
    302          			if (c == '='){
    303          				MSState = MS_ENDEQUALLY;
    304          			}else if (!IsSpace(c)){
    305          				Finish();
    306          				return XMLTree;//0;
    307                                          //EndParse = 1;
    308          			}
    309          			break;
    310          
    311          		case MS_ENDEQUALLY:
    312          			if ((c == '\"')||(c == '\'')){
    313          				MSState = MS_ATTRIBVALUE;
    314          				strcpy(AttrValue,"");
    315          			}else if (!IsSpace(c)){
    316          				Finish();
    317          				return XMLTree;//0;
    318                                          //EndParse = 1;
    319          			}
    320          			break;
    321          
    322          		case MS_ATTRIBVALUE:
    323          			if ((c == '\"')||(c == '\'')){
    324          				MSState = MS_ENDTAGNAME;
    325          				EndAttr();
    326          			}else{
    327          				strcat(AttrValue,sh_str);
    328          			}
    329          			break;
    330          
    331          		case MS_ENDTAG:
    332          			if (c == '>'){
    333          				MSState = MS_TEXT;
    334          				EndTag();
    335          			}else{
    336          				Finish();
    337          				return XMLTree;//0;
    338                                          //EndParse = 1;
    339          			}
    340          			break;
    341          
    342          		case MS_TEXT:
    343          
    344          			if (c == '<'){
    345                                    if(strlen(Text)>0){
    346                                      //tmp->value=malloc(strlen(Text)+1);
    347                                      //strcpy(tmp->value,Text);
    348                                      tmp->value = Replace_Special_Syms(Text);
    349                                    }
    350                                    strcpy(Text,"");
    351                                    MSState = MS_BEGINTAG;
    352                                    TagState = TS_INDEFINITE;
    353          			}else{
    354                                    if((TagState == TS_NORMAL)) strcat(Text,sh_str);
   \                     ??XMLDecode_3:
   \   000000B0   301095E5           LDR      R1,[R5, #+48]
   \   000000B4   020051E3           CMP      R1,#+2
   \   000000B8   0100001A           BNE      ??XMLDecode_4
   \                     ??XMLDecode_5:
   \   000000BC   0D10A0E1           MOV      R1,SP
   \                     ??XMLDecode_6:
   \   000000C0   170000EF           SWI      +23
    355                                  }
    356          			break;
    357          		}
    358                      i++;
   \                     ??XMLDecode_4:
   \   000000C4   016086E2           ADD      R6,R6,#+1
   \                     ??XMLDecode_2:
   \   000000C8   040056E1           CMP      R6,R4
   \   000000CC   1A0000AA           BGE      ??XMLDecode_7
   \   000000D0   04009DE5           LDR      R0,[SP, #+4]
   \   000000D4   0070D6E7           LDRB     R7,[R6, +R0]
   \   000000D8   0070CDE5           STRB     R7,[SP, #+0]
   \   000000DC   341095E5           LDR      R1,[R5, #+52]
   \   000000E0   208095E5           LDR      R8,[R5, #+32]
   \   000000E4   249095E5           LDR      R9,[R5, #+36]
   \   000000E8   280095E5           LDR      R0,[R5, #+40]
   \   000000EC   011041E2           SUB      R1,R1,#+1
   \   000000F0   0A0051E3           CMP      R1,#+10
   \   000000F4   F2FFFF8A           BHI      ??XMLDecode_4
   \   000000F8   022F8FE2           ADR      R2,??XMLDecode_0
   \   000000FC   8110A0E1           MOV      R1,R1, LSL #+1
   \   00000100   F12092E1           LDRSH    R2,[R2, R1]
   \   00000104   02F18FE0           ADD      PC,PC,R2, LSL #+2
   \                     ??XMLDecode_0:
   \   00000108   05000F002E00       DC16     +5,+15,+46,+57
   \              3900        
   \   00000110   53006A007A00       DC16     +83,+106,+122,+126
   \              7E00        
   \   00000118   8C004D009300       DC16     +140,+77,+147,+0
   \              0000        
   \                     ??XMLDecode_8:
   \   00000120   0700A0E1           MOV      R0,R7
   \   00000124   3C0050E3           CMP      R0,#+60
   \   00000128   34B08505           STREQ    R11,[R5, #+52]
   \   0000012C   E4FFFF0A           BEQ      ??XMLDecode_4
   \   00000130   ........           BL       IsSpace
   \   00000134   000050E3           CMP      R0,#+0
   \   00000138   E1FFFF1A           BNE      ??XMLDecode_4
   \                     ??XMLDecode_7:
   \   0000013C   ........           BL       Finish
   \   00000140   000095E5           LDR      R0,[R5, #+0]
   \   00000144   F68FBDE8           POP      {R1,R2,R4-R11,PC}  ;; return
   \                     ??XMLDecode_9:
   \   00000148   0A10A0E1           MOV      R1,R10
   \   0000014C   0900A0E1           MOV      R0,R9
   \   00000150   1A0000EF           SWI      +26
   \   00000154   0700A0E1           MOV      R0,R7
   \   00000158   ........           BL       IsLit
   \   0000015C   000050E3           CMP      R0,#+0
   \   00000160   0600000A           BEQ      ??XMLDecode_10
   \   00000164   0400A0E3           MOV      R0,#+4
   \   00000168   340085E5           STR      R0,[R5, #+52]
   \   0000016C   200095E5           LDR      R0,[R5, #+32]
   \   00000170   30B085E5           STR      R11,[R5, #+48]
   \   00000174   0D10A0E1           MOV      R1,SP
   \                     ??XMLDecode_11:
   \   00000178   1A0000EF           SWI      +26
   \   0000017C   D0FFFFEA           B        ??XMLDecode_4
   \                     ??XMLDecode_10:
   \   00000180   0380A0E3           MOV      R8,#+3
   \   00000184   0700A0E1           MOV      R0,R7
   \   00000188   ........           BL       IsSpace
   \   0000018C   000050E3           CMP      R0,#+0
   \   00000190   34808515           STRNE    R8,[R5, #+52]
   \   00000194   30B08515           STRNE    R11,[R5, #+48]
   \   00000198   C9FFFF1A           BNE      ??XMLDecode_4
   \   0000019C   3F0057E3           CMP      R7,#+63
   \   000001A0   0300001A           BNE      ??XMLDecode_12
   \   000001A4   0500A0E3           MOV      R0,#+5
   \   000001A8   300085E5           STR      R0,[R5, #+48]
   \                     ??XMLDecode_13:
   \   000001AC   348085E5           STR      R8,[R5, #+52]
   \   000001B0   C3FFFFEA           B        ??XMLDecode_4
   \                     ??XMLDecode_12:
   \   000001B4   2F0057E3           CMP      R7,#+47
   \   000001B8   DFFFFF1A           BNE      ??XMLDecode_7
   \   000001BC   308085E5           STR      R8,[R5, #+48]
   \   000001C0   F9FFFFEA           B        ??XMLDecode_13
   \                     ??XMLDecode_14:
   \   000001C4   0700A0E1           MOV      R0,R7
   \   000001C8   ........           BL       IsLit
   \   000001CC   000050E3           CMP      R0,#+0
   \   000001D0   0400000A           BEQ      ??XMLDecode_15
   \   000001D4   0400A0E3           MOV      R0,#+4
   \   000001D8   340085E5           STR      R0,[R5, #+52]
   \   000001DC   0D10A0E1           MOV      R1,SP
   \   000001E0   0800A0E1           MOV      R0,R8
   \   000001E4   E3FFFFEA           B        ??XMLDecode_11
   \                     ??XMLDecode_15:
   \   000001E8   0700A0E1           MOV      R0,R7
   \                     ??XMLDecode_16:
   \   000001EC   4C0000EA           B        ??XMLDecode_17
   \                     ??XMLDecode_18:
   \   000001F0   0700A0E1           MOV      R0,R7
   \   000001F4   ........           BL       InName
   \   000001F8   000050E3           CMP      R0,#+0
   \   000001FC   0D10A011           MOVNE    R1,SP
   \   00000200   0800A011           MOVNE    R0,R8
   \   00000204   ADFFFF1A           BNE      ??XMLDecode_6
   \   00000208   0700A0E1           MOV      R0,R7
   \   0000020C   ........           BL       IsSpace
   \   00000210   000050E3           CMP      R0,#+0
   \   00000214   0200000A           BEQ      ??XMLDecode_19
   \   00000218   0500A0E3           MOV      R0,#+5
   \                     ??XMLDecode_20:
   \   0000021C   340085E5           STR      R0,[R5, #+52]
   \   00000220   A7FFFFEA           B        ??XMLDecode_4
   \                     ??XMLDecode_19:
   \   00000224   2F0057E3           CMP      R7,#+47
   \   00000228   0400001A           BNE      ??XMLDecode_21
   \                     ??XMLDecode_22:
   \   0000022C   0A00A0E3           MOV      R0,#+10
   \   00000230   340085E5           STR      R0,[R5, #+52]
   \   00000234   0400A0E3           MOV      R0,#+4
   \                     ??XMLDecode_23:
   \   00000238   300085E5           STR      R0,[R5, #+48]
   \   0000023C   A0FFFFEA           B        ??XMLDecode_4
   \                     ??XMLDecode_21:
   \   00000240   3E0057E3           CMP      R7,#+62
   \   00000244   BCFFFF1A           BNE      ??XMLDecode_7
   \                     ??XMLDecode_24:
   \   00000248   0B00A0E3           MOV      R0,#+11
   \   0000024C   340085E5           STR      R0,[R5, #+52]
   \   00000250   ........           BL       EndTag
   \   00000254   9AFFFFEA           B        ??XMLDecode_4
   \                     ??XMLDecode_25:
   \   00000258   0700A0E1           MOV      R0,R7
   \   0000025C   ........           BL       IsLit
   \   00000260   000050E3           CMP      R0,#+0
   \   00000264   0400000A           BEQ      ??XMLDecode_26
   \   00000268   0600A0E3           MOV      R0,#+6
   \   0000026C   340085E5           STR      R0,[R5, #+52]
   \   00000270   0D10A0E1           MOV      R1,SP
   \   00000274   0900A0E1           MOV      R0,R9
   \   00000278   BEFFFFEA           B        ??XMLDecode_11
   \                     ??XMLDecode_26:
   \   0000027C   0700A0E1           MOV      R0,R7
   \   00000280   2F0050E3           CMP      R0,#+47
   \   00000284   E8FFFF0A           BEQ      ??XMLDecode_22
   \   00000288   3E0050E3           CMP      R0,#+62
   \   0000028C   EDFFFF0A           BEQ      ??XMLDecode_24
   \   00000290   ........           BL       IsSpace
   \   00000294   000050E3           CMP      R0,#+0
   \   00000298   89FFFF1A           BNE      ??XMLDecode_4
   \   0000029C   3F0057E3           CMP      R7,#+63
   \   000002A0   87FFFF0A           BEQ      ??XMLDecode_4
   \   000002A4   300095E5           LDR      R0,[R5, #+48]
   \   000002A8   050050E3           CMP      R0,#+5
   \   000002AC   A2FFFF1A           BNE      ??XMLDecode_7
   \   000002B0   83FFFFEA           B        ??XMLDecode_4
   \                     ??XMLDecode_27:
   \   000002B4   0700A0E1           MOV      R0,R7
   \   000002B8   ........           BL       InName
   \   000002BC   000050E3           CMP      R0,#+0
   \   000002C0   0D10A011           MOVNE    R1,SP
   \   000002C4   0900A011           MOVNE    R0,R9
   \   000002C8   7CFFFF1A           BNE      ??XMLDecode_6
   \   000002CC   0700A0E1           MOV      R0,R7
   \   000002D0   3D0050E3           CMP      R0,#+61
   \   000002D4   0100001A           BNE      ??XMLDecode_28
   \                     ??XMLDecode_29:
   \   000002D8   0800A0E3           MOV      R0,#+8
   \   000002DC   CEFFFFEA           B        ??XMLDecode_20
   \                     ??XMLDecode_28:
   \   000002E0   ........           BL       IsSpace
   \   000002E4   000050E3           CMP      R0,#+0
   \   000002E8   93FFFF0A           BEQ      ??XMLDecode_7
   \   000002EC   0700A0E3           MOV      R0,#+7
   \   000002F0   C9FFFFEA           B        ??XMLDecode_20
   \                     ??XMLDecode_30:
   \   000002F4   0700A0E1           MOV      R0,R7
   \   000002F8   3D0050E3           CMP      R0,#+61
   \   000002FC   F5FFFF0A           BEQ      ??XMLDecode_29
   \   00000300   070000EA           B        ??XMLDecode_17
   \                     ??XMLDecode_31:
   \   00000304   220057E3           CMP      R7,#+34
   \   00000308   27005713           CMPNE    R7,#+39
   \   0000030C   0300001A           BNE      ??XMLDecode_32
   \   00000310   0910A0E3           MOV      R1,#+9
   \   00000314   341085E5           STR      R1,[R5, #+52]
   \   00000318   0A10A0E1           MOV      R1,R10
   \   0000031C   95FFFFEA           B        ??XMLDecode_11
   \                     ??XMLDecode_32:
   \   00000320   0700A0E1           MOV      R0,R7
   \                     ??XMLDecode_17:
   \   00000324   ........           BL       IsSpace
   \   00000328   000050E3           CMP      R0,#+0
   \   0000032C   64FFFF1A           BNE      ??XMLDecode_4
   \   00000330   ........           BL       Finish
   \   00000334   000095E5           LDR      R0,[R5, #+0]
   \   00000338   F68FBDE8           POP      {R1,R2,R4-R11,PC}
   \                     ??XMLDecode_33:
   \   0000033C   220057E3           CMP      R7,#+34
   \   00000340   27005713           CMPNE    R7,#+39
   \   00000344   5CFFFF1A           BNE      ??XMLDecode_5
   \   00000348   0500A0E3           MOV      R0,#+5
   \   0000034C   340085E5           STR      R0,[R5, #+52]
   \   00000350   ........           BL       EndAttr
   \   00000354   5AFFFFEA           B        ??XMLDecode_4
   \                     ??XMLDecode_34:
   \   00000358   2C0095E5           LDR      R0,[R5, #+44]
   \   0000035C   3C0057E3           CMP      R7,#+60
   \   00000360   52FFFF1A           BNE      ??XMLDecode_3
   \   00000364   1B0000EF           SWI      +27
   \   00000368   000050E3           CMP      R0,#+0
   \   0000036C   0300000A           BEQ      ??XMLDecode_35
   \   00000370   2C0095E5           LDR      R0,[R5, #+44]
   \   00000374   ........           _BLF     Replace_Special_Syms,??Replace_Special_Syms??rA
   \   00000378   141095E5           LDR      R1,[R5, #+20]
   \   0000037C   100081E5           STR      R0,[R1, #+16]
   \                     ??XMLDecode_35:
   \   00000380   2C0095E5           LDR      R0,[R5, #+44]
   \   00000384   0A10A0E1           MOV      R1,R10
   \   00000388   1A0000EF           SWI      +26
   \   0000038C   34B085E5           STR      R11,[R5, #+52]
   \   00000390   0100A0E3           MOV      R0,#+1
   \   00000394   A7FFFFEA           B        ??XMLDecode_23
   \                     ??XMLDecode_1:
   \   00000398   00000000           DC8      "",+0,+0,+0
   \   0000039C   ........           DC32     `?<Constant ".">`
    359          	}
    360          
    361          	//if (!EndParse) return 1;
    362                  //{
    363          //		Success();
    364          //	}
    365          
    366          	Finish();
    367                  return XMLTree;//
    368          }
    369          
    370          
    371          /*
    372                 
    373          IN: char* req_attr_name -  
    374              XMLAttr* attr_list  -   
    375          OUT:    NULL
    376          */

   \                                 In segment CODE, align 4, keep-with-next
    377          char* XML_Get_Attr_Value(char* req_attr_name, XMLAttr* attr_list)
    378          {
   \                     XML_Get_Attr_Value:
   \   00000000   30402DE9           PUSH     {R4,R5,LR}
   \   00000004   0040A0E1           MOV      R4,R0
   \   00000008   0150A0E1           MOV      R5,R1
    379            XMLAttr* attr_Ex = attr_list;
   \   0000000C   000000EA           B        ??XML_Get_Attr_Value_0
    380            while(attr_Ex)
    381            {
    382              if(attr_Ex->name)
    383                if(!strcmp(req_attr_name, attr_Ex->name)) return attr_Ex->param;
    384              attr_Ex = attr_Ex->next;
   \                     ??XML_Get_Attr_Value_1:
   \   00000010   005095E5           LDR      R5,[R5, #+0]
   \                     ??XML_Get_Attr_Value_0:
   \   00000014   000055E3           CMP      R5,#+0
   \   00000018   0800000A           BEQ      ??XML_Get_Attr_Value_2
   \   0000001C   041095E5           LDR      R1,[R5, #+4]
   \   00000020   000051E3           CMP      R1,#+0
   \   00000024   F9FFFF0A           BEQ      ??XML_Get_Attr_Value_1
   \   00000028   0400A0E1           MOV      R0,R4
   \   0000002C   190000EF           SWI      +25
   \   00000030   000050E3           CMP      R0,#+0
   \   00000034   F5FFFF1A           BNE      ??XML_Get_Attr_Value_1
   \   00000038   080095E5           LDR      R0,[R5, #+8]
   \   0000003C   3080BDE8           POP      {R4,R5,PC}
    385            }
    386            return NULL;
   \                     ??XML_Get_Attr_Value_2:
   \   00000040   0000A0E3           MOV      R0,#+0
   \   00000044   3080BDE8           POP      {R4,R5,PC}       ;; return
    387          }
    388          
    389          /*
    390                     
    391          IN: XMLNode* node         -  
    392              char* req_node_name   -   
    393          OUT:    NULL
    394          */

   \                                 In segment CODE, align 4, keep-with-next
    395          XMLNode* XML_Get_Child_Node_By_Name(XMLNode* node, char* req_node_name)
    396          {
   \                     XML_Get_Child_Node_By_Name:
   \   00000000   30402DE9           PUSH     {R4,R5,LR}
    397            XMLNode* nodeEx = node->subnode;
   \   00000004   045090E5           LDR      R5,[R0, #+4]
   \   00000008   0140A0E1           MOV      R4,R1
   \   0000000C   000000EA           B        ??XML_Get_Child_Node_By_Name_0
    398            while(nodeEx)
    399            {
    400              if(nodeEx->name)
    401                if(!strcmp(req_node_name, nodeEx->name)) return nodeEx;
    402              nodeEx = nodeEx->next;
   \                     ??XML_Get_Child_Node_By_Name_1:
   \   00000010   005095E5           LDR      R5,[R5, #+0]
   \                     ??XML_Get_Child_Node_By_Name_0:
   \   00000014   000055E3           CMP      R5,#+0
   \   00000018   0800000A           BEQ      ??XML_Get_Child_Node_By_Name_2
   \   0000001C   081095E5           LDR      R1,[R5, #+8]
   \   00000020   000051E3           CMP      R1,#+0
   \   00000024   F9FFFF0A           BEQ      ??XML_Get_Child_Node_By_Name_1
   \   00000028   0400A0E1           MOV      R0,R4
   \   0000002C   190000EF           SWI      +25
   \   00000030   000050E3           CMP      R0,#+0
   \   00000034   F5FFFF1A           BNE      ??XML_Get_Child_Node_By_Name_1
   \   00000038   0500A0E1           MOV      R0,R5
   \   0000003C   3080BDE8           POP      {R4,R5,PC}
    403            }
    404            return NULL;
   \                     ??XML_Get_Child_Node_By_Name_2:
   \   00000040   0000A0E3           MOV      R0,#+0
   \   00000044   3080BDE8           POP      {R4,R5,PC}       ;; return
    405          }
    406          
    407          /*
    408                     ,
    409             ,       
    410          IN: XMLNode* node         -  
    411              char* req_node_name   -   
    412              char* req_attr_name   -  
    413              char* req_attr_velue  -  
    414          OUT:    NULL
    415          */

   \                                 In segment CODE, align 4, keep-with-next
    416          XMLNode* XML_Get_Child_Node_By_Name_And_Attr(XMLNode* node, char* req_node_name, char* req_attr_name, char* req_attr_velue)
    417          {
   \                     XML_Get_Child_Node_By_Name_And_Attr:
   \   00000000   F0402DE9           PUSH     {R4-R7,LR}
   \   00000004   0140A0E1           MOV      R4,R1
   \   00000008   0250A0E1           MOV      R5,R2
    418            XMLNode* nodeEx = node->subnode;
   \   0000000C   047090E5           LDR      R7,[R0, #+4]
   \   00000010   0360A0E1           MOV      R6,R3
   \   00000014   000000EA           B        ??XML_Get_Child_Node_By_Name_And_Attr_0
    419            while(nodeEx)
    420            {
    421              if(nodeEx->name)
    422                if(!strcmp(req_node_name, nodeEx->name))    //      
    423                {
    424                  char *attr_val = XML_Get_Attr_Value(req_attr_name, nodeEx->attr);
    425                  if(attr_val)    //    
    426                  {
    427                    if(!strcmp(attr_val, req_attr_velue))return nodeEx;          
    428                  }
    429                }
    430              nodeEx = nodeEx->next;
   \                     ??XML_Get_Child_Node_By_Name_And_Attr_1:
   \   00000018   007097E5           LDR      R7,[R7, #+0]
   \                     ??XML_Get_Child_Node_By_Name_And_Attr_0:
   \   0000001C   000057E3           CMP      R7,#+0
   \   00000020   1100000A           BEQ      ??XML_Get_Child_Node_By_Name_And_Attr_2
   \   00000024   081097E5           LDR      R1,[R7, #+8]
   \   00000028   000051E3           CMP      R1,#+0
   \   0000002C   F9FFFF0A           BEQ      ??XML_Get_Child_Node_By_Name_And_Attr_1
   \   00000030   0400A0E1           MOV      R0,R4
   \   00000034   190000EF           SWI      +25
   \   00000038   000050E3           CMP      R0,#+0
   \   0000003C   F5FFFF1A           BNE      ??XML_Get_Child_Node_By_Name_And_Attr_1
   \   00000040   0C1097E5           LDR      R1,[R7, #+12]
   \   00000044   0500A0E1           MOV      R0,R5
   \   00000048   ........           BL       XML_Get_Attr_Value
   \   0000004C   000050E3           CMP      R0,#+0
   \   00000050   F0FFFF0A           BEQ      ??XML_Get_Child_Node_By_Name_And_Attr_1
   \   00000054   0610A0E1           MOV      R1,R6
   \   00000058   190000EF           SWI      +25
   \   0000005C   000050E3           CMP      R0,#+0
   \   00000060   ECFFFF1A           BNE      ??XML_Get_Child_Node_By_Name_And_Attr_1
   \   00000064   0700A0E1           MOV      R0,R7
   \   00000068   F080BDE8           POP      {R4-R7,PC}
    431            }
    432            return NULL;
   \                     ??XML_Get_Child_Node_By_Name_And_Attr_2:
   \   0000006C   0000A0E3           MOV      R0,#+0
   \   00000070   F080BDE8           POP      {R4-R7,PC}       ;; return
    433          }

   \                                 In segment CODE, align 4, keep-with-next
   \                     ??DataTable5:
   \   00000000   ........           DC32     XMLTree

   \                                 In segment CODE, align 4, keep-with-next
   \                     ??DataTable6:
   \   00000000   ........           DC32     XMLTree

   \                                 In segment DATA_ID, align 4, align-sorted
   \                     `?<Initializer for XMLTree>`:
   \   00000000   00000000           DC32 0H
   \                     `?<Initializer for curattr>`:
   \   00000004   00000000           DC32 0H
   \                     `?<Initializer for TreeBranchs>`:
   \   00000008   00000000           DC8 0, 0, 0, 0
   \                     `?<Initializer for BranchPos>`:
   \   0000000C   00000000           DC32 0
   \                     `?<Initializer for current>`:
   \   00000010   00000000           DC32 0H
   \                     `?<Initializer for tmp>`:
   \   00000014   00000000           DC32 0H
   \                     `?<Initializer for attribs>`:
   \   00000018   00000000           DC32 0H
   \                     `?<Initializer for isClosed>`:
   \   0000001C   00000000           DC32 0
   \                     `?<Initializer for TagName>`:
   \   00000020   00000000           DC8 0, 0, 0, 0
   \                     `?<Initializer for AttrName>`:
   \   00000024   00000000           DC8 0, 0, 0, 0
   \                     `?<Initializer for AttrValue>`:
   \   00000028   00000000           DC8 0, 0, 0, 0
   \                     `?<Initializer for Text>`:
   \   0000002C   00000000           DC8 0, 0, 0, 0
   \                     `?<Initializer for TagState>`:
   \   00000030   00000000           DC8 0, 0, 0, 0
   \                     `?<Initializer for MSState>`:
   \   00000034   00000000           DC8 0, 0, 0, 0
   \                     `?<Initializer for f>`:
   \   00000038   00000000           DC8 0, 0, 0, 0
   \                     `?<Initializer for tabul>`:
   \   0000003C   000000000000       DC8 0, 0, 0, 0, 0, 0, 0, 0, 0, 0, 0, 0, 0, 0, 0, 0
   \              000000000000
   \              00000000    
   \   0000004C   000000000000       DC8 0, 0, 0, 0, 0, 0, 0, 0, 0, 0, 0, 0, 0, 0, 0, 0
   \              000000000000
   \              00000000    
   \   0000005C   000000000000       DC8 0, 0, 0, 0, 0, 0, 0, 0, 0, 0, 0, 0, 0, 0, 0, 0
   \              000000000000
   \              00000000    
   \   0000006C   000000000000       DC8 0, 0, 0, 0, 0, 0, 0, 0, 0, 0, 0, 0, 0, 0, 0, 0
   \              000000000000
   \              00000000    
   \   0000007C   000000000000       DC8 0, 0, 0, 0, 0, 0, 0, 0, 0, 0, 0, 0, 0, 0, 0, 0
   \              000000000000
   \              00000000    
   \   0000008C   000000000000       DC8 0, 0, 0, 0, 0, 0, 0, 0, 0, 0, 0, 0, 0, 0, 0, 0, 0, 0, 0, 0
   \              000000000000
   \              000000000000
   \              0000        
   \                     `?<Initializer for _crlf>`:
   \   000000A0   0D0A               DC8 13, 10
   \   000000A2   0000               DC8 0, 0
   \                     `?<Initializer for ul>`:
   \   000000A4   00000000           DC8 0, 0, 0, 0
   \                     `?<Initializer for bbuf>`:
   \   000000A8   000000000000       DC8 0, 0, 0, 0, 0, 0, 0, 0, 0, 0, 0, 0, 0, 0, 0, 0
   \              000000000000
   \              00000000    
   \   000000B8   000000000000       DC8 0, 0, 0, 0, 0, 0, 0, 0, 0, 0, 0, 0, 0, 0, 0, 0
   \              000000000000
   \              00000000    
   \   000000C8   000000000000       DC8 0, 0, 0, 0, 0, 0, 0, 0, 0, 0, 0, 0, 0, 0, 0, 0
   \              000000000000
   \              00000000    
   \   000000D8   000000000000       DC8 0, 0, 0, 0, 0, 0, 0, 0, 0, 0, 0, 0, 0, 0, 0, 0
   \              000000000000
   \              00000000    
   \   000000E8   000000000000       DC8 0, 0, 0, 0, 0, 0, 0, 0, 0, 0, 0, 0, 0, 0, 0, 0
   \              000000000000
   \              00000000    
   \   000000F8   000000000000       DC8 0, 0, 0, 0, 0, 0, 0, 0, 0, 0, 0, 0, 0, 0, 0, 0
   \              000000000000
   \              00000000    
   \   00000108   000000000000       DC8 0, 0, 0, 0, 0, 0, 0, 0, 0, 0, 0, 0, 0, 0, 0, 0
   \              000000000000
   \              00000000    
   \   00000118   000000000000       DC8 0, 0, 0, 0, 0, 0, 0, 0, 0, 0, 0, 0, 0, 0, 0, 0
   \              000000000000
   \              00000000    
   \   00000128   000000000000       DC8 0, 0, 0, 0, 0, 0, 0, 0, 0, 0, 0, 0, 0, 0, 0, 0
   \              000000000000
   \              00000000    
   \   00000138   000000000000       DC8 0, 0, 0, 0, 0, 0, 0, 0, 0, 0, 0, 0, 0, 0, 0, 0
   \              000000000000
   \              00000000    
   \   00000148   000000000000       DC8 0, 0, 0, 0, 0, 0, 0, 0, 0, 0, 0, 0, 0, 0, 0, 0
   \              000000000000
   \              00000000    
   \   00000158   000000000000       DC8 0, 0, 0, 0, 0, 0, 0, 0, 0, 0, 0, 0, 0, 0, 0, 0
   \              000000000000
   \              00000000    
   \   00000168   000000000000       DC8 0, 0, 0, 0, 0, 0, 0, 0, 0, 0, 0, 0, 0, 0, 0, 0
   \              000000000000
   \              00000000    
   \   00000178   000000000000       DC8 0, 0, 0, 0, 0, 0, 0, 0, 0, 0, 0, 0, 0, 0, 0, 0
   \              000000000000
   \              00000000    
   \   00000188   000000000000       DC8 0, 0, 0, 0, 0, 0, 0, 0, 0, 0, 0, 0, 0, 0, 0, 0
   \              000000000000
   \              00000000    
   \   00000198   000000000000       DC8 0, 0, 0, 0, 0, 0, 0, 0, 0, 0, 0, 0, 0, 0, 0, 0
   \              000000000000
   \              00000000    
   \                     `?<Initializer for bbf>`:
   \   000001A8   000000000000       DC8 0, 0, 0, 0, 0, 0, 0, 0, 0, 0, 0, 0, 0, 0, 0, 0
   \              000000000000
   \              00000000    
   \   000001B8   000000000000       DC8 0, 0, 0, 0, 0, 0, 0, 0, 0, 0, 0, 0, 0, 0, 0, 0
   \              000000000000
   \              00000000    
   \   000001C8   000000000000       DC8 0, 0, 0, 0, 0, 0, 0, 0, 0, 0, 0, 0, 0, 0, 0, 0
   \              000000000000
   \              00000000    
   \   000001D8   000000000000       DC8 0, 0, 0, 0, 0, 0, 0, 0, 0, 0, 0, 0, 0, 0, 0, 0
   \              000000000000
   \              00000000    
   \   000001E8   000000000000       DC8 0, 0, 0, 0, 0, 0, 0, 0, 0, 0, 0, 0, 0, 0, 0, 0
   \              000000000000
   \              00000000    
   \   000001F8   000000000000       DC8 0, 0, 0, 0, 0, 0, 0, 0, 0, 0, 0, 0, 0, 0, 0, 0
   \              000000000000
   \              00000000    
   \   00000208   000000000000       DC8 0, 0, 0, 0, 0, 0, 0, 0, 0, 0, 0, 0, 0, 0, 0, 0
   \              000000000000
   \              00000000    
   \   00000218   000000000000       DC8 0, 0, 0, 0, 0, 0, 0, 0, 0, 0, 0, 0, 0, 0, 0, 0
   \              000000000000
   \              00000000    
   \   00000228   000000000000       DC8 0, 0, 0, 0, 0, 0, 0, 0, 0, 0, 0, 0, 0, 0, 0, 0
   \              000000000000
   \              00000000    
   \   00000238   000000000000       DC8 0, 0, 0, 0, 0, 0, 0, 0, 0, 0, 0, 0, 0, 0, 0, 0
   \              000000000000
   \              00000000    
   \   00000248   000000000000       DC8 0, 0, 0, 0, 0, 0, 0, 0, 0, 0, 0, 0, 0, 0, 0, 0
   \              000000000000
   \              00000000    
   \   00000258   000000000000       DC8 0, 0, 0, 0, 0, 0, 0, 0, 0, 0, 0, 0, 0, 0, 0, 0
   \              000000000000
   \              00000000    
   \   00000268   000000000000       DC8 0, 0, 0, 0, 0, 0, 0, 0, 0, 0, 0, 0, 0, 0, 0, 0
   \              000000000000
   \              00000000    
   \   00000278   000000000000       DC8 0, 0, 0, 0, 0, 0, 0, 0, 0, 0, 0, 0, 0, 0, 0, 0
   \              000000000000
   \              00000000    
   \   00000288   000000000000       DC8 0, 0, 0, 0, 0, 0, 0, 0, 0, 0, 0, 0, 0, 0, 0, 0
   \              000000000000
   \              00000000    
   \   00000298   000000000000       DC8 0, 0, 0, 0, 0, 0, 0, 0, 0, 0, 0, 0, 0, 0, 0, 0
   \              000000000000
   \              00000000    

   \                                 In segment DATA_C, align 4, align-sorted
   \                     `?<Constant "name: %s = ">`:
   \   00000000   6E616D653A20       DC8 "name: %s = "
   \              2573203D2000
   \   0000000C   617474726962       DC8 "attributes: "
   \              757465733A20
   \              00          
   \   00000019   000000             DC8 0, 0, 0
   \   0000001C   2573202D2000       DC8 "%s - "
   \   00000022   0000               DC8 0, 0

   \                                 In segment DATA_C, align 1, align-sorted
   \   00000000   257300             DC8 "%s"

   \                                 In segment DATA_C, align 1, align-sorted
   \   00000000   202000             DC8 "  "

   \                                 In segment DATA_C, align 4, align-sorted
   \                     `?<Constant "4:\\\\xml_packet.txt">`:
   \   00000000   343A5C786D6C       DC8 "4:\\xml_packet.txt"
   \              5F7061636B65
   \              742E74787400
   \   00000012   0000               DC8 0, 0

   \                                 In segment DATA_C, align 1, align-sorted
   \                     `?<Constant ".">`:
   \   00000000   2E00               DC8 "."

   \                                 In segment DATA_C, align 1, align-sorted
   \   00000000   00                 DC8 ""
    434          //EOL,EOF

   Maximum stack usage in bytes:

     Function                       CSTACK
     --------                       ------
     DestroyTree                       12
     EndAttr                           16
     EndTag                            12
     Finish                             8
     InName                             8
     IsLit                              0
     IsNum                              0
     IsSpace                            0
     SaveBranch                        28
     SaveTree                          32
     XMLDecode                         44
     XML_Get_Attr_Value                12
     XML_Get_Child_Node_By_Name        12
     XML_Get_Child_Node_By_Name_And_Attr
                                       20


   Segment part sizes:

     Function/Label                 Bytes
     --------------                 -----
     IsSpace                          32
     IsLit                            48
     IsNum                            28
     InName                           60
     XMLTree                         680
     SaveBranch                      448
     SaveTree                         96
     EndTag                          244
     EndAttr                         140
     DestroyTree                     192
     Finish                           52
     XMLDecode                       928
     XML_Get_Attr_Value               72
     XML_Get_Child_Node_By_Name       72
     XML_Get_Child_Node_By_Name_And_Attr
                                     116
     ??DataTable5                      4
     ??DataTable6                      4
     ?<Initializer for XMLTree>      680
     ?<Constant "name: %s = ">        36
     ?<Constant "%s">                  3
     ?<Constant "  ">                  3
     ?<Constant "4:\\xml_packet.txt">
                                      20
     ?<Constant ".">                   2
     ?<Constant "">                    1
      Others                          80

 
 2 604 bytes in segment CODE
    65 bytes in segment DATA_C
   680 bytes in segment DATA_I
   680 bytes in segment DATA_ID
    12 bytes in segment INITTAB
 
 2 536 bytes of CODE  memory (+ 80 bytes shared)
   745 bytes of CONST memory
   680 bytes of DATA  memory

Errors: none
Warnings: none
