//////////////////////////////////////////////////////////////////////////////
//                                                                           /
// IAR ARM ANSI C/C++ Compiler V4.40A/W32 EVALUATION   28/Mar/2008  19:11:23 /
// Copyright 1999-2005 IAR Systems. All rights reserved.                     /
//                                                                           /
//    Cpu mode        =  interwork                                           /
//    Endian          =  little                                              /
//    Stack alignment =  4                                                   /
//    Source file     =  E:\Ivo\arm\IVOPLAY\MAIN.c                           /
//    Command line    =  E:\Ivo\arm\IVOPLAY\MAIN.c -D X75 -lC                /
//                       E:\Ivo\arm\IVOPLAY\ReleaseX75\List\ -lA             /
//                       E:\Ivo\arm\IVOPLAY\ReleaseX75\List\ -o              /
//                       E:\Ivo\arm\IVOPLAY\ReleaseX75\Obj\ -s9 --no_cse     /
//                       --no_unroll --no_inline --no_code_motion --no_tbaa  /
//                       --no_clustering --no_scheduling --cpu_mode arm      /
//                       --endian little --cpu ARM926EJ-S --stack_align 4    /
//                       --interwork -e --fpu None --dlib_config             /
//                       D:\arm\ARM\LIB\dl5tpainl8n.h -I D:\arm\ARM\INC\     /
//    List file       =  E:\Ivo\arm\IVOPLAY\ReleaseX75\List\MAIN.s79         /
//                                                                           /
//                                                                           /
//////////////////////////////////////////////////////////////////////////////

        NAME MAIN

        RTMODEL "StackAlign4", "USED"
        RTMODEL "__cpu_mode", "__pcs__interwork"
        RTMODEL "__data_model", "absolute"
        RTMODEL "__endian", "little"
        RTMODEL "__rt_version", "6"

        RSEG CSTACK:DATA:NOROOT(2)

        EXTERN ??div32_a

        PUBWEAK `?*?DATA_ID`
        MULTWEAK ??CLOSECURENTCSM??rT
        MULTWEAK ??CheckDoubleRun??rT
        MULTWEAK ??Cleaner??rA
        MULTWEAK ??CloseGUI??rT
        MULTWEAK ??CreateMenuFindPlaylist??rA
        MULTWEAK ??CreatePlaylist??rT
        MULTWEAK ??CreateSaveAsDialog??rT
??DataTable10 EQU 0
??DataTable100 EQU 0
??DataTable101 EQU 0
??DataTable102 EQU 0
??DataTable104 EQU 0
??DataTable105 EQU 0
??DataTable106 EQU 0
??DataTable115 EQU 0
??DataTable118 EQU 0
??DataTable119 EQU 0
??DataTable12 EQU 0
??DataTable120 EQU 0
??DataTable121 EQU 0
??DataTable122 EQU 0
??DataTable128 EQU 0
??DataTable13 EQU 0
??DataTable130 EQU 0
??DataTable131 EQU 0
??DataTable132 EQU 0
??DataTable133 EQU 0
??DataTable134 EQU 0
??DataTable136 EQU 0
??DataTable137 EQU 0
??DataTable138 EQU 0
??DataTable139 EQU 0
??DataTable140 EQU 0
??DataTable141 EQU 0
??DataTable142 EQU 0
??DataTable143 EQU 0
??DataTable144 EQU 0
??DataTable146 EQU 0
??DataTable147 EQU 0
??DataTable148 EQU 0
??DataTable149 EQU 0
??DataTable15 EQU 0
??DataTable150 EQU 0
??DataTable151 EQU 0
??DataTable152 EQU 0
??DataTable153 EQU 0
??DataTable155 EQU 0
??DataTable156 EQU 0
??DataTable157 EQU 0
??DataTable158 EQU 0
??DataTable159 EQU 0
??DataTable16 EQU 0
??DataTable160 EQU 0
??DataTable161 EQU 0
??DataTable162 EQU 0
??DataTable163 EQU 0
??DataTable164 EQU 0
??DataTable166 EQU 0
??DataTable167 EQU 0
??DataTable168 EQU 0
??DataTable169 EQU 0
??DataTable170 EQU 0
??DataTable171 EQU 0
??DataTable173 EQU 0
??DataTable174 EQU 0
??DataTable175 EQU 0
??DataTable177 EQU 0
??DataTable179 EQU 0
??DataTable18 EQU 0
??DataTable180 EQU 0
??DataTable181 EQU 0
??DataTable182 EQU 0
??DataTable183 EQU 0
??DataTable184 EQU 0
??DataTable185 EQU 0
??DataTable187 EQU 0
??DataTable188 EQU 0
??DataTable19 EQU 0
??DataTable191 EQU 0
??DataTable198 EQU 0
??DataTable199 EQU 0
??DataTable203 EQU 0
??DataTable204 EQU 0
??DataTable205 EQU 0
??DataTable206 EQU 0
??DataTable208 EQU 0
??DataTable209 EQU 0
??DataTable21 EQU 0
??DataTable210 EQU 0
??DataTable211 EQU 0
??DataTable212 EQU 0
??DataTable213 EQU 0
??DataTable214 EQU 0
??DataTable215 EQU 0
??DataTable216 EQU 0
??DataTable217 EQU 0
??DataTable218 EQU 0
??DataTable219 EQU 0
??DataTable22 EQU 0
??DataTable220 EQU 0
??DataTable221 EQU 0
??DataTable222 EQU 0
??DataTable223 EQU 0
??DataTable224 EQU 0
??DataTable225 EQU 0
??DataTable226 EQU 0
??DataTable229 EQU 0
??DataTable234 EQU 0
??DataTable235 EQU 0
??DataTable236 EQU 0
??DataTable237 EQU 0
??DataTable238 EQU 0
??DataTable239 EQU 0
??DataTable24 EQU 0
??DataTable240 EQU 0
??DataTable241 EQU 0
??DataTable242 EQU 0
??DataTable243 EQU 0
??DataTable244 EQU 0
??DataTable245 EQU 0
??DataTable246 EQU 0
??DataTable247 EQU 0
??DataTable248 EQU 0
??DataTable25 EQU 0
??DataTable251 EQU 0
??DataTable253 EQU 0
??DataTable254 EQU 0
??DataTable255 EQU 0
??DataTable256 EQU 0
??DataTable257 EQU 0
??DataTable258 EQU 0
??DataTable259 EQU 0
??DataTable260 EQU 0
??DataTable261 EQU 0
??DataTable262 EQU 0
??DataTable263 EQU 0
??DataTable264 EQU 0
??DataTable265 EQU 0
??DataTable266 EQU 0
??DataTable267 EQU 0
??DataTable268 EQU 0
??DataTable269 EQU 0
??DataTable27 EQU 0
??DataTable270 EQU 0
??DataTable271 EQU 0
??DataTable272 EQU 0
??DataTable273 EQU 0
??DataTable274 EQU 0
??DataTable275 EQU 0
??DataTable276 EQU 0
??DataTable277 EQU 0
??DataTable278 EQU 0
??DataTable28 EQU 0
??DataTable280 EQU 0
??DataTable281 EQU 0
??DataTable282 EQU 0
??DataTable283 EQU 0
??DataTable284 EQU 0
??DataTable285 EQU 0
??DataTable286 EQU 0
??DataTable288 EQU 0
??DataTable289 EQU 0
??DataTable290 EQU 0
??DataTable291 EQU 0
??DataTable292 EQU 0
??DataTable293 EQU 0
??DataTable294 EQU 0
??DataTable30 EQU 0
??DataTable302 EQU 0
??DataTable304 EQU 0
??DataTable305 EQU 0
??DataTable306 EQU 0
??DataTable307 EQU 0
??DataTable308 EQU 0
??DataTable309 EQU 0
??DataTable31 EQU 0
??DataTable311 EQU 0
??DataTable313 EQU 0
??DataTable315 EQU 0
??DataTable316 EQU 0
??DataTable317 EQU 0
??DataTable318 EQU 0
??DataTable319 EQU 0
??DataTable320 EQU 0
??DataTable321 EQU 0
??DataTable322 EQU 0
??DataTable323 EQU 0
??DataTable324 EQU 0
??DataTable325 EQU 0
??DataTable326 EQU 0
??DataTable327 EQU 0
??DataTable328 EQU 0
??DataTable329 EQU 0
??DataTable33 EQU 0
??DataTable332 EQU 0
??DataTable333 EQU 0
??DataTable335 EQU 0
??DataTable337 EQU 0
??DataTable34 EQU 0
??DataTable341 EQU 0
??DataTable342 EQU 0
??DataTable344 EQU 0
??DataTable345 EQU 0
??DataTable346 EQU 0
??DataTable347 EQU 0
??DataTable348 EQU 0
??DataTable349 EQU 0
??DataTable350 EQU 0
??DataTable351 EQU 0
??DataTable352 EQU 0
??DataTable353 EQU 0
??DataTable354 EQU 0
??DataTable355 EQU 0
??DataTable356 EQU 0
??DataTable357 EQU 0
??DataTable358 EQU 0
??DataTable359 EQU 0
??DataTable36 EQU 0
??DataTable360 EQU 0
??DataTable362 EQU 0
??DataTable363 EQU 0
??DataTable364 EQU 0
??DataTable365 EQU 0
??DataTable366 EQU 0
??DataTable367 EQU 0
??DataTable368 EQU 0
??DataTable369 EQU 0
??DataTable37 EQU 0
??DataTable370 EQU 0
??DataTable371 EQU 0
??DataTable372 EQU 0
??DataTable373 EQU 0
??DataTable378 EQU 0
??DataTable379 EQU 0
??DataTable380 EQU 0
??DataTable381 EQU 0
??DataTable382 EQU 0
??DataTable383 EQU 0
??DataTable384 EQU 0
??DataTable387 EQU 0
??DataTable388 EQU 0
??DataTable389 EQU 0
??DataTable39 EQU 0
??DataTable394 EQU 0
??DataTable396 EQU 0
??DataTable397 EQU 0
??DataTable398 EQU 0
??DataTable399 EQU 0
??DataTable40 EQU 0
??DataTable400 EQU 0
??DataTable401 EQU 0
??DataTable402 EQU 0
??DataTable403 EQU 0
??DataTable404 EQU 0
??DataTable405 EQU 0
??DataTable406 EQU 0
??DataTable407 EQU 0
??DataTable409 EQU 0
??DataTable410 EQU 0
??DataTable414 EQU 0
??DataTable42 EQU 0
??DataTable427 EQU 0
??DataTable428 EQU 0
??DataTable43 EQU 0
??DataTable433 EQU 0
??DataTable434 EQU 0
??DataTable435 EQU 0
??DataTable436 EQU 0
??DataTable437 EQU 0
??DataTable439 EQU 0
??DataTable440 EQU 0
??DataTable441 EQU 0
??DataTable443 EQU 0
??DataTable444 EQU 0
??DataTable445 EQU 0
??DataTable446 EQU 0
??DataTable447 EQU 0
??DataTable448 EQU 0
??DataTable449 EQU 0
??DataTable45 EQU 0
??DataTable450 EQU 0
??DataTable451 EQU 0
??DataTable452 EQU 0
??DataTable453 EQU 0
??DataTable454 EQU 0
??DataTable455 EQU 0
??DataTable456 EQU 0
??DataTable458 EQU 0
??DataTable459 EQU 0
??DataTable46 EQU 0
??DataTable460 EQU 0
??DataTable464 EQU 0
??DataTable465 EQU 0
??DataTable466 EQU 0
??DataTable470 EQU 0
??DataTable471 EQU 0
??DataTable474 EQU 0
??DataTable476 EQU 0
??DataTable477 EQU 0
??DataTable478 EQU 0
??DataTable48 EQU 0
??DataTable485 EQU 0
??DataTable487 EQU 0
??DataTable488 EQU 0
??DataTable489 EQU 0
??DataTable49 EQU 0
??DataTable490 EQU 0
??DataTable491 EQU 0
??DataTable493 EQU 0
??DataTable495 EQU 0
??DataTable497 EQU 0
??DataTable498 EQU 0
??DataTable499 EQU 0
??DataTable500 EQU 0
??DataTable501 EQU 0
??DataTable502 EQU 0
??DataTable503 EQU 0
??DataTable51 EQU 0
??DataTable519 EQU 0
??DataTable52 EQU 0
??DataTable520 EQU 0
??DataTable521 EQU 0
??DataTable522 EQU 0
??DataTable523 EQU 0
??DataTable524 EQU 0
??DataTable527 EQU 0
??DataTable528 EQU 0
??DataTable529 EQU 0
??DataTable53 EQU 0
??DataTable530 EQU 0
??DataTable531 EQU 0
??DataTable532 EQU 0
??DataTable533 EQU 0
??DataTable535 EQU 0
??DataTable536 EQU 0
??DataTable538 EQU 0
??DataTable539 EQU 0
??DataTable54 EQU 0
??DataTable541 EQU 0
??DataTable542 EQU 0
??DataTable543 EQU 0
??DataTable544 EQU 0
??DataTable545 EQU 0
??DataTable547 EQU 0
??DataTable548 EQU 0
??DataTable549 EQU 0
??DataTable55 EQU 0
??DataTable550 EQU 0
??DataTable551 EQU 0
??DataTable552 EQU 0
??DataTable553 EQU 0
??DataTable554 EQU 0
??DataTable555 EQU 0
??DataTable556 EQU 0
??DataTable557 EQU 0
??DataTable558 EQU 0
??DataTable559 EQU 0
??DataTable56 EQU 0
??DataTable561 EQU 0
??DataTable562 EQU 0
??DataTable563 EQU 0
??DataTable564 EQU 0
??DataTable565 EQU 0
??DataTable566 EQU 0
??DataTable567 EQU 0
??DataTable568 EQU 0
??DataTable569 EQU 0
??DataTable57 EQU 0
??DataTable570 EQU 0
??DataTable571 EQU 0
??DataTable572 EQU 0
??DataTable573 EQU 0
??DataTable575 EQU 0
??DataTable576 EQU 0
??DataTable577 EQU 0
??DataTable578 EQU 0
??DataTable579 EQU 0
??DataTable580 EQU 0
??DataTable581 EQU 0
??DataTable582 EQU 0
??DataTable583 EQU 0
??DataTable584 EQU 0
??DataTable585 EQU 0
??DataTable586 EQU 0
??DataTable587 EQU 0
??DataTable590 EQU 0
??DataTable591 EQU 0
??DataTable592 EQU 0
??DataTable593 EQU 0
??DataTable595 EQU 0
??DataTable596 EQU 0
??DataTable597 EQU 0
??DataTable598 EQU 0
??DataTable599 EQU 0
??DataTable600 EQU 0
??DataTable601 EQU 0
??DataTable602 EQU 0
??DataTable61 EQU 0
??DataTable610 EQU 0
??DataTable612 EQU 0
??DataTable613 EQU 0
??DataTable615 EQU 0
??DataTable619 EQU 0
??DataTable620 EQU 0
??DataTable621 EQU 0
??DataTable622 EQU 0
??DataTable623 EQU 0
??DataTable624 EQU 0
??DataTable625 EQU 0
??DataTable626 EQU 0
??DataTable627 EQU 0
??DataTable628 EQU 0
??DataTable629 EQU 0
??DataTable63 EQU 0
??DataTable630 EQU 0
??DataTable631 EQU 0
??DataTable632 EQU 0
??DataTable633 EQU 0
??DataTable634 EQU 0
??DataTable635 EQU 0
??DataTable636 EQU 0
??DataTable637 EQU 0
??DataTable638 EQU 0
??DataTable639 EQU 0
??DataTable640 EQU 0
??DataTable641 EQU 0
??DataTable642 EQU 0
??DataTable643 EQU 0
??DataTable644 EQU 0
??DataTable645 EQU 0
??DataTable646 EQU 0
??DataTable647 EQU 0
??DataTable648 EQU 0
??DataTable649 EQU 0
??DataTable650 EQU 0
??DataTable651 EQU 0
??DataTable652 EQU 0
??DataTable653 EQU 0
??DataTable654 EQU 0
??DataTable655 EQU 0
??DataTable656 EQU 0
??DataTable657 EQU 0
??DataTable658 EQU 0
??DataTable659 EQU 0
??DataTable66 EQU 0
??DataTable660 EQU 0
??DataTable661 EQU 0
??DataTable663 EQU 0
??DataTable664 EQU 0
??DataTable665 EQU 0
??DataTable666 EQU 0
??DataTable667 EQU 0
??DataTable668 EQU 0
??DataTable669 EQU 0
??DataTable67 EQU 0
??DataTable670 EQU 0
??DataTable671 EQU 0
??DataTable672 EQU 0
??DataTable673 EQU 0
??DataTable674 EQU 0
??DataTable675 EQU 0
??DataTable676 EQU 0
??DataTable677 EQU 0
??DataTable678 EQU 0
??DataTable679 EQU 0
??DataTable68 EQU 0
??DataTable680 EQU 0
??DataTable681 EQU 0
??DataTable682 EQU 0
??DataTable683 EQU 0
??DataTable684 EQU 0
??DataTable685 EQU 0
??DataTable687 EQU 0
??DataTable688 EQU 0
??DataTable689 EQU 0
??DataTable69 EQU 0
??DataTable690 EQU 0
??DataTable691 EQU 0
??DataTable692 EQU 0
??DataTable693 EQU 0
??DataTable694 EQU 0
??DataTable695 EQU 0
??DataTable697 EQU 0
??DataTable698 EQU 0
??DataTable699 EQU 0
??DataTable7 EQU 0
??DataTable70 EQU 0
??DataTable700 EQU 0
??DataTable701 EQU 0
??DataTable702 EQU 0
??DataTable703 EQU 0
??DataTable704 EQU 0
??DataTable705 EQU 0
??DataTable707 EQU 0
??DataTable708 EQU 0
??DataTable709 EQU 0
??DataTable71 EQU 0
??DataTable710 EQU 0
??DataTable712 EQU 0
??DataTable713 EQU 0
??DataTable714 EQU 0
??DataTable716 EQU 0
??DataTable717 EQU 0
??DataTable718 EQU 0
??DataTable719 EQU 0
??DataTable720 EQU 0
??DataTable721 EQU 0
??DataTable722 EQU 0
??DataTable723 EQU 0
??DataTable724 EQU 0
??DataTable725 EQU 0
??DataTable726 EQU 0
??DataTable727 EQU 0
??DataTable728 EQU 0
??DataTable729 EQU 0
??DataTable73 EQU 0
??DataTable730 EQU 0
??DataTable732 EQU 0
??DataTable733 EQU 0
??DataTable734 EQU 0
??DataTable735 EQU 0
??DataTable736 EQU 0
??DataTable737 EQU 0
??DataTable738 EQU 0
??DataTable739 EQU 0
??DataTable740 EQU 0
??DataTable741 EQU 0
??DataTable742 EQU 0
??DataTable743 EQU 0
??DataTable744 EQU 0
??DataTable745 EQU 0
??DataTable746 EQU 0
??DataTable747 EQU 0
??DataTable748 EQU 0
??DataTable749 EQU 0
??DataTable750 EQU 0
??DataTable751 EQU 0
??DataTable753 EQU 0
??DataTable754 EQU 0
??DataTable755 EQU 0
??DataTable757 EQU 0
??DataTable758 EQU 0
??DataTable76 EQU 0
??DataTable761 EQU 0
??DataTable764 EQU 0
??DataTable765 EQU 0
??DataTable766 EQU 0
??DataTable767 EQU 0
??DataTable768 EQU 0
??DataTable769 EQU 0
??DataTable77 EQU 0
??DataTable770 EQU 0
??DataTable771 EQU 0
??DataTable775 EQU 0
??DataTable779 EQU 0
??DataTable78 EQU 0
??DataTable780 EQU 0
??DataTable781 EQU 0
??DataTable782 EQU 0
??DataTable783 EQU 0
??DataTable784 EQU 0
??DataTable785 EQU 0
??DataTable786 EQU 0
??DataTable788 EQU 0
??DataTable792 EQU 0
??DataTable798 EQU 0
??DataTable799 EQU 0
??DataTable800 EQU 0
??DataTable801 EQU 0
??DataTable802 EQU 0
??DataTable803 EQU 0
??DataTable804 EQU 0
??DataTable805 EQU 0
??DataTable806 EQU 0
??DataTable807 EQU 0
??DataTable808 EQU 0
??DataTable809 EQU 0
??DataTable810 EQU 0
??DataTable811 EQU 0
??DataTable812 EQU 0
??DataTable813 EQU 0
??DataTable814 EQU 0
??DataTable815 EQU 0
??DataTable816 EQU 0
??DataTable817 EQU 0
??DataTable820 EQU 0
??DataTable821 EQU 0
??DataTable822 EQU 0
??DataTable823 EQU 0
??DataTable825 EQU 0
??DataTable826 EQU 0
??DataTable827 EQU 0
??DataTable828 EQU 0
??DataTable830 EQU 0
??DataTable831 EQU 0
??DataTable832 EQU 0
??DataTable833 EQU 0
??DataTable834 EQU 0
??DataTable835 EQU 0
??DataTable836 EQU 0
??DataTable837 EQU 0
??DataTable838 EQU 0
??DataTable839 EQU 0
??DataTable84 EQU 0
??DataTable840 EQU 0
??DataTable841 EQU 0
??DataTable842 EQU 0
??DataTable849 EQU 0
??DataTable85 EQU 0
??DataTable850 EQU 0
??DataTable851 EQU 0
??DataTable853 EQU 0
??DataTable854 EQU 0
??DataTable856 EQU 0
??DataTable86 EQU 0
??DataTable863 EQU 0
??DataTable864 EQU 0
??DataTable865 EQU 0
??DataTable866 EQU 0
??DataTable867 EQU 0
??DataTable868 EQU 0
??DataTable87 EQU 0
??DataTable872 EQU 0
??DataTable873 EQU 0
??DataTable875 EQU 0
??DataTable876 EQU 0
??DataTable877 EQU 0
??DataTable878 EQU 0
??DataTable88 EQU 0
??DataTable883 EQU 0
??DataTable885 EQU 0
??DataTable886 EQU 0
??DataTable888 EQU 0
??DataTable890 EQU 0
??DataTable892 EQU 0
??DataTable896 EQU 0
??DataTable898 EQU 0
??DataTable899 EQU 0
??DataTable9 EQU 0
??DataTable90 EQU 0
??DataTable900 EQU 0
??DataTable901 EQU 0
??DataTable902 EQU 0
??DataTable903 EQU 0
??DataTable904 EQU 0
??DataTable905 EQU 0
??DataTable906 EQU 0
??DataTable907 EQU 0
??DataTable908 EQU 0
??DataTable909 EQU 0
??DataTable910 EQU 0
??DataTable911 EQU 0
??DataTable912 EQU 0
??DataTable913 EQU 0
??DataTable914 EQU 0
??DataTable915 EQU 0
??DataTable916 EQU 0
??DataTable917 EQU 0
??DataTable918 EQU 0
??DataTable919 EQU 0
??DataTable92 EQU 0
??DataTable920 EQU 0
??DataTable921 EQU 0
??DataTable922 EQU 0
??DataTable923 EQU 0
??DataTable924 EQU 0
??DataTable925 EQU 0
??DataTable926 EQU 0
??DataTable927 EQU 0
??DataTable928 EQU 0
??DataTable929 EQU 0
??DataTable93 EQU 0
??DataTable931 EQU 0
??DataTable932 EQU 0
??DataTable933 EQU 0
??DataTable934 EQU 0
??DataTable935 EQU 0
??DataTable94 EQU 0
??DataTable940 EQU 0
??DataTable941 EQU 0
??DataTable942 EQU 0
??DataTable943 EQU 0
??DataTable944 EQU 0
??DataTable945 EQU 0
??DataTable946 EQU 0
??DataTable947 EQU 0
??DataTable948 EQU 0
??DataTable949 EQU 0
??DataTable950 EQU 0
??DataTable951 EQU 0
??DataTable952 EQU 0
??DataTable954 EQU 0
??DataTable957 EQU 0
??DataTable958 EQU 0
??DataTable959 EQU 0
??DataTable960 EQU 0
??DataTable961 EQU 0
??DataTable962 EQU 0
??DataTable963 EQU 0
??DataTable964 EQU 0
??DataTable966 EQU 0
??DataTable968 EQU 0
??DataTable97 EQU 0
??DataTable971 EQU 0
??DataTable972 EQU 0
??DataTable973 EQU 0
??DataTable974 EQU 0
??DataTable975 EQU 0
??DataTable976 EQU 0
??DataTable977 EQU 0
??DataTable979 EQU 0
??DataTable98 EQU 0
??DataTable980 EQU 0
??DataTable982 EQU 0
??DataTable984 EQU 0
??DataTable985 EQU 0
??DataTable986 EQU 0
??DataTable99 EQU 0
??DataTable994 EQU 0
        MULTWEAK ??ElfKiller??rT
        MULTWEAK ??GetFon??rT
        MULTWEAK ??GetKatalogbackgroundcolour??rT
        MULTWEAK ??GetKatalogfontcolour??rT
        MULTWEAK ??InitConfig??rA
        MULTWEAK ??IsFile??rT
        MULTWEAK ??LoadM3uPlaylist??rT
        MULTWEAK ??LoadParams??rT
        MULTWEAK ??LoadPlaylist??rT
        MULTWEAK ??MenuKeys??rT
        MULTWEAK ??MessStop??rT
        MULTWEAK ??Message??rT
        MULTWEAK ??OnKey??rT
        MULTWEAK ??OnRedraw??rT
        MULTWEAK ??PersheShchoStuknuloVGolovu??rT
        MULTWEAK ??Play??rT
        MULTWEAK ??PlayNext??rT
        MULTWEAK ??PlayPrevious??rT
        MULTWEAK ??Play_PauseResume??rT
        MULTWEAK ??ReadLastPlaylist??rT
        MULTWEAK ??SaveOnlyPlaylistParams??rT
        MULTWEAK ??SaveParams??rT
        MULTWEAK ??SavePlaylist??rT
        MULTWEAK ??Scrolling??rT
        MULTWEAK ??ScrollingInFile??rT
        MULTWEAK ??ShowMainMenu??rA
        MULTWEAK ??ShowMess??rT
        MULTWEAK ??ShowPlayerMenu??rT
        MULTWEAK ??UpdateCSMname??rT
        MULTWEAK ??VolumeDown??rT
        MULTWEAK ??VolumeMute??rT
        MULTWEAK ??VolumeUp??rT
        MULTWEAK ??VporiadkuvatySpysok??rT
        MULTWEAK ??WhatToDo??rT
        MULTWEAK ??WriteLastPlaylist??rT
        MULTWEAK ??ZapovnytyTaVidsortuvatyKatalog??rT
        MULTWEAK ??findlisttime??rT
        MULTWEAK ??findmp3length??rT
        MULTWEAK ??findtegs??rT
        MULTWEAK ??kill_data??rA
        MULTWEAK ??main??rT
        MULTWEAK ??maincsm_onclose??rT
        MULTWEAK ??maincsm_oncreate??rT
        MULTWEAK ??maincsm_onmessage??rT
        MULTWEAK ??method??rT
        MULTWEAK ??my_keyhook??rT
        MULTWEAK ??onClose2??rT
        MULTWEAK ??onClose??rT
        MULTWEAK ??onCreate2??rT
        MULTWEAK ??onCreate??rT
        MULTWEAK ??onFocus2??rT
        MULTWEAK ??onFocus??rT
        MULTWEAK ??onUnfocus2??rT
        MULTWEAK ??onUnfocus??rT
        MULTWEAK ??patch_header2??rT
        MULTWEAK ??patch_input??rT
        MULTWEAK ??r??rT
        MULTWEAK ??rA??div32_a
        MULTWEAK ??readskinparamsfromfile??rT
        MULTWEAK ??sf_inp_ghook??rT
        MULTWEAK ??sf_inp_locret??rT
        MULTWEAK ??sf_inp_onkey??rT
        MULTWEAK ??showvolume??rT
        MULTWEAK ??skins??rT
        MULTWEAK ??strcmp_nocase??rT
        MULTWEAK ??timepp??rT
        MULTWEAK ??toupper??rT
        MULTWEAK ??whattoplaynext??rT
        MULTWEAK ??whattoplayprev??rT
        PUBWEAK ?init?tab?DATA_I
        PUBWEAK ?init?tab?DATA_Z
        PUBLIC ArrayOfSkins
        PUBLIC CLOSECURENTCSM
        FUNCTION CLOSECURENTCSM,0201H
        LOCFRAME CSTACK, 4, STACK
        PUBLIC CanPlayNext
        PUBLIC Canvas
        PUBLIC CheckDoubleRun
        FUNCTION CheckDoubleRun,0203H
        LOCFRAME CSTACK, 20, STACK
        PUBLIC CloseGUI
        FUNCTION CloseGUI,0601H
        LOCFRAME CSTACK, 4, STACK
        PUBLIC CreatePlaylist
        FUNCTION CreatePlaylist,0203H
        LOCFRAME CSTACK, 588, STACK
        PUBLIC CreateSaveAsDialog
        FUNCTION CreateSaveAsDialog,0203H
        LOCFRAME CSTACK, 64, STACK
        PUBLIC CurentVolume
        PUBLIC ElfKiller
        FUNCTION ElfKiller,0603H
        LOCFRAME CSTACK, 4, STACK
        PUBLIC GetFon
        FUNCTION GetFon,0201H
        LOCFRAME CSTACK, 8, STACK
        PUBLIC GetKatalogbackgroundcolour
        FUNCTION GetKatalogbackgroundcolour,0201H
        PUBLIC GetKatalogfontcolour
        FUNCTION GetKatalogfontcolour,0201H
        PUBLIC IsFile
        FUNCTION IsFile,0203H
        PUBLIC JaPerekliuchyvPisniu
        PUBLIC LastPlaylist
        PUBLIC LoadM3uPlaylist
        FUNCTION LoadM3uPlaylist,0203H
        LOCFRAME CSTACK, 21128, STACK
        PUBLIC LoadParams
        FUNCTION LoadParams,0201H
        LOCFRAME CSTACK, 16, STACK
        PUBLIC LoadPlaylist
        FUNCTION LoadPlaylist,0203H
        LOCFRAME CSTACK, 20596, STACK
        PUBLIC MAINCSM
        PUBLIC MAINCSM_ID
        PUBLIC MAINGUI_ID
        PUBLIC MenuKeys
        FUNCTION MenuKeys,0603H
        LOCFRAME CSTACK, 4, STACK
        PUBLIC MessStop
        FUNCTION MessStop,0601H
        LOCFRAME CSTACK, 4, STACK
        PUBLIC Message
        FUNCTION Message,0203H
        LOCFRAME CSTACK, 4, STACK
        PUBLIC MessageTimer
        PUBLIC NameOfCurentTrack
        PUBLIC NeedToStop
        PUBLIC NumberOfSkins
        PUBLIC NumberOfTracks
        PUBLIC OnKey
        FUNCTION OnKey,0603H
        LOCFRAME CSTACK, 288, STACK
        PUBLIC OnRedraw
        FUNCTION OnRedraw,0603H
        LOCFRAME CSTACK, 352, STACK
        PUBLIC PLAYERGUI_ID
        PUBLIC PLAY_ID
        PUBLIC PersheShchoStuknuloVGolovu
        FUNCTION PersheShchoStuknuloVGolovu,0601H
        LOCFRAME CSTACK, 4, STACK
        PUBLIC Play
        FUNCTION Play,0203H
        LOCFRAME CSTACK, 952, STACK
        PUBLIC PlayNext
        FUNCTION PlayNext,0601H
        LOCFRAME CSTACK, 260, STACK
        PUBLIC PlayNextTimer
        PUBLIC PlayPrevious
        FUNCTION PlayPrevious,0601H
        LOCFRAME CSTACK, 260, STACK
        PUBLIC Play_PauseResume
        FUNCTION Play_PauseResume,0201H
        LOCFRAME CSTACK, 260, STACK
        PUBLIC PlayerMenu
        PUBLIC PlaylistToSave
        PUBLIC ReadLastPlaylist
        FUNCTION ReadLastPlaylist,0201H
        LOCFRAME CSTACK, 760, STACK
        PUBLIC RedrawTimer
        PUBLIC SaveOnlyPlaylistParams
        FUNCTION SaveOnlyPlaylistParams,0203H
        LOCFRAME CSTACK, 16, STACK
        PUBLIC SaveParams
        FUNCTION SaveParams,0201H
        LOCFRAME CSTACK, 16, STACK
        PUBLIC SavePlaylist
        FUNCTION SavePlaylist,0603H
        LOCFRAME CSTACK, 36, STACK
        PUBLIC Scroll
        PUBLIC Scrolling
        FUNCTION Scrolling,0601H
        LOCFRAME CSTACK, 292, STACK
        PUBLIC ScrollingInFile
        FUNCTION ScrollingInFile,0601H
        LOCFRAME CSTACK, 292, STACK
        PUBLIC ShowMess
        FUNCTION ShowMess,0201H
        LOCFRAME CSTACK, 28, STACK
        PUBLIC ShowPlayerMenu
        FUNCTION ShowPlayerMenu,0201H
        LOCFRAME CSTACK, 8, STACK
        PUBLIC TimeTimer
        PUBLIC UpdateCSMname
        FUNCTION UpdateCSMname,0203H
        LOCFRAME CSTACK, 8, STACK
        PUBLIC VolumeDown
        FUNCTION VolumeDown,0201H
        LOCFRAME CSTACK, 4, STACK
        PUBLIC VolumeMute
        FUNCTION VolumeMute,0201H
        LOCFRAME CSTACK, 4, STACK
        PUBLIC VolumeUp
        FUNCTION VolumeUp,0201H
        LOCFRAME CSTACK, 4, STACK
        PUBLIC VporiadkuvatySpysok
        FUNCTION VporiadkuvatySpysok,0201H
        LOCFRAME CSTACK, 28, STACK
        PUBLIC WhatToDo
        FUNCTION WhatToDo,0203H
        LOCFRAME CSTACK, 284, STACK
        PUBLIC WhatToView
        PUBLIC WriteLastPlaylist
        FUNCTION WriteLastPlaylist,0201H
        LOCFRAME CSTACK, 320, STACK
        PUBLIC ZapovnytyTaVidsortuvatyKatalog
        FUNCTION ZapovnytyTaVidsortuvatyKatalog,0203H
        LOCFRAME CSTACK, 856, STACK
        PUBLIC calbum
        PUBLIC cartist
        PUBLIC color1
        PUBLIC color2
        PUBLIC cp
        PUBLIC ctrack
        PUBLIC curentfolder
        PUBLIC curskin
        PUBLIC findlisttime
        FUNCTION findlisttime,0603H
        LOCFRAME CSTACK, 276, STACK
        PUBLIC findmp3length
        FUNCTION findmp3length,0203H
        LOCFRAME CSTACK, 44, STACK
        PUBLIC findtegs
        FUNCTION findtegs,0201H
        LOCFRAME CSTACK, 188, STACK
        PUBLIC gipc
        PUBLIC gui_methods
        PUBLIC gui_methods2
        PUBLIC identyfikator
        PUBLIC ipc_my_name
        PUBLIC ipc_xtask_name
        PUBLIC katalog
        PUBLIC katalogbackgroundcolour
        PUBLIC katalogcurent
        PUBLIC katalogfontcolour
        PUBLIC kataloglength
        PUBLIC katalogselected
        PUBLIC katalogselectedcolour
        PUBLIC longpress
        PUBLIC main
        FUNCTION main,0a03H
        LOCFRAME CSTACK, 788, STACK
        PUBLIC maincsm_name_body
        PUBLIC maincsm_onclose
        FUNCTION maincsm_onclose,0603H
        LOCFRAME CSTACK, 4, STACK
        PUBLIC maincsm_oncreate
        FUNCTION maincsm_oncreate,0603H
        LOCFRAME CSTACK, 12, STACK
        PUBLIC maincsm_onmessage
        FUNCTION maincsm_onmessage,0603H
        LOCFRAME CSTACK, 728, STACK
        PUBLIC menu_sk
        PUBLIC menu_skt
        PUBLIC method
        FUNCTION method,0603H
        PUBLIC minus11
        PUBLIC my_keyhook
        FUNCTION my_keyhook,0603H
        LOCFRAME CSTACK, 12, STACK
        PUBLIC name
        PUBLIC nextx
        PUBLIC nexty
        PUBLIC notplayed
        PUBLIC onClose
        FUNCTION onClose,0603H
        PUBLIC onClose2
        FUNCTION onClose2,0603H
        PUBLIC onCreate
        FUNCTION onCreate,0603H
        PUBLIC onCreate2
        FUNCTION onCreate2,0603H
        PUBLIC onFocus
        FUNCTION onFocus,0603H
        LOCFRAME CSTACK, 4, STACK
        PUBLIC onFocus2
        FUNCTION onFocus2,0603H
        LOCFRAME CSTACK, 4, STACK
        PUBLIC onUnfocus
        FUNCTION onUnfocus,0603H
        PUBLIC onUnfocus2
        FUNCTION onUnfocus2,0603H
        PUBLIC patch_header2
        FUNCTION patch_header2,0203H
        LOCFRAME CSTACK, 8, STACK
        PUBLIC patch_input
        FUNCTION patch_input,0203H
        LOCFRAME CSTACK, 12, STACK
        PUBLIC pisniashchozberigaetsia
        PUBLIC play_stopx
        PUBLIC play_stopy
        PUBLIC playing
        PUBLIC playlistmode
        PUBLIC playlistname
        PUBLIC pracuje
        PUBLIC press
        PUBLIC prevx
        PUBLIC prevy
        PUBLIC progressbarcolour
        PUBLIC progressbarx1
        PUBLIC progressbarx2
        PUBLIC progressbary1
        PUBLIC r
        FUNCTION r,0601H
        LOCFRAME CSTACK, 4, STACK
        PUBLIC random
        PUBLIC randomx
        PUBLIC randomy
        PUBLIC readskinparamsfromfile
        FUNCTION readskinparamsfromfile,0201H
        LOCFRAME CSTACK, 20464, STACK
        PUBLIC ringoff
        PUBLIC ringoffx
        PUBLIC ringoffy
        PUBLIC selected
        PUBLIC sf_inp_desc
        PUBLIC sf_inp_ghook
        FUNCTION sf_inp_ghook,0603H
        LOCFRAME CSTACK, 52, STACK
        PUBLIC sf_inp_hdr
        PUBLIC sf_inp_locret
        FUNCTION sf_inp_locret,0603H
        PUBLIC sf_inp_onkey
        FUNCTION sf_inp_onkey,0603H
        LOCFRAME CSTACK, 48, STACK
        PUBLIC showvolume
        FUNCTION showvolume,0201H
        LOCFRAME CSTACK, 8, STACK
        PUBLIC skins
        FUNCTION skins,0201H
        LOCFRAME CSTACK, 576, STACK
        PUBLIC songfont
        PUBLIC songtextattribute
        PUBLIC songtextbackground
        PUBLIC songtextcolor
        PUBLIC songx1
        PUBLIC songx2
        PUBLIC songy1
        PUBLIC songy2
        PUBLIC spysok
        PUBLIC spysokfont
        PUBLIC spysokselected
        PUBLIC spysoktextattribute
        PUBLIC spysoktextbackground
        PUBLIC spysoktextcolor
        PUBLIC spysokx1
        PUBLIC spysokx2
        PUBLIC spysoky1
        PUBLIC spysoky2
        PUBLIC strcmp_nocase
        FUNCTION strcmp_nocase,0203H
        LOCFRAME CSTACK, 16, STACK
        PUBLIC texttoview
        PUBLIC timefont
        PUBLIC timehms
        PUBLIC timelength
        PUBLIC timemin
        PUBLIC timepp
        FUNCTION timepp,0601H
        LOCFRAME CSTACK, 20, STACK
        PUBLIC timesec
        PUBLIC timetextattribute
        PUBLIC timetextbackground
        PUBLIC timetextcolor
        PUBLIC timex1
        PUBLIC timex2
        PUBLIC timey1
        PUBLIC timey2
        PUBLIC top
        PUBLIC toupper
        FUNCTION toupper,0203H
        PUBLIC toview
        PUBLIC tracksfont
        PUBLIC trackstextattribute
        PUBLIC trackstextbackground
        PUBLIC trackstextcolor
        PUBLIC tracksx1
        PUBLIC tracksx2
        PUBLIC tracksy1
        PUBLIC tracksy2
        PUBLIC volmx
        PUBLIC volmy
        PUBLIC volpx
        PUBLIC volpy
        PUBLIC volumex
        PUBLIC volumey
        PUBLIC whattoplaynext
        FUNCTION whattoplaynext,0201H
        LOCFRAME CSTACK, 24, STACK
        PUBLIC whattoplayprev
        FUNCTION whattoplayprev,0201H
        LOCFRAME CSTACK, 4, STACK
        PUBLIC wss
        PUBLIC xdisp
        PUBLIC xdispnapriamok
        PUBLIC zir
        
        CFI Names cfiNames0
        CFI StackFrame CFA R13 HUGEDATA
        CFI Resource R0:32, R1:32, R2:32, R3:32, R4:32, R5:32, R6:32, R7:32
        CFI Resource R8:32, R9:32, R10:32, R11:32, R12:32, CPSR:32, R13:32
        CFI Resource R14:32, SPSR:32
        CFI VirtualResource ?RET:32
        CFI EndNames cfiNames0
        
        CFI Common cfiCommon0 Using cfiNames0
        CFI CodeAlign 2
        CFI DataAlign 4
        CFI ReturnAddress ?RET CODE
        CFI CFA R13+0
        CFI R0 Undefined
        CFI R1 Undefined
        CFI R2 Undefined
        CFI R3 Undefined
        CFI R4 SameValue
        CFI R5 SameValue
        CFI R6 SameValue
        CFI R7 SameValue
        CFI R8 SameValue
        CFI R9 SameValue
        CFI R10 SameValue
        CFI R11 SameValue
        CFI R12 Undefined
        CFI CPSR SameValue
        CFI R14 Undefined
        CFI SPSR SameValue
        CFI ?RET R14
        CFI EndCommon cfiCommon0
        
        
        CFI Common cfiCommon1 Using cfiNames0
        CFI CodeAlign 4
        CFI DataAlign 4
        CFI ReturnAddress ?RET CODE
        CFI CFA R13+0
        CFI R0 Undefined
        CFI R1 Undefined
        CFI R2 Undefined
        CFI R3 Undefined
        CFI R4 SameValue
        CFI R5 SameValue
        CFI R6 SameValue
        CFI R7 SameValue
        CFI R8 SameValue
        CFI R9 SameValue
        CFI R10 SameValue
        CFI R11 SameValue
        CFI R12 Undefined
        CFI CPSR SameValue
        CFI R14 Undefined
        CFI SPSR SameValue
        CFI ?RET R14
        CFI EndCommon cfiCommon1
        
Cleaner             SYMBOL "Cleaner"
CreateMenuFindPlaylist SYMBOL "CreateMenuFindPlaylist"
InitConfig          SYMBOL "InitConfig"
ShowMainMenu        SYMBOL "ShowMainMenu"
kill_data           SYMBOL "kill_data"
CLOSECURENTCSM      SYMBOL "CLOSECURENTCSM"
??CLOSECURENTCSM??rT SYMBOL "??rT", CLOSECURENTCSM
CheckDoubleRun      SYMBOL "CheckDoubleRun"
??CheckDoubleRun??rT SYMBOL "??rT", CheckDoubleRun
??Cleaner??rA       SYMBOL "??rA", Cleaner
CloseGUI            SYMBOL "CloseGUI"
??CloseGUI??rT      SYMBOL "??rT", CloseGUI
??CreateMenuFindPlaylist??rA SYMBOL "??rA", CreateMenuFindPlaylist
CreatePlaylist      SYMBOL "CreatePlaylist"
??CreatePlaylist??rT SYMBOL "??rT", CreatePlaylist
CreateSaveAsDialog  SYMBOL "CreateSaveAsDialog"
??CreateSaveAsDialog??rT SYMBOL "??rT", CreateSaveAsDialog
ElfKiller           SYMBOL "ElfKiller"
??ElfKiller??rT     SYMBOL "??rT", ElfKiller
GetFon              SYMBOL "GetFon"
??GetFon??rT        SYMBOL "??rT", GetFon
GetKatalogbackgroundcolour SYMBOL "GetKatalogbackgroundcolour"
??GetKatalogbackgroundcolour??rT SYMBOL "??rT", GetKatalogbackgroundcolour
GetKatalogfontcolour SYMBOL "GetKatalogfontcolour"
??GetKatalogfontcolour??rT SYMBOL "??rT", GetKatalogfontcolour
??InitConfig??rA    SYMBOL "??rA", InitConfig
IsFile              SYMBOL "IsFile"
??IsFile??rT        SYMBOL "??rT", IsFile
LoadM3uPlaylist     SYMBOL "LoadM3uPlaylist"
??LoadM3uPlaylist??rT SYMBOL "??rT", LoadM3uPlaylist
LoadParams          SYMBOL "LoadParams"
??LoadParams??rT    SYMBOL "??rT", LoadParams
LoadPlaylist        SYMBOL "LoadPlaylist"
??LoadPlaylist??rT  SYMBOL "??rT", LoadPlaylist
MenuKeys            SYMBOL "MenuKeys"
??MenuKeys??rT      SYMBOL "??rT", MenuKeys
MessStop            SYMBOL "MessStop"
??MessStop??rT      SYMBOL "??rT", MessStop
Message             SYMBOL "Message"
??Message??rT       SYMBOL "??rT", Message
OnKey               SYMBOL "OnKey"
??OnKey??rT         SYMBOL "??rT", OnKey
OnRedraw            SYMBOL "OnRedraw"
??OnRedraw??rT      SYMBOL "??rT", OnRedraw
PersheShchoStuknuloVGolovu SYMBOL "PersheShchoStuknuloVGolovu"
??PersheShchoStuknuloVGolovu??rT SYMBOL "??rT", PersheShchoStuknuloVGolovu
Play                SYMBOL "Play"
??Play??rT          SYMBOL "??rT", Play
PlayNext            SYMBOL "PlayNext"
??PlayNext??rT      SYMBOL "??rT", PlayNext
PlayPrevious        SYMBOL "PlayPrevious"
??PlayPrevious??rT  SYMBOL "??rT", PlayPrevious
Play_PauseResume    SYMBOL "Play_PauseResume"
??Play_PauseResume??rT SYMBOL "??rT", Play_PauseResume
ReadLastPlaylist    SYMBOL "ReadLastPlaylist"
??ReadLastPlaylist??rT SYMBOL "??rT", ReadLastPlaylist
SaveOnlyPlaylistParams SYMBOL "SaveOnlyPlaylistParams"
??SaveOnlyPlaylistParams??rT SYMBOL "??rT", SaveOnlyPlaylistParams
SaveParams          SYMBOL "SaveParams"
??SaveParams??rT    SYMBOL "??rT", SaveParams
SavePlaylist        SYMBOL "SavePlaylist"
??SavePlaylist??rT  SYMBOL "??rT", SavePlaylist
Scrolling           SYMBOL "Scrolling"
??Scrolling??rT     SYMBOL "??rT", Scrolling
ScrollingInFile     SYMBOL "ScrollingInFile"
??ScrollingInFile??rT SYMBOL "??rT", ScrollingInFile
??ShowMainMenu??rA  SYMBOL "??rA", ShowMainMenu
ShowMess            SYMBOL "ShowMess"
??ShowMess??rT      SYMBOL "??rT", ShowMess
ShowPlayerMenu      SYMBOL "ShowPlayerMenu"
??ShowPlayerMenu??rT SYMBOL "??rT", ShowPlayerMenu
UpdateCSMname       SYMBOL "UpdateCSMname"
??UpdateCSMname??rT SYMBOL "??rT", UpdateCSMname
VolumeDown          SYMBOL "VolumeDown"
??VolumeDown??rT    SYMBOL "??rT", VolumeDown
VolumeMute          SYMBOL "VolumeMute"
??VolumeMute??rT    SYMBOL "??rT", VolumeMute
VolumeUp            SYMBOL "VolumeUp"
??VolumeUp??rT      SYMBOL "??rT", VolumeUp
VporiadkuvatySpysok SYMBOL "VporiadkuvatySpysok"
??VporiadkuvatySpysok??rT SYMBOL "??rT", VporiadkuvatySpysok
WhatToDo            SYMBOL "WhatToDo"
??WhatToDo??rT      SYMBOL "??rT", WhatToDo
WriteLastPlaylist   SYMBOL "WriteLastPlaylist"
??WriteLastPlaylist??rT SYMBOL "??rT", WriteLastPlaylist
ZapovnytyTaVidsortuvatyKatalog SYMBOL "ZapovnytyTaVidsortuvatyKatalog"
??ZapovnytyTaVidsortuvatyKatalog??rT SYMBOL "??rT", ZapovnytyTaVidsortuvatyKatalog
findlisttime        SYMBOL "findlisttime"
??findlisttime??rT  SYMBOL "??rT", findlisttime
findmp3length       SYMBOL "findmp3length"
??findmp3length??rT SYMBOL "??rT", findmp3length
findtegs            SYMBOL "findtegs"
??findtegs??rT      SYMBOL "??rT", findtegs
??kill_data??rA     SYMBOL "??rA", kill_data
main                SYMBOL "main"
??main??rT          SYMBOL "??rT", main
maincsm_onclose     SYMBOL "maincsm_onclose"
??maincsm_onclose??rT SYMBOL "??rT", maincsm_onclose
maincsm_oncreate    SYMBOL "maincsm_oncreate"
??maincsm_oncreate??rT SYMBOL "??rT", maincsm_oncreate
maincsm_onmessage   SYMBOL "maincsm_onmessage"
??maincsm_onmessage??rT SYMBOL "??rT", maincsm_onmessage
method              SYMBOL "method"
??method??rT        SYMBOL "??rT", method
my_keyhook          SYMBOL "my_keyhook"
??my_keyhook??rT    SYMBOL "??rT", my_keyhook
onClose2            SYMBOL "onClose2"
??onClose2??rT      SYMBOL "??rT", onClose2
onClose             SYMBOL "onClose"
??onClose??rT       SYMBOL "??rT", onClose
onCreate2           SYMBOL "onCreate2"
??onCreate2??rT     SYMBOL "??rT", onCreate2
onCreate            SYMBOL "onCreate"
??onCreate??rT      SYMBOL "??rT", onCreate
onFocus2            SYMBOL "onFocus2"
??onFocus2??rT      SYMBOL "??rT", onFocus2
onFocus             SYMBOL "onFocus"
??onFocus??rT       SYMBOL "??rT", onFocus
onUnfocus2          SYMBOL "onUnfocus2"
??onUnfocus2??rT    SYMBOL "??rT", onUnfocus2
onUnfocus           SYMBOL "onUnfocus"
??onUnfocus??rT     SYMBOL "??rT", onUnfocus
patch_header2       SYMBOL "patch_header2"
??patch_header2??rT SYMBOL "??rT", patch_header2
patch_input         SYMBOL "patch_input"
??patch_input??rT   SYMBOL "??rT", patch_input
r                   SYMBOL "r"
??r??rT             SYMBOL "??rT", r
readskinparamsfromfile SYMBOL "readskinparamsfromfile"
??readskinparamsfromfile??rT SYMBOL "??rT", readskinparamsfromfile
sf_inp_ghook        SYMBOL "sf_inp_ghook"
??sf_inp_ghook??rT  SYMBOL "??rT", sf_inp_ghook
sf_inp_locret       SYMBOL "sf_inp_locret"
??sf_inp_locret??rT SYMBOL "??rT", sf_inp_locret
sf_inp_onkey        SYMBOL "sf_inp_onkey"
??sf_inp_onkey??rT  SYMBOL "??rT", sf_inp_onkey
showvolume          SYMBOL "showvolume"
??showvolume??rT    SYMBOL "??rT", showvolume
skins               SYMBOL "skins"
??skins??rT         SYMBOL "??rT", skins
strcmp_nocase       SYMBOL "strcmp_nocase"
??strcmp_nocase??rT SYMBOL "??rT", strcmp_nocase
timepp              SYMBOL "timepp"
??timepp??rT        SYMBOL "??rT", timepp
toupper             SYMBOL "toupper"
??toupper??rT       SYMBOL "??rT", toupper
whattoplaynext      SYMBOL "whattoplaynext"
??whattoplaynext??rT SYMBOL "??rT", whattoplaynext
whattoplayprev      SYMBOL "whattoplayprev"
??whattoplayprev??rT SYMBOL "??rT", whattoplayprev

        EXTERN Cleaner
        FUNCTION Cleaner,0200H
        EXTERN CreateMenuFindPlaylist
        FUNCTION CreateMenuFindPlaylist,0200H
        EXTERN ELF_BEGIN
        EXTERN EnableHook
        EXTERN EnableIconOnIdle
        EXTERN IDLEICON_X
        EXTERN IDLEICON_Y
        EXTERN InitConfig
        FUNCTION InitConfig,0200H
        EXTERN JaLiuBLiuPYVo
        FUNCTION JaLiuBLiuPYVo,0600H
        EXTERN Key0
        EXTERN Key1
        EXTERN Key2
        EXTERN Key3
        EXTERN Key4
        EXTERN Key5
        EXTERN Key6
        EXTERN Key7
        EXTERN Key8
        EXTERN Key9
        EXTERN KeyR
        EXTERN KeyZ
        EXTERN RedrawTime
        EXTERN ShowMainMenu
        FUNCTION ShowMainMenu,0200H
        EXTERN entime
        EXTERN format_1
        EXTERN format_2
        EXTERN format_3
        EXTERN format_4
        EXTERN kill_data
        FUNCTION kill_data,0602H
        EXTERN playerfolder
        EXTERN profile1
        EXTERN profile2
        EXTERN profile3
        EXTERN profile4
        EXTERN profile5
        EXTERN profile6
        EXTERN profile7
        EXTERN profile8
        EXTERN successed_config_filename


        RSEG DATA_C:CONST:SORT:NOROOT(2)
`?<Constant "\\\\next.png">`:
        DATA
        DC8 "\\next.png"
        DC8 0, 0

        RSEG DATA_C:CONST:SORT:NOROOT(2)
`?<Constant "\\\\prev.png">`:
        DATA
        DC8 "\\prev.png"
        DC8 0, 0

        RSEG DATA_C:CONST:SORT:NOROOT(2)
`?<Constant "%i:%i%i">`:
        DATA
        DC8 "%i:%i%i"

        RSEG DATA_C:CONST:SORT:NOROOT(2)
`?<Constant "%i:%i%i/%i:%i%i">`:
        DATA
        DC8 "%i:%i%i/%i:%i%i"

        RSEG DATA_C:CONST:SORT:NOROOT(2)
`?<Constant "\\\\progressbar.png">`:
        DATA
        DC8 "\\progressbar.png"
        DC8 0, 0, 0

        RSEG DATA_C:CONST:SORT:NOROOT(2)
`?<Constant "\\\\minus.png">`:
        DATA
        DC8 "\\minus.png"
        DC8 0

        RSEG DATA_C:CONST:SORT:NOROOT(2)
`?<Constant "\\\\plus.png">`:
        DATA
        DC8 "\\plus.png"
        DC8 0, 0

        RSEG DATA_C:CONST:SORT:NOROOT(2)
`?<Constant "\\\\off.png">`:
        DATA
        DC8 "\\off.png"
        DC8 0, 0, 0

        RSEG DATA_C:CONST:SORT:NOROOT(2)
`?<Constant "\\\\random.png">`:
        DATA
        DC8 "\\random.png"

        RSEG DATA_C:CONST:SORT:NOROOT(2)
`?<Constant "\\\\play.png">`:
        DATA
        DC8 "\\play.png"
        DC8 0, 0

        RSEG DATA_C:CONST:SORT:NOROOT(2)
`?<Constant "\\\\stop.png">`:
        DATA
        DC8 "\\stop.png"
        DC8 0, 0

        RSEG DATA_C:CONST:SORT:NOROOT(2)
`?<Constant "%i%c%i">`:
        DATA
        DC8 "%i%c%i"
        DC8 0

        RSEG DATA_C:CONST:SORT:NOROOT(2)
`?<Constant "%splaylists\\\\%s.ipl">`:
        DATA
        DC8 "%splaylists\\%s.ipl"
        DC8 0

        RSEG DATA_C:CONST:SORT:NOROOT(2)
`?<Constant "%s\\r%s\\r%s">`:
        DATA
        DC8 "%s\015%s\015%s"
        DC8 0, 0, 0

        RSEG DATA_C:CONST:SORT:NOROOT(2)
`?<Constant "%sskins\\\\%s\\\\VOL%i.png">`:
        DATA
        DC8 "%sskins\\%s\\VOL%i.png"
        DC8 0, 0, 0

        RSEG DATA_C:CONST:SORT:NOROOT(2)
`?<Constant "\\\\background.png">`:
        DATA
        DC8 "\\background.png"

        RSEG DATA_C:CONST:SORT:NOROOT(2)
`?<Constant "\\\\fon.png">`:
        DATA
        DC8 "\\fon.png"
        DC8 0, 0, 0

        RSEG DATA_C:CONST:SORT:NOROOT(2)
`?<Constant "%sskins\\\\%s%s">`:
        DATA
        DC8 "%sskins\\%s%s"
        DC8 0, 0, 0

        RSEG DATA_C:CONST:SORT:NOROOT(0)
        DATA
        DC8 "%t"

        RSEG DATA_C:CONST:SORT:NOROOT(2)
`?<Constant "%c%c%c">`:
        DATA
        DC8 "%c%c%c"
        DC8 0

        RSEG DATA_C:CONST:SORT:NOROOT(2)
`?<Constant "%s\\\\*">`:
        DATA
        DC8 "%s\\*"
        DC8 0, 0, 0

        RSEG DATA_C:CONST:SORT:NOROOT(0)
        DATA
        DC8 ".."

        RSEG DATA_C:CONST:SORT:NOROOT(2)
`?<Constant "\\307\\341\\345\\360\\345\\343\\362\\350">`:
        DATA
        DC8 "\307\341\345\360\345\343\362\350"
        DC8 0, 0, 0

        RSEG DATA_C:CONST:SORT:NOROOT(2)
`?<Constant "%s%c">`:
        DATA
        DC8 "%s%c"
        DC8 0, 0, 0

        RSEG DATA_C:CONST:SORT:NOROOT(2)
`?<Constant "%sskins\\\\%s\\\\params.txt">`:
        DATA
        DC8 "%sskins\\%s\\params.txt"
        DC8 0, 0

        RSEG DATA_C:CONST:SORT:NOROOT(2)
`?<Constant "Full name">`:
        DATA
        DC8 "Full name"
        DC8 0, 0

        RSEG DATA_C:CONST:SORT:NOROOT(2)
`?<Constant "\\302\\342\\345\\344i\\362\\374 i\\354\\'\\`:
        DATA
        DC8 "\302\342\345\344i\362\374 i\354'\377:"
        DC8 0, 0

        RSEG DATA_C:CONST:SORT:NOROOT(2)
`?<Constant "Back">`:
        DATA
        DC8 "Back"
        DC8 0, 0, 0

        RSEG DATA_C:CONST:SORT:NOROOT(2)
`?<Constant "Select">`:
        DATA
        DC8 "Select"
        DC8 0

        RSEG DATA_C:CONST:SORT:NOROOT(2)
`?<Constant "media">`:
        DATA
        DC8 "media"
        DC8 0, 0

        RSEG DATA_C:CONST:SORT:NOROOT(2)
        DATA
        DC8 "ipl"

        RSEG DATA_C:CONST:SORT:NOROOT(2)
        DATA
        DC8 "imy"

        RSEG DATA_C:CONST:SORT:NOROOT(2)
        DATA
        DC8 "new"

        RSEG DATA_C:CONST:SORT:NOROOT(2)
`?<Constant "\\321\\362\\342\\356\\360i\\362\\374 \\361`:
        DATA
        DC8 "\321\362\342\356\360i\362\374 \361\357\350\361\356\352, \342\350\352\356\360\350\361\362\356\342\363\376\367\350 \364\340\351\353\356\342\363 \361\350\361\362\345\354\363"

        RSEG DATA_C:CONST:SORT:NOROOT(2)
`?<Constant "Not found!    ">`:
        DATA
        DC8 "Not found!    "
        DC8 0

        RSEG DATA_C:CONST:SORT:NOROOT(2)
`?<Constant "%sskins\\\\">`:
        DATA
        DC8 "%sskins\\"
        DC8 0, 0, 0

        RSEG DATA_C:CONST:SORT:NOROOT(2)
`?<Constant "%t - %t - %t">`:
        DATA
        DC8 "%t - %t - %t"
        DC8 0, 0, 0

        RSEG DATA_C:CONST:SORT:NOROOT(2)
`?<Constant "\\312\\356\\355\\364i\\343\\363\\360\\340\\`:
        DATA
        DC8 "\312\356\355\364i\343\363\360\340\366i\376 \356\355\356\342\353\345\355\356!"
        DC8 0

        RSEG DATA_C:CONST:SORT:NOROOT(2)
`?<Constant "File not found!">`:
        DATA
        DC8 "File not found!"

        RSEG DATA_C:CONST:SORT:NOROOT(2)
`?<Constant "Not found!">`:
        DATA
        DC8 "Not found!"
        DC8 0

        RSEG DATA_C:CONST:SORT:NOROOT(2)
`?<Constant "Mixed">`:
        DATA
        DC8 "Mixed"
        DC8 0, 0

        RSEG DATA_C:CONST:SORT:NOROOT(2)
`?<Constant "pLay">`:
        DATA
        DC8 "pLay"
        DC8 0, 0, 0

        RSEG DATA_C:CONST:SORT:NOROOT(2)
`?<Constant "control_panel">`:
        DATA
        DC8 "control_panel"
        DC8 0, 0

        RSEG DATA_C:CONST:SORT:NOROOT(2)
`?<Constant "control_panel|remove_...">`:
        DATA
        DC8 "control_panel|remove_point|"

        RSEG DATA_C:CONST:SORT:NOROOT(2)
`?<Constant "Ivoplay">`:
        DATA
        DC8 "Ivoplay"

        RSEG DATA_C:CONST:SORT:NOROOT(2)
`?<Constant "%s\\\\%s">`:
        DATA
        DC8 "%s\\%s"
        DC8 0, 0

        RSEG DATA_C:CONST:SORT:NOROOT(2)
`?<Constant "\\324\\340\\351\\353\\350 \\344\\356\\344\\`:
        DATA
        DC8 "\324\340\351\353\350 \344\356\344\340\355\356 \344\356 \361\357\350\361\352\363!"

        RSEG DATA_C:CONST:SORT:NOROOT(2)
        DATA
        DC8 "%s\\"

        RSEG DATA_C:CONST:SORT:NOROOT(2)
`?<Constant "\\315\\345\\354\\356\\346\\353\\350\\342\\3`:
        DATA
        DC8 "\315\345\354\356\346\353\350\342\356 \342\350\344\340\353\350\362\350 \356\361\362\340\355\355i\351 \364\340\351\353!"
        DC8 0, 0

        RSEG DATA_C:CONST:SORT:NOROOT(2)
`?<Constant "\\312\\345\\360\\363\\342\\340\\355\\355\\3`:
        DATA
        DC8 0CAH, 0E5H, 0F0H, 0F3H, 0E2H, 0E0H, 0EDH, 0EDH
        DC8 0FFH, 3AH, 0DH, 2AH, 2DH, 0E7H, 0E1H, 0E5H
        DC8 0F0H, 0E5H, 0E3H, 0F2H, 0E8H, 0DH, 35H, 2DH
        DC8 0E2H, 0E8H, 0E4H, 0B3H, 0EBH, 0E8H, 0F2H, 0E8H
        DC8 0DH, 32H, 2CH, 38H, 2DH, 0EFH, 0E5H, 0F0H
        DC8 0E5H, 0ECH, 0B3H, 0F1H, 0F2H, 0E8H, 0F2H, 0E8H
        DC8 0DH, 23H, 2DH, 0E3H, 0F0H, 0E0H, 0F2H, 0E8H
        DC8 0
        DC8 0, 0, 0

        RSEG DATA_C:CONST:SORT:NOROOT(2)
`?<Constant "%t\\r%t\\r%t">`:
        DATA
        DC8 "%t\015%t\015%t"
        DC8 0, 0, 0

        RSEG DATA_C:CONST:SORT:NOROOT(2)
`?<Constant "%splaylists\\\\standart.ipl">`:
        DATA
        DC8 "%splaylists\\standart.ipl"
        DC8 0, 0, 0

        RSEG DATA_C:CONST:SORT:NOROOT(2)
`?<Constant "*.%s">`:
        DATA
        DC8 "*.%s"
        DC8 0, 0, 0

        RSEG DATA_C:CONST:SORT:NOROOT(2)
`?<Constant "Full time">`:
        DATA
        DC8 "Full time"
        DC8 0, 0

        RSEG DATA_C:CONST:SORT:NOROOT(2)
`?<Constant "%s:\\r%s%s\\r%s: %i:%i%i">`:
        DATA
        DC8 "%s:\015%s%s\015%s: %i:%i%i"
        DC8 0, 0, 0

        RSEG DATA_C:CONST:SORT:NOROOT(2)
`?<Constant "ffff">`:
        DATA
        DC8 "ffff"
        DC8 0, 0, 0

        RSEG DATA_C:CONST:SORT:NOROOT(2)
`?<Constant "4:\\\\Zbin\\\\etc\\\\ivoplay.bcfg">`:
        DATA
        DC8 "4:\\Zbin\\etc\\ivoplay.bcfg"
        DC8 0, 0, 0

        RSEG DATA_C:CONST:SORT:NOROOT(0)
        DATA
        DC8 ""

        RSEG DATA_C:CONST:SORT:NOROOT(2)
`?<Constant "0:\\\\Zbin\\\\etc\\\\ivoplay.bcfg">`:
        DATA
        DC8 "0:\\Zbin\\etc\\ivoplay.bcfg"
        DC8 0, 0, 0

        RSEG DATA_C:CONST:SORT:NOROOT(2)
`?<Constant "%slastplaylist.cfg">`:
        DATA
        DC8 "%slastplaylist.cfg"
        DC8 0

        RSEG DATA_C:CONST:SORT:NOROOT(2)
`?<Constant "%c%c%c%s">`:
        DATA
        DC8 "%c%c%c%s"
        DC8 0, 0, 0

        RSEG DATA_C:CONST:SORT:NOROOT(2)
`?<Constant "%sparams.txt">`:
        DATA
        DC8 "%sparams.txt"
        DC8 0, 0, 0

        RSEG DATA_C:CONST:SORT:NOROOT(2)
        DATA
        DC8 ""
        DC8 0, 0, 0, 0, 0, 0, 0, 0, 0, 0, 0, 0, 0, 0, 0, 0
        DC8 0, 0, 0, 0, 0, 0, 0, 0, 0, 0, 0, 0, 0, 0, 0, 0
        DC8 0, 0, 0, 0, 0, 0, 0, 0, 0, 0, 0, 0, 0, 0, 0, 0
        DC8 0, 0, 0, 0, 0, 0, 0, 0, 0, 0, 0, 0, 0, 0, 0, 0
        DC8 0, 0, 0, 0, 0, 0, 0, 0, 0, 0, 0, 0, 0, 0, 0, 0
        DC8 0, 0, 0, 0, 0, 0, 0, 0, 0, 0, 0, 0, 0, 0, 0, 0
        DC8 0, 0, 0, 0, 0, 0, 0, 0, 0, 0, 0, 0, 0, 0, 0, 0
        DC8 0, 0, 0, 0, 0, 0, 0, 0, 0, 0, 0, 0, 0, 0, 0, 0
        DC8 0, 0, 0, 0, 0, 0, 0, 0, 0, 0, 0, 0, 0, 0, 0, 0
        DC8 0, 0, 0, 0, 0, 0, 0, 0, 0, 0, 0, 0, 0, 0, 0, 0
        DC8 0, 0, 0, 0, 0, 0, 0, 0, 0, 0, 0, 0, 0, 0, 0, 0
        DC8 0, 0, 0, 0, 0, 0, 0, 0, 0, 0, 0, 0, 0, 0, 0, 0
        DC8 0, 0, 0, 0, 0, 0, 0, 0, 0, 0, 0, 0, 0, 0, 0, 0
        DC8 0, 0, 0, 0, 0, 0, 0, 0, 0, 0, 0, 0, 0, 0, 0, 0
        DC8 0, 0, 0, 0, 0, 0, 0, 0, 0, 0, 0, 0, 0, 0, 0, 0
        DC8 0, 0, 0, 0, 0, 0, 0, 0, 0, 0, 0, 0, 0, 0, 0, 0
        DC8 0, 0, 0, 0, 0, 0, 0, 0, 0, 0, 0, 0, 0, 0, 0, 0
        DC8 0, 0, 0, 0, 0, 0, 0, 0, 0, 0, 0, 0, 0, 0, 0, 0
        DC8 0, 0, 0, 0, 0, 0, 0, 0, 0, 0, 0, 0, 0, 0, 0, 0
        DC8 0, 0, 0, 0, 0, 0, 0, 0, 0, 0, 0, 0, 0, 0, 0, 0
        DC8 0, 0, 0, 0, 0, 0, 0, 0, 0, 0, 0, 0, 0, 0, 0, 0
        DC8 0, 0, 0, 0, 0, 0, 0, 0, 0, 0, 0, 0, 0, 0, 0, 0
        DC8 0, 0, 0, 0, 0, 0, 0, 0, 0, 0, 0, 0, 0, 0, 0, 0
        DC8 0, 0, 0, 0, 0, 0, 0, 0, 0, 0, 0, 0, 0, 0, 0, 0
        DC8 0, 0, 0, 0, 0, 0, 0, 0, 0, 0, 0, 0, 0, 0, 0

        RSEG DATA_C:CONST:SORT:NOROOT(2)
`?<Constant "%s - %s - %s">`:
        DATA
        DC8 "%s - %s - %s"
        DC8 0, 0, 0

        RSEG DATA_C:CONST:SORT:NOROOT(2)
`?<Constant "%s%s">`:
        DATA
        DC8 "%s%s"
        DC8 0, 0, 0

        RSEG DATA_C:CONST:SORT:NOROOT(2)
`?<Constant "\\321\\357\\350\\361\\356\\352 \\355\\345 `:
        DATA
        DC8 "\321\357\350\361\356\352 \355\345 \347\341\345\360\345\346\345\355\356! \304\356\361\362\363\357 \344\356 \364\340\351\353\363 \347\340\341\356\360\356\355\345\355\356."
        DC8 0, 0, 0

        RSEG DATA_C:CONST:SORT:NOROOT(2)
`?<Constant "\\321\\357\\350\\361\\356\\352 \\347\\341\\`:
        DATA
        DC8 "\321\357\350\361\356\352 \347\341\345\360\345\346\345\355\356!"
        DC8 0, 0

        RSEG DATA_C:CONST:SORT:NOROOT(2)
`?<Constant "%c%c%c%c%c">`:
        DATA
        DC8 "%c%c%c%c%c"
        DC8 0

        RSEG DATA_C:CONST:SORT:NOROOT(2)
`?<Constant "%c%c">`:
        DATA
        DC8 "%c%c"
        DC8 0, 0, 0

        RSEG DATA_C:CONST:SORT:NOROOT(0)
`?<Constant "*">`:
        DATA
        DC8 2AH

        RSEG DATA_C:CONST:SORT:NOROOT(0)
        DATA
        DC8 "OK"

        RSEG DATA_C:CONST:SORT:NOROOT(2)
`?<Constant "\\302\\350\\341i\\360">`:
        DATA
        DC8 "\302\350\341i\360"
        DC8 0, 0

        RSEG DATA_C:CONST:SORT:NOROOT(2)
`?<Constant "\\304\\356\\344\\340\\362\\350">`:
        DATA
        DC8 "\304\356\344\340\362\350"
        DC8 0

        RSEG DATA_C:CONST:SORT:NOROOT(2)
`?<Constant "\\302\\350\\344\\340\\353\\350\\362\\350">`:
        DATA
        DC8 "\302\350\344\340\353\350\362\350"
        DC8 0, 0, 0

        RSEG DATA_C:CONST:SORT:NOROOT(2)
        DATA
        DC8 "..."
// E:\Ivo\arm\IVOPLAY\MAIN.c
//    1 //  -    ,     .    
//    2 #include "mainmenu.h"
//    3 #include "..\inc\swilib.h"
//    4 #include "..\inc\xtask_ipc.h"
//    5 #include "conf_loader.h"
//    6 #include "language.h"
//    7 #include "main.h"

        RSEG DATA_C:CONST:SORT:NOROOT(0)
// static char const __data pt[3]
pt:
        DATA
        DC8 "%t"

        RSEG DATA_C:CONST:SORT:NOROOT(0)
// static char const __data pp[1]
pp:
        DATA
        DC8 ""

        RSEG DATA_C:CONST:SORT:NOROOT(0)
// static char const __data p_i[3]
p_i:
        DATA
        DC8 "%i"

        RSEG DATA_C:CONST:SORT:NOROOT(2)
// static char const __data pp_s[4]
pp_s:
        DATA
        DC8 " %s"
//    8 #include "playlists.h"
//    9 
//   10 //#include "..\inc\MATH.h"
//   11 //#define PI 3.1415926535
//   12 extern const unsigned int IDLEICON_X,IDLEICON_Y,EnableIconOnIdle;
//   13 #ifdef X75
//   14 #define MAXVOLUME 14
//   15 #else
//   16 #define MAXVOLUME 4
//   17 #endif

        RSEG DATA_Z:DATA:SORT:NOROOT(2)
//   18 int pisniashchozberigaetsia=0,identyfikator;
pisniashchozberigaetsia:
        DS8 4

        RSEG DATA_Z:DATA:SORT:NOROOT(2)
identyfikator:
        DS8 4

        RSEG DATA_C:CONST:SORT:NOROOT(2)
//   19 const char ipc_my_name[32]="Ivoplay";
ipc_my_name:
        DATA
        DC8 "Ivoplay"
        DC8 0, 0, 0, 0, 0, 0, 0, 0, 0, 0, 0, 0, 0, 0, 0, 0
        DC8 0, 0, 0, 0, 0, 0, 0, 0

        RSEG DATA_Z:DATA:SORT:NOROOT(2)
//   20 GBSTMR RedrawTimer,TimeTimer,PlayerMenu,PlayNextTimer,Scroll;
RedrawTimer:
        DS8 16

        RSEG DATA_Z:DATA:SORT:NOROOT(2)
TimeTimer:
        DS8 16

        RSEG DATA_Z:DATA:SORT:NOROOT(2)
PlayerMenu:
        DS8 16

        RSEG DATA_Z:DATA:SORT:NOROOT(2)
PlayNextTimer:
        DS8 16

        RSEG DATA_Z:DATA:SORT:NOROOT(2)
Scroll:
        DS8 16

        RSEG DATA_I:DATA:SORT:NOROOT(2)
//   21 int CanPlayNext=1;
CanPlayNext:
        DS8 4
        REQUIRE `?<Initializer for CanPlayNext>`

        RSEG DATA_C:CONST:SORT:NOROOT(2)
//   22 const char ipc_xtask_name[]=IPC_XTASK_NAME;
ipc_xtask_name:
        DATA
        DC8 "XTask"
        DC8 0, 0

        RSEG DATA_Z:DATA:SORT:NOROOT(2)
//   23 IPC_REQ gipc;
gipc:
        DS8 12

        RSEG DATA_Z:DATA:SORT:NOROOT(2)
//   24 int top,selected;
top:
        DS8 4

        RSEG DATA_Z:DATA:SORT:NOROOT(2)
selected:
        DS8 4

        RSEG DATA_Z:DATA:SORT:NOROOT(2)
//   25 char spysok[2][255][128];//   - 255 (1   )
spysok:
        DS8 65280

        RSEG DATA_Z:DATA:SORT:NOROOT(2)
//   26 int spysokselected[255];
spysokselected:
        DS8 1020

        RSEG DATA_Z:DATA:SORT:NOROOT(2)
//   27 long timelength[255];
timelength:
        DS8 1020

        RSEG DATA_Z:DATA:SORT:NOROOT(2)
//   28 int curskin=0;//  
curskin:
        DS8 4

        RSEG DATA_Z:DATA:SORT:NOROOT(2)
//   29 char ArrayOfSkins[100][20];// 100 
ArrayOfSkins:
        DS8 2000

        RSEG DATA_Z:DATA:SORT:NOROOT(2)
//   30 int playlistmode=0;//0-   , 1-   ipl, 2 -  m3u, 3 -  , 4 -  
playlistmode:
        DS8 4

        RSEG DATA_Z:DATA:SORT:NOROOT(2)
//   31 char LastPlaylist[256],playlistname[255];
LastPlaylist:
        DS8 256

        RSEG DATA_Z:DATA:SORT:NOROOT(2)
playlistname:
        DS8 256

        RSEG DATA_Z:DATA:SORT:NOROOT(2)
//   32 int notplayed[255];//. ,   ,    (  )
notplayed:
        DS8 1020

        RSEG DATA_I:DATA:SORT:NOROOT(2)
//   33 char calbum[128]=" ",ctrack[128]=" ",cartist[128]=" "; //
calbum:
        DS8 128
        REQUIRE `?<Initializer for calbum>`

        RSEG DATA_I:DATA:SORT:NOROOT(2)
ctrack:
        DS8 128
        REQUIRE `?<Initializer for ctrack>`

        RSEG DATA_I:DATA:SORT:NOROOT(2)
cartist:
        DS8 128
        REQUIRE `?<Initializer for cartist>`

        RSEG DATA_Z:DATA:SORT:NOROOT(2)
//   34 char NameOfCurentTrack[128]="";
NameOfCurentTrack:
        DS8 128

        RSEG DATA_Z:DATA:SORT:NOROOT(2)
//   35 int random=0,NumberOfSkins=0;
random:
        DS8 4

        RSEG DATA_Z:DATA:SORT:NOROOT(2)
NumberOfSkins:
        DS8 4

        RSEG DATA_Z:DATA:SORT:NOROOT(2)
//   36 int timehms[3];//Time:hour,minute,second
timehms:
        DS8 12

        RSEG DATA_Z:DATA:SORT:NOROOT(2)
//   37 int timesec=0,timemin=0,JaPerekliuchyvPisniu=0,NeedToStop=0,WhatToView=0;
timesec:
        DS8 4

        RSEG DATA_Z:DATA:SORT:NOROOT(2)
timemin:
        DS8 4

        RSEG DATA_Z:DATA:SORT:NOROOT(2)
JaPerekliuchyvPisniu:
        DS8 4

        RSEG DATA_Z:DATA:SORT:NOROOT(2)
NeedToStop:
        DS8 4

        RSEG DATA_Z:DATA:SORT:NOROOT(2)
WhatToView:
        DS8 4

        RSEG DATA_Z:DATA:SORT:NOROOT(2)
//   38 int cp=0,NumberOfTracks=0,CurentVolume=4,playing=0,ringoff=0,pracuje=0;
cp:
        DS8 4

        RSEG DATA_Z:DATA:SORT:NOROOT(2)
NumberOfTracks:
        DS8 4

        RSEG DATA_I:DATA:SORT:NOROOT(2)
CurentVolume:
        DS8 4
        REQUIRE `?<Initializer for CurentVolume>`

        RSEG DATA_Z:DATA:SORT:NOROOT(2)
playing:
        DS8 4

        RSEG DATA_Z:DATA:SORT:NOROOT(2)
ringoff:
        DS8 4

        RSEG DATA_Z:DATA:SORT:NOROOT(2)
pracuje:
        DS8 4

        RSEG DATA_I:DATA:SORT:NOROOT(2)
//   39 int PLAY_ID=0xFFFF;
PLAY_ID:
        DS8 4
        REQUIRE `?<Initializer for PLAY_ID>`
//   40 extern const char playerfolder[128],folder[128];
//   41 extern const char format_1[4],format_2[4],format_3[4],format_4[4];
//   42 extern const int Key1,Key2,Key3,Key4,Key5,Key6,Key7,Key8,Key9,Key0,KeyZ,KeyR;// .      ,   
//   43 extern const unsigned int RedrawTime;// 
//   44 extern const int entime;//  ?
//   45 extern const unsigned int profile1,profile2,profile3,profile4,profile5,profile6,profile7,profile8;

        RSEG DATA_C:CONST:SORT:NOROOT(2)
//   46 const int minus11=-11;
minus11:
        DATA
        DC32 -11

        RSEG DATA_Z:DATA:SORT:NOROOT(2)
//   47 unsigned short maincsm_name_body[140];
maincsm_name_body:
        DS8 280

        RSEG DATA_Z:DATA:SORT:NOROOT(2)
//   48 unsigned int MAINCSM_ID = 0;
MAINCSM_ID:
        DS8 4

        RSEG DATA_Z:DATA:SORT:NOROOT(2)
//   49 unsigned int MAINGUI_ID = 0;
MAINGUI_ID:
        DS8 4
//   50 extern const int EnableHook;

        RSEG DATA_I:DATA:SORT:NOROOT(2)
//   51 int xdisp=1;
xdisp:
        DS8 4
        REQUIRE `?<Initializer for xdisp>`

        RSEG DATA_Z:DATA:SORT:NOROOT(2)
//   52 char PlaylistToSave[255];
PlaylistToSave:
        DS8 256

        RSEG CODE:CODE:NOROOT(2)
        CFI Block cfiBlock0 Using cfiCommon0
        CFI NoFunction
        THUMB
??toupper??rT:
        BX       PC
        Nop      
        CFI EndBlock cfiBlock0
        REQUIRE toupper
//   53 

        RSEG CODE:CODE:NOROOT(2)
        CFI Block cfiBlock1 Using cfiCommon1
        CFI Function toupper
        ARM
//   54 int toupper(int c)
//   55 {
//   56   if ((c>='a')&&(c<='z')) c+='A'-'a';
toupper:
        CMP      R0,#+97
        BXLT     LR
        CMP      R0,#+123
        SUBLT    R0,R0,#+32
//   57   return(c);
        BX       LR               ;; return
        CFI EndBlock cfiBlock1
//   58 }

        RSEG CODE:CODE:NOROOT(2)
        CFI Block cfiBlock2 Using cfiCommon0
        CFI NoFunction
        THUMB
??strcmp_nocase??rT:
        BX       PC
        Nop      
        CFI EndBlock cfiBlock2
        REQUIRE strcmp_nocase
//   59 

        RSEG CODE:CODE:NOROOT(2)
        CFI Block cfiBlock3 Using cfiCommon1
        CFI Function strcmp_nocase
        ARM
//   60 int strcmp_nocase(const char *s1,const char *s2)
//   61 {
strcmp_nocase:
        PUSH     {R4-R6,LR}
        CFI ?RET Frame(CFA, -4)
        CFI R6 Frame(CFA, -8)
        CFI R5 Frame(CFA, -12)
        CFI R4 Frame(CFA, -16)
        CFI CFA R13+16
        MOV      R4,R0
        MOV      R5,R1
//   62   int i;
//   63   int c;
//   64   while(!(i=(c=toupper(*s1++))-toupper(*s2++))) if (!c) break;
??strcmp_nocase_0:
        LDRB     R0,[R4], #+1
        BL       toupper
        MOV      R6,R0
        LDRB     R0,[R5], #+1
        BL       toupper
        SUBS     R0,R6,R0
        POPNE    {R4-R6,PC}
        CMP      R6,#+0
        BNE      ??strcmp_nocase_0
//   65   return(i);
        POP      {R4-R6,PC}       ;; return
        CFI EndBlock cfiBlock3
//   66 }

        RSEG CODE:CODE:NOROOT(2)
        CFI Block cfiBlock4 Using cfiCommon0
        CFI NoFunction
        THUMB
??CLOSECURENTCSM??rT:
        BX       PC
        Nop      
        CFI EndBlock cfiBlock4
        REQUIRE CLOSECURENTCSM
//   67 
//   68 typedef struct
//   69 {
//   70   WSHDR *ws1;
//   71   WSHDR *ws2;
//   72 }rr;

        RSEG DATA_Z:DATA:SORT:NOROOT(2)
//   73 rr wss;
wss:
        DS8 8
//   74 

        RSEG CODE:CODE:NOROOT(2)
        CFI Block cfiBlock5 Using cfiCommon1
        CFI Function CLOSECURENTCSM
        ARM
//   75 void CLOSECURENTCSM()
//   76 {
CLOSECURENTCSM:
        PUSH     {LR}
        CFI ?RET Frame(CFA, -4)
        CFI CFA R13+4
//   77   CloseCSM(MAINCSM_ID);
        LDR      R0,??DataTable0  ;; MAINCSM_ID
        LDR      R0,[R0, #+0]
        SWI      +508
//   78 }
        POP      {PC}             ;; return
        CFI EndBlock cfiBlock5

        RSEG CODE:CODE:NOROOT(2)
        DATA
??DataTable0:
        DC32     MAINCSM_ID

        RSEG CODE:CODE:NOROOT(2)
        CFI Block cfiBlock6 Using cfiCommon0
        CFI NoFunction
        THUMB
??readskinparamsfromfile??rT:
        BX       PC
        Nop      
        CFI EndBlock cfiBlock6
        REQUIRE readskinparamsfromfile
//   79 
//   80 typedef struct
//   81 {
//   82   CSM_RAM csm;
//   83   int gui_id;
//   84 }MAIN_CSM;
//   85 
//   86 /*typedef struct
//   87 {
//   88   char *backgroundname;
//   89   int progressbarconst;
//   90   char *progressbarname;
//   91   WSHDR *PLAYLIST;
//   92   WSHDR *TRACK;
//   93   WSHDR *NUMBEROFTRACKS;
//   94   char *offname;
//   95   char *randomname;
//   96   char *plusname;
//   97   char *minusname;
//   98   char *stopname;
//   99   char *playname;
//  100   char *prevname;
//  101   char *nextname;
//  102 }RedrawStruct;
//  103 RedrawStruct pisnia;*/
//  104 
//  105 
//  106 

        RSEG DATA_I:DATA:SORT:NOROOT(2)
//  107 int spysokx1=1,spysoky1=50,spysokx2=132,spysoky2=176,spysokfont=8,spysoktextattribute=2,spysoktextcolor=1,spysoktextbackground=23;
spysokx1:
        DS8 4
        REQUIRE `?<Initializer for spysokx1>`

        RSEG DATA_I:DATA:SORT:NOROOT(2)
spysoky1:
        DS8 4
        REQUIRE `?<Initializer for spysoky1>`

        RSEG DATA_I:DATA:SORT:NOROOT(2)
spysokx2:
        DS8 4
        REQUIRE `?<Initializer for spysokx2>`

        RSEG DATA_I:DATA:SORT:NOROOT(2)
spysoky2:
        DS8 4
        REQUIRE `?<Initializer for spysoky2>`

        RSEG DATA_I:DATA:SORT:NOROOT(2)
spysokfont:
        DS8 4
        REQUIRE `?<Initializer for spysokfont>`

        RSEG DATA_I:DATA:SORT:NOROOT(2)
spysoktextattribute:
        DS8 4
        REQUIRE `?<Initializer for spysoktextattribute>`

        RSEG DATA_I:DATA:SORT:NOROOT(2)
spysoktextcolor:
        DS8 4
        REQUIRE `?<Initializer for spysoktextcolor>`

        RSEG DATA_I:DATA:SORT:NOROOT(2)
spysoktextbackground:
        DS8 4
        REQUIRE `?<Initializer for spysoktextbackground>`

        RSEG DATA_I:DATA:SORT:NOROOT(2)
//  108 int timex1=1,timey1=134,timex2=132,timey2=176,timefont=7,timetextattribute=2,timetextcolor=1,timetextbackground=23;
timex1:
        DS8 4
        REQUIRE `?<Initializer for timex1>`

        RSEG DATA_I:DATA:SORT:NOROOT(2)
timey1:
        DS8 4
        REQUIRE `?<Initializer for timey1>`

        RSEG DATA_I:DATA:SORT:NOROOT(2)
timex2:
        DS8 4
        REQUIRE `?<Initializer for timex2>`

        RSEG DATA_I:DATA:SORT:NOROOT(2)
timey2:
        DS8 4
        REQUIRE `?<Initializer for timey2>`

        RSEG DATA_I:DATA:SORT:NOROOT(2)
timefont:
        DS8 4
        REQUIRE `?<Initializer for timefont>`

        RSEG DATA_I:DATA:SORT:NOROOT(2)
timetextattribute:
        DS8 4
        REQUIRE `?<Initializer for timetextattribute>`

        RSEG DATA_I:DATA:SORT:NOROOT(2)
timetextcolor:
        DS8 4
        REQUIRE `?<Initializer for timetextcolor>`

        RSEG DATA_I:DATA:SORT:NOROOT(2)
timetextbackground:
        DS8 4
        REQUIRE `?<Initializer for timetextbackground>`

        RSEG DATA_I:DATA:SORT:NOROOT(2)
//  109 int songx1=1,songy1=67,songx2=132,songy2=176,songfont=7,songtextattribute=0,songtextcolor=1,songtextbackground=23;
songx1:
        DS8 4
        REQUIRE `?<Initializer for songx1>`

        RSEG DATA_I:DATA:SORT:NOROOT(2)
songy1:
        DS8 4
        REQUIRE `?<Initializer for songy1>`

        RSEG DATA_I:DATA:SORT:NOROOT(2)
songx2:
        DS8 4
        REQUIRE `?<Initializer for songx2>`

        RSEG DATA_I:DATA:SORT:NOROOT(2)
songy2:
        DS8 4
        REQUIRE `?<Initializer for songy2>`

        RSEG DATA_I:DATA:SORT:NOROOT(2)
songfont:
        DS8 4
        REQUIRE `?<Initializer for songfont>`

        RSEG DATA_Z:DATA:SORT:NOROOT(2)
songtextattribute:
        DS8 4

        RSEG DATA_I:DATA:SORT:NOROOT(2)
songtextcolor:
        DS8 4
        REQUIRE `?<Initializer for songtextcolor>`

        RSEG DATA_I:DATA:SORT:NOROOT(2)
songtextbackground:
        DS8 4
        REQUIRE `?<Initializer for songtextbackground>`

        RSEG DATA_I:DATA:SORT:NOROOT(2)
//  110 int tracksx1=1,tracksy1=1,tracksx2=132,tracksy2=176,tracksfont=7,trackstextattribute=4,trackstextcolor=1,trackstextbackground=23;
tracksx1:
        DS8 4
        REQUIRE `?<Initializer for tracksx1>`

        RSEG DATA_I:DATA:SORT:NOROOT(2)
tracksy1:
        DS8 4
        REQUIRE `?<Initializer for tracksy1>`

        RSEG DATA_I:DATA:SORT:NOROOT(2)
tracksx2:
        DS8 4
        REQUIRE `?<Initializer for tracksx2>`

        RSEG DATA_I:DATA:SORT:NOROOT(2)
tracksy2:
        DS8 4
        REQUIRE `?<Initializer for tracksy2>`

        RSEG DATA_I:DATA:SORT:NOROOT(2)
tracksfont:
        DS8 4
        REQUIRE `?<Initializer for tracksfont>`

        RSEG DATA_I:DATA:SORT:NOROOT(2)
trackstextattribute:
        DS8 4
        REQUIRE `?<Initializer for trackstextattribute>`

        RSEG DATA_I:DATA:SORT:NOROOT(2)
trackstextcolor:
        DS8 4
        REQUIRE `?<Initializer for trackstextcolor>`

        RSEG DATA_I:DATA:SORT:NOROOT(2)
trackstextbackground:
        DS8 4
        REQUIRE `?<Initializer for trackstextbackground>`

        RSEG DATA_I:DATA:SORT:NOROOT(2)
//  111 int volumex=1,volumey=157;
volumex:
        DS8 4
        REQUIRE `?<Initializer for volumex>`

        RSEG DATA_I:DATA:SORT:NOROOT(2)
volumey:
        DS8 4
        REQUIRE `?<Initializer for volumey>`

        RSEG DATA_I:DATA:SORT:NOROOT(2)
//  112 int randomx=2,randomy=2;
randomx:
        DS8 4
        REQUIRE `?<Initializer for randomx>`

        RSEG DATA_I:DATA:SORT:NOROOT(2)
randomy:
        DS8 4
        REQUIRE `?<Initializer for randomy>`

        RSEG DATA_I:DATA:SORT:NOROOT(2)
//  113 int ringoffx=25,ringoffy=2;
ringoffx:
        DS8 4
        REQUIRE `?<Initializer for ringoffx>`

        RSEG DATA_I:DATA:SORT:NOROOT(2)
ringoffy:
        DS8 4
        REQUIRE `?<Initializer for ringoffy>`

        RSEG DATA_I:DATA:SORT:NOROOT(2)
//  114 int prevx=45,prevy=18;
prevx:
        DS8 4
        REQUIRE `?<Initializer for prevx>`

        RSEG DATA_I:DATA:SORT:NOROOT(2)
prevy:
        DS8 4
        REQUIRE `?<Initializer for prevy>`

        RSEG DATA_I:DATA:SORT:NOROOT(2)
//  115 int nextx=74,nexty=18;
nextx:
        DS8 4
        REQUIRE `?<Initializer for nextx>`

        RSEG DATA_I:DATA:SORT:NOROOT(2)
nexty:
        DS8 4
        REQUIRE `?<Initializer for nexty>`

        RSEG DATA_I:DATA:SORT:NOROOT(2)
//  116 int volpx=61,volpy=5;
volpx:
        DS8 4
        REQUIRE `?<Initializer for volpx>`

        RSEG DATA_I:DATA:SORT:NOROOT(2)
volpy:
        DS8 4
        REQUIRE `?<Initializer for volpy>`

        RSEG DATA_I:DATA:SORT:NOROOT(2)
//  117 int volmx=61,volmy=30;
volmx:
        DS8 4
        REQUIRE `?<Initializer for volmx>`

        RSEG DATA_I:DATA:SORT:NOROOT(2)
volmy:
        DS8 4
        REQUIRE `?<Initializer for volmy>`

        RSEG DATA_I:DATA:SORT:NOROOT(2)
//  118 int play_stopx=62,play_stopy=19;
play_stopx:
        DS8 4
        REQUIRE `?<Initializer for play_stopx>`

        RSEG DATA_I:DATA:SORT:NOROOT(2)
play_stopy:
        DS8 4
        REQUIRE `?<Initializer for play_stopy>`

        RSEG DATA_I:DATA:SORT:NOROOT(2)
//  119 int progressbarx1=2,progressbary1=165,progressbarx2=132,progressbarcolour=20;
progressbarx1:
        DS8 4
        REQUIRE `?<Initializer for progressbarx1>`

        RSEG DATA_I:DATA:SORT:NOROOT(2)
progressbary1:
        DS8 4
        REQUIRE `?<Initializer for progressbary1>`

        RSEG DATA_I:DATA:SORT:NOROOT(2)
progressbarx2:
        DS8 4
        REQUIRE `?<Initializer for progressbarx2>`

        RSEG DATA_I:DATA:SORT:NOROOT(2)
progressbarcolour:
        DS8 4
        REQUIRE `?<Initializer for progressbarcolour>`

        RSEG DATA_I:DATA:SORT:NOROOT(2)
//  120 int katalogbackgroundcolour=9,katalogfontcolour=1,katalogselectedcolour=14;
katalogbackgroundcolour:
        DS8 4
        REQUIRE `?<Initializer for katalogbackgroundcolour>`

        RSEG DATA_I:DATA:SORT:NOROOT(2)
katalogfontcolour:
        DS8 4
        REQUIRE `?<Initializer for katalogfontcolour>`

        RSEG DATA_I:DATA:SORT:NOROOT(2)
katalogselectedcolour:
        DS8 4
        REQUIRE `?<Initializer for katalogselectedcolour>`

        RSEG DATA_Z:DATA:SORT:NOROOT(2)
//  121 char name[256];
name:
        DS8 256

        RSEG CODE:CODE:NOROOT(2)
        CFI Block cfiBlock7 Using cfiCommon1
        CFI Function readskinparamsfromfile
        ARM
//  122 void readskinparamsfromfile()
//  123 {
readskinparamsfromfile:
        PUSH     {R4,R5,LR}
        CFI ?RET Frame(CFA, -4)
        CFI R5 Frame(CFA, -8)
        CFI R4 Frame(CFA, -12)
        CFI CFA R13+12
        SUB      SP,SP,#+996
        CFI CFA R13+1008
        SUB      SP,SP,#+19456
        CFI CFA R13+20464
//  124   int f;
//  125   char list[20000];
//  126   sprintf(name,"%sskins\\%s\\params.txt",playerfolder,ArrayOfSkins[curskin]);
        LDR      R0,??readskinparamsfromfile_0  ;; curskin
        LDR      R0,[R0, #+0]
        MOV      R1,#+20
        LDR      R2,??readskinparamsfromfile_0+0x4  ;; ArrayOfSkins
        MLA      R3,R1,R0,R2
        LDR      R2,??readskinparamsfromfile_0+0x8  ;; playerfolder
        LDR      R1,??readskinparamsfromfile_0+0xC  ;; `?<Constant "%sskins\\\\%s\\\\params.txt">`
        LDR      R0,??readskinparamsfromfile_0+0x10  ;; name
        SWI      +22
//  127   unsigned int err;
//  128   f=fopen(name, A_ReadOnly+A_MMCStream, P_READ, & err );
        ADD      R3,SP,#+8
        MOV      R2,#+128
        MOV      R1,#+32
        LDR      R0,??readskinparamsfromfile_0+0x10  ;; name
        SWI      +10
        MOV      R4,R0
//  129   if (f!=-1)
        CMN      R4,#+1
        BEQ      ??readskinparamsfromfile_1
//  130   {
//  131   DIR_ENTRY de;
//  132   FindFirstFile(&de,name,&err);
        ADD      R2,SP,#+8
        LDR      R1,??readskinparamsfromfile_0+0x10  ;; name
        ADD      R0,SP,#+12
        SWI      +107
//  133   fread(f,list,de.file_size,&err);
        ADD      R3,SP,#+8
        LDR      R2,[SP, #+32]
        ADD      R1,SP,#+452
        MOV      R0,R4
        SWI      +11
//  134   char num[5];
//  135   sprintf(num,pp);
        LDR      R1,??readskinparamsfromfile_0+0x14  ;; pp
        MOV      R0,SP
        SWI      +22
//  136   int i=0;
        MOV      R0,#+0
        LDR      R1,[SP, #+32]
        CMP      R1,#+0
        BEQ      ??readskinparamsfromfile_2
        ADD      R1,SP,#+452
??readskinparamsfromfile_3:
        LDRB     R2,[R1], #+1
        CMP      R2,#+13
        BEQ      ??readskinparamsfromfile_2
//  137 while ((i<de.file_size)&&(list[i]!=0x0D)) {i++;}
        ADD      R0,R0,#+1
        LDR      R2,[SP, #+32]
        CMP      R0,R2
        BCC      ??readskinparamsfromfile_3
//  138   i=i+2;  
??readskinparamsfromfile_2:
        ADD      R5,R0,#+2
        B        ??readskinparamsfromfile_4
//  139 while ((i<de.file_size)&&(list[i]!=0x0D)) {sprintf(num,"%s%c",num,list[i]);i++;}
??readskinparamsfromfile_5:
        ADD      R0,SP,#+452
        LDRB     R3,[R5, +R0]
        MOV      R2,SP
        LDR      R1,??readskinparamsfromfile_0+0x18  ;; `?<Constant "%s%c">`
        MOV      R0,SP
        SWI      +22
        ADD      R5,R5,#+1
??readskinparamsfromfile_4:
        LDR      R0,[SP, #+32]
        CMP      R5,R0
        BCS      ??readskinparamsfromfile_6
        ADD      R0,SP,#+452
        LDRB     R0,[R5, +R0]
        CMP      R0,#+13
        BNE      ??readskinparamsfromfile_5
//  140   sscanf(num,p_i,&spysokx1);
??readskinparamsfromfile_6:
        LDR      R2,??readskinparamsfromfile_0+0x1C  ;; spysokx1
        LDR      R1,??readskinparamsfromfile_0+0x20  ;; p_i
        MOV      R0,SP
        SWI      +501
//  141   i=i+2;
        ADD      R5,R5,#+2
//  142   sprintf(num,pp);
        LDR      R1,??readskinparamsfromfile_0+0x14  ;; pp
        MOV      R0,SP
        SWI      +22
        B        ??readskinparamsfromfile_7
//  143 while ((i<de.file_size)&&(list[i]!=0x0D)) {sprintf(num,"%s%c",num,list[i]);i++;}
??readskinparamsfromfile_8:
        ADD      R0,SP,#+452
        LDRB     R3,[R5, +R0]
        MOV      R2,SP
        LDR      R1,??readskinparamsfromfile_0+0x18  ;; `?<Constant "%s%c">`
        MOV      R0,SP
        SWI      +22
        ADD      R5,R5,#+1
??readskinparamsfromfile_7:
        LDR      R0,[SP, #+32]
        CMP      R5,R0
        BCS      ??readskinparamsfromfile_9
        ADD      R0,SP,#+452
        LDRB     R0,[R5, +R0]
        CMP      R0,#+13
        BNE      ??readskinparamsfromfile_8
//  144   sscanf(num,p_i,&spysoky1);
??readskinparamsfromfile_9:
        LDR      R2,??readskinparamsfromfile_0+0x24  ;; spysoky1
        LDR      R1,??readskinparamsfromfile_0+0x20  ;; p_i
        MOV      R0,SP
        SWI      +501
//  145   i=i+2;
        ADD      R5,R5,#+2
//  146   sprintf(num,pp);
        LDR      R1,??readskinparamsfromfile_0+0x14  ;; pp
        MOV      R0,SP
        SWI      +22
        B        ??readskinparamsfromfile_10
//  147 while ((i<de.file_size)&&(list[i]!=0x0D)) {sprintf(num,"%s%c",num,list[i]);i++;}
??readskinparamsfromfile_11:
        ADD      R0,SP,#+452
        LDRB     R3,[R5, +R0]
        MOV      R2,SP
        LDR      R1,??readskinparamsfromfile_0+0x18  ;; `?<Constant "%s%c">`
        MOV      R0,SP
        SWI      +22
        ADD      R5,R5,#+1
??readskinparamsfromfile_10:
        LDR      R0,[SP, #+32]
        CMP      R5,R0
        BCS      ??readskinparamsfromfile_12
        ADD      R0,SP,#+452
        LDRB     R0,[R5, +R0]
        CMP      R0,#+13
        BNE      ??readskinparamsfromfile_11
//  148   sscanf(num,p_i,&spysokx2);
??readskinparamsfromfile_12:
        LDR      R2,??readskinparamsfromfile_0+0x28  ;; spysokx2
        LDR      R1,??readskinparamsfromfile_0+0x20  ;; p_i
        MOV      R0,SP
        SWI      +501
//  149   i=i+2;
        ADD      R5,R5,#+2
//  150   sprintf(num,pp);
        LDR      R1,??readskinparamsfromfile_0+0x14  ;; pp
        MOV      R0,SP
        SWI      +22
        B        ??readskinparamsfromfile_13
//  151 while ((i<de.file_size)&&(list[i]!=0x0D)) {sprintf(num,"%s%c",num,list[i]);i++;}
??readskinparamsfromfile_14:
        ADD      R0,SP,#+452
        LDRB     R3,[R5, +R0]
        MOV      R2,SP
        LDR      R1,??readskinparamsfromfile_0+0x18  ;; `?<Constant "%s%c">`
        MOV      R0,SP
        SWI      +22
        ADD      R5,R5,#+1
??readskinparamsfromfile_13:
        LDR      R0,[SP, #+32]
        CMP      R5,R0
        BCS      ??readskinparamsfromfile_15
        ADD      R0,SP,#+452
        LDRB     R0,[R5, +R0]
        CMP      R0,#+13
        BNE      ??readskinparamsfromfile_14
//  152   sscanf(num,p_i,&spysoky2);
??readskinparamsfromfile_15:
        LDR      R2,??readskinparamsfromfile_0+0x2C  ;; spysoky2
        LDR      R1,??readskinparamsfromfile_0+0x20  ;; p_i
        MOV      R0,SP
        SWI      +501
//  153   i=i+2;
        ADD      R5,R5,#+2
//  154   sprintf(num,pp);
        LDR      R1,??readskinparamsfromfile_0+0x14  ;; pp
        MOV      R0,SP
        SWI      +22
        B        ??readskinparamsfromfile_16
//  155 while ((i<de.file_size)&&(list[i]!=0x0D)) {sprintf(num,"%s%c",num,list[i]);i++;}
??readskinparamsfromfile_17:
        ADD      R0,SP,#+452
        LDRB     R3,[R5, +R0]
        MOV      R2,SP
        LDR      R1,??readskinparamsfromfile_0+0x18  ;; `?<Constant "%s%c">`
        MOV      R0,SP
        SWI      +22
        ADD      R5,R5,#+1
??readskinparamsfromfile_16:
        LDR      R0,[SP, #+32]
        CMP      R5,R0
        BCS      ??readskinparamsfromfile_18
        ADD      R0,SP,#+452
        LDRB     R0,[R5, +R0]
        CMP      R0,#+13
        BNE      ??readskinparamsfromfile_17
//  156   sscanf(num,p_i,&spysokfont);
??readskinparamsfromfile_18:
        LDR      R2,??readskinparamsfromfile_0+0x30  ;; spysokfont
        LDR      R1,??readskinparamsfromfile_0+0x20  ;; p_i
        MOV      R0,SP
        SWI      +501
//  157   i=i+2;
        ADD      R5,R5,#+2
//  158   sprintf(num,pp);
        LDR      R1,??readskinparamsfromfile_0+0x14  ;; pp
        MOV      R0,SP
        SWI      +22
        B        ??readskinparamsfromfile_19
//  159 while ((i<de.file_size)&&(list[i]!=0x0D)) {sprintf(num,"%s%c",num,list[i]);i++;}
??readskinparamsfromfile_20:
        ADD      R0,SP,#+452
        LDRB     R3,[R5, +R0]
        MOV      R2,SP
        LDR      R1,??readskinparamsfromfile_0+0x18  ;; `?<Constant "%s%c">`
        MOV      R0,SP
        SWI      +22
        ADD      R5,R5,#+1
??readskinparamsfromfile_19:
        LDR      R0,[SP, #+32]
        CMP      R5,R0
        BCS      ??readskinparamsfromfile_21
        ADD      R0,SP,#+452
        LDRB     R0,[R5, +R0]
        CMP      R0,#+13
        BNE      ??readskinparamsfromfile_20
//  160   sscanf(num,p_i,&spysoktextattribute);
??readskinparamsfromfile_21:
        LDR      R2,??readskinparamsfromfile_0+0x34  ;; spysoktextattribute
        LDR      R1,??readskinparamsfromfile_0+0x20  ;; p_i
        MOV      R0,SP
        SWI      +501
//  161   i=i+2;
        ADD      R5,R5,#+2
//  162   sprintf(num,pp);
        LDR      R1,??readskinparamsfromfile_0+0x14  ;; pp
        MOV      R0,SP
        SWI      +22
        B        ??readskinparamsfromfile_22
//  163 while ((i<de.file_size)&&(list[i]!=0x0D)) {sprintf(num,"%s%c",num,list[i]);i++;}
??readskinparamsfromfile_23:
        ADD      R0,SP,#+452
        LDRB     R3,[R5, +R0]
        MOV      R2,SP
        LDR      R1,??readskinparamsfromfile_0+0x18  ;; `?<Constant "%s%c">`
        MOV      R0,SP
        SWI      +22
        ADD      R5,R5,#+1
??readskinparamsfromfile_22:
        LDR      R0,[SP, #+32]
        CMP      R5,R0
        BCS      ??readskinparamsfromfile_24
        ADD      R0,SP,#+452
        LDRB     R0,[R5, +R0]
        CMP      R0,#+13
        BNE      ??readskinparamsfromfile_23
//  164   sscanf(num,p_i,&spysoktextcolor);
??readskinparamsfromfile_24:
        LDR      R2,??readskinparamsfromfile_0+0x38  ;; spysoktextcolor
        LDR      R1,??readskinparamsfromfile_0+0x20  ;; p_i
        MOV      R0,SP
        SWI      +501
//  165   i=i+2;
        ADD      R5,R5,#+2
//  166   sprintf(num,pp);
        LDR      R1,??readskinparamsfromfile_0+0x14  ;; pp
        MOV      R0,SP
        SWI      +22
        B        ??readskinparamsfromfile_25
//  167 while ((i<de.file_size)&&(list[i]!=0x0D)) {sprintf(num,"%s%c",num,list[i]);i++;}
??readskinparamsfromfile_26:
        ADD      R0,SP,#+452
        LDRB     R3,[R5, +R0]
        MOV      R2,SP
        LDR      R1,??readskinparamsfromfile_0+0x18  ;; `?<Constant "%s%c">`
        MOV      R0,SP
        SWI      +22
        ADD      R5,R5,#+1
??readskinparamsfromfile_25:
        LDR      R0,[SP, #+32]
        CMP      R5,R0
        BCS      ??readskinparamsfromfile_27
        ADD      R0,SP,#+452
        LDRB     R0,[R5, +R0]
        CMP      R0,#+13
        BNE      ??readskinparamsfromfile_26
//  168   sscanf(num,p_i,&spysoktextbackground);
??readskinparamsfromfile_27:
        LDR      R2,??readskinparamsfromfile_0+0x3C  ;; spysoktextbackground
        LDR      R1,??readskinparamsfromfile_0+0x20  ;; p_i
        MOV      R0,SP
        SWI      +501
//  169   i=i+2;
        ADD      R5,R5,#+2
//  170   sprintf(num,pp);
        LDR      R1,??readskinparamsfromfile_0+0x14  ;; pp
        MOV      R0,SP
        SWI      +22
        LDR      R0,[SP, #+32]
        CMP      R5,R0
        BCC      ??readskinparamsfromfile_28
        B        ??readskinparamsfromfile_29
//  171  while ((i<de.file_size)&&(list[i]!=0x0D)) {i++;}
??readskinparamsfromfile_30:
        ADD      R5,R5,#+1
??readskinparamsfromfile_28:
        LDR      R0,[SP, #+32]
        CMP      R5,R0
        BCS      ??readskinparamsfromfile_29
        ADD      R0,SP,#+452
        LDRB     R0,[R5, +R0]
        CMP      R0,#+13
        BNE      ??readskinparamsfromfile_30
//  172   i=i+2;
??readskinparamsfromfile_29:
        ADD      R5,R5,#+2
        B        ??readskinparamsfromfile_31
//  173 while ((i<de.file_size)&&(list[i]!=0x0D)) {sprintf(num,"%s%c",num,list[i]);i++;}
??readskinparamsfromfile_32:
        ADD      R0,SP,#+452
        LDRB     R3,[R5, +R0]
        MOV      R2,SP
        LDR      R1,??readskinparamsfromfile_0+0x18  ;; `?<Constant "%s%c">`
        MOV      R0,SP
        SWI      +22
        ADD      R5,R5,#+1
??readskinparamsfromfile_31:
        LDR      R0,[SP, #+32]
        CMP      R5,R0
        BCS      ??readskinparamsfromfile_33
        ADD      R0,SP,#+452
        LDRB     R0,[R5, +R0]
        CMP      R0,#+13
        BNE      ??readskinparamsfromfile_32
//  174   sscanf(num,p_i,&timex1);
??readskinparamsfromfile_33:
        LDR      R2,??readskinparamsfromfile_0+0x40  ;; timex1
        LDR      R1,??readskinparamsfromfile_0+0x20  ;; p_i
        MOV      R0,SP
        SWI      +501
//  175   i=i+2;
        ADD      R5,R5,#+2
//  176   sprintf(num,pp);
        LDR      R1,??readskinparamsfromfile_0+0x14  ;; pp
        MOV      R0,SP
        SWI      +22
        B        ??readskinparamsfromfile_34
//  177 while ((i<de.file_size)&&(list[i]!=0x0D)) {sprintf(num,"%s%c",num,list[i]);i++;}
??readskinparamsfromfile_35:
        ADD      R0,SP,#+452
        LDRB     R3,[R5, +R0]
        MOV      R2,SP
        LDR      R1,??readskinparamsfromfile_0+0x18  ;; `?<Constant "%s%c">`
        MOV      R0,SP
        SWI      +22
        ADD      R5,R5,#+1
??readskinparamsfromfile_34:
        LDR      R0,[SP, #+32]
        CMP      R5,R0
        BCS      ??readskinparamsfromfile_36
        ADD      R0,SP,#+452
        LDRB     R0,[R5, +R0]
        CMP      R0,#+13
        BNE      ??readskinparamsfromfile_35
//  178   sscanf(num,p_i,&timey1);
??readskinparamsfromfile_36:
        LDR      R2,??readskinparamsfromfile_0+0x44  ;; timey1
        LDR      R1,??readskinparamsfromfile_0+0x20  ;; p_i
        MOV      R0,SP
        SWI      +501
//  179   i=i+2;
        ADD      R5,R5,#+2
//  180   sprintf(num,pp);
        LDR      R1,??readskinparamsfromfile_0+0x14  ;; pp
        MOV      R0,SP
        SWI      +22
        B        ??readskinparamsfromfile_37
//  181 while ((i<de.file_size)&&(list[i]!=0x0D)) {sprintf(num,"%s%c",num,list[i]);i++;}
??readskinparamsfromfile_38:
        ADD      R0,SP,#+452
        LDRB     R3,[R5, +R0]
        MOV      R2,SP
        LDR      R1,??readskinparamsfromfile_0+0x18  ;; `?<Constant "%s%c">`
        MOV      R0,SP
        SWI      +22
        ADD      R5,R5,#+1
??readskinparamsfromfile_37:
        LDR      R0,[SP, #+32]
        CMP      R5,R0
        BCS      ??readskinparamsfromfile_39
        ADD      R0,SP,#+452
        LDRB     R0,[R5, +R0]
        CMP      R0,#+13
        BNE      ??readskinparamsfromfile_38
//  182   sscanf(num,p_i,&timex2);
??readskinparamsfromfile_39:
        LDR      R2,??readskinparamsfromfile_0+0x48  ;; timex2
        LDR      R1,??readskinparamsfromfile_0+0x20  ;; p_i
        MOV      R0,SP
        SWI      +501
//  183   i=i+2;
        ADD      R5,R5,#+2
//  184   sprintf(num,pp);
        LDR      R1,??readskinparamsfromfile_0+0x14  ;; pp
        MOV      R0,SP
        SWI      +22
        B        ??readskinparamsfromfile_40
//  185 while ((i<de.file_size)&&(list[i]!=0x0D)) {sprintf(num,"%s%c",num,list[i]);i++;}
??readskinparamsfromfile_41:
        ADD      R0,SP,#+452
        LDRB     R3,[R5, +R0]
        MOV      R2,SP
        LDR      R1,??readskinparamsfromfile_0+0x18  ;; `?<Constant "%s%c">`
        MOV      R0,SP
        SWI      +22
        ADD      R5,R5,#+1
??readskinparamsfromfile_40:
        LDR      R0,[SP, #+32]
        CMP      R5,R0
        BCS      ??readskinparamsfromfile_42
        ADD      R0,SP,#+452
        LDRB     R0,[R5, +R0]
        CMP      R0,#+13
        BNE      ??readskinparamsfromfile_41
//  186   sscanf(num,p_i,&timey2);
??readskinparamsfromfile_42:
        LDR      R2,??readskinparamsfromfile_0+0x4C  ;; timey2
        LDR      R1,??readskinparamsfromfile_0+0x20  ;; p_i
        MOV      R0,SP
        SWI      +501
//  187   i=i+2;
        ADD      R5,R5,#+2
//  188   sprintf(num,pp);
        LDR      R1,??readskinparamsfromfile_0+0x14  ;; pp
        MOV      R0,SP
        SWI      +22
        B        ??readskinparamsfromfile_43
//  189 while ((i<de.file_size)&&(list[i]!=0x0D)) {sprintf(num,"%s%c",num,list[i]);i++;}
??readskinparamsfromfile_44:
        ADD      R0,SP,#+452
        LDRB     R3,[R5, +R0]
        MOV      R2,SP
        LDR      R1,??readskinparamsfromfile_0+0x18  ;; `?<Constant "%s%c">`
        MOV      R0,SP
        SWI      +22
        ADD      R5,R5,#+1
??readskinparamsfromfile_43:
        LDR      R0,[SP, #+32]
        CMP      R5,R0
        BCS      ??readskinparamsfromfile_45
        ADD      R0,SP,#+452
        LDRB     R0,[R5, +R0]
        CMP      R0,#+13
        BNE      ??readskinparamsfromfile_44
//  190   sscanf(num,p_i,&timefont);
??readskinparamsfromfile_45:
        LDR      R2,??readskinparamsfromfile_0+0x50  ;; timefont
        LDR      R1,??readskinparamsfromfile_0+0x20  ;; p_i
        MOV      R0,SP
        SWI      +501
//  191   i=i+2;
        ADD      R5,R5,#+2
//  192   sprintf(num,pp);
        LDR      R1,??readskinparamsfromfile_0+0x14  ;; pp
        MOV      R0,SP
        SWI      +22
        B        ??readskinparamsfromfile_46
//  193 while ((i<de.file_size)&&(list[i]!=0x0D)) {sprintf(num,"%s%c",num,list[i]);i++;}
??readskinparamsfromfile_47:
        ADD      R0,SP,#+452
        LDRB     R3,[R5, +R0]
        MOV      R2,SP
        LDR      R1,??readskinparamsfromfile_0+0x18  ;; `?<Constant "%s%c">`
        MOV      R0,SP
        SWI      +22
        ADD      R5,R5,#+1
??readskinparamsfromfile_46:
        LDR      R0,[SP, #+32]
        CMP      R5,R0
        BCS      ??readskinparamsfromfile_48
        ADD      R0,SP,#+452
        LDRB     R0,[R5, +R0]
        CMP      R0,#+13
        BNE      ??readskinparamsfromfile_47
//  194   sscanf(num,p_i,&timetextattribute);
??readskinparamsfromfile_48:
        LDR      R2,??readskinparamsfromfile_0+0x54  ;; timetextattribute
        LDR      R1,??readskinparamsfromfile_0+0x20  ;; p_i
        MOV      R0,SP
        SWI      +501
//  195   i=i+2;
        ADD      R5,R5,#+2
//  196   sprintf(num,pp);
        LDR      R1,??readskinparamsfromfile_0+0x14  ;; pp
        MOV      R0,SP
        SWI      +22
        B        ??readskinparamsfromfile_49
//  197 while ((i<de.file_size)&&(list[i]!=0x0D)) {sprintf(num,"%s%c",num,list[i]);i++;}
??readskinparamsfromfile_50:
        ADD      R0,SP,#+452
        LDRB     R3,[R5, +R0]
        MOV      R2,SP
        LDR      R1,??readskinparamsfromfile_0+0x18  ;; `?<Constant "%s%c">`
        MOV      R0,SP
        SWI      +22
        ADD      R5,R5,#+1
??readskinparamsfromfile_49:
        LDR      R0,[SP, #+32]
        CMP      R5,R0
        BCS      ??readskinparamsfromfile_51
        ADD      R0,SP,#+452
        LDRB     R0,[R5, +R0]
        CMP      R0,#+13
        BNE      ??readskinparamsfromfile_50
//  198   sscanf(num,p_i,&timetextcolor);
??readskinparamsfromfile_51:
        LDR      R2,??readskinparamsfromfile_0+0x58  ;; timetextcolor
        LDR      R1,??readskinparamsfromfile_0+0x20  ;; p_i
        MOV      R0,SP
        SWI      +501
//  199   i=i+2;
        ADD      R5,R5,#+2
//  200   sprintf(num,pp);
        LDR      R1,??readskinparamsfromfile_0+0x14  ;; pp
        MOV      R0,SP
        SWI      +22
        B        ??readskinparamsfromfile_52
//  201 while ((i<de.file_size)&&(list[i]!=0x0D)) {sprintf(num,"%s%c",num,list[i]);i++;}
??readskinparamsfromfile_53:
        ADD      R0,SP,#+452
        LDRB     R3,[R5, +R0]
        MOV      R2,SP
        LDR      R1,??readskinparamsfromfile_0+0x18  ;; `?<Constant "%s%c">`
        MOV      R0,SP
        SWI      +22
        ADD      R5,R5,#+1
??readskinparamsfromfile_52:
        LDR      R0,[SP, #+32]
        CMP      R5,R0
        BCS      ??readskinparamsfromfile_54
        ADD      R0,SP,#+452
        LDRB     R0,[R5, +R0]
        CMP      R0,#+13
        BNE      ??readskinparamsfromfile_53
//  202   sscanf(num,p_i,&timetextbackground);
??readskinparamsfromfile_54:
        LDR      R2,??readskinparamsfromfile_0+0x5C  ;; timetextbackground
        LDR      R1,??readskinparamsfromfile_0+0x20  ;; p_i
        MOV      R0,SP
        SWI      +501
//  203   i=i+2;
        ADD      R5,R5,#+2
//  204   sprintf(num,pp);
        LDR      R1,??readskinparamsfromfile_0+0x14  ;; pp
        MOV      R0,SP
        SWI      +22
        LDR      R0,[SP, #+32]
        CMP      R5,R0
        BCC      ??readskinparamsfromfile_55
        B        ??readskinparamsfromfile_56
//  205  while ((i<de.file_size)&&(list[i]!=0x0D)) {i++;}
??readskinparamsfromfile_57:
        ADD      R5,R5,#+1
??readskinparamsfromfile_55:
        LDR      R0,[SP, #+32]
        CMP      R5,R0
        BCS      ??readskinparamsfromfile_56
        ADD      R0,SP,#+452
        LDRB     R0,[R5, +R0]
        CMP      R0,#+13
        BNE      ??readskinparamsfromfile_57
//  206   i=i+2;
??readskinparamsfromfile_56:
        ADD      R5,R5,#+2
        B        ??readskinparamsfromfile_58
//  207 while ((i<de.file_size)&&(list[i]!=0x0D)) {sprintf(num,"%s%c",num,list[i]);i++;}
??readskinparamsfromfile_59:
        ADD      R0,SP,#+452
        LDRB     R3,[R5, +R0]
        MOV      R2,SP
        LDR      R1,??readskinparamsfromfile_0+0x18  ;; `?<Constant "%s%c">`
        MOV      R0,SP
        SWI      +22
        ADD      R5,R5,#+1
??readskinparamsfromfile_58:
        LDR      R0,[SP, #+32]
        CMP      R5,R0
        BCS      ??readskinparamsfromfile_60
        ADD      R0,SP,#+452
        LDRB     R0,[R5, +R0]
        CMP      R0,#+13
        BNE      ??readskinparamsfromfile_59
//  208   sscanf(num,p_i,&songx1);
??readskinparamsfromfile_60:
        LDR      R2,??readskinparamsfromfile_0+0x60  ;; songx1
        LDR      R1,??readskinparamsfromfile_0+0x20  ;; p_i
        MOV      R0,SP
        SWI      +501
//  209   i=i+2;
        ADD      R5,R5,#+2
//  210   sprintf(num,pp);
        LDR      R1,??readskinparamsfromfile_0+0x14  ;; pp
        MOV      R0,SP
        SWI      +22
        B        ??readskinparamsfromfile_61
//  211 while ((i<de.file_size)&&(list[i]!=0x0D)) {sprintf(num,"%s%c",num,list[i]);i++;}
??readskinparamsfromfile_62:
        ADD      R0,SP,#+452
        LDRB     R3,[R5, +R0]
        MOV      R2,SP
        LDR      R1,??readskinparamsfromfile_0+0x18  ;; `?<Constant "%s%c">`
        MOV      R0,SP
        SWI      +22
        ADD      R5,R5,#+1
??readskinparamsfromfile_61:
        LDR      R0,[SP, #+32]
        CMP      R5,R0
        BCS      ??readskinparamsfromfile_63
        ADD      R0,SP,#+452
        LDRB     R0,[R5, +R0]
        CMP      R0,#+13
        BNE      ??readskinparamsfromfile_62
//  212   sscanf(num,p_i,&songy1);
??readskinparamsfromfile_63:
        LDR      R2,??readskinparamsfromfile_0+0x64  ;; songy1
        LDR      R1,??readskinparamsfromfile_0+0x20  ;; p_i
        MOV      R0,SP
        SWI      +501
//  213   i=i+2;
        ADD      R5,R5,#+2
//  214   sprintf(num,pp);
        LDR      R1,??readskinparamsfromfile_0+0x14  ;; pp
        MOV      R0,SP
        SWI      +22
        B        ??readskinparamsfromfile_64
//  215 while ((i<de.file_size)&&(list[i]!=0x0D)) {sprintf(num,"%s%c",num,list[i]);i++;}
??readskinparamsfromfile_65:
        ADD      R0,SP,#+452
        LDRB     R3,[R5, +R0]
        MOV      R2,SP
        LDR      R1,??readskinparamsfromfile_0+0x18  ;; `?<Constant "%s%c">`
        MOV      R0,SP
        SWI      +22
        ADD      R5,R5,#+1
??readskinparamsfromfile_64:
        LDR      R0,[SP, #+32]
        CMP      R5,R0
        BCS      ??readskinparamsfromfile_66
        ADD      R0,SP,#+452
        LDRB     R0,[R5, +R0]
        CMP      R0,#+13
        BNE      ??readskinparamsfromfile_65
//  216   sscanf(num,p_i,&songx2);
??readskinparamsfromfile_66:
        LDR      R2,??readskinparamsfromfile_0+0x68  ;; songx2
        LDR      R1,??readskinparamsfromfile_0+0x20  ;; p_i
        MOV      R0,SP
        SWI      +501
//  217   i=i+2;
        ADD      R5,R5,#+2
//  218   sprintf(num,pp);
        LDR      R1,??readskinparamsfromfile_0+0x14  ;; pp
        MOV      R0,SP
        SWI      +22
        B        ??readskinparamsfromfile_67
//  219 while ((i<de.file_size)&&(list[i]!=0x0D)) {sprintf(num,"%s%c",num,list[i]);i++;}
??readskinparamsfromfile_68:
        ADD      R0,SP,#+452
        LDRB     R3,[R5, +R0]
        MOV      R2,SP
        LDR      R1,??readskinparamsfromfile_0+0x18  ;; `?<Constant "%s%c">`
        MOV      R0,SP
        SWI      +22
        ADD      R5,R5,#+1
??readskinparamsfromfile_67:
        LDR      R0,[SP, #+32]
        CMP      R5,R0
        BCS      ??readskinparamsfromfile_69
        ADD      R0,SP,#+452
        LDRB     R0,[R5, +R0]
        CMP      R0,#+13
        BNE      ??readskinparamsfromfile_68
//  220   sscanf(num,p_i,&songy2);
??readskinparamsfromfile_69:
        LDR      R2,??readskinparamsfromfile_70  ;; songy2
        LDR      R1,??readskinparamsfromfile_0+0x20  ;; p_i
        MOV      R0,SP
        SWI      +501
//  221   i=i+2;
        ADD      R5,R5,#+2
//  222   sprintf(num,pp);
        LDR      R1,??readskinparamsfromfile_0+0x14  ;; pp
        MOV      R0,SP
        SWI      +22
        B        ??readskinparamsfromfile_71
//  223 while ((i<de.file_size)&&(list[i]!=0x0D)) {sprintf(num,"%s%c",num,list[i]);i++;}
??readskinparamsfromfile_72:
        ADD      R0,SP,#+452
        LDRB     R3,[R5, +R0]
        MOV      R2,SP
        LDR      R1,??readskinparamsfromfile_0+0x18  ;; `?<Constant "%s%c">`
        MOV      R0,SP
        SWI      +22
        ADD      R5,R5,#+1
??readskinparamsfromfile_71:
        LDR      R0,[SP, #+32]
        CMP      R5,R0
        BCS      ??readskinparamsfromfile_73
        ADD      R0,SP,#+452
        LDRB     R0,[R5, +R0]
        CMP      R0,#+13
        BNE      ??readskinparamsfromfile_72
//  224   sscanf(num,p_i,&songfont);
??readskinparamsfromfile_73:
        LDR      R2,??readskinparamsfromfile_70+0x4  ;; songfont
        LDR      R1,??readskinparamsfromfile_0+0x20  ;; p_i
        MOV      R0,SP
        SWI      +501
//  225   i=i+2;
        ADD      R5,R5,#+2
//  226   sprintf(num,pp);
        LDR      R1,??readskinparamsfromfile_0+0x14  ;; pp
        MOV      R0,SP
        SWI      +22
        B        ??readskinparamsfromfile_74
//  227 while ((i<de.file_size)&&(list[i]!=0x0D)) {sprintf(num,"%s%c",num,list[i]);i++;}
??readskinparamsfromfile_75:
        ADD      R0,SP,#+452
        LDRB     R3,[R5, +R0]
        MOV      R2,SP
        LDR      R1,??readskinparamsfromfile_0+0x18  ;; `?<Constant "%s%c">`
        MOV      R0,SP
        SWI      +22
        ADD      R5,R5,#+1
??readskinparamsfromfile_74:
        LDR      R0,[SP, #+32]
        CMP      R5,R0
        BCS      ??readskinparamsfromfile_76
        ADD      R0,SP,#+452
        LDRB     R0,[R5, +R0]
        CMP      R0,#+13
        BNE      ??readskinparamsfromfile_75
//  228   sscanf(num,p_i,&songtextattribute);
??readskinparamsfromfile_76:
        LDR      R2,??readskinparamsfromfile_70+0x8  ;; songtextattribute
        LDR      R1,??readskinparamsfromfile_0+0x20  ;; p_i
        MOV      R0,SP
        SWI      +501
//  229   i=i+2;
        ADD      R5,R5,#+2
//  230   sprintf(num,pp);
        LDR      R1,??readskinparamsfromfile_0+0x14  ;; pp
        MOV      R0,SP
        SWI      +22
        B        ??readskinparamsfromfile_77
//  231 while ((i<de.file_size)&&(list[i]!=0x0D)) {sprintf(num,"%s%c",num,list[i]);i++;}
??readskinparamsfromfile_78:
        ADD      R0,SP,#+452
        LDRB     R3,[R5, +R0]
        MOV      R2,SP
        LDR      R1,??readskinparamsfromfile_0+0x18  ;; `?<Constant "%s%c">`
        MOV      R0,SP
        SWI      +22
        ADD      R5,R5,#+1
??readskinparamsfromfile_77:
        LDR      R0,[SP, #+32]
        CMP      R5,R0
        BCS      ??readskinparamsfromfile_79
        ADD      R0,SP,#+452
        LDRB     R0,[R5, +R0]
        CMP      R0,#+13
        BNE      ??readskinparamsfromfile_78
//  232   sscanf(num,p_i,&songtextcolor);
??readskinparamsfromfile_79:
        LDR      R2,??readskinparamsfromfile_70+0xC  ;; songtextcolor
        LDR      R1,??readskinparamsfromfile_0+0x20  ;; p_i
        MOV      R0,SP
        SWI      +501
//  233   i=i+2;
        ADD      R5,R5,#+2
//  234   sprintf(num,pp);
        LDR      R1,??readskinparamsfromfile_0+0x14  ;; pp
        MOV      R0,SP
        SWI      +22
        B        ??readskinparamsfromfile_80
//  235 while ((i<de.file_size)&&(list[i]!=0x0D)) {sprintf(num,"%s%c",num,list[i]);i++;}
??readskinparamsfromfile_81:
        ADD      R0,SP,#+452
        LDRB     R3,[R5, +R0]
        MOV      R2,SP
        LDR      R1,??readskinparamsfromfile_0+0x18  ;; `?<Constant "%s%c">`
        MOV      R0,SP
        SWI      +22
        ADD      R5,R5,#+1
??readskinparamsfromfile_80:
        LDR      R0,[SP, #+32]
        CMP      R5,R0
        BCS      ??readskinparamsfromfile_82
        ADD      R0,SP,#+452
        LDRB     R0,[R5, +R0]
        CMP      R0,#+13
        BNE      ??readskinparamsfromfile_81
//  236   sscanf(num,p_i,&songtextbackground);
??readskinparamsfromfile_82:
        LDR      R2,??readskinparamsfromfile_70+0x10  ;; songtextbackground
        LDR      R1,??readskinparamsfromfile_0+0x20  ;; p_i
        MOV      R0,SP
        SWI      +501
//  237   i=i+2;
        ADD      R5,R5,#+2
//  238   sprintf(num,pp);
        LDR      R1,??readskinparamsfromfile_0+0x14  ;; pp
        MOV      R0,SP
        SWI      +22
        LDR      R0,[SP, #+32]
        CMP      R5,R0
        BCC      ??readskinparamsfromfile_83
        B        ??readskinparamsfromfile_84
//  239  while ((i<de.file_size)&&(list[i]!=0x0D)) {i++;}
??readskinparamsfromfile_85:
        ADD      R5,R5,#+1
??readskinparamsfromfile_83:
        LDR      R0,[SP, #+32]
        CMP      R5,R0
        BCS      ??readskinparamsfromfile_84
        ADD      R0,SP,#+452
        LDRB     R0,[R5, +R0]
        CMP      R0,#+13
        BNE      ??readskinparamsfromfile_85
//  240   i=i+2;
??readskinparamsfromfile_84:
        ADD      R5,R5,#+2
        B        ??readskinparamsfromfile_86
//  241 while ((i<de.file_size)&&(list[i]!=0x0D)) {sprintf(num,"%s%c",num,list[i]);i++;}
??readskinparamsfromfile_87:
        ADD      R0,SP,#+452
        LDRB     R3,[R5, +R0]
        MOV      R2,SP
        LDR      R1,??readskinparamsfromfile_0+0x18  ;; `?<Constant "%s%c">`
        MOV      R0,SP
        SWI      +22
        ADD      R5,R5,#+1
??readskinparamsfromfile_86:
        LDR      R0,[SP, #+32]
        CMP      R5,R0
        BCS      ??readskinparamsfromfile_88
        ADD      R0,SP,#+452
        LDRB     R0,[R5, +R0]
        CMP      R0,#+13
        BNE      ??readskinparamsfromfile_87
//  242   sscanf(num,p_i,&tracksx1);
??readskinparamsfromfile_88:
        LDR      R2,??readskinparamsfromfile_70+0x14  ;; tracksx1
        LDR      R1,??readskinparamsfromfile_0+0x20  ;; p_i
        MOV      R0,SP
        SWI      +501
//  243   i=i+2;
        ADD      R5,R5,#+2
//  244   sprintf(num,pp);
        LDR      R1,??readskinparamsfromfile_0+0x14  ;; pp
        MOV      R0,SP
        SWI      +22
        B        ??readskinparamsfromfile_89
//  245 while ((i<de.file_size)&&(list[i]!=0x0D)) {sprintf(num,"%s%c",num,list[i]);i++;}
??readskinparamsfromfile_90:
        ADD      R0,SP,#+452
        LDRB     R3,[R5, +R0]
        MOV      R2,SP
        LDR      R1,??readskinparamsfromfile_0+0x18  ;; `?<Constant "%s%c">`
        MOV      R0,SP
        SWI      +22
        ADD      R5,R5,#+1
??readskinparamsfromfile_89:
        LDR      R0,[SP, #+32]
        CMP      R5,R0
        BCS      ??readskinparamsfromfile_91
        ADD      R0,SP,#+452
        LDRB     R0,[R5, +R0]
        CMP      R0,#+13
        BNE      ??readskinparamsfromfile_90
//  246   sscanf(num,p_i,&tracksy1);
??readskinparamsfromfile_91:
        LDR      R2,??readskinparamsfromfile_70+0x18  ;; tracksy1
        LDR      R1,??readskinparamsfromfile_0+0x20  ;; p_i
        MOV      R0,SP
        SWI      +501
//  247   i=i+2;
        ADD      R5,R5,#+2
//  248   sprintf(num,pp);
        LDR      R1,??readskinparamsfromfile_0+0x14  ;; pp
        MOV      R0,SP
        SWI      +22
        B        ??readskinparamsfromfile_92
//  249 while ((i<de.file_size)&&(list[i]!=0x0D)) {sprintf(num,"%s%c",num,list[i]);i++;}
??readskinparamsfromfile_93:
        ADD      R0,SP,#+452
        LDRB     R3,[R5, +R0]
        MOV      R2,SP
        LDR      R1,??readskinparamsfromfile_0+0x18  ;; `?<Constant "%s%c">`
        MOV      R0,SP
        SWI      +22
        ADD      R5,R5,#+1
??readskinparamsfromfile_92:
        LDR      R0,[SP, #+32]
        CMP      R5,R0
        BCS      ??readskinparamsfromfile_94
        ADD      R0,SP,#+452
        LDRB     R0,[R5, +R0]
        CMP      R0,#+13
        BNE      ??readskinparamsfromfile_93
//  250   sscanf(num,p_i,&tracksx2);
??readskinparamsfromfile_94:
        LDR      R2,??readskinparamsfromfile_70+0x1C  ;; tracksx2
        LDR      R1,??readskinparamsfromfile_0+0x20  ;; p_i
        MOV      R0,SP
        SWI      +501
//  251   i=i+2;
        ADD      R5,R5,#+2
//  252   sprintf(num,pp);
        LDR      R1,??readskinparamsfromfile_0+0x14  ;; pp
        MOV      R0,SP
        SWI      +22
        B        ??readskinparamsfromfile_95
//  253 while ((i<de.file_size)&&(list[i]!=0x0D)) {sprintf(num,"%s%c",num,list[i]);i++;}
??readskinparamsfromfile_96:
        ADD      R0,SP,#+452
        LDRB     R3,[R5, +R0]
        MOV      R2,SP
        LDR      R1,??readskinparamsfromfile_0+0x18  ;; `?<Constant "%s%c">`
        MOV      R0,SP
        SWI      +22
        ADD      R5,R5,#+1
??readskinparamsfromfile_95:
        LDR      R0,[SP, #+32]
        CMP      R5,R0
        BCS      ??readskinparamsfromfile_97
        ADD      R0,SP,#+452
        LDRB     R0,[R5, +R0]
        CMP      R0,#+13
        BNE      ??readskinparamsfromfile_96
//  254   sscanf(num,p_i,&tracksy2);
??readskinparamsfromfile_97:
        LDR      R2,??readskinparamsfromfile_70+0x20  ;; tracksy2
        LDR      R1,??readskinparamsfromfile_0+0x20  ;; p_i
        MOV      R0,SP
        SWI      +501
//  255   i=i+2;
        ADD      R5,R5,#+2
//  256   sprintf(num,pp);
        LDR      R1,??readskinparamsfromfile_0+0x14  ;; pp
        MOV      R0,SP
        SWI      +22
        B        ??readskinparamsfromfile_98
//  257 while ((i<de.file_size)&&(list[i]!=0x0D)) {sprintf(num,"%s%c",num,list[i]);i++;}
??readskinparamsfromfile_99:
        ADD      R0,SP,#+452
        LDRB     R3,[R5, +R0]
        MOV      R2,SP
        LDR      R1,??readskinparamsfromfile_0+0x18  ;; `?<Constant "%s%c">`
        MOV      R0,SP
        SWI      +22
        ADD      R5,R5,#+1
??readskinparamsfromfile_98:
        LDR      R0,[SP, #+32]
        CMP      R5,R0
        BCS      ??readskinparamsfromfile_100
        ADD      R0,SP,#+452
        LDRB     R0,[R5, +R0]
        CMP      R0,#+13
        BNE      ??readskinparamsfromfile_99
//  258   sscanf(num,p_i,&tracksfont);
??readskinparamsfromfile_100:
        LDR      R2,??readskinparamsfromfile_70+0x24  ;; tracksfont
        LDR      R1,??readskinparamsfromfile_0+0x20  ;; p_i
        MOV      R0,SP
        SWI      +501
//  259   i=i+2;
        ADD      R5,R5,#+2
//  260   sprintf(num,pp);
        LDR      R1,??readskinparamsfromfile_0+0x14  ;; pp
        MOV      R0,SP
        SWI      +22
        B        ??readskinparamsfromfile_101
//  261 while ((i<de.file_size)&&(list[i]!=0x0D)) {sprintf(num,"%s%c",num,list[i]);i++;}
??readskinparamsfromfile_102:
        ADD      R0,SP,#+452
        LDRB     R3,[R5, +R0]
        MOV      R2,SP
        LDR      R1,??readskinparamsfromfile_0+0x18  ;; `?<Constant "%s%c">`
        MOV      R0,SP
        SWI      +22
        ADD      R5,R5,#+1
??readskinparamsfromfile_101:
        LDR      R0,[SP, #+32]
        CMP      R5,R0
        BCS      ??readskinparamsfromfile_103
        ADD      R0,SP,#+452
        LDRB     R0,[R5, +R0]
        CMP      R0,#+13
        BNE      ??readskinparamsfromfile_102
//  262   sscanf(num,p_i,&trackstextattribute);
??readskinparamsfromfile_103:
        LDR      R2,??readskinparamsfromfile_70+0x28  ;; trackstextattribute
        LDR      R1,??readskinparamsfromfile_0+0x20  ;; p_i
        MOV      R0,SP
        SWI      +501
//  263   i=i+2;
        ADD      R5,R5,#+2
//  264   sprintf(num,pp);
        LDR      R1,??readskinparamsfromfile_0+0x14  ;; pp
        MOV      R0,SP
        SWI      +22
        B        ??readskinparamsfromfile_104
//  265 while ((i<de.file_size)&&(list[i]!=0x0D)) {sprintf(num,"%s%c",num,list[i]);i++;}
??readskinparamsfromfile_105:
        ADD      R0,SP,#+452
        LDRB     R3,[R5, +R0]
        MOV      R2,SP
        LDR      R1,??readskinparamsfromfile_0+0x18  ;; `?<Constant "%s%c">`
        MOV      R0,SP
        SWI      +22
        ADD      R5,R5,#+1
??readskinparamsfromfile_104:
        LDR      R0,[SP, #+32]
        CMP      R5,R0
        BCS      ??readskinparamsfromfile_106
        ADD      R0,SP,#+452
        LDRB     R0,[R5, +R0]
        CMP      R0,#+13
        BNE      ??readskinparamsfromfile_105
//  266   sscanf(num,p_i,&trackstextcolor);
??readskinparamsfromfile_106:
        LDR      R2,??readskinparamsfromfile_70+0x2C  ;; trackstextcolor
        LDR      R1,??readskinparamsfromfile_0+0x20  ;; p_i
        MOV      R0,SP
        SWI      +501
//  267   i=i+2;
        ADD      R5,R5,#+2
//  268   sprintf(num,pp);
        LDR      R1,??readskinparamsfromfile_0+0x14  ;; pp
        MOV      R0,SP
        SWI      +22
        B        ??readskinparamsfromfile_107
//  269 while ((i<de.file_size)&&(list[i]!=0x0D)) {sprintf(num,"%s%c",num,list[i]);i++;}
??readskinparamsfromfile_108:
        ADD      R0,SP,#+452
        LDRB     R3,[R5, +R0]
        MOV      R2,SP
        LDR      R1,??readskinparamsfromfile_0+0x18  ;; `?<Constant "%s%c">`
        MOV      R0,SP
        SWI      +22
        ADD      R5,R5,#+1
??readskinparamsfromfile_107:
        LDR      R0,[SP, #+32]
        CMP      R5,R0
        BCS      ??readskinparamsfromfile_109
        ADD      R0,SP,#+452
        LDRB     R0,[R5, +R0]
        CMP      R0,#+13
        BNE      ??readskinparamsfromfile_108
//  270   sscanf(num,p_i,&trackstextbackground);
??readskinparamsfromfile_109:
        LDR      R2,??DataTable1  ;; trackstextbackground
        LDR      R1,??readskinparamsfromfile_0+0x20  ;; p_i
        MOV      R0,SP
        SWI      +501
//  271   i=i+2;
        ADD      R5,R5,#+2
//  272   sprintf(num,pp);
        LDR      R1,??readskinparamsfromfile_0+0x14  ;; pp
        MOV      R0,SP
        SWI      +22
        LDR      R0,[SP, #+32]
        CMP      R5,R0
        BCC      ??readskinparamsfromfile_110
        B        ??readskinparamsfromfile_111
//  273  while ((i<de.file_size)&&(list[i]!=0x0D)) {i++;}
??readskinparamsfromfile_112:
        ADD      R5,R5,#+1
??readskinparamsfromfile_110:
        LDR      R0,[SP, #+32]
        CMP      R5,R0
        BCS      ??readskinparamsfromfile_111
        ADD      R0,SP,#+452
        LDRB     R0,[R5, +R0]
        CMP      R0,#+13
        BNE      ??readskinparamsfromfile_112
//  274   i=i+2;
??readskinparamsfromfile_111:
        ADD      R5,R5,#+2
        B        ??readskinparamsfromfile_113
//  275   while ((i<de.file_size)&&(list[i]!=0x0D)) {sprintf(num,"%s%c",num,list[i]);i++;}
??readskinparamsfromfile_114:
        ADD      R0,SP,#+452
        LDRB     R3,[R5, +R0]
        MOV      R2,SP
        LDR      R1,??readskinparamsfromfile_0+0x18  ;; `?<Constant "%s%c">`
        MOV      R0,SP
        SWI      +22
        ADD      R5,R5,#+1
??readskinparamsfromfile_113:
        LDR      R0,[SP, #+32]
        CMP      R5,R0
        BCS      ??readskinparamsfromfile_115
        ADD      R0,SP,#+452
        LDRB     R0,[R5, +R0]
        CMP      R0,#+13
        BNE      ??readskinparamsfromfile_114
//  276   sscanf(num,p_i,&volumex);
??readskinparamsfromfile_115:
        LDR      R2,??DataTable2  ;; volumex
        LDR      R1,??readskinparamsfromfile_0+0x20  ;; p_i
        MOV      R0,SP
        SWI      +501
//  277   i=i+2;
        ADD      R5,R5,#+2
//  278   sprintf(num,pp);
        LDR      R1,??readskinparamsfromfile_0+0x14  ;; pp
        MOV      R0,SP
        SWI      +22
        B        ??readskinparamsfromfile_116
//  279   while ((i<de.file_size)&&(list[i]!=0x0D)) {sprintf(num,"%s%c",num,list[i]);i++;}
??readskinparamsfromfile_117:
        ADD      R0,SP,#+452
        LDRB     R3,[R5, +R0]
        MOV      R2,SP
        LDR      R1,??readskinparamsfromfile_0+0x18  ;; `?<Constant "%s%c">`
        MOV      R0,SP
        SWI      +22
        ADD      R5,R5,#+1
??readskinparamsfromfile_116:
        LDR      R0,[SP, #+32]
        CMP      R5,R0
        BCS      ??readskinparamsfromfile_118
        ADD      R0,SP,#+452
        LDRB     R0,[R5, +R0]
        CMP      R0,#+13
        BNE      ??readskinparamsfromfile_117
//  280   sscanf(num,p_i,&volumey);
??readskinparamsfromfile_118:
        LDR      R2,??DataTable3  ;; volumey
        LDR      R1,??readskinparamsfromfile_0+0x20  ;; p_i
        MOV      R0,SP
        SWI      +501
//  281   i=i+2;
        ADD      R0,R5,#+2
        LDR      R1,[SP, #+32]
        CMP      R0,R1
        BCC      ??readskinparamsfromfile_119
        B        ??readskinparamsfromfile_120
//  282  while ((i<de.file_size)&&(list[i]!=0x0D)) {i++;}
??readskinparamsfromfile_121:
        ADD      R0,R0,#+1
??readskinparamsfromfile_119:
        LDR      R1,[SP, #+32]
        CMP      R0,R1
        BCS      ??readskinparamsfromfile_120
        ADD      R1,SP,#+452
        LDRB     R1,[R0, +R1]
        CMP      R1,#+13
        BNE      ??readskinparamsfromfile_121
//  283   i=i+2;
??readskinparamsfromfile_120:
        ADD      R5,R0,#+2
//  284   sprintf(num,pp);
        LDR      R1,??readskinparamsfromfile_0+0x14  ;; pp
        MOV      R0,SP
        SWI      +22
        B        ??readskinparamsfromfile_122
//  285   while ((i<de.file_size)&&(list[i]!=0x0D)) {sprintf(num,"%s%c",num,list[i]);i++;}
??readskinparamsfromfile_123:
        ADD      R0,SP,#+452
        LDRB     R3,[R5, +R0]
        MOV      R2,SP
        LDR      R1,??readskinparamsfromfile_0+0x18  ;; `?<Constant "%s%c">`
        MOV      R0,SP
        SWI      +22
        ADD      R5,R5,#+1
??readskinparamsfromfile_122:
        LDR      R0,[SP, #+32]
        CMP      R5,R0
        BCS      ??readskinparamsfromfile_124
        ADD      R0,SP,#+452
        LDRB     R0,[R5, +R0]
        CMP      R0,#+13
        BNE      ??readskinparamsfromfile_123
//  286   sscanf(num,p_i,&randomx);
??readskinparamsfromfile_124:
        LDR      R2,??DataTable4  ;; randomx
        LDR      R1,??readskinparamsfromfile_0+0x20  ;; p_i
        MOV      R0,SP
        SWI      +501
//  287   i=i+2;
        ADD      R5,R5,#+2
//  288   sprintf(num,pp);
        LDR      R1,??readskinparamsfromfile_0+0x14  ;; pp
        MOV      R0,SP
        SWI      +22
        B        ??readskinparamsfromfile_125
//  289   while ((i<de.file_size)&&(list[i]!=0x0D)) {sprintf(num,"%s%c",num,list[i]);i++;}
??readskinparamsfromfile_126:
        ADD      R0,SP,#+452
        LDRB     R3,[R5, +R0]
        MOV      R2,SP
        LDR      R1,??readskinparamsfromfile_0+0x18  ;; `?<Constant "%s%c">`
        MOV      R0,SP
        SWI      +22
        ADD      R5,R5,#+1
??readskinparamsfromfile_125:
        LDR      R0,[SP, #+32]
        CMP      R5,R0
        BCS      ??readskinparamsfromfile_127
        ADD      R0,SP,#+452
        LDRB     R0,[R5, +R0]
        CMP      R0,#+13
        BNE      ??readskinparamsfromfile_126
//  290   sscanf(num,p_i,&randomy);
??readskinparamsfromfile_127:
        LDR      R2,??DataTable5  ;; randomy
        LDR      R1,??readskinparamsfromfile_0+0x20  ;; p_i
        MOV      R0,SP
        SWI      +501
//  291   i=i+2;
        ADD      R5,R5,#+2
//  292   sprintf(num,pp);
        LDR      R1,??readskinparamsfromfile_0+0x14  ;; pp
        MOV      R0,SP
        SWI      +22
        LDR      R0,[SP, #+32]
        CMP      R5,R0
        BCC      ??readskinparamsfromfile_128
        B        ??readskinparamsfromfile_129
//  293  while ((i<de.file_size)&&(list[i]!=0x0D)) {i++;}
??readskinparamsfromfile_130:
        ADD      R5,R5,#+1
??readskinparamsfromfile_128:
        LDR      R0,[SP, #+32]
        CMP      R5,R0
        BCS      ??readskinparamsfromfile_129
        ADD      R0,SP,#+452
        LDRB     R0,[R5, +R0]
        CMP      R0,#+13
        BNE      ??readskinparamsfromfile_130
//  294   i=i+2;
??readskinparamsfromfile_129:
        ADD      R5,R5,#+2
        B        ??readskinparamsfromfile_131
//  295   while ((i<de.file_size)&&(list[i]!=0x0D)) {sprintf(num,"%s%c",num,list[i]);i++;}
??readskinparamsfromfile_132:
        ADD      R0,SP,#+452
        LDRB     R3,[R5, +R0]
        MOV      R2,SP
        LDR      R1,??readskinparamsfromfile_0+0x18  ;; `?<Constant "%s%c">`
        MOV      R0,SP
        SWI      +22
        ADD      R5,R5,#+1
??readskinparamsfromfile_131:
        LDR      R0,[SP, #+32]
        CMP      R5,R0
        BCS      ??readskinparamsfromfile_133
        ADD      R0,SP,#+452
        LDRB     R0,[R5, +R0]
        CMP      R0,#+13
        BNE      ??readskinparamsfromfile_132
//  296   sscanf(num,p_i,&ringoffx);
??readskinparamsfromfile_133:
        LDR      R2,??DataTable6  ;; ringoffx
        LDR      R1,??readskinparamsfromfile_0+0x20  ;; p_i
        MOV      R0,SP
        SWI      +501
//  297   i=i+2;
        ADD      R5,R5,#+2
//  298   sprintf(num,pp);
        LDR      R1,??readskinparamsfromfile_0+0x14  ;; pp
        MOV      R0,SP
        SWI      +22
        B        ??readskinparamsfromfile_134
        DATA
??readskinparamsfromfile_0:
        DC32     curskin
        DC32     ArrayOfSkins
        DC32     playerfolder
        DC32     `?<Constant "%sskins\\\\%s\\\\params.txt">`
        DC32     name
        DC32     pp
        DC32     `?<Constant "%s%c">`
        DC32     spysokx1
        DC32     p_i
        DC32     spysoky1
        DC32     spysokx2
        DC32     spysoky2
        DC32     spysokfont
        DC32     spysoktextattribute
        DC32     spysoktextcolor
        DC32     spysoktextbackground
        DC32     timex1
        DC32     timey1
        DC32     timex2
        DC32     timey2
        DC32     timefont
        DC32     timetextattribute
        DC32     timetextcolor
        DC32     timetextbackground
        DC32     songx1
        DC32     songy1
        DC32     songx2
        ARM
//  299   while ((i<de.file_size)&&(list[i]!=0x0D)) {sprintf(num,"%s%c",num,list[i]);i++;}
??readskinparamsfromfile_135:
        ADD      R0,SP,#+452
        LDRB     R3,[R5, +R0]
        MOV      R2,SP
        LDR      R1,??DataTable58  ;; `?<Constant "%s%c">`
        MOV      R0,SP
        SWI      +22
        ADD      R5,R5,#+1
??readskinparamsfromfile_134:
        LDR      R0,[SP, #+32]
        CMP      R5,R0
        BCS      ??readskinparamsfromfile_136
        ADD      R0,SP,#+452
        LDRB     R0,[R5, +R0]
        CMP      R0,#+13
        BNE      ??readskinparamsfromfile_135
//  300   sscanf(num,p_i,&ringoffy);
??readskinparamsfromfile_136:
        LDR      R2,??DataTable8  ;; ringoffy
        LDR      R1,??readskinparamsfromfile_70+0x30  ;; p_i
        MOV      R0,SP
        SWI      +501
//  301   i=i+2;
        ADD      R5,R5,#+2
//  302   sprintf(num,pp);
        LDR      R1,??DataTable60  ;; pp
        MOV      R0,SP
        SWI      +22
        LDR      R0,[SP, #+32]
        CMP      R5,R0
        BCC      ??readskinparamsfromfile_137
        B        ??readskinparamsfromfile_138
//  303  while ((i<de.file_size)&&(list[i]!=0x0D)) {i++;}
??readskinparamsfromfile_139:
        ADD      R5,R5,#+1
??readskinparamsfromfile_137:
        LDR      R0,[SP, #+32]
        CMP      R5,R0
        BCS      ??readskinparamsfromfile_138
        ADD      R0,SP,#+452
        LDRB     R0,[R5, +R0]
        CMP      R0,#+13
        BNE      ??readskinparamsfromfile_139
//  304   i=i+2;
??readskinparamsfromfile_138:
        ADD      R5,R5,#+2
        B        ??readskinparamsfromfile_140
//  305   while ((i<de.file_size)&&(list[i]!=0x0D)) {sprintf(num,"%s%c",num,list[i]);i++;}
??readskinparamsfromfile_141:
        ADD      R0,SP,#+452
        LDRB     R3,[R5, +R0]
        MOV      R2,SP
        LDR      R1,??DataTable58  ;; `?<Constant "%s%c">`
        MOV      R0,SP
        SWI      +22
        ADD      R5,R5,#+1
??readskinparamsfromfile_140:
        LDR      R0,[SP, #+32]
        CMP      R5,R0
        BCS      ??readskinparamsfromfile_142
        ADD      R0,SP,#+452
        LDRB     R0,[R5, +R0]
        CMP      R0,#+13
        BNE      ??readskinparamsfromfile_141
//  306   sscanf(num,p_i,&prevx);
??readskinparamsfromfile_142:
        LDR      R2,??DataTable11  ;; prevx
        LDR      R1,??readskinparamsfromfile_70+0x30  ;; p_i
        MOV      R0,SP
        SWI      +501
//  307   i=i+2;
        ADD      R5,R5,#+2
//  308   sprintf(num,pp);
        LDR      R1,??DataTable60  ;; pp
        MOV      R0,SP
        SWI      +22
        B        ??readskinparamsfromfile_143
//  309   while ((i<de.file_size)&&(list[i]!=0x0D)) {sprintf(num,"%s%c",num,list[i]);i++;}
??readskinparamsfromfile_144:
        ADD      R0,SP,#+452
        LDRB     R3,[R5, +R0]
        MOV      R2,SP
        LDR      R1,??DataTable58  ;; `?<Constant "%s%c">`
        MOV      R0,SP
        SWI      +22
        ADD      R5,R5,#+1
??readskinparamsfromfile_143:
        LDR      R0,[SP, #+32]
        CMP      R5,R0
        BCS      ??readskinparamsfromfile_145
        ADD      R0,SP,#+452
        LDRB     R0,[R5, +R0]
        CMP      R0,#+13
        BNE      ??readskinparamsfromfile_144
//  310   sscanf(num,p_i,&prevy);
??readskinparamsfromfile_145:
        LDR      R2,??DataTable14  ;; prevy
        LDR      R1,??readskinparamsfromfile_70+0x30  ;; p_i
        MOV      R0,SP
        SWI      +501
//  311   i=i+2;
        ADD      R5,R5,#+2
//  312   sprintf(num,pp);
        LDR      R1,??DataTable60  ;; pp
        MOV      R0,SP
        SWI      +22
        LDR      R0,[SP, #+32]
        CMP      R5,R0
        BCC      ??readskinparamsfromfile_146
        B        ??readskinparamsfromfile_147
//  313  while ((i<de.file_size)&&(list[i]!=0x0D)) {i++;}
??readskinparamsfromfile_148:
        ADD      R5,R5,#+1
??readskinparamsfromfile_146:
        LDR      R0,[SP, #+32]
        CMP      R5,R0
        BCS      ??readskinparamsfromfile_147
        ADD      R0,SP,#+452
        LDRB     R0,[R5, +R0]
        CMP      R0,#+13
        BNE      ??readskinparamsfromfile_148
//  314   i=i+2;
??readskinparamsfromfile_147:
        ADD      R5,R5,#+2
        B        ??readskinparamsfromfile_149
//  315   while ((i<de.file_size)&&(list[i]!=0x0D)) {sprintf(num,"%s%c",num,list[i]);i++;}
??readskinparamsfromfile_150:
        ADD      R0,SP,#+452
        LDRB     R3,[R5, +R0]
        MOV      R2,SP
        LDR      R1,??DataTable58  ;; `?<Constant "%s%c">`
        MOV      R0,SP
        SWI      +22
        ADD      R5,R5,#+1
??readskinparamsfromfile_149:
        LDR      R0,[SP, #+32]
        CMP      R5,R0
        BCS      ??readskinparamsfromfile_151
        ADD      R0,SP,#+452
        LDRB     R0,[R5, +R0]
        CMP      R0,#+13
        BNE      ??readskinparamsfromfile_150
//  316   sscanf(num,p_i,&nextx);
??readskinparamsfromfile_151:
        LDR      R2,??DataTable17  ;; nextx
        LDR      R1,??readskinparamsfromfile_70+0x30  ;; p_i
        MOV      R0,SP
        SWI      +501
//  317   i=i+2;
        ADD      R5,R5,#+2
//  318   sprintf(num,pp);
        LDR      R1,??DataTable60  ;; pp
        MOV      R0,SP
        SWI      +22
        B        ??readskinparamsfromfile_152
//  319   while ((i<de.file_size)&&(list[i]!=0x0D)) {sprintf(num,"%s%c",num,list[i]);i++;}
??readskinparamsfromfile_153:
        ADD      R0,SP,#+452
        LDRB     R3,[R5, +R0]
        MOV      R2,SP
        LDR      R1,??DataTable58  ;; `?<Constant "%s%c">`
        MOV      R0,SP
        SWI      +22
        ADD      R5,R5,#+1
??readskinparamsfromfile_152:
        LDR      R0,[SP, #+32]
        CMP      R5,R0
        BCS      ??readskinparamsfromfile_154
        ADD      R0,SP,#+452
        LDRB     R0,[R5, +R0]
        CMP      R0,#+13
        BNE      ??readskinparamsfromfile_153
//  320   sscanf(num,p_i,&nexty);
??readskinparamsfromfile_154:
        LDR      R2,??DataTable20  ;; nexty
        LDR      R1,??readskinparamsfromfile_70+0x30  ;; p_i
        MOV      R0,SP
        SWI      +501
//  321   i=i+2;
        ADD      R5,R5,#+2
//  322   sprintf(num,pp);
        LDR      R1,??DataTable60  ;; pp
        MOV      R0,SP
        SWI      +22
        LDR      R0,[SP, #+32]
        CMP      R5,R0
        BCC      ??readskinparamsfromfile_155
        B        ??readskinparamsfromfile_156
//  323  while ((i<de.file_size)&&(list[i]!=0x0D)) {i++;}
??readskinparamsfromfile_157:
        ADD      R5,R5,#+1
??readskinparamsfromfile_155:
        LDR      R0,[SP, #+32]
        CMP      R5,R0
        BCS      ??readskinparamsfromfile_156
        ADD      R0,SP,#+452
        LDRB     R0,[R5, +R0]
        CMP      R0,#+13
        BNE      ??readskinparamsfromfile_157
//  324   i=i+2;
??readskinparamsfromfile_156:
        ADD      R5,R5,#+2
        B        ??readskinparamsfromfile_158
//  325   while ((i<de.file_size)&&(list[i]!=0x0D)) {sprintf(num,"%s%c",num,list[i]);i++;}
??readskinparamsfromfile_159:
        ADD      R0,SP,#+452
        LDRB     R3,[R5, +R0]
        MOV      R2,SP
        LDR      R1,??DataTable58  ;; `?<Constant "%s%c">`
        MOV      R0,SP
        SWI      +22
        ADD      R5,R5,#+1
??readskinparamsfromfile_158:
        LDR      R0,[SP, #+32]
        CMP      R5,R0
        BCS      ??readskinparamsfromfile_160
        ADD      R0,SP,#+452
        LDRB     R0,[R5, +R0]
        CMP      R0,#+13
        BNE      ??readskinparamsfromfile_159
//  326   sscanf(num,p_i,&volpx);
??readskinparamsfromfile_160:
        LDR      R2,??DataTable23  ;; volpx
        LDR      R1,??readskinparamsfromfile_70+0x30  ;; p_i
        MOV      R0,SP
        SWI      +501
//  327   i=i+2;
        ADD      R5,R5,#+2
//  328   sprintf(num,pp);
        LDR      R1,??DataTable60  ;; pp
        MOV      R0,SP
        SWI      +22
        B        ??readskinparamsfromfile_161
//  329   while ((i<de.file_size)&&(list[i]!=0x0D)) {sprintf(num,"%s%c",num,list[i]);i++;}
??readskinparamsfromfile_162:
        ADD      R0,SP,#+452
        LDRB     R3,[R5, +R0]
        MOV      R2,SP
        LDR      R1,??DataTable58  ;; `?<Constant "%s%c">`
        MOV      R0,SP
        SWI      +22
        ADD      R5,R5,#+1
??readskinparamsfromfile_161:
        LDR      R0,[SP, #+32]
        CMP      R5,R0
        BCS      ??readskinparamsfromfile_163
        ADD      R0,SP,#+452
        LDRB     R0,[R5, +R0]
        CMP      R0,#+13
        BNE      ??readskinparamsfromfile_162
//  330   sscanf(num,p_i,&volpy);
??readskinparamsfromfile_163:
        LDR      R2,??DataTable26  ;; volpy
        LDR      R1,??readskinparamsfromfile_70+0x30  ;; p_i
        MOV      R0,SP
        SWI      +501
//  331   i=i+2;
        ADD      R5,R5,#+2
//  332   sprintf(num,pp);
        LDR      R1,??DataTable60  ;; pp
        MOV      R0,SP
        SWI      +22
        LDR      R0,[SP, #+32]
        CMP      R5,R0
        BCC      ??readskinparamsfromfile_164
        B        ??readskinparamsfromfile_165
//  333  while ((i<de.file_size)&&(list[i]!=0x0D)) {i++;}
??readskinparamsfromfile_166:
        ADD      R5,R5,#+1
??readskinparamsfromfile_164:
        LDR      R0,[SP, #+32]
        CMP      R5,R0
        BCS      ??readskinparamsfromfile_165
        ADD      R0,SP,#+452
        LDRB     R0,[R5, +R0]
        CMP      R0,#+13
        BNE      ??readskinparamsfromfile_166
//  334   i=i+2;
??readskinparamsfromfile_165:
        ADD      R5,R5,#+2
        B        ??readskinparamsfromfile_167
//  335   while ((i<de.file_size)&&(list[i]!=0x0D)) {sprintf(num,"%s%c",num,list[i]);i++;}
??readskinparamsfromfile_168:
        ADD      R0,SP,#+452
        LDRB     R3,[R5, +R0]
        MOV      R2,SP
        LDR      R1,??DataTable58  ;; `?<Constant "%s%c">`
        MOV      R0,SP
        SWI      +22
        ADD      R5,R5,#+1
??readskinparamsfromfile_167:
        LDR      R0,[SP, #+32]
        CMP      R5,R0
        BCS      ??readskinparamsfromfile_169
        ADD      R0,SP,#+452
        LDRB     R0,[R5, +R0]
        CMP      R0,#+13
        BNE      ??readskinparamsfromfile_168
//  336   sscanf(num,p_i,&volmx);
??readskinparamsfromfile_169:
        LDR      R2,??DataTable29  ;; volmx
        LDR      R1,??readskinparamsfromfile_70+0x30  ;; p_i
        MOV      R0,SP
        SWI      +501
//  337   i=i+2;
        ADD      R5,R5,#+2
//  338   sprintf(num,pp);
        LDR      R1,??DataTable60  ;; pp
        MOV      R0,SP
        SWI      +22
        B        ??readskinparamsfromfile_170
//  339   while ((i<de.file_size)&&(list[i]!=0x0D)) {sprintf(num,"%s%c",num,list[i]);i++;}
??readskinparamsfromfile_171:
        ADD      R0,SP,#+452
        LDRB     R3,[R5, +R0]
        MOV      R2,SP
        LDR      R1,??DataTable58  ;; `?<Constant "%s%c">`
        MOV      R0,SP
        SWI      +22
        ADD      R5,R5,#+1
??readskinparamsfromfile_170:
        LDR      R0,[SP, #+32]
        CMP      R5,R0
        BCS      ??readskinparamsfromfile_172
        ADD      R0,SP,#+452
        LDRB     R0,[R5, +R0]
        CMP      R0,#+13
        BNE      ??readskinparamsfromfile_171
//  340   sscanf(num,p_i,&volmy);
??readskinparamsfromfile_172:
        LDR      R2,??DataTable32  ;; volmy
        LDR      R1,??readskinparamsfromfile_70+0x30  ;; p_i
        MOV      R0,SP
        SWI      +501
//  341   i=i+2;
        ADD      R5,R5,#+2
//  342   sprintf(num,pp);
        LDR      R1,??DataTable60  ;; pp
        MOV      R0,SP
        SWI      +22
        LDR      R0,[SP, #+32]
        CMP      R5,R0
        BCC      ??readskinparamsfromfile_173
        B        ??readskinparamsfromfile_174
//  343  while ((i<de.file_size)&&(list[i]!=0x0D)) {i++;}
??readskinparamsfromfile_175:
        ADD      R5,R5,#+1
??readskinparamsfromfile_173:
        LDR      R0,[SP, #+32]
        CMP      R5,R0
        BCS      ??readskinparamsfromfile_174
        ADD      R0,SP,#+452
        LDRB     R0,[R5, +R0]
        CMP      R0,#+13
        BNE      ??readskinparamsfromfile_175
//  344   i=i+2;
??readskinparamsfromfile_174:
        ADD      R5,R5,#+2
        B        ??readskinparamsfromfile_176
//  345   while ((i<de.file_size)&&(list[i]!=0x0D)) {sprintf(num,"%s%c",num,list[i]);i++;}
??readskinparamsfromfile_177:
        ADD      R0,SP,#+452
        LDRB     R3,[R5, +R0]
        MOV      R2,SP
        LDR      R1,??DataTable58  ;; `?<Constant "%s%c">`
        MOV      R0,SP
        SWI      +22
        ADD      R5,R5,#+1
??readskinparamsfromfile_176:
        LDR      R0,[SP, #+32]
        CMP      R5,R0
        BCS      ??readskinparamsfromfile_178
        ADD      R0,SP,#+452
        LDRB     R0,[R5, +R0]
        CMP      R0,#+13
        BNE      ??readskinparamsfromfile_177
//  346   sscanf(num,p_i,&play_stopx);
??readskinparamsfromfile_178:
        LDR      R2,??DataTable35  ;; play_stopx
        LDR      R1,??readskinparamsfromfile_70+0x30  ;; p_i
        MOV      R0,SP
        SWI      +501
//  347   i=i+2;
        ADD      R5,R5,#+2
//  348   sprintf(num,pp);
        LDR      R1,??DataTable60  ;; pp
        MOV      R0,SP
        SWI      +22
        B        ??readskinparamsfromfile_179
//  349   while ((i<de.file_size)&&(list[i]!=0x0D)) {sprintf(num,"%s%c",num,list[i]);i++;}
??readskinparamsfromfile_180:
        ADD      R0,SP,#+452
        LDRB     R3,[R5, +R0]
        MOV      R2,SP
        LDR      R1,??DataTable58  ;; `?<Constant "%s%c">`
        MOV      R0,SP
        SWI      +22
        ADD      R5,R5,#+1
??readskinparamsfromfile_179:
        LDR      R0,[SP, #+32]
        CMP      R5,R0
        BCS      ??readskinparamsfromfile_181
        ADD      R0,SP,#+452
        LDRB     R0,[R5, +R0]
        CMP      R0,#+13
        BNE      ??readskinparamsfromfile_180
//  350   sscanf(num,p_i,&play_stopy);
??readskinparamsfromfile_181:
        LDR      R2,??DataTable38  ;; play_stopy
        LDR      R1,??readskinparamsfromfile_70+0x30  ;; p_i
        MOV      R0,SP
        SWI      +501
//  351   i=i+2;
        ADD      R5,R5,#+2
//  352   sprintf(num,pp);
        LDR      R1,??DataTable60  ;; pp
        MOV      R0,SP
        SWI      +22
        LDR      R0,[SP, #+32]
        CMP      R5,R0
        BCC      ??readskinparamsfromfile_182
        B        ??readskinparamsfromfile_183
//  353  while ((i<de.file_size)&&(list[i]!=0x0D)) {i++;}
??readskinparamsfromfile_184:
        ADD      R5,R5,#+1
??readskinparamsfromfile_182:
        LDR      R0,[SP, #+32]
        CMP      R5,R0
        BCS      ??readskinparamsfromfile_183
        ADD      R0,SP,#+452
        LDRB     R0,[R5, +R0]
        CMP      R0,#+13
        BNE      ??readskinparamsfromfile_184
//  354   i=i+2;
??readskinparamsfromfile_183:
        ADD      R5,R5,#+2
        B        ??readskinparamsfromfile_185
//  355   while ((i<de.file_size)&&(list[i]!=0x0D)) {sprintf(num,"%s%c",num,list[i]);i++;}
??readskinparamsfromfile_186:
        ADD      R0,SP,#+452
        LDRB     R3,[R5, +R0]
        MOV      R2,SP
        LDR      R1,??DataTable58  ;; `?<Constant "%s%c">`
        MOV      R0,SP
        SWI      +22
        ADD      R5,R5,#+1
??readskinparamsfromfile_185:
        LDR      R0,[SP, #+32]
        CMP      R5,R0
        BCS      ??readskinparamsfromfile_187
        ADD      R0,SP,#+452
        LDRB     R0,[R5, +R0]
        CMP      R0,#+13
        BNE      ??readskinparamsfromfile_186
//  356   sscanf(num,p_i,&progressbarx1);
??readskinparamsfromfile_187:
        LDR      R2,??DataTable41  ;; progressbarx1
        LDR      R1,??readskinparamsfromfile_70+0x30  ;; p_i
        MOV      R0,SP
        SWI      +501
//  357   i=i+2;
        ADD      R5,R5,#+2
//  358   sprintf(num,pp);
        LDR      R1,??DataTable60  ;; pp
        MOV      R0,SP
        SWI      +22
        B        ??readskinparamsfromfile_188
//  359   while ((i<de.file_size)&&(list[i]!=0x0D)) {sprintf(num,"%s%c",num,list[i]);i++;}
??readskinparamsfromfile_189:
        ADD      R0,SP,#+452
        LDRB     R3,[R5, +R0]
        MOV      R2,SP
        LDR      R1,??DataTable58  ;; `?<Constant "%s%c">`
        MOV      R0,SP
        SWI      +22
        ADD      R5,R5,#+1
??readskinparamsfromfile_188:
        LDR      R0,[SP, #+32]
        CMP      R5,R0
        BCS      ??readskinparamsfromfile_190
        ADD      R0,SP,#+452
        LDRB     R0,[R5, +R0]
        CMP      R0,#+13
        BNE      ??readskinparamsfromfile_189
//  360   sscanf(num,p_i,&progressbary1);
??readskinparamsfromfile_190:
        LDR      R2,??DataTable44  ;; progressbary1
        LDR      R1,??readskinparamsfromfile_70+0x30  ;; p_i
        MOV      R0,SP
        SWI      +501
//  361   i=i+2;
        ADD      R5,R5,#+2
//  362   sprintf(num,pp);
        LDR      R1,??DataTable60  ;; pp
        MOV      R0,SP
        SWI      +22
        B        ??readskinparamsfromfile_191
//  363   while ((i<de.file_size)&&(list[i]!=0x0D)) {sprintf(num,"%s%c",num,list[i]);i++;}
??readskinparamsfromfile_192:
        ADD      R0,SP,#+452
        LDRB     R3,[R5, +R0]
        MOV      R2,SP
        LDR      R1,??DataTable58  ;; `?<Constant "%s%c">`
        MOV      R0,SP
        SWI      +22
        ADD      R5,R5,#+1
??readskinparamsfromfile_191:
        LDR      R0,[SP, #+32]
        CMP      R5,R0
        BCS      ??readskinparamsfromfile_193
        ADD      R0,SP,#+452
        LDRB     R0,[R5, +R0]
        CMP      R0,#+13
        BNE      ??readskinparamsfromfile_192
//  364   sscanf(num,p_i,&progressbarx2);
??readskinparamsfromfile_193:
        LDR      R2,??DataTable47  ;; progressbarx2
        LDR      R1,??readskinparamsfromfile_70+0x30  ;; p_i
        MOV      R0,SP
        SWI      +501
//  365   i=i+2;
        ADD      R5,R5,#+2
//  366   sprintf(num,pp);
        LDR      R1,??DataTable60  ;; pp
        MOV      R0,SP
        SWI      +22
        B        ??readskinparamsfromfile_194
//  367   while ((i<de.file_size)&&(list[i]!=0x0D)) {sprintf(num,"%s%c",num,list[i]);i++;}
??readskinparamsfromfile_195:
        ADD      R0,SP,#+452
        LDRB     R3,[R5, +R0]
        MOV      R2,SP
        LDR      R1,??DataTable58  ;; `?<Constant "%s%c">`
        MOV      R0,SP
        SWI      +22
        ADD      R5,R5,#+1
??readskinparamsfromfile_194:
        LDR      R0,[SP, #+32]
        CMP      R5,R0
        BCS      ??readskinparamsfromfile_196
        ADD      R0,SP,#+452
        LDRB     R0,[R5, +R0]
        CMP      R0,#+13
        BNE      ??readskinparamsfromfile_195
//  368   sscanf(num,p_i,&progressbarcolour);
??readskinparamsfromfile_196:
        LDR      R2,??DataTable50  ;; progressbarcolour
        LDR      R1,??readskinparamsfromfile_70+0x30  ;; p_i
        MOV      R0,SP
        SWI      +501
//  369   i=i+2;
        ADD      R5,R5,#+2
//  370   sprintf(num,pp);
        LDR      R1,??DataTable60  ;; pp
        MOV      R0,SP
        SWI      +22
        LDR      R0,[SP, #+32]
        CMP      R5,R0
        BCC      ??readskinparamsfromfile_197
        B        ??readskinparamsfromfile_198
//  371    while ((i<de.file_size)&&(list[i]!=0x0D)) {i++;}
??readskinparamsfromfile_199:
        ADD      R5,R5,#+1
??readskinparamsfromfile_197:
        LDR      R0,[SP, #+32]
        CMP      R5,R0
        BCS      ??readskinparamsfromfile_198
        ADD      R0,SP,#+452
        LDRB     R0,[R5, +R0]
        CMP      R0,#+13
        BNE      ??readskinparamsfromfile_199
//  372   i=i+2;
??readskinparamsfromfile_198:
        ADD      R5,R5,#+2
        B        ??readskinparamsfromfile_200
//  373   while ((i<de.file_size)&&(list[i]!=0x0D)) {sprintf(num,"%s%c",num,list[i]);i++;}
??readskinparamsfromfile_201:
        ADD      R0,SP,#+452
        LDRB     R3,[R5, +R0]
        MOV      R2,SP
        LDR      R1,??DataTable58  ;; `?<Constant "%s%c">`
        MOV      R0,SP
        SWI      +22
        ADD      R5,R5,#+1
??readskinparamsfromfile_200:
        LDR      R0,[SP, #+32]
        CMP      R5,R0
        BCS      ??readskinparamsfromfile_202
        ADD      R0,SP,#+452
        LDRB     R0,[R5, +R0]
        CMP      R0,#+13
        BNE      ??readskinparamsfromfile_201
//  374   sscanf(num,p_i,&katalogbackgroundcolour);
??readskinparamsfromfile_202:
        LDR      R2,??DataTable117  ;; katalogbackgroundcolour
        LDR      R1,??readskinparamsfromfile_70+0x30  ;; p_i
        MOV      R0,SP
        SWI      +501
//  375   i=i+2;
        ADD      R5,R5,#+2
//  376   sprintf(num,pp);
        LDR      R1,??DataTable60  ;; pp
        MOV      R0,SP
        SWI      +22
        B        ??readskinparamsfromfile_203
//  377   while ((i<de.file_size)&&(list[i]!=0x0D)) {sprintf(num,"%s%c",num,list[i]);i++;}
??readskinparamsfromfile_204:
        ADD      R0,SP,#+452
        LDRB     R3,[R5, +R0]
        MOV      R2,SP
        LDR      R1,??DataTable58  ;; `?<Constant "%s%c">`
        MOV      R0,SP
        SWI      +22
        ADD      R5,R5,#+1
??readskinparamsfromfile_203:
        LDR      R0,[SP, #+32]
        CMP      R5,R0
        BCS      ??readskinparamsfromfile_205
        ADD      R0,SP,#+452
        LDRB     R0,[R5, +R0]
        CMP      R0,#+13
        BNE      ??readskinparamsfromfile_204
//  378   sscanf(num,p_i,&katalogfontcolour);
??readskinparamsfromfile_205:
        LDR      R2,??DataTable75  ;; katalogfontcolour
        LDR      R1,??readskinparamsfromfile_70+0x30  ;; p_i
        MOV      R0,SP
        SWI      +501
//  379   i=i+2;
        ADD      R5,R5,#+2
//  380   sprintf(num,pp);
        LDR      R1,??DataTable60  ;; pp
        MOV      R0,SP
        SWI      +22
        B        ??readskinparamsfromfile_206
//  381   while ((i<de.file_size)&&(list[i]!=0x0D)) {sprintf(num,"%s%c",num,list[i]);i++;}
??readskinparamsfromfile_207:
        ADD      R0,SP,#+452
        LDRB     R3,[R5, +R0]
        MOV      R2,SP
        LDR      R1,??DataTable58  ;; `?<Constant "%s%c">`
        MOV      R0,SP
        SWI      +22
        ADD      R5,R5,#+1
??readskinparamsfromfile_206:
        LDR      R0,[SP, #+32]
        CMP      R5,R0
        BCS      ??readskinparamsfromfile_208
        ADD      R0,SP,#+452
        LDRB     R0,[R5, +R0]
        CMP      R0,#+13
        BNE      ??readskinparamsfromfile_207
//  382   sscanf(num,p_i,&katalogselectedcolour);
??readskinparamsfromfile_208:
        LDR      R2,??DataTable59  ;; katalogselectedcolour
        LDR      R1,??readskinparamsfromfile_70+0x30  ;; p_i
        MOV      R0,SP
        SWI      +501
//  383   i=i+2;
//  384   sprintf(num,pp);
        LDR      R1,??DataTable60  ;; pp
        MOV      R0,SP
        SWI      +22
//  385   FindClose(&de,&err);
        ADD      R1,SP,#+8
        ADD      R0,SP,#+12
        SWI      +109
//  386   }
//  387   fclose(f,&err);
??readskinparamsfromfile_1:
        ADD      R1,SP,#+8
        MOV      R0,R4
        SWI      +13
//  388 }
        ADD      SP,SP,#+996      ;; stack cleaning
        CFI CFA R13+19468
        ADD      SP,SP,#+19456
        CFI CFA R13+12
        POP      {R4,R5,PC}       ;; return
        DATA
??readskinparamsfromfile_70:
        DC32     songy2
        DC32     songfont
        DC32     songtextattribute
        DC32     songtextcolor
        DC32     songtextbackground
        DC32     tracksx1
        DC32     tracksy1
        DC32     tracksx2
        DC32     tracksy2
        DC32     tracksfont
        DC32     trackstextattribute
        DC32     trackstextcolor
        DC32     p_i
        CFI EndBlock cfiBlock7

        RSEG CODE:CODE:NOROOT(2)
        DATA
??DataTable1:
        DC32     trackstextbackground

        RSEG CODE:CODE:NOROOT(2)
        DATA
??DataTable2:
        DC32     volumex

        RSEG CODE:CODE:NOROOT(2)
        DATA
??DataTable3:
        DC32     volumey

        RSEG CODE:CODE:NOROOT(2)
        DATA
??DataTable4:
        DC32     randomx

        RSEG CODE:CODE:NOROOT(2)
        DATA
??DataTable5:
        DC32     randomy

        RSEG CODE:CODE:NOROOT(2)
        DATA
??DataTable6:
        DC32     ringoffx

        RSEG CODE:CODE:NOROOT(2)
        DATA
??DataTable8:
        DC32     ringoffy

        RSEG CODE:CODE:NOROOT(2)
        DATA
??DataTable11:
        DC32     prevx

        RSEG CODE:CODE:NOROOT(2)
        DATA
??DataTable14:
        DC32     prevy

        RSEG CODE:CODE:NOROOT(2)
        DATA
??DataTable17:
        DC32     nextx

        RSEG CODE:CODE:NOROOT(2)
        DATA
??DataTable20:
        DC32     nexty

        RSEG CODE:CODE:NOROOT(2)
        DATA
??DataTable23:
        DC32     volpx

        RSEG CODE:CODE:NOROOT(2)
        DATA
??DataTable26:
        DC32     volpy

        RSEG CODE:CODE:NOROOT(2)
        DATA
??DataTable29:
        DC32     volmx

        RSEG CODE:CODE:NOROOT(2)
        DATA
??DataTable32:
        DC32     volmy

        RSEG CODE:CODE:NOROOT(2)
        DATA
??DataTable35:
        DC32     play_stopx

        RSEG CODE:CODE:NOROOT(2)
        DATA
??DataTable38:
        DC32     play_stopy

        RSEG CODE:CODE:NOROOT(2)
        DATA
??DataTable41:
        DC32     progressbarx1

        RSEG CODE:CODE:NOROOT(2)
        DATA
??DataTable44:
        DC32     progressbary1

        RSEG CODE:CODE:NOROOT(2)
        DATA
??DataTable47:
        DC32     progressbarx2

        RSEG CODE:CODE:NOROOT(2)
        DATA
??DataTable50:
        DC32     progressbarcolour

        RSEG CODE:CODE:NOROOT(2)
        DATA
??DataTable58:
        DC32     `?<Constant "%s%c">`

        RSEG CODE:CODE:NOROOT(2)
        DATA
??DataTable59:
        DC32     katalogselectedcolour

        RSEG CODE:CODE:NOROOT(2)
        DATA
??DataTable60:
        DC32     pp

        RSEG CODE:CODE:NOROOT(2)
        CFI Block cfiBlock8 Using cfiCommon0
        CFI NoFunction
        THUMB
??patch_input??rT:
        BX       PC
        Nop      
        CFI EndBlock cfiBlock8
        REQUIRE patch_input
//  389 

        RSEG CODE:CODE:NOROOT(2)
        CFI Block cfiBlock9 Using cfiCommon1
        CFI Function patch_input
        ARM
//  390 void patch_input(INPUTDIA_DESC* inp)
//  391 {
patch_input:
        PUSH     {R4,R5,LR}
        CFI ?RET Frame(CFA, -4)
        CFI R5 Frame(CFA, -8)
        CFI R4 Frame(CFA, -12)
        CFI CFA R13+12
        MOV      R4,R0
//  392   inp->rc.x=0;
        MOV      R0,#+0
        STRH     R0,[R4, #+24]
//  393   inp->rc.y=HeaderH()+1+YDISP;
        SWI      +33162
        ADD      R0,R0,#+1
        STRH     R0,[R4, #+26]
//  394   inp->rc.x2=ScreenW()-1;
        SWI      +33160
        SUB      R0,R0,#+1
        STRH     R0,[R4, #+28]
//  395   inp->rc.y2=ScreenH()-SoftkeyH()-1;
        SWI      +33161
        MOV      R5,R0
        SWI      +33163
        SUB      R0,R5,R0
        SUB      R0,R0,#+1
        STRH     R0,[R4, #+30]
//  396 }
        POP      {R4,R5,PC}       ;; return
        CFI EndBlock cfiBlock9

        RSEG CODE:CODE:NOROOT(2)
        CFI Block cfiBlock10 Using cfiCommon0
        CFI NoFunction
        THUMB
??patch_header2??rT:
        BX       PC
        Nop      
        CFI EndBlock cfiBlock10
        REQUIRE patch_header2
//  397 

        RSEG CODE:CODE:NOROOT(2)
        CFI Block cfiBlock11 Using cfiCommon1
        CFI Function patch_header2
        ARM
//  398 void patch_header2(HEADER_DESC* head)
//  399 {
patch_header2:
        PUSH     {R4,LR}
        CFI ?RET Frame(CFA, -4)
        CFI R4 Frame(CFA, -8)
        CFI CFA R13+8
        MOV      R4,R0
//  400   head->rc.x=0;
        MOV      R0,#+0
        STRH     R0,[R4, #+0]
//  401   head->rc.y=YDISP;
        STRH     R0,[R4, #+2]
//  402   head->rc.x2=ScreenW()-1;
        SWI      +33160
        SUB      R0,R0,#+1
        STRH     R0,[R4, #+4]
//  403   head->rc.y2=HeaderH()+YDISP;
        SWI      +33162
        STRH     R0,[R4, #+6]
//  404 }
        POP      {R4,PC}          ;; return
        CFI EndBlock cfiBlock11

        RSEG CODE:CODE:NOROOT(2)
        CFI Block cfiBlock12 Using cfiCommon0
        CFI NoFunction
        THUMB
??sf_inp_onkey??rT:
        BX       PC
        Nop      
        CFI EndBlock cfiBlock12
        REQUIRE sf_inp_onkey
//  405 

        RSEG DATA_I:DATA:SORT:NOROOT(2)
//  406 SOFTKEY_DESC menu_sk[]=
menu_sk:
        DS8 24
        REQUIRE `?<Initializer for menu_sk>`
//  407 {
//  408   {0x0018,0x0000,(int)"Select"},
//  409   {0x0001,0x0000,(int)"Back"},
//  410   {0x003D,0x0000,(int)LGP_DOIT_PIC}
//  411 };
//  412 

        RSEG DATA_I:DATA:SORT:NOROOT(2)
//  413 SOFTKEYSTAB menu_skt=
menu_skt:
        DS8 8
        REQUIRE `?<Initializer for menu_skt>`
//  414 {
//  415   menu_sk,0
//  416 };
//  417 

        RSEG CODE:CODE:NOROOT(2)
        CFI Block cfiBlock13 Using cfiCommon1
        CFI Function sf_inp_onkey
        ARM
//  418 int sf_inp_onkey(GUI *data, GUI_MSG *msg)
//  419 {
sf_inp_onkey:
        PUSH     {LR}
        CFI ?RET Frame(CFA, -4)
        CFI CFA R13+4
        SUB      SP,SP,#+44
        CFI CFA R13+48
//  420   if (msg->keys==0xFFF)
        LDRSH    R1,[R1, #+2]
        MOV      R2,#+255
        ORR      R2,R2,#0xF00
        CMP      R1,R2
        BNE      ??sf_inp_onkey_0
//  421   {
//  422     EDITCONTROL ec;
//  423     ExtractEditControl(data,1,&ec);
        MOV      R2,SP
        MOV      R1,#+1
        SWI      +361
//  424     ws_2str(ec.pWS,PlaylistToSave,255);
        MOV      R2,#+255
        LDR      R1,??DataTable62  ;; PlaylistToSave
        LDR      R0,[SP, #+40]
        SWI      +163
//  425     SUBPROC((void *)SavePlaylist);
        LDR      R0,??sf_inp_onkey_1  ;; SavePlaylist
        SWI      +369
//  426     return(1); //Close
        MOV      R0,#+1
        ADD      SP,SP,#+44
        CFI CFA R13+4
        POP      {PC}
        CFI CFA R13+48
//  427   }
//  428   return(0);
??sf_inp_onkey_0:
        MOV      R0,#+0
        ADD      SP,SP,#+44       ;; stack cleaning
        CFI CFA R13+4
        POP      {PC}             ;; return
        DATA
??sf_inp_onkey_1:
        DC32     SavePlaylist
        CFI EndBlock cfiBlock13
//  429 }

        RSEG CODE:CODE:NOROOT(2)
        CFI Block cfiBlock14 Using cfiCommon0
        CFI NoFunction
        THUMB
??sf_inp_ghook??rT:
        BX       PC
        Nop      
        CFI EndBlock cfiBlock14
        REQUIRE sf_inp_ghook
//  430 

        RSEG CODE:CODE:NOROOT(2)
        CFI Block cfiBlock15 Using cfiCommon1
        CFI Function sf_inp_ghook
        ARM
//  431 void sf_inp_ghook(GUI *data, int cmd)
//  432 {
sf_inp_ghook:
        PUSH     {R4,LR}
        CFI ?RET Frame(CFA, -4)
        CFI R4 Frame(CFA, -8)
        CFI CFA R13+8
        SUB      SP,SP,#+44
        CFI CFA R13+52
        MOV      R4,R0
//  433   static SOFTKEY_DESC sk={0x0FFF,0x0000,(int)LG_SAVE};
//  434   EDITCONTROL ec;
//  435   if (cmd==7)
        CMP      R1,#+7
        BNE      ??sf_inp_ghook_0
//  436   {
//  437     SetSoftKey(data,&sk,SET_SOFT_KEY_N);
        MOV      R2,#+1
        LDR      R1,??sf_inp_ghook_1  ;; ??sk
        SWI      +360
//  438     ExtractEditControl(data,1,&ec);
        MOV      R2,SP
        MOV      R1,#+1
        MOV      R0,R4
        SWI      +361
//  439   }
//  440 }
??sf_inp_ghook_0:
        ADD      SP,SP,#+44       ;; stack cleaning
        CFI CFA R13+8
        POP      {R4,PC}          ;; return
        DATA
??sf_inp_ghook_1:
        DC32     ??sk
        CFI EndBlock cfiBlock15

        RSEG CODE:CODE:NOROOT(2)
        CFI Block cfiBlock16 Using cfiCommon0
        CFI NoFunction
        THUMB
??sf_inp_locret??rT:
        BX       PC
        Nop      
        CFI EndBlock cfiBlock16
        REQUIRE sf_inp_locret

        RSEG DATA_I:DATA:SORT:NOROOT(2)
??sk:
        DS8 8
        REQUIRE `?<Initializer for sk>`
//  441 

        RSEG CODE:CODE:NOROOT(2)
        CFI Block cfiBlock17 Using cfiCommon1
        CFI Function sf_inp_locret
        ARM
//  442 void sf_inp_locret(void){}
sf_inp_locret:
        BX       LR               ;; return
        CFI EndBlock cfiBlock17

        RSEG CODE:CODE:NOROOT(2)
        CFI Block cfiBlock18 Using cfiCommon0
        CFI NoFunction
        THUMB
??CreateSaveAsDialog??rT:
        BX       PC
        Nop      
        CFI EndBlock cfiBlock18
        REQUIRE CreateSaveAsDialog
//  443 

        RSEG DATA_I:DATA:SORT:NOROOT(2)
//  444 HEADER_DESC sf_inp_hdr={0,0,0,0,NULL,(int)LG_ENTER_NAME,LGP_NULL};
sf_inp_hdr:
        DS8 20
        REQUIRE `?<Initializer for sf_inp_hdr>`
//  445 

        RSEG DATA_I:DATA:SORT:NOROOT(2)
//  446 INPUTDIA_DESC sf_inp_desc=
sf_inp_desc:
        DS8 56
        REQUIRE `?<Initializer for sf_inp_desc>`
//  447 {
//  448   1,
//  449   sf_inp_onkey,
//  450   sf_inp_ghook,
//  451   (void *)sf_inp_locret,
//  452   0,
//  453   &menu_skt,
//  454   {0,0,0,0},
//  455   4,
//  456   100,
//  457   101,
//  458   0,
//  459   0,
//  460   0x40000000
//  461 };
//  462 

        RSEG CODE:CODE:NOROOT(2)
        CFI Block cfiBlock19 Using cfiCommon1
        CFI Function CreateSaveAsDialog
        ARM
//  463 void CreateSaveAsDialog(void)
//  464 {
CreateSaveAsDialog:
        PUSH     {R4,R5,LR}
        CFI ?RET Frame(CFA, -4)
        CFI R5 Frame(CFA, -8)
        CFI R4 Frame(CFA, -12)
        CFI CFA R13+12
        SUB      SP,SP,#+44
        CFI CFA R13+56
//  465   void *ma=malloc_adr();
        SWI      +32788
        MOV      R4,R0
//  466   void *eq;
//  467   EDITCONTROL ec;
//  468   utf8_2ws(wss.ws2,PlaylistToSave,126);
        MOV      R2,#+126
        LDR      R1,??DataTable62  ;; PlaylistToSave
        LDR      R0,??DataTable64  ;; wss + 4
        LDR      R0,[R0, #+0]
        SWI      +483
//  469   PrepareEditControl(&ec);
        MOV      R0,SP
        SWI      +356
//  470   eq=AllocEQueue(ma,mfree_adr());
        SWI      +32789
        MOV      R1,R0
        MOV      R0,R4
        SWI      +355
        MOV      R5,R0
//  471   ConstructEditControl(&ec,3,0x40,wss.ws2,128);
        MOV      R0,#+128
        PUSH     {R0}
        CFI CFA R13+60
        LDR      R0,??DataTable64  ;; wss + 4
        LDR      R3,[R0, #+0]
        MOV      R2,#+64
        MOV      R1,#+3
        ADD      R0,SP,#+4
        SWI      +357
//  472   AddEditControlToEditQend(eq,&ec,ma);
        MOV      R2,R4
        ADD      R1,SP,#+4
        MOV      R0,R5
        SWI      +358
//  473   
//  474   patch_header2(&sf_inp_hdr);
        LDR      R0,??CreateSaveAsDialog_0  ;; sf_inp_hdr
        BL       patch_header2
//  475   patch_input(&sf_inp_desc);
        LDR      R0,??CreateSaveAsDialog_0+0x4  ;; sf_inp_desc
        BL       patch_input
//  476   CreateInputTextDialog(&sf_inp_desc,&sf_inp_hdr,eq,1,0);
        MOV      R0,#+0
        PUSH     {R0}
        CFI CFA R13+64
        MOV      R3,#+1
        MOV      R2,R5
        LDR      R1,??CreateSaveAsDialog_0  ;; sf_inp_hdr
        LDR      R0,??CreateSaveAsDialog_0+0x4  ;; sf_inp_desc
        SWI      +359
//  477 }
        ADD      SP,SP,#+52       ;; stack cleaning
        CFI CFA R13+12
        POP      {R4,R5,PC}       ;; return
        DATA
??CreateSaveAsDialog_0:
        DC32     sf_inp_hdr
        DC32     sf_inp_desc
        CFI EndBlock cfiBlock19

        RSEG CODE:CODE:NOROOT(2)
        DATA
??DataTable62:
        DC32     PlaylistToSave

        RSEG CODE:CODE:NOROOT(2)
        DATA
??DataTable64:
        DC32     wss + 4

        RSEG CODE:CODE:NOROOT(2)
        CFI Block cfiBlock20 Using cfiCommon0
        CFI NoFunction
        THUMB
??VporiadkuvatySpysok??rT:
        BX       PC
        Nop      
        CFI EndBlock cfiBlock20
        REQUIRE VporiadkuvatySpysok
//  478 

        RSEG CODE:CODE:NOROOT(2)
        CFI Block cfiBlock21 Using cfiCommon1
        CFI Function VporiadkuvatySpysok
        ARM
//  479 void VporiadkuvatySpysok()
//  480 {
VporiadkuvatySpysok:
        PUSH     {R4-R9,LR}
        CFI ?RET Frame(CFA, -4)
        CFI R9 Frame(CFA, -8)
        CFI R8 Frame(CFA, -12)
        CFI R7 Frame(CFA, -16)
        CFI R6 Frame(CFA, -20)
        CFI R5 Frame(CFA, -24)
        CFI R4 Frame(CFA, -28)
        CFI CFA R13+28
//  481   for (int i=0;i<NumberOfTracks-1;i++)
        MOV      R4,#+0
        LDR      R6,??DataTable65  ;; spysok + 32640
        LDR      R5,??DataTable74  ;; spysok
        B        ??VporiadkuvatySpysok_0
//  482   {
//  483     for (int j=i+1;j<NumberOfTracks;j++)
//  484     {
//  485       if (strcmp(spysok[1][i],spysok[1][j])>0)
??VporiadkuvatySpysok_1:
        MOV      R1,R8
        MOV      R0,R6
        SWI      +25
        CMP      R0,#+1
        BLT      ??VporiadkuvatySpysok_2
//  486       {
//  487         sprintf(name,spysok[0][i]);
        MOV      R1,R5
        LDR      R0,??DataTable116  ;; name
        SWI      +22
//  488         sprintf(spysok[0][i],spysok[0][j]);
        MOV      R1,R9
        MOV      R0,R5
        SWI      +22
//  489         sprintf(spysok[0][j],name);
        LDR      R1,??DataTable116  ;; name
        MOV      R0,R9
        SWI      +22
//  490         sprintf(name,spysok[1][i]);
        MOV      R1,R6
        LDR      R0,??DataTable116  ;; name
        SWI      +22
//  491         sprintf(spysok[1][i],spysok[1][j]);
        MOV      R1,R8
        MOV      R0,R6
        SWI      +22
//  492         sprintf(spysok[1][j],name);
        LDR      R1,??DataTable116  ;; name
        MOV      R0,R8
        SWI      +22
//  493       }
//  494     }
??VporiadkuvatySpysok_2:
        ADD      R7,R7,#+1
        ADD      R9,R9,#+128
        ADD      R8,R8,#+128
??VporiadkuvatySpysok_3:
        LDR      R0,??DataTable72  ;; NumberOfTracks
        LDR      R0,[R0, #+0]
        CMP      R7,R0
        BLT      ??VporiadkuvatySpysok_1
        ADD      R4,R4,#+1
        ADD      R5,R5,#+128
        ADD      R6,R6,#+128
??VporiadkuvatySpysok_0:
        LDR      R0,??DataTable72  ;; NumberOfTracks
        LDR      R0,[R0, #+0]
        SUB      R0,R0,#+1
        CMP      R4,R0
        POPGE    {R4-R9,PC}
        ADD      R7,R4,#+1
        MOV      R0,#+128
        ORR      R0,R0,#0x7F00
        LDR      R1,??DataTable74  ;; spysok
        ADD      R1,R1,R7, LSL #+7
        ADD      R8,R0,R1
        LDR      R0,??DataTable74  ;; spysok
        ADD      R9,R0,R7, LSL #+7
        B        ??VporiadkuvatySpysok_3
        CFI EndBlock cfiBlock21
//  495   }
//  496 }

        RSEG CODE:CODE:NOROOT(2)
        DATA
??DataTable65:
        DC32     spysok + 32640

        RSEG CODE:CODE:NOROOT(2)
        DATA
??DataTable72:
        DC32     NumberOfTracks

        RSEG CODE:CODE:NOROOT(2)
        DATA
??DataTable74:
        DC32     spysok

        RSEG CODE:CODE:NOROOT(2)
        CFI Block cfiBlock22 Using cfiCommon0
        CFI NoFunction
        THUMB
??GetKatalogfontcolour??rT:
        BX       PC
        Nop      
        CFI EndBlock cfiBlock22
        REQUIRE GetKatalogfontcolour
//  497     

        RSEG CODE:CODE:NOROOT(2)
        CFI Block cfiBlock23 Using cfiCommon1
        CFI Function GetKatalogfontcolour
        ARM
//  498 int GetKatalogfontcolour()
//  499 {
//  500   return(katalogfontcolour);
GetKatalogfontcolour:
        LDR      R0,??DataTable75  ;; katalogfontcolour
        LDR      R0,[R0, #+0]
        BX       LR               ;; return
        CFI EndBlock cfiBlock23
//  501 }

        RSEG CODE:CODE:NOROOT(2)
        DATA
??DataTable75:
        DC32     katalogfontcolour

        RSEG CODE:CODE:NOROOT(2)
        CFI Block cfiBlock24 Using cfiCommon0
        CFI NoFunction
        THUMB
??ZapovnytyTaVidsortuvatyKatalog??rT:
        BX       PC
        Nop      
        CFI EndBlock cfiBlock24
        REQUIRE ZapovnytyTaVidsortuvatyKatalog
//  502 

        RSEG DATA_Z:DATA:SORT:NOROOT(2)
//  503 char katalog[256][128];
katalog:
        DS8 32768

        RSEG DATA_Z:DATA:SORT:NOROOT(2)
//  504 int kataloglength,katalogcurent;
kataloglength:
        DS8 4

        RSEG DATA_Z:DATA:SORT:NOROOT(2)
katalogcurent:
        DS8 4

        RSEG DATA_Z:DATA:SORT:NOROOT(2)
//  505 int katalogselected[256];
katalogselected:
        DS8 1024

        RSEG DATA_I:DATA:SORT:NOROOT(2)
//  506 char curentfolder[255]="4:";
curentfolder:
        DS8 256
        REQUIRE `?<Initializer for curentfolder>`
//  507 /*
//  508 char folders[128][128];
//  509 int kfolders;
//  510 char files[128][128];
//  511 int kfiles;
//  512 
//  513 void VporiadkuvatyKatalog()
//  514 {
//  515   if (kfiles>1)
//  516   {
//  517     for (int i=0;i<kfiles-1;i++)
//  518     {
//  519       for (int j=i+1;j<kfiles;j++)
//  520       {
//  521         if (strcmp(files[i],files[j])>0)
//  522         {
//  523           sprintf(name,files[i]);
//  524           sprintf(files[i],files[j]);
//  525           sprintf(files[j],name);
//  526         }
//  527       }
//  528     }
//  529   }
//  530   if (kfolders>1)
//  531   {
//  532     for (int i=0;i<kfolders-1;i++)
//  533     {
//  534       for (int j=i+1;j<kfolders;j++)
//  535       {
//  536         if (strcmp(folders[i],folders[j])>0)
//  537         {
//  538           sprintf(name,folders[i]);
//  539           sprintf(folders[i],folders[j]);
//  540           sprintf(folders[j],name);
//  541         }
//  542       }
//  543     }
//  544   }
//  545 }
//  546 */

        RSEG CODE:CODE:NOROOT(2)
        CFI Block cfiBlock25 Using cfiCommon1
        CFI Function ZapovnytyTaVidsortuvatyKatalog
        ARM
//  547 void ZapovnytyTaVidsortuvatyKatalog(char *folder)
//  548 {
ZapovnytyTaVidsortuvatyKatalog:
        PUSH     {R4-R7,LR}
        CFI ?RET Frame(CFA, -4)
        CFI R7 Frame(CFA, -8)
        CFI R6 Frame(CFA, -12)
        CFI R5 Frame(CFA, -16)
        CFI R4 Frame(CFA, -20)
        CFI CFA R13+20
        SUB      SP,SP,#+832
        CFI CFA R13+852
        MOV      R4,R0
//  549   DIR_ENTRY de;
//  550   unsigned int err;
//  551   char path[256];
//  552   kataloglength=1;
        LDR      R0,??DataTable95  ;; kataloglength
        MOV      R1,#+1
        STR      R1,[R0, #+0]
//  553   sprintf(katalog[0],"..");
        ADR      R1,??ZapovnytyTaVidsortuvatyKatalog_0  ;; ".."
        LDR      R0,??DataTable96  ;; katalog
        SWI      +22
//  554   /*kfolders=0;
//  555   kfiles=0;*/
//  556   sprintf(path,"%s\\*",folder);
        MOV      R2,R4
        LDR      R1,??ZapovnytyTaVidsortuvatyKatalog_0+0x4  ;; `?<Constant "%s\\\\*">`
        ADD      R0,SP,#+448
        SWI      +22
//  557   katalogcurent=0;
        LDR      R0,??DataTable89  ;; katalogcurent
        MOV      R1,#+0
        STR      R1,[R0, #+0]
//  558   if (FindFirstFile(&de,path,&err))
        ADD      R2,SP,#+4
        ADD      R1,SP,#+448
        ADD      R0,SP,#+8
        SWI      +107
        CMP      R0,#+0
        BEQ      ??ZapovnytyTaVidsortuvatyKatalog_1
//  559   {
//  560     do
//  561     {
//  562       char extension[3];
//  563       char file_name[128];
//  564       sprintf(file_name,de.file_name);
??ZapovnytyTaVidsortuvatyKatalog_2:
        ADD      R1,SP,#+177
        ADD      R0,SP,#+704
        SWI      +22
//  565       if (IsFile(file_name))
        ADD      R0,SP,#+704
        BL       IsFile
        CMP      R0,#+0
        BEQ      ??ZapovnytyTaVidsortuvatyKatalog_3
//  566       {
//  567         sprintf(extension,"%c%c%c",file_name[strlen(file_name)-3],file_name[strlen(file_name)-2],file_name[strlen(file_name)-1]);
        ADD      R0,SP,#+704
        SWI      +27
        MOV      R4,R0
        ADD      R0,SP,#+704
        SWI      +27
        MOV      R5,R0
        ADD      R0,SP,#+704
        SWI      +27
        ADD      R1,SP,#+704
        ADD      R1,R4,R1
        LDRB     R1,[R1, #-1]
        PUSH     {R1}
        CFI CFA R13+856
        ADD      R1,SP,#+708
        ADD      R1,R5,R1
        LDRB     R3,[R1, #-2]
        ADD      R1,SP,#+708
        ADD      R0,R0,R1
        LDRB     R2,[R0, #-3]
        LDR      R1,??DataTable79  ;; `?<Constant "%c%c%c">`
        ADD      R0,SP,#+4
        SWI      +22
//  568         if (((strcmp(extension,format_1))==0)||((strcmp(extension,format_2))==0)||((strcmp(extension,format_3))==0)||((strcmp(extension,format_4))==0))
        LDR      R1,??DataTable80  ;; format_1
        ADD      R0,SP,#+4
        SWI      +25
        CMP      R0,#+0
        ADD      SP,SP,#+4        ;; stack cleaning
        CFI CFA R13+852
        BEQ      ??ZapovnytyTaVidsortuvatyKatalog_3
        LDR      R1,??DataTable81  ;; format_2
        MOV      R0,SP
        SWI      +25
        CMP      R0,#+0
        BEQ      ??ZapovnytyTaVidsortuvatyKatalog_3
        LDR      R1,??DataTable82  ;; format_3
        MOV      R0,SP
        SWI      +25
        CMP      R0,#+0
        BEQ      ??ZapovnytyTaVidsortuvatyKatalog_3
        LDR      R1,??DataTable83  ;; format_4
        MOV      R0,SP
        SWI      +25
        CMP      R0,#+0
        BNE      ??ZapovnytyTaVidsortuvatyKatalog_4
//  569         {
//  570           sprintf(katalog[kataloglength],file_name);
??ZapovnytyTaVidsortuvatyKatalog_3:
        ADD      R1,SP,#+704
        LDR      R0,??DataTable95  ;; kataloglength
        LDR      R0,[R0, #+0]
        LDR      R2,??DataTable96  ;; katalog
        ADD      R0,R2,R0, LSL #+7
        SWI      +22
//  571           kataloglength++;
        LDR      R0,??DataTable95  ;; kataloglength
        LDR      R1,??DataTable95  ;; kataloglength
        LDR      R1,[R1, #+0]
        ADD      R1,R1,#+1
        STR      R1,[R0, #+0]
//  572         }
//  573       }
//  574       else
//  575       {
//  576         sprintf(katalog[kataloglength],file_name);
//  577         kataloglength++;
//  578       }
//  579     }
//  580     while(FindNextFile(&de,&err));
??ZapovnytyTaVidsortuvatyKatalog_4:
        ADD      R1,SP,#+4
        ADD      R0,SP,#+8
        SWI      +108
        CMP      R0,#+0
        BNE      ??ZapovnytyTaVidsortuvatyKatalog_2
//  581   }
//  582   FindClose(&de,&err);
??ZapovnytyTaVidsortuvatyKatalog_1:
        ADD      R1,SP,#+4
        ADD      R0,SP,#+8
        SWI      +109
//  583   /*for (int i=1;i<kataloglength;i++)
//  584   {
//  585     if (IsFile(katalog[i]))
//  586       {
//  587         sprintf(files[kfiles],katalog[i]);
//  588         kfiles++;
//  589       }
//  590       else
//  591       {
//  592         sprintf(folders[kfolders],katalog[i]);
//  593         kfolders++;
//  594       }
//  595   }
//  596   VporiadkuvatyKatalog();
//  597   kataloglength=1+kfolders+kfiles;
//  598   for (int i=1;i<kfolders+1;i++)
//  599   {
//  600     sprintf(katalog[i],folders[i+1]);
//  601   }
//  602   for (int i=kfolders+1;i<kataloglength;i++)
//  603   {
//  604     sprintf(katalog[i],files[i+1-kfolders]);
//  605   }
//  606   sprintf(name," %i %i",kfiles,kfolders);
//  607   ShowMSG(1,(int)name);*/
//  608   if (kataloglength>1) {katalogcurent=1;}
        LDR      R0,??DataTable95  ;; kataloglength
        LDR      R0,[R0, #+0]
        CMP      R0,#+2
        LDRGE    R0,??DataTable89  ;; katalogcurent
        MOVGE    R1,#+1
        STRGE    R1,[R0, #+0]
//  609   
//  610   if (kataloglength>2)
        LDR      R0,??DataTable95  ;; kataloglength
        LDR      R0,[R0, #+0]
        CMP      R0,#+3
        BLT      ??ZapovnytyTaVidsortuvatyKatalog_5
//  611   {
//  612     for (int i=1;i<kataloglength-1;i++)
        MOV      R4,#+1
        LDR      R5,??DataTable91  ;; katalog + 128
        B        ??ZapovnytyTaVidsortuvatyKatalog_6
//  613     {
//  614       for (int j=i+1;j<kataloglength;j++)
//  615       {
//  616         if (strcmp_nocase(katalog[i],katalog[j])>0)
??ZapovnytyTaVidsortuvatyKatalog_7:
        MOV      R1,R6
        MOV      R0,R5
        BL       strcmp_nocase
        CMP      R0,#+1
        BLT      ??ZapovnytyTaVidsortuvatyKatalog_8
//  617         {
//  618           sprintf(name,katalog[i]);
        MOV      R1,R5
        LDR      R0,??DataTable116  ;; name
        SWI      +22
//  619           sprintf(katalog[i],katalog[j]);
        MOV      R1,R6
        MOV      R0,R5
        SWI      +22
//  620           sprintf(katalog[j],name);
        LDR      R1,??DataTable116  ;; name
        MOV      R0,R6
        SWI      +22
//  621         }
//  622       }
??ZapovnytyTaVidsortuvatyKatalog_8:
        ADD      R7,R7,#+1
        ADD      R6,R6,#+128
??ZapovnytyTaVidsortuvatyKatalog_9:
        LDR      R0,??DataTable95  ;; kataloglength
        LDR      R0,[R0, #+0]
        CMP      R7,R0
        BLT      ??ZapovnytyTaVidsortuvatyKatalog_7
        ADD      R4,R4,#+1
        ADD      R5,R5,#+128
??ZapovnytyTaVidsortuvatyKatalog_6:
        LDR      R0,??DataTable95  ;; kataloglength
        LDR      R0,[R0, #+0]
        SUB      R0,R0,#+1
        CMP      R4,R0
        BGE      ??ZapovnytyTaVidsortuvatyKatalog_5
        ADD      R7,R4,#+1
        LDR      R0,??DataTable96  ;; katalog
        ADD      R6,R0,R7, LSL #+7
        B        ??ZapovnytyTaVidsortuvatyKatalog_9
//  623     }
//  624   }
//  625 }
??ZapovnytyTaVidsortuvatyKatalog_5:
        ADD      SP,SP,#+832      ;; stack cleaning
        CFI CFA R13+20
        POP      {R4-R7,PC}       ;; return
        DATA
??ZapovnytyTaVidsortuvatyKatalog_0:
        DC8      "..",+0
        DC32     `?<Constant "%s\\\\*">`
        CFI EndBlock cfiBlock25

        RSEG CODE:CODE:NOROOT(2)
        DATA
??DataTable79:
        DC32     `?<Constant "%c%c%c">`

        RSEG CODE:CODE:NOROOT(2)
        DATA
??DataTable80:
        DC32     format_1

        RSEG CODE:CODE:NOROOT(2)
        DATA
??DataTable81:
        DC32     format_2

        RSEG CODE:CODE:NOROOT(2)
        DATA
??DataTable82:
        DC32     format_3

        RSEG CODE:CODE:NOROOT(2)
        DATA
??DataTable83:
        DC32     format_4

        RSEG CODE:CODE:NOROOT(2)
        DATA
??DataTable89:
        DC32     katalogcurent

        RSEG CODE:CODE:NOROOT(2)
        DATA
??DataTable91:
        DC32     katalog + 128

        RSEG CODE:CODE:NOROOT(2)
        DATA
??DataTable95:
        DC32     kataloglength

        RSEG CODE:CODE:NOROOT(2)
        DATA
??DataTable96:
        DC32     katalog

        RSEG CODE:CODE:NOROOT(2)
        CFI Block cfiBlock26 Using cfiCommon0
        CFI NoFunction
        THUMB
??ShowMess??rT:
        BX       PC
        Nop      
        CFI EndBlock cfiBlock26
        REQUIRE ShowMess
//  626     
//  627 

        RSEG DATA_C:CONST:SORT:NOROOT(2)
//  628 const char color1[4]={0x50,0x00,0x00,0x20};
color1:
        DATA
        DC8 80, 0, 0, 32

        RSEG DATA_C:CONST:SORT:NOROOT(2)
//  629 const char color2[4]={0x99,0x99,0x99,0x50};
color2:
        DATA
        DC8 153, 153, 153, 80

        RSEG DATA_Z:DATA:SORT:NOROOT(2)
//  630 GBSTMR MessageTimer;
MessageTimer:
        DS8 16

        RSEG DATA_Z:DATA:SORT:NOROOT(2)
//  631 int toview=0;
toview:
        DS8 4

        RSEG DATA_Z:DATA:SORT:NOROOT(2)
//  632 char *texttoview;
texttoview:
        DS8 4

        RSEG CODE:CODE:NOROOT(2)
        CFI Block cfiBlock27 Using cfiCommon1
        CFI Function ShowMess
        ARM
//  633 void ShowMess()
//  634 {
ShowMess:
        PUSH     {LR}
        CFI ?RET Frame(CFA, -4)
        CFI CFA R13+4
//  635   if (toview)
        LDR      R0,??DataTable107  ;; toview
        LDR      R0,[R0, #+0]
        CMP      R0,#+0
        POPEQ    {PC}
//  636   {
//  637     int textfontsize=FONT_MEDIUM;
//  638     DrawRectangle(0,0,132,176,0,color1,color1);
        LDR      R0,??ShowMess_0+0x4  ;; color1
        PUSH     {R0}
        CFI CFA R13+8
        PUSH     {R0}
        CFI CFA R13+12
        MOV      R0,#+0
        PUSH     {R0}
        CFI CFA R13+16
        MOV      R3,#+176
        MOV      R2,#+132
        MOV      R1,#+0
        SWI      +436
//  639     DrawRectangle(10,10,120,166,0,GetPaletteAdrByColorIndex(1),color2);
        MOV      R0,#+1
        SWI      +302
        LDR      R1,??ShowMess_0+0x8  ;; color2
        PUSH     {R1}
        CFI CFA R13+20
        PUSH     {R0}
        CFI CFA R13+24
        MOV      R0,#+0
        PUSH     {R0}
        CFI CFA R13+28
        MOV      R3,#+166
        MOV      R2,#+120
        MOV      R1,#+10
        MOV      R0,R1
        SWI      +436
//  640     utf8_2ws(wss.ws1,texttoview,320);
        MOV      R2,#+320
        LDR      R0,??DataTable108  ;; texttoview
        LDR      R1,[R0, #+0]
        LDR      R0,??DataTable103  ;; wss
        LDR      R0,[R0, #+0]
        SWI      +483
//  641     if ((Get_WS_width(wss.ws1,7))==0){wsprintf(wss.ws1,"%t",texttoview);}
        MOV      R1,#+7
        LDR      R0,??DataTable103  ;; wss
        LDR      R0,[R0, #+0]
        SWI      +520
        CMP      R0,#+0
        ADD      SP,SP,#+24       ;; stack cleaning
        CFI CFA R13+4
        BNE      ??ShowMess_1
        LDR      R0,??DataTable108  ;; texttoview
        LDR      R2,[R0, #+0]
        ADR      R1,??ShowMess_0  ;; "%t"
        LDR      R0,??DataTable103  ;; wss
        LDR      R0,[R0, #+0]
        SWI      +292
//  642     DrawString(wss.ws1,12,52,120,164,textfontsize,TEXT_ALIGNMIDDLE,GetPaletteAdrByColorIndex(1),color2);
??ShowMess_1:
        MOV      R0,#+1
        SWI      +302
        LDR      R1,??ShowMess_0+0x8  ;; color2
        PUSH     {R1}
        CFI CFA R13+8
        PUSH     {R0}
        CFI CFA R13+12
        MOV      R0,#+2
        PUSH     {R0}
        CFI CFA R13+16
        PUSH     {R0}
        CFI CFA R13+20
        MOV      R0,#+164
        PUSH     {R0}
        CFI CFA R13+24
        MOV      R3,#+120
        MOV      R2,#+52
        MOV      R1,#+12
        LDR      R0,??DataTable103  ;; wss
        LDR      R0,[R0, #+0]
        SWI      +332
        ADD      SP,SP,#+20       ;; stack cleaning
        CFI CFA R13+4
//  643   }
//  644 }
        POP      {PC}             ;; return
        DATA
??ShowMess_0:
        DC8      "%t",+0
        DC32     color1
        DC32     color2
        CFI EndBlock cfiBlock27

        RSEG CODE:CODE:NOROOT(2)
        DATA
??DataTable103:
        DC32     wss

        RSEG CODE:CODE:NOROOT(2)
        CFI Block cfiBlock28 Using cfiCommon0
        CFI NoFunction
        THUMB
??MessStop??rT:
        BX       PC
        Nop      
        CFI EndBlock cfiBlock28
        REQUIRE MessStop
//  645 

        RSEG CODE:CODE:NOROOT(2)
        CFI Block cfiBlock29 Using cfiCommon1
        CFI Function MessStop
        ARM
//  646 void MessStop()
//  647 {
MessStop:
        PUSH     {LR}
        CFI ?RET Frame(CFA, -4)
        CFI CFA R13+4
//  648   if (toview)
        LDR      R0,??DataTable107  ;; toview
        LDR      R0,[R0, #+0]
        CMP      R0,#+0
        POPEQ    {PC}
//  649   {
//  650     toview=0;
        LDR      R0,??DataTable107  ;; toview
        MOV      R1,#+0
        STR      R1,[R0, #+0]
//  651     if (IsGuiOnTop(MAINGUI_ID)==1)
        LDR      R0,??DataTable109  ;; MAINGUI_ID
        LDR      R0,[R0, #+0]
        SWI      +309
        CMP      R0,#+1
        POPNE    {PC}
//  652     {
//  653       REDRAW();
        SWI      +370
//  654     }
//  655   }
//  656 }
        POP      {PC}             ;; return
        CFI EndBlock cfiBlock29

        RSEG CODE:CODE:NOROOT(2)
        CFI Block cfiBlock30 Using cfiCommon0
        CFI NoFunction
        THUMB
??Message??rT:
        BX       PC
        Nop      
        CFI EndBlock cfiBlock30
        REQUIRE Message
//  657 

        RSEG CODE:CODE:NOROOT(2)
        CFI Block cfiBlock31 Using cfiCommon1
        CFI Function Message
        ARM
//  658 void Message(char *text)
//  659 {
Message:
        PUSH     {LR}
        CFI ?RET Frame(CFA, -4)
        CFI CFA R13+4
//  660   toview=1;
        LDR      R1,??DataTable107  ;; toview
        MOV      R2,#+1
        STR      R2,[R1, #+0]
//  661   texttoview=text;
        LDR      R1,??DataTable108  ;; texttoview
        STR      R0,[R1, #+0]
//  662   GBS_StartTimerProc(&MessageTimer,1000,MessStop);
        LDR      R2,??Message_0   ;; MessStop
        MOV      R1,#+1000
        LDR      R0,??Message_0+0x4  ;; MessageTimer
        SWI      +77
//  663   if (IsGuiOnTop(MAINGUI_ID)==1)
        LDR      R0,??DataTable109  ;; MAINGUI_ID
        LDR      R0,[R0, #+0]
        SWI      +309
        CMP      R0,#+1
        POPNE    {PC}
//  664     {
//  665       REDRAW();
        SWI      +370
//  666     }
//  667 }
        POP      {PC}             ;; return
        DATA
??Message_0:
        DC32     MessStop
        DC32     MessageTimer
        CFI EndBlock cfiBlock31

        RSEG CODE:CODE:NOROOT(2)
        DATA
??DataTable107:
        DC32     toview

        RSEG CODE:CODE:NOROOT(2)
        DATA
??DataTable108:
        DC32     texttoview

        RSEG CODE:CODE:NOROOT(2)
        DATA
??DataTable109:
        DC32     MAINGUI_ID

        RSEG CODE:CODE:NOROOT(2)
        CFI Block cfiBlock32 Using cfiCommon0
        CFI NoFunction
        THUMB
??GetFon??rT:
        BX       PC
        Nop      
        CFI EndBlock cfiBlock32
        REQUIRE GetFon
//  668 

        RSEG CODE:CODE:NOROOT(2)
        CFI Block cfiBlock33 Using cfiCommon1
        CFI Function GetFon
        ARM
//  669 char *GetFon()
//  670 {
GetFon:
        PUSH     {LR}
        CFI ?RET Frame(CFA, -4)
        CFI CFA R13+4
//  671   sprintf(name,"%sskins\\%s%s",playerfolder,ArrayOfSkins[curskin],"\\fon.png");
        LDR      R0,??DataTable110  ;; `?<Constant "\\\\fon.png">`
        PUSH     {R0}
        CFI CFA R13+8
        LDR      R0,??DataTable111  ;; curskin
        LDR      R0,[R0, #+0]
        MOV      R1,#+20
        LDR      R2,??DataTable112  ;; ArrayOfSkins
        MLA      R3,R1,R0,R2
        LDR      R2,??DataTable113  ;; playerfolder
        LDR      R1,??DataTable114  ;; `?<Constant "%sskins\\\\%s%s">`
        LDR      R0,??DataTable116  ;; name
        SWI      +22
//  672   return(name);
        LDR      R0,??DataTable116  ;; name
        ADD      SP,SP,#+4        ;; stack cleaning
        CFI CFA R13+4
        POP      {PC}             ;; return
        CFI EndBlock cfiBlock33
//  673 }

        RSEG CODE:CODE:NOROOT(2)
        DATA
??DataTable110:
        DC32     `?<Constant "\\\\fon.png">`

        RSEG CODE:CODE:NOROOT(2)
        DATA
??DataTable111:
        DC32     curskin

        RSEG CODE:CODE:NOROOT(2)
        DATA
??DataTable112:
        DC32     ArrayOfSkins

        RSEG CODE:CODE:NOROOT(2)
        DATA
??DataTable113:
        DC32     playerfolder

        RSEG CODE:CODE:NOROOT(2)
        DATA
??DataTable114:
        DC32     `?<Constant "%sskins\\\\%s%s">`

        RSEG CODE:CODE:NOROOT(2)
        DATA
??DataTable116:
        DC32     name

        RSEG CODE:CODE:NOROOT(2)
        CFI Block cfiBlock34 Using cfiCommon0
        CFI NoFunction
        THUMB
??GetKatalogbackgroundcolour??rT:
        BX       PC
        Nop      
        CFI EndBlock cfiBlock34
        REQUIRE GetKatalogbackgroundcolour
//  674 

        RSEG CODE:CODE:NOROOT(2)
        CFI Block cfiBlock35 Using cfiCommon1
        CFI Function GetKatalogbackgroundcolour
        ARM
//  675 int GetKatalogbackgroundcolour()
//  676 {
//  677   return(katalogbackgroundcolour);
GetKatalogbackgroundcolour:
        LDR      R0,??DataTable117  ;; katalogbackgroundcolour
        LDR      R0,[R0, #+0]
        BX       LR               ;; return
        CFI EndBlock cfiBlock35
//  678 }

        RSEG CODE:CODE:NOROOT(2)
        DATA
??DataTable117:
        DC32     katalogbackgroundcolour

        RSEG CODE:CODE:NOROOT(2)
        CFI Block cfiBlock36 Using cfiCommon0
        CFI NoFunction
        THUMB
??OnRedraw??rT:
        BX       PC
        Nop      
        CFI EndBlock cfiBlock36
        REQUIRE OnRedraw
//  679 

        RSEG CODE:CODE:NOROOT(2)
        CFI Block cfiBlock37 Using cfiCommon1
        CFI Function OnRedraw
        ARM
//  680 void OnRedraw(MAIN_GUI *data) // OnRedraw
//  681 {
OnRedraw:
        PUSH     {R4-R9,LR}
        CFI ?RET Frame(CFA, -4)
        CFI R9 Frame(CFA, -8)
        CFI R8 Frame(CFA, -12)
        CFI R7 Frame(CFA, -16)
        CFI R6 Frame(CFA, -20)
        CFI R5 Frame(CFA, -24)
        CFI R4 Frame(CFA, -28)
        CFI CFA R13+28
        SUB      SP,SP,#+272
        CFI CFA R13+300
//  682   switch(WhatToView)
        LDR      R0,??OnRedraw_0  ;; WhatToView
        LDR      R0,[R0, #+0]
        CMP      R0,#+0
        BEQ      ??OnRedraw_1
        SUBS     R0,R0,#+1
        BEQ      ??OnRedraw_2
        SUBS     R0,R0,#+1
        BEQ      ??OnRedraw_3
        SUBS     R0,R0,#+1
        BEQ      ??OnRedraw_4
        B        ??OnRedraw_5
//  683   {
//  684 case 0:
//  685   if (IsUnlocked())
??OnRedraw_1:
        SWI      +67
        CMP      R0,#+0
        BEQ      ??OnRedraw_6
//  686   {
//  687     sprintf(name,"%sskins\\%s%s",playerfolder,ArrayOfSkins[curskin],"\\background.png");
        LDR      R0,??OnRedraw_0+0x4  ;; `?<Constant "\\\\background.png">`
        PUSH     {R0}
        CFI CFA R13+304
        LDR      R0,??OnRedraw_0+0x8  ;; curskin
        LDR      R0,[R0, #+0]
        MOV      R1,#+20
        LDR      R2,??OnRedraw_0+0xC  ;; ArrayOfSkins
        MLA      R3,R1,R0,R2
        LDR      R2,??OnRedraw_0+0x10  ;; playerfolder
        LDR      R1,??OnRedraw_0+0x14  ;; `?<Constant "%sskins\\\\%s%s">`
        LDR      R0,??OnRedraw_0+0x18  ;; name
        SWI      +22
//  688     DrawImg(0,0,(int)name);
        LDR      R2,??OnRedraw_0+0x18  ;; name
        MOV      R1,#+0
        MOV      R0,#+0
        SWI      +35
//  689     sprintf(name,"%sskins\\%s\\VOL%i.png",playerfolder,ArrayOfSkins[curskin],CurentVolume);
        LDR      R0,??OnRedraw_0+0x1C  ;; CurentVolume
        LDR      R0,[R0, #+0]
        PUSH     {R0}
        CFI CFA R13+308
        LDR      R0,??OnRedraw_0+0x8  ;; curskin
        LDR      R0,[R0, #+0]
        MOV      R1,#+20
        LDR      R2,??OnRedraw_0+0xC  ;; ArrayOfSkins
        MLA      R3,R1,R0,R2
        LDR      R2,??OnRedraw_0+0x10  ;; playerfolder
        LDR      R1,??OnRedraw_0+0x20  ;; `?<Constant "%sskins\\\\%s\\\\VOL%i.png">`
        LDR      R0,??OnRedraw_0+0x18  ;; name
        SWI      +22
//  690     DrawImg(volumex,volumey,(int)name);
        LDR      R2,??OnRedraw_0+0x18  ;; name
        LDR      R0,??OnRedraw_0+0x28  ;; volumey
        LDR      R1,[R0, #+0]
        LDR      R0,??OnRedraw_0+0x2C  ;; volumex
        LDR      R0,[R0, #+0]
        SWI      +35
//  691     utf8_2ws(wss.ws1,playlistname,40);
        MOV      R2,#+40
        LDR      R1,??OnRedraw_0+0x30  ;; playlistname
        LDR      R0,??OnRedraw_0+0x34  ;; wss
        LDR      R0,[R0, #+0]
        SWI      +483
//  692     DrawString(wss.ws1,spysokx1,spysoky1,spysokx2,spysoky2,spysokfont,spysoktextattribute,
//  693     GetPaletteAdrByColorIndex(spysoktextcolor),GetPaletteAdrByColorIndex(spysoktextbackground));
        LDR      R0,??OnRedraw_0+0x38  ;; spysoktextbackground
        LDR      R0,[R0, #+0]
        SWI      +302
        MOV      R4,R0
        LDR      R0,??OnRedraw_0+0x3C  ;; spysoktextcolor
        LDR      R0,[R0, #+0]
        SWI      +302
        PUSH     {R4}
        CFI CFA R13+312
        PUSH     {R0}
        CFI CFA R13+316
        LDR      R0,??OnRedraw_0+0x40  ;; spysoktextattribute
        LDR      R0,[R0, #+0]
        PUSH     {R0}
        CFI CFA R13+320
        LDR      R0,??OnRedraw_0+0x44  ;; spysokfont
        LDR      R0,[R0, #+0]
        PUSH     {R0}
        CFI CFA R13+324
        LDR      R0,??OnRedraw_0+0x48  ;; spysoky2
        LDR      R0,[R0, #+0]
        PUSH     {R0}
        CFI CFA R13+328
        LDR      R0,??OnRedraw_0+0x4C  ;; spysokx2
        LDR      R3,[R0, #+0]
        LDR      R0,??OnRedraw_0+0x50  ;; spysoky1
        LDR      R2,[R0, #+0]
        LDR      R0,??OnRedraw_0+0x54  ;; spysokx1
        LDR      R1,[R0, #+0]
        LDR      R0,??OnRedraw_0+0x34  ;; wss
        LDR      R0,[R0, #+0]
        SWI      +332
//  694   //utf8_2ws(wss.ws1,NameOfCurentTrack,320);
//  695   sprintf(name,"%s\r%s\r%s",ctrack,cartist,calbum);
        LDR      R0,??OnRedraw_0+0x58  ;; calbum
        PUSH     {R0}
        CFI CFA R13+332
        LDR      R3,??OnRedraw_0+0x5C  ;; cartist
        LDR      R2,??OnRedraw_0+0x60  ;; ctrack
        LDR      R1,??OnRedraw_0+0x64  ;; `?<Constant "%s\\r%s\\r%s">`
        LDR      R0,??OnRedraw_0+0x18  ;; name
        SWI      +22
//  696   utf8_2ws(wss.ws1,name,320);
        MOV      R2,#+320
        LDR      R1,??OnRedraw_0+0x18  ;; name
        LDR      R0,??OnRedraw_0+0x34  ;; wss
        LDR      R0,[R0, #+0]
        SWI      +483
//  697   if (name[0]!=' ')
        LDR      R0,??OnRedraw_0+0x18  ;; name
        LDRB     R0,[R0, #+0]
        CMP      R0,#+32
        ADD      SP,SP,#+32       ;; stack cleaning
        CFI CFA R13+300
        BEQ      ??OnRedraw_7
//  698   {
//  699     wsprintf(wss.ws2,"%t\r%t\r%t",ctrack,cartist,calbum);
        LDR      R0,??OnRedraw_0+0x58  ;; calbum
        PUSH     {R0}
        CFI CFA R13+304
        LDR      R3,??OnRedraw_0+0x5C  ;; cartist
        LDR      R2,??OnRedraw_0+0x60  ;; ctrack
        LDR      R1,??OnRedraw_0+0x68  ;; `?<Constant "%t\\r%t\\r%t">`
        LDR      R0,??OnRedraw_0+0x6C  ;; wss + 4
        LDR      R0,[R0, #+0]
        SWI      +292
        ADD      SP,SP,#+4        ;; stack cleaning
        CFI CFA R13+300
        B        ??OnRedraw_8
//  700   }
//  701   else
//  702     {
//  703       wsprintf(wss.ws2,pp);
??OnRedraw_7:
        LDR      R1,??OnRedraw_0+0x70  ;; pp
        LDR      R0,??OnRedraw_0+0x6C  ;; wss + 4
        LDR      R0,[R0, #+0]
        SWI      +292
//  704     }
//  705   if (Get_WS_width(wss.ws1,7)<Get_WS_width(wss.ws2,7))
??OnRedraw_8:
        MOV      R1,#+7
        LDR      R0,??OnRedraw_0+0x34  ;; wss
        LDR      R0,[R0, #+0]
        SWI      +520
        MOV      R4,R0
        MOV      R1,#+7
        LDR      R0,??OnRedraw_0+0x6C  ;; wss + 4
        LDR      R0,[R0, #+0]
        SWI      +520
        CMP      R4,R0
        LDR      R0,??OnRedraw_0+0x74  ;; songtextbackground
        LDR      R0,[R0, #+0]
        BGE      ??OnRedraw_9
//  706   {
//  707   DrawString(wss.ws2,songx1,songy1,songx2,songy2,songfont,songtextattribute,
//  708     GetPaletteAdrByColorIndex(songtextcolor),GetPaletteAdrByColorIndex(songtextbackground));
        SWI      +302
        MOV      R4,R0
        LDR      R0,??OnRedraw_0+0x78  ;; songtextcolor
        LDR      R0,[R0, #+0]
        SWI      +302
        PUSH     {R4}
        CFI CFA R13+304
        PUSH     {R0}
        CFI CFA R13+308
        LDR      R0,??OnRedraw_0+0x7C  ;; songtextattribute
        LDR      R0,[R0, #+0]
        PUSH     {R0}
        CFI CFA R13+312
        LDR      R0,??OnRedraw_0+0x80  ;; songfont
        LDR      R0,[R0, #+0]
        PUSH     {R0}
        CFI CFA R13+316
        LDR      R0,??OnRedraw_0+0x84  ;; songy2
        LDR      R0,[R0, #+0]
        PUSH     {R0}
        CFI CFA R13+320
        LDR      R0,??OnRedraw_0+0x88  ;; songx2
        LDR      R3,[R0, #+0]
        LDR      R0,??OnRedraw_0+0x8C  ;; songy1
        LDR      R2,[R0, #+0]
        LDR      R0,??OnRedraw_0+0x90  ;; songx1
        LDR      R1,[R0, #+0]
        LDR      R0,??OnRedraw_0+0x6C  ;; wss + 4
        B        ??OnRedraw_10
        CFI CFA R13+300
//  709   }
//  710   else
//  711   {
//  712   DrawString(wss.ws1,songx1,songy1,songx2,songy2,songfont,songtextattribute,
//  713     GetPaletteAdrByColorIndex(songtextcolor),GetPaletteAdrByColorIndex(songtextbackground));
??OnRedraw_9:
        SWI      +302
        MOV      R4,R0
        LDR      R0,??OnRedraw_0+0x78  ;; songtextcolor
        LDR      R0,[R0, #+0]
        SWI      +302
        PUSH     {R4}
        CFI CFA R13+304
        PUSH     {R0}
        CFI CFA R13+308
        LDR      R0,??OnRedraw_0+0x7C  ;; songtextattribute
        LDR      R0,[R0, #+0]
        PUSH     {R0}
        CFI CFA R13+312
        LDR      R0,??OnRedraw_0+0x80  ;; songfont
        LDR      R0,[R0, #+0]
        PUSH     {R0}
        CFI CFA R13+316
        LDR      R0,??OnRedraw_0+0x84  ;; songy2
        LDR      R0,[R0, #+0]
        PUSH     {R0}
        CFI CFA R13+320
        LDR      R0,??OnRedraw_0+0x88  ;; songx2
        LDR      R3,[R0, #+0]
        LDR      R0,??OnRedraw_0+0x8C  ;; songy1
        LDR      R2,[R0, #+0]
        LDR      R0,??OnRedraw_0+0x90  ;; songx1
        LDR      R1,[R0, #+0]
        LDR      R0,??OnRedraw_0+0x34  ;; wss
??OnRedraw_10:
        LDR      R0,[R0, #+0]
        SWI      +332
        ADD      SP,SP,#+20       ;; stack cleaning
        CFI CFA R13+300
//  714   }
//  715   wsprintf(wss.ws1,"%i%c%i",cp+1,'/',NumberOfTracks);
        LDR      R0,??OnRedraw_11+0x4  ;; NumberOfTracks
        LDR      R0,[R0, #+0]
        PUSH     {R0}
        CFI CFA R13+304
        MOV      R3,#+47
        LDR      R0,??OnRedraw_11+0x8  ;; cp
        LDR      R0,[R0, #+0]
        ADD      R2,R0,#+1
        LDR      R1,??OnRedraw_11+0xC  ;; `?<Constant "%i%c%i">`
        LDR      R0,??OnRedraw_0+0x34  ;; wss
        LDR      R0,[R0, #+0]
        SWI      +292
//  716   DrawString(wss.ws1,tracksx1,tracksy1,tracksx2,tracksy2,tracksfont,trackstextattribute,
//  717   GetPaletteAdrByColorIndex(trackstextcolor),GetPaletteAdrByColorIndex(trackstextbackground));  
        LDR      R0,??OnRedraw_11+0x10  ;; trackstextbackground
        LDR      R0,[R0, #+0]
        SWI      +302
        MOV      R4,R0
        LDR      R0,??OnRedraw_11+0x14  ;; trackstextcolor
        LDR      R0,[R0, #+0]
        SWI      +302
        PUSH     {R4}
        CFI CFA R13+308
        PUSH     {R0}
        CFI CFA R13+312
        LDR      R0,??OnRedraw_11+0x18  ;; trackstextattribute
        LDR      R0,[R0, #+0]
        PUSH     {R0}
        CFI CFA R13+316
        LDR      R0,??OnRedraw_11+0x1C  ;; tracksfont
        LDR      R0,[R0, #+0]
        PUSH     {R0}
        CFI CFA R13+320
        LDR      R0,??OnRedraw_11+0x20  ;; tracksy2
        LDR      R0,[R0, #+0]
        PUSH     {R0}
        CFI CFA R13+324
        LDR      R0,??OnRedraw_11+0x24  ;; tracksx2
        LDR      R3,[R0, #+0]
        LDR      R0,??OnRedraw_11+0x28  ;; tracksy1
        LDR      R2,[R0, #+0]
        LDR      R0,??OnRedraw_11+0x2C  ;; tracksx1
        LDR      R1,[R0, #+0]
        LDR      R0,??OnRedraw_0+0x34  ;; wss
        LDR      R0,[R0, #+0]
        SWI      +332
//  718     if (playing==1) {sprintf(name,"%sskins\\%s%s",playerfolder,ArrayOfSkins[curskin],"\\stop.png");}
        LDR      R0,??OnRedraw_11+0x30  ;; playing
        LDR      R0,[R0, #+0]
        CMP      R0,#+1
        ADD      SP,SP,#+24       ;; stack cleaning
        CFI CFA R13+300
        LDREQ    R0,??OnRedraw_11+0x34  ;; `?<Constant "\\\\stop.png">`
//  719     else {sprintf(name,"%sskins\\%s%s",playerfolder,ArrayOfSkins[curskin],"\\play.png");}
        LDRNE    R0,??OnRedraw_11+0x38  ;; `?<Constant "\\\\play.png">`
        PUSH     {R0}
        CFI CFA R13+304
        LDR      R0,??OnRedraw_0+0x8  ;; curskin
        LDR      R0,[R0, #+0]
        MOV      R1,#+20
        LDR      R2,??OnRedraw_0+0xC  ;; ArrayOfSkins
        MLA      R3,R1,R0,R2
        LDR      R2,??OnRedraw_0+0x10  ;; playerfolder
        LDR      R1,??OnRedraw_0+0x14  ;; `?<Constant "%sskins\\\\%s%s">`
        LDR      R0,??OnRedraw_0+0x18  ;; name
        SWI      +22
        ADD      SP,SP,#+4        ;; stack cleaning
        CFI CFA R13+300
//  720     DrawImg(play_stopx,play_stopy,(int)name);
        LDR      R2,??OnRedraw_0+0x18  ;; name
        LDR      R0,??OnRedraw_11+0x3C  ;; play_stopy
        LDR      R1,[R0, #+0]
        LDR      R0,??OnRedraw_11+0x40  ;; play_stopx
        LDR      R0,[R0, #+0]
        SWI      +35
//  721 
//  722   if (random==1) {
        LDR      R0,??OnRedraw_11+0x44  ;; random
        LDR      R0,[R0, #+0]
        CMP      R0,#+1
        BNE      ??OnRedraw_12
//  723                    sprintf(name,"%sskins\\%s%s",playerfolder,ArrayOfSkins[curskin],"\\random.png");
        LDR      R0,??OnRedraw_11+0x48  ;; `?<Constant "\\\\random.png">`
        PUSH     {R0}
        CFI CFA R13+304
        LDR      R0,??OnRedraw_0+0x8  ;; curskin
        LDR      R0,[R0, #+0]
        MOV      R1,#+20
        LDR      R2,??OnRedraw_0+0xC  ;; ArrayOfSkins
        MLA      R3,R1,R0,R2
        LDR      R2,??OnRedraw_0+0x10  ;; playerfolder
        LDR      R1,??OnRedraw_0+0x14  ;; `?<Constant "%sskins\\\\%s%s">`
        LDR      R0,??OnRedraw_0+0x18  ;; name
        SWI      +22
//  724                    DrawImg(randomx,randomy,(int)name);
        LDR      R2,??OnRedraw_0+0x18  ;; name
        LDR      R0,??OnRedraw_11+0x4C  ;; randomy
        LDR      R1,[R0, #+0]
        LDR      R0,??OnRedraw_11+0x50  ;; randomx
        LDR      R0,[R0, #+0]
        SWI      +35
        ADD      SP,SP,#+4        ;; stack cleaning
        CFI CFA R13+300
//  725                  }
//  726   if (ringoff!=0)
??OnRedraw_12:
        LDR      R0,??OnRedraw_11+0x54  ;; ringoff
        LDR      R0,[R0, #+0]
        CMP      R0,#+0
        BEQ      ??OnRedraw_13
//  727   {
//  728     sprintf(name,"%sskins\\%s%s",playerfolder,ArrayOfSkins[curskin],"\\off.png");
        LDR      R0,??OnRedraw_11+0x58  ;; `?<Constant "\\\\off.png">`
        PUSH     {R0}
        CFI CFA R13+304
        LDR      R0,??OnRedraw_0+0x8  ;; curskin
        LDR      R0,[R0, #+0]
        MOV      R1,#+20
        LDR      R2,??OnRedraw_0+0xC  ;; ArrayOfSkins
        MLA      R3,R1,R0,R2
        LDR      R2,??OnRedraw_0+0x10  ;; playerfolder
        LDR      R1,??OnRedraw_0+0x14  ;; `?<Constant "%sskins\\\\%s%s">`
        LDR      R0,??OnRedraw_0+0x18  ;; name
        SWI      +22
//  729     DrawImg(ringoffx,ringoffy,(int)name);
        LDR      R2,??OnRedraw_0+0x18  ;; name
        LDR      R0,??OnRedraw_11+0x5C  ;; ringoffy
        LDR      R1,[R0, #+0]
        LDR      R0,??OnRedraw_11+0x60  ;; ringoffx
        LDR      R0,[R0, #+0]
        SWI      +35
        ADD      SP,SP,#+4        ;; stack cleaning
        CFI CFA R13+300
        B        ??OnRedraw_14
//  730   }
//  731   else
//  732    {
//  733     sprintf(name,"%sskins\\%s%s",playerfolder,ArrayOfSkins[curskin],"\\plus.png");
??OnRedraw_13:
        LDR      R0,??OnRedraw_11+0x64  ;; `?<Constant "\\\\plus.png">`
        PUSH     {R0}
        CFI CFA R13+304
        LDR      R0,??OnRedraw_0+0x8  ;; curskin
        LDR      R0,[R0, #+0]
        MOV      R1,#+20
        LDR      R2,??OnRedraw_0+0xC  ;; ArrayOfSkins
        MLA      R3,R1,R0,R2
        LDR      R2,??OnRedraw_0+0x10  ;; playerfolder
        LDR      R1,??OnRedraw_0+0x14  ;; `?<Constant "%sskins\\\\%s%s">`
        LDR      R0,??OnRedraw_0+0x18  ;; name
        SWI      +22
//  734     if (CurentVolume<MAXVOLUME){DrawImg(volpx,volpy,(int)name);}
        LDR      R0,??OnRedraw_0+0x1C  ;; CurentVolume
        LDR      R0,[R0, #+0]
        CMP      R0,#+14
        ADD      SP,SP,#+4        ;; stack cleaning
        CFI CFA R13+300
        BGE      ??OnRedraw_15
        LDR      R2,??OnRedraw_0+0x18  ;; name
        LDR      R0,??OnRedraw_11+0x68  ;; volpy
        LDR      R1,[R0, #+0]
        LDR      R0,??OnRedraw_11+0x6C  ;; volpx
        LDR      R0,[R0, #+0]
        SWI      +35
//  735     sprintf(name,"%sskins\\%s%s",playerfolder,ArrayOfSkins[curskin],"\\minus.png");
??OnRedraw_15:
        LDR      R0,??OnRedraw_11+0x70  ;; `?<Constant "\\\\minus.png">`
        PUSH     {R0}
        CFI CFA R13+304
        LDR      R0,??OnRedraw_0+0x8  ;; curskin
        LDR      R0,[R0, #+0]
        MOV      R1,#+20
        LDR      R2,??OnRedraw_0+0xC  ;; ArrayOfSkins
        MLA      R3,R1,R0,R2
        LDR      R2,??OnRedraw_0+0x10  ;; playerfolder
        LDR      R1,??OnRedraw_0+0x14  ;; `?<Constant "%sskins\\\\%s%s">`
        LDR      R0,??OnRedraw_0+0x18  ;; name
        SWI      +22
//  736     if (CurentVolume>0) {DrawImg(volmx,volmy,(int)name);}
        LDR      R0,??OnRedraw_0+0x1C  ;; CurentVolume
        LDR      R0,[R0, #+0]
        CMP      R0,#+1
        ADD      SP,SP,#+4        ;; stack cleaning
        CFI CFA R13+300
        BLT      ??OnRedraw_14
        LDR      R2,??OnRedraw_0+0x18  ;; name
        LDR      R0,??OnRedraw_11+0x74  ;; volmy
        LDR      R1,[R0, #+0]
        LDR      R0,??OnRedraw_11+0x78  ;; volmx
        LDR      R0,[R0, #+0]
        SWI      +35
//  737    }
//  738     int y;
//  739     sprintf(name,"%sskins\\%s%s",playerfolder,ArrayOfSkins[curskin],"\\progressbar.png");
??OnRedraw_14:
        LDR      R0,??OnRedraw_11+0x7C  ;; `?<Constant "\\\\progressbar.png">`
        PUSH     {R0}
        CFI CFA R13+304
        LDR      R0,??OnRedraw_0+0x8  ;; curskin
        LDR      R0,[R0, #+0]
        MOV      R1,#+20
        LDR      R2,??OnRedraw_0+0xC  ;; ArrayOfSkins
        MLA      R3,R1,R0,R2
        LDR      R2,??OnRedraw_0+0x10  ;; playerfolder
        LDR      R1,??OnRedraw_0+0x14  ;; `?<Constant "%sskins\\\\%s%s">`
        LDR      R0,??OnRedraw_0+0x18  ;; name
        SWI      +22
//  740     if (timelength[cp]!=0)
        LDR      R0,??OnRedraw_11+0x8  ;; cp
        LDR      R0,[R0, #+0]
        LDR      R1,??OnRedraw_11+0x80  ;; timelength
        LDR      R0,[R1, +R0, LSL #+2]
        CMP      R0,#+0
        ADD      SP,SP,#+4        ;; stack cleaning
        CFI CFA R13+300
        BEQ      ??OnRedraw_16
//  741     {
//  742       if ((timemin*60+timesec)<=timelength[cp]) 
        LDR      R0,??OnRedraw_11+0x8  ;; cp
        LDR      R0,[R0, #+0]
        LDR      R0,[R1, +R0, LSL #+2]
        LDR      R1,??OnRedraw_11+0x84  ;; timemin
        LDR      R1,[R1, #+0]
        MOV      R2,#+60
        LDR      R3,??OnRedraw_11+0x88  ;; timesec
        LDR      R3,[R3, #+0]
        MLA      R1,R2,R1,R3
        CMP      R0,R1
        LDR      R0,??OnRedraw_0+0x18  ;; name
        BLT      ??OnRedraw_17
//  743       {
//  744         y=progressbarx1+((progressbarx2-progressbarx1-GetImgWidth((int)name))*(timemin*60+timesec))/timelength[cp];
        SWI      +34
        LDR      R1,??OnRedraw_11+0x8C  ;; progressbarx1
        LDR      R2,[R1, #+0]
        LDR      R1,??OnRedraw_11+0x90  ;; progressbarx2
        LDR      R1,[R1, #+0]
        SUB      R1,R1,R2
        SUB      R0,R1,R0
        LDR      R1,??OnRedraw_11+0x84  ;; timemin
        LDR      R1,[R1, #+0]
        MOV      R3,#+60
        LDR      R4,??OnRedraw_11+0x88  ;; timesec
        LDR      R4,[R4, #+0]
        MLA      R1,R3,R1,R4
        MUL      R0,R1,R0
        LDR      R1,??OnRedraw_11+0x8  ;; cp
        LDR      R1,[R1, #+0]
        LDR      R3,??OnRedraw_11+0x80  ;; timelength
        LDR      R1,[R3, +R1, LSL #+2]
        _BLF     ??div32_a,??rA??div32_a
        ADD      R4,R1,R2
        B        ??OnRedraw_18
//  745       }
//  746       else 
//  747       {
//  748         y=progressbarx2-progressbarx1-GetImgWidth((int)name);
??OnRedraw_17:
        SWI      +34
        LDR      R1,??OnRedraw_11+0x90  ;; progressbarx2
        LDR      R1,[R1, #+0]
        LDR      R2,??OnRedraw_11+0x8C  ;; progressbarx1
        LDR      R2,[R2, #+0]
        SUB      R1,R1,R2
        SUB      R4,R1,R0
//  749       }
//  750         DrawRectangle(progressbarx1,progressbary1+2,y-GetImgWidth((int)name),progressbary1-1+GetImgHeight((int)name),0,
//  751         GetPaletteAdrByColorIndex(progressbarcolour),GetPaletteAdrByColorIndex(progressbarcolour));
??OnRedraw_18:
        LDR      R0,??OnRedraw_11+0x94  ;; progressbarcolour
        LDR      R0,[R0, #+0]
        SWI      +302
        MOV      R5,R0
        LDR      R0,??OnRedraw_11+0x94  ;; progressbarcolour
        LDR      R0,[R0, #+0]
        SWI      +302
        MOV      R6,R0
        LDR      R0,??OnRedraw_0+0x18  ;; name
        SWI      +33
        MOV      R7,R0
        LDR      R0,??OnRedraw_0+0x18  ;; name
        SWI      +34
        PUSH     {R5}
        CFI CFA R13+304
        PUSH     {R6}
        CFI CFA R13+308
        MOV      R1,#+0
        PUSH     {R1}
        CFI CFA R13+312
        LDR      R1,??OnRedraw_11+0x98  ;; progressbary1
        LDR      R1,[R1, #+0]
        ADD      R1,R7,R1
        SUB      R3,R1,#+1
        SUB      R2,R4,R0
        LDR      R0,??OnRedraw_11+0x98  ;; progressbary1
        LDR      R0,[R0, #+0]
        ADD      R1,R0,#+2
        LDR      R0,??OnRedraw_11+0x8C  ;; progressbarx1
        LDR      R0,[R0, #+0]
        SWI      +436
//  752         DrawImg(y,progressbary1+1,(int)name);
        LDR      R2,??OnRedraw_0+0x18  ;; name
        LDR      R0,??OnRedraw_11+0x98  ;; progressbary1
        LDR      R0,[R0, #+0]
        ADD      R1,R0,#+1
        MOV      R0,R4
        SWI      +35
        ADD      SP,SP,#+12       ;; stack cleaning
        CFI CFA R13+300
//  753     }    
//  754   if (entime==1)
??OnRedraw_16:
        LDR      R0,??OnRedraw_11+0x9C  ;; entime
        LDR      R0,[R0, #+0]
        CMP      R0,#+1
        BNE      ??OnRedraw_19
//  755   {if (timelength[cp]!=0)
        LDR      R0,??OnRedraw_11+0x8  ;; cp
        LDR      R0,[R0, #+0]
        LDR      R1,??OnRedraw_11+0x80  ;; timelength
        LDR      R0,[R1, +R0, LSL #+2]
        CMP      R0,#+0
        BEQ      ??OnRedraw_20
//  756   {
//  757     wsprintf(wss.ws1,"%i:%i%i/%i:%i%i",timemin,timesec/10,timesec%10,timelength[cp]/60,(timelength[cp]%60)/10,(timelength[cp]%60)%10);
        LDR      R0,??OnRedraw_11+0x8  ;; cp
        LDR      R0,[R0, #+0]
        LDR      R0,[R1, +R0, LSL #+2]
        LDR      R1,??OnRedraw_11+0xA0  ;; 0x88888889
        SMULL    R2,R3,R0,R1
        ADD      R3,R3,R0
        ASR      R3,R3,#+5
        ADD      R3,R3,R0, LSR #+31
        MOV      R2,#+60
        MUL      R3,R2,R3
        SUB      R0,R0,R3
        LDR      R1,??OnRedraw_11+0xA4  ;; 0x66666667
        SMULL    R2,R3,R0,R1
        ASR      R3,R3,#+2
        ADD      R3,R3,R0, LSR #+31
        MOV      R2,#+10
        MUL      R3,R2,R3
        SUB      R0,R0,R3
        PUSH     {R0}
        CFI CFA R13+304
        LDR      R0,??OnRedraw_11+0x8  ;; cp
        LDR      R0,[R0, #+0]
        LDR      R1,??OnRedraw_11+0x80  ;; timelength
        LDR      R0,[R1, +R0, LSL #+2]
        LDR      R1,??OnRedraw_11+0xA0  ;; 0x88888889
        SMULL    R2,R3,R0,R1
        ADD      R3,R3,R0
        ASR      R3,R3,#+5
        ADD      R3,R3,R0, LSR #+31
        MOV      R2,#+60
        MUL      R3,R2,R3
        SUB      R0,R0,R3
        LDR      R1,??OnRedraw_11+0xA4  ;; 0x66666667
        SMULL    R2,R3,R1,R0
        ASR      R3,R3,#+2
        ADD      R0,R3,R0, LSR #+31
        PUSH     {R0}
        CFI CFA R13+308
        LDR      R0,??OnRedraw_11+0x8  ;; cp
        LDR      R0,[R0, #+0]
        LDR      R1,??OnRedraw_11+0x80  ;; timelength
        LDR      R0,[R1, +R0, LSL #+2]
        LDR      R1,??OnRedraw_11+0xA0  ;; 0x88888889
        SMULL    R2,R3,R1,R0
        ADD      R3,R3,R0
        ASR      R3,R3,#+5
        ADD      R0,R3,R0, LSR #+31
        PUSH     {R0}
        CFI CFA R13+312
        LDR      R0,??OnRedraw_11+0x88  ;; timesec
        LDR      R0,[R0, #+0]
        LDR      R1,??OnRedraw_11+0xA4  ;; 0x66666667
        SMULL    R2,R3,R0,R1
        ASR      R3,R3,#+2
        ADD      R3,R3,R0, LSR #+31
        MOV      R2,#+10
        MUL      R3,R2,R3
        SUB      R0,R0,R3
        PUSH     {R0}
        CFI CFA R13+316
        LDR      R0,??OnRedraw_11+0x88  ;; timesec
        LDR      R0,[R0, #+0]
        SMULL    R2,R3,R1,R0
        ASR      R3,R3,#+2
        ADD      R3,R3,R0, LSR #+31
        LDR      R0,??OnRedraw_11+0x84  ;; timemin
        LDR      R2,[R0, #+0]
        LDR      R1,??OnRedraw_11+0xA8  ;; `?<Constant "%i:%i%i/%i:%i%i">`
        LDR      R0,??OnRedraw_0+0x34  ;; wss
        LDR      R0,[R0, #+0]
        SWI      +292
//  758     DrawString(wss.ws1,timex1,timey1,timex2,timey2,timefont,timetextattribute,
//  759     GetPaletteAdrByColorIndex(timetextcolor),GetPaletteAdrByColorIndex(timetextbackground));
        LDR      R0,??OnRedraw_11+0xAC  ;; timetextbackground
        LDR      R0,[R0, #+0]
        SWI      +302
        MOV      R4,R0
        LDR      R0,??OnRedraw_11+0xB0  ;; timetextcolor
        LDR      R0,[R0, #+0]
        SWI      +302
        PUSH     {R4}
        CFI CFA R13+320
        PUSH     {R0}
        CFI CFA R13+324
        LDR      R0,??OnRedraw_11+0xB4  ;; timetextattribute
        LDR      R0,[R0, #+0]
        PUSH     {R0}
        CFI CFA R13+328
        LDR      R0,??OnRedraw_11+0xB8  ;; timefont
        LDR      R0,[R0, #+0]
        PUSH     {R0}
        CFI CFA R13+332
        LDR      R0,??OnRedraw_11+0xBC  ;; timey2
        LDR      R0,[R0, #+0]
        PUSH     {R0}
        CFI CFA R13+336
        LDR      R0,??OnRedraw_11+0xC0  ;; timex2
        LDR      R3,[R0, #+0]
        LDR      R0,??OnRedraw_11+0xC4  ;; timey1
        LDR      R2,[R0, #+0]
        LDR      R0,??OnRedraw_11+0xC8  ;; timex1
        LDR      R1,[R0, #+0]
        LDR      R0,??OnRedraw_0+0x34  ;; wss
        LDR      R0,[R0, #+0]
        SWI      +332
        ADD      SP,SP,#+36       ;; stack cleaning
        CFI CFA R13+300
        B        ??OnRedraw_19
//  760   }
//  761   else
//  762   {
//  763   wsprintf(wss.ws1,"%i:%i%i",timemin,timesec/10,timesec%10);
??OnRedraw_20:
        LDR      R0,??OnRedraw_11+0x88  ;; timesec
        LDR      R0,[R0, #+0]
        LDR      R1,??OnRedraw_11+0xA4  ;; 0x66666667
        SMULL    R2,R3,R0,R1
        ASR      R3,R3,#+2
        ADD      R3,R3,R0, LSR #+31
        MOV      R2,#+10
        MUL      R3,R2,R3
        SUB      R0,R0,R3
        PUSH     {R0}
        CFI CFA R13+304
        LDR      R0,??OnRedraw_11+0x88  ;; timesec
        LDR      R0,[R0, #+0]
        SMULL    R2,R3,R1,R0
        ASR      R3,R3,#+2
        ADD      R3,R3,R0, LSR #+31
        LDR      R0,??OnRedraw_11+0x84  ;; timemin
        LDR      R2,[R0, #+0]
        LDR      R1,??OnRedraw_11+0xCC  ;; `?<Constant "%i:%i%i">`
        LDR      R0,??OnRedraw_0+0x34  ;; wss
        LDR      R0,[R0, #+0]
        SWI      +292
//  764   DrawString(wss.ws1,timex1,timey1,timex2,timey2,timefont,timetextattribute,
//  765   GetPaletteAdrByColorIndex(timetextcolor),GetPaletteAdrByColorIndex(timetextbackground));
        LDR      R0,??OnRedraw_11+0xAC  ;; timetextbackground
        LDR      R0,[R0, #+0]
        SWI      +302
        MOV      R4,R0
        LDR      R0,??OnRedraw_11+0xB0  ;; timetextcolor
        LDR      R0,[R0, #+0]
        SWI      +302
        PUSH     {R4}
        CFI CFA R13+308
        PUSH     {R0}
        CFI CFA R13+312
        LDR      R0,??OnRedraw_11+0xB4  ;; timetextattribute
        LDR      R0,[R0, #+0]
        PUSH     {R0}
        CFI CFA R13+316
        LDR      R0,??OnRedraw_11+0xB8  ;; timefont
        LDR      R0,[R0, #+0]
        PUSH     {R0}
        CFI CFA R13+320
        LDR      R0,??OnRedraw_11+0xBC  ;; timey2
        LDR      R0,[R0, #+0]
        PUSH     {R0}
        CFI CFA R13+324
        LDR      R0,??OnRedraw_11+0xC0  ;; timex2
        LDR      R3,[R0, #+0]
        LDR      R0,??OnRedraw_11+0xC4  ;; timey1
        LDR      R2,[R0, #+0]
        LDR      R0,??OnRedraw_11+0xC8  ;; timex1
        LDR      R1,[R0, #+0]
        LDR      R0,??OnRedraw_0+0x34  ;; wss
        LDR      R0,[R0, #+0]
        SWI      +332
        ADD      SP,SP,#+24       ;; stack cleaning
        CFI CFA R13+300
//  766   }
//  767   }
//  768    sprintf(name,"%sskins\\%s%s",playerfolder,ArrayOfSkins[curskin],"\\prev.png");
??OnRedraw_19:
        LDR      R0,??OnRedraw_21  ;; `?<Constant "\\\\prev.png">`
        PUSH     {R0}
        CFI CFA R13+304
        LDR      R0,??OnRedraw_0+0x8  ;; curskin
        LDR      R0,[R0, #+0]
        MOV      R1,#+20
        LDR      R2,??OnRedraw_0+0xC  ;; ArrayOfSkins
        MLA      R3,R1,R0,R2
        LDR      R2,??OnRedraw_0+0x10  ;; playerfolder
        LDR      R1,??OnRedraw_0+0x14  ;; `?<Constant "%sskins\\\\%s%s">`
        LDR      R0,??OnRedraw_0+0x18  ;; name
        SWI      +22
//  769    DrawImg(prevx,prevy,(int)name);
        LDR      R2,??OnRedraw_0+0x18  ;; name
        LDR      R0,??OnRedraw_21+0x8  ;; prevy
        LDR      R1,[R0, #+0]
        LDR      R0,??OnRedraw_21+0xC  ;; prevx
        LDR      R0,[R0, #+0]
        SWI      +35
//  770    sprintf(name,"%sskins\\%s%s",playerfolder,ArrayOfSkins[curskin],"\\next.png");
        LDR      R0,??OnRedraw_21+0x10  ;; `?<Constant "\\\\next.png">`
        PUSH     {R0}
        CFI CFA R13+308
        LDR      R0,??OnRedraw_0+0x8  ;; curskin
        LDR      R0,[R0, #+0]
        MOV      R1,#+20
        LDR      R2,??OnRedraw_0+0xC  ;; ArrayOfSkins
        MLA      R3,R1,R0,R2
        LDR      R2,??OnRedraw_0+0x10  ;; playerfolder
        LDR      R1,??OnRedraw_0+0x14  ;; `?<Constant "%sskins\\\\%s%s">`
        LDR      R0,??OnRedraw_0+0x18  ;; name
        SWI      +22
//  771    DrawImg(nextx,nexty,(int)name);
        LDR      R2,??OnRedraw_0+0x18  ;; name
        LDR      R0,??OnRedraw_21+0x14  ;; nexty
        LDR      R1,[R0, #+0]
        LDR      R0,??OnRedraw_21+0x18  ;; nextx
        LDR      R0,[R0, #+0]
        SWI      +35
        B        ??OnRedraw_22
        CFI CFA R13+300
//  772   }
//  773   else
//  774     {
//  775       DrawRectangle(0,0,132,176,0,GetPaletteAdrByColorIndex(1),GetPaletteAdrByColorIndex(1));
??OnRedraw_6:
        MOV      R0,#+1
        SWI      +302
        MOV      R4,R0
        MOV      R0,#+1
        SWI      +302
        PUSH     {R4}
        CFI CFA R13+304
        PUSH     {R0}
        CFI CFA R13+308
        MOV      R0,#+0
        PUSH     {R0}
        CFI CFA R13+312
        MOV      R3,#+176
        MOV      R2,#+132
        MOV      R1,#+0
        SWI      +436
//  776       TTime ktime;
//  777       TDate date;
//  778       GetDateTime(&date,&ktime);
        ADD      R1,SP,#+12
        ADD      R0,SP,#+20
        SWI      +180
//  779       wsprintf(wss.ws1,"%i:%i%i",ktime.hour,ktime.min/10,ktime.min%10);
        LDRB     R0,[SP, #+13]
        LDR      R1,??OnRedraw_11+0xA4  ;; 0x66666667
        SMULL    R2,R3,R0,R1
        ASR      R3,R3,#+2
        MOV      R2,#+10
        MUL      R3,R2,R3
        SUB      R0,R0,R3
        PUSH     {R0}
        CFI CFA R13+316
        LDRB     R0,[SP, #+17]
        SMULL    R2,R3,R1,R0
        ASR      R3,R3,#+2
        LDRB     R2,[SP, #+16]
        LDR      R1,??OnRedraw_11+0xCC  ;; `?<Constant "%i:%i%i">`
        LDR      R0,??OnRedraw_0+0x34  ;; wss
        LDR      R0,[R0, #+0]
        SWI      +292
//  780       DrawString(wss.ws1,0,88,132,176,FONT_LARGE_BOLD,TEXT_ALIGNMIDDLE,GetPaletteAdrByColorIndex(12),GetPaletteAdrByColorIndex(1));
        MOV      R0,#+1
        SWI      +302
        MOV      R4,R0
        MOV      R0,#+12
        SWI      +302
        PUSH     {R4}
        CFI CFA R13+320
        PUSH     {R0}
        CFI CFA R13+324
        MOV      R0,#+2
        PUSH     {R0}
        CFI CFA R13+328
        MOV      R0,#+1
        PUSH     {R0}
        CFI CFA R13+332
        MOV      R0,#+176
        PUSH     {R0}
        CFI CFA R13+336
        MOV      R3,#+132
        MOV      R2,#+88
        MOV      R1,#+0
        LDR      R0,??OnRedraw_0+0x34  ;; wss
        LDR      R0,[R0, #+0]
        SWI      +332
        ADD      SP,SP,#+36       ;; stack cleaning
        CFI CFA R13+300
//  781       utf8_2ws(wss.ws1,NameOfCurentTrack,320);
        MOV      R2,#+320
        LDR      R1,??OnRedraw_21+0x1C  ;; NameOfCurentTrack
        LDR      R0,??OnRedraw_0+0x34  ;; wss
        LDR      R0,[R0, #+0]
        SWI      +483
//  782       DrawString(wss.ws1,2,2,130,88,FONT_MEDIUM,TEXT_ALIGNMIDDLE,GetPaletteAdrByColorIndex(12),GetPaletteAdrByColorIndex(1));
        MOV      R0,#+1
        SWI      +302
        MOV      R4,R0
        MOV      R0,#+12
        SWI      +302
        PUSH     {R4}
        CFI CFA R13+304
        PUSH     {R0}
        CFI CFA R13+308
        MOV      R0,#+2
        PUSH     {R0}
        CFI CFA R13+312
        PUSH     {R0}
        CFI CFA R13+316
        MOV      R0,#+88
        PUSH     {R0}
        CFI CFA R13+320
        MOV      R3,#+130
        MOV      R2,#+2
        MOV      R1,R2
        LDR      R0,??OnRedraw_0+0x34  ;; wss
        LDR      R0,[R0, #+0]
        SWI      +332
        ADD      SP,SP,#+20       ;; stack cleaning
        CFI CFA R13+300
        B        ??OnRedraw_23
//  783     }
//  784   break;
//  785 case 1:
//  786   {
//  787     DrawImg(0,0,(int)GetFon());
??OnRedraw_2:
        BL       GetFon
        MOV      R2,R0
        MOV      R1,#+0
        MOV      R0,#+0
        SWI      +35
//  788     int bottom;
//  789     if (NumberOfTracks>9)
        LDR      R0,??OnRedraw_11+0x4  ;; NumberOfTracks
        LDR      R0,[R0, #+0]
        CMP      R0,#+10
        BLT      ??OnRedraw_24
//  790     {
//  791     if((selected-4)>=0){top=selected-4;}else{top=0;}
        LDR      R0,??OnRedraw_21+0x24  ;; selected
        LDR      R0,[R0, #+0]
        SUBS     R0,R0,#+4
        BMI      ??OnRedraw_25
        LDR      R0,??OnRedraw_21+0x24  ;; selected
        LDR      R0,[R0, #+0]
        SUB      R0,R0,#+4
        B        ??OnRedraw_26
??OnRedraw_25:
        MOV      R0,#+0
??OnRedraw_26:
        LDR      R1,??OnRedraw_21+0x28  ;; top
        STR      R0,[R1, #+0]
//  792     if (top+10<NumberOfTracks){bottom=NumberOfTracks;}
//  793     bottom=top+9;
        ADD      R4,R0,#+9
//  794     if(bottom>NumberOfTracks)
        LDR      R0,??OnRedraw_11+0x4  ;; NumberOfTracks
        LDR      R0,[R0, #+0]
        CMP      R0,R4
        BGE      ??OnRedraw_27
//  795     {
//  796       while (bottom!=NumberOfTracks) {bottom--;top--;}
??OnRedraw_28:
        LDR      R0,??OnRedraw_11+0x4  ;; NumberOfTracks
        LDR      R0,[R0, #+0]
        CMP      R4,R0
        BEQ      ??OnRedraw_27
        SUB      R4,R4,#+1
        LDR      R0,??OnRedraw_21+0x28  ;; top
        LDR      R1,??OnRedraw_21+0x28  ;; top
        LDR      R1,[R1, #+0]
        SUB      R1,R1,#+1
        STR      R1,[R0, #+0]
        B        ??OnRedraw_28
//  797     }
//  798     }
//  799     else
//  800     {
//  801       top=0;
??OnRedraw_24:
        LDR      R0,??OnRedraw_21+0x28  ;; top
        MOV      R1,#+0
        STR      R1,[R0, #+0]
//  802       bottom=NumberOfTracks;
        LDR      R0,??OnRedraw_11+0x4  ;; NumberOfTracks
        LDR      R4,[R0, #+0]
//  803     }
//  804     int bkcolor=1;
//  805     if (NumberOfTracks!=0)
        CMP      R4,#+0
        BEQ      ??OnRedraw_29
//  806     {
//  807     for (int i=top;i<bottom;i++)
??OnRedraw_27:
        LDR      R0,??OnRedraw_21+0x28  ;; top
        LDR      R5,[R0, #+0]
        CMP      R5,R4
        BGE      ??OnRedraw_30
        LDR      R0,??OnRedraw_21+0x2C  ;; spysokselected
        ADD      R6,R0,R5, LSL #+2
        MOV      R0,#+128
        ORR      R0,R0,#0x7F00
        LDR      R1,??OnRedraw_21+0x30  ;; spysok
        ADD      R1,R1,R5, LSL #+7
        ADD      R7,R0,R1
//  808     {
//  809       char t[256];
//  810       int j;
//  811       if (spysok[1][i][0]==0x1F)
??OnRedraw_31:
        LDRB     R0,[R7, #+0]
        CMP      R0,#+31
        BNE      ??OnRedraw_32
//  812       {
//  813         j=28;
        MOV      R9,#+28
//  814         sprintf(t,spysok[1][i]);
        MOV      R1,R7
        ADD      R0,SP,#+16
        SWI      +22
//  815         t[0]=' ';
        MOV      R1,#+32
        STRB     R1,[SP, #+16]
        B        ??OnRedraw_33
//  816       }
//  817       else
//  818       {
//  819         j=16;
??OnRedraw_32:
        MOV      R9,#+16
//  820         sprintf(t,pp_s,spysok[1][i]);
        MOV      R2,R7
        LDR      R1,??OnRedraw_21+0x34  ;; pp_s
        ADD      R0,SP,#+16
        SWI      +22
//  821       }
//  822       t[strlen(t)-4]=0;
??OnRedraw_33:
        ADD      R0,SP,#+16
        SWI      +27
        ADD      R1,SP,#+16
        ADD      R0,R0,R1
        MOV      R1,#+0
        STRB     R1,[R0, #-4]
//  823       ////////////////////////
//  824         int colour=katalogfontcolour;
        LDR      R0,??OnRedraw_21+0x38  ;; katalogfontcolour
        LDR      R8,[R0, #+0]
//  825         if (spysokselected[i]==1){colour=katalogselectedcolour;}
        LDR      R0,[R6, #+0]
        CMP      R0,#+1
        LDREQ    R0,??OnRedraw_21+0x3C  ;; katalogselectedcolour
        LDREQ    R8,[R0, #+0]
//  826         utf8_2ws(wss.ws2,t,320);
        MOV      R2,#+320
        ADD      R1,SP,#+16
        LDR      R0,??OnRedraw_0+0x6C  ;; wss + 4
        LDR      R0,[R0, #+0]
        SWI      +483
//  827         if (i!=selected)
        LDR      R0,??OnRedraw_21+0x24  ;; selected
        LDR      R0,[R0, #+0]
        CMP      R5,R0
        BEQ      ??OnRedraw_34
//  828         {
//  829         utf8_2ws(wss.ws1,t,j);
        MOV      R2,R9
        ADD      R1,SP,#+16
        LDR      R0,??OnRedraw_0+0x34  ;; wss
        LDR      R0,[R0, #+0]
        SWI      +483
//  830         if ((Get_WS_width(wss.ws1,7))!=(Get_WS_width(wss.ws2,7)))
        MOV      R1,#+7
        LDR      R0,??OnRedraw_0+0x34  ;; wss
        LDR      R0,[R0, #+0]
        SWI      +520
        MOV      R9,R0
        MOV      R1,#+7
        LDR      R0,??OnRedraw_0+0x6C  ;; wss + 4
        LDR      R0,[R0, #+0]
        SWI      +520
        CMP      R9,R0
        BEQ      ??OnRedraw_35
//  831         {
//  832           wsprintf(wss.ws2,"...");
        ADR      R1,??OnRedraw_0+0x24  ;; "..."
        LDR      R0,??OnRedraw_0+0x6C  ;; wss + 4
        LDR      R0,[R0, #+0]
        SWI      +292
//  833           wstrcat(wss.ws1,wss.ws2);
        LDR      R0,??OnRedraw_0+0x6C  ;; wss + 4
        LDR      R1,[R0, #+0]
        LDR      R0,??OnRedraw_0+0x34  ;; wss
        LDR      R0,[R0, #+0]
        SWI      +289
//  834           //utf8_2ws(wss.ws2,t,320);
//  835           //if ((Get_WS_width(wss.ws1,7))>=(Get_WS_width(wss.ws2,7))){wss.ws1=wss.ws2;}
//  836         }
//  837         DrawString(wss.ws1,-4,(i-top)*15+22,106,(i-top+1)*15+18,7,TEXT_ALIGNLEFT,GetPaletteAdrByColorIndex(colour),GetPaletteAdrByColorIndex(23));
??OnRedraw_35:
        MOV      R0,#+23
        SWI      +302
        MOV      R9,R0
        MOV      R0,R8
        SWI      +302
        PUSH     {R9}
        CFI CFA R13+304
        PUSH     {R0}
        CFI CFA R13+308
        MOV      R0,#+1
        PUSH     {R0}
        CFI CFA R13+312
        MOV      R0,#+7
        PUSH     {R0}
        CFI CFA R13+316
        LDR      R0,??OnRedraw_21+0x28  ;; top
        LDR      R0,[R0, #+0]
        SUB      R0,R5,R0
        RSB      R0,R0,R0, LSL #+4
        ADD      R0,R0,#+33
        PUSH     {R0}
        CFI CFA R13+320
        MOV      R3,#+106
        LDR      R0,??OnRedraw_21+0x28  ;; top
        LDR      R0,[R0, #+0]
        SUB      R0,R5,R0
        RSB      R0,R0,R0, LSL #+4
        ADD      R2,R0,#+22
        MVN      R1,#+3
        LDR      R0,??OnRedraw_0+0x34  ;; wss
        LDR      R0,[R0, #+0]
        SWI      +332
        ADD      SP,SP,#+20       ;; stack cleaning
        CFI CFA R13+300
        B        ??OnRedraw_36
//  838         }
//  839         else
//  840       {
//  841         DrawScrollString(wss.ws2,-4,(i-top)*15+22,106,(i-top+1)*15+18,xdisp,7,TEXT_ALIGNLEFT,GetPaletteAdrByColorIndex(colour),GetPaletteAdrByColorIndex(katalogbackgroundcolour));
??OnRedraw_34:
        LDR      R0,??OnRedraw_21+0x40  ;; katalogbackgroundcolour
        LDR      R0,[R0, #+0]
        SWI      +302
        MOV      R9,R0
        MOV      R0,R8
        SWI      +302
        PUSH     {R9}
        CFI CFA R13+304
        PUSH     {R0}
        CFI CFA R13+308
        MOV      R0,#+1
        PUSH     {R0}
        CFI CFA R13+312
        MOV      R0,#+7
        PUSH     {R0}
        CFI CFA R13+316
        LDR      R0,??OnRedraw_21+0x44  ;; xdisp
        LDR      R0,[R0, #+0]
        PUSH     {R0}
        CFI CFA R13+320
        LDR      R0,??OnRedraw_21+0x28  ;; top
        LDR      R0,[R0, #+0]
        SUB      R0,R5,R0
        RSB      R0,R0,R0, LSL #+4
        ADD      R0,R0,#+33
        PUSH     {R0}
        CFI CFA R13+324
        MOV      R3,#+106
        LDR      R0,??OnRedraw_21+0x28  ;; top
        LDR      R0,[R0, #+0]
        SUB      R0,R5,R0
        RSB      R0,R0,R0, LSL #+4
        ADD      R2,R0,#+22
        MVN      R1,#+3
        LDR      R0,??OnRedraw_0+0x6C  ;; wss + 4
        LDR      R0,[R0, #+0]
        SWI      +519
        ADD      SP,SP,#+24       ;; stack cleaning
        CFI CFA R13+300
//  842       }
//  843       ///////////////////////
//  844     }
??OnRedraw_36:
        ADD      R5,R5,#+1
        ADD      R7,R7,#+128
        ADD      R6,R6,#+4
        CMP      R5,R4
        BLT      ??OnRedraw_31
//  845     for (int i=top;i<bottom;i++)
??OnRedraw_30:
        LDR      R0,??OnRedraw_21+0x28  ;; top
        LDR      R5,[R0, #+0]
        CMP      R5,R4
        BGE      ??OnRedraw_29
//  846     {
//  847       if (timelength[i]!=-1)
??OnRedraw_37:
        LDR      R0,??OnRedraw_11+0x80  ;; timelength
        LDR      R0,[R0, +R5, LSL #+2]
        CMN      R0,#+1
        BEQ      ??OnRedraw_38
//  848       {wsprintf(wss.ws1,"%i:%i%i",timelength[i]/60,(timelength[i]%60)/10,(timelength[i]%60)%10);}
        LDR      R0,??OnRedraw_11+0x80  ;; timelength
        LDR      R0,[R0, +R5, LSL #+2]
        LDR      R1,??OnRedraw_11+0xA0  ;; 0x88888889
        SMULL    R2,R3,R0,R1
        ADD      R3,R3,R0
        ASR      R3,R3,#+5
        ADD      R3,R3,R0, LSR #+31
        MOV      R2,#+60
        MUL      R3,R2,R3
        SUB      R0,R0,R3
        LDR      R1,??OnRedraw_11+0xA4  ;; 0x66666667
        SMULL    R2,R3,R0,R1
        ASR      R3,R3,#+2
        ADD      R3,R3,R0, LSR #+31
        MOV      R2,#+10
        MUL      R3,R2,R3
        SUB      R0,R0,R3
        PUSH     {R0}
        CFI CFA R13+304
        LDR      R0,??OnRedraw_11+0x80  ;; timelength
        LDR      R0,[R0, +R5, LSL #+2]
        LDR      R1,??OnRedraw_11+0xA0  ;; 0x88888889
        SMULL    R2,R3,R0,R1
        ADD      R3,R3,R0
        ASR      R3,R3,#+5
        ADD      R3,R3,R0, LSR #+31
        MOV      R2,#+60
        MUL      R3,R2,R3
        SUB      R0,R0,R3
        LDR      R1,??OnRedraw_11+0xA4  ;; 0x66666667
        SMULL    R2,R3,R1,R0
        ASR      R3,R3,#+2
        ADD      R3,R3,R0, LSR #+31
        LDR      R0,??OnRedraw_11+0x80  ;; timelength
        LDR      R0,[R0, +R5, LSL #+2]
        LDR      R1,??OnRedraw_11+0xA0  ;; 0x88888889
        SMULL    R2,R6,R1,R0
        ADD      R6,R6,R0
        ASR      R6,R6,#+5
        ADD      R2,R6,R0, LSR #+31
        LDR      R1,??OnRedraw_11+0xCC  ;; `?<Constant "%i:%i%i">`
        LDR      R0,??OnRedraw_0+0x34  ;; wss
        LDR      R0,[R0, #+0]
        SWI      +292
        ADD      SP,SP,#+4        ;; stack cleaning
        CFI CFA R13+300
        B        ??OnRedraw_39
        DATA
??OnRedraw_0:
        DC32     WhatToView
        DC32     `?<Constant "\\\\background.png">`
        DC32     curskin
        DC32     ArrayOfSkins
        DC32     playerfolder
        DC32     `?<Constant "%sskins\\\\%s%s">`
        DC32     name
        DC32     CurentVolume
        DC32     `?<Constant "%sskins\\\\%s\\\\VOL%i.png">`
        DC8      "..."
        DC32     volumey
        DC32     volumex
        DC32     playlistname
        DC32     wss
        DC32     spysoktextbackground
        DC32     spysoktextcolor
        DC32     spysoktextattribute
        DC32     spysokfont
        DC32     spysoky2
        DC32     spysokx2
        DC32     spysoky1
        DC32     spysokx1
        DC32     calbum
        DC32     cartist
        DC32     ctrack
        DC32     `?<Constant "%s\\r%s\\r%s">`
        DC32     `?<Constant "%t\\r%t\\r%t">`
        DC32     wss + 4
        DC32     pp
        DC32     songtextbackground
        DC32     songtextcolor
        DC32     songtextattribute
        DC32     songfont
        DC32     songy2
        DC32     songx2
        DC32     songy1
        DC32     songx1
        ARM
//  849       else
//  850       {wsprintf(wss.ws1,"...");}
??OnRedraw_38:
        ADR      R1,??OnRedraw_11  ;; "..."
        LDR      R0,??OnRedraw_21+0x48  ;; wss
        LDR      R0,[R0, #+0]
        SWI      +292
//  851       if (i==selected)
??OnRedraw_39:
        LDR      R0,??OnRedraw_21+0x24  ;; selected
        LDR      R0,[R0, #+0]
        CMP      R5,R0
//  852       {
//  853         bkcolor=katalogbackgroundcolour;
        LDREQ    R0,??OnRedraw_21+0x40  ;; katalogbackgroundcolour
        LDREQ    R0,[R0, #+0]
//  854       }
//  855       else
//  856       {
//  857         bkcolor=23;
        MOVNE    R0,#+23
//  858       }
//  859       DrawString(wss.ws1,96,(i-top)*15+22,130,(i-top+1)*15+21,7,TEXT_ALIGNRIGHT,GetPaletteAdrByColorIndex(katalogfontcolour),GetPaletteAdrByColorIndex(bkcolor));
        SWI      +302
        MOV      R6,R0
        LDR      R0,??OnRedraw_21+0x38  ;; katalogfontcolour
        LDR      R0,[R0, #+0]
        SWI      +302
        PUSH     {R6}
        CFI CFA R13+304
        PUSH     {R0}
        CFI CFA R13+308
        MOV      R0,#+4
        PUSH     {R0}
        CFI CFA R13+312
        MOV      R0,#+7
        PUSH     {R0}
        CFI CFA R13+316
        LDR      R0,??OnRedraw_21+0x28  ;; top
        LDR      R0,[R0, #+0]
        SUB      R0,R5,R0
        RSB      R0,R0,R0, LSL #+4
        ADD      R0,R0,#+36
        PUSH     {R0}
        CFI CFA R13+320
        MOV      R3,#+130
        LDR      R0,??OnRedraw_21+0x28  ;; top
        LDR      R0,[R0, #+0]
        SUB      R0,R5,R0
        RSB      R0,R0,R0, LSL #+4
        ADD      R2,R0,#+22
        MOV      R1,#+96
        LDR      R0,??OnRedraw_21+0x48  ;; wss
        LDR      R0,[R0, #+0]
        SWI      +332
//  860     }
        ADD      R5,R5,#+1
        CMP      R5,R4
        ADD      SP,SP,#+20       ;; stack cleaning
        CFI CFA R13+300
        BLT      ??OnRedraw_37
//  861     }
//  862     wsprintf(wss.ws1,"%i%c%i",selected+1,'/',NumberOfTracks);
??OnRedraw_29:
        LDR      R0,??OnRedraw_11+0x4  ;; NumberOfTracks
        LDR      R0,[R0, #+0]
        PUSH     {R0}
        CFI CFA R13+304
        MOV      R3,#+47
        LDR      R0,??OnRedraw_21+0x24  ;; selected
        LDR      R0,[R0, #+0]
        ADD      R2,R0,#+1
        LDR      R1,??OnRedraw_11+0xC  ;; `?<Constant "%i%c%i">`
        LDR      R0,??OnRedraw_21+0x48  ;; wss
        LDR      R0,[R0, #+0]
        SWI      +292
//  863     DrawString(wss.ws1,1,3,128,176,7,TEXT_ALIGNRIGHT,GetPaletteAdrByColorIndex(katalogfontcolour),GetPaletteAdrByColorIndex(23)); 
        MOV      R0,#+23
        SWI      +302
        MOV      R4,R0
        LDR      R0,??OnRedraw_21+0x38  ;; katalogfontcolour
        LDR      R0,[R0, #+0]
        SWI      +302
        PUSH     {R4}
        CFI CFA R13+308
        PUSH     {R0}
        CFI CFA R13+312
        MOV      R0,#+4
        PUSH     {R0}
        CFI CFA R13+316
        MOV      R0,#+7
        PUSH     {R0}
        CFI CFA R13+320
        MOV      R0,#+176
        PUSH     {R0}
        CFI CFA R13+324
        MOV      R3,#+128
        MOV      R2,#+3
        MOV      R1,#+1
        LDR      R0,??OnRedraw_21+0x48  ;; wss
        LDR      R0,[R0, #+0]
        SWI      +332
//  864     utf8_2ws(wss.ws1,playlistname,320);
        MOV      R2,#+320
        LDR      R1,??OnRedraw_21+0x4C  ;; playlistname
        LDR      R0,??OnRedraw_21+0x48  ;; wss
        LDR      R0,[R0, #+0]
        SWI      +483
//  865     DrawString(wss.ws1,1,3,90,15,FONT_SMALL_BOLD,TEXT_ALIGNLEFT,GetPaletteAdrByColorIndex(katalogfontcolour),GetPaletteAdrByColorIndex(23));
        MOV      R0,#+23
        SWI      +302
        MOV      R4,R0
        LDR      R0,??OnRedraw_21+0x38  ;; katalogfontcolour
        LDR      R0,[R0, #+0]
        SWI      +302
        PUSH     {R4}
        CFI CFA R13+328
        PUSH     {R0}
        CFI CFA R13+332
        MOV      R0,#+1
        PUSH     {R0}
        CFI CFA R13+336
        MOV      R0,#+8
        PUSH     {R0}
        CFI CFA R13+340
        MOV      R0,#+15
        PUSH     {R0}
        CFI CFA R13+344
        MOV      R3,#+90
        MOV      R2,#+3
        MOV      R1,#+1
        LDR      R0,??OnRedraw_21+0x48  ;; wss
        LDR      R0,[R0, #+0]
        SWI      +332
        ADD      SP,SP,#+44       ;; stack cleaning
        CFI CFA R13+300
//  866     wsprintf(wss.ws1,pt,LG_REMOVE);
        LDR      R2,??OnRedraw_21+0x50  ;; `?<Constant "\\302\\350\\344\\340\\353\\350\\362\\350">`
        LDR      R1,??OnRedraw_21+0x54  ;; pt
        LDR      R0,??OnRedraw_21+0x48  ;; wss
        LDR      R0,[R0, #+0]
        SWI      +292
//  867     DrawString(wss.ws1,1,163,130,176,7,TEXT_ALIGNLEFT,GetPaletteAdrByColorIndex(katalogfontcolour),GetPaletteAdrByColorIndex(23));
        MOV      R0,#+23
        SWI      +302
        MOV      R4,R0
        LDR      R0,??OnRedraw_21+0x38  ;; katalogfontcolour
        LDR      R0,[R0, #+0]
        SWI      +302
        PUSH     {R4}
        CFI CFA R13+304
        PUSH     {R0}
        CFI CFA R13+308
        MOV      R0,#+1
        PUSH     {R0}
        CFI CFA R13+312
        MOV      R0,#+7
        PUSH     {R0}
        CFI CFA R13+316
        MOV      R0,#+176
        PUSH     {R0}
        CFI CFA R13+320
        MOV      R3,#+130
        MOV      R2,#+163
        MOV      R1,#+1
        LDR      R0,??OnRedraw_21+0x48  ;; wss
        LDR      R0,[R0, #+0]
        SWI      +332
//  868     wsprintf(wss.ws1,pt,LG_ADD);
        LDR      R2,??OnRedraw_21+0x58  ;; `?<Constant "\\304\\356\\344\\340\\362\\350">`
        LDR      R1,??OnRedraw_21+0x54  ;; pt
        LDR      R0,??OnRedraw_21+0x48  ;; wss
        LDR      R0,[R0, #+0]
        SWI      +292
//  869     DrawString(wss.ws1,1,163,130,176,7,TEXT_ALIGNRIGHT,GetPaletteAdrByColorIndex(katalogfontcolour),GetPaletteAdrByColorIndex(23));
        MOV      R0,#+23
        SWI      +302
        MOV      R4,R0
        LDR      R0,??OnRedraw_21+0x38  ;; katalogfontcolour
        LDR      R0,[R0, #+0]
        SWI      +302
        PUSH     {R4}
        CFI CFA R13+324
        PUSH     {R0}
        CFI CFA R13+328
        MOV      R0,#+4
        PUSH     {R0}
        CFI CFA R13+332
        MOV      R0,#+7
        PUSH     {R0}
        CFI CFA R13+336
        MOV      R0,#+176
        PUSH     {R0}
        CFI CFA R13+340
        MOV      R3,#+130
        MOV      R2,#+163
        MOV      R1,#+1
        LDR      R0,??OnRedraw_21+0x48  ;; wss
        LDR      R0,[R0, #+0]
        SWI      +332
        ADD      SP,SP,#+40       ;; stack cleaning
        CFI CFA R13+300
//  870     DrawLine(0,17,132,17,0,GetPaletteAdrByColorIndex(katalogfontcolour));
        LDR      R0,??OnRedraw_21+0x38  ;; katalogfontcolour
        LDR      R0,[R0, #+0]
        SWI      +302
        PUSH     {R0}
        CFI CFA R13+304
        MOV      R0,#+0
        PUSH     {R0}
        CFI CFA R13+308
        MOV      R3,#+17
        MOV      R2,#+132
        MOV      R1,#+17
        SWI      +435
//  871     DrawLine(92,17,92,0,0,GetPaletteAdrByColorIndex(katalogfontcolour));
        LDR      R0,??OnRedraw_21+0x38  ;; katalogfontcolour
        LDR      R0,[R0, #+0]
        SWI      +302
        PUSH     {R0}
        CFI CFA R13+312
        MOV      R0,#+0
        PUSH     {R0}
        CFI CFA R13+316
        MOV      R3,R0
        MOV      R2,#+92
        MOV      R1,#+17
        MOV      R0,R2
        SWI      +435
        ADD      SP,SP,#+16       ;; stack cleaning
        CFI CFA R13+300
??OnRedraw_23:
        BL       ShowMess
        ADD      SP,SP,#+272
        CFI CFA R13+28
        POP      {R4-R9,PC}
        DATA
??OnRedraw_11:
        DC8      "..."
        DC32     NumberOfTracks
        DC32     cp
        DC32     `?<Constant "%i%c%i">`
        DC32     trackstextbackground
        DC32     trackstextcolor
        DC32     trackstextattribute
        DC32     tracksfont
        DC32     tracksy2
        DC32     tracksx2
        DC32     tracksy1
        DC32     tracksx1
        DC32     playing
        DC32     `?<Constant "\\\\stop.png">`
        DC32     `?<Constant "\\\\play.png">`
        DC32     play_stopy
        DC32     play_stopx
        DC32     random
        DC32     `?<Constant "\\\\random.png">`
        DC32     randomy
        DC32     randomx
        DC32     ringoff
        DC32     `?<Constant "\\\\off.png">`
        DC32     ringoffy
        DC32     ringoffx
        DC32     `?<Constant "\\\\plus.png">`
        DC32     volpy
        DC32     volpx
        DC32     `?<Constant "\\\\minus.png">`
        DC32     volmy
        DC32     volmx
        DC32     `?<Constant "\\\\progressbar.png">`
        DC32     timelength
        DC32     timemin
        DC32     timesec
        DC32     progressbarx1
        DC32     progressbarx2
        DC32     progressbarcolour
        DC32     progressbary1
        DC32     entime
        DC32     0x88888889
        DC32     0x66666667
        DC32     `?<Constant "%i:%i%i/%i:%i%i">`
        DC32     timetextbackground
        DC32     timetextcolor
        DC32     timetextattribute
        DC32     timefont
        DC32     timey2
        DC32     timex2
        DC32     timey1
        DC32     timex1
        DC32     `?<Constant "%i:%i%i">`
        CFI CFA R13+300
        ARM
//  872   }break;
//  873   case 2:
//  874     {
//  875       DrawRectangle(0,0,132,176,0,GetPaletteAdrByColorIndex(1),GetPaletteAdrByColorIndex(1));
??OnRedraw_3:
        MOV      R0,#+1
        SWI      +302
        MOV      R4,R0
        MOV      R0,#+1
        SWI      +302
        PUSH     {R4}
        CFI CFA R13+304
        PUSH     {R0}
        CFI CFA R13+308
        MOV      R0,#+0
        PUSH     {R0}
        CFI CFA R13+312
        MOV      R3,#+176
        MOV      R2,#+132
        MOV      R1,#+0
        SWI      +436
//  876       utf8_2ws(wss.ws1,playlistname,320);
        MOV      R2,#+320
        LDR      R1,??OnRedraw_21+0x4C  ;; playlistname
        LDR      R0,??OnRedraw_21+0x48  ;; wss
        LDR      R0,[R0, #+0]
        SWI      +483
//  877       DrawString(wss.ws1,1,3,130,40,7,TEXT_ALIGNMIDDLE,GetPaletteAdrByColorIndex(12),GetPaletteAdrByColorIndex(1));
        MOV      R0,#+1
        SWI      +302
        MOV      R4,R0
        MOV      R0,#+12
        SWI      +302
        PUSH     {R4}
        CFI CFA R13+316
        PUSH     {R0}
        CFI CFA R13+320
        MOV      R0,#+2
        PUSH     {R0}
        CFI CFA R13+324
        MOV      R0,#+7
        PUSH     {R0}
        CFI CFA R13+328
        MOV      R0,#+40
        PUSH     {R0}
        CFI CFA R13+332
        MOV      R3,#+130
        MOV      R2,#+3
        MOV      R1,#+1
        LDR      R0,??OnRedraw_21+0x48  ;; wss
        LDR      R0,[R0, #+0]
        SWI      +332
//  878       utf8_2ws(wss.ws1,spysok[1][pisniashchozberigaetsia],100);
        MOV      R2,#+100
        MOV      R0,#+128
        ORR      R0,R0,#0x7F00
        LDR      R1,??DataTable233  ;; pisniashchozberigaetsia
        LDR      R1,[R1, #+0]
        LDR      R3,??OnRedraw_21+0x30  ;; spysok
        ADD      R1,R3,R1, LSL #+7
        ADD      R1,R0,R1
        LDR      R0,??OnRedraw_21+0x48  ;; wss
        LDR      R0,[R0, #+0]
        SWI      +483
//  879       DrawString(wss.ws1,1,40,130,80,7,TEXT_ALIGNMIDDLE,GetPaletteAdrByColorIndex(12),GetPaletteAdrByColorIndex(1));
        MOV      R0,#+1
        SWI      +302
        MOV      R4,R0
        MOV      R0,#+12
        SWI      +302
        PUSH     {R4}
        CFI CFA R13+336
        PUSH     {R0}
        CFI CFA R13+340
        MOV      R0,#+2
        PUSH     {R0}
        CFI CFA R13+344
        MOV      R0,#+7
        PUSH     {R0}
        CFI CFA R13+348
        MOV      R0,#+80
        PUSH     {R0}
        CFI CFA R13+352
        MOV      R3,#+130
        MOV      R2,#+40
        MOV      R1,#+1
        LDR      R0,??OnRedraw_21+0x48  ;; wss
        LDR      R0,[R0, #+0]
        SWI      +332
        ADD      SP,SP,#+52       ;; stack cleaning
        CFI CFA R13+300
//  880       DrawRectangle(0,80,132,100,0,GetPaletteAdrByColorIndex(12),GetPaletteAdrByColorIndex(1));
        MOV      R0,#+1
        SWI      +302
        MOV      R4,R0
        MOV      R0,#+12
        SWI      +302
        PUSH     {R4}
        CFI CFA R13+304
        PUSH     {R0}
        CFI CFA R13+308
        MOV      R0,#+0
        PUSH     {R0}
        CFI CFA R13+312
        MOV      R3,#+100
        MOV      R2,#+132
        MOV      R1,#+80
        SWI      +436
//  881       DrawRectangle(0,80,132*(pisniashchozberigaetsia+1)/NumberOfTracks,100,0,GetPaletteAdrByColorIndex(12),GetPaletteAdrByColorIndex(12));
        MOV      R0,#+12
        SWI      +302
        MOV      R4,R0
        MOV      R0,#+12
        SWI      +302
        PUSH     {R4}
        CFI CFA R13+316
        PUSH     {R0}
        CFI CFA R13+320
        MOV      R0,#+0
        PUSH     {R0}
        CFI CFA R13+324
        MOV      R3,#+100
        LDR      R0,??DataTable233  ;; pisniashchozberigaetsia
        LDR      R0,[R0, #+0]
        ADD      R0,R0,#+1
        MOV      R1,#+132
        MUL      R0,R1,R0
        LDR      R1,??DataTable227  ;; NumberOfTracks
        LDR      R1,[R1, #+0]
        _BLF     ??div32_a,??rA??div32_a
        MOV      R2,R1
        MOV      R1,#+80
        MOV      R0,#+0
        SWI      +436
//  882       wsprintf(wss.ws1,"%i%c%i",pisniashchozberigaetsia+1,'/',NumberOfTracks);
        LDR      R0,??DataTable227  ;; NumberOfTracks
        LDR      R0,[R0, #+0]
        PUSH     {R0}
        CFI CFA R13+328
        MOV      R3,#+47
        LDR      R0,??DataTable233  ;; pisniashchozberigaetsia
        LDR      R0,[R0, #+0]
        ADD      R2,R0,#+1
        LDR      R1,??OnRedraw_21+0x5C  ;; `?<Constant "%i%c%i">`
        LDR      R0,??OnRedraw_21+0x48  ;; wss
        LDR      R0,[R0, #+0]
        SWI      +292
//  883       DrawString(wss.ws1,0,84,132,100,7,TEXT_ALIGNMIDDLE,GetPaletteAdrByColorIndex(1),GetPaletteAdrByColorIndex(12));
        MOV      R0,#+12
        SWI      +302
        MOV      R4,R0
        MOV      R0,#+1
        SWI      +302
        PUSH     {R4}
        CFI CFA R13+332
        PUSH     {R0}
        CFI CFA R13+336
        MOV      R0,#+2
        PUSH     {R0}
        CFI CFA R13+340
        MOV      R0,#+7
        PUSH     {R0}
        CFI CFA R13+344
        MOV      R0,#+100
        PUSH     {R0}
        CFI CFA R13+348
        MOV      R3,#+132
        MOV      R2,#+84
        MOV      R1,#+0
        LDR      R0,??OnRedraw_21+0x48  ;; wss
        LDR      R0,[R0, #+0]
        SWI      +332
        ADD      SP,SP,#+48       ;; stack cleaning
        CFI CFA R13+300
        B        ??OnRedraw_23
//  884     }break;
//  885 case 3:
//  886   {
//  887     sprintf(name,"%sskins\\%s%s",playerfolder,ArrayOfSkins[curskin],"\\fon.png");
??OnRedraw_4:
        LDR      R0,??DataTable123  ;; `?<Constant "\\\\fon.png">`
        PUSH     {R0}
        CFI CFA R13+304
        LDR      R0,??DataTable124  ;; curskin
        LDR      R0,[R0, #+0]
        MOV      R1,#+20
        LDR      R2,??DataTable125  ;; ArrayOfSkins
        MLA      R3,R1,R0,R2
        LDR      R2,??DataTable126  ;; playerfolder
        LDR      R1,??DataTable127  ;; `?<Constant "%sskins\\\\%s%s">`
        LDR      R0,??DataTable129  ;; name
        SWI      +22
//  888     DrawImg(0,0,(int)name);
        LDR      R2,??DataTable129  ;; name
        MOV      R1,#+0
        MOV      R0,#+0
        SWI      +35
//  889     int bottom;
//  890     if (kataloglength>9)
        LDR      R0,??DataTable135  ;; kataloglength
        LDR      R0,[R0, #+0]
        CMP      R0,#+10
        ADD      SP,SP,#+4        ;; stack cleaning
        CFI CFA R13+300
        BLT      ??OnRedraw_40
//  891     {
//  892     if((katalogcurent-4)>=0){top=katalogcurent-4;}else{top=0;}
        LDR      R0,??DataTable200  ;; katalogcurent
        LDR      R0,[R0, #+0]
        SUBS     R0,R0,#+4
        BMI      ??OnRedraw_41
        LDR      R0,??DataTable200  ;; katalogcurent
        LDR      R0,[R0, #+0]
        SUB      R0,R0,#+4
        B        ??OnRedraw_42
??OnRedraw_41:
        MOV      R0,#+0
??OnRedraw_42:
        LDR      R1,??OnRedraw_21+0x28  ;; top
        STR      R0,[R1, #+0]
//  893     if (top+10<kataloglength){bottom=kataloglength;}
//  894     bottom=top+9;
        ADD      R4,R0,#+9
//  895     if(bottom>kataloglength)
        LDR      R0,??DataTable135  ;; kataloglength
        LDR      R0,[R0, #+0]
        CMP      R0,R4
        BGE      ??OnRedraw_43
//  896     {
//  897       while (bottom!=kataloglength) {bottom--;top--;}
??OnRedraw_44:
        LDR      R0,??DataTable135  ;; kataloglength
        LDR      R0,[R0, #+0]
        CMP      R4,R0
        BEQ      ??OnRedraw_43
        SUB      R4,R4,#+1
        LDR      R0,??OnRedraw_21+0x28  ;; top
        LDR      R1,??OnRedraw_21+0x28  ;; top
        LDR      R1,[R1, #+0]
        SUB      R1,R1,#+1
        STR      R1,[R0, #+0]
        B        ??OnRedraw_44
//  898     }
//  899     }
//  900     else
//  901     {
//  902       top=0;
??OnRedraw_40:
        LDR      R0,??OnRedraw_21+0x28  ;; top
        MOV      R1,#+0
        STR      R1,[R0, #+0]
//  903       bottom=kataloglength;
        LDR      R0,??DataTable135  ;; kataloglength
        LDR      R4,[R0, #+0]
//  904     }
//  905     for (int i=top;i<bottom;i++)
??OnRedraw_43:
        LDR      R0,??OnRedraw_21+0x28  ;; top
        LDR      R5,[R0, #+0]
        CMP      R5,R4
        BGE      ??OnRedraw_45
//  906     {
//  907       char t[256];
//  908       int j;
//  909       if (katalog[i][0]==0x1F)
??OnRedraw_46:
        LDR      R0,??DataTable176  ;; katalog
        LDRB     R0,[R0, +R5, LSL #+7]
        CMP      R0,#+31
        BNE      ??OnRedraw_47
//  910       {
//  911         j=34;
        MOV      R6,#+34
//  912         sprintf(t,katalog[i]);
        LDR      R0,??DataTable176  ;; katalog
        ADD      R1,R0,R5, LSL #+7
        ADD      R0,SP,#+16
        SWI      +22
//  913         t[0]=' ';
        MOV      R1,#+32
        STRB     R1,[SP, #+16]
        B        ??OnRedraw_48
//  914       }
//  915       else
//  916       {
//  917         j=20;
??OnRedraw_47:
        MOV      R6,#+20
//  918         sprintf(t,pp_s,katalog[i]);
        LDR      R0,??DataTable176  ;; katalog
        ADD      R2,R0,R5, LSL #+7
        LDR      R1,??OnRedraw_21+0x34  ;; pp_s
        ADD      R0,SP,#+16
        SWI      +22
//  919       }
//  920       ////////////////////////
//  921         
//  922         utf8_2ws(wss.ws2,t,320);
??OnRedraw_48:
        MOV      R2,#+320
        ADD      R1,SP,#+16
        LDR      R0,??DataTable145  ;; wss + 4
        LDR      R0,[R0, #+0]
        SWI      +483
//  923       int colour;
//  924       if (katalogselected[i]==1){colour=katalogselectedcolour;}else{colour=katalogfontcolour;};
        LDR      R0,??DataTable192  ;; katalogselected
        LDR      R0,[R0, +R5, LSL #+2]
        CMP      R0,#+1
        LDREQ    R0,??OnRedraw_21+0x3C  ;; katalogselectedcolour
        LDRNE    R0,??OnRedraw_21+0x38  ;; katalogfontcolour
        LDR      R7,[R0, #+0]
//  925         if (i!=katalogcurent)
        LDR      R0,??DataTable200  ;; katalogcurent
        LDR      R0,[R0, #+0]
        CMP      R5,R0
        BEQ      ??OnRedraw_49
//  926         {
//  927         utf8_2ws(wss.ws1,t,j);
        MOV      R2,R6
        ADD      R1,SP,#+16
        LDR      R0,??OnRedraw_21+0x48  ;; wss
        LDR      R0,[R0, #+0]
        SWI      +483
//  928         if ((Get_WS_width(wss.ws1,7))!=(Get_WS_width(wss.ws2,7)))
        MOV      R1,#+7
        LDR      R0,??OnRedraw_21+0x48  ;; wss
        LDR      R0,[R0, #+0]
        SWI      +520
        MOV      R6,R0
        MOV      R1,#+7
        LDR      R0,??DataTable145  ;; wss + 4
        LDR      R0,[R0, #+0]
        SWI      +520
        CMP      R6,R0
        BEQ      ??OnRedraw_50
//  929         {
//  930           wsprintf(wss.ws2,"...");
        ADR      R1,??OnRedraw_21+0x4  ;; "..."
        LDR      R0,??DataTable145  ;; wss + 4
        LDR      R0,[R0, #+0]
        SWI      +292
//  931           wstrcat(wss.ws1,wss.ws2);
        LDR      R0,??DataTable145  ;; wss + 4
        LDR      R1,[R0, #+0]
        LDR      R0,??OnRedraw_21+0x48  ;; wss
        LDR      R0,[R0, #+0]
        SWI      +289
//  932           //utf8_2ws(wss.ws2,t,320);
//  933           //if ((Get_WS_width(wss.ws1,7))>=(Get_WS_width(wss.ws2,7))){wss.ws1=wss.ws2;}
//  934         }
//  935         DrawString(wss.ws1,-4,(i-top)*15+22,130,(i-top+1)*15+18,7,TEXT_ALIGNLEFT,GetPaletteAdrByColorIndex(colour),GetPaletteAdrByColorIndex(23));
??OnRedraw_50:
        MOV      R0,#+23
        SWI      +302
        MOV      R6,R0
        MOV      R0,R7
        SWI      +302
        PUSH     {R6}
        CFI CFA R13+304
        PUSH     {R0}
        CFI CFA R13+308
        MOV      R0,#+1
        PUSH     {R0}
        CFI CFA R13+312
        MOV      R0,#+7
        PUSH     {R0}
        CFI CFA R13+316
        LDR      R0,??OnRedraw_21+0x28  ;; top
        LDR      R0,[R0, #+0]
        SUB      R0,R5,R0
        RSB      R0,R0,R0, LSL #+4
        ADD      R0,R0,#+33
        PUSH     {R0}
        CFI CFA R13+320
        MOV      R3,#+130
        LDR      R0,??OnRedraw_21+0x28  ;; top
        LDR      R0,[R0, #+0]
        SUB      R0,R5,R0
        RSB      R0,R0,R0, LSL #+4
        ADD      R2,R0,#+22
        MVN      R1,#+3
        LDR      R0,??OnRedraw_21+0x48  ;; wss
        LDR      R0,[R0, #+0]
        SWI      +332
        ADD      SP,SP,#+20       ;; stack cleaning
        CFI CFA R13+300
        B        ??OnRedraw_51
//  936         }
//  937         else
//  938       {
//  939         DrawScrollString(wss.ws2,-4,(i-top)*15+22,130,(i-top+1)*15+18,xdisp,7,TEXT_ALIGNLEFT,GetPaletteAdrByColorIndex(colour),GetPaletteAdrByColorIndex(23));
??OnRedraw_49:
        MOV      R0,#+23
        SWI      +302
        MOV      R6,R0
        MOV      R0,R7
        SWI      +302
        PUSH     {R6}
        CFI CFA R13+304
        PUSH     {R0}
        CFI CFA R13+308
        MOV      R0,#+1
        PUSH     {R0}
        CFI CFA R13+312
        MOV      R0,#+7
        PUSH     {R0}
        CFI CFA R13+316
        LDR      R0,??OnRedraw_21+0x44  ;; xdisp
        LDR      R0,[R0, #+0]
        PUSH     {R0}
        CFI CFA R13+320
        LDR      R0,??OnRedraw_21+0x28  ;; top
        LDR      R0,[R0, #+0]
        SUB      R0,R5,R0
        RSB      R0,R0,R0, LSL #+4
        ADD      R0,R0,#+33
        PUSH     {R0}
        CFI CFA R13+324
        MOV      R3,#+130
        LDR      R0,??OnRedraw_21+0x28  ;; top
        LDR      R0,[R0, #+0]
        SUB      R0,R5,R0
        RSB      R0,R0,R0, LSL #+4
        ADD      R2,R0,#+22
        MVN      R1,#+3
        LDR      R0,??DataTable145  ;; wss + 4
        LDR      R0,[R0, #+0]
        SWI      +519
        ADD      SP,SP,#+24       ;; stack cleaning
        CFI CFA R13+300
//  940       }
//  941       ///////////////////////
//  942     }
??OnRedraw_51:
        ADD      R5,R5,#+1
        CMP      R5,R4
        BLT      ??OnRedraw_46
//  943     //utf8_2ws(wss.ws1,playlistname,320);
//  944     //DrawString(wss.ws1,1,3,90,15,FONT_SMALL_BOLD,TEXT_ALIGNLEFT,GetPaletteAdrByColorIndex(color),GetPaletteAdrByColorIndex(background));
//  945     wsprintf(wss.ws1,pt,LG_SELECT);
??OnRedraw_45:
        LDR      R2,??OnRedraw_21+0x60  ;; `?<Constant "\\302\\350\\341i\\360">`
        LDR      R1,??OnRedraw_21+0x54  ;; pt
        LDR      R0,??OnRedraw_21+0x48  ;; wss
        LDR      R0,[R0, #+0]
        SWI      +292
//  946     DrawString(wss.ws1,1,163,130,176,7,TEXT_ALIGNLEFT,GetPaletteAdrByColorIndex(katalogfontcolour),GetPaletteAdrByColorIndex(23));
        MOV      R0,#+23
        SWI      +302
        MOV      R4,R0
        LDR      R0,??OnRedraw_21+0x38  ;; katalogfontcolour
        LDR      R0,[R0, #+0]
        SWI      +302
        PUSH     {R4}
        CFI CFA R13+304
