##############################################################################
#                                                                            #
# IAR ARM ANSI C/C++ Compiler V4.42A/W32 EVALUATION    23/Feb/2011  14:04:25 #
# Copyright 1999-2005 IAR Systems. All rights reserved.                      #
#                                                                            #
#    Cpu mode        =  interwork                                            #
#    Endian          =  little                                               #
#    Stack alignment =  4                                                    #
#    Source file     =  C:\arm\MusicButton\conf_loader.c                     #
#    Command line    =  C:\arm\MusicButton\conf_loader.c -D NEWSGOLD -lC     #
#                       C:\arm\MusicButton\NSG\List\ -o                      #
#                       C:\arm\MusicButton\NSG\Obj\ -z9 --cpu_mode arm       #
#                       --endian little --cpu ARM926EJ-S --stack_align 4     #
#                       --interwork -e --fpu None -I "C:\arm2\Embedded       #
#                       Workbench 4.0 Evaluation\ARM\INC\"                   #
#                       --inline_threshold=2                                 #
#    List file       =  C:\arm\MusicButton\NSG\List\conf_loader.lst          #
#    Object file     =  C:\arm\MusicButton\NSG\Obj\conf_loader.r79           #
#                                                                            #
#                                                                            #
##############################################################################

C:\arm\MusicButton\conf_loader.c
      1          #include "..\inc\swilib.h"
      2          #include "..\inc\cfg_items.h"
      3          #include "conf_loader.h"
      4          

   \                                 In segment DATA_I, align 4, align-sorted
      5          const char *successed_config_filename="";
   \                     successed_config_filename:
   \   00000000                      DS8 4
   \   00000004                      REQUIRE `?<Initializer for successed_config_filename>`
      6          
      7          #pragma segment="CONFIG_C"

   \                                 In segment CODE, align 4, keep-with-next
      8          int LoadConfigData(const char *fname)
      9          {
   \                     LoadConfigData:
   \   00000000   F1472DE9           PUSH     {R0,R4-R10,LR}
     10            int f;
     11            unsigned int ul;
     12            char *buf;
     13            int result=0;
     14            void *cfg;
     15          
     16            extern const CFG_HDR cfghdr0_0; //first var in CONFIG
     17            cfg=(void*)&cfghdr0_0;
     18          
     19            unsigned int len=(int)__segment_end("CONFIG_C")-(int)__segment_begin("CONFIG_C");
   \   00000004   E4609FE5           LDR      R6,??LoadConfigData_0  ;; SFE(CONFIG_C) - SFB(CONFIG_C)
   \   00000008   0040A0E1           MOV      R4,R0
   \   0000000C   0050A0E3           MOV      R5,#+0
     20          
     21            if (!(buf=malloc(len))) return -1;
   \   00000010   0600A0E1           MOV      R0,R6
   \   00000014   140000EF           SWI      +20
   \   00000018   0070B0E1           MOVS     R7,R0
   \   0000001C   0500E001           MVNEQ    R0,R5
   \   00000020   F287BD08           POPEQ    {R1,R4-R10,PC}
     22            if ((f=fopen(fname,A_ReadOnly+A_BIN,P_READ,&ul))!=-1)
   \   00000024   C8909FE5           LDR      R9,??LoadConfigData_0+0x4  ;; cfghdr0_0
   \   00000028   0D30A0E1           MOV      R3,SP
   \   0000002C   8020A0E3           MOV      R2,#+128
   \   00000030   801CA0E3           MOV      R1,#+32768
   \   00000034   0400A0E1           MOV      R0,R4
   \   00000038   0A0000EF           SWI      +10
   \   0000003C   0080A0E1           MOV      R8,R0
   \   00000040   05A0E0E1           MVN      R10,R5
   \   00000044   0A0058E1           CMP      R8,R10
   \   00000048   0D00000A           BEQ      ??LoadConfigData_1
     23            {
     24              if (fread(f,buf,len,&ul)==len)
   \   0000004C   0D30A0E1           MOV      R3,SP
   \   00000050   0620A0E1           MOV      R2,R6
   \   00000054   0710A0E1           MOV      R1,R7
   \   00000058   0B0000EF           SWI      +11
   \   0000005C   060050E1           CMP      R0,R6
   \   00000060   0400001A           BNE      ??LoadConfigData_2
     25              {
     26                memcpy(cfg,buf,len);
   \   00000064   0620A0E1           MOV      R2,R6
   \   00000068   0710A0E1           MOV      R1,R7
   \   0000006C   0900A0E1           MOV      R0,R9
   \   00000070   1E0100EF           SWI      +286
   \   00000074   110000EA           B        ??LoadConfigData_3
     27                fclose(f,&ul);
     28              }
     29              else
     30              {
     31                fclose(f,&ul);
   \                     ??LoadConfigData_2:
   \   00000078   0D10A0E1           MOV      R1,SP
   \   0000007C   0800A0E1           MOV      R0,R8
   \   00000080   0D0000EF           SWI      +13
     32                goto L_SAVENEWCFG;
     33              }
     34            }
     35            else
     36            {
     37            L_SAVENEWCFG:
     38              if ((f=fopen(fname,A_ReadWrite+A_Create+A_Truncate,P_READ+P_WRITE,&ul))!=-1)
   \                     ??LoadConfigData_1:
   \   00000084   0D30A0E1           MOV      R3,SP
   \   00000088   602FA0E3           MOV      R2,#+384
   \   0000008C   0210A0E3           MOV      R1,#+2
   \   00000090   C01F81E3           ORR      R1,R1,#0x300
   \   00000094   0400A0E1           MOV      R0,R4
   \   00000098   0A0000EF           SWI      +10
   \   0000009C   0080A0E1           MOV      R8,R0
   \   000000A0   0A0058E1           CMP      R8,R10
   \   000000A4   0900000A           BEQ      ??LoadConfigData_4
     39              {
     40                if (fwrite(f,cfg,len,&ul)!=len) result=-1;
   \   000000A8   0D30A0E1           MOV      R3,SP
   \   000000AC   0620A0E1           MOV      R2,R6
   \   000000B0   0910A0E1           MOV      R1,R9
   \   000000B4   0C0000EF           SWI      +12
   \   000000B8   060050E1           CMP      R0,R6
   \   000000BC   0A50A011           MOVNE    R5,R10
     41                fclose(f,&ul);
   \                     ??LoadConfigData_3:
   \   000000C0   0D10A0E1           MOV      R1,SP
   \   000000C4   0800A0E1           MOV      R0,R8
   \   000000C8   0D0000EF           SWI      +13
   \   000000CC   000000EA           B        ??LoadConfigData_5
     42              }
     43              else
     44                result=-1;
   \                     ??LoadConfigData_4:
   \   000000D0   0A50A0E1           MOV      R5,R10
     45            }
     46            mfree(buf);
   \                     ??LoadConfigData_5:
   \   000000D4   0700A0E1           MOV      R0,R7
   \   000000D8   150000EF           SWI      +21
     47            if (result>=0) successed_config_filename=fname;
   \   000000DC   000055E3           CMP      R5,#+0
   \   000000E0   10009F55           LDRPL    R0,??LoadConfigData_0+0x8  ;; successed_config_filename
   \   000000E4   00408055           STRPL    R4,[R0, #+0]
     48            return(result);
   \   000000E8   0500A0E1           MOV      R0,R5
   \   000000EC   F287BDE8           POP      {R1,R4-R10,PC}   ;; return
   \                     ??LoadConfigData_0:
   \   000000F0   ........           DC32     SFE(CONFIG_C) - SFB(CONFIG_C)
   \   000000F4   ........           DC32     cfghdr0_0
   \   000000F8   ........           DC32     successed_config_filename
     49          }
     50          

   \                                 In segment CODE, align 4, keep-with-next
     51          void InitConfig()
     52          {
   \                     InitConfig:
   \   00000000   10402DE9           PUSH     {R4,LR}
     53            if (LoadConfigData("4:\\ZBin\\etc\\PlayersControl.bcfg")<0)
   \   00000004   18409FE5           LDR      R4,??InitConfig_0  ;; `?<Constant "0:\\\\ZBin\\\\etc\\\\PlayersCo...">`
   \   00000008   200084E2           ADD      R0,R4,#+32
   \   0000000C   ........           BL       LoadConfigData
   \   00000010   000050E3           CMP      R0,#+0
   \   00000014   1080BD58           POPPL    {R4,PC}
     54            {
     55              LoadConfigData("0:\\ZBin\\etc\\PlayersControl.bcfg");
   \   00000018   0400A0E1           MOV      R0,R4
   \   0000001C   ........           BL       LoadConfigData
     56            }
     57          }
   \   00000020   1080BDE8           POP      {R4,PC}          ;; return
   \                     ??InitConfig_0:
   \   00000024   ........           DC32     `?<Constant "0:\\\\ZBin\\\\etc\\\\PlayersCo...">`

   \                                 In segment DATA_ID, align 4, align-sorted
   \                     `?<Initializer for successed_config_filename>`:
   \   00000000   ........           DC32 `?<Constant "">`

   \                                 In segment CONFIG_C, align 1

   \                                 In segment DATA_C, align 1, align-sorted
   \                     `?<Constant "">`:
   \   00000000   00                 DC8 ""

   \                                 In segment DATA_C, align 4, align-sorted
   \                     `?<Constant "0:\\\\ZBin\\\\etc\\\\PlayersCo...">`:
   \   00000000   303A5C5A4269       DC8 "0:\\ZBin\\etc\\PlayersControl.bcfg"
   \              6E5C6574635C
   \              506C61796572
   \              73436F6E7472
   \              6F6C2E626366
   \              6700        
   \   00000020   343A5C5A4269       DC8 "4:\\ZBin\\etc\\PlayersControl.bcfg"
   \              6E5C6574635C
   \              506C61796572
   \              73436F6E7472
   \              6F6C2E626366
   \              6700        

   Maximum stack usage in bytes:

     Function       CSTACK
     --------       ------
     InitConfig         8
     LoadConfigData    36


   Segment part sizes:

     Function/Label                 Bytes
     --------------                 -----
     successed_config_filename         4
     LoadConfigData                  252
     InitConfig                       40
     ?<Initializer for successed_config_filename>
                                       4
     ?<Constant "">                    1
     ?<Constant "0:\\ZBin\\etc\\PlayersCo...">
                                      64
      Others                          20

 
 300 bytes in segment CODE
  65 bytes in segment DATA_C
   4 bytes in segment DATA_I
   4 bytes in segment DATA_ID
  12 bytes in segment INITTAB
 
 292 bytes of CODE  memory (+ 20 bytes shared)
  69 bytes of CONST memory
   4 bytes of DATA  memory

Errors: none
Warnings: none
