##############################################################################
#                                                                            #
# IAR ARM ANSI C/C++ Compiler V4.42A/W32 EVALUATION    04/Jul/2010  14:49:12 #
# Copyright 1999-2005 IAR Systems. All rights reserved.                      #
#                                                                            #
#    Cpu mode        =  interwork                                            #
#    Endian          =  little                                               #
#    Stack alignment =  4                                                    #
#    Source file     =  C:\arm\MusicButton\player_tags.c                     #
#    Command line    =  C:\arm\MusicButton\player_tags.c -D NEWSGOLD -lC     #
#                       C:\arm\MusicButton\NSG\List\ -o                      #
#                       C:\arm\MusicButton\NSG\Obj\ -s9 --no_unroll          #
#                       --no_clustering --cpu_mode arm --endian little       #
#                       --cpu ARM926EJ-S --stack_align 4 --interwork -e      #
#                       --fpu None -I "C:\arm2\Embedded Workbench 4.0        #
#                       Evaluation\ARM\INC\" --inline_threshold=2            #
#    List file       =  C:\arm\MusicButton\NSG\List\player_tags.lst          #
#    Object file     =  C:\arm\MusicButton\NSG\Obj\player_tags.r79           #
#                                                                            #
#                                                                            #
##############################################################################

C:\arm\MusicButton\player_tags.c
      1          #ifdef NEWSGOLD
      2          #include "..\inc\swilib.h"
      3          typedef  unsigned char byte;
      4          typedef  unsigned short word;
      5          typedef  unsigned int dword;
      6          #include "player_tags.h"
      7          

   \                                 In segment DATA_Z, align 4, align-sorted
      8            int scr_w;
   \                     scr_w:
   \   00000000                      DS8 4
      9            extern unsigned long  strtoul (const char *nptr,char **endptr,int base); //must overwrite
     10            extern const char CsmAdr[];

   \                                 In segment DATA_Z, align 4, align-sorted
     11            unsigned int pcsmid=0;
   \                     pcsmid:
   \   00000000                      DS8 4
     12            //extern const unsigned int cX;
     13            extern const unsigned int cfnt;
     14            

   \                                 In segment DATA_Z, align 4, align-sorted
     15            void *pcsmadr=NULL;
   \                     pcsmadr:
   \   00000000                      DS8 4

   \                                 In segment DATA_Z, align 4, align-sorted
     16            WSHDR *wstag=NULL;
   \                     wstag:
   \   00000000                      DS8 4

   \                                 In segment DATA_Z, align 2, align-sorted
     17            word tagw=0;
   \                     tagw:
   \   00000000                      DS8 2
     18          //------------------------------------
     19          
     20          
     21          

   \                                 In segment CODE, align 4, keep-with-next
     22          void  initTags(){
     23            pcsmadr=(void *)strtoul(CsmAdr,NULL,16);
   \                     initTags:
   \   00000000   34009FE5           LDR      R0,??initTags_0  ;; CsmAdr
   \   00000004   10402DE9           PUSH     {R4,LR}
   \   00000008   1020A0E3           MOV      R2,#+16
     24            if (!wstag)    wstag=AllocWS(256);
   \   0000000C   ........           LDR      R4,??DataTable4  ;; wstag
   \   00000010   0010A0E3           MOV      R1,#+0
   \   00000014   ........           _BLF     strtoul,??strtoul??rA
   \   00000018   ........           LDR      R1,??DataTable3  ;; pcsmadr
   \   0000001C   000081E5           STR      R0,[R1, #+0]
   \   00000020   000094E5           LDR      R0,[R4, #+0]
   \   00000024   000050E3           CMP      R0,#+0
   \   00000028   1080BD18           POPNE    {R4,PC}
   \   0000002C   400FA0E3           MOV      R0,#+256
   \   00000030   250100EF           SWI      +293
   \   00000034   000084E5           STR      R0,[R4, #+0]
     25          };
   \   00000038   1080BDE8           POP      {R4,PC}          ;; return
   \                     ??initTags_0:
   \   0000003C   ........           DC32     CsmAdr
     26          //------------------------------------

   \                                 In segment CODE, align 4, keep-with-next
     27           void GetTags(){  //Respect to Rst7
   \                     GetTags:
   \   00000000   F04F2DE9           PUSH     {R4-R11,LR}
     28            if (pcsmid){
   \   00000004   08439FE5           LDR      R4,??GetTags_0+0x4  ;; pcsmid
   \   00000008   58D04DE2           SUB      SP,SP,#+88
   \   0000000C   000094E5           LDR      R0,[R4, #+0]
   \   00000010   000050E3           CMP      R0,#+0
   \   00000014   AD00000A           BEQ      ??GetTags_1
     29              CSM_RAM *csmp=FindCSMbyID(pcsmid);
   \   00000018   080100EF           SWI      +264
   \   0000001C   0080B0E1           MOVS     R8,R0
     30              if (csmp){
   \   00000020   0050A0E3           MOV      R5,#+0
   \   00000024   A600000A           BEQ      ??GetTags_2
     31                WSHDR *fn=((WSHDR **)csmp)[0x2C/4];
   \   00000028   2C6098E5           LDR      R6,[R8, #+44]
     32          
     33          
     34            
     35                if (!fn)return;
   \   0000002C   000056E3           CMP      R6,#+0
     36                if (!fn->wsbody) return;
   \   00000030   00009615           LDRNE    R0,[R6, #+0]
   \   00000034   00005013           CMPNE    R0,#+0
     37                if (fn->wsbody[0])        ;
     38          #ifdef ELKA
     39                  WSHDR **wws=((WSHDR ***)csmp)[(0x18C/4)]-1;
     40           #else
     41                  WSHDR **wws=((WSHDR ***)csmp)[(0x170/4)]-1;
   \   00000038   70019815           LDRNE    R0,[R8, #+368]
   \   0000003C   04705012           SUBSNE   R7,R0,#+4
     42          #endif
     43                if (wws)        {
   \   00000040   B000000A           BEQ      ??GetTags_3
     44                  WSHDR *tws;
     45                  const char unk[]="Unkhown";
   \   00000044   CC129FE5           LDR      R1,??GetTags_0+0x8  ;; `?<Constant "Unkhown">`
     46                  const char pr[]="%w - %w";
     47                  if (!(tws=wws[2]));else
   \   00000048   ........           LDR      R4,??DataTable4  ;; wstag
   \   0000004C   0C0091E8           LDM      R1,{R2,R3}
   \   00000050   C4129FE5           LDR      R1,??GetTags_0+0xC  ;; `?<Constant "%w - %w">`
   \   00000054   0D00A0E1           MOV      R0,SP
   \   00000058   0C0080E8           STM      R0,{R2,R3}
   \   0000005C   0C0091E8           LDM      R1,{R2,R3}
   \   00000060   08008DE2           ADD      R0,SP,#+8
   \   00000064   0C0080E8           STM      R0,{R2,R3}
   \   00000068   081097E5           LDR      R1,[R7, #+8]
   \   0000006C   000051E3           CMP      R1,#+0
     48                    if (!(tws->wsbody));else
   \   00000070   00209115           LDRNE    R2,[R1, #+0]
   \   00000074   00005213           CMPNE    R2,#+0
   \   00000078   0800000A           BEQ      ??GetTags_4
     49                      if (tws->wsbody[0])      
   \   0000007C   B020D2E1           LDRH     R2,[R2, #+0]
   \   00000080   000094E5           LDR      R0,[R4, #+0]
   \   00000084   000052E3           CMP      R2,#+0
   \   00000088   0100000A           BEQ      ??GetTags_5
     50                        wstrcpy(wstag,tws);
   \   0000008C   1F0100EF           SWI      +287
   \   00000090   020000EA           B        ??GetTags_4
     51                       else  wsprintf(wstag,"%t",unk);
   \                     ??GetTags_5:
   \   00000094   0D20A0E1           MOV      R2,SP
   \   00000098   9C1F8FE2           ADR      R1,??GetTags_0   ;; "%t"
   \   0000009C   240100EF           SWI      +292
     52                  if (!(tws=wws[1]));else
   \                     ??GetTags_4:
   \   000000A0   043097E5           LDR      R3,[R7, #+4]
   \   000000A4   000053E3           CMP      R3,#+0
     53                    if (!(tws->wsbody));else
   \   000000A8   00109315           LDRNE    R1,[R3, #+0]
   \   000000AC   00005113           CMPNE    R1,#+0
   \   000000B0   0900000A           BEQ      ??GetTags_6
     54                      if (tws->wsbody[0])     
   \   000000B4   B010D1E1           LDRH     R1,[R1, #+0]
   \   000000B8   000094E5           LDR      R0,[R4, #+0]
   \   000000BC   000051E3           CMP      R1,#+0
   \   000000C0   0300000A           BEQ      ??GetTags_7
     55                        wsprintf(wstag,pr,wstag,tws);
   \   000000C4   0020A0E1           MOV      R2,R0
   \   000000C8   08108DE2           ADD      R1,SP,#+8
   \   000000CC   240100EF           SWI      +292
   \   000000D0   010000EA           B        ??GetTags_6
     56                       else
     57                        wstrcpy(wstag,fn);            
   \                     ??GetTags_7:
   \   000000D4   0610A0E1           MOV      R1,R6
   \   000000D8   1F0100EF           SWI      +287
     58          /// new
     59           
     60               WSHDR *folder=((WSHDR **)csmp)[0x30/4];      
   \                     ??GetTags_6:
   \   000000DC   307098E5           LDR      R7,[R8, #+48]
     61            WSHDR *fp=((WSHDR **)csmp)[0x12C/4];            //fullpath may be diff on NSG
   \   000000E0   2C8198E5           LDR      R8,[R8, #+300]
     62               
     63            FILE_PROP wl;
     64            zeromem(&wl, sizeof(wl));
   \   000000E4   4810A0E3           MOV      R1,#+72
   \   000000E8   10008DE2           ADD      R0,SP,#+16
   \   000000EC   1D0100EF           SWI      +285
     65            wl.type=0x1800;
   \   000000F0   601DA0E3           MOV      R1,#+6144
   \   000000F4   10108DE5           STR      R1,[SP, #+16]
     66            wl.filename=fp;
   \   000000F8   14808DE5           STR      R8,[SP, #+20]
     67            WSHDR *w_0=AllocWS(0x200);
   \   000000FC   800FA0E3           MOV      R0,#+512
   \   00000100   250100EF           SWI      +293
   \   00000104   0080A0E1           MOV      R8,R0
     68            WSHDR *w_1=AllocWS(0x10);
   \   00000108   1000A0E3           MOV      R0,#+16
   \   0000010C   250100EF           SWI      +293
   \   00000110   0090A0E1           MOV      R9,R0
     69            WSHDR *w_2=AllocWS(0x10);  
   \   00000114   1000A0E3           MOV      R0,#+16
   \   00000118   250100EF           SWI      +293
   \   0000011C   00A0A0E1           MOV      R10,R0
     70            WSHDR *w_3=AllocWS(0x100);    
   \   00000120   400FA0E3           MOV      R0,#+256
   \   00000124   250100EF           SWI      +293
   \   00000128   00B0A0E1           MOV      R11,R0
     71            wl.bitrate_ws=w_1;
   \   0000012C   4C908DE5           STR      R9,[SP, #+76]
     72            wl.audio_frequency_ws=w_2;  
   \   00000130   50A08DE5           STR      R10,[SP, #+80]
     73            wl.duration_mp3_ws=w_3;    
   \   00000134   24B08DE5           STR      R11,[SP, #+36]
     74            GetFileProp(&wl,fn,folder);
   \   00000138   0720A0E1           MOV      R2,R7
   \   0000013C   0610A0E1           MOV      R1,R6
   \   00000140   10008DE2           ADD      R0,SP,#+16
   \   00000144   460200EF           SWI      +582
     75            if (w_3->wsbody[0]){
   \   00000148   00009BE5           LDR      R0,[R11, #+0]
   \   0000014C   B000D0E1           LDRH     R0,[R0, #+0]
   \   00000150   000050E3           CMP      R0,#+0
   \   00000154   0700000A           BEQ      ??GetTags_8
     76              wsprintf (w_0,"%w: %w",wstag,w_3);
   \   00000158   002094E5           LDR      R2,[R4, #+0]
   \   0000015C   BC119FE5           LDR      R1,??GetTags_0+0x10  ;; `?<Constant "%w: %w">`
   \   00000160   0B30A0E1           MOV      R3,R11
   \   00000164   0800A0E1           MOV      R0,R8
   \   00000168   240100EF           SWI      +292
     77              wstrcpy (wstag,w_0);
   \   0000016C   000094E5           LDR      R0,[R4, #+0]
   \   00000170   0810A0E1           MOV      R1,R8
   \   00000174   1F0100EF           SWI      +287
     78            }
     79            if (w_1->wsbody[0]){
   \                     ??GetTags_8:
   \   00000178   000099E5           LDR      R0,[R9, #+0]
   \   0000017C   A0619FE5           LDR      R6,??GetTags_0+0x14  ;; `?<Constant "%w %w">`
   \   00000180   B000D0E1           LDRH     R0,[R0, #+0]
   \   00000184   000050E3           CMP      R0,#+0
   \   00000188   0700000A           BEQ      ??GetTags_9
     80              wsprintf (w_0,"%w %w",wstag,w_1);
   \   0000018C   002094E5           LDR      R2,[R4, #+0]
   \   00000190   0930A0E1           MOV      R3,R9
   \   00000194   0610A0E1           MOV      R1,R6
   \   00000198   0800A0E1           MOV      R0,R8
   \   0000019C   240100EF           SWI      +292
     81              wstrcpy (wstag,w_0);
   \   000001A0   000094E5           LDR      R0,[R4, #+0]
   \   000001A4   0810A0E1           MOV      R1,R8
   \   000001A8   1F0100EF           SWI      +287
     82            }
     83            if (w_2->wsbody[0]){
   \                     ??GetTags_9:
   \   000001AC   00009AE5           LDR      R0,[R10, #+0]
   \   000001B0   B000D0E1           LDRH     R0,[R0, #+0]
   \   000001B4   000050E3           CMP      R0,#+0
   \   000001B8   0700000A           BEQ      ??GetTags_10
     84              wsprintf (w_0,"%w %w",wstag,w_2);
   \   000001BC   002094E5           LDR      R2,[R4, #+0]
   \   000001C0   0A30A0E1           MOV      R3,R10
   \   000001C4   0610A0E1           MOV      R1,R6
   \   000001C8   0800A0E1           MOV      R0,R8
   \   000001CC   240100EF           SWI      +292
     85              wstrcpy (wstag,w_0);
   \   000001D0   000094E5           LDR      R0,[R4, #+0]
   \   000001D4   0810A0E1           MOV      R1,R8
   \   000001D8   1F0100EF           SWI      +287
     86            }
     87          
     88            FreeWS(w_0);  
     89            FreeWS(w_1);
     90            FreeWS(w_2);  
     91            FreeWS(w_3);                 
     92                 
     93                   //Патчим строку на предмет win1251
     94                  int i=1;
     95                  int c;
     96                  tagw=0;
   \                     ??GetTags_10:
   \   000001DC   44719FE5           LDR      R7,??GetTags_0+0x18  ;; tagw
   \   000001E0   0800A0E1           MOV      R0,R8
   \   000001E4   290100EF           SWI      +297
   \   000001E8   0900A0E1           MOV      R0,R9
   \   000001EC   290100EF           SWI      +297
   \   000001F0   0A00A0E1           MOV      R0,R10
   \   000001F4   290100EF           SWI      +297
   \   000001F8   0B00A0E1           MOV      R0,R11
   \   000001FC   290100EF           SWI      +297
   \   00000200   000094E5           LDR      R0,[R4, #+0]
   \   00000204   B050C7E1           STRH     R5,[R7, #+0]
   \   00000208   000090E5           LDR      R0,[R0, #+0]
   \   0000020C   0160A0E3           MOV      R6,#+1
   \   00000210   B000D0E1           LDRH     R0,[R0, #+0]
   \   00000214   000050E3           CMP      R0,#+0
   \   00000218   0C00001A           BNE      ??GetTags_11
   \   0000021C   290000EA           B        ??GetTags_12
     97                  while(i<=wstag->wsbody[0])		{
     98                    c=wstag->wsbody[i];
     99                    if (c==0xA8) c=0x401;
    100                    if (c==0xAA) c=0x404;
    101                    if (c==0xAF) c=0x407;
    102                    if (c==0xB8) c=0x451;
    103                    if (c==0xBA) c=0x454;
    104                    if (c==0xBF) c=0x457;
    105                    if ((c>=0xC0)&&(c<0x100)) c+=0x350;
   \                     ??GetTags_13:
   \   00000220   C00050E3           CMP      R0,#+192
   \   00000224   010000BA           BLT      ??GetTags_14
   \   00000228   400F50E3           CMP      R0,#+256
   \   0000022C   D40F80B2           ADDLT    R0,R0,#+848
    106                    wstag->wsbody[i++]=c;
   \                     ??GetTags_14:
   \   00000230   B000C1E1           STRH     R0,[R1, #+0]
    107                    tagw+=GetSymbolWidth(c,cfnt);
   \   00000234   F0109FE5           LDR      R1,??GetTags_0+0x1C  ;; cfnt
   \   00000238   016086E2           ADD      R6,R6,#+1
   \   0000023C   001091E5           LDR      R1,[R1, #+0]
   \   00000240   E10100EF           SWI      +481
   \   00000244   B010D7E1           LDRH     R1,[R7, #+0]
   \   00000248   010080E0           ADD      R0,R0,R1
   \   0000024C   B000C7E1           STRH     R0,[R7, #+0]
   \                     ??GetTags_11:
   \   00000250   000094E5           LDR      R0,[R4, #+0]
   \   00000254   000090E5           LDR      R0,[R0, #+0]
   \   00000258   B010D0E1           LDRH     R1,[R0, #+0]
   \   0000025C   060051E1           CMP      R1,R6
   \   00000260   280000BA           BLT      ??GetTags_3
   \   00000264   861080E0           ADD      R1,R0,R6, LSL #+1
   \   00000268   B000D1E1           LDRH     R0,[R1, #+0]
   \   0000026C   A80050E3           CMP      R0,#+168
   \   00000270   0200001A           BNE      ??GetTags_15
   \   00000274   0100A0E3           MOV      R0,#+1
   \                     ??GetTags_16:
   \   00000278   400E80E3           ORR      R0,R0,#0x400
   \   0000027C   EBFFFFEA           B        ??GetTags_14
   \                     ??GetTags_15:
   \   00000280   AA0050E3           CMP      R0,#+170
   \   00000284   0400A003           MOVEQ    R0,#+4
   \   00000288   FAFFFF0A           BEQ      ??GetTags_16
   \   0000028C   AF0050E3           CMP      R0,#+175
   \   00000290   0100001A           BNE      ??GetTags_17
   \   00000294   0700A0E3           MOV      R0,#+7
   \                     ??GetTags_18:
   \   00000298   F6FFFFEA           B        ??GetTags_16
   \                     ??GetTags_17:
   \   0000029C   B80050E3           CMP      R0,#+184
   \   000002A0   5100A003           MOVEQ    R0,#+81
   \   000002A4   F3FFFF0A           BEQ      ??GetTags_16
   \   000002A8   BA0050E3           CMP      R0,#+186
   \   000002AC   5400A003           MOVEQ    R0,#+84
   \   000002B0   F0FFFF0A           BEQ      ??GetTags_16
   \   000002B4   BF0050E3           CMP      R0,#+191
   \   000002B8   D8FFFF1A           BNE      ??GetTags_13
   \   000002BC   5700A0E3           MOV      R0,#+87
   \   000002C0   ECFFFFEA           B        ??GetTags_16
    108                  }
    109          
    110              
    111                }else;
    112              }
    113              else    pcsmid=0;
   \                     ??GetTags_2:
   \   000002C4   005084E5           STR      R5,[R4, #+0]
   \                     ??GetTags_12:
   \   000002C8   58D08DE2           ADD      SP,SP,#+88
   \   000002CC   F08FBDE8           POP      {R4-R11,PC}
    114            }
    115            else  {
    116              CSM_RAM *p=((void **)CSM_root()->csm_q)[2];
   \                     ??GetTags_1:
   \   000002D0   068100EF           SWI      +33030
   \   000002D4   080090E5           LDR      R0,[R0, #+8]
   \   000002D8   080090E5           LDR      R0,[R0, #+8]
   \   000002DC   000000EA           B        ??GetTags_19
    117              while(p)
    118              {
    119                if (p->constr==pcsmadr) break;
    120                p=p->next;
   \                     ??GetTags_20:
   \   000002E0   000090E5           LDR      R0,[R0, #+0]
   \                     ??GetTags_19:
   \   000002E4   000050E3           CMP      R0,#+0
   \   000002E8   0600000A           BEQ      ??GetTags_3
   \   000002EC   ........           LDR      R2,??DataTable3  ;; pcsmadr
   \   000002F0   081090E5           LDR      R1,[R0, #+8]
   \   000002F4   002092E5           LDR      R2,[R2, #+0]
   \   000002F8   020051E1           CMP      R1,R2
   \   000002FC   F7FFFF1A           BNE      ??GetTags_20
    121              }
    122              if (p)
    123                pcsmid=p->id;
   \   00000300   0C0090E5           LDR      R0,[R0, #+12]
   \   00000304   000084E5           STR      R0,[R4, #+0]
   \                     ??GetTags_3:
   \   00000308   58D08DE2           ADD      SP,SP,#+88       ;; stack cleaning
   \   0000030C   F08FBDE8           POP      {R4-R11,PC}      ;; return
   \                     ??GetTags_0:
   \   00000310   25740000           DC8      "%t",+0
   \   00000314   ........           DC32     pcsmid
   \   00000318   ........           DC32     `?<Constant "Unkhown">`
   \   0000031C   ........           DC32     `?<Constant "%w - %w">`
   \   00000320   ........           DC32     `?<Constant "%w: %w">`
   \   00000324   ........           DC32     `?<Constant "%w %w">`
   \   00000328   ........           DC32     tagw
   \   0000032C   ........           DC32     cfnt
    124            }
    125          };  
    126          

   \                                 In segment CODE, align 4, keep-with-next
    127          WSHDR *GetTag()
    128          {
    129            return wstag;
   \                     GetTag:
   \   00000000   ........           LDR      R0,??DataTable4  ;; wstag
   \   00000004   000090E5           LDR      R0,[R0, #+0]
   \   00000008   1EFF2FE1           BX       LR               ;; return
    130          }

   \                                 In segment CODE, align 4, keep-with-next
   \                     ??DataTable3:
   \   00000000   ........           DC32     pcsmadr

   \                                 In segment CODE, align 4, keep-with-next
   \                     ??DataTable4:
   \   00000000   ........           DC32     wstag

   \                                 In segment DATA_C, align 4, align-sorted
   \                     `?<Constant "Unkhown">`:
   \   00000000   556E6B686F77       DC8 "Unkhown"
   \              6E00        

   \                                 In segment DATA_C, align 4, align-sorted
   \                     `?<Constant "%w - %w">`:
   \   00000000   2577202D2025       DC8 "%w - %w"
   \              7700        

   \                                 In segment DATA_C, align 1, align-sorted
   \   00000000   257400             DC8 "%t"

   \                                 In segment DATA_C, align 4, align-sorted
   \                     `?<Constant "%w: %w">`:
   \   00000000   25773A202577       DC8 "%w: %w"
   \              00          
   \   00000007   00                 DC8 0

   \                                 In segment DATA_C, align 4, align-sorted
   \                     `?<Constant "%w %w">`:
   \   00000000   257720257700       DC8 "%w %w"
   \   00000006   0000               DC8 0, 0
    131          
    132          #endif

   Maximum stack usage in bytes:

     Function CSTACK
     -------- ------
     GetTag       0
     GetTags    124
     initTags     8


   Segment part sizes:

     Function/Label        Bytes
     --------------        -----
     scr_w                    4
     pcsmid                   4
     pcsmadr                  4
     wstag                    4
     tagw                     2
     initTags                64
     GetTags                816
     GetTag                  12
     ??DataTable3             4
     ??DataTable4             4
     ?<Constant "Unkhown">    8
     ?<Constant "%w - %w">    8
     ?<Constant "%t">         3
     ?<Constant "%w: %w">     8
     ?<Constant "%w %w">      8
      Others                 36

 
 924 bytes in segment CODE
  35 bytes in segment DATA_C
  18 bytes in segment DATA_Z
  12 bytes in segment INITTAB
 
 900 bytes of CODE  memory (+ 36 bytes shared)
  35 bytes of CONST memory
  18 bytes of DATA  memory

Errors: none
Warnings: none
