##############################################################################
#                                                                            #
# IAR ARM ANSI C/C++ Compiler V4.42A/W32 EVALUATION    27/Jun/2008  17:45:58 #
# Copyright 1999-2005 IAR Systems. All rights reserved.                      #
#                                                                            #
#    Cpu mode        =  interwork                                            #
#    Endian          =  little                                               #
#    Stack alignment =  4                                                    #
#    Source file     =  F:\siemens\elfs\xtask3 mod scrooling\main.c          #
#    Command line    =  "F:\siemens\elfs\xtask3 mod scrooling\main.c" -D     #
#                       NEWSGOLD -lC "F:\siemens\elfs\xtask3 mod             #
#                       scrooling\Release\List\" -o "F:\siemens\elfs\xtask3  #
#                       mod scrooling\Release\Obj\" -s9 --no_unroll          #
#                       --no_clustering --cpu_mode arm --endian little       #
#                       --cpu ARM926EJ-S --stack_align 4 --interwork -e      #
#                       --fpu None --dlib_config "C:\Program                 #
#                       Files\iar\Embedded Workbench 4.0                     #
#                       Evaluation\ARM\LIB\dl5tpainl8n.h" -I "C:\Program     #
#                       Files\iar\Embedded Workbench 4.0                     #
#                       Evaluation\ARM\INC\" --inline_threshold=2            #
#    List file       =  F:\siemens\elfs\xtask3 mod                           #
#                       scrooling\Release\List\main.lst                      #
#    Object file     =  F:\siemens\elfs\xtask3 mod                           #
#                       scrooling\Release\Obj\main.r79                       #
#                                                                            #
#                                                                            #
##############################################################################

F:\siemens\elfs\xtask3 mod scrooling\main.c
      1          #include "..\inc\swilib.h"
      2          #include "..\inc\xtask_ipc.h"
      3          #include "swaper.h"
      4          #include "gui.h"
      5          #include "main.h"
      6          #include "conf_loader.h"
      7          
      8          extern const char background_img[128];
      9          extern const char cursor_img[128];
     10          extern const char icon_list_path[128];
     11          extern const char bokmark_list_path[128];
     12          extern const char selection_img[128];
     13          extern const char tasks_img[128];
     14          extern const char bookmarks_img[128];

   \                                 In segment DATA_Z, align 4, align-sorted
     15          char shutdown1[128];
   \                     shutdown1:
   \   00000000                      DS8 128

   \                                 In segment DATA_Z, align 4, align-sorted
     16          char shutdown2[128];
   \                     shutdown2:
   \   00000000                      DS8 128

   \                                 In segment DATA_Z, align 4, align-sorted
     17          char reboot1[128];
   \                     reboot1:
   \   00000000                      DS8 128

   \                                 In segment DATA_Z, align 4, align-sorted
     18          char reboot2[128];
   \                     reboot2:
   \   00000000                      DS8 128

   \                                 In segment DATA_Z, align 4, align-sorted
     19          int book_show;
   \                     book_show:
   \   00000000                      DS8 4

   \                                 In segment DATA_I, align 4, align-sorted
     20          int time_not=1;
   \                     time_not:
   \   00000000                      DS8 4
   \   00000004                      REQUIRE `?<Initializer for time_not>`
     21          extern const int style;

   \                                 In segment DATA_Z, align 4, align-sorted
     22          GBSTMR start_tmr;
   \                     start_tmr:
   \   00000000                      DS8 16
     23          extern const char ctasks[4];
     24          extern const char cdaemons[4];
     25          extern const char cinfo[4];
     26          extern const char turnoff_path[128];
     27          extern const int cleseri;
     28          

   \                                 In segment CODE, align 4, keep-with-next
     29          void init_turnoff()
     30          {
     31            sprintf(shutdown1, "%s%s", turnoff_path, "shutdown1.png");
   \                     init_turnoff:
   \   00000000   58309FE5           LDR      R3,??init_turnoff_0  ;; `?<Constant "shutdown1.png">`
   \   00000004   ........           LDR      R0,??DataTable0  ;; shutdown1
   \   00000008   30402DE9           PUSH     {R4,R5,LR}
   \   0000000C   50409FE5           LDR      R4,??init_turnoff_0+0x4  ;; `?<Constant "%s%s">`
   \   00000010   50509FE5           LDR      R5,??init_turnoff_0+0x8  ;; turnoff_path
   \   00000014   0410A0E1           MOV      R1,R4
   \   00000018   0520A0E1           MOV      R2,R5
   \   0000001C   160000EF           SWI      +22
     32            sprintf(shutdown2, "%s%s", turnoff_path, "shutdown2.png");
   \   00000020   44309FE5           LDR      R3,??init_turnoff_0+0xC  ;; `?<Constant "shutdown2.png">`
   \   00000024   ........           LDR      R0,??DataTable1  ;; shutdown2
   \   00000028   0520A0E1           MOV      R2,R5
   \   0000002C   0410A0E1           MOV      R1,R4
   \   00000030   160000EF           SWI      +22
     33            sprintf(reboot1, "%s%s", turnoff_path, "reboot1.png");
   \   00000034   34309FE5           LDR      R3,??init_turnoff_0+0x10  ;; `?<Constant "reboot1.png">`
   \   00000038   ........           LDR      R0,??DataTable2  ;; reboot1
   \   0000003C   0520A0E1           MOV      R2,R5
   \   00000040   0410A0E1           MOV      R1,R4
   \   00000044   160000EF           SWI      +22
     34            sprintf(reboot2, "%s%s", turnoff_path, "reboot2.png");
   \   00000048   24309FE5           LDR      R3,??init_turnoff_0+0x14  ;; `?<Constant "reboot2.png">`
   \   0000004C   ........           LDR      R0,??DataTable3  ;; reboot2
   \   00000050   0520A0E1           MOV      R2,R5
   \   00000054   0410A0E1           MOV      R1,R4
   \   00000058   160000EF           SWI      +22
     35          }
   \   0000005C   3080BDE8           POP      {R4,R5,PC}       ;; return
   \                     ??init_turnoff_0:
   \   00000060   ........           DC32     `?<Constant "shutdown1.png">`
   \   00000064   ........           DC32     `?<Constant "%s%s">`
   \   00000068   ........           DC32     turnoff_path
   \   0000006C   ........           DC32     `?<Constant "shutdown2.png">`
   \   00000070   ........           DC32     `?<Constant "reboot1.png">`
   \   00000074   ........           DC32     `?<Constant "reboot2.png">`
     36          
     37          
     38          //=================================bookmarks

   \                                 In segment DATA_Z, align 4, align-sorted
     39          char BM1NAME[32];
   \                     BM1NAME:
   \   00000000                      DS8 32

   \                                 In segment DATA_Z, align 4, align-sorted
     40          char BM1FILE[128];
   \                     BM1FILE:
   \   00000000                      DS8 128

   \                                 In segment DATA_Z, align 4, align-sorted
     41          char BM2NAME[32];
   \                     BM2NAME:
   \   00000000                      DS8 32

   \                                 In segment DATA_Z, align 4, align-sorted
     42          char BM2FILE[128];
   \                     BM2FILE:
   \   00000000                      DS8 128

   \                                 In segment DATA_Z, align 4, align-sorted
     43          char BM3NAME[32];
   \                     BM3NAME:
   \   00000000                      DS8 32

   \                                 In segment DATA_Z, align 4, align-sorted
     44          char BM3FILE[128];
   \                     BM3FILE:
   \   00000000                      DS8 128

   \                                 In segment DATA_Z, align 4, align-sorted
     45          char BM4NAME[32];
   \                     BM4NAME:
   \   00000000                      DS8 32

   \                                 In segment DATA_Z, align 4, align-sorted
     46          char BM4FILE[128];
   \                     BM4FILE:
   \   00000000                      DS8 128

   \                                 In segment DATA_Z, align 4, align-sorted
     47          char BM5NAME[32];
   \                     BM5NAME:
   \   00000000                      DS8 32

   \                                 In segment DATA_Z, align 4, align-sorted
     48          char BM5FILE[128];
   \                     BM5FILE:
   \   00000000                      DS8 128

   \                                 In segment DATA_Z, align 4, align-sorted
     49          char BM6NAME[32];
   \                     BM6NAME:
   \   00000000                      DS8 32

   \                                 In segment DATA_Z, align 4, align-sorted
     50          char BM6FILE[128];
   \                     BM6FILE:
   \   00000000                      DS8 128

   \                                 In segment DATA_Z, align 4, align-sorted
     51          char BM7NAME[32];
   \                     BM7NAME:
   \   00000000                      DS8 32

   \                                 In segment DATA_Z, align 4, align-sorted
     52          char BM7FILE[128];
   \                     BM7FILE:
   \   00000000                      DS8 128

   \                                 In segment DATA_Z, align 4, align-sorted
     53          char BM8NAME[32];
   \                     BM8NAME:
   \   00000000                      DS8 32

   \                                 In segment DATA_Z, align 4, align-sorted
     54          char BM8FILE[128];
   \                     BM8FILE:
   \   00000000                      DS8 128

   \                                 In segment DATA_Z, align 4, align-sorted
     55          char BM9NAME[32];
   \                     BM9NAME:
   \   00000000                      DS8 32

   \                                 In segment DATA_Z, align 4, align-sorted
     56          char BM9FILE[128];
   \                     BM9FILE:
   \   00000000                      DS8 128

   \                                 In segment DATA_Z, align 4, align-sorted
     57          char BM0NAME[32];
   \                     BM0NAME:
   \   00000000                      DS8 32

   \                                 In segment DATA_Z, align 4, align-sorted
     58          char BM0FILE[128];
   \                     BM0FILE:
   \   00000000                      DS8 128
     59          

   \                                 In segment CODE, align 4, keep-with-next
     60          void Start_bookmark(int casa)
     61          {
   \                     Start_bookmark:
   \   00000000   10402DE9           PUSH     {R4,LR}
     62            switch(casa)
   \   00000004   010040E2           SUB      R0,R0,#+1
   \   00000008   090050E3           CMP      R0,#+9
   \   0000000C   1080BD88           POPHI    {R4,PC}
   \   00000010   011F8FE2           ADR      R1,??Start_bookmark_0
   \   00000014   0010D1E7           LDRB     R1,[R1, R0]
   \   00000018   01F18FE0           ADD      PC,PC,R1, LSL #+2
   \                     ??Start_bookmark_0:
   \   0000001C   02061216           DC8      +2,+6,+18,+22
   \   00000020   1A1E2226           DC8      +26,+30,+34,+38
   \   00000024   2A2E0000           DC8      +42,+46,+0,+0
     63            {
     64            case 1:
     65              {
     66              WSHDR *elfname=AllocWS(256);
   \                     ??Start_bookmark_1:
   \   00000028   400FA0E3           MOV      R0,#+256
   \   0000002C   250100EF           SWI      +293
     67              wsprintf(elfname, BM1FILE);
   \   00000030   ........           LDR      R1,??DataTable4  ;; BM1FILE
   \   00000034   020000EA           B        ??Start_bookmark_2
     68              ExecuteFile(elfname,NULL,NULL);
     69              FreeWS(elfname);
     70              }
     71              break;
     72            case 2:
     73              {
     74              WSHDR *elfname=AllocWS(256);
   \                     ??Start_bookmark_3:
   \   00000038   400FA0E3           MOV      R0,#+256
   \   0000003C   250100EF           SWI      +293
     75              wsprintf(elfname, BM2FILE);
   \   00000040   ........           LDR      R1,??DataTable5  ;; BM2FILE
   \                     ??Start_bookmark_2:
   \   00000044   0040A0E1           MOV      R4,R0
   \   00000048   240100EF           SWI      +292
     76              ExecuteFile(elfname,NULL,NULL);
   \   0000004C   0020A0E3           MOV      R2,#+0
   \   00000050   0010A0E3           MOV      R1,#+0
   \   00000054   0400A0E1           MOV      R0,R4
   \   00000058   940000EF           SWI      +148
     77              FreeWS(elfname);
   \   0000005C   0400A0E1           MOV      R0,R4
   \   00000060   290100EF           SWI      +297
   \   00000064   1080BDE8           POP      {R4,PC}
     78              }
     79              break;
     80            case 3:
     81              {
     82              WSHDR *elfname=AllocWS(256);
   \                     ??Start_bookmark_4:
   \   00000068   400FA0E3           MOV      R0,#+256
   \   0000006C   250100EF           SWI      +293
     83              wsprintf(elfname, BM3FILE);
   \   00000070   ........           LDR      R1,??DataTable6  ;; BM3FILE
   \   00000074   F2FFFFEA           B        ??Start_bookmark_2
     84              ExecuteFile(elfname,NULL,NULL);
     85              FreeWS(elfname);
     86              }
     87              break;
     88            case 4:
     89              {
     90              WSHDR *elfname=AllocWS(256);
   \                     ??Start_bookmark_5:
   \   00000078   400FA0E3           MOV      R0,#+256
   \   0000007C   250100EF           SWI      +293
     91              wsprintf(elfname, BM4FILE);
   \   00000080   ........           LDR      R1,??DataTable7  ;; BM4FILE
   \   00000084   EEFFFFEA           B        ??Start_bookmark_2
     92              ExecuteFile(elfname,NULL,NULL);
     93              FreeWS(elfname);
     94              }
     95              break;
     96            case 5:
     97              {
     98              WSHDR *elfname=AllocWS(256);
   \                     ??Start_bookmark_6:
   \   00000088   400FA0E3           MOV      R0,#+256
   \   0000008C   250100EF           SWI      +293
     99              wsprintf(elfname, BM5FILE);
   \   00000090   ........           LDR      R1,??DataTable8  ;; BM5FILE
   \   00000094   EAFFFFEA           B        ??Start_bookmark_2
    100              ExecuteFile(elfname,NULL,NULL);
    101              FreeWS(elfname);
    102              }
    103              break;
    104            case 6:
    105              {
    106              WSHDR *elfname=AllocWS(256);
   \                     ??Start_bookmark_7:
   \   00000098   400FA0E3           MOV      R0,#+256
   \   0000009C   250100EF           SWI      +293
    107              wsprintf(elfname, BM6FILE);
   \   000000A0   ........           LDR      R1,??DataTable9  ;; BM6FILE
   \   000000A4   E6FFFFEA           B        ??Start_bookmark_2
    108              ExecuteFile(elfname,NULL,NULL);
    109              FreeWS(elfname);
    110              }
    111              break;
    112            case 7:
    113              {
    114              WSHDR *elfname=AllocWS(256);
   \                     ??Start_bookmark_8:
   \   000000A8   400FA0E3           MOV      R0,#+256
   \   000000AC   250100EF           SWI      +293
    115              wsprintf(elfname, BM7FILE);
   \   000000B0   ........           LDR      R1,??DataTable10  ;; BM7FILE
   \   000000B4   E2FFFFEA           B        ??Start_bookmark_2
    116              ExecuteFile(elfname,NULL,NULL);
    117              FreeWS(elfname);
    118              }
    119              break;
    120            case 8:
    121              {
    122              WSHDR *elfname=AllocWS(256);
   \                     ??Start_bookmark_9:
   \   000000B8   400FA0E3           MOV      R0,#+256
   \   000000BC   250100EF           SWI      +293
    123              wsprintf(elfname, BM8FILE);
   \   000000C0   ........           LDR      R1,??DataTable11  ;; BM8FILE
   \   000000C4   DEFFFFEA           B        ??Start_bookmark_2
    124              ExecuteFile(elfname,NULL,NULL);
    125              FreeWS(elfname);
    126              }
    127              break;
    128            case 9:
    129              {
    130              WSHDR *elfname=AllocWS(256);
   \                     ??Start_bookmark_10:
   \   000000C8   400FA0E3           MOV      R0,#+256
   \   000000CC   250100EF           SWI      +293
    131              wsprintf(elfname, BM9FILE);
   \   000000D0   ........           LDR      R1,??DataTable12  ;; BM9FILE
   \   000000D4   DAFFFFEA           B        ??Start_bookmark_2
    132              ExecuteFile(elfname,NULL,NULL);
    133              FreeWS(elfname);
    134              }
    135              break;
    136            case 10:
    137              {
    138              WSHDR *elfname=AllocWS(256);
   \                     ??Start_bookmark_11:
   \   000000D8   400FA0E3           MOV      R0,#+256
   \   000000DC   250100EF           SWI      +293
    139              wsprintf(elfname, BM0FILE);
   \   000000E0   ........           LDR      R1,??DataTable13  ;; BM0FILE
   \   000000E4   0040A0E1           MOV      R4,R0
   \   000000E8   240100EF           SWI      +292
    140              ExecuteFile(elfname,NULL,NULL);
   \   000000EC   0020A0E3           MOV      R2,#+0
   \   000000F0   0010A0E3           MOV      R1,#+0
   \   000000F4   0400A0E1           MOV      R0,R4
   \   000000F8   940000EF           SWI      +148
    141              FreeWS(elfname);
   \   000000FC   0400A0E1           MOV      R0,R4
   \   00000100   290100EF           SWI      +297
    142              }
    143              break;
    144            }
    145          }
   \                     ??Start_bookmark_12:
   \   00000104   1080BDE8           POP      {R4,PC}          ;; return
    146          //=================================bookmarks
    147          
    148          

   \                                 In segment DATA_I, align 4, align-sorted
    149          IMGHDR screen2={0,0,8,""};
   \                     screen2:
   \   00000000                      DS8 8
   \   00000008                      REQUIRE `?<Initializer for screen2>`

   \                                 In segment DATA_Z, align 4, align-sorted
    150          int tasks;
   \                     tasks:
   \   00000000                      DS8 4

   \                                 In segment DATA_Z, align 4, align-sorted
    151          char icon_text[32768];
   \                     icon_text:
   \   00000000                      DS8 32768

   \                                 In segment DATA_I, align 4, align-sorted
    152          int task_list=1;
   \                     task_list:
   \   00000000                      DS8 4
   \   00000004                      REQUIRE `?<Initializer for task_list>`
    153          

   \                                 In segment CODE, align 4, keep-with-next
    154          void DrwImg3(IMGHDR *img, int x, int y, char *pen, char *brush)
    155          {
   \                     DrwImg3:
   \   00000000   70402DE9           PUSH     {R4-R6,LR}
   \   00000004   2CD04DE2           SUB      SP,SP,#+44
   \   00000008   3C609DE5           LDR      R6,[SP, #+60]
   \   0000000C   0040A0E1           MOV      R4,R0
    156            RECT rc;
    157            DRWOBJ drwobj;
    158            StoreXYWHtoRECT(&rc,x,y,img->w,img->h);
   \   00000010   0100D4E5           LDRB     R0,[R4, #+1]
   \   00000014   0350A0E1           MOV      R5,R3
   \   00000018   01002DE9           PUSH     {R0}
   \   0000001C   0030D4E5           LDRB     R3,[R4, #+0]
   \   00000020   04008DE2           ADD      R0,SP,#+4
   \   00000024   330100EF           SWI      +307
    159            SetPropTo_Obj5(&drwobj,&rc,0,img);
   \   00000028   0430A0E1           MOV      R3,R4
   \   0000002C   0020A0E3           MOV      R2,#+0
   \   00000030   04108DE2           ADD      R1,SP,#+4
   \   00000034   0C008DE2           ADD      R0,SP,#+12
   \   00000038   510100EF           SWI      +337
    160            SetColor(&drwobj,pen,brush);
   \   0000003C   0620A0E1           MOV      R2,R6
   \   00000040   0510A0E1           MOV      R1,R5
   \   00000044   0C008DE2           ADD      R0,SP,#+12
   \   00000048   4B0100EF           SWI      +331
    161            DrawObject(&drwobj);
   \   0000004C   0C008DE2           ADD      R0,SP,#+12
   \   00000050   2A0100EF           SWI      +298
    162          }
   \   00000054   30D08DE2           ADD      SP,SP,#+48
   \   00000058   7080BDE8           POP      {R4-R6,PC}       ;; return
    163          

   \                                 In segment CODE, align 4, keep-with-next
    164          void DoScreen2()
    165          {
   \                     DoScreen2:
   \   00000000   F0402DE9           PUSH     {R4-R7,LR}
    166              int ScrH=ScreenH();
    167              int ScrW=ScreenW();
    168              char *ms=RamScreenBuffer();
    169              screen2.w=ScrW;
   \   00000004   ........           LDR      R7,??DataTable20  ;; screen2
   \   00000008   898100EF           SWI      +33161
   \   0000000C   0040A0E1           MOV      R4,R0
   \   00000010   888100EF           SWI      +33160
   \   00000014   0050A0E1           MOV      R5,R0
   \   00000018   E08000EF           SWI      +32992
   \   0000001C   0060A0E1           MOV      R6,R0
    170              screen2.h=ScrH;
    171              screen2.bitmap=malloc(ScrW*ScrH*2);
   \   00000020   940500E0           MUL      R0,R4,R5
   \   00000024   0050C7E5           STRB     R5,[R7, #+0]
   \   00000028   0140C7E5           STRB     R4,[R7, #+1]
   \   0000002C   8040A0E1           LSL      R4,R0,#+1
   \   00000030   0400A0E1           MOV      R0,R4
   \   00000034   140000EF           SWI      +20
   \   00000038   040087E5           STR      R0,[R7, #+4]
    172              memcpy(screen2.bitmap, ms, ScrW*ScrH*2);
   \   0000003C   0420A0E1           MOV      R2,R4
   \   00000040   0610A0E1           MOV      R1,R6
   \   00000044   1E0100EF           SWI      +286
    173          }
   \   00000048   F080BDE8           POP      {R4-R7,PC}       ;; return
    174          
    175          

   \                                 In segment DATA_C, align 4, align-sorted
    176          const int minus11=-11; // стремная константа =)
   \                     minus11:
   \   00000000   F5FFFFFF           DC32 -11

   \                                 In segment DATA_Z, align 4, align-sorted
    177          unsigned short maincsm_name_body[140];
   \                     maincsm_name_body:
   \   00000000                      DS8 280
    178          extern unsigned long  strtoul (const char *nptr,char **endptr,int base);
    179          

   \                                 In segment DATA_Z, align 4, align-sorted
    180          unsigned int MAINCSM_ID = 0;
   \                     MAINCSM_ID:
   \   00000000                      DS8 4
    181          
    182          typedef struct
    183          {
    184            CSM_RAM csm;
    185            int gui_id;
    186          }MAIN_CSM;
    187          
    188          typedef struct
    189          {
    190            GUI gui;
    191            WSHDR *ws1;
    192            WSHDR *ws2;
    193            int i1;
    194          }MAIN_GUI;
    195          
    196          extern NAMELIST * volatile nltop;

   \                                 In segment DATA_I, align 4, align-sorted
    197          int pos=1;
   \                     pos:
   \   00000000                      DS8 4
   \   00000004                      REQUIRE `?<Initializer for pos>`

   \                                 In segment DATA_I, align 4, align-sorted
    198          int total_pos=1;
   \                     total_pos:
   \   00000000                      DS8 4
   \   00000004                      REQUIRE `?<Initializer for total_pos>`

   \                                 In segment DATA_Z, align 4, align-sorted
    199          int total_d;
   \                     total_d:
   \   00000000                      DS8 4

   \                                 In segment DATA_Z, align 4, align-sorted
    200          int move_skip;
   \                     move_skip:
   \   00000000                      DS8 4
    201          void redrit(void);

   \                                 In segment DATA_Z, align 4, align-sorted
    202          int sm;
   \                     sm:
   \   00000000                      DS8 4

   \                                 In segment DATA_Z, align 4, align-sorted
    203          int forward;
   \                     forward:
   \   00000000                      DS8 4

   \                                 In segment DATA_Z, align 4, align-sorted
    204          int halt;
   \                     halt:
   \   00000000                      DS8 4

   \                                 In segment DATA_Z, align 4, align-sorted
    205          int shutd;
   \                     shutd:
   \   00000000                      DS8 4

   \                                 In segment DATA_Z, align 4, align-sorted
    206          int logout;
   \                     logout:
   \   00000000                      DS8 4
    207          
    208          #include "strings2.h"
    209          

   \                                 In segment DATA_Z, align 4, align-sorted
    210          WSHDR *data4;
   \                     data4:
   \   00000000                      DS8 4

   \                                 In segment DATA_Z, align 4, align-sorted
    211          WSHDR *data5;
   \                     data5:
   \   00000000                      DS8 4

   \                                 In segment DATA_Z, align 4, align-sorted
    212          int draw_rec;
   \                     draw_rec:
   \   00000000                      DS8 4

   \                                 In segment DATA_Z, align 4, align-sorted
    213          int this_rec;
   \                     this_rec:
   \   00000000                      DS8 4
    214          

   \                                 In segment CODE, align 4, keep-with-next
    215          void DrawProgress(WSHDR *dat, int casi)
    216          {
   \                     DrawProgress:
   \   00000000   F0432DE9           PUSH     {R4-R9,LR}
    217            if (casi)
   \   00000004   ........           LDR      R7,??DataTable15  ;; data4
   \   00000008   ........           LDR      R5,??DataTable16  ;; ctasks
   \   0000000C   68429FE5           LDR      R4,??DrawProgress_0  ;; this_rec
   \   00000010   0060A0E1           MOV      R6,R0
   \   00000014   000097E5           LDR      R0,[R7, #+0]
   \   00000018   000051E3           CMP      R1,#+0
   \   0000001C   6800000A           BEQ      ??DrawProgress_1
    218            {
    219              this_rec++;
   \   00000020   001094E5           LDR      R1,[R4, #+0]
   \   00000024   011081E2           ADD      R1,R1,#+1
   \   00000028   001084E5           STR      R1,[R4, #+0]
    220              wsprintf(data4, "Closing...");
   \   0000002C   4C129FE5           LDR      R1,??DrawProgress_0+0x4  ;; `?<Constant "Closing...">`
   \   00000030   240100EF           SWI      +292
    221              DrawScrollString(data4,17,97,100,97+GetFontYSIZE(11),1,11,TEXT_ALIGNLEFT,ctasks,GetPaletteAdrByColorIndex(23));
   \   00000034   1700A0E3           MOV      R0,#+23
   \   00000038   2E0100EF           SWI      +302
   \   0000003C   0080A0E1           MOV      R8,R0
   \   00000040   0B00A0E3           MOV      R0,#+11
   \   00000044   C50100EF           SWI      +453
   \   00000048   00012DE9           PUSH     {R8}
   \   0000004C   0510A0E1           MOV      R1,R5
   \   00000050   02002DE9           PUSH     {R1}
   \   00000054   610080E2           ADD      R0,R0,#+97
   \   00000058   6430A0E3           MOV      R3,#+100
   \   0000005C   6120A0E3           MOV      R2,#+97
   \   00000060   0110A0E3           MOV      R1,#+1
   \   00000064   02002DE9           PUSH     {R1}
   \   00000068   0B10A0E3           MOV      R1,#+11
   \   0000006C   02002DE9           PUSH     {R1}
   \   00000070   0110A0E3           MOV      R1,#+1
   \   00000074   02002DE9           PUSH     {R1}
   \   00000078   01002DE9           PUSH     {R0}
   \   0000007C   000097E5           LDR      R0,[R7, #+0]
   \   00000080   1110A0E3           MOV      R1,#+17
   \   00000084   070200EF           SWI      +519
    222              wsprintf(data4,"...............[OK]");
   \   00000088   000097E5           LDR      R0,[R7, #+0]
   \   0000008C   F0119FE5           LDR      R1,??DrawProgress_0+0x8  ;; `?<Constant "...............[OK]">`
   \   00000090   240100EF           SWI      +292
    223              DrawString(data4,115-Get_WS_width(data4,11),109,115+3,109+GetFontYSIZE(11)+1,11,0,ctasks,GetPaletteAdrByColorIndex(23));
   \   00000094   1700A0E3           MOV      R0,#+23
   \   00000098   2E0100EF           SWI      +302
   \   0000009C   0090A0E1           MOV      R9,R0
   \   000000A0   0B00A0E3           MOV      R0,#+11
   \   000000A4   C50100EF           SWI      +453
   \   000000A8   0080A0E1           MOV      R8,R0
   \   000000AC   000097E5           LDR      R0,[R7, #+0]
   \   000000B0   0B10A0E3           MOV      R1,#+11
   \   000000B4   080200EF           SWI      +520
   \   000000B8   00022DE9           PUSH     {R9}
   \   000000BC   0510A0E1           MOV      R1,R5
   \   000000C0   02002DE9           PUSH     {R1}
   \   000000C4   7630A0E3           MOV      R3,#+118
   \   000000C8   6D20A0E3           MOV      R2,#+109
   \   000000CC   0010A0E3           MOV      R1,#+0
   \   000000D0   02002DE9           PUSH     {R1}
   \   000000D4   0B10A0E3           MOV      R1,#+11
   \   000000D8   02002DE9           PUSH     {R1}
   \   000000DC   6E1088E2           ADD      R1,R8,#+110
   \   000000E0   02002DE9           PUSH     {R1}
   \   000000E4   731060E2           RSB      R1,R0,#+115
   \   000000E8   000097E5           LDR      R0,[R7, #+0]
   \   000000EC   4C0100EF           SWI      +332
   \   000000F0   2CD08DE2           ADD      SP,SP,#+44
    224              void *canv = BuildCanvas();
   \   000000F4   F18000EF           SWI      +33009
   \   000000F8   0070A0E1           MOV      R7,R0
    225              if(Get_WS_width(dat,11)<70)
   \   000000FC   0B10A0E3           MOV      R1,#+11
   \   00000100   0600A0E1           MOV      R0,R6
   \   00000104   080200EF           SWI      +520
   \   00000108   460050E3           CMP      R0,#+70
   \   0000010C   0B00A0E3           MOV      R0,#+11
   \   00000110   0A0000AA           BGE      ??DrawProgress_2
    226              DrawCanvas(canv,17,109,17+Get_WS_width(dat,11),109+GetFontYSIZE(11),1);
   \   00000114   C50100EF           SWI      +453
   \   00000118   0080A0E1           MOV      R8,R0
   \   0000011C   0B10A0E3           MOV      R1,#+11
   \   00000120   0600A0E1           MOV      R0,R6
   \   00000124   080200EF           SWI      +520
   \   00000128   0110A0E3           MOV      R1,#+1
   \   0000012C   02002DE9           PUSH     {R1}
   \   00000130   113080E2           ADD      R3,R0,#+17
   \   00000134   6D1088E2           ADD      R1,R8,#+109
   \   00000138   02002DE9           PUSH     {R1}
   \   0000013C   050000EA           B        ??DrawProgress_3
    227              else DrawCanvas(canv,17,109,87,109+GetFontYSIZE(11),1);
   \                     ??DrawProgress_2:
   \   00000140   C50100EF           SWI      +453
   \   00000144   0110A0E3           MOV      R1,#+1
   \   00000148   02002DE9           PUSH     {R1}
   \   0000014C   6D0080E2           ADD      R0,R0,#+109
   \   00000150   01002DE9           PUSH     {R0}
   \   00000154   5730A0E3           MOV      R3,#+87
   \                     ??DrawProgress_3:
   \   00000158   6D20A0E3           MOV      R2,#+109
   \   0000015C   1110A0E3           MOV      R1,#+17
   \   00000160   0700A0E1           MOV      R0,R7
   \   00000164   250000EF           SWI      +37
   \   00000168   08D08DE2           ADD      SP,SP,#+8
    228              DrawScrollString(dat,17,109,87,109+GetFontYSIZE(11),1,11,TEXT_ALIGNLEFT,ctasks,GetPaletteAdrByColorIndex(23)); 
   \   0000016C   1700A0E3           MOV      R0,#+23
   \   00000170   2E0100EF           SWI      +302
   \   00000174   0070A0E1           MOV      R7,R0
   \   00000178   0B00A0E3           MOV      R0,#+11
   \   0000017C   C50100EF           SWI      +453
   \   00000180   80002DE9           PUSH     {R7}
   \   00000184   20002DE9           PUSH     {R5}
   \   00000188   0110A0E3           MOV      R1,#+1
   \   0000018C   02002DE9           PUSH     {R1}
   \   00000190   6D0080E2           ADD      R0,R0,#+109
   \   00000194   5730A0E3           MOV      R3,#+87
   \   00000198   6D20A0E3           MOV      R2,#+109
   \   0000019C   0B10A0E3           MOV      R1,#+11
   \   000001A0   02002DE9           PUSH     {R1}
   \   000001A4   0110A0E3           MOV      R1,#+1
   \   000001A8   02002DE9           PUSH     {R1}
   \   000001AC   01002DE9           PUSH     {R0}
   \   000001B0   1110A0E3           MOV      R1,#+17
   \   000001B4   0600A0E1           MOV      R0,R6
   \   000001B8   070200EF           SWI      +519
   \   000001BC   18D08DE2           ADD      SP,SP,#+24
   \   000001C0   180000EA           B        ??DrawProgress_4
    229            }
    230            else
    231            {
    232              if(shutd) wsprintf(data4,"Shut down......");
   \                     ??DrawProgress_1:
   \   000001C4   ........           LDR      R1,??DataTable27  ;; shutd
   \   000001C8   001091E5           LDR      R1,[R1, #+0]
   \   000001CC   000051E3           CMP      R1,#+0
   \   000001D0   B0109F15           LDRNE    R1,??DrawProgress_0+0xC  ;; `?<Constant "Shut down......">`
    233              else wsprintf(data4,"Restarting......");
   \   000001D4   B0109F05           LDREQ    R1,??DrawProgress_0+0x10  ;; `?<Constant "Restarting......">`
   \   000001D8   240100EF           SWI      +292
    234              DrawString(data4,17,109,115,109+GetFontYSIZE(11)+1,11,0,ctasks,GetPaletteAdrByColorIndex(23));
   \   000001DC   1700A0E3           MOV      R0,#+23
   \   000001E0   2E0100EF           SWI      +302
   \   000001E4   0060A0E1           MOV      R6,R0
   \   000001E8   0B00A0E3           MOV      R0,#+11
   \   000001EC   C50100EF           SWI      +453
   \   000001F0   40002DE9           PUSH     {R6}
   \   000001F4   20002DE9           PUSH     {R5}
   \   000001F8   0010A0E3           MOV      R1,#+0
   \   000001FC   02002DE9           PUSH     {R1}
   \   00000200   6E0080E2           ADD      R0,R0,#+110
   \   00000204   7330A0E3           MOV      R3,#+115
   \   00000208   6D20A0E3           MOV      R2,#+109
   \   0000020C   0B10A0E3           MOV      R1,#+11
   \   00000210   02002DE9           PUSH     {R1}
   \   00000214   01002DE9           PUSH     {R0}
   \   00000218   000097E5           LDR      R0,[R7, #+0]
   \   0000021C   1110A0E3           MOV      R1,#+17
   \   00000220   4C0100EF           SWI      +332
   \   00000224   14D08DE2           ADD      SP,SP,#+20
    235            }
    236            DrawRectangle(18,125,(115 * this_rec)/draw_rec,135,0,GetPaletteAdrByColorIndex(23),GetPaletteAdrByColorIndex(4));
   \                     ??DrawProgress_4:
   \   00000228   0400A0E3           MOV      R0,#+4
   \   0000022C   2E0100EF           SWI      +302
   \   00000230   0050A0E1           MOV      R5,R0
   \   00000234   1700A0E3           MOV      R0,#+23
   \   00000238   2E0100EF           SWI      +302
   \   0000023C   20002DE9           PUSH     {R5}
   \   00000240   01002DE9           PUSH     {R0}
   \   00000244   7310A0E3           MOV      R1,#+115
   \   00000248   8730A0E3           MOV      R3,#+135
   \   0000024C   0000A0E3           MOV      R0,#+0
   \   00000250   01002DE9           PUSH     {R0}
   \   00000254   000094E5           LDR      R0,[R4, #+0]
   \   00000258   910000E0           MUL      R0,R1,R0
   \   0000025C   ........           LDR      R1,??DataTable24  ;; draw_rec
   \   00000260   001091E5           LDR      R1,[R1, #+0]
   \   00000264   ........           _BLF     ??div32_a,??rA??div32_a
   \   00000268   0120A0E1           MOV      R2,R1
   \   0000026C   7D10A0E3           MOV      R1,#+125
   \   00000270   1200A0E3           MOV      R0,#+18
   \   00000274   B40100EF           SWI      +436
    237          }
   \   00000278   F783BDE8           POP      {R0-R2,R4-R9,PC}  ;; return
   \                     ??DrawProgress_0:
   \   0000027C   ........           DC32     this_rec
   \   00000280   ........           DC32     `?<Constant "Closing...">`
   \   00000284   ........           DC32     `?<Constant "...............[OK]">`
   \   00000288   ........           DC32     `?<Constant "Shut down......">`
   \   0000028C   ........           DC32     `?<Constant "Restarting......">`
    238          

   \                                 In segment DATA_Z, align 4, align-sorted
    239          int zin;
   \                     zin:
   \   00000000                      DS8 4

   \                                 In segment DATA_I, align 4, align-sorted
    240          int init_rec=1;
   \                     init_rec:
   \   00000000                      DS8 4
   \   00000004                      REQUIRE `?<Initializer for init_rec>`
    241          

   \                                 In segment CODE, align 4, keep-with-next
    242          void task_list3()
    243          {
   \                     task_list3:
   \   00000000   30402DE9           PUSH     {R4,R5,LR}
    244            DrwImg3(&screen2, 0, 0, NULL, NULL);
    245            DrawImg(12, 26,(int)background_img);  //12,37
    246            DrawImg(83,40,(int)tasks_img);
    247            DrawImg(101,40,(int)bookmarks_img);
    248            total_d=GetNumberOfDialogs()-2;
   \   00000004   ........           LDR      R4,??DataTable19  ;; total_d
   \   00000008   0000A0E3           MOV      R0,#+0
   \   0000000C   01002DE9           PUSH     {R0}
   \   00000010   0020A0E1           MOV      R2,R0
   \   00000014   0010A0E1           MOV      R1,R0
   \   00000018   ........           LDR      R0,??DataTable20  ;; screen2
   \   0000001C   0030A0E3           MOV      R3,#+0
   \   00000020   ........           BL       DrwImg3
   \   00000024   ........           LDR      R2,??DataTable21  ;; background_img
   \   00000028   1A10A0E3           MOV      R1,#+26
   \   0000002C   0C00A0E3           MOV      R0,#+12
   \   00000030   230000EF           SWI      +35
   \   00000034   ........           LDR      R2,??DataTable22  ;; tasks_img
   \   00000038   2810A0E3           MOV      R1,#+40
   \   0000003C   5300A0E3           MOV      R0,#+83
   \   00000040   230000EF           SWI      +35
   \   00000044   ........           LDR      R2,??DataTable23  ;; bookmarks_img
   \   00000048   2810A0E3           MOV      R1,#+40
   \   0000004C   6500A0E3           MOV      R0,#+101
   \   00000050   230000EF           SWI      +35
   \   00000054   ........           _BLF     GetNumberOfDialogs,??GetNumberOfDialogs??rA
   \   00000058   020040E2           SUB      R0,R0,#+2
   \   0000005C   000084E5           STR      R0,[R4, #+0]
    249            if(init_rec) {draw_rec=total_d; init_rec=0;}
   \   00000060   C0009FE5           LDR      R0,??task_list3_0  ;; init_rec
   \   00000064   001090E5           LDR      R1,[R0, #+0]
   \   00000068   04D08DE2           ADD      SP,SP,#+4
   \   0000006C   000051E3           CMP      R1,#+0
   \   00000070   0400000A           BEQ      ??task_list3_1
   \   00000074   ........           LDR      R1,??DataTable24  ;; draw_rec
   \   00000078   002094E5           LDR      R2,[R4, #+0]
   \   0000007C   002081E5           STR      R2,[R1, #+0]
   \   00000080   0010A0E3           MOV      R1,#+0
   \   00000084   001080E5           STR      R1,[R0, #+0]
    250            NAMELIST *nl=nltop;
   \                     ??task_list3_1:
   \   00000088   ........           LDR      R0,??DataTable25  ;; nltop
   \   0000008C   005090E5           LDR      R5,[R0, #+0]
    251            if(total_d>0)
   \   00000090   000094E5           LDR      R0,[R4, #+0]
   \   00000094   010050E3           CMP      R0,#+1
   \   00000098   170000BA           BLT      ??task_list3_2
    252            {
    253              NAMELIST *p=nl;
    254              nl=p->next;
   \   0000009C   005095E5           LDR      R5,[R5, #+0]
    255              zin=((CSM_RAM *)(nl->p))->id;
   \   000000A0   84409FE5           LDR      R4,??task_list3_0+0x4  ;; zin
   \   000000A4   0C0095E5           LDR      R0,[R5, #+12]
   \   000000A8   0C0090E5           LDR      R0,[R0, #+12]
   \   000000AC   000084E5           STR      R0,[R4, #+0]
    256              if (zin==CSM_root()->idle_id) 
   \   000000B0   068100EF           SWI      +33030
   \   000000B4   001094E5           LDR      R1,[R4, #+0]
   \   000000B8   040090E5           LDR      R0,[R0, #+4]
   \   000000BC   000051E1           CMP      R1,R0
   \   000000C0   0300001A           BNE      ??task_list3_3
    257              {
    258                NAMELIST *p=nl;
    259                nl=p->next; 
   \   000000C4   005095E5           LDR      R5,[R5, #+0]
    260                zin=((CSM_RAM *)(nl->p))->id;
   \   000000C8   0C0095E5           LDR      R0,[R5, #+12]
   \   000000CC   0C0090E5           LDR      R0,[R0, #+12]
   \   000000D0   000084E5           STR      R0,[R4, #+0]
    261              }
    262              DrawProgress(nl->name, 1);
   \                     ??task_list3_3:
   \   000000D4   080095E5           LDR      R0,[R5, #+8]
   \   000000D8   0110A0E3           MOV      R1,#+1
   \   000000DC   ........           BL       DrawProgress
    263              CloseCSM(zin);
   \   000000E0   000094E5           LDR      R0,[R4, #+0]
   \   000000E4   FC0100EF           SWI      +508
    264              GBS_StartTimerProc(&start_tmr, 216, task_list3);
   \   000000E8   40209FE5           LDR      R2,??task_list3_0+0x8  ;; task_list3
   \   000000EC   ........           LDR      R0,??DataTable26  ;; start_tmr
   \   000000F0   D810A0E3           MOV      R1,#+216
   \   000000F4   4D0000EF           SWI      +77
   \   000000F8   3080BDE8           POP      {R4,R5,PC}
    265            }
    266            else
    267            {
    268              DrawProgress(NULL, 0);
   \                     ??task_list3_2:
   \   000000FC   0010A0E3           MOV      R1,#+0
   \   00000100   0000A0E3           MOV      R0,#+0
   \   00000104   ........           BL       DrawProgress
    269              if (shutd==1) SwitchPhoneOff();
   \   00000108   ........           LDR      R0,??DataTable27  ;; shutd
   \   0000010C   000090E5           LDR      R0,[R0, #+0]
   \   00000110   010050E3           CMP      R0,#+1
   \   00000114   0100001A           BNE      ??task_list3_4
   \   00000118   090000EF           SWI      +9
   \   0000011C   3080BDE8           POP      {R4,R5,PC}
    270              else RebootPhone();
   \                     ??task_list3_4:
   \   00000120   930000EF           SWI      +147
    271            }
    272          }
   \   00000124   3080BDE8           POP      {R4,R5,PC}       ;; return
   \                     ??task_list3_0:
   \   00000128   ........           DC32     init_rec
   \   0000012C   ........           DC32     zin
   \   00000130   ........           DC32     task_list3
    273          

   \                                 In segment CODE, align 4, keep-with-next
    274          void SearchIcon(WSHDR *ramed, int w, int show)
    275          {
   \                     SearchIcon:
   \   00000000   F0412DE9           PUSH     {R4-R8,LR}
    276            char buffer[256];
    277            //ws_2str(ramed, buffer, 64);
    278            convWS_to_ANSI(ramed, buffer);
    279            if(strstr(buffer, "NATICQ")>0) strcpy(buffer, "NATICQ");
   \   00000004   58619FE5           LDR      R6,??SearchIcon_0+0xC  ;; `?<Constant "NATICQ">`
   \   00000008   42DF4DE2           SUB      SP,SP,#+264
   \   0000000C   0140A0E1           MOV      R4,R1
   \   00000010   0250A0E1           MOV      R5,R2
   \   00000014   08108DE2           ADD      R1,SP,#+8
   \   00000018   ........           _BLF     convWS_to_ANSI,??convWS_to_ANSI??rA
   \   0000001C   0610A0E1           MOV      R1,R6
   \   00000020   08008DE2           ADD      R0,SP,#+8
   \   00000024   180100EF           SWI      +280
   \   00000028   000050E3           CMP      R0,#+0
   \   0000002C   0200000A           BEQ      ??SearchIcon_1
   \   00000030   0610A0E1           MOV      R1,R6
   \   00000034   08008DE2           ADD      R0,SP,#+8
   \   00000038   1A0000EF           SWI      +26
    280            if(strstr(buffer, "SieJC")>0) strcpy(buffer, "SieJC");
   \                     ??SearchIcon_1:
   \   0000003C   24619FE5           LDR      R6,??SearchIcon_0+0x10  ;; `?<Constant "SieJC">`
   \   00000040   08008DE2           ADD      R0,SP,#+8
   \   00000044   0610A0E1           MOV      R1,R6
   \   00000048   180100EF           SWI      +280
   \   0000004C   000050E3           CMP      R0,#+0
   \   00000050   0200000A           BEQ      ??SearchIcon_2
   \   00000054   0610A0E1           MOV      R1,R6
   \   00000058   08008DE2           ADD      R0,SP,#+8
   \   0000005C   1A0000EF           SWI      +26
    281            if(strstr(buffer, "MC:")>0) strcpy(buffer, "MC");
   \                     ??SearchIcon_2:
   \   00000060   3C1F8FE2           ADR      R1,??SearchIcon_0  ;; "MC:"
   \   00000064   08008DE2           ADD      R0,SP,#+8
   \   00000068   180100EF           SWI      +280
   \   0000006C   000050E3           CMP      R0,#+0
   \   00000070   0200000A           BEQ      ??SearchIcon_3
   \   00000074   381F8FE2           ADR      R1,??SearchIcon_0+0x4  ;; "MC"
   \   00000078   08008DE2           ADD      R0,SP,#+8
   \   0000007C   1A0000EF           SWI      +26
    282            if(strstr(buffer, "BM:")>0) strcpy(buffer, "BM:");
   \                     ??SearchIcon_3:
   \   00000080   366F8FE2           ADR      R6,??SearchIcon_0+0x8  ;; "BM:"
   \   00000084   0610A0E1           MOV      R1,R6
   \   00000088   08008DE2           ADD      R0,SP,#+8
   \   0000008C   180100EF           SWI      +280
   \   00000090   000050E3           CMP      R0,#+0
   \   00000094   0200000A           BEQ      ??SearchIcon_4
   \   00000098   0610A0E1           MOV      R1,R6
   \   0000009C   08008DE2           ADD      R0,SP,#+8
   \   000000A0   1A0000EF           SWI      +26
    283            char p2[]="||";
   \                     ??SearchIcon_4:
   \   000000A4   C0109FE5           LDR      R1,??SearchIcon_0+0x14  ;; `?<Constant "||">`
   \   000000A8   0D00A0E1           MOV      R0,SP
   \   000000AC   0020D1E5           LDRB     R2,[R1, #0]
   \   000000B0   0020C0E5           STRB     R2,[R0, #+0]
   \   000000B4   0120D1E5           LDRB     R2,[R1, #+1]
   \   000000B8   0120C0E5           STRB     R2,[R0, #+1]
   \   000000BC   0220D1E5           LDRB     R2,[R1, #+2]
    284            char *s,*s1,*s2;
    285            int len;
    286            if((s1=strstr(icon_text,buffer))>0)
   \   000000C0   08108DE2           ADD      R1,SP,#+8
   \   000000C4   0220C0E5           STRB     R2,[R0, #+2]
   \   000000C8   ........           LDR      R0,??DataTable28  ;; icon_text
   \   000000CC   180100EF           SWI      +280
   \   000000D0   0060B0E1           MOVS     R6,R0
   \   000000D4   1D00000A           BEQ      ??SearchIcon_5
    287            {
    288              s1+=strlen(buffer);
   \   000000D8   08008DE2           ADD      R0,SP,#+8
   \   000000DC   1B0000EF           SWI      +27
   \   000000E0   066080E0           ADD      R6,R0,R6
    289              if((s2=strstr(s1,p2))>0)
   \   000000E4   0D10A0E1           MOV      R1,SP
   \   000000E8   0600A0E1           MOV      R0,R6
   \   000000EC   180100EF           SWI      +280
   \   000000F0   000050E3           CMP      R0,#+0
   \   000000F4   1500000A           BEQ      ??SearchIcon_5
    290              {
    291                len=s2-s1-1;
   \   000000F8   060040E0           SUB      R0,R0,R6
   \   000000FC   017040E2           SUB      R7,R0,#+1
    292                s=malloc(len+1);
   \   00000100   140000EF           SWI      +20
   \   00000104   0080A0E1           MOV      R8,R0
    293                strncpy(s,s1+1,len);
   \   00000108   0720A0E1           MOV      R2,R7
   \   0000010C   011086E2           ADD      R1,R6,#+1
   \   00000110   160100EF           SWI      +278
    294                s[len]='\0';
   \   00000114   0000A0E3           MOV      R0,#+0
   \   00000118   0800C7E7           STRB     R0,[R7, +R8]
    295                if(show) DrawImg(17,w+1,(int)s);
   \   0000011C   014084E2           ADD      R4,R4,#+1
   \   00000120   000055E3           CMP      R5,#+0
   \   00000124   0300000A           BEQ      ??SearchIcon_6
   \   00000128   0820A0E1           MOV      R2,R8
   \   0000012C   0410A0E1           MOV      R1,R4
   \   00000130   1100A0E3           MOV      R0,#+17
   \   00000134   230000EF           SWI      +35
    296                DrawImg(102,w+1,(int)s);
   \                     ??SearchIcon_6:
   \   00000138   0820A0E1           MOV      R2,R8
   \   0000013C   0410A0E1           MOV      R1,R4
   \   00000140   6600A0E3           MOV      R0,#+102
   \   00000144   230000EF           SWI      +35
    297                mfree(s);
   \   00000148   0800A0E1           MOV      R0,R8
   \   0000014C   150000EF           SWI      +21
    298              }
    299            }
    300          }
   \                     ??SearchIcon_5:
   \   00000150   42DF8DE2           ADD      SP,SP,#+264      ;; stack cleaning
   \   00000154   F081BDE8           POP      {R4-R8,PC}       ;; return
   \                     ??SearchIcon_0:
   \   00000158   4D433A00           DC8      "MC:"
   \   0000015C   4D430000           DC8      "MC",+0
   \   00000160   424D3A00           DC8      "BM:"
   \   00000164   ........           DC32     `?<Constant "NATICQ">`
   \   00000168   ........           DC32     `?<Constant "SieJC">`
   \   0000016C   ........           DC32     `?<Constant "||">`
    301          

   \                                 In segment DATA_Z, align 4, align-sorted
    302          int refresh;
   \                     refresh:
   \   00000000                      DS8 4
    303          

   \                                 In segment CODE, align 4, keep-with-next
    304          void OnRedraw(MAIN_GUI *data)
    305          { 
   \                     OnRedraw:
   \   00000000   98089FE5           LDR      R0,??OnRedraw_0+0x4  ;; refresh
   \   00000004   F04F2DE9           PUSH     {R4-R11,LR}
   \   00000008   30D04DE2           SUB      SP,SP,#+48
    306            refresh=216;
    307            if(task_list==1)
   \   0000000C   90689FE5           LDR      R6,??OnRedraw_0+0x8  ;; selection_img
   \   00000010   90789FE5           LDR      R7,??OnRedraw_0+0xC  ;; cursor_img
   \   00000014   90889FE5           LDR      R8,??OnRedraw_0+0x10  ;; bookmarks_img
   \   00000018   90989FE5           LDR      R9,??OnRedraw_0+0x14  ;; tasks_img
   \   0000001C   90A89FE5           LDR      R10,??OnRedraw_0+0x18  ;; background_img
   \   00000020   90489FE5           LDR      R4,??OnRedraw_0+0x1C  ;; ctasks
   \   00000024   90589FE5           LDR      R5,??OnRedraw_0+0x20  ;; cinfo
   \   00000028   90B89FE5           LDR      R11,??OnRedraw_0+0x24  ;; screen2
   \   0000002C   D810A0E3           MOV      R1,#+216
   \   00000030   001080E5           STR      R1,[R0, #+0]
   \   00000034   88089FE5           LDR      R0,??OnRedraw_0+0x28  ;; task_list
   \   00000038   000090E5           LDR      R0,[R0, #+0]
   \   0000003C   010050E3           CMP      R0,#+1
   \   00000040   6E01001A           BNE      ??OnRedraw_1
    308            {
    309            total_d=GetNumberOfDialogs()-1;
   \   00000044   ........           _BLF     GetNumberOfDialogs,??GetNumberOfDialogs??rA
   \   00000048   78189FE5           LDR      R1,??OnRedraw_0+0x2C  ;; total_d
   \   0000004C   010040E2           SUB      R0,R0,#+1
   \   00000050   000081E5           STR      R0,[R1, #+0]
    310          #ifdef NEWSGOLD
    311            DrwImg3(&screen2, 0, 0, NULL, NULL);
   \   00000054   0000A0E3           MOV      R0,#+0
   \   00000058   01002DE9           PUSH     {R0}
   \   0000005C   0030A0E3           MOV      R3,#+0
   \   00000060   0020A0E1           MOV      R2,R0
   \   00000064   0010A0E1           MOV      R1,R0
   \   00000068   0B00A0E1           MOV      R0,R11
   \   0000006C   ........           BL       DrwImg3
    312          #endif
    313            DrawImg(12, 26,(int)background_img);  //12,37
   \   00000070   0A20A0E1           MOV      R2,R10
   \   00000074   1A10A0E3           MOV      R1,#+26
   \   00000078   0C00A0E3           MOV      R0,#+12
   \   0000007C   230000EF           SWI      +35
    314            DrawImg(16,48+(pos*12),(int)cursor_img);
   \   00000080   44089FE5           LDR      R0,??OnRedraw_0+0x30  ;; pos
   \   00000084   0C10A0E3           MOV      R1,#+12
   \   00000088   000090E5           LDR      R0,[R0, #+0]
   \   0000008C   0720A0E1           MOV      R2,R7
   \   00000090   910000E0           MUL      R0,R1,R0
   \   00000094   301080E2           ADD      R1,R0,#+48
   \   00000098   1000A0E3           MOV      R0,#+16
   \   0000009C   230000EF           SWI      +35
    315            DrawImg(82,39,(int)selection_img);
   \   000000A0   0620A0E1           MOV      R2,R6
   \   000000A4   2710A0E3           MOV      R1,#+39
   \   000000A8   5200A0E3           MOV      R0,#+82
   \   000000AC   230000EF           SWI      +35
    316            DrawImg(83,40,(int)tasks_img);
   \   000000B0   0920A0E1           MOV      R2,R9
   \   000000B4   2810A0E3           MOV      R1,#+40
   \   000000B8   5300A0E3           MOV      R0,#+83
   \   000000BC   230000EF           SWI      +35
    317            DrawImg(101,40,(int)bookmarks_img);
   \   000000C0   0820A0E1           MOV      R2,R8
   \   000000C4   2810A0E3           MOV      R1,#+40
   \   000000C8   6500A0E3           MOV      R0,#+101
   \   000000CC   230000EF           SWI      +35
    318            int show=1;
    319            NAMELIST *nl=nltop;
   \   000000D0   F8079FE5           LDR      R0,??OnRedraw_0+0x34  ;; nltop
   \   000000D4   0110A0E3           MOV      R1,#+1
   \   000000D8   04108DE5           STR      R1,[SP, #+4]
   \   000000DC   008090E5           LDR      R8,[R0, #+0]
    320            int i=60;
    321            WSHDR *ws=AllocWS(64);
   \   000000E0   4000A0E3           MOV      R0,#+64
   \   000000E4   250100EF           SWI      +293
    322            int skip=move_skip+1;
   \   000000E8   E4179FE5           LDR      R1,??OnRedraw_0+0x38  ;; move_skip
   \   000000EC   3C60A0E3           MOV      R6,#+60
   \   000000F0   001091E5           LDR      R1,[R1, #+0]
   \   000000F4   0070A0E1           MOV      R7,R0
   \   000000F8   011081E2           ADD      R1,R1,#+1
   \   000000FC   10108DE5           STR      R1,[SP, #+16]
   \   00000100   04D08DE2           ADD      SP,SP,#+4
   \   00000104   020000EA           B        ??OnRedraw_2
    323            while((nl)&&(show<=5))
    324            {
    325              NAMELIST *p=nl;
    326              if(!skip) 
    327              {
    328          /*      if(nl->is_daemon)
    329                {
    330                  DrawString(nl->name,17,i+1,115,i+GetFontYSIZE(11)+2,11,0,cdaemons,GetPaletteAdrByColorIndex(23));
    331                  SearchIcon(nl->name, i);
    332                }
    333                else
    334                {*/
    335                  if(Get_WS_width(nl->name,11)<85)
    336                  {
    337                    if(nl->is_daemon) DrawString(nl->name,17,i+1,115,i+GetFontYSIZE(11),11,0,cdaemons,GetPaletteAdrByColorIndex(23));
    338                    else
    339                  DrawString(nl->name,17,i+1,115,i+GetFontYSIZE(11),11,0,ctasks,GetPaletteAdrByColorIndex(23));
    340                  }
    341                  else
    342                  {
    343                    if(pos!=show)
    344                    {
    345                      if(nl->is_daemon) DrawScrollString(nl->name,17,i+1,100,i+GetFontYSIZE(11),1,11,TEXT_ALIGNLEFT,cdaemons,GetPaletteAdrByColorIndex(23)); else
    346                    DrawScrollString(nl->name,17,i+1,100,i+GetFontYSIZE(11),1,11,TEXT_ALIGNLEFT,ctasks,GetPaletteAdrByColorIndex(23));
    347                    }
    348                    else
    349                    {
    350                      if(nl->is_daemon) DrawScrollString(nl->name,17,i+1,100,i+GetFontYSIZE(11),sm+1,11,TEXT_ALIGNLEFT,cdaemons,GetPaletteAdrByColorIndex(23)); else
    351                      DrawScrollString(nl->name,17,i+1,100,i+GetFontYSIZE(11),sm+1,11,TEXT_ALIGNLEFT,ctasks,GetPaletteAdrByColorIndex(23));
    352                      refresh=30;
    353                      if(forward==1) sm=sm+3;
    354                      if(forward==0) sm=sm-3;
    355                      if(forward==2)
    356                      {
    357                        if(halt) halt--;
    358                        else forward=3;
    359                      }
    360                      if ((sm>Get_WS_width(nl->name,11)-85)&&(forward==1)) {forward=2; halt=5;}
    361                      if (forward==3) {
    362                        if (sm==0) {forward=4; halt=5;}
    363                        else sm=sm-3;
    364                      }
    365                      if(forward==4)
    366                      {
    367                        if(halt) halt--;
    368                        else forward=1;
    369                      }
    370                     // if ((sm==0)&&(forward==3) forward=1;
    371                    }
    372                  }
    373                  SearchIcon(nl->name, i, 0);
    374            //    }
    375                show++;
    376                i=i+12;
    377              }
    378              else skip--;
   \                     ??OnRedraw_3:
   \   00000108   011040E2           SUB      R1,R0,#+1
   \   0000010C   0C108DE5           STR      R1,[SP, #+12]
    379              nl=p->next;
   \                     ??OnRedraw_4:
   \   00000110   008098E5           LDR      R8,[R8, #+0]
   \                     ??OnRedraw_2:
   \   00000114   000058E3           CMP      R8,#+0
   \   00000118   B600000A           BEQ      ??OnRedraw_5
   \   0000011C   00009DE5           LDR      R0,[SP, #+0]
   \   00000120   060050E3           CMP      R0,#+6
   \   00000124   B30000AA           BGE      ??OnRedraw_5
   \   00000128   0C009DE5           LDR      R0,[SP, #+12]
   \   0000012C   000050E3           CMP      R0,#+0
   \   00000130   F4FFFF1A           BNE      ??OnRedraw_3
   \   00000134   080098E5           LDR      R0,[R8, #+8]
   \   00000138   98A79FE5           LDR      R10,??OnRedraw_0+0x3C  ;; cdaemons
   \   0000013C   019086E2           ADD      R9,R6,#+1
   \   00000140   0B10A0E3           MOV      R1,#+11
   \   00000144   080200EF           SWI      +520
   \   00000148   550050E3           CMP      R0,#+85
   \   0000014C   100098E5           LDR      R0,[R8, #+16]
   \   00000150   1D0000AA           BGE      ??OnRedraw_6
   \   00000154   000050E3           CMP      R0,#+0
   \   00000158   1700A0E3           MOV      R0,#+23
   \   0000015C   1200000A           BEQ      ??OnRedraw_7
   \   00000160   2E0100EF           SWI      +302
   \   00000164   00B0A0E1           MOV      R11,R0
   \   00000168   0B00A0E3           MOV      R0,#+11
   \   0000016C   C50100EF           SWI      +453
   \   00000170   00082DE9           PUSH     {R11}
   \   00000174   00042DE9           PUSH     {R10}
   \                     ??OnRedraw_8:
   \   00000178   0010A0E3           MOV      R1,#+0
   \   0000017C   02002DE9           PUSH     {R1}
   \   00000180   060080E0           ADD      R0,R0,R6
   \   00000184   7330A0E3           MOV      R3,#+115
   \   00000188   0920A0E1           MOV      R2,R9
   \   0000018C   0B10A0E3           MOV      R1,#+11
   \   00000190   02002DE9           PUSH     {R1}
   \   00000194   01002DE9           PUSH     {R0}
   \   00000198   080098E5           LDR      R0,[R8, #+8]
   \   0000019C   1110A0E3           MOV      R1,#+17
   \   000001A0   4C0100EF           SWI      +332
   \   000001A4   14D08DE2           ADD      SP,SP,#+20
   \   000001A8   890000EA           B        ??OnRedraw_9
   \                     ??OnRedraw_7:
   \   000001AC   2E0100EF           SWI      +302
   \   000001B0   00A0A0E1           MOV      R10,R0
   \   000001B4   0B00A0E3           MOV      R0,#+11
   \   000001B8   C50100EF           SWI      +453
   \   000001BC   00042DE9           PUSH     {R10}
   \   000001C0   0410A0E1           MOV      R1,R4
   \   000001C4   02002DE9           PUSH     {R1}
   \   000001C8   EAFFFFEA           B        ??OnRedraw_8
   \                     ??OnRedraw_6:
   \   000001CC   F8169FE5           LDR      R1,??OnRedraw_0+0x30  ;; pos
   \   000001D0   00209DE5           LDR      R2,[SP, #+0]
   \   000001D4   001091E5           LDR      R1,[R1, #+0]
   \   000001D8   020051E1           CMP      R1,R2
   \   000001DC   1F00000A           BEQ      ??OnRedraw_10
   \   000001E0   000050E3           CMP      R0,#+0
   \   000001E4   1700A0E3           MOV      R0,#+23
   \   000001E8   1400000A           BEQ      ??OnRedraw_11
   \   000001EC   2E0100EF           SWI      +302
   \   000001F0   00B0A0E1           MOV      R11,R0
   \   000001F4   0B00A0E3           MOV      R0,#+11
   \   000001F8   C50100EF           SWI      +453
   \   000001FC   00082DE9           PUSH     {R11}
   \   00000200   00042DE9           PUSH     {R10}
   \                     ??OnRedraw_12:
   \   00000204   0110A0E3           MOV      R1,#+1
   \   00000208   02002DE9           PUSH     {R1}
   \   0000020C   060080E0           ADD      R0,R0,R6
   \   00000210   6430A0E3           MOV      R3,#+100
   \   00000214   0920A0E1           MOV      R2,R9
   \   00000218   0B10A0E3           MOV      R1,#+11
   \   0000021C   02002DE9           PUSH     {R1}
   \   00000220   0110A0E3           MOV      R1,#+1
   \   00000224   02002DE9           PUSH     {R1}
   \   00000228   01002DE9           PUSH     {R0}
   \   0000022C   080098E5           LDR      R0,[R8, #+8]
   \   00000230   1110A0E3           MOV      R1,#+17
   \   00000234   070200EF           SWI      +519
   \   00000238   18D08DE2           ADD      SP,SP,#+24
   \   0000023C   640000EA           B        ??OnRedraw_9
   \                     ??OnRedraw_11:
   \   00000240   2E0100EF           SWI      +302
   \   00000244   00A0A0E1           MOV      R10,R0
   \   00000248   0B00A0E3           MOV      R0,#+11
   \   0000024C   C50100EF           SWI      +453
   \   00000250   00042DE9           PUSH     {R10}
   \   00000254   0410A0E1           MOV      R1,R4
   \   00000258   02002DE9           PUSH     {R1}
   \   0000025C   E8FFFFEA           B        ??OnRedraw_12
   \                     ??OnRedraw_10:
   \   00000260   74B69FE5           LDR      R11,??OnRedraw_0+0x40  ;; sm
   \   00000264   000050E3           CMP      R0,#+0
   \   00000268   1700A0E3           MOV      R0,#+23
   \   0000026C   0700000A           BEQ      ??OnRedraw_13
   \   00000270   2E0100EF           SWI      +302
   \   00000274   2C008DE5           STR      R0,[SP, #+44]
   \   00000278   0B00A0E3           MOV      R0,#+11
   \   0000027C   C50100EF           SWI      +453
   \   00000280   2C109DE5           LDR      R1,[SP, #+44]
   \   00000284   02002DE9           PUSH     {R1}
   \   00000288   00042DE9           PUSH     {R10}
   \   0000028C   060000EA           B        ??OnRedraw_14
   \                     ??OnRedraw_13:
   \   00000290   2E0100EF           SWI      +302
   \   00000294   00A0A0E1           MOV      R10,R0
   \   00000298   0B00A0E3           MOV      R0,#+11
   \   0000029C   C50100EF           SWI      +453
   \   000002A0   00042DE9           PUSH     {R10}
   \   000002A4   0410A0E1           MOV      R1,R4
   \   000002A8   02002DE9           PUSH     {R1}
   \                     ??OnRedraw_14:
   \   000002AC   0110A0E3           MOV      R1,#+1
   \   000002B0   02002DE9           PUSH     {R1}
   \   000002B4   060080E0           ADD      R0,R0,R6
   \   000002B8   6430A0E3           MOV      R3,#+100
   \   000002BC   0920A0E1           MOV      R2,R9
   \   000002C0   949E9FE5           LDR      R9,??OnRedraw_15+0x4  ;; forward
   \   000002C4   0B10A0E3           MOV      R1,#+11
   \   000002C8   02002DE9           PUSH     {R1}
   \   000002CC   00109BE5           LDR      R1,[R11, #+0]
   \   000002D0   011081E2           ADD      R1,R1,#+1
   \   000002D4   02002DE9           PUSH     {R1}
   \   000002D8   01002DE9           PUSH     {R0}
   \   000002DC   080098E5           LDR      R0,[R8, #+8]
   \   000002E0   1110A0E3           MOV      R1,#+17
   \   000002E4   070200EF           SWI      +519
   \   000002E8   B0059FE5           LDR      R0,??OnRedraw_0+0x4  ;; refresh
   \   000002EC   18D08DE2           ADD      SP,SP,#+24
   \   000002F0   1E10A0E3           MOV      R1,#+30
   \   000002F4   001080E5           STR      R1,[R0, #+0]
   \   000002F8   00009BE5           LDR      R0,[R11, #+0]
   \   000002FC   001099E5           LDR      R1,[R9, #+0]
   \   00000300   010051E3           CMP      R1,#+1
   \   00000304   03008002           ADDEQ    R0,R0,#+3
   \   00000308   0100000A           BEQ      ??OnRedraw_16
   \   0000030C   000051E3           CMP      R1,#+0
   \   00000310   03004002           SUBEQ    R0,R0,#+3
   \                     ??OnRedraw_16:
   \   00000314   6CAF9FE5           LDR      R10,??OnRedraw_17  ;; halt
   \   00000318   00008BE5           STR      R0,[R11, #+0]
   \   0000031C   020051E3           CMP      R1,#+2
   \   00000320   0500001A           BNE      ??OnRedraw_18
   \   00000324   00009AE5           LDR      R0,[R10, #+0]
   \   00000328   000050E3           CMP      R0,#+0
   \   0000032C   01004012           SUBNE    R0,R0,#+1
   \   00000330   00008A15           STRNE    R0,[R10, #+0]
   \   00000334   0300A003           MOVEQ    R0,#+3
   \   00000338   00008905           STREQ    R0,[R9, #+0]
   \                     ??OnRedraw_18:
   \   0000033C   080098E5           LDR      R0,[R8, #+8]
   \   00000340   0B10A0E3           MOV      R1,#+11
   \   00000344   080200EF           SWI      +520
   \   00000348   00209BE5           LDR      R2,[R11, #+0]
   \   0000034C   0510A0E3           MOV      R1,#+5
   \   00000350   550040E2           SUB      R0,R0,#+85
   \   00000354   020050E1           CMP      R0,R2
   \   00000358   060000AA           BGE      ??OnRedraw_19
   \   0000035C   000099E5           LDR      R0,[R9, #+0]
   \   00000360   010050E3           CMP      R0,#+1
   \   00000364   0300001A           BNE      ??OnRedraw_19
   \   00000368   0200A0E3           MOV      R0,#+2
   \   0000036C   000089E5           STR      R0,[R9, #+0]
   \   00000370   00108AE5           STR      R1,[R10, #+0]
   \   00000374   160000EA           B        ??OnRedraw_9
   \                     ??OnRedraw_19:
   \   00000378   000099E5           LDR      R0,[R9, #+0]
   \   0000037C   030050E3           CMP      R0,#+3
   \   00000380   0800001A           BNE      ??OnRedraw_20
   \   00000384   000052E3           CMP      R2,#+0
   \   00000388   0300001A           BNE      ??OnRedraw_21
   \   0000038C   0400A0E3           MOV      R0,#+4
   \   00000390   000089E5           STR      R0,[R9, #+0]
   \   00000394   00108AE5           STR      R1,[R10, #+0]
   \   00000398   070000EA           B        ??OnRedraw_22
   \                     ??OnRedraw_21:
   \   0000039C   030042E2           SUB      R0,R2,#+3
   \   000003A0   00008BE5           STR      R0,[R11, #+0]
   \   000003A4   0A0000EA           B        ??OnRedraw_9
   \                     ??OnRedraw_20:
   \   000003A8   040050E3           CMP      R0,#+4
   \   000003AC   0800001A           BNE      ??OnRedraw_9
   \   000003B0   00009AE5           LDR      R0,[R10, #+0]
   \   000003B4   000050E3           CMP      R0,#+0
   \   000003B8   0300000A           BEQ      ??OnRedraw_23
   \                     ??OnRedraw_22:
   \   000003BC   00009AE5           LDR      R0,[R10, #+0]
   \   000003C0   010040E2           SUB      R0,R0,#+1
   \   000003C4   00008AE5           STR      R0,[R10, #+0]
   \   000003C8   010000EA           B        ??OnRedraw_9
   \                     ??OnRedraw_23:
   \   000003CC   0100A0E3           MOV      R0,#+1
   \   000003D0   000089E5           STR      R0,[R9, #+0]
   \                     ??OnRedraw_9:
   \   000003D4   080098E5           LDR      R0,[R8, #+8]
   \   000003D8   0020A0E3           MOV      R2,#+0
   \   000003DC   0610A0E1           MOV      R1,R6
   \   000003E0   ........           BL       SearchIcon
   \   000003E4   00109DE5           LDR      R1,[SP, #+0]
   \   000003E8   0C6086E2           ADD      R6,R6,#+12
   \   000003EC   011081E2           ADD      R1,R1,#+1
   \   000003F0   00108DE5           STR      R1,[SP, #+0]
   \   000003F4   45FFFFEA           B        ??OnRedraw_4
    380            }
    381            if(time_not)
   \                     ??OnRedraw_5:
   \   000003F8   8C0E9FE5           LDR      R0,??OnRedraw_17+0x4  ;; time_not
   \   000003FC   000090E5           LDR      R0,[R0, #+0]
   \   00000400   000050E3           CMP      R0,#+0
   \   00000404   3E00000A           BEQ      ??OnRedraw_24
    382            {
    383            if(!style) wsprintf(ws, "Tasks:%d", tasks);
   \   00000408   800E9FE5           LDR      R0,??OnRedraw_17+0x8  ;; tasks
   \   0000040C   002090E5           LDR      R2,[R0, #+0]
   \   00000410   7C0E9FE5           LDR      R0,??OnRedraw_17+0xC  ;; style
   \   00000414   000090E5           LDR      R0,[R0, #+0]
   \   00000418   000050E3           CMP      R0,#+0
   \   0000041C   741E9F05           LDREQ    R1,??OnRedraw_17+0x10  ;; `?<Constant "Tasks:%d">`
    384            else wsprintf(ws, "T:%d", tasks);
   \   00000420   0700A0E1           MOV      R0,R7
   \   00000424   701E9F15           LDRNE    R1,??OnRedraw_17+0x14  ;; `?<Constant "T:%d">`
   \   00000428   240100EF           SWI      +292
    385            DrawString(ws,16,124,16+Get_WS_width(ws,11)+3,124+GetFontYSIZE(11)+1,11,0,cinfo,GetPaletteAdrByColorIndex(23));
   \   0000042C   1700A0E3           MOV      R0,#+23
   \   00000430   2E0100EF           SWI      +302
   \   00000434   0040A0E1           MOV      R4,R0
   \   00000438   0B00A0E3           MOV      R0,#+11
   \   0000043C   C50100EF           SWI      +453
   \   00000440   0060A0E1           MOV      R6,R0
   \   00000444   0B10A0E3           MOV      R1,#+11
   \   00000448   0700A0E1           MOV      R0,R7
   \   0000044C   080200EF           SWI      +520
   \   00000450   10002DE9           PUSH     {R4}
   \   00000454   0510A0E1           MOV      R1,R5
   \   00000458   02002DE9           PUSH     {R1}
   \   0000045C   133080E2           ADD      R3,R0,#+19
   \   00000460   7C20A0E3           MOV      R2,#+124
   \   00000464   0700A0E1           MOV      R0,R7
   \   00000468   0010A0E3           MOV      R1,#+0
   \   0000046C   02002DE9           PUSH     {R1}
   \   00000470   0B10A0E3           MOV      R1,#+11
   \   00000474   02002DE9           PUSH     {R1}
   \   00000478   7D1086E2           ADD      R1,R6,#+125
   \   0000047C   02002DE9           PUSH     {R1}
   \   00000480   1010A0E3           MOV      R1,#+16
   \   00000484   4C0100EF           SWI      +332
    386            int ram = GetFreeRamAvail();
   \   00000488   5F0000EF           SWI      +95
    387            ram=ram/1024;
    388            wsprintf(ws,"Ram:%dKb", ram);
   \   0000048C   C014A0E1           ASR      R1,R0,#+9
   \   00000490   210B80E0           ADD      R0,R0,R1, LSR #+22
   \   00000494   041E9FE5           LDR      R1,??OnRedraw_17+0x18  ;; `?<Constant "Ram:%dKb">`
   \   00000498   4025A0E1           ASR      R2,R0,#+10
   \   0000049C   0700A0E1           MOV      R0,R7
   \   000004A0   240100EF           SWI      +292
    389            DrawString(ws,115-Get_WS_width(ws,11),124,115+3,124+GetFontYSIZE(11)+1,11,0,cinfo,GetPaletteAdrByColorIndex(23));
   \   000004A4   1700A0E3           MOV      R0,#+23
   \   000004A8   2E0100EF           SWI      +302
   \   000004AC   0040A0E1           MOV      R4,R0
   \   000004B0   0B00A0E3           MOV      R0,#+11
   \   000004B4   C50100EF           SWI      +453
   \   000004B8   0060A0E1           MOV      R6,R0
   \   000004BC   0B10A0E3           MOV      R1,#+11
   \   000004C0   0700A0E1           MOV      R0,R7
   \   000004C4   080200EF           SWI      +520
   \   000004C8   10002DE9           PUSH     {R4}
   \   000004CC   20002DE9           PUSH     {R5}
   \   000004D0   0010A0E3           MOV      R1,#+0
   \   000004D4   02002DE9           PUSH     {R1}
   \   000004D8   7630A0E3           MOV      R3,#+118
   \   000004DC   7C20A0E3           MOV      R2,#+124
   \   000004E0   0B10A0E3           MOV      R1,#+11
   \   000004E4   02002DE9           PUSH     {R1}
   \   000004E8   7D1086E2           ADD      R1,R6,#+125
   \   000004EC   02002DE9           PUSH     {R1}
   \   000004F0   731060E2           RSB      R1,R0,#+115
   \   000004F4   0700A0E1           MOV      R0,R7
   \   000004F8   4C0100EF           SWI      +332
   \   000004FC   28D08DE2           ADD      SP,SP,#+40
   \   00000500   3C0000EA           B        ??OnRedraw_25
    390            }
    391            else
    392              {
    393                int battery = *RamCap();
   \                     ??OnRedraw_24:
   \   00000504   C88000EF           SWI      +32968
   \   00000508   B020D0E1           LDRH     R2,[R0, #+0]
    394                wsprintf(ws,"%d%", battery);
   \   0000050C   E21F8FE2           ADR      R1,??OnRedraw_0  ;; "%d%"
   \   00000510   0700A0E1           MOV      R0,R7
   \   00000514   240100EF           SWI      +292
    395                DrawString(ws,16,124,16+Get_WS_width(ws,11)+3,124+GetFontYSIZE(11)+1,11,0,cinfo,GetPaletteAdrByColorIndex(23));
   \   00000518   1700A0E3           MOV      R0,#+23
   \   0000051C   2E0100EF           SWI      +302
   \   00000520   0040A0E1           MOV      R4,R0
   \   00000524   0B00A0E3           MOV      R0,#+11
   \   00000528   C50100EF           SWI      +453
   \   0000052C   0060A0E1           MOV      R6,R0
   \   00000530   0B10A0E3           MOV      R1,#+11
   \   00000534   0700A0E1           MOV      R0,R7
   \   00000538   080200EF           SWI      +520
   \   0000053C   10002DE9           PUSH     {R4}
   \   00000540   0510A0E1           MOV      R1,R5
   \   00000544   02002DE9           PUSH     {R1}
   \   00000548   133080E2           ADD      R3,R0,#+19
   \   0000054C   7C20A0E3           MOV      R2,#+124
   \   00000550   0700A0E1           MOV      R0,R7
   \   00000554   0010A0E3           MOV      R1,#+0
   \   00000558   02002DE9           PUSH     {R1}
   \   0000055C   0B10A0E3           MOV      R1,#+11
   \   00000560   02002DE9           PUSH     {R1}
   \   00000564   7D1086E2           ADD      R1,R6,#+125
   \   00000568   02002DE9           PUSH     {R1}
   \   0000056C   1010A0E3           MOV      R1,#+16
   \   00000570   4C0100EF           SWI      +332
    396                TTime time;
    397                TDate date;
    398                GetDateTime(&date, &time);
   \   00000574   18108DE2           ADD      R1,SP,#+24
   \   00000578   24008DE2           ADD      R0,SP,#+36
   \   0000057C   B40000EF           SWI      +180
    399                wsprintf(ws, "%02d:%02d:%02d", time.hour, time.min, time.sec);
   \   00000580   1A00DDE5           LDRB     R0,[SP, #+26]
   \   00000584   1C1D9FE5           LDR      R1,??OnRedraw_17+0x20  ;; `?<Constant "%02d:%02d:%02d">`
   \   00000588   01002DE9           PUSH     {R0}
   \   0000058C   1D30DDE5           LDRB     R3,[SP, #+29]
   \   00000590   1C20DDE5           LDRB     R2,[SP, #+28]
   \   00000594   0700A0E1           MOV      R0,R7
   \   00000598   240100EF           SWI      +292
    400                DrawString(ws,115-Get_WS_width(ws,11),124,115+3,124+GetFontYSIZE(11)+1,11,0,cinfo,GetPaletteAdrByColorIndex(23));
   \   0000059C   1700A0E3           MOV      R0,#+23
   \   000005A0   2E0100EF           SWI      +302
   \   000005A4   0040A0E1           MOV      R4,R0
   \   000005A8   0B00A0E3           MOV      R0,#+11
   \   000005AC   C50100EF           SWI      +453
   \   000005B0   0060A0E1           MOV      R6,R0
   \   000005B4   0B10A0E3           MOV      R1,#+11
   \   000005B8   0700A0E1           MOV      R0,R7
   \   000005BC   080200EF           SWI      +520
   \   000005C0   10002DE9           PUSH     {R4}
   \   000005C4   20002DE9           PUSH     {R5}
   \   000005C8   0010A0E3           MOV      R1,#+0
   \   000005CC   02002DE9           PUSH     {R1}
   \   000005D0   7630A0E3           MOV      R3,#+118
   \   000005D4   7C20A0E3           MOV      R2,#+124
   \   000005D8   0B10A0E3           MOV      R1,#+11
   \   000005DC   02002DE9           PUSH     {R1}
   \   000005E0   7D1086E2           ADD      R1,R6,#+125
   \   000005E4   02002DE9           PUSH     {R1}
   \   000005E8   731060E2           RSB      R1,R0,#+115
   \   000005EC   0700A0E1           MOV      R0,R7
   \   000005F0   4C0100EF           SWI      +332
   \   000005F4   2CD08DE2           ADD      SP,SP,#+44
    401          //      GBS_StartTimerProc(&start_tmr, 30, redrit); 
    402              }
    403            FreeWS(ws);
   \                     ??OnRedraw_25:
   \   000005F8   0700A0E1           MOV      R0,R7
   \   000005FC   150300EA           B        ??OnRedraw_26
    404            }
    405            else
    406              if(task_list==0)
   \                     ??OnRedraw_1:
   \   00000600   000050E3           CMP      R0,#+0
   \   00000604   6502001A           BNE      ??OnRedraw_27
    407            {//===============================do the links
    408              DrwImg3(&screen2, 0, 0, NULL, NULL);
   \   00000608   01002DE9           PUSH     {R0}
   \   0000060C   0030A0E3           MOV      R3,#+0
   \   00000610   0020A0E3           MOV      R2,#+0
   \   00000614   0210A0E1           MOV      R1,R2
   \   00000618   0B00A0E1           MOV      R0,R11
   \   0000061C   ........           BL       DrwImg3
    409              DrawImg(12, 26,(int)background_img);  //12,37
   \   00000620   0A20A0E1           MOV      R2,R10
   \   00000624   1A10A0E3           MOV      R1,#+26
   \   00000628   0C00A0E3           MOV      R0,#+12
   \   0000062C   230000EF           SWI      +35
    410              DrawImg(16,48+(pos*12),(int)cursor_img);
   \   00000630   94029FE5           LDR      R0,??OnRedraw_0+0x30  ;; pos
   \   00000634   0C10A0E3           MOV      R1,#+12
   \   00000638   000090E5           LDR      R0,[R0, #+0]
   \   0000063C   0720A0E1           MOV      R2,R7
    411              DrawImg(100,39,(int)selection_img);
    412              DrawImg(83,40,(int)tasks_img);
    413              DrawImg(101,40,(int)bookmarks_img);
    414              int show=0;
    415              int i=60;
    416              int len;
    417              int skip=move_skip;
    418              WSHDR *ws=AllocWS(32);
    419              if((!skip)&&(book_show>=1)&&(show<5))
   \   00000640   ........           LDR      R7,??DataTable29  ;; book_show
   \   00000644   910000E0           MUL      R0,R1,R0
   \   00000648   301080E2           ADD      R1,R0,#+48
   \   0000064C   1000A0E3           MOV      R0,#+16
   \   00000650   230000EF           SWI      +35
   \   00000654   0620A0E1           MOV      R2,R6
   \   00000658   2710A0E3           MOV      R1,#+39
   \   0000065C   6400A0E3           MOV      R0,#+100
   \   00000660   230000EF           SWI      +35
   \   00000664   0920A0E1           MOV      R2,R9
   \   00000668   2810A0E3           MOV      R1,#+40
   \   0000066C   5300A0E3           MOV      R0,#+83
   \   00000670   230000EF           SWI      +35
   \   00000674   0820A0E1           MOV      R2,R8
   \   00000678   2810A0E3           MOV      R1,#+40
   \   0000067C   6500A0E3           MOV      R0,#+101
   \   00000680   230000EF           SWI      +35
   \   00000684   48029FE5           LDR      R0,??OnRedraw_0+0x38  ;; move_skip
   \   00000688   0080A0E3           MOV      R8,#+0
   \   0000068C   00B090E5           LDR      R11,[R0, #+0]
   \   00000690   3C90A0E3           MOV      R9,#+60
   \   00000694   2000A0E3           MOV      R0,#+32
   \   00000698   250100EF           SWI      +293
   \   0000069C   0060A0E1           MOV      R6,R0
   \   000006A0   00005BE3           CMP      R11,#+0
   \   000006A4   04D08DE2           ADD      SP,SP,#+4
   \   000006A8   2500001A           BNE      ??OnRedraw_28
   \   000006AC   000097E5           LDR      R0,[R7, #+0]
   \   000006B0   010050E3           CMP      R0,#+1
   \   000006B4   220000BA           BLT      ??OnRedraw_28
    420              {
    421                  wsprintf(ws, BM1NAME);
   \   000006B8   ........           LDR      R1,??DataTable30  ;; BM1NAME
   \   000006BC   0600A0E1           MOV      R0,R6
   \   000006C0   240100EF           SWI      +292
    422                //  DrawString(ws,17,i+1,115,i+GetFontYSIZE(11)+2,11,0,ctasks,GetPaletteAdrByColorIndex(23));
    423                  len=Get_WS_width(ws,11)/2;
   \   000006C4   0B10A0E3           MOV      R1,#+11
   \   000006C8   0600A0E1           MOV      R0,R6
   \   000006CC   080200EF           SWI      +520
   \   000006D0   A00F80E0           ADD      R0,R0,R0, LSR #+31
   \   000006D4   C0A0A0E1           ASR      R10,R0,#+1
    424                  DrawString(ws,66-len,i+1,66+len,i+GetFontYSIZE(11)+2,11,0,ctasks,GetPaletteAdrByColorIndex(23));
   \   000006D8   1700A0E3           MOV      R0,#+23
   \   000006DC   2E0100EF           SWI      +302
   \   000006E0   0080A0E1           MOV      R8,R0
   \   000006E4   0B00A0E3           MOV      R0,#+11
   \   000006E8   C50100EF           SWI      +453
   \   000006EC   00012DE9           PUSH     {R8}
   \   000006F0   0410A0E1           MOV      R1,R4
   \   000006F4   02002DE9           PUSH     {R1}
   \   000006F8   3E0080E2           ADD      R0,R0,#+62
   \   000006FC   42308AE2           ADD      R3,R10,#+66
   \   00000700   3D20A0E3           MOV      R2,#+61
   \   00000704   0010A0E3           MOV      R1,#+0
   \   00000708   02002DE9           PUSH     {R1}
    425                  SearchIcon(ws, i, 1);
    426                  show++;
   \   0000070C   0180A0E3           MOV      R8,#+1
    427                  i=i+12;
   \   00000710   4890A0E3           MOV      R9,#+72
   \   00000714   0B10A0E3           MOV      R1,#+11
   \   00000718   02002DE9           PUSH     {R1}
   \   0000071C   01002DE9           PUSH     {R0}
   \   00000720   42106AE2           RSB      R1,R10,#+66
   \   00000724   0600A0E1           MOV      R0,R6
   \   00000728   4C0100EF           SWI      +332
   \   0000072C   0120A0E3           MOV      R2,#+1
   \   00000730   3C10A0E3           MOV      R1,#+60
   \   00000734   0600A0E1           MOV      R0,R6
   \   00000738   ........           BL       SearchIcon
   \   0000073C   14D08DE2           ADD      SP,SP,#+20
   \   00000740   010000EA           B        ??OnRedraw_29
    428              }
    429              else
    430                skip--;
   \                     ??OnRedraw_28:
   \   00000744   01B05BE2           SUBS     R11,R11,#+1
    431              if((!skip)&&(book_show>=2)&&(show<5))
   \   00000748   2700001A           BNE      ??OnRedraw_30
   \                     ??OnRedraw_29:
   \   0000074C   000097E5           LDR      R0,[R7, #+0]
   \   00000750   020050E3           CMP      R0,#+2
   \   00000754   240000BA           BLT      ??OnRedraw_30
    432              {
    433                  wsprintf(ws, BM2NAME);
   \   00000758   ........           LDR      R1,??DataTable31  ;; BM2NAME
   \   0000075C   0600A0E1           MOV      R0,R6
   \   00000760   240100EF           SWI      +292
    434                  len=Get_WS_width(ws,11)/2;
   \   00000764   0B10A0E3           MOV      R1,#+11
   \   00000768   0600A0E1           MOV      R0,R6
   \   0000076C   080200EF           SWI      +520
   \   00000770   A00F80E0           ADD      R0,R0,R0, LSR #+31
   \   00000774   C0A0A0E1           ASR      R10,R0,#+1
    435                  DrawString(ws,66-len,i+1,66+len,i+GetFontYSIZE(11)+2,11,0,ctasks,GetPaletteAdrByColorIndex(23));
   \   00000778   1700A0E3           MOV      R0,#+23
   \   0000077C   2E0100EF           SWI      +302
   \   00000780   00008DE5           STR      R0,[SP, #+0]
   \   00000784   0B00A0E3           MOV      R0,#+11
   \   00000788   C50100EF           SWI      +453
   \   0000078C   00109DE5           LDR      R1,[SP, #+0]
   \   00000790   090080E0           ADD      R0,R0,R9
   \   00000794   02002DE9           PUSH     {R1}
   \   00000798   020080E2           ADD      R0,R0,#+2
   \   0000079C   42308AE2           ADD      R3,R10,#+66
   \   000007A0   012089E2           ADD      R2,R9,#+1
   \   000007A4   0410A0E1           MOV      R1,R4
   \   000007A8   02002DE9           PUSH     {R1}
    436                  SearchIcon(ws, i, 1);
    437                  show++;
   \   000007AC   018088E2           ADD      R8,R8,#+1
   \   000007B0   0010A0E3           MOV      R1,#+0
   \   000007B4   02002DE9           PUSH     {R1}
   \   000007B8   0B10A0E3           MOV      R1,#+11
   \   000007BC   02002DE9           PUSH     {R1}
   \   000007C0   01002DE9           PUSH     {R0}
   \   000007C4   42106AE2           RSB      R1,R10,#+66
   \   000007C8   0600A0E1           MOV      R0,R6
   \   000007CC   4C0100EF           SWI      +332
   \   000007D0   0120A0E3           MOV      R2,#+1
   \   000007D4   0910A0E1           MOV      R1,R9
   \   000007D8   0600A0E1           MOV      R0,R6
   \   000007DC   ........           BL       SearchIcon
    438                  i=i+12;
   \   000007E0   0C9089E2           ADD      R9,R9,#+12
   \   000007E4   14D08DE2           ADD      SP,SP,#+20
   \   000007E8   010000EA           B        ??OnRedraw_31
    439              }
    440              else
    441                skip--;
   \                     ??OnRedraw_30:
   \   000007EC   01B05BE2           SUBS     R11,R11,#+1
    442              if((!skip)&&(book_show>=3)&&(show<5))
   \   000007F0   3A00001A           BNE      ??OnRedraw_32
   \                     ??OnRedraw_31:
   \   000007F4   000097E5           LDR      R0,[R7, #+0]
   \   000007F8   030050E3           CMP      R0,#+3
   \   000007FC   370000BA           BLT      ??OnRedraw_32
   \   00000800   050058E3           CMP      R8,#+5
   \   00000804   350000AA           BGE      ??OnRedraw_32
    443              {
    444                  wsprintf(ws, BM3NAME);
   \   00000808   ........           LDR      R1,??DataTable32  ;; BM3NAME
   \   0000080C   0600A0E1           MOV      R0,R6
   \   00000810   240100EF           SWI      +292
    445                  len=Get_WS_width(ws,11)/2;
   \   00000814   0B10A0E3           MOV      R1,#+11
   \   00000818   0600A0E1           MOV      R0,R6
   \   0000081C   080200EF           SWI      +520
   \   00000820   A00F80E0           ADD      R0,R0,R0, LSR #+31
   \   00000824   C0A0A0E1           ASR      R10,R0,#+1
    446                  DrawString(ws,66-len,i+1,66+len,i+GetFontYSIZE(11)+2,11,0,ctasks,GetPaletteAdrByColorIndex(23));
   \   00000828   1700A0E3           MOV      R0,#+23
   \   0000082C   2E0100EF           SWI      +302
   \   00000830   00008DE5           STR      R0,[SP, #+0]
   \   00000834   0B00A0E3           MOV      R0,#+11
   \   00000838   C50100EF           SWI      +453
   \   0000083C   00109DE5           LDR      R1,[SP, #+0]
   \   00000840   090080E0           ADD      R0,R0,R9
   \   00000844   02002DE9           PUSH     {R1}
   \   00000848   020080E2           ADD      R0,R0,#+2
   \   0000084C   42308AE2           ADD      R3,R10,#+66
   \   00000850   012089E2           ADD      R2,R9,#+1
   \   00000854   0410A0E1           MOV      R1,R4
   \   00000858   02002DE9           PUSH     {R1}
    447                  SearchIcon(ws, i, 1);
    448                  show++;
   \   0000085C   018088E2           ADD      R8,R8,#+1
   \   00000860   0010A0E3           MOV      R1,#+0
   \   00000864   02002DE9           PUSH     {R1}
   \   00000868   0B10A0E3           MOV      R1,#+11
   \   0000086C   02002DE9           PUSH     {R1}
   \   00000870   01002DE9           PUSH     {R0}
   \   00000874   42106AE2           RSB      R1,R10,#+66
   \   00000878   0600A0E1           MOV      R0,R6
   \   0000087C   4C0100EF           SWI      +332
   \   00000880   0120A0E3           MOV      R2,#+1
   \   00000884   0910A0E1           MOV      R1,R9
   \   00000888   0600A0E1           MOV      R0,R6
   \   0000088C   ........           BL       SearchIcon
    449                  i=i+12;
   \   00000890   0C9089E2           ADD      R9,R9,#+12
   \   00000894   14D08DE2           ADD      SP,SP,#+20
   \   00000898   120000EA           B        ??OnRedraw_33
   \                     ??OnRedraw_0:
   \   0000089C   25642500           DC8      "%d%"
   \   000008A0   ........           DC32     refresh
   \   000008A4   ........           DC32     selection_img
   \   000008A8   ........           DC32     cursor_img
   \   000008AC   ........           DC32     bookmarks_img
   \   000008B0   ........           DC32     tasks_img
   \   000008B4   ........           DC32     background_img
   \   000008B8   ........           DC32     ctasks
   \   000008BC   ........           DC32     cinfo
   \   000008C0   ........           DC32     screen2
   \   000008C4   ........           DC32     task_list
   \   000008C8   ........           DC32     total_d
   \   000008CC   ........           DC32     pos
   \   000008D0   ........           DC32     nltop
   \   000008D4   ........           DC32     move_skip
   \   000008D8   ........           DC32     cdaemons
   \   000008DC   ........           DC32     sm
    450              }
    451              else
    452                skip--;
   \                     ??OnRedraw_32:
   \   000008E0   01B05BE2           SUBS     R11,R11,#+1
    453              if((!skip)&&(book_show>=4)&&(show<5))
   \   000008E4   2900001A           BNE      ??OnRedraw_34
   \                     ??OnRedraw_33:
   \   000008E8   000097E5           LDR      R0,[R7, #+0]
   \   000008EC   040050E3           CMP      R0,#+4
   \   000008F0   260000BA           BLT      ??OnRedraw_34
   \   000008F4   050058E3           CMP      R8,#+5
   \   000008F8   240000AA           BGE      ??OnRedraw_34
    454              {
    455                  wsprintf(ws, BM4NAME);
   \   000008FC   ........           LDR      R1,??DataTable33  ;; BM4NAME
   \   00000900   0600A0E1           MOV      R0,R6
   \   00000904   240100EF           SWI      +292
    456                  len=Get_WS_width(ws,11)/2;
   \   00000908   0B10A0E3           MOV      R1,#+11
   \   0000090C   0600A0E1           MOV      R0,R6
   \   00000910   080200EF           SWI      +520
   \   00000914   A00F80E0           ADD      R0,R0,R0, LSR #+31
   \   00000918   C0A0A0E1           ASR      R10,R0,#+1
    457                  DrawString(ws,66-len,i+1,66+len,i+GetFontYSIZE(11)+2,11,0,ctasks,GetPaletteAdrByColorIndex(23));
   \   0000091C   1700A0E3           MOV      R0,#+23
   \   00000920   2E0100EF           SWI      +302
   \   00000924   00008DE5           STR      R0,[SP, #+0]
   \   00000928   0B00A0E3           MOV      R0,#+11
   \   0000092C   C50100EF           SWI      +453
   \   00000930   00109DE5           LDR      R1,[SP, #+0]
   \   00000934   090080E0           ADD      R0,R0,R9
   \   00000938   02002DE9           PUSH     {R1}
   \   0000093C   020080E2           ADD      R0,R0,#+2
   \   00000940   42308AE2           ADD      R3,R10,#+66
   \   00000944   012089E2           ADD      R2,R9,#+1
   \   00000948   0410A0E1           MOV      R1,R4
   \   0000094C   02002DE9           PUSH     {R1}
    458                  SearchIcon(ws, i ,1);
    459                  show++;
   \   00000950   018088E2           ADD      R8,R8,#+1
   \   00000954   0010A0E3           MOV      R1,#+0
   \   00000958   02002DE9           PUSH     {R1}
   \   0000095C   0B10A0E3           MOV      R1,#+11
   \   00000960   02002DE9           PUSH     {R1}
   \   00000964   01002DE9           PUSH     {R0}
   \   00000968   42106AE2           RSB      R1,R10,#+66
   \   0000096C   0600A0E1           MOV      R0,R6
   \   00000970   4C0100EF           SWI      +332
   \   00000974   0120A0E3           MOV      R2,#+1
   \   00000978   0910A0E1           MOV      R1,R9
   \   0000097C   0600A0E1           MOV      R0,R6
   \   00000980   ........           BL       SearchIcon
    460                  i=i+12;
   \   00000984   0C9089E2           ADD      R9,R9,#+12
   \   00000988   14D08DE2           ADD      SP,SP,#+20
   \   0000098C   010000EA           B        ??OnRedraw_35
    461              }
    462              else
    463                skip--;
   \                     ??OnRedraw_34:
   \   00000990   01B05BE2           SUBS     R11,R11,#+1
    464              if((!skip)&&(book_show>=5)&&(show<5))
   \   00000994   2900001A           BNE      ??OnRedraw_36
   \                     ??OnRedraw_35:
   \   00000998   000097E5           LDR      R0,[R7, #+0]
   \   0000099C   050050E3           CMP      R0,#+5
   \   000009A0   260000BA           BLT      ??OnRedraw_36
   \   000009A4   050058E3           CMP      R8,#+5
   \   000009A8   240000AA           BGE      ??OnRedraw_36
    465              {
    466                  wsprintf(ws, BM5NAME);
   \   000009AC   ........           LDR      R1,??DataTable34  ;; BM5NAME
   \   000009B0   0600A0E1           MOV      R0,R6
   \   000009B4   240100EF           SWI      +292
    467                  len=Get_WS_width(ws,11)/2;
   \   000009B8   0B10A0E3           MOV      R1,#+11
   \   000009BC   0600A0E1           MOV      R0,R6
   \   000009C0   080200EF           SWI      +520
   \   000009C4   A00F80E0           ADD      R0,R0,R0, LSR #+31
   \   000009C8   C0A0A0E1           ASR      R10,R0,#+1
    468                  DrawString(ws,66-len,i+1,66+len,i+GetFontYSIZE(11)+2,11,0,ctasks,GetPaletteAdrByColorIndex(23));
   \   000009CC   1700A0E3           MOV      R0,#+23
   \   000009D0   2E0100EF           SWI      +302
   \   000009D4   00008DE5           STR      R0,[SP, #+0]
   \   000009D8   0B00A0E3           MOV      R0,#+11
   \   000009DC   C50100EF           SWI      +453
   \   000009E0   00109DE5           LDR      R1,[SP, #+0]
   \   000009E4   090080E0           ADD      R0,R0,R9
   \   000009E8   02002DE9           PUSH     {R1}
   \   000009EC   020080E2           ADD      R0,R0,#+2
   \   000009F0   42308AE2           ADD      R3,R10,#+66
   \   000009F4   012089E2           ADD      R2,R9,#+1
   \   000009F8   0410A0E1           MOV      R1,R4
   \   000009FC   02002DE9           PUSH     {R1}
    469                  SearchIcon(ws, i, 1);
    470                  show++;
   \   00000A00   018088E2           ADD      R8,R8,#+1
   \   00000A04   0010A0E3           MOV      R1,#+0
   \   00000A08   02002DE9           PUSH     {R1}
   \   00000A0C   0B10A0E3           MOV      R1,#+11
   \   00000A10   02002DE9           PUSH     {R1}
   \   00000A14   01002DE9           PUSH     {R0}
   \   00000A18   42106AE2           RSB      R1,R10,#+66
   \   00000A1C   0600A0E1           MOV      R0,R6
   \   00000A20   4C0100EF           SWI      +332
   \   00000A24   0120A0E3           MOV      R2,#+1
   \   00000A28   0910A0E1           MOV      R1,R9
   \   00000A2C   0600A0E1           MOV      R0,R6
   \   00000A30   ........           BL       SearchIcon
    471                  i=i+12;
   \   00000A34   0C9089E2           ADD      R9,R9,#+12
   \   00000A38   14D08DE2           ADD      SP,SP,#+20
   \   00000A3C   010000EA           B        ??OnRedraw_37
    472              }
    473              else
    474                skip--;
   \                     ??OnRedraw_36:
   \   00000A40   01B05BE2           SUBS     R11,R11,#+1
    475              if((!skip)&&(book_show>=6)&&(show<5))
   \   00000A44   2900001A           BNE      ??OnRedraw_38
   \                     ??OnRedraw_37:
   \   00000A48   000097E5           LDR      R0,[R7, #+0]
   \   00000A4C   060050E3           CMP      R0,#+6
   \   00000A50   260000BA           BLT      ??OnRedraw_38
   \   00000A54   050058E3           CMP      R8,#+5
   \   00000A58   240000AA           BGE      ??OnRedraw_38
    476              {
    477                  wsprintf(ws, BM6NAME);
   \   00000A5C   ........           LDR      R1,??DataTable35  ;; BM6NAME
   \   00000A60   0600A0E1           MOV      R0,R6
   \   00000A64   240100EF           SWI      +292
    478                  len=Get_WS_width(ws,11)/2;
   \   00000A68   0B10A0E3           MOV      R1,#+11
   \   00000A6C   0600A0E1           MOV      R0,R6
   \   00000A70   080200EF           SWI      +520
   \   00000A74   A00F80E0           ADD      R0,R0,R0, LSR #+31
   \   00000A78   C0A0A0E1           ASR      R10,R0,#+1
    479                  DrawString(ws,66-len,i+1,66+len,i+GetFontYSIZE(11)+2,11,0,ctasks,GetPaletteAdrByColorIndex(23));
   \   00000A7C   1700A0E3           MOV      R0,#+23
   \   00000A80   2E0100EF           SWI      +302
   \   00000A84   00008DE5           STR      R0,[SP, #+0]
   \   00000A88   0B00A0E3           MOV      R0,#+11
   \   00000A8C   C50100EF           SWI      +453
   \   00000A90   00109DE5           LDR      R1,[SP, #+0]
   \   00000A94   090080E0           ADD      R0,R0,R9
   \   00000A98   02002DE9           PUSH     {R1}
   \   00000A9C   020080E2           ADD      R0,R0,#+2
   \   00000AA0   42308AE2           ADD      R3,R10,#+66
   \   00000AA4   012089E2           ADD      R2,R9,#+1
   \   00000AA8   0410A0E1           MOV      R1,R4
   \   00000AAC   02002DE9           PUSH     {R1}
    480                  SearchIcon(ws, i, 1);
    481                  show++;
   \   00000AB0   018088E2           ADD      R8,R8,#+1
   \   00000AB4   0010A0E3           MOV      R1,#+0
   \   00000AB8   02002DE9           PUSH     {R1}
   \   00000ABC   0B10A0E3           MOV      R1,#+11
   \   00000AC0   02002DE9           PUSH     {R1}
   \   00000AC4   01002DE9           PUSH     {R0}
   \   00000AC8   42106AE2           RSB      R1,R10,#+66
   \   00000ACC   0600A0E1           MOV      R0,R6
   \   00000AD0   4C0100EF           SWI      +332
   \   00000AD4   0120A0E3           MOV      R2,#+1
   \   00000AD8   0910A0E1           MOV      R1,R9
   \   00000ADC   0600A0E1           MOV      R0,R6
   \   00000AE0   ........           BL       SearchIcon
    482                  i=i+12;
   \   00000AE4   0C9089E2           ADD      R9,R9,#+12
   \   00000AE8   14D08DE2           ADD      SP,SP,#+20
   \   00000AEC   010000EA           B        ??OnRedraw_39
    483              }
    484              else
    485                skip--;
   \                     ??OnRedraw_38:
   \   00000AF0   01B05BE2           SUBS     R11,R11,#+1
    486              if((!skip)&&(book_show>=7)&&(show<5))
   \   00000AF4   2900001A           BNE      ??OnRedraw_40
   \                     ??OnRedraw_39:
   \   00000AF8   000097E5           LDR      R0,[R7, #+0]
   \   00000AFC   070050E3           CMP      R0,#+7
   \   00000B00   260000BA           BLT      ??OnRedraw_40
   \   00000B04   050058E3           CMP      R8,#+5
   \   00000B08   240000AA           BGE      ??OnRedraw_40
    487              {
    488                  wsprintf(ws, BM7NAME);
   \   00000B0C   ........           LDR      R1,??DataTable36  ;; BM7NAME
   \   00000B10   0600A0E1           MOV      R0,R6
   \   00000B14   240100EF           SWI      +292
    489                  len=Get_WS_width(ws,11)/2;
   \   00000B18   0B10A0E3           MOV      R1,#+11
   \   00000B1C   0600A0E1           MOV      R0,R6
   \   00000B20   080200EF           SWI      +520
   \   00000B24   A00F80E0           ADD      R0,R0,R0, LSR #+31
   \   00000B28   C0A0A0E1           ASR      R10,R0,#+1
    490                  DrawString(ws,66-len,i+1,66+len,i+GetFontYSIZE(11)+2,11,0,ctasks,GetPaletteAdrByColorIndex(23));
   \   00000B2C   1700A0E3           MOV      R0,#+23
   \   00000B30   2E0100EF           SWI      +302
   \   00000B34   00008DE5           STR      R0,[SP, #+0]
   \   00000B38   0B00A0E3           MOV      R0,#+11
   \   00000B3C   C50100EF           SWI      +453
   \   00000B40   00109DE5           LDR      R1,[SP, #+0]
   \   00000B44   090080E0           ADD      R0,R0,R9
   \   00000B48   02002DE9           PUSH     {R1}
   \   00000B4C   020080E2           ADD      R0,R0,#+2
   \   00000B50   42308AE2           ADD      R3,R10,#+66
   \   00000B54   012089E2           ADD      R2,R9,#+1
   \   00000B58   0410A0E1           MOV      R1,R4
   \   00000B5C   02002DE9           PUSH     {R1}
    491                  SearchIcon(ws, i, 1);
    492                  show++;
   \   00000B60   018088E2           ADD      R8,R8,#+1
   \   00000B64   0010A0E3           MOV      R1,#+0
   \   00000B68   02002DE9           PUSH     {R1}
   \   00000B6C   0B10A0E3           MOV      R1,#+11
   \   00000B70   02002DE9           PUSH     {R1}
   \   00000B74   01002DE9           PUSH     {R0}
   \   00000B78   42106AE2           RSB      R1,R10,#+66
   \   00000B7C   0600A0E1           MOV      R0,R6
   \   00000B80   4C0100EF           SWI      +332
   \   00000B84   0120A0E3           MOV      R2,#+1
   \   00000B88   0910A0E1           MOV      R1,R9
   \   00000B8C   0600A0E1           MOV      R0,R6
   \   00000B90   ........           BL       SearchIcon
    493                  i=i+12;
   \   00000B94   0C9089E2           ADD      R9,R9,#+12
   \   00000B98   14D08DE2           ADD      SP,SP,#+20
   \   00000B9C   010000EA           B        ??OnRedraw_41
    494              }
    495              else
    496                skip--;
   \                     ??OnRedraw_40:
   \   00000BA0   01B05BE2           SUBS     R11,R11,#+1
    497              if((!skip)&&(book_show>=8)&&(show<5))
   \   00000BA4   2900001A           BNE      ??OnRedraw_42
   \                     ??OnRedraw_41:
   \   00000BA8   000097E5           LDR      R0,[R7, #+0]
   \   00000BAC   080050E3           CMP      R0,#+8
   \   00000BB0   260000BA           BLT      ??OnRedraw_42
   \   00000BB4   050058E3           CMP      R8,#+5
   \   00000BB8   240000AA           BGE      ??OnRedraw_42
    498              {
    499                  wsprintf(ws, BM8NAME);
   \   00000BBC   ........           LDR      R1,??DataTable37  ;; BM8NAME
   \   00000BC0   0600A0E1           MOV      R0,R6
   \   00000BC4   240100EF           SWI      +292
    500                  len=Get_WS_width(ws,11)/2;
   \   00000BC8   0B10A0E3           MOV      R1,#+11
   \   00000BCC   0600A0E1           MOV      R0,R6
   \   00000BD0   080200EF           SWI      +520
   \   00000BD4   A00F80E0           ADD      R0,R0,R0, LSR #+31
   \   00000BD8   C0A0A0E1           ASR      R10,R0,#+1
    501                  DrawString(ws,66-len,i+1,66+len,i+GetFontYSIZE(11)+2,11,0,ctasks,GetPaletteAdrByColorIndex(23));
   \   00000BDC   1700A0E3           MOV      R0,#+23
   \   00000BE0   2E0100EF           SWI      +302
   \   00000BE4   00008DE5           STR      R0,[SP, #+0]
   \   00000BE8   0B00A0E3           MOV      R0,#+11
   \   00000BEC   C50100EF           SWI      +453
   \   00000BF0   00109DE5           LDR      R1,[SP, #+0]
   \   00000BF4   090080E0           ADD      R0,R0,R9
   \   00000BF8   02002DE9           PUSH     {R1}
   \   00000BFC   020080E2           ADD      R0,R0,#+2
   \   00000C00   42308AE2           ADD      R3,R10,#+66
   \   00000C04   012089E2           ADD      R2,R9,#+1
   \   00000C08   0410A0E1           MOV      R1,R4
   \   00000C0C   02002DE9           PUSH     {R1}
    502                  SearchIcon(ws, i, 1);
    503                  show++;
   \   00000C10   018088E2           ADD      R8,R8,#+1
   \   00000C14   0010A0E3           MOV      R1,#+0
   \   00000C18   02002DE9           PUSH     {R1}
   \   00000C1C   0B10A0E3           MOV      R1,#+11
   \   00000C20   02002DE9           PUSH     {R1}
   \   00000C24   01002DE9           PUSH     {R0}
   \   00000C28   42106AE2           RSB      R1,R10,#+66
   \   00000C2C   0600A0E1           MOV      R0,R6
   \   00000C30   4C0100EF           SWI      +332
   \   00000C34   0120A0E3           MOV      R2,#+1
   \   00000C38   0910A0E1           MOV      R1,R9
   \   00000C3C   0600A0E1           MOV      R0,R6
   \   00000C40   ........           BL       SearchIcon
    504                  i=i+12;
   \   00000C44   0C9089E2           ADD      R9,R9,#+12
   \   00000C48   14D08DE2           ADD      SP,SP,#+20
   \   00000C4C   010000EA           B        ??OnRedraw_43
    505              }
    506              else
    507                skip--;
   \                     ??OnRedraw_42:
   \   00000C50   01B05BE2           SUBS     R11,R11,#+1
    508              if((!skip)&&(book_show>=9)&&(show<5))
   \   00000C54   2800001A           BNE      ??OnRedraw_44
   \                     ??OnRedraw_43:
   \   00000C58   000097E5           LDR      R0,[R7, #+0]
   \   00000C5C   090050E3           CMP      R0,#+9
   \   00000C60   250000BA           BLT      ??OnRedraw_44
   \   00000C64   050058E3           CMP      R8,#+5
   \   00000C68   230000AA           BGE      ??OnRedraw_44
    509              {
    510                  wsprintf(ws, BM9NAME);
   \   00000C6C   ........           LDR      R1,??DataTable38  ;; BM9NAME
   \   00000C70   0600A0E1           MOV      R0,R6
   \   00000C74   240100EF           SWI      +292
    511                  len=Get_WS_width(ws,11)/2;
   \   00000C78   0B10A0E3           MOV      R1,#+11
   \   00000C7C   0600A0E1           MOV      R0,R6
   \   00000C80   080200EF           SWI      +520
   \   00000C84   A00F80E0           ADD      R0,R0,R0, LSR #+31
   \   00000C88   C0A0A0E1           ASR      R10,R0,#+1
    512                  DrawString(ws,66-len,i+1,66+len,i+GetFontYSIZE(11)+2,11,0,ctasks,GetPaletteAdrByColorIndex(23));
   \   00000C8C   1700A0E3           MOV      R0,#+23
   \   00000C90   2E0100EF           SWI      +302
   \   00000C94   00B0A0E1           MOV      R11,R0
   \   00000C98   0B00A0E3           MOV      R0,#+11
   \   00000C9C   C50100EF           SWI      +453
   \   00000CA0   00082DE9           PUSH     {R11}
   \   00000CA4   0410A0E1           MOV      R1,R4
   \   00000CA8   02002DE9           PUSH     {R1}
   \   00000CAC   090080E0           ADD      R0,R0,R9
   \   00000CB0   020080E2           ADD      R0,R0,#+2
   \   00000CB4   42308AE2           ADD      R3,R10,#+66
   \   00000CB8   0010A0E3           MOV      R1,#+0
   \   00000CBC   02002DE9           PUSH     {R1}
   \   00000CC0   012089E2           ADD      R2,R9,#+1
    513                  SearchIcon(ws, i, 1);
    514                  show++;
   \   00000CC4   018088E2           ADD      R8,R8,#+1
   \   00000CC8   0B10A0E3           MOV      R1,#+11
   \   00000CCC   02002DE9           PUSH     {R1}
   \   00000CD0   01002DE9           PUSH     {R0}
   \   00000CD4   42106AE2           RSB      R1,R10,#+66
   \   00000CD8   0600A0E1           MOV      R0,R6
   \   00000CDC   4C0100EF           SWI      +332
   \   00000CE0   0120A0E3           MOV      R2,#+1
   \   00000CE4   0910A0E1           MOV      R1,R9
   \   00000CE8   0600A0E1           MOV      R0,R6
   \   00000CEC   ........           BL       SearchIcon
    515                  i=i+12;
   \   00000CF0   0C9089E2           ADD      R9,R9,#+12
   \   00000CF4   14D08DE2           ADD      SP,SP,#+20
   \   00000CF8   010000EA           B        ??OnRedraw_45
    516              }
    517              else
    518                skip--;
    519              if((!skip)&&(book_show>=10)&&(show<5))
   \                     ??OnRedraw_44:
   \   00000CFC   01005BE2           SUBS     R0,R11,#+1
   \   00000D00   2400001A           BNE      ??OnRedraw_46
   \                     ??OnRedraw_45:
   \   00000D04   000097E5           LDR      R0,[R7, #+0]
   \   00000D08   0A0050E3           CMP      R0,#+10
   \   00000D0C   210000BA           BLT      ??OnRedraw_46
   \   00000D10   050058E3           CMP      R8,#+5
   \   00000D14   1F0000AA           BGE      ??OnRedraw_46
    520              {
    521                  wsprintf(ws, BM0NAME);
   \   00000D18   ........           LDR      R1,??DataTable39  ;; BM0NAME
   \   00000D1C   0600A0E1           MOV      R0,R6
   \   00000D20   240100EF           SWI      +292
    522                  len=Get_WS_width(ws,11)/2;
   \   00000D24   0B10A0E3           MOV      R1,#+11
   \   00000D28   0600A0E1           MOV      R0,R6
   \   00000D2C   080200EF           SWI      +520
   \   00000D30   A00F80E0           ADD      R0,R0,R0, LSR #+31
   \   00000D34   C0A0A0E1           ASR      R10,R0,#+1
    523                  DrawString(ws,66-len,i+1,66+len,i+GetFontYSIZE(11)+2,11,0,ctasks,GetPaletteAdrByColorIndex(23));
   \   00000D38   1700A0E3           MOV      R0,#+23
   \   00000D3C   2E0100EF           SWI      +302
   \   00000D40   0070A0E1           MOV      R7,R0
   \   00000D44   0B00A0E3           MOV      R0,#+11
   \   00000D48   C50100EF           SWI      +453
   \   00000D4C   80002DE9           PUSH     {R7}
   \   00000D50   10002DE9           PUSH     {R4}
   \   00000D54   0010A0E3           MOV      R1,#+0
   \   00000D58   02002DE9           PUSH     {R1}
   \   00000D5C   090080E0           ADD      R0,R0,R9
   \   00000D60   020080E2           ADD      R0,R0,#+2
   \   00000D64   42308AE2           ADD      R3,R10,#+66
   \   00000D68   0B10A0E3           MOV      R1,#+11
   \   00000D6C   02002DE9           PUSH     {R1}
   \   00000D70   01002DE9           PUSH     {R0}
   \   00000D74   012089E2           ADD      R2,R9,#+1
   \   00000D78   42106AE2           RSB      R1,R10,#+66
   \   00000D7C   0600A0E1           MOV      R0,R6
   \   00000D80   4C0100EF           SWI      +332
    524                  SearchIcon(ws, i, 1);
   \   00000D84   0120A0E3           MOV      R2,#+1
   \   00000D88   0910A0E1           MOV      R1,R9
   \   00000D8C   0600A0E1           MOV      R0,R6
   \   00000D90   ........           BL       SearchIcon
    525                  show++;
    526                  i=i+12;
   \   00000D94   14D08DE2           ADD      SP,SP,#+20
    527              }
    528              else
    529                skip--;
    530              if(time_not)
   \                     ??OnRedraw_46:
   \   00000D98   EC049FE5           LDR      R0,??OnRedraw_17+0x4  ;; time_not
   \   00000D9C   000090E5           LDR      R0,[R0, #+0]
   \   00000DA0   000050E3           CMP      R0,#+0
   \   00000DA4   3E00000A           BEQ      ??OnRedraw_47
    531              {
    532                if(!style) wsprintf(ws, "Tasks:%d", tasks);
   \   00000DA8   E0049FE5           LDR      R0,??OnRedraw_17+0x8  ;; tasks
   \   00000DAC   002090E5           LDR      R2,[R0, #+0]
   \   00000DB0   DC049FE5           LDR      R0,??OnRedraw_17+0xC  ;; style
   \   00000DB4   000090E5           LDR      R0,[R0, #+0]
   \   00000DB8   000050E3           CMP      R0,#+0
   \   00000DBC   D4149F05           LDREQ    R1,??OnRedraw_17+0x10  ;; `?<Constant "Tasks:%d">`
    533                else wsprintf(ws, "T:%d", tasks);
   \   00000DC0   0600A0E1           MOV      R0,R6
   \   00000DC4   D0149F15           LDRNE    R1,??OnRedraw_17+0x14  ;; `?<Constant "T:%d">`
   \   00000DC8   240100EF           SWI      +292
    534                DrawString(ws,16,124,16+Get_WS_width(ws,11)+3,124+GetFontYSIZE(11)+1,11,0,cinfo,GetPaletteAdrByColorIndex(23));
   \   00000DCC   1700A0E3           MOV      R0,#+23
   \   00000DD0   2E0100EF           SWI      +302
   \   00000DD4   0040A0E1           MOV      R4,R0
   \   00000DD8   0B00A0E3           MOV      R0,#+11
   \   00000DDC   C50100EF           SWI      +453
   \   00000DE0   0070A0E1           MOV      R7,R0
   \   00000DE4   0B10A0E3           MOV      R1,#+11
   \   00000DE8   0600A0E1           MOV      R0,R6
   \   00000DEC   080200EF           SWI      +520
   \   00000DF0   10002DE9           PUSH     {R4}
   \   00000DF4   0510A0E1           MOV      R1,R5
   \   00000DF8   02002DE9           PUSH     {R1}
   \   00000DFC   133080E2           ADD      R3,R0,#+19
   \   00000E00   7C20A0E3           MOV      R2,#+124
   \   00000E04   0600A0E1           MOV      R0,R6
   \   00000E08   0010A0E3           MOV      R1,#+0
   \   00000E0C   02002DE9           PUSH     {R1}
   \   00000E10   0B10A0E3           MOV      R1,#+11
   \   00000E14   02002DE9           PUSH     {R1}
   \   00000E18   7D1087E2           ADD      R1,R7,#+125
   \   00000E1C   02002DE9           PUSH     {R1}
   \   00000E20   1010A0E3           MOV      R1,#+16
   \   00000E24   4C0100EF           SWI      +332
    535                int ram = GetFreeRamAvail();
   \   00000E28   5F0000EF           SWI      +95
    536                ram=ram/1024;
    537                wsprintf(ws,"Ram:%dKb", ram);
   \   00000E2C   C014A0E1           ASR      R1,R0,#+9
   \   00000E30   210B80E0           ADD      R0,R0,R1, LSR #+22
   \   00000E34   64149FE5           LDR      R1,??OnRedraw_17+0x18  ;; `?<Constant "Ram:%dKb">`
   \   00000E38   4025A0E1           ASR      R2,R0,#+10
   \   00000E3C   0600A0E1           MOV      R0,R6
   \   00000E40   240100EF           SWI      +292
    538                 DrawString(ws,115-Get_WS_width(ws,11),124,115+3,124+GetFontYSIZE(11)+1,11,0,cinfo,GetPaletteAdrByColorIndex(23));
   \   00000E44   1700A0E3           MOV      R0,#+23
   \   00000E48   2E0100EF           SWI      +302
   \   00000E4C   0040A0E1           MOV      R4,R0
   \   00000E50   0B00A0E3           MOV      R0,#+11
   \   00000E54   C50100EF           SWI      +453
   \   00000E58   0070A0E1           MOV      R7,R0
   \   00000E5C   0B10A0E3           MOV      R1,#+11
   \   00000E60   0600A0E1           MOV      R0,R6
   \   00000E64   080200EF           SWI      +520
   \   00000E68   10002DE9           PUSH     {R4}
   \   00000E6C   20002DE9           PUSH     {R5}
   \   00000E70   0010A0E3           MOV      R1,#+0
   \   00000E74   02002DE9           PUSH     {R1}
   \   00000E78   7630A0E3           MOV      R3,#+118
   \   00000E7C   7C20A0E3           MOV      R2,#+124
   \   00000E80   0B10A0E3           MOV      R1,#+11
   \   00000E84   02002DE9           PUSH     {R1}
   \   00000E88   7D1087E2           ADD      R1,R7,#+125
   \   00000E8C   02002DE9           PUSH     {R1}
   \   00000E90   731060E2           RSB      R1,R0,#+115
   \   00000E94   0600A0E1           MOV      R0,R6
   \   00000E98   4C0100EF           SWI      +332
   \   00000E9C   28D08DE2           ADD      SP,SP,#+40
   \   00000EA0   3C0000EA           B        ??OnRedraw_48
    539              }
    540              else
    541              {
    542                int battery = *RamCap();
   \                     ??OnRedraw_47:
   \   00000EA4   C88000EF           SWI      +32968
   \   00000EA8   B020D0E1           LDRH     R2,[R0, #+0]
    543                wsprintf(ws,"%d%", battery);
   \   00000EAC   A91F8FE2           ADR      R1,??OnRedraw_15  ;; "%d%"
   \   00000EB0   0600A0E1           MOV      R0,R6
   \   00000EB4   240100EF           SWI      +292
    544                DrawString(ws,16,124,16+Get_WS_width(ws,11)+3,124+GetFontYSIZE(11)+1,11,0,cinfo,GetPaletteAdrByColorIndex(23));
   \   00000EB8   1700A0E3           MOV      R0,#+23
   \   00000EBC   2E0100EF           SWI      +302
   \   00000EC0   0040A0E1           MOV      R4,R0
   \   00000EC4   0B00A0E3           MOV      R0,#+11
   \   00000EC8   C50100EF           SWI      +453
   \   00000ECC   0070A0E1           MOV      R7,R0
   \   00000ED0   0B10A0E3           MOV      R1,#+11
   \   00000ED4   0600A0E1           MOV      R0,R6
   \   00000ED8   080200EF           SWI      +520
   \   00000EDC   10002DE9           PUSH     {R4}
   \   00000EE0   0510A0E1           MOV      R1,R5
   \   00000EE4   02002DE9           PUSH     {R1}
   \   00000EE8   133080E2           ADD      R3,R0,#+19
   \   00000EEC   7C20A0E3           MOV      R2,#+124
   \   00000EF0   0600A0E1           MOV      R0,R6
   \   00000EF4   0010A0E3           MOV      R1,#+0
   \   00000EF8   02002DE9           PUSH     {R1}
   \   00000EFC   0B10A0E3           MOV      R1,#+11
   \   00000F00   02002DE9           PUSH     {R1}
   \   00000F04   7D1087E2           ADD      R1,R7,#+125
   \   00000F08   02002DE9           PUSH     {R1}
   \   00000F0C   1010A0E3           MOV      R1,#+16
   \   00000F10   4C0100EF           SWI      +332
    545                TTime time;
    546                TDate date;
    547                GetDateTime(&date, &time);
   \   00000F14   18108DE2           ADD      R1,SP,#+24
   \   00000F18   24008DE2           ADD      R0,SP,#+36
   \   00000F1C   B40000EF           SWI      +180
    548                wsprintf(ws, "%02d:%02d:%02d", time.hour, time.min, time.sec);
   \   00000F20   1A00DDE5           LDRB     R0,[SP, #+26]
   \   00000F24   7C139FE5           LDR      R1,??OnRedraw_17+0x20  ;; `?<Constant "%02d:%02d:%02d">`
   \   00000F28   01002DE9           PUSH     {R0}
   \   00000F2C   1D30DDE5           LDRB     R3,[SP, #+29]
   \   00000F30   1C20DDE5           LDRB     R2,[SP, #+28]
   \   00000F34   0600A0E1           MOV      R0,R6
   \   00000F38   240100EF           SWI      +292
    549                DrawString(ws,115-Get_WS_width(ws,11),124,115+3,124+GetFontYSIZE(11)+1,11,0,cinfo,GetPaletteAdrByColorIndex(23));
   \   00000F3C   1700A0E3           MOV      R0,#+23
   \   00000F40   2E0100EF           SWI      +302
   \   00000F44   0040A0E1           MOV      R4,R0
   \   00000F48   0B00A0E3           MOV      R0,#+11
   \   00000F4C   C50100EF           SWI      +453
   \   00000F50   0070A0E1           MOV      R7,R0
   \   00000F54   0B10A0E3           MOV      R1,#+11
   \   00000F58   0600A0E1           MOV      R0,R6
   \   00000F5C   080200EF           SWI      +520
   \   00000F60   10002DE9           PUSH     {R4}
   \   00000F64   20002DE9           PUSH     {R5}
   \   00000F68   0010A0E3           MOV      R1,#+0
   \   00000F6C   02002DE9           PUSH     {R1}
   \   00000F70   7630A0E3           MOV      R3,#+118
   \   00000F74   7C20A0E3           MOV      R2,#+124
   \   00000F78   0B10A0E3           MOV      R1,#+11
   \   00000F7C   02002DE9           PUSH     {R1}
   \   00000F80   7D1087E2           ADD      R1,R7,#+125
   \   00000F84   02002DE9           PUSH     {R1}
   \   00000F88   731060E2           RSB      R1,R0,#+115
   \   00000F8C   0600A0E1           MOV      R0,R6
   \   00000F90   4C0100EF           SWI      +332
   \   00000F94   2CD08DE2           ADD      SP,SP,#+44
    550                
    551              }
    552            FreeWS(ws);
   \                     ??OnRedraw_48:
   \   00000F98   0600A0E1           MOV      R0,R6
   \   00000F9C   AD0000EA           B        ??OnRedraw_26
    553            }//===============================end do links
    554            else
    555              if(task_list==2)
   \                     ??OnRedraw_27:
   \   00000FA0   020050E3           CMP      R0,#+2
   \   00000FA4   AC00001A           BNE      ??OnRedraw_49
    556              {
    557                DrwImg3(&screen2, 0, 0, NULL, NULL);
   \   00000FA8   0000A0E3           MOV      R0,#+0
   \   00000FAC   01002DE9           PUSH     {R0}
   \   00000FB0   0030A0E3           MOV      R3,#+0
   \   00000FB4   0020A0E1           MOV      R2,R0
   \   00000FB8   0010A0E1           MOV      R1,R0
   \   00000FBC   0B00A0E1           MOV      R0,R11
   \   00000FC0   ........           BL       DrwImg3
    558                DrawImg(12, 26,(int)background_img);  //12,37
   \   00000FC4   0A20A0E1           MOV      R2,R10
   \   00000FC8   1A10A0E3           MOV      R1,#+26
   \   00000FCC   0C00A0E3           MOV      R0,#+12
   \   00000FD0   230000EF           SWI      +35
    559          //      DrawImg(16,48+(pos*12),(int)cursor_img);
    560          //      DrawImg(100,39,(int)selection_img);
    561                DrawImg(83,40,(int)tasks_img);
   \   00000FD4   0920A0E1           MOV      R2,R9
   \   00000FD8   2810A0E3           MOV      R1,#+40
   \   00000FDC   5300A0E3           MOV      R0,#+83
   \   00000FE0   230000EF           SWI      +35
    562                DrawImg(101,40,(int)bookmarks_img);
   \   00000FE4   0820A0E1           MOV      R2,R8
   \   00000FE8   2810A0E3           MOV      R1,#+40
   \   00000FEC   6500A0E3           MOV      R0,#+101
   \   00000FF0   230000EF           SWI      +35
    563                if(shutd) {DrawImg(16,60,(int)shutdown1); DrawImg(16,91,(int)reboot2);}
   \   00000FF4   ........           LDR      R0,??DataTable71  ;; shutd
   \   00000FF8   000090E5           LDR      R0,[R0, #+0]
   \   00000FFC   04D08DE2           ADD      SP,SP,#+4
   \   00001000   000050E3           CMP      R0,#+0
   \   00001004   0500000A           BEQ      ??OnRedraw_50
   \   00001008   ........           LDR      R2,??DataTable41  ;; shutdown1
   \   0000100C   3C10A0E3           MOV      R1,#+60
   \   00001010   1000A0E3           MOV      R0,#+16
   \   00001014   230000EF           SWI      +35
   \   00001018   ........           LDR      R2,??DataTable42  ;; reboot2
   \   0000101C   040000EA           B        ??OnRedraw_51
    564                else
    565                {DrawImg(16,60,(int)shutdown2); DrawImg(16,91,(int)reboot1);}
   \                     ??OnRedraw_50:
   \   00001020   ........           LDR      R2,??DataTable43  ;; shutdown2
   \   00001024   3C10A0E3           MOV      R1,#+60
   \   00001028   1000A0E3           MOV      R0,#+16
   \   0000102C   230000EF           SWI      +35
   \   00001030   ........           LDR      R2,??DataTable44  ;; reboot1
   \                     ??OnRedraw_51:
   \   00001034   5B10A0E3           MOV      R1,#+91
   \   00001038   1000A0E3           MOV      R0,#+16
   \   0000103C   230000EF           SWI      +35
    566                WSHDR *ws=AllocWS(32);
   \   00001040   2000A0E3           MOV      R0,#+32
   \   00001044   250100EF           SWI      +293
   \   00001048   0040A0E1           MOV      R4,R0
    567                if(time_not)
   \   0000104C   38029FE5           LDR      R0,??OnRedraw_17+0x4  ;; time_not
   \   00001050   000090E5           LDR      R0,[R0, #+0]
   \   00001054   000050E3           CMP      R0,#+0
   \   00001058   4000000A           BEQ      ??OnRedraw_52
    568                {
    569                if(!style) wsprintf(ws, "Tasks:%d", tasks);
   \   0000105C   2C029FE5           LDR      R0,??OnRedraw_17+0x8  ;; tasks
   \   00001060   002090E5           LDR      R2,[R0, #+0]
   \   00001064   28029FE5           LDR      R0,??OnRedraw_17+0xC  ;; style
   \   00001068   000090E5           LDR      R0,[R0, #+0]
   \   0000106C   000050E3           CMP      R0,#+0
   \   00001070   20129F05           LDREQ    R1,??OnRedraw_17+0x10  ;; `?<Constant "Tasks:%d">`
    570                else wsprintf(ws, "T:%d", tasks);
   \   00001074   0400A0E1           MOV      R0,R4
   \   00001078   1C129F15           LDRNE    R1,??OnRedraw_17+0x14  ;; `?<Constant "T:%d">`
   \   0000107C   240100EF           SWI      +292
    571                DrawString(ws,16,124,16+Get_WS_width(ws,11)+3,124+GetFontYSIZE(11)+1,11,0,cinfo,GetPaletteAdrByColorIndex(23));
   \   00001080   1700A0E3           MOV      R0,#+23
   \   00001084   2E0100EF           SWI      +302
   \   00001088   0060A0E1           MOV      R6,R0
   \   0000108C   0B00A0E3           MOV      R0,#+11
   \   00001090   C50100EF           SWI      +453
   \   00001094   0070A0E1           MOV      R7,R0
   \   00001098   0B10A0E3           MOV      R1,#+11
   \   0000109C   0400A0E1           MOV      R0,R4
   \   000010A0   080200EF           SWI      +520
   \   000010A4   40002DE9           PUSH     {R6}
   \   000010A8   0510A0E1           MOV      R1,R5
   \   000010AC   02002DE9           PUSH     {R1}
   \   000010B0   133080E2           ADD      R3,R0,#+19
   \   000010B4   7C20A0E3           MOV      R2,#+124
   \   000010B8   0400A0E1           MOV      R0,R4
   \   000010BC   0010A0E3           MOV      R1,#+0
   \   000010C0   02002DE9           PUSH     {R1}
   \   000010C4   0B10A0E3           MOV      R1,#+11
   \   000010C8   02002DE9           PUSH     {R1}
   \   000010CC   7D1087E2           ADD      R1,R7,#+125
   \   000010D0   02002DE9           PUSH     {R1}
   \   000010D4   1010A0E3           MOV      R1,#+16
   \   000010D8   4C0100EF           SWI      +332
    572                int ram = GetFreeRamAvail();
   \   000010DC   5F0000EF           SWI      +95
    573                ram=ram/1024;
    574                wsprintf(ws,"Ram:%dKb", ram);
   \   000010E0   C014A0E1           ASR      R1,R0,#+9
   \   000010E4   210B80E0           ADD      R0,R0,R1, LSR #+22
   \   000010E8   B0119FE5           LDR      R1,??OnRedraw_17+0x18  ;; `?<Constant "Ram:%dKb">`
   \   000010EC   4025A0E1           ASR      R2,R0,#+10
   \   000010F0   0400A0E1           MOV      R0,R4
   \   000010F4   240100EF           SWI      +292
    575                 DrawString(ws,115-Get_WS_width(ws,11),124,115+3,124+GetFontYSIZE(11)+1,11,0,cinfo,GetPaletteAdrByColorIndex(23));
   \   000010F8   1700A0E3           MOV      R0,#+23
   \   000010FC   2E0100EF           SWI      +302
   \   00001100   0060A0E1           MOV      R6,R0
   \   00001104   0B00A0E3           MOV      R0,#+11
   \   00001108   C50100EF           SWI      +453
   \   0000110C   0070A0E1           MOV      R7,R0
   \   00001110   0B10A0E3           MOV      R1,#+11
   \   00001114   0400A0E1           MOV      R0,R4
   \   00001118   080200EF           SWI      +520
   \   0000111C   40002DE9           PUSH     {R6}
   \   00001120   20002DE9           PUSH     {R5}
   \   00001124   0010A0E3           MOV      R1,#+0
   \   00001128   02002DE9           PUSH     {R1}
   \   0000112C   7630A0E3           MOV      R3,#+118
   \   00001130   7C20A0E3           MOV      R2,#+124
   \   00001134   0B10A0E3           MOV      R1,#+11
   \   00001138   02002DE9           PUSH     {R1}
   \   0000113C   7D1087E2           ADD      R1,R7,#+125
   \   00001140   02002DE9           PUSH     {R1}
   \   00001144   731060E2           RSB      R1,R0,#+115
   \   00001148   0400A0E1           MOV      R0,R4
   \   0000114C   4C0100EF           SWI      +332
   \   00001150   28D08DE2           ADD      SP,SP,#+40
   \   00001154   3E0000EA           B        ??OnRedraw_53
   \                     ??OnRedraw_15:
   \   00001158   25642500           DC8      "%d%"
   \   0000115C   ........           DC32     forward
    576                }
    577                else
    578                {
    579                int battery = *RamCap();
   \                     ??OnRedraw_52:
   \   00001160   C88000EF           SWI      +32968
   \   00001164   B020D0E1           LDRH     R2,[R0, #+0]
    580                wsprintf(ws,"%d%", battery);
   \   00001168   4D1F8FE2           ADR      R1,??OnRedraw_17+0x1C  ;; "%d%"
   \   0000116C   0400A0E1           MOV      R0,R4
   \   00001170   240100EF           SWI      +292
    581                DrawString(ws,16,124,16+Get_WS_width(ws,11)+3,124+GetFontYSIZE(11)+1,11,0,cinfo,GetPaletteAdrByColorIndex(23));
   \   00001174   1700A0E3           MOV      R0,#+23
   \   00001178   2E0100EF           SWI      +302
   \   0000117C   0060A0E1           MOV      R6,R0
   \   00001180   0B00A0E3           MOV      R0,#+11
   \   00001184   C50100EF           SWI      +453
   \   00001188   0070A0E1           MOV      R7,R0
   \   0000118C   0B10A0E3           MOV      R1,#+11
   \   00001190   0400A0E1           MOV      R0,R4
   \   00001194   080200EF           SWI      +520
   \   00001198   40002DE9           PUSH     {R6}
   \   0000119C   0510A0E1           MOV      R1,R5
   \   000011A0   02002DE9           PUSH     {R1}
   \   000011A4   133080E2           ADD      R3,R0,#+19
   \   000011A8   7C20A0E3           MOV      R2,#+124
   \   000011AC   0400A0E1           MOV      R0,R4
   \   000011B0   0010A0E3           MOV      R1,#+0
   \   000011B4   02002DE9           PUSH     {R1}
   \   000011B8   0B10A0E3           MOV      R1,#+11
   \   000011BC   02002DE9           PUSH     {R1}
   \   000011C0   7D1087E2           ADD      R1,R7,#+125
   \   000011C4   02002DE9           PUSH     {R1}
   \   000011C8   1010A0E3           MOV      R1,#+16
   \   000011CC   4C0100EF           SWI      +332
    582                TTime time;
    583                TDate date;
    584                GetDateTime(&date, &time);
   \   000011D0   18108DE2           ADD      R1,SP,#+24
   \   000011D4   24008DE2           ADD      R0,SP,#+36
   \   000011D8   B40000EF           SWI      +180
    585                wsprintf(ws, "%02d:%02d:%02d", time.hour, time.min, time.sec);
   \   000011DC   1A00DDE5           LDRB     R0,[SP, #+26]
   \   000011E0   C0109FE5           LDR      R1,??OnRedraw_17+0x20  ;; `?<Constant "%02d:%02d:%02d">`
   \   000011E4   01002DE9           PUSH     {R0}
   \   000011E8   1D30DDE5           LDRB     R3,[SP, #+29]
   \   000011EC   1C20DDE5           LDRB     R2,[SP, #+28]
   \   000011F0   0400A0E1           MOV      R0,R4
   \   000011F4   240100EF           SWI      +292
    586                DrawString(ws,115-Get_WS_width(ws,11),124,115+3,124+GetFontYSIZE(11)+1,11,0,cinfo,GetPaletteAdrByColorIndex(23));
   \   000011F8   1700A0E3           MOV      R0,#+23
   \   000011FC   2E0100EF           SWI      +302
   \   00001200   0060A0E1           MOV      R6,R0
   \   00001204   0B00A0E3           MOV      R0,#+11
   \   00001208   C50100EF           SWI      +453
   \   0000120C   0070A0E1           MOV      R7,R0
   \   00001210   0B10A0E3           MOV      R1,#+11
   \   00001214   0400A0E1           MOV      R0,R4
   \   00001218   080200EF           SWI      +520
   \   0000121C   40002DE9           PUSH     {R6}
   \   00001220   20002DE9           PUSH     {R5}
   \   00001224   0010A0E3           MOV      R1,#+0
   \   00001228   02002DE9           PUSH     {R1}
   \   0000122C   7630A0E3           MOV      R3,#+118
   \   00001230   7C20A0E3           MOV      R2,#+124
   \   00001234   0B10A0E3           MOV      R1,#+11
   \   00001238   02002DE9           PUSH     {R1}
   \   0000123C   7D1087E2           ADD      R1,R7,#+125
   \   00001240   02002DE9           PUSH     {R1}
   \   00001244   731060E2           RSB      R1,R0,#+115
   \   00001248   0400A0E1           MOV      R0,R4
   \   0000124C   4C0100EF           SWI      +332
   \   00001250   2CD08DE2           ADD      SP,SP,#+44
    587                }
    588                FreeWS(ws);
   \                     ??OnRedraw_53:
   \   00001254   0400A0E1           MOV      R0,R4
   \                     ??OnRedraw_26:
   \   00001258   290100EF           SWI      +297
    589              }
    590            if(task_list!=3) GBS_StartTimerProc(&start_tmr, refresh, redrit); 
   \                     ??OnRedraw_49:
   \   0000125C   ........           LDR      R0,??DataTable87  ;; task_list
   \   00001260   000090E5           LDR      R0,[R0, #+0]
   \   00001264   030050E3           CMP      R0,#+3
   \   00001268   0400000A           BEQ      ??OnRedraw_54
   \   0000126C   38009FE5           LDR      R0,??OnRedraw_17+0x24  ;; refresh
   \   00001270   ........           LDR      R2,??DataTable65  ;; redrit
   \   00001274   001090E5           LDR      R1,[R0, #+0]
   \   00001278   ........           LDR      R0,??DataTable66  ;; start_tmr
   \   0000127C   4D0000EF           SWI      +77
    591          }
   \                     ??OnRedraw_54:
   \   00001280   30D08DE2           ADD      SP,SP,#+48       ;; stack cleaning
   \   00001284   F08FBDE8           POP      {R4-R11,PC}      ;; return
   \                     ??OnRedraw_17:
   \   00001288   ........           DC32     halt
   \   0000128C   ........           DC32     time_not
   \   00001290   ........           DC32     tasks
   \   00001294   ........           DC32     style
   \   00001298   ........           DC32     `?<Constant "Tasks:%d">`
   \   0000129C   ........           DC32     `?<Constant "T:%d">`
   \   000012A0   ........           DC32     `?<Constant "Ram:%dKb">`
   \   000012A4   25642500           DC8      "%d%"
   \   000012A8   ........           DC32     `?<Constant "%02d:%02d:%02d">`
   \   000012AC   ........           DC32     refresh
    592          

   \                                 In segment CODE, align 4, keep-with-next
    593          void onCreate(MAIN_GUI *data, void *(*malloc_adr)(int)) //Create
    594          {
    595            data->gui.state=1;
   \                     onCreate:
   \   00000000   0110A0E3           MOV      R1,#+1
   \   00000004   0C10C0E5           STRB     R1,[R0, #+12]
    596          }
   \   00000008   1EFF2FE1           BX       LR               ;; return
    597          

   \                                 In segment CODE, align 4, keep-with-next
    598          void onClose(MAIN_GUI *data, void (*mfree_adr)(void *)) //Close
    599          {
   \                     onClose:
   \   00000000   10402DE9           PUSH     {R4,LR}
   \   00000004   0040A0E1           MOV      R4,R0
    600          #ifdef NEWSGOLD
    601            mfree(screen2.bitmap);
   \   00000008   1C009FE5           LDR      R0,??onClose_0   ;; screen2 + 4
   \   0000000C   000090E5           LDR      R0,[R0, #+0]
   \   00000010   150000EF           SWI      +21
    602          #endif
    603            ClearNL();
   \   00000014   ........           _BLF     ClearNL,??ClearNL??rA
    604            MAINCSM_ID = 0;
   \   00000018   ........           LDR      R1,??DataTable89  ;; MAINCSM_ID
   \   0000001C   0000A0E3           MOV      R0,#+0
   \   00000020   000081E5           STR      R0,[R1, #+0]
    605            data->gui.state=0;
   \   00000024   0C00C4E5           STRB     R0,[R4, #+12]
    606          }
   \   00000028   1080BDE8           POP      {R4,PC}          ;; return
   \                     ??onClose_0:
   \   0000002C   ........           DC32     screen2 + 4
    607          

   \                                 In segment CODE, align 4, keep-with-next
    608          void onFocus(MAIN_GUI *data, void *(*malloc_adr)(int), void (*mfree_adr)(void *))//Focus
    609          {
    610            data->gui.state=2;
   \                     onFocus:
   \   00000000   0210A0E3           MOV      R1,#+2
   \   00000004   0C10C0E5           STRB     R1,[R0, #+12]
    611           //  DisableIDLETMR();
    612          }
   \   00000008   1EFF2FE1           BX       LR               ;; return
    613          

   \                                 In segment CODE, align 4, keep-with-next
    614          void onUnfocus(MAIN_GUI *data, void (*mfree_adr)(void *)) //Unfocus
    615          {
    616            if (data->gui.state!=2) return;
   \                     onUnfocus:
   \   00000000   0C10D0E5           LDRB     R1,[R0, #+12]
   \   00000004   020051E3           CMP      R1,#+2
    617            data->gui.state=1;
   \   00000008   0110A003           MOVEQ    R1,#+1
   \   0000000C   0C10C005           STRBEQ   R1,[R0, #+12]
    618          }
   \   00000010   1EFF2FE1           BX       LR               ;; return
    619          

   \                                 In segment DATA_Z, align 4, align-sorted
    620          int closing;
   \                     closing:
   \   00000000                      DS8 4

   \                                 In segment DATA_Z, align 4, align-sorted
    621          int show_daemons;
   \                     show_daemons:
   \   00000000                      DS8 4
    622          
    623          

   \                                 In segment CODE, align 4, keep-with-next
    624          void redrit()
    625          {
   \                     redrit:
   \   00000000   00402DE9           PUSH     {LR}
    626            DirectRedrawGUI();
   \   00000004   3F0100EF           SWI      +319
    627          }
   \   00000008   0080BDE8           POP      {PC}             ;; return
    628          

   \                                 In segment CODE, align 4, keep-with-next
    629          int OnKey(MAIN_GUI *data, GUI_MSG *msg) //OnKey
    630          {
   \                     OnKey:
   \   00000000   F04F2DE9           PUSH     {R4-R11,LR}
    631            if (msg->gbsmsg->msg==KEY_DOWN)
   \   00000004   04C091E5           LDR      R12,[R1, #+4]
   \   00000008   9310A0E3           MOV      R1,#+147
   \   0000000C   04009CE5           LDR      R0,[R12, #+4]
   \   00000010   401F81E3           ORR      R1,R1,#0x100
   \   00000014   010050E1           CMP      R0,R1
   \   00000018   8801001A           BNE      ??OnKey_2
    632            {
    633              if(task_list==1)
   \   0000001C   ........           LDR      R5,??DataTable91  ;; total_pos
   \   00000020   ........           LDR      R10,??DataTable87  ;; task_list
   \   00000024   000095E5           LDR      R0,[R5, #+0]
   \   00000028   ........           LDR      R1,??DataTable51  ;; book_show
   \   0000002C   00B09AE5           LDR      R11,[R10, #+0]
   \   00000030   00E091E5           LDR      LR,[R1, #+0]
   \   00000034   ........           LDR      R1,??DataTable81  ;; time_not
   \   00000038   ........           LDR      R6,??DataTable82  ;; sm
   \   0000003C   ........           LDR      R7,??DataTable78  ;; move_skip
   \   00000040   ........           LDR      R8,??DataTable77  ;; pos
   \   00000044   012080E2           ADD      R2,R0,#+1
   \   00000048   013040E2           SUB      R3,R0,#+1
   \   0000004C   0090A0E3           MOV      R9,#+0
   \   00000050   0140A0E3           MOV      R4,#+1
   \   00000054   01005BE3           CMP      R11,#+1
   \   00000058   EB00001A           BNE      ??OnKey_3
    634              {
    635              switch(msg->gbsmsg->submess)
   \   0000005C   08009CE5           LDR      R0,[R12, #+8]
   \   00000060   010040E2           SUB      R0,R0,#+1
   \   00000064   3D0050E3           CMP      R0,#+61
   \   00000068   7401008A           BHI      ??OnKey_2
   \   0000006C   02BF8FE2           ADR      R11,??OnKey_0
   \   00000070   8000A0E1           MOV      R0,R0, LSL #+1
   \   00000074   B0B09BE1           LDRH     R11,[R11, R0]
   \   00000078   0BF18FE0           ADD      PC,PC,R11, LSL #+2
   \                     ??OnKey_0:
   \   0000007C   3C0170017001       DC16     +316,+368,+368,+221
   \              DD00        
   \   00000084   700170017001       DC16     +368,+368,+368,+368
   \              7001        
   \   0000008C   70017001DF00       DC16     +368,+368,+223,+368
   \              7001        
   \   00000094   700170017001       DC16     +368,+368,+368,+368
   \              7001        
   \   0000009C   700170017001       DC16     +368,+368,+368,+368
   \              7001        
   \   000000A4   700170017001       DC16     +368,+368,+368,+368
   \              7001        
   \   000000AC   700194007001       DC16     +368,+148,+368,+368
   \              7001        
   \   000000B4   700170017001       DC16     +368,+368,+368,+368
   \              7001        
   \   000000BC   700170019200       DC16     +368,+368,+146,+368
   \              7001        
   \   000000C4   700170017001       DC16     +368,+368,+368,+368
   \              7001        
   \   000000CC   700153007001       DC16     +368,+83,+368,+368
   \              7001        
   \   000000D4   700170017001       DC16     +368,+368,+368,+99
   \              6300        
   \   000000DC   68006C007200       DC16     +104,+108,+114,+118
   \              7600        
   \   000000E4   7A007E008200       DC16     +122,+126,+130,+134
   \              8600        
   \   000000EC   8A0070013D00       DC16     +138,+368,+61,+35
   \              2300        
   \   000000F4   8E001E00           DC16     +142,+30
    636              {
    637              case RIGHT_BUTTON:
    638                pos=1;
   \                     ??OnKey_4:
   \   000000F8   004088E5           STR      R4,[R8, #+0]
    639                total_pos=1;
   \   000000FC   004085E5           STR      R4,[R5, #+0]
    640                move_skip=0;
   \   00000100   009087E5           STR      R9,[R7, #+0]
    641                task_list=0;
   \   00000104   00908AE5           STR      R9,[R10, #+0]
    642                DirectRedrawGUI();
   \                     ??OnKey_5:
   \   00000108   3C0000EA           B        ??OnKey_6
    643                break;
    644              case DOWN_BUTTON:
    645                total_pos++;
    646                if(total_pos<=total_d)
   \                     ??OnKey_7:
   \   0000010C   ........           LDR      R0,??DataTable90  ;; total_d
   \   00000110   002085E5           STR      R2,[R5, #+0]
   \   00000114   000090E5           LDR      R0,[R0, #+0]
   \   00000118   020050E1           CMP      R0,R2
   \   0000011C   0E0000BA           BLT      ??OnKey_8
    647                {
    648                if((total_pos<=3)||(total_pos>total_d-2)) pos++;
   \   00000120   020040E2           SUB      R0,R0,#+2
   \   00000124   040052E3           CMP      R2,#+4
   \   00000128   020050A1           CMPGE    R0,R2
   \   0000012C   040000AA           BGE      ??OnKey_9
   \   00000130   001098E5           LDR      R1,[R8, #+0]
    649                if((total_pos>3)&&(total_pos<=total_d-2)) move_skip++;
   \   00000134   040052E3           CMP      R2,#+4
   \   00000138   011081E2           ADD      R1,R1,#+1
   \   0000013C   001088E5           STR      R1,[R8, #+0]
   \   00000140   070000BA           BLT      ??OnKey_10
   \                     ??OnKey_9:
   \   00000144   020050E1           CMP      R0,R2
   \   00000148   050000BA           BLT      ??OnKey_10
   \   0000014C   000097E5           LDR      R0,[R7, #+0]
   \   00000150   010080E2           ADD      R0,R0,#+1
   \                     ??OnKey_11:
   \   00000154   000087E5           STR      R0,[R7, #+0]
   \   00000158   010000EA           B        ??OnKey_10
    650                }
    651                else
    652                  total_pos--;
   \                     ??OnKey_8:
   \   0000015C   010042E2           SUB      R0,R2,#+1
   \   00000160   000085E5           STR      R0,[R5, #+0]
    653                sm=0;
    654                forward=1;
   \                     ??OnKey_10:
   \   00000164   ........           LDR      R0,??DataTable83  ;; forward
   \   00000168   009086E5           STR      R9,[R6, #+0]
   \                     ??OnKey_12:
   \   0000016C   004080E5           STR      R4,[R0, #+0]
    655                DirectRedrawGUI();
   \   00000170   220000EA           B        ??OnKey_6
    656                break;
    657              case UP_BUTTON:
    658                total_pos--;
   \                     ??OnKey_13:
   \   00000174   003085E5           STR      R3,[R5, #+0]
    659                if(total_pos)
   \   00000178   000053E3           CMP      R3,#+0
   \   0000017C   1000000A           BEQ      ??OnKey_14
    660                {
    661                if((total_pos<3)||(total_pos>=total_d-2)) pos--;
   \   00000180   ........           LDR      R0,??DataTable90  ;; total_d
   \   00000184   030053E3           CMP      R3,#+3
   \   00000188   000090E5           LDR      R0,[R0, #+0]
   \   0000018C   020040E2           SUB      R0,R0,#+2
   \   00000190   010000BA           BLT      ??OnKey_15
   \   00000194   000053E1           CMP      R3,R0
   \   00000198   040000BA           BLT      ??OnKey_16
   \                     ??OnKey_15:
   \   0000019C   001098E5           LDR      R1,[R8, #+0]
    662                if((total_pos>=3)&&(total_pos<total_d-2)) move_skip--;
   \   000001A0   030053E3           CMP      R3,#+3
   \   000001A4   011041E2           SUB      R1,R1,#+1
   \   000001A8   001088E5           STR      R1,[R8, #+0]
   \   000001AC   ECFFFFBA           BLT      ??OnKey_10
   \                     ??OnKey_16:
   \   000001B0   000053E1           CMP      R3,R0
   \   000001B4   EAFFFFAA           BGE      ??OnKey_10
   \   000001B8   000097E5           LDR      R0,[R7, #+0]
   \   000001BC   010040E2           SUB      R0,R0,#+1
   \   000001C0   E3FFFFEA           B        ??OnKey_11
    663                }
    664                else
    665                  total_pos++;
   \                     ??OnKey_14:
   \   000001C4   004085E5           STR      R4,[R5, #+0]
   \   000001C8   E5FFFFEA           B        ??OnKey_10
    666                sm=0;
    667                forward=1;
    668                DirectRedrawGUI();
    669                break;
    670              case '*':
    671                show_daemons=!show_daemons;
   \                     ??OnKey_17:
   \   000001CC   ........           LDR      R0,??DataTable73  ;; show_daemons
   \   000001D0   ........           LDR      R1,??DataTable73  ;; show_daemons
   \   000001D4   000090E5           LDR      R0,[R0, #+0]
    672                pos=1;
   \   000001D8   004088E5           STR      R4,[R8, #+0]
   \   000001DC   000050E3           CMP      R0,#+0
   \   000001E0   0100A003           MOVEQ    R0,#+1
   \   000001E4   0000A013           MOVNE    R0,#+0
   \   000001E8   000081E5           STR      R0,[R1, #+0]
    673                total_pos=1;
    674                move_skip=0;
    675                sm=0;
    676                forward=1;
   \   000001EC   ........           LDR      R0,??DataTable83  ;; forward
   \   000001F0   004085E5           STR      R4,[R5, #+0]
   \   000001F4   009087E5           STR      R9,[R7, #+0]
   \   000001F8   009086E5           STR      R9,[R6, #+0]
   \   000001FC   004080E5           STR      R4,[R0, #+0]
    677                DirectRedrawGUI();
   \                     ??OnKey_6:
   \   00000200   3F0100EF           SWI      +319
   \                     ??OnKey_18:
   \   00000204   0000A0E3           MOV      R0,#+0
   \   00000208   F08FBDE8           POP      {R4-R11,PC}
    678                break;
    679              case 0x30:
    680                time_not=!time_not;
   \                     ??OnKey_19:
   \   0000020C   000091E5           LDR      R0,[R1, #+0]
   \   00000210   000050E3           CMP      R0,#+0
   \   00000214   0040A013           MOVNE    R4,#+0
   \   00000218   004081E5           STR      R4,[R1, #+0]
    681                DirectRedrawGUI();
   \   0000021C   F7FFFFEA           B        ??OnKey_6
    682                break;
    683                      case 0x31:
    684                  if(book_show>=1) 
   \                     ??OnKey_20:
   \   00000220   01005EE3           CMP      LR,#+1
   \   00000224   050100BA           BLT      ??OnKey_2
    685                  {
    686                    Start_bookmark(1);
   \   00000228   0100A0E3           MOV      R0,#+1
   \   0000022C   020000EA           B        ??OnKey_21
    687                    return(1);
    688                  }
    689                  break;
    690                        case 0x32:
    691                  if(book_show>=2) 
   \                     ??OnKey_22:
   \   00000230   02005EE3           CMP      LR,#+2
   \   00000234   010100BA           BLT      ??OnKey_2
    692                  {
    693                    Start_bookmark(2);
   \   00000238   0200A0E3           MOV      R0,#+2
   \                     ??OnKey_21:
   \   0000023C   ........           BL       Start_bookmark
    694                    return(1);
   \                     ??OnKey_23:
   \   00000240   0100A0E3           MOV      R0,#+1
   \   00000244   F08FBDE8           POP      {R4-R11,PC}
    695                  }
    696                  break;
    697                        case 0x33:
    698                  if(book_show>=3) 
   \                     ??OnKey_24:
   \   00000248   03005EE3           CMP      LR,#+3
   \   0000024C   FB0000BA           BLT      ??OnKey_2
    699                  {
    700                    Start_bookmark(3);
   \   00000250   0300A0E3           MOV      R0,#+3
   \   00000254   F8FFFFEA           B        ??OnKey_21
    701                    return(1);
    702                  }
    703                  break;
    704                        case 0x34:
    705                  if(book_show>=4) 
   \                     ??OnKey_25:
   \   00000258   04005EE3           CMP      LR,#+4
   \   0000025C   F70000BA           BLT      ??OnKey_2
    706                  {
    707                    Start_bookmark(4);
   \   00000260   0400A0E3           MOV      R0,#+4
   \   00000264   F4FFFFEA           B        ??OnKey_21
    708                    return(1);
    709                  }
    710                  break;
    711                        case 0x35:
    712                  if(book_show>=5) 
   \                     ??OnKey_26:
   \   00000268   05005EE3           CMP      LR,#+5
   \   0000026C   F30000BA           BLT      ??OnKey_2
    713                  {
    714                    Start_bookmark(5);
   \   00000270   0500A0E3           MOV      R0,#+5
   \   00000274   F0FFFFEA           B        ??OnKey_21
    715                    return(1);
    716                  }
    717                  break;
    718                        case 0x36:
    719                  if(book_show>=6) 
   \                     ??OnKey_27:
   \   00000278   06005EE3           CMP      LR,#+6
   \   0000027C   EF0000BA           BLT      ??OnKey_2
    720                  {
    721                    Start_bookmark(6);
   \   00000280   0600A0E3           MOV      R0,#+6
   \   00000284   ECFFFFEA           B        ??OnKey_21
    722                    return(1);
    723                  }
    724                  break;
    725                        case 0x37:
    726                  if(book_show>=7) 
   \                     ??OnKey_28:
   \   00000288   07005EE3           CMP      LR,#+7
   \   0000028C   EB0000BA           BLT      ??OnKey_2
    727                  {
    728                    Start_bookmark(7);
   \   00000290   0700A0E3           MOV      R0,#+7
   \   00000294   E8FFFFEA           B        ??OnKey_21
    729                    return(1);
    730                  }
    731                  break;
    732                        case 0x38:
    733                  if(book_show>=8) 
   \                     ??OnKey_29:
   \   00000298   08005EE3           CMP      LR,#+8
   \   0000029C   E70000BA           BLT      ??OnKey_2
    734                  {
    735                    Start_bookmark(8);
   \   000002A0   0800A0E3           MOV      R0,#+8
   \   000002A4   E4FFFFEA           B        ??OnKey_21
    736                    return(1);
    737                  }
    738                  break;
    739                        case 0x39:
    740                  if(book_show>=9) 
   \                     ??OnKey_30:
   \   000002A8   09005EE3           CMP      LR,#+9
   \   000002AC   E30000BA           BLT      ??OnKey_2
    741                  {
    742                    Start_bookmark(9);
   \   000002B0   0900A0E3           MOV      R0,#+9
   \   000002B4   E0FFFFEA           B        ??OnKey_21
    743                    return(1);
    744                  }
    745                  break;
    746                  case LEFT_BUTTON:
    747                if(!cleseri) break;
   \                     ??OnKey_31:
   \   000002B8   88039FE5           LDR      R0,??OnKey_32    ;; cleseri
   \   000002BC   000090E5           LDR      R0,[R0, #+0]
   \   000002C0   000050E3           CMP      R0,#+0
   \   000002C4   F08FBD08           POPEQ    {R4-R11,PC}
    748              case '#':
    749                 closing=1;
   \                     ??OnKey_33:
   \   000002C8   7C039FE5           LDR      R0,??OnKey_32+0x4  ;; closing
   \   000002CC   004080E5           STR      R4,[R0, #+0]
    750              case ENTER_BUTTON:
    751                {
    752                minine:
    753                  {
    754                NAMELIST *nl=nltop;
   \                     ??OnKey_34:
   \   000002D0   ........           LDR      R0,??DataTable62  ;; nltop
   \   000002D4   000090E5           LDR      R0,[R0, #+0]
    755                int skip_run=total_pos;
   \   000002D8   001095E5           LDR      R1,[R5, #+0]
   \   000002DC   010000EA           B        ??OnKey_35
    756                while(nl)
    757                {
    758                   NAMELIST *p=nl;
    759                   if(skip_run)
    760                   {
    761                     skip_run--;
    762                     nl=p->next;
   \                     ??OnKey_36:
   \   000002E0   000090E5           LDR      R0,[R0, #+0]
   \   000002E4   011041E2           SUB      R1,R1,#+1
    763                   }
   \                     ??OnKey_35:
   \   000002E8   000050E3           CMP      R0,#+0
   \   000002EC   00005113           CMPNE    R1,#+0
   \   000002F0   FAFFFF1A           BNE      ??OnKey_36
    764                   else
    765                     goto don;
    766                }
    767                don:
    768                if ((!nl->is_daemon)||((closing)&&(nl->is_daemon)))
   \   000002F4   50139FE5           LDR      R1,??OnKey_32+0x4  ;; closing
   \   000002F8   102090E5           LDR      R2,[R0, #+16]
   \   000002FC   001091E5           LDR      R1,[R1, #+0]
   \   00000300   000052E3           CMP      R2,#+0
   \   00000304   0100000A           BEQ      ??OnKey_37
   \   00000308   000051E3           CMP      R1,#+0
   \   0000030C   CB00000A           BEQ      ??OnKey_2
    769                {
    770                  if(closing)
   \                     ??OnKey_37:
   \   00000310   0C0090E5           LDR      R0,[R0, #+12]
   \   00000314   000051E3           CMP      R1,#+0
   \   00000318   3100000A           BEQ      ??OnKey_38
    771                  {
    772                    int i;
    773                    closing=0;
   \   0000031C   28139FE5           LDR      R1,??OnKey_32+0x4  ;; closing
   \   00000320   009081E5           STR      R9,[R1, #+0]
    774                    i=((CSM_RAM *)(nl->p))->id;
   \   00000324   0CA090E5           LDR      R10,[R0, #+12]
    775                    if (i!=CSM_root()->idle_id) 
   \   00000328   068100EF           SWI      +33030
   \   0000032C   040090E5           LDR      R0,[R0, #+4]
   \   00000330   00005AE1           CMP      R10,R0
   \   00000334   C100000A           BEQ      ??OnKey_2
    776                    {
    777                      CloseCSM(i);
   \   00000338   0A00A0E1           MOV      R0,R10
   \   0000033C   FC0100EF           SWI      +508
    778                      int rem_pso=total_pos-1;
   \   00000340   000095E5           LDR      R0,[R5, #+0]
    779                      pos=1;
   \   00000344   004088E5           STR      R4,[R8, #+0]
   \   00000348   010050E2           SUBS     R0,R0,#+1
    780                      total_pos=1;
   \   0000034C   004085E5           STR      R4,[R5, #+0]
    781                      move_skip=0;
   \   00000350   009087E5           STR      R9,[R7, #+0]
   \   00000354   1A00000A           BEQ      ??OnKey_39
    782                      while(rem_pso!=0)
    783                      {
    784                      total_pos++;
    785                      if(total_pos<=total_d-1)
   \                     ??OnKey_40:
   \   00000358   ........           LDR      R2,??DataTable90  ;; total_d
   \   0000035C   001095E5           LDR      R1,[R5, #+0]
   \   00000360   002092E5           LDR      R2,[R2, #+0]
   \   00000364   011081E2           ADD      R1,R1,#+1
   \   00000368   001085E5           STR      R1,[R5, #+0]
   \   0000036C   013042E2           SUB      R3,R2,#+1
   \   00000370   010053E1           CMP      R3,R1
   \   00000374   0E0000BA           BLT      ??OnKey_41
    786                      {
    787                        if((total_pos<=3)||(total_pos>total_d-3)) pos++;
   \   00000378   032042E2           SUB      R2,R2,#+3
   \   0000037C   040051E3           CMP      R1,#+4
   \   00000380   010052A1           CMPGE    R2,R1
   \   00000384   040000AA           BGE      ??OnKey_42
   \   00000388   003098E5           LDR      R3,[R8, #+0]
    788                        if((total_pos>3)&&(total_pos<=total_d-3)) move_skip++;
   \   0000038C   040051E3           CMP      R1,#+4
   \   00000390   013083E2           ADD      R3,R3,#+1
   \   00000394   003088E5           STR      R3,[R8, #+0]
   \   00000398   070000BA           BLT      ??OnKey_43
   \                     ??OnKey_42:
   \   0000039C   010052E1           CMP      R2,R1
   \   000003A0   050000BA           BLT      ??OnKey_43
   \   000003A4   001097E5           LDR      R1,[R7, #+0]
   \   000003A8   011081E2           ADD      R1,R1,#+1
   \   000003AC   001087E5           STR      R1,[R7, #+0]
   \   000003B0   010000EA           B        ??OnKey_43
    789                      }
    790                      else
    791                      {
    792                      total_pos--;
   \                     ??OnKey_41:
   \   000003B4   011041E2           SUB      R1,R1,#+1
   \   000003B8   001085E5           STR      R1,[R5, #+0]
    793                      }
    794                      rem_pso--;
   \                     ??OnKey_43:
   \   000003BC   010050E2           SUBS     R0,R0,#+1
    795                      }
   \   000003C0   E4FFFF1A           BNE      ??OnKey_40
    796                      sm=0;
    797                      forward=1;
   \                     ??OnKey_39:
   \   000003C4   ........           LDR      R0,??DataTable83  ;; forward
    798                      GBS_StartTimerProc(&start_tmr, 30, redrit); 
   \   000003C8   ........           LDR      R2,??DataTable65  ;; redrit
   \   000003CC   009086E5           STR      R9,[R6, #+0]
   \   000003D0   004080E5           STR      R4,[R0, #+0]
   \   000003D4   ........           LDR      R0,??DataTable66  ;; start_tmr
   \   000003D8   1E10A0E3           MOV      R1,#+30
   \   000003DC   4D0000EF           SWI      +77
   \   000003E0   87FFFFEA           B        ??OnKey_18
    799                    }
    800                  }
    801                  else
    802                  {
    803          	CSMtoTop(((CSM_RAM *)(nl->p))->id,-1);
   \                     ??OnKey_38:
   \   000003E4   0C0090E5           LDR      R0,[R0, #+12]
   \   000003E8   001064E2           RSB      R1,R4,#+0
   \   000003EC   ........           _BLF     CSMtoTop,??CSMtoTop??rA
   \   000003F0   92FFFFEA           B        ??OnKey_23
    804                  return(1);
    805                  }
    806                }
    807                else
    808                  closing=0;
    809                }
    810                }
    811                break;
    812              case LEFT_SOFT:
    813                CSMtoTop(CSM_root()->idle_id,-1);
    814                return(1);
    815              case RIGHT_SOFT:
    816                total_pos=1;
   \                     ??OnKey_44:
   \   000003F4   004085E5           STR      R4,[R5, #+0]
    817                goto minine;
   \   000003F8   B4FFFFEA           B        ??OnKey_34
    818                case GREEN_BUTTON:
    819                    task_list=2;
   \                     ??OnKey_45:
   \   000003FC   0200A0E3           MOV      R0,#+2
   \   00000400   00008AE5           STR      R0,[R10, #+0]
    820                    shutd=1;
   \   00000404   ........           LDR      R0,??DataTable71  ;; shutd
   \   00000408   57FFFFEA           B        ??OnKey_12
    821                    DirectRedrawGUI();
    822                  break;
    823           //     return(1);
    824              }
    825              }
    826              else//=======================================do the links
    827                if(task_list==0)
   \                     ??OnKey_3:
   \   0000040C   00005BE3           CMP      R11,#+0
   \   00000410   5C00001A           BNE      ??OnKey_46
    828              {
    829                switch(msg->gbsmsg->submess)
   \   00000414   08B09CE5           LDR      R11,[R12, #+8]
   \   00000418   01B04BE2           SUB      R11,R11,#+1
   \   0000041C   3C005BE3           CMP      R11,#+60
   \   00000420   8600008A           BHI      ??OnKey_2
   \   00000424   02CF8FE2           ADR      R12,??OnKey_1
   \   00000428   8BB0A0E1           MOV      R11,R11, LSL #+1
   \   0000042C   FBC09CE1           LDRSH    R12,[R12, R11]
   \   00000430   0CF18FE0           ADD      PC,PC,R12, LSL #+2
   \                     ??OnKey_1:
   \   00000434   4E0082008200       DC16     +78,+130,+130,+65519
   \              EFFF        
   \   0000043C   820082008200       DC16     +130,+130,+130,+130
   \              8200        
   \   00000444   82008200F1FF       DC16     +130,+130,+65521,+130
   \              8200        
   \   0000044C   820082008200       DC16     +130,+130,+130,+130
   \              8200        
   \   00000454   820082008200       DC16     +130,+130,+130,+130
   \              8200        
   \   0000045C   820082008200       DC16     +130,+130,+130,+130
   \              8200        
   \   00000464   820081FF8200       DC16     +130,+65409,+130,+130
   \              8200        
   \   0000046C   820082008200       DC16     +130,+130,+130,+130
   \              8200        
   \   00000474   820082008200       DC16     +130,+130,+130,+130
   \              8200        
   \   0000047C   820082008200       DC16     +130,+130,+130,+130
   \              8200        
   \   00000484   820082008200       DC16     +130,+130,+130,+130
   \              8200        
   \   0000048C   820082008200       DC16     +130,+130,+130,+65397
   \              75FF        
   \   00000494   820082008200       DC16     +130,+130,+130,+130
   \              8200        
   \   0000049C   820082008200       DC16     +130,+130,+130,+130
   \              8200        
   \   000004A4   820082003A00       DC16     +130,+130,+58,+38
   \              2600        
   \   000004AC   1E000000           DC16     +30,+0
    830                {
    831                case LEFT_BUTTON:
    832                  pos=1;
    833                  total_pos=1;
    834                  move_skip=0;
    835                  task_list=1;
    836                  sm=0;
    837                  forward=1;
   \                     ??OnKey_47:
   \   000004B0   ........           LDR      R0,??DataTable83  ;; forward
   \   000004B4   004088E5           STR      R4,[R8, #+0]
   \   000004B8   004085E5           STR      R4,[R5, #+0]
   \   000004BC   009087E5           STR      R9,[R7, #+0]
   \   000004C0   00408AE5           STR      R4,[R10, #+0]
   \   000004C4   009086E5           STR      R9,[R6, #+0]
   \   000004C8   004080E5           STR      R4,[R0, #+0]
    838                  DirectRedrawGUI();
   \   000004CC   4BFFFFEA           B        ??OnKey_6
    839                  break;
    840                case DOWN_BUTTON:
    841                total_pos++;
   \                     ??OnKey_48:
   \   000004D0   002085E5           STR      R2,[R5, #+0]
    842                if(total_pos<=book_show)
   \   000004D4   02005EE1           CMP      LR,R2
   \   000004D8   0E0000BA           BLT      ??OnKey_49
    843                {
    844                if((total_pos<=3)||(total_pos>book_show-2)) pos++;
   \   000004DC   02004EE2           SUB      R0,LR,#+2
   \   000004E0   040052E3           CMP      R2,#+4
   \   000004E4   020050A1           CMPGE    R0,R2
   \   000004E8   040000AA           BGE      ??OnKey_50
   \   000004EC   001098E5           LDR      R1,[R8, #+0]
    845                if((total_pos>3)&&(total_pos<=book_show-2)) move_skip++;
   \   000004F0   040052E3           CMP      R2,#+4
   \   000004F4   011081E2           ADD      R1,R1,#+1
   \   000004F8   001088E5           STR      R1,[R8, #+0]
   \   000004FC   3FFFFFBA           BLT      ??OnKey_6
   \                     ??OnKey_50:
   \   00000500   020050E1           CMP      R0,R2
   \   00000504   3DFFFFBA           BLT      ??OnKey_6
   \   00000508   000097E5           LDR      R0,[R7, #+0]
   \   0000050C   010080E2           ADD      R0,R0,#+1
   \                     ??OnKey_51:
   \   00000510   000087E5           STR      R0,[R7, #+0]
   \   00000514   39FFFFEA           B        ??OnKey_6
    846                }
    847                else
    848                  total_pos--;
   \                     ??OnKey_49:
   \   00000518   000085E5           STR      R0,[R5, #+0]
    849                DirectRedrawGUI();
   \   0000051C   37FFFFEA           B        ??OnKey_6
    850                break;
    851              case UP_BUTTON:
    852                total_pos--;
   \                     ??OnKey_52:
   \   00000520   003085E5           STR      R3,[R5, #+0]
    853                if(total_pos)
   \   00000524   000053E3           CMP      R3,#+0
   \   00000528   0E00000A           BEQ      ??OnKey_53
    854                {
    855                if((total_pos<3)||(total_pos>=book_show-2)) pos--;
   \   0000052C   02004EE2           SUB      R0,LR,#+2
   \   00000530   030053E3           CMP      R3,#+3
   \   00000534   010000BA           BLT      ??OnKey_54
   \   00000538   000053E1           CMP      R3,R0
   \   0000053C   040000BA           BLT      ??OnKey_55
   \                     ??OnKey_54:
   \   00000540   001098E5           LDR      R1,[R8, #+0]
    856                if((total_pos>=3)&&(total_pos<book_show-2)) move_skip--;
   \   00000544   030053E3           CMP      R3,#+3
   \   00000548   011041E2           SUB      R1,R1,#+1
   \   0000054C   001088E5           STR      R1,[R8, #+0]
   \   00000550   2AFFFFBA           BLT      ??OnKey_6
   \                     ??OnKey_55:
   \   00000554   000053E1           CMP      R3,R0
   \   00000558   28FFFFAA           BGE      ??OnKey_6
   \   0000055C   000097E5           LDR      R0,[R7, #+0]
   \   00000560   010040E2           SUB      R0,R0,#+1
   \   00000564   E9FFFFEA           B        ??OnKey_51
    857                }
    858                else
    859                  total_pos++;
   \                     ??OnKey_53:
   \   00000568   004085E5           STR      R4,[R5, #+0]
   \   0000056C   23FFFFEA           B        ??OnKey_6
    860                DirectRedrawGUI();
    861                break;
    862              case 0x30:
    863                time_not=!time_not;
    864                DirectRedrawGUI();
    865                break;
    866              case LEFT_SOFT:
    867                CSMtoTop(CSM_root()->idle_id,-1);
   \                     ??OnKey_56:
   \   00000570   068100EF           SWI      +33030
   \   00000574   040090E5           LDR      R0,[R0, #+4]
   \   00000578   001064E2           RSB      R1,R4,#+0
   \   0000057C   ........           _BLF     CSMtoTop,??CSMtoTop??rA
    868                return(1);
   \   00000580   0100A0E3           MOV      R0,#+1
   \   00000584   F08FBDE8           POP      {R4-R11,PC}
    869              case RIGHT_SOFT:
    870                total_pos=1;
    871                goto minine;
    872                case ENTER_BUTTON:
    873                  Start_bookmark(total_pos);
    874                  return(1);
    875                  case GREEN_BUTTON:
    876                    task_list=2;
    877                    shutd=1;
    878                    DirectRedrawGUI();
    879                  break;
    880                }
    881              }//==========================================end links
    882              else
    883                if(task_list==2)
   \                     ??OnKey_46:
   \   00000588   02005BE3           CMP      R11,#+2
   \   0000058C   2B00001A           BNE      ??OnKey_2
    884                {
    885                  switch(msg->gbsmsg->submess)
   \   00000590   08009CE5           LDR      R0,[R12, #+8]
   \   00000594   0B0050E2           SUBS     R0,R0,#+11
   \   00000598   0700000A           BEQ      ??OnKey_57
   \   0000059C   0F0050E2           SUBS     R0,R0,#+15
   \   000005A0   1900000A           BEQ      ??OnKey_58
   \   000005A4   160050E2           SUBS     R0,R0,#+22
   \   000005A8   0B00000A           BEQ      ??OnKey_59
   \   000005AC   0B0040E2           SUB      R0,R0,#+11
   \   000005B0   010050E3           CMP      R0,#+1
   \   000005B4   0D00009A           BLS      ??OnKey_60
   \   000005B8   11FFFFEA           B        ??OnKey_18
    886                {
    887                case GREEN_BUTTON:
    888                  pos=1;
    889                  total_pos=1;
    890                  move_skip=0;
    891                  task_list=1;
    892                  sm=0;
    893                  forward=1;
   \                     ??OnKey_57:
   \   000005BC   ........           LDR      R0,??DataTable83  ;; forward
   \   000005C0   004088E5           STR      R4,[R8, #+0]
   \   000005C4   004085E5           STR      R4,[R5, #+0]
   \   000005C8   009087E5           STR      R9,[R7, #+0]
   \   000005CC   009086E5           STR      R9,[R6, #+0]
   \   000005D0   004080E5           STR      R4,[R0, #+0]
    894                  task_list=1;
   \   000005D4   00408AE5           STR      R4,[R10, #+0]
    895                  DirectRedrawGUI();
   \   000005D8   08FFFFEA           B        ??OnKey_6
    896                  break;
    897                case 0x30:
    898                time_not=!time_not;
   \                     ??OnKey_59:
   \   000005DC   000091E5           LDR      R0,[R1, #+0]
   \   000005E0   000050E3           CMP      R0,#+0
   \   000005E4   0040A013           MOVNE    R4,#+0
   \   000005E8   004081E5           STR      R4,[R1, #+0]
    899                DirectRedrawGUI();
   \   000005EC   03FFFFEA           B        ??OnKey_6
    900                break;
    901                case DOWN_BUTTON:
    902                case UP_BUTTON:
    903                  shutd=!shutd;
   \                     ??OnKey_60:
   \   000005F0   ........           LDR      R0,??DataTable71  ;; shutd
   \   000005F4   000090E5           LDR      R0,[R0, #+0]
   \   000005F8   000050E3           CMP      R0,#+0
   \   000005FC   ........           LDR      R0,??DataTable71  ;; shutd
   \   00000600   0040A013           MOVNE    R4,#+0
   \   00000604   004080E5           STR      R4,[R0, #+0]
   \   00000608   FDFEFFEA           B        ??OnKey_18
    904                  break;
    905                case ENTER_BUTTON:
    906                  task_list=3;
   \                     ??OnKey_58:
   \   0000060C   0300A0E3           MOV      R0,#+3
   \   00000610   00008AE5           STR      R0,[R10, #+0]
    907                  data4=AllocWS(128);
   \   00000614   8000A0E3           MOV      R0,#+128
   \   00000618   250100EF           SWI      +293
   \   0000061C   ........           LDR      R1,??DataTable72  ;; data4
   \   00000620   000081E5           STR      R0,[R1, #+0]
    908                  data5=AllocWS(128);
   \   00000624   8000A0E3           MOV      R0,#+128
   \   00000628   250100EF           SWI      +293
   \   0000062C   1C109FE5           LDR      R1,??OnKey_32+0x8  ;; data5
   \   00000630   000081E5           STR      R0,[R1, #+0]
    909                  show_daemons=1;
   \   00000634   ........           LDR      R0,??DataTable73  ;; show_daemons
   \   00000638   004080E5           STR      R4,[R0, #+0]
    910                  task_list3();
   \   0000063C   ........           BL       task_list3
    911                  break;
    912                }
    913                }
    914            }
    915            return(0);
   \                     ??OnKey_2:
   \   00000640   0000A0E3           MOV      R0,#+0
   \   00000644   F08FBDE8           POP      {R4-R11,PC}      ;; return
   \                     ??OnKey_32:
   \   00000648   ........           DC32     cleseri
   \   0000064C   ........           DC32     closing
   \   00000650   ........           DC32     data5
    916          }
    917          
    918          extern void kill_data(void *p, void (*func_p)(void *));

   \                                 In segment CODE, align 4, keep-with-next
    919          void ElfKiller(void)
    920          {
   \                     ElfKiller:
   \   00000000   00402DE9           PUSH     {LR}
    921            extern void *ELF_BEGIN;
    922            kill_data(&ELF_BEGIN,(void (*)(void *))mfree_adr());
   \   00000004   158000EF           SWI      +32789
   \   00000008   0010A0E1           MOV      R1,R0
   \   0000000C   ........           LDR      R0,??DataTable97  ;; ELF_BEGIN
   \   00000010   0040BDE8           POP      {LR}             ;; Pop
   \   00000014   ........           _BF      kill_data,??kill_data??rA  ;; tailcall
    923          }
    924          

   \                                 In segment CODE, align 4, keep-with-next
    925          int method8(void){return(0);}
   \                     method8:
   \   00000000   0000A0E3           MOV      R0,#+0
   \   00000004   1EFF2FE1           BX       LR               ;; return
    926          

   \                                 In segment CODE, align 4, keep-with-next
    927          int method9(void){return(0);}
   \                     method9:
   \   00000000   0000A0E3           MOV      R0,#+0
   \   00000004   1EFF2FE1           BX       LR               ;; return
    928          

   \                                 In segment DATA_C, align 4, align-sorted
    929          const void * const gui_methods[11]={
   \                     gui_methods:
   \   00000000   ............       DC32 OnRedraw, onCreate, onClose, onFocus, onUnfocus, OnKey, 0H
   \              ............
   \              ............
   \              ............
   \              00000000    
   \   0000001C   ............       DC32 kill_data, method8, method9, 0H
   \              ............
   \              00000000    
    930            (void *)OnRedraw,	//Redraw
    931            (void *)onCreate,	//Create
    932            (void *)onClose,	//Close
    933            (void *)onFocus,	//Focus
    934            (void *)onUnfocus,	//Unfocus
    935            (void *)OnKey,	//OnKey
    936            0,
    937            (void *)kill_data,	//Destroy
    938            (void *)method8,
    939            (void *)method9,
    940            0
    941          };
    942          

   \                                 In segment DATA_C, align 4, align-sorted
    943          const RECT Canvas={0,0,132,176};
   \                     Canvas:
   \   00000000   000000008400       DC16 0, 0, 132, 176
   \              B000        
    944          
    945          #pragma inline
    946          void patch_rect(const RECT*rcc,int x,int y, int x2, int y2)
    947          {
    948            RECT *rc=(RECT *)rcc;
    949            rc->x=x;
    950            rc->y=y;
    951            rc->x2=x2;
    952            rc->y2=y2;
    953          }
    954          

   \                                 In segment CODE, align 4, keep-with-next
    955          void maincsm_oncreate(CSM_RAM *data)
    956          {
   \                     maincsm_oncreate:
   \   00000000   F0402DE9           PUSH     {R4-R7,LR}
    957          #ifdef NEWSGOLD
    958            DoScreen2();
    959          #endif
    960            MAIN_GUI *main_gui=malloc(sizeof(MAIN_GUI));
    961            MAIN_CSM*csm=(MAIN_CSM*)data;
    962            zeromem(main_gui,sizeof(MAIN_GUI));
    963            main_gui->gui.canvas=(void *)(&Canvas);
   \   00000004   68609FE5           LDR      R6,??maincsm_oncreate_0  ;; Canvas
   \   00000008   0040A0E1           MOV      R4,R0
   \   0000000C   ........           BL       DoScreen2
   \   00000010   4000A0E3           MOV      R0,#+64
   \   00000014   140000EF           SWI      +20
   \   00000018   0050A0E1           MOV      R5,R0
   \   0000001C   4010A0E3           MOV      R1,#+64
   \   00000020   1D0100EF           SWI      +285
    964            main_gui->gui.methods=(void *)gui_methods;
   \   00000024   4C009FE5           LDR      R0,??maincsm_oncreate_0+0x4  ;; gui_methods
   \   00000028   006085E5           STR      R6,[R5, #+0]
   \   0000002C   040085E5           STR      R0,[R5, #+4]
    965            main_gui->gui.item_ll.data_mfree=(void (*)(void *))mfree_adr();
   \   00000030   158000EF           SWI      +32789
   \   00000034   200085E5           STR      R0,[R5, #+32]
    966            patch_rect((RECT*)&Canvas,0,YDISP,ScreenW()-1,ScreenH()-1);
   \   00000038   898100EF           SWI      +33161
   \   0000003C   0070A0E1           MOV      R7,R0
   \   00000040   888100EF           SWI      +33160
   \   00000044   011047E2           SUB      R1,R7,#+1
   \   00000048   010040E2           SUB      R0,R0,#+1
   \   0000004C   0020A0E3           MOV      R2,#+0
   \   00000050   002086E5           STR      R2,[R6, #+0]
   \   00000054   B400C6E1           STRH     R0,[R6, #+4]
   \   00000058   B610C6E1           STRH     R1,[R6, #+6]
    967            csm->csm.state=0;
   \   0000005C   102084E5           STR      R2,[R4, #+16]
    968            csm->csm.unk1=0;
   \   00000060   142084E5           STR      R2,[R4, #+20]
    969            csm->gui_id=CreateGUI(main_gui);
   \   00000064   0500A0E1           MOV      R0,R5
   \   00000068   370100EF           SWI      +311
   \   0000006C   280084E5           STR      R0,[R4, #+40]
    970          }
   \   00000070   F080BDE8           POP      {R4-R7,PC}       ;; return
   \                     ??maincsm_oncreate_0:
   \   00000074   ........           DC32     Canvas
   \   00000078   ........           DC32     gui_methods
    971          
    972          

   \                                 In segment CODE, align 4, keep-with-next
    973          void maincsm_onclose(CSM_RAM *csm)
    974          {
    975            //SUBPROC((void *)ElfKiller);
    976          }
   \                     maincsm_onclose:
   \   00000000   1EFF2FE1           BX       LR               ;; return
    977          

   \                                 In segment CODE, align 4, keep-with-next
    978          int maincsm_onmessage(CSM_RAM *data, GBS_MSG *msg)
    979          {
    980            MAIN_CSM *csm=(MAIN_CSM*)data;
    981             if ((msg->msg==MSG_GUI_DESTROYED)&&((int)msg->data0==csm->gui_id))
   \                     maincsm_onmessage:
   \   00000000   043091E5           LDR      R3,[R1, #+4]
   \   00000004   0220E0E3           MVN      R2,#+2
   \   00000008   0EC0A0E3           MOV      R12,#+14
   \   0000000C   64CC8CE3           ORR      R12,R12,#0x6400
   \   00000010   0C0053E1           CMP      R3,R12
   \   00000014   0400001A           BNE      ??maincsm_onmessage_0
   \   00000018   0C3091E5           LDR      R3,[R1, #+12]
   \   0000001C   28C090E5           LDR      R12,[R0, #+40]
   \   00000020   0C0053E1           CMP      R3,R12
   \   00000024   0300001A           BNE      ??maincsm_onmessage_1
    982            {
    983              csm->csm.state=-3;
   \   00000028   102080E5           STR      R2,[R0, #+16]
    984            } 
    985            if (msg->msg==MSG_INCOMMING_CALL)
   \                     ??maincsm_onmessage_0:
   \   0000002C   041091E5           LDR      R1,[R1, #+4]
   \   00000030   600C51E3           CMP      R1,#+24576
    986            {
    987              csm->csm.state=-3;
   \   00000034   10208005           STREQ    R2,[R0, #+16]
    988            }
    989            return(1); 
   \                     ??maincsm_onmessage_1:
   \   00000038   0100A0E3           MOV      R0,#+1
   \   0000003C   1EFF2FE1           BX       LR               ;; return
    990          }
    991          
    992          const struct
    993          {
    994            CSM_DESC maincsm;
    995            WSHDR maincsm_name;

   \                                 In segment DATA_C, align 4, align-sorted
    996          }MAINCSM =
   \                     MAINCSM:
   \   00000000   ............       DC32 maincsm_onmessage, maincsm_oncreate, 0, 0, 0, 0, maincsm_onclose
   \              ....00000000
   \              000000000000
   \              000000000000
   \              ........    
   \   0000001C   2C0000000100       DC32 44, 1, minus11, maincsm_name_body, 55AACCCCH, 3333AA55H, 0, 139
   \              0000........
   \              ........CCCC
   \              AA5555AA3333
   \              000000008B00
   \              0000        
    997          {
    998            {
    999            maincsm_onmessage,
   1000            maincsm_oncreate,
   1001          #ifdef NEWSGOLD
   1002            0,
   1003            0,
   1004            0,
   1005            0,
   1006          #endif
   1007            maincsm_onclose,
   1008            sizeof(MAIN_CSM),
   1009            1,
   1010            &minus11
   1011            },
   1012            {
   1013              maincsm_name_body,
   1014              NAMECSM_MAGIC1,
   1015              NAMECSM_MAGIC2,
   1016              0x0,
   1017              139
   1018            }
   1019          };
   1020          

   \                                 In segment CODE, align 4, keep-with-next
   1021          void UpdateCSMname(void)
   1022          {
   \                     UpdateCSMname:
   \   00000000   10402DE9           PUSH     {R4,LR}
   1023            WSHDR *ws=AllocWS(256);
   \   00000004   400FA0E3           MOV      R0,#+256
   \   00000008   250100EF           SWI      +293
   1024            wsprintf((WSHDR *)(&MAINCSM.maincsm_name),"xtask 3 mod");
   \   0000000C   14109FE5           LDR      R1,??UpdateCSMname_0  ;; `?<Constant "xtask 3 mod">`
   \   00000010   0040A0E1           MOV      R4,R0
   \   00000014   10009FE5           LDR      R0,??UpdateCSMname_0+0x4  ;; MAINCSM + 40
   \   00000018   240100EF           SWI      +292
   1025            FreeWS(ws);
   \   0000001C   0400A0E1           MOV      R0,R4
   \   00000020   290100EF           SWI      +297
   1026          }
   \   00000024   1080BDE8           POP      {R4,PC}          ;; return
   \                     ??UpdateCSMname_0:
   \   00000028   ........           DC32     `?<Constant "xtask 3 mod">`
   \   0000002C   ........           DC32     MAINCSM + 40
   1027          /*
   1028          CSM_RAM *GetUnderIdleCSM(void)
   1029          {
   1030            CSM_RAM *u;
   1031            CSM_DESC *UnderIdleDesc;
   1032            UnderIdleDesc=(CSM_DESC *)strtoul((char *)"A042B384",0,0x10);
   1033            LockSched();
   1034            u=CSM_root()->csm_q->csm.first;
   1035            while(u && u->constr!=UnderIdleDesc) u=u->next;
   1036            UnlockSched();
   1037            return u;
   1038          }*/
   1039          
   1040          extern const char UNDER_IDLE_CONSTR[];
   1041          extern const char *successed_config_filename;
   1042          

   \                                 In segment CODE, align 4, keep-with-next
   1043          CSM_RAM *GetUnderIdleCSM(void)
   1044          {
   \                     GetUnderIdleCSM:
   \   00000000   30402DE9           PUSH     {R4,R5,LR}
   1045            CSM_RAM *u;
   1046            CSM_DESC *UnderIdleDesc;
   1047            if (strlen((char *)UNDER_IDLE_CONSTR)==8)
   \   00000004   88409FE5           LDR      R4,??GetUnderIdleCSM_0  ;; UNDER_IDLE_CONSTR
   \   00000008   0400A0E1           MOV      R0,R4
   \   0000000C   1B0000EF           SWI      +27
   \   00000010   080050E3           CMP      R0,#+8
   \   00000014   0500001A           BNE      ??GetUnderIdleCSM_1
   1048            {
   1049              UnderIdleDesc=(CSM_DESC *)strtoul((char *)UNDER_IDLE_CONSTR,0,0x10);
   \   00000018   1020A0E3           MOV      R2,#+16
   \   0000001C   0010A0E3           MOV      R1,#+0
   \   00000020   0400A0E1           MOV      R0,R4
   \   00000024   ........           _BLF     strtoul,??strtoul??rA
   \   00000028   0050A0E1           MOV      R5,R0
   \   0000002C   0B0000EA           B        ??GetUnderIdleCSM_2
   1050            }
   1051            else
   1052            {
   1053              UnderIdleDesc=((CSM_RAM *)(FindCSMbyID(CSM_root()->idle_id))->prev)->constr;
   \                     ??GetUnderIdleCSM_1:
   \   00000030   068100EF           SWI      +33030
   \   00000034   040090E5           LDR      R0,[R0, #+4]
   \   00000038   080100EF           SWI      +264
   \   0000003C   040090E5           LDR      R0,[R0, #+4]
   1054              sprintf((char *)UNDER_IDLE_CONSTR,"%08X",UnderIdleDesc);
   \   00000040   50109FE5           LDR      R1,??GetUnderIdleCSM_0+0x4  ;; `?<Constant "%08X">`
   \   00000044   085090E5           LDR      R5,[R0, #+8]
   \   00000048   0400A0E1           MOV      R0,R4
   \   0000004C   0520A0E1           MOV      R2,R5
   \   00000050   160000EF           SWI      +22
   1055              SaveConfigData(successed_config_filename);
   \   00000054   ........           LDR      R0,??DataTable93  ;; successed_config_filename
   \   00000058   000090E5           LDR      R0,[R0, #+0]
   \   0000005C   ........           _BLF     SaveConfigData,??SaveConfigData??rA
   1056            }
   1057            LockSched();
   \                     ??GetUnderIdleCSM_2:
   \   00000060   460100EF           SWI      +326
   1058            u=CSM_root()->csm_q->csm.first;
   \   00000064   068100EF           SWI      +33030
   \   00000068   080090E5           LDR      R0,[R0, #+8]
   \   0000006C   084090E5           LDR      R4,[R0, #+8]
   \   00000070   000000EA           B        ??GetUnderIdleCSM_3
   1059            while(u && u->constr!=UnderIdleDesc) u=u->next;
   \                     ??GetUnderIdleCSM_4:
   \   00000074   004094E5           LDR      R4,[R4, #+0]
   \                     ??GetUnderIdleCSM_3:
   \   00000078   000054E3           CMP      R4,#+0
   \   0000007C   08009415           LDRNE    R0,[R4, #+8]
   \   00000080   05005011           CMPNE    R0,R5
   \   00000084   FAFFFF1A           BNE      ??GetUnderIdleCSM_4
   1060            UnlockSched();
   \   00000088   470100EF           SWI      +327
   1061            return u;
   \   0000008C   0400A0E1           MOV      R0,R4
   \   00000090   3080BDE8           POP      {R4,R5,PC}       ;; return
   \                     ??GetUnderIdleCSM_0:
   \   00000094   ........           DC32     UNDER_IDLE_CONSTR
   \   00000098   ........           DC32     `?<Constant "%08X">`
   1062          }
   1063          
   1064          //------------add on---------------------------//
   1065          #ifdef NEWSGOLD
   1066           #define USE_ONE_KEY
   1067          #endif
   1068          
   1069          #define TMR_SECOND(A) (1300L*A/6)
   1070          

   \                                 In segment DATA_Z, align 4, align-sorted
   1071          volatile int SHOW_LOCK;
   \                     SHOW_LOCK:
   \   00000000                      DS8 4
   1072          

   \                                 In segment DATA_Z, align 4, align-sorted
   1073          CSM_DESC icsmd;
   \                     icsmd:
   \   00000000                      DS8 40

   \                                 In segment DATA_Z, align 4, align-sorted
   1074          int (*old_icsm_onMessage)(CSM_RAM*,GBS_MSG*);
   \                     old_icsm_onMessage:
   \   00000000                      DS8 4

   \                                 In segment DATA_Z, align 4, align-sorted
   1075          void (*old_icsm_onClose)(CSM_RAM*);
   \                     old_icsm_onClose:
   \   00000000                      DS8 4
   1076          
   1077          

   \                                 In segment DATA_Z, align 4, align-sorted
   1078          CSM_RAM *under_idle;
   \                     under_idle:
   \   00000000                      DS8 4
   1079          
   1080          extern const int ACTIVE_KEY;
   1081          extern const int ACTIVE_KEY_STYLE;
   1082          extern const int RED_BUT_MODE;
   1083          extern const int ENA_LONG_PRESS;
   1084          extern const int ENA_LOCK;
   1085          
   1086          extern const char *successed_config_filename;
   1087          
   1088          

   \                                 In segment DATA_Z, align 4, align-sorted
   1089          int mode;
   \                     mode:
   \   00000000                      DS8 4
   1090          

   \                                 In segment DATA_Z, align 4, align-sorted
   1091          int mode_red;
   \                     mode_red:
   \   00000000                      DS8 4
   1092          

   \                                 In segment DATA_Z, align 4, align-sorted
   1093          int mode_enter;
   \                     mode_enter:
   \   00000000                      DS8 4
   1094          
   1095          

   \                                 In segment CODE, align 4, keep-with-next
   1096          void ShowMenu()
   1097          {
   \                     ShowMenu:
   \   00000000   10402DE9           PUSH     {R4,LR}
   1098            if(!IsGuiOnTop(MAINCSM_ID))
   \   00000004   ........           LDR      R4,??DataTable89  ;; MAINCSM_ID
   \   00000008   2CD04DE2           SUB      SP,SP,#+44
   \   0000000C   000094E5           LDR      R0,[R4, #+0]
   \   00000010   350100EF           SWI      +309
   \   00000014   000050E3           CMP      R0,#+0
   \   00000018   1A00001A           BNE      ??ShowMenu_0
   1099            {
   1100              pos=1;
   \   0000001C   ........           LDR      R1,??DataTable77  ;; pos
   1101              total_pos=1;
   1102              move_skip=0;
   \   00000020   ........           LDR      R2,??DataTable78  ;; move_skip
   \   00000024   0100A0E3           MOV      R0,#+1
   \   00000028   000081E5           STR      R0,[R1, #+0]
   \   0000002C   ........           LDR      R1,??DataTable91  ;; total_pos
   \   00000030   000081E5           STR      R0,[R1, #+0]
   \   00000034   0010A0E3           MOV      R1,#+0
   \   00000038   001082E5           STR      R1,[R2, #+0]
   1103              task_list=1;
   \   0000003C   ........           LDR      R2,??DataTable87  ;; task_list
   \   00000040   000082E5           STR      R0,[R2, #+0]
   1104              time_not=1;
   \   00000044   ........           LDR      R2,??DataTable81  ;; time_not
   \   00000048   000082E5           STR      R0,[R2, #+0]
   1105              sm=0;
   \   0000004C   ........           LDR      R2,??DataTable82  ;; sm
   \   00000050   001082E5           STR      R1,[R2, #+0]
   1106              forward=1;
   \   00000054   ........           LDR      R2,??DataTable83  ;; forward
   \   00000058   000082E5           STR      R0,[R2, #+0]
   1107              logout=0;
   \   0000005C   2C009FE5           LDR      R0,??ShowMenu_1  ;; logout
   \   00000060   001080E5           STR      R1,[R0, #+0]
   1108              total_d=GetNumberOfDialogs()-1;
   \   00000064   ........           _BLF     GetNumberOfDialogs,??GetNumberOfDialogs??rA
   \   00000068   ........           LDR      R1,??DataTable90  ;; total_d
   \   0000006C   010040E2           SUB      R0,R0,#+1
   \   00000070   000081E5           STR      R0,[R1, #+0]
   1109              char dummy[sizeof(MAIN_CSM)];
   1110              MAINCSM_ID = CreateCSM(&MAINCSM.maincsm,dummy,2);
   \   00000074   18009FE5           LDR      R0,??ShowMenu_1+0x4  ;; MAINCSM
   \   00000078   0220A0E3           MOV      R2,#+2
   \   0000007C   0D10A0E1           MOV      R1,SP
   \   00000080   070100EF           SWI      +263
   \   00000084   000084E5           STR      R0,[R4, #+0]
   1111            }
   1112          }
   \                     ??ShowMenu_0:
   \   00000088   2CD08DE2           ADD      SP,SP,#+44       ;; stack cleaning
   \   0000008C   1080BDE8           POP      {R4,PC}          ;; return
   \                     ??ShowMenu_1:
   \   00000090   ........           DC32     logout
   \   00000094   ........           DC32     MAINCSM
   1113          
   1114          

   \                                 In segment CODE, align 4, keep-with-next
   1115          int my_keyhook(int submsg, int msg)
   1116          {
   \                     my_keyhook:
   \   00000000   F04F2DE9           PUSH     {R4-R11,LR}
   \   00000004   04D04DE2           SUB      SP,SP,#+4
   \   00000008   0040A0E1           MOV      R4,R0
   \   0000000C   0150A0E1           MOV      R5,R1
   1117          #ifdef NEWSGOLD
   1118            void *icsm=FindCSMbyID(CSM_root()->idle_id);
   \   00000010   068100EF           SWI      +33030
   \   00000014   040090E5           LDR      R0,[R0, #+4]
   \   00000018   0960A0E3           MOV      R6,#+9
   \   0000001C   080100EF           SWI      +264
   \   00000020   00B0A0E1           MOV      R11,R0
   \   00000024   426C86E3           ORR      R6,R6,#0x4200
   \   00000028   0170A0E3           MOV      R7,#+1
   \   0000002C   9380A0E3           MOV      R8,#+147
   \   00000030   408F88E3           ORR      R8,R8,#0x100
   \   00000034   0090A0E3           MOV      R9,#+0
   \   00000038   0C0054E3           CMP      R4,#+12
   \   0000003C   1600001A           BNE      ??my_keyhook_0
   \   00000040   A4139FE5           LDR      R1,??my_keyhook_1  ;; RED_BUT_MODE
   \   00000044   001091E5           LDR      R1,[R1, #+0]
   \   00000048   00108DE5           STR      R1,[SP, #+0]
   \   0000004C   000051E3           CMP      R1,#+0
   \   00000050   1100000A           BEQ      ??my_keyhook_0
   1119            if ((submsg==RED_BUTTON)&&(RED_BUT_MODE))
   1120            {
   1121              if ((CSM_root()->csm_q->csm.last==icsm)||(IsCalling())) //(IsGuiOnTop(((int *)icsm)[DISPLACE_OF_IDLEGUI_ID/4]))
   \   00000054   94A39FE5           LDR      R10,??my_keyhook_1+0x4  ;; mode_red
   \   00000058   068100EF           SWI      +33030
   \   0000005C   080090E5           LDR      R0,[R0, #+8]
   \   00000060   0C0090E5           LDR      R0,[R0, #+12]
   \   00000064   0B0050E1           CMP      R0,R11
   \   00000068   0200000A           BEQ      ??my_keyhook_2
   \   0000006C   6E0000EF           SWI      +110
   \   00000070   000050E3           CMP      R0,#+0
   \   00000074   1400000A           BEQ      ??my_keyhook_3
   1122              {
   1123                if (msg==KEY_UP)
   \                     ??my_keyhook_2:
   \   00000078   650F55E3           CMP      R5,#+404
   \   0000007C   0400001A           BNE      ??my_keyhook_4
   1124                {
   1125          	if (mode_red!=2)
   \   00000080   00009AE5           LDR      R0,[R10, #+0]
   \   00000084   020050E3           CMP      R0,#+2
   \   00000088   0200000A           BEQ      ??my_keyhook_5
   1126          	{
   1127          	  mode_red=0;
   \   0000008C   00908AE5           STR      R9,[R10, #+0]
   1128          	  return KEYHOOK_BREAK;
   \   00000090   2B0000EA           B        ??my_keyhook_6
   1129          	}
   1130                }
   1131                mode_red=2; //????? ?? ??????????
   \                     ??my_keyhook_4:
   \   00000094   0200A0E3           MOV      R0,#+2
   \                     ??my_keyhook_5:
   \   00000098   00008AE5           STR      R0,[R10, #+0]
   1132              }
   1133              else
   1134              {
   1135                if (msg==KEY_DOWN)
   1136                {
   1137          	if (mode_red==1)
   1138          	{
   1139          	  mode_red=0;
   1140          	  return KEYHOOK_NEXT; //Long press, continue with REDB PRESS
   1141          	}
   1142                }
   1143                if (msg==KEY_UP)
   1144                {
   1145          	if (mode_red)
   1146          	{
   1147          	  mode_red=0; //Release after longpress
   1148          	  return KEYHOOK_NEXT;
   1149          	}
   1150          	else
   1151          	  //Release after short press
   1152          	{
   1153                    if (RED_BUT_MODE==1)
   1154                    {
   1155                      if((task_list!=3)&&(task_list!=2)) GBS_SendMessage(MMI_CEPID,KEY_DOWN,RIGHT_SOFT);
   1156                    }
   1157                    else
   1158                    {
   1159          	    if (!MAINCSM_ID)
   1160          	    {
   1161          	      CSMtoTop(CSM_root()->idle_id,-1);
   1162          	    }
   1163                    }
   1164          	}
   1165                }
   1166                if (msg==LONG_PRESS)
   1167                {
   1168          	mode_red=1;
   1169          	if((task_list!=3)&&(task_list!=2)) GBS_SendMessage(MMI_CEPID,KEY_DOWN,RED_BUTTON);
   1170                }
   1171                return KEYHOOK_BREAK;
   1172              }
   1173            }
   1174          #endif
   1175          //#ifndef NEWSGOLD
   1176            if (ACTIVE_KEY_STYLE==3)
   \                     ??my_keyhook_0:
   \   0000009C   50139FE5           LDR      R1,??my_keyhook_1+0x8  ;; ENA_LOCK
   \   000000A0   ........           LDR      R0,??DataTable87  ;; task_list
   \   000000A4   00A091E5           LDR      R10,[R1, #+0]
   \   000000A8   48139FE5           LDR      R1,??my_keyhook_1+0xC  ;; ACTIVE_KEY_STYLE
   \   000000AC   000090E5           LDR      R0,[R0, #+0]
   \   000000B0   001091E5           LDR      R1,[R1, #+0]
   \   000000B4   ........           LDR      R11,??DataTable127  ;; mode
   \   000000B8   030051E3           CMP      R1,#+3
   \   000000BC   5B00001A           BNE      ??my_keyhook_7
   1177            {
   1178              if (submsg!=ENTER_BUTTON) return KEYHOOK_NEXT;
   \   000000C0   1A0054E3           CMP      R4,#+26
   \   000000C4   2C00000A           BEQ      ??my_keyhook_8
   \   000000C8   3B0000EA           B        ??my_keyhook_9
   \                     ??my_keyhook_3:
   \   000000CC   00009AE5           LDR      R0,[R10, #+0]
   \   000000D0   080055E1           CMP      R5,R8
   \   000000D4   0400001A           BNE      ??my_keyhook_10
   \   000000D8   010050E3           CMP      R0,#+1
   \   000000DC   8800001A           BNE      ??my_keyhook_11
   \                     ??my_keyhook_12:
   \   000000E0   00908AE5           STR      R9,[R10, #+0]
   \                     ??my_keyhook_13:
   \   000000E4   0000A0E3           MOV      R0,#+0
   \   000000E8   F28FBDE8           POP      {R1,R4-R11,PC}
   \                     ??my_keyhook_10:
   \   000000EC   ........           LDR      R1,??DataTable87  ;; task_list
   \   000000F0   650F55E3           CMP      R5,#+404
   \   000000F4   001091E5           LDR      R1,[R1, #+0]
   \   000000F8   1300001A           BNE      ??my_keyhook_14
   \   000000FC   000050E3           CMP      R0,#+0
   \   00000100   F6FFFF1A           BNE      ??my_keyhook_12
   \   00000104   00009DE5           LDR      R0,[SP, #+0]
   \   00000108   010050E3           CMP      R0,#+1
   \   0000010C   0400001A           BNE      ??my_keyhook_15
   \   00000110   030051E3           CMP      R1,#+3
   \   00000114   02005113           CMPNE    R1,#+2
   \   00000118   7900000A           BEQ      ??my_keyhook_11
   \   0000011C   0420A0E3           MOV      R2,#+4
   \   00000120   110000EA           B        ??my_keyhook_16
   \                     ??my_keyhook_15:
   \   00000124   ........           LDR      R0,??DataTable89  ;; MAINCSM_ID
   \   00000128   000090E5           LDR      R0,[R0, #+0]
   \   0000012C   000050E3           CMP      R0,#+0
   \   00000130   7300001A           BNE      ??my_keyhook_11
   \   00000134   068100EF           SWI      +33030
   \   00000138   040090E5           LDR      R0,[R0, #+4]
   \   0000013C   001067E2           RSB      R1,R7,#+0
   \   00000140   ........           _BLF     CSMtoTop,??CSMtoTop??rA
   \                     ??my_keyhook_6:
   \   00000144   0200A0E3           MOV      R0,#+2
   \   00000148   F28FBDE8           POP      {R1,R4-R11,PC}
   \                     ??my_keyhook_14:
   \   0000014C   650F87E3           ORR      R0,R7,#0x194
   \   00000150   000055E1           CMP      R5,R0
   \   00000154   6A00001A           BNE      ??my_keyhook_11
   \   00000158   00708AE5           STR      R7,[R10, #+0]
   \   0000015C   030051E3           CMP      R1,#+3
   \   00000160   02005113           CMPNE    R1,#+2
   \   00000164   6600000A           BEQ      ??my_keyhook_11
   \   00000168   0C20A0E3           MOV      R2,#+12
   \                     ??my_keyhook_16:
   \   0000016C   0810A0E1           MOV      R1,R8
   \   00000170   0600A0E1           MOV      R0,R6
   \   00000174   000100EF           SWI      +256
   \   00000178   F1FFFFEA           B        ??my_keyhook_6
   1179          /*    if (my_csm_id)
   1180              {
   1181                if (((CSM_RAM *)(CSM_root()->csm_q->csm.last))->id!=my_csm_id)
   1182                {
   1183                  CloseCSM(my_csm_id);
   1184                }
   1185                return KEYHOOK_NEXT;
   1186              }*/
   1187              switch(msg)
   \                     ??my_keyhook_8:
   \   0000017C   78229FE5           LDR      R2,??my_keyhook_1+0x10  ;; mode_enter
   \   00000180   080055E1           CMP      R5,R8
   \   00000184   003092E5           LDR      R3,[R2, #+0]
   \   00000188   0500000A           BEQ      ??my_keyhook_17
   \   0000018C   650F55E3           CMP      R5,#+404
   \   00000190   0D00000A           BEQ      ??my_keyhook_18
   \   00000194   65EF87E3           ORR      LR,R7,#0x194
   \   00000198   0E0055E1           CMP      R5,LR
   \   0000019C   1B00000A           BEQ      ??my_keyhook_19
   \   000001A0   220000EA           B        ??my_keyhook_7
   1188              {
   1189              case KEY_DOWN:
   1190                if (mode_enter==2)
   \                     ??my_keyhook_17:
   \   000001A4   020053E3           CMP      R3,#+2
   \   000001A8   0500001A           BNE      ??my_keyhook_20
   1191                {
   1192          	GBS_SendMessage(MMI_CEPID,KEY_UP,ENTER_BUTTON);
   \   000001AC   1A20A0E3           MOV      R2,#+26
   \   000001B0   651FA0E3           MOV      R1,#+404
   \   000001B4   0600A0E1           MOV      R0,R6
   \   000001B8   000100EF           SWI      +256
   1193          	return KEYHOOK_NEXT;
   \                     ??my_keyhook_9:
   \   000001BC   0000A0E3           MOV      R0,#+0
   \   000001C0   F28FBDE8           POP      {R1,R4-R11,PC}
   1194                }
   1195                mode_enter=0;
   \                     ??my_keyhook_20:
   \   000001C4   009082E5           STR      R9,[R2, #+0]
   1196                return KEYHOOK_BREAK;
   \   000001C8   DDFFFFEA           B        ??my_keyhook_6
   1197              case KEY_UP:
   1198                if (mode_enter==0)
   \                     ??my_keyhook_18:
   \   000001CC   000053E3           CMP      R3,#+0
   \   000001D0   0A00001A           BNE      ??my_keyhook_21
   1199                {
   1200                  mode_enter=2;
   \   000001D4   0210A0E3           MOV      R1,#+2
   \   000001D8   001082E5           STR      R1,[R2, #+0]
   1201                  if((task_list!=3)&&(task_list!=2)) GBS_SendMessage(MMI_CEPID,KEY_DOWN,ENTER_BUTTON);
   \   000001DC   030050E3           CMP      R0,#+3
   \   000001E0   4700000A           BEQ      ??my_keyhook_11
   \   000001E4   020050E3           CMP      R0,#+2
   \   000001E8   F28FBD08           POPEQ    {R1,R4-R11,PC}
   \   000001EC   1A20A0E3           MOV      R2,#+26
   \   000001F0   0810A0E1           MOV      R1,R8
   \   000001F4   0600A0E1           MOV      R0,R6
   \   000001F8   000100EF           SWI      +256
   1202                  return KEYHOOK_BREAK;
   \                     ??my_keyhook_22:
   \   000001FC   400000EA           B        ??my_keyhook_11
   1203                }
   1204                if (mode_enter==2)
   \                     ??my_keyhook_21:
   \   00000200   020053E3           CMP      R3,#+2
   \   00000204   EEFFFF1A           BNE      ??my_keyhook_20
   1205                {
   1206                  mode_enter=0;
   \   00000208   009082E5           STR      R9,[R2, #+0]
   1207                  return KEYHOOK_NEXT;
   \   0000020C   EAFFFFEA           B        ??my_keyhook_9
   1208                }
   1209                mode_enter=0;
   1210                return KEYHOOK_BREAK;      
   1211              case LONG_PRESS:
   1212                mode_enter=1;
   \                     ??my_keyhook_19:
   \   00000210   007082E5           STR      R7,[R2, #+0]
   1213                if (IsUnlocked()||ENA_LOCK)
   \   00000214   430000EF           SWI      +67
   \   00000218   000050E3           CMP      R0,#+0
   \   0000021C   00005A03           CMPEQ    R10,#+0
   \   00000220   0000000A           BEQ      ??my_keyhook_23
   1214                {
   1215                  ShowMenu();
   \   00000224   ........           BL       ShowMenu
   1216                }
   1217                mode=0;
   \                     ??my_keyhook_23:
   \   00000228   00908BE5           STR      R9,[R11, #+0]
   1218                return KEYHOOK_BREAK;
   \   0000022C   C4FFFFEA           B        ??my_keyhook_6
   1219              }
   1220            }
   1221            // * + # implementation
   1222            if ((ACTIVE_KEY_STYLE==2) && !(MAINCSM_ID))
   \                     ??my_keyhook_7:
   \   00000230   ........           LDR      R2,??DataTable89  ;; MAINCSM_ID
   \   00000234   00309BE5           LDR      R3,[R11, #+0]
   \   00000238   002092E5           LDR      R2,[R2, #+0]
   \   0000023C   020051E3           CMP      R1,#+2
   \   00000240   1600001A           BNE      ??my_keyhook_24
   \   00000244   000052E3           CMP      R2,#+0
   \   00000248   A5FFFF1A           BNE      ??my_keyhook_13
   1223            {
   1224              if (msg==KEY_UP)
   \   0000024C   650F55E3           CMP      R5,#+404
   1225              {
   1226                mode=0;
   \   00000250   00908B05           STREQ    R9,[R11, #+0]
   1227                return KEYHOOK_NEXT;
   \   00000254   A2FFFF0A           BEQ      ??my_keyhook_13
   1228              }
   1229              if (msg==KEY_DOWN)
   \   00000258   080055E1           CMP      R5,R8
   \   0000025C   A0FFFF1A           BNE      ??my_keyhook_13
   1230              {
   1231                switch (submsg)
   \   00000260   23C054E2           SUBS     R12,R4,#+35
   \   00000264   0300000A           BEQ      ??my_keyhook_25
   \   00000268   07C05CE2           SUBS     R12,R12,#+7
   \   0000026C   0B00001A           BNE      ??my_keyhook_24
   1232                {
   1233                case '*':
   1234                  mode=1;
   \   00000270   00708BE5           STR      R7,[R11, #+0]
   1235                  return (0);
   \   00000274   D0FFFFEA           B        ??my_keyhook_9
   1236                case '#':
   1237                  if (mode==1)
   \                     ??my_keyhook_25:
   \   00000278   010053E3           CMP      R3,#+1
   \   0000027C   98FFFF1A           BNE      ??my_keyhook_13
   1238                  {
   1239                    if (IsUnlocked()||ENA_LOCK)
   \   00000280   430000EF           SWI      +67
   \   00000284   000050E3           CMP      R0,#+0
   \   00000288   00005A03           CMPEQ    R10,#+0
   \   0000028C   0100000A           BEQ      ??my_keyhook_26
   1240                      ShowMenu();
   \   00000290   ........           BL       ShowMenu
   1241                    else mode=0;
   1242                  }
   1243                  else return KEYHOOK_NEXT;
   1244                }
   1245              }
   1246            }
   1247          //#endif
   1248            if (ACTIVE_KEY_STYLE<2)
   1249            {
   1250              if (submsg!=ACTIVE_KEY) return KEYHOOK_NEXT;
   1251              if (MAINCSM_ID)
   1252              {
   1253          /*      if (((CSM_RAM *)(CSM_root()->csm_q->csm.last))->id!=my_csm_id)
   1254                {
   1255          	CloseCSM(my_csm_id);
   1256                }*/
   1257                if (msg==KEY_UP)
   1258                {
   1259                  total_pos=2;
   1260                  if(total_pos>total_d) total_pos--;
   1261          	if((task_list!=3)&&(task_list!=2)) GBS_SendMessage(MMI_CEPID,KEY_DOWN,ENTER_BUTTON);
   1262                }
   1263                return KEYHOOK_BREAK;
   1264              }
   1265              switch(msg)
   1266              {
   1267              case KEY_DOWN:
   1268                mode=0;
   1269                if (ACTIVE_KEY_STYLE==0)
   1270          	return KEYHOOK_BREAK;
   1271                else 
   1272          	return KEYHOOK_NEXT;
   1273              case KEY_UP:
   1274                if (mode==1)
   1275                {
   1276          	//Release after longpress
   1277          	mode=0;
   1278          	if ((ACTIVE_KEY_STYLE==1) || (ENA_LONG_PRESS==3))
   1279          	{
   1280          	  //Launch on LongPress or Extra on LP - Launch
   1281          	  if (IsUnlocked()||ENA_LOCK)
   1282          	  {
   1283          	    ShowMenu();
   1284          	  }
   1285          	  return KEYHOOK_BREAK;
   1286          	}
   1287                  if (ENA_LONG_PRESS==1) return KEYHOOK_BREAK;
   1288          	if (ENA_LONG_PRESS==2)
   1289          	{
   1290          	  if ((task_list!=2)&&(task_list!=3)) CSMtoTop(CSM_root()->idle_id,-1);
   1291          	  return KEYHOOK_BREAK;
   1292          	}
   1293                  if (ENA_LONG_PRESS==4)
   1294                  {
   1295                    if ((task_list!=2)&&(task_list!=3)){
   1296                    CSMtoTop(CSM_root()->idle_id,-1);
   1297                    KbdLock();}
   1298                    return KEYHOOK_BREAK;
   1299                  }
   1300          	break;
   1301                }
   1302                if (ACTIVE_KEY_STYLE==0)
   1303                {
   1304          	if (IsUnlocked()||ENA_LOCK)
   1305          	{
   1306          	  ShowMenu();
   1307          	}
   1308          	return KEYHOOK_BREAK;
   1309                }
   1310                break;
   1311              case LONG_PRESS:
   1312                mode=1;
   1313          #ifndef NEWSGOLD
   1314                if (ACTIVE_KEY_STYLE==1)
   1315                {
   1316          	if (ENA_LONG_PRESS)
   1317          	  return KEYHOOK_NEXT;
   1318          	else 
   1319          	  return KEYHOOK_BREAK;
   1320                }
   1321          #else
   1322                return KEYHOOK_BREAK;
   1323          #endif
   1324              }
   1325            }
   1326            return KEYHOOK_NEXT;
   \   00000294   C8FFFFEA           B        ??my_keyhook_9
   \                     ??my_keyhook_26:
   \   00000298   00908BE5           STR      R9,[R11, #+0]
   \   0000029C   C6FFFFEA           B        ??my_keyhook_9
   \                     ??my_keyhook_24:
   \   000002A0   020051E3           CMP      R1,#+2
   \   000002A4   8EFFFFAA           BGE      ??my_keyhook_13
   \   000002A8   50C19FE5           LDR      R12,??my_keyhook_1+0x14  ;; ACTIVE_KEY
   \   000002AC   00C09CE5           LDR      R12,[R12, #+0]
   \   000002B0   0C0054E1           CMP      R4,R12
   \   000002B4   8AFFFF1A           BNE      ??my_keyhook_13
   \   000002B8   000052E3           CMP      R2,#+0
   \   000002BC   1200000A           BEQ      ??my_keyhook_27
   \   000002C0   650F55E3           CMP      R5,#+404
   \   000002C4   0E00001A           BNE      ??my_keyhook_11
   \   000002C8   ........           LDR      R2,??DataTable90  ;; total_d
   \   000002CC   0210A0E3           MOV      R1,#+2
   \   000002D0   002092E5           LDR      R2,[R2, #+0]
   \   000002D4   020052E3           CMP      R2,#+2
   \   000002D8   ........           LDR      R2,??DataTable91  ;; total_pos
   \   000002DC   0110A0B3           MOVLT    R1,#+1
   \   000002E0   001082E5           STR      R1,[R2, #+0]
   \   000002E4   030050E3           CMP      R0,#+3
   \   000002E8   0500000A           BEQ      ??my_keyhook_11
   \   000002EC   020050E3           CMP      R0,#+2
   \   000002F0   F28FBD08           POPEQ    {R1,R4-R11,PC}
   \   000002F4   1A20A0E3           MOV      R2,#+26
   \   000002F8   0810A0E1           MOV      R1,R8
   \   000002FC   0600A0E1           MOV      R0,R6
   \   00000300   000100EF           SWI      +256
   \                     ??my_keyhook_11:
   \   00000304   0200A0E3           MOV      R0,#+2
   \   00000308   F28FBDE8           POP      {R1,R4-R11,PC}
   \                     ??my_keyhook_27:
   \   0000030C   080055E1           CMP      R5,R8
   \   00000310   0500000A           BEQ      ??my_keyhook_28
   \   00000314   650F55E3           CMP      R5,#+404
   \   00000318   0700000A           BEQ      ??my_keyhook_29
   \   0000031C   022088E2           ADD      R2,R8,#+2
   \   00000320   020055E1           CMP      R5,R2
   \   00000324   2E00000A           BEQ      ??my_keyhook_30
   \   00000328   A3FFFFEA           B        ??my_keyhook_9
   \                     ??my_keyhook_28:
   \   0000032C   00908BE5           STR      R9,[R11, #+0]
   \   00000330   000051E3           CMP      R1,#+0
   \   00000334   6AFFFF1A           BNE      ??my_keyhook_13
   \   00000338   81FFFFEA           B        ??my_keyhook_6
   \                     ??my_keyhook_29:
   \   0000033C   010053E3           CMP      R3,#+1
   \   00000340   1F00001A           BNE      ??my_keyhook_31
   \   00000344   00908BE5           STR      R9,[R11, #+0]
   \   00000348   010051E3           CMP      R1,#+1
   \   0000034C   1E00000A           BEQ      ??my_keyhook_32
   \   00000350   AC109FE5           LDR      R1,??my_keyhook_1+0x18  ;; ENA_LONG_PRESS
   \   00000354   001091E5           LDR      R1,[R1, #+0]
   \   00000358   030051E3           CMP      R1,#+3
   \   0000035C   1A00000A           BEQ      ??my_keyhook_32
   \   00000360   010051E3           CMP      R1,#+1
   \   00000364   E6FFFF0A           BEQ      ??my_keyhook_11
   \   00000368   020051E3           CMP      R1,#+2
   \   0000036C   0800001A           BNE      ??my_keyhook_33
   \   00000370   020050E3           CMP      R0,#+2
   \   00000374   F28FBD08           POPEQ    {R1,R4-R11,PC}
   \   00000378   030050E3           CMP      R0,#+3
   \   0000037C   E0FFFF0A           BEQ      ??my_keyhook_11
   \   00000380   068100EF           SWI      +33030
   \   00000384   040090E5           LDR      R0,[R0, #+4]
   \   00000388   001067E2           RSB      R1,R7,#+0
   \   0000038C   ........           _BLF     CSMtoTop,??CSMtoTop??rA
   \                     ??my_keyhook_34:
   \   00000390   DBFFFFEA           B        ??my_keyhook_11
   \                     ??my_keyhook_33:
   \   00000394   040051E3           CMP      R1,#+4
   \   00000398   51FFFF1A           BNE      ??my_keyhook_13
   \   0000039C   020050E3           CMP      R0,#+2
   \   000003A0   F28FBD08           POPEQ    {R1,R4-R11,PC}
   \   000003A4   030050E3           CMP      R0,#+3
   \   000003A8   D5FFFF0A           BEQ      ??my_keyhook_11
   \   000003AC   068100EF           SWI      +33030
   \   000003B0   040090E5           LDR      R0,[R0, #+4]
   \   000003B4   001067E2           RSB      R1,R7,#+0
   \   000003B8   ........           _BLF     CSMtoTop,??CSMtoTop??rA
   \   000003BC   A90000EF           SWI      +169
   \                     ??my_keyhook_35:
   \   000003C0   CFFFFFEA           B        ??my_keyhook_11
   \                     ??my_keyhook_31:
   \   000003C4   000051E3           CMP      R1,#+0
   \   000003C8   45FFFF1A           BNE      ??my_keyhook_13
   \                     ??my_keyhook_32:
   \   000003CC   430000EF           SWI      +67
   \   000003D0   000050E3           CMP      R0,#+0
   \   000003D4   00005A03           CMPEQ    R10,#+0
   \   000003D8   C9FFFF0A           BEQ      ??my_keyhook_11
   \   000003DC   ........           BL       ShowMenu
   \                     ??my_keyhook_36:
   \   000003E0   C7FFFFEA           B        ??my_keyhook_11
   \                     ??my_keyhook_30:
   \   000003E4   00708BE5           STR      R7,[R11, #+0]
   \   000003E8   55FFFFEA           B        ??my_keyhook_6
   \                     ??my_keyhook_1:
   \   000003EC   ........           DC32     RED_BUT_MODE
   \   000003F0   ........           DC32     mode_red
   \   000003F4   ........           DC32     ENA_LOCK
   \   000003F8   ........           DC32     ACTIVE_KEY_STYLE
   \   000003FC   ........           DC32     mode_enter
   \   00000400   ........           DC32     ACTIVE_KEY
   \   00000404   ........           DC32     ENA_LONG_PRESS
   1327          }
   1328          

   \                                 In segment DATA_Z, align 4, align-sorted
   1329          volatile int callhide_mode=0;
   \                     callhide_mode:
   \   00000000                      DS8 4
   1330          
   1331          #pragma inline=forced
   1332          int toupper(int c)
   1333          {
   1334            if ((c>='a')&&(c<='z')) c+='A'-'a';
   1335            return(c);
   1336          }
   1337          

   \                                 In segment CODE, align 4, keep-with-next
   1338          int strcmp_nocase(const char *s1,const char *s2)
   1339          {
   1340            int i;
   1341            int c;
   1342            while(!(i=(c=toupper(*s1++))-toupper(*s2++))) if (!c) break;
   \                     strcmp_nocase:
   \                     ??strcmp_nocase_0:
   \   00000000   0020D0E5           LDRB     R2,[R0, #+0]
   \   00000004   610052E3           CMP      R2,#+97
   \   00000008   010000BA           BLT      ??strcmp_nocase_1
   \   0000000C   7B0052E3           CMP      R2,#+123
   \   00000010   202042B2           SUBLT    R2,R2,#+32
   \                     ??strcmp_nocase_1:
   \   00000014   00C0D1E5           LDRB     R12,[R1, #+0]
   \   00000018   010080E2           ADD      R0,R0,#+1
   \   0000001C   0230A0E1           MOV      R3,R2
   \   00000020   61005CE3           CMP      R12,#+97
   \   00000024   010000BA           BLT      ??strcmp_nocase_2
   \   00000028   7B005CE3           CMP      R12,#+123
   \   0000002C   20C04CB2           SUBLT    R12,R12,#+32
   \                     ??strcmp_nocase_2:
   \   00000030   011081E2           ADD      R1,R1,#+1
   \   00000034   0C2052E0           SUBS     R2,R2,R12
   \   00000038   0100001A           BNE      ??strcmp_nocase_3
   \   0000003C   000053E3           CMP      R3,#+0
   \   00000040   EEFFFF1A           BNE      ??strcmp_nocase_0
   1343            return(i);
   \                     ??strcmp_nocase_3:
   \   00000044   0200A0E1           MOV      R0,R2
   \   00000048   1EFF2FE1           BX       LR               ;; return
   1344          }
   1345          

   \                                 In segment DATA_C, align 4, align-sorted
   1346          const char my_ipc_name[]=IPC_XTASK_NAME;
   \                     my_ipc_name:
   \   00000000   585461736B00       DC8 "XTask"
   \   00000006   0000               DC8 0, 0
   1347          

   \                                 In segment CODE, align 4, keep-with-next
   1348          int MyIDLECSM_onMessage(CSM_RAM* data,GBS_MSG* msg)
   1349          {
   1350            int csm_result;
   1351            int icgui_id;
   1352            //  int ocgui_id;
   1353            int idlegui_id;
   1354            
   1355          #ifndef NEWSGOLD 
   1356          #define EXT_BUTTON 0x63  
   1357            if ((ACTIVE_KEY_STYLE!=2)&&(ACTIVE_KEY_STYLE!=3)) //?? "* + #" ? ?? "Enter Button"
   1358            {//???? ????? ???? ??????? ??????? ??? ???? ???????
   1359              if (ACTIVE_KEY==EXT_BUTTON) //?????? ?????? ????????
   1360              {
   1361                if (msg->msg==439) //?????? ???????
   1362                {
   1363                  switch (msg->submess) 
   1364                  {
   1365          	case 1:
   1366          	  if((task_list!=3)&&(task_list!=2)) GBS_SendMessage(MMI_CEPID,LONG_PRESS,EXT_BUTTON);
   1367                    break;
   1368          	case 2:
   1369          	  if((task_list!=3)&&(task_list!=2)) GBS_SendMessage(MMI_CEPID,KEY_UP,EXT_BUTTON);
   1370                    break; // ???????? default!!!
   1371                  }
   1372                }
   1373                else //??????? ?? ?????????
   1374          	goto L1;
   1375              }
   1376              else //?????? ?????? ?? ???????? ?????? ??????? ?????? ????????
   1377                goto L1;
   1378            }
   1379            else
   1380          L1:
   1381            csm_result=old_icsm_onMessage(data,msg);
   1382          #else    
   1383            csm_result = old_icsm_onMessage(data, msg); //???????? ?????? ?????????? ???????    
   \                     MyIDLECSM_onMessage:
   \   00000000   ........           LDR      R2,??DataTable126  ;; old_icsm_onMessage
   \   00000004   F04F2DE9           PUSH     {R4-R11,LR}
   1384          #endif
   1385            
   1386            icgui_id=((int *)data)[DISPLACE_OF_INCOMMINGGUI/4];
   1387            idlegui_id=((int *)data)[DISPLACE_OF_IDLEGUI_ID/4];
   1388            //  ocgui_id=((int *)data)[DISPLACE_OF_OUTGOINGGUI/4];
   1389            if (!icgui_id) callhide_mode=0;
   \   00000008   C0519FE5           LDR      R5,??MyIDLECSM_onMessage_0  ;; callhide_mode
   \   0000000C   04D04DE2           SUB      SP,SP,#+4
   \   00000010   002092E5           LDR      R2,[R2, #+0]
   \   00000014   0070A0E1           MOV      R7,R0
   \   00000018   0180A0E1           MOV      R8,R1
   \   0000001C   32FF2FE1           BLX      R2
   \   00000020   349097E5           LDR      R9,[R7, #+52]
   \   00000024   2C1097E5           LDR      R1,[R7, #+44]
   \   00000028   0040A0E1           MOV      R4,R0
   \   0000002C   00108DE5           STR      R1,[SP, #+0]
   \   00000030   0060A0E3           MOV      R6,#+0
   \   00000034   000059E3           CMP      R9,#+0
   \   00000038   00608505           STREQ    R6,[R5, #+0]
   1390            //  if (!ocgui_id) callhide_mode=0;
   1391            
   1392            if(msg->msg == MSG_RECONFIGURE_REQ) 
   \   0000003C   040098E5           LDR      R0,[R8, #+4]
   \   00000040   AF10A0E3           MOV      R1,#+175
   \   00000044   DE1C81E3           ORR      R1,R1,#0xDE00
   \   00000048   010050E1           CMP      R0,R1
   \   0000004C   0A00001A           BNE      ??MyIDLECSM_onMessage_1
   1393            {
   1394              if (strcmp_nocase(successed_config_filename,(char *)msg->data0)==0)
   \   00000050   ........           LDR      R0,??DataTable93  ;; successed_config_filename
   \   00000054   0C1098E5           LDR      R1,[R8, #+12]
   \   00000058   000090E5           LDR      R0,[R0, #+0]
   \   0000005C   ........           BL       strcmp_nocase
   \   00000060   000050E3           CMP      R0,#+0
   \   00000064   4700001A           BNE      ??MyIDLECSM_onMessage_2
   1395              {
   1396                ShowMSG(1,(int)"XTask config updated!");
   \   00000068   64119FE5           LDR      R1,??MyIDLECSM_onMessage_0+0x4  ;; `?<Constant "XTask config updated!">`
   \   0000006C   0100A0E3           MOV      R0,#+1
   \   00000070   480100EF           SWI      +328
   1397                InitConfig();
   \   00000074   ........           _BLF     InitConfig,??InitConfig??rA
   1398                init_turnoff();
   \   00000078   ........           BL       init_turnoff
   1399              }
   1400            }
   1401            //IPC
   1402            if (msg->msg==MSG_IPC)
   \                     ??MyIDLECSM_onMessage_1:
   \   0000007C   040098E5           LDR      R0,[R8, #+4]
   \   00000080   B010A0E3           MOV      R1,#+176
   \   00000084   DE1C81E3           ORR      R1,R1,#0xDE00
   \   00000088   010050E1           CMP      R0,R1
   \   0000008C   3900001A           BNE      ??MyIDLECSM_onMessage_3
   1403            {
   1404              IPC_REQ *ipc;
   1405              if ((ipc=(IPC_REQ*)msg->data0))
   \   00000090   0CA098E5           LDR      R10,[R8, #+12]
   \   00000094   00005AE3           CMP      R10,#+0
   \   00000098   3A00000A           BEQ      ??MyIDLECSM_onMessage_2
   1406              {
   1407                if (strcmp(ipc->name_to,my_ipc_name)==0)
   \   0000009C   00009AE5           LDR      R0,[R10, #+0]
   \   000000A0   30119FE5           LDR      R1,??MyIDLECSM_onMessage_0+0x8  ;; my_ipc_name
   \   000000A4   190000EF           SWI      +25
   \   000000A8   000050E3           CMP      R0,#+0
   \   000000AC   3100001A           BNE      ??MyIDLECSM_onMessage_3
   1408                {
   1409          	switch (msg->submess)
   \   000000B0   ........           LDR      R0,??DataTable94  ;; MAINCSM_ID
   \   000000B4   081098E5           LDR      R1,[R8, #+8]
   \   000000B8   000090E5           LDR      R0,[R0, #+0]
   \   000000BC   18B19FE5           LDR      R11,??MyIDLECSM_onMessage_0+0xC  ;; SHOW_LOCK
   \   000000C0   011051E2           SUBS     R1,R1,#+1
   \   000000C4   1A00000A           BEQ      ??MyIDLECSM_onMessage_4
   \   000000C8   011051E2           SUBS     R1,R1,#+1
   \   000000CC   0400000A           BEQ      ??MyIDLECSM_onMessage_5
   \   000000D0   011051E2           SUBS     R1,R1,#+1
   \   000000D4   1E00000A           BEQ      ??MyIDLECSM_onMessage_6
   \   000000D8   011051E2           SUBS     R1,R1,#+1
   \   000000DC   1F00000A           BEQ      ??MyIDLECSM_onMessage_7
   \   000000E0   240000EA           B        ??MyIDLECSM_onMessage_3
   1410          	{
   1411          	case IPC_XTASK_SHOW_CSM:
   1412          	  if (MAINCSM_ID) break;
   \                     ??MyIDLECSM_onMessage_5:
   \   000000E4   000050E3           CMP      R0,#+0
   \   000000E8   2200001A           BNE      ??MyIDLECSM_onMessage_3
   1413          	  if ((!IsCalling())&&(!SHOW_LOCK))
   \   000000EC   6E0000EF           SWI      +110
   \   000000F0   000050E3           CMP      R0,#+0
   \   000000F4   00009B05           LDREQ    R0,[R11, #+0]
   \   000000F8   00005003           CMPEQ    R0,#+0
   \   000000FC   1D00001A           BNE      ??MyIDLECSM_onMessage_3
   1414          	  {
   1415          	    if ((CSM_root()->csm_q->csm.last!=data)||IsGuiOnTop(idlegui_id))
   \   00000100   068100EF           SWI      +33030
   \   00000104   080090E5           LDR      R0,[R0, #+8]
   \   00000108   0C0090E5           LDR      R0,[R0, #+12]
   \   0000010C   070050E1           CMP      R0,R7
   \   00000110   0300001A           BNE      ??MyIDLECSM_onMessage_8
   \   00000114   00009DE5           LDR      R0,[SP, #+0]
   \   00000118   350100EF           SWI      +309
   \   0000011C   000050E3           CMP      R0,#+0
   \   00000120   1400000A           BEQ      ??MyIDLECSM_onMessage_3
   1416          	    {
   1417          	      CSMtoTop((int)(ipc->data),-1);
   \                     ??MyIDLECSM_onMessage_8:
   \   00000124   08009AE5           LDR      R0,[R10, #+8]
   \                     ??MyIDLECSM_onMessage_9:
   \   00000128   0610E0E1           MVN      R1,R6
   \   0000012C   ........           _BLF     CSMtoTop,??CSMtoTop??rA
   \   00000130   100000EA           B        ??MyIDLECSM_onMessage_3
   1418          	    }
   1419          	  }
   1420          	  break;
   1421          	case IPC_XTASK_IDLE:
   1422          	  if (MAINCSM_ID) break;
   \                     ??MyIDLECSM_onMessage_4:
   \   00000134   000050E3           CMP      R0,#+0
   \   00000138   0E00001A           BNE      ??MyIDLECSM_onMessage_3
   1423          	  if ((!IsCalling())/*&&(!SHOW_LOCK)*/)
   \   0000013C   6E0000EF           SWI      +110
   \   00000140   000050E3           CMP      R0,#+0
   \   00000144   0B00001A           BNE      ??MyIDLECSM_onMessage_3
   1424          	    CSMtoTop(CSM_root()->idle_id,-1);
   \   00000148   068100EF           SWI      +33030
   \   0000014C   040090E5           LDR      R0,[R0, #+4]
   \   00000150   F4FFFFEA           B        ??MyIDLECSM_onMessage_9
   1425          	  break;
   1426          	case IPC_XTASK_LOCK_SHOW:
   1427          	  SHOW_LOCK++;
   \                     ??MyIDLECSM_onMessage_6:
   \   00000154   00009BE5           LDR      R0,[R11, #+0]
   \   00000158   010080E2           ADD      R0,R0,#+1
   \   0000015C   040000EA           B        ??MyIDLECSM_onMessage_10
   1428          	  break;
   1429          	case IPC_XTASK_UNLOCK_SHOW:
   1430          	  if (SHOW_LOCK) SHOW_LOCK--;
   \                     ??MyIDLECSM_onMessage_7:
   \   00000160   00009BE5           LDR      R0,[R11, #+0]
   \   00000164   000050E3           CMP      R0,#+0
   \   00000168   0200000A           BEQ      ??MyIDLECSM_onMessage_3
   \   0000016C   00009BE5           LDR      R0,[R11, #+0]
   \   00000170   010040E2           SUB      R0,R0,#+1
   \                     ??MyIDLECSM_onMessage_10:
   \   00000174   00008BE5           STR      R0,[R11, #+0]
   1431          	  break;
   1432          	}
   1433                }
   1434              }
   1435            }
   1436            if (msg->msg==MSG_INCOMMING_CALL)
   \                     ??MyIDLECSM_onMessage_3:
   \   00000178   040098E5           LDR      R0,[R8, #+4]
   \   0000017C   600C50E3           CMP      R0,#+24576
   1437            {
   1438              callhide_mode=1;
   \   00000180   0100A003           MOVEQ    R0,#+1
   \   00000184   00008505           STREQ    R0,[R5, #+0]
   1439            }
   1440            //  #ifdef NEWSGOLD
   1441            //  if ((msg->msg==MSG_STATE_OF_CALL)&&(msg->submess==0)&&((int)msg->data0==3)) callhide_mode=1;
   1442            //  #else
   1443            //if ((msg->msg==MSG_STATE_OF_CALL)&&(msg->submess==0)&&((int)msg->data0==0)) callhide_mode=1;
   1444            //    ?????!!!! ??????!!!
   1445            //  #endif   
   1446            if (callhide_mode)
   \                     ??MyIDLECSM_onMessage_2:
   \   00000188   000095E5           LDR      R0,[R5, #+0]
   \   0000018C   000050E3           CMP      R0,#+0
   \   00000190   0C00000A           BEQ      ??MyIDLECSM_onMessage_11
   1447            {
   1448              if ((IsGuiOnTop(icgui_id))/*||(IsGuiOnTop(ocgui_id))*/)
   \   00000194   0900A0E1           MOV      R0,R9
   \   00000198   350100EF           SWI      +309
   \   0000019C   000050E3           CMP      R0,#+0
   \   000001A0   0800000A           BEQ      ??MyIDLECSM_onMessage_11
   1449              {
   1450                CSMtoTop(CSM_root()->idle_id,((CSM_RAM *)(CSM_root()->csm_q->csm.last))->id);
   \   000001A4   068100EF           SWI      +33030
   \   000001A8   0070A0E1           MOV      R7,R0
   \   000001AC   068100EF           SWI      +33030
   \   000001B0   081097E5           LDR      R1,[R7, #+8]
   \   000001B4   040090E5           LDR      R0,[R0, #+4]
   \   000001B8   0C1091E5           LDR      R1,[R1, #+12]
   \   000001BC   0C1091E5           LDR      R1,[R1, #+12]
   \   000001C0   ........           _BLF     CSMtoTop,??CSMtoTop??rA
   1451                callhide_mode=0;
   \   000001C4   006085E5           STR      R6,[R5, #+0]
   1452              }
   1453            }
   1454            return csm_result;  
   \                     ??MyIDLECSM_onMessage_11:
   \   000001C8   0400A0E1           MOV      R0,R4
   \   000001CC   F28FBDE8           POP      {R1,R4-R11,PC}   ;; return
   \                     ??MyIDLECSM_onMessage_0:
   \   000001D0   ........           DC32     callhide_mode
   \   000001D4   ........           DC32     `?<Constant "XTask config updated!">`
   \   000001D8   ........           DC32     my_ipc_name
   \   000001DC   ........           DC32     SHOW_LOCK
   1455          }
   1456          

   \                                 In segment CODE, align 4, keep-with-next
   1457          void MyIDLECSM_onClose(CSM_RAM *data)
   1458          {
   \                     MyIDLECSM_onClose:
   \   00000000   10402DE9           PUSH     {R4,LR}
   \   00000004   0040A0E1           MOV      R4,R0
   1459            extern void seqkill(void *data, void(*next_in_seq)(CSM_RAM *), void *data_to_kill, void *seqkiller);
   1460            extern void *ELF_BEGIN;
   1461            GBS_DelTimer(&start_tmr);
   \   00000008   ........           LDR      R0,??DataTable128  ;; start_tmr
   \   0000000C   8C0100EF           SWI      +396
   1462            RemoveKeybMsgHook((void *)my_keyhook);
   \   00000010   ........           LDR      R0,??DataTable124  ;; my_keyhook
   \   00000014   2D0100EF           SWI      +301
   1463            seqkill(data,old_icsm_onClose,&ELF_BEGIN,SEQKILLER_ADR());
   \   00000018   9C8100EF           SWI      +33180
   \   0000001C   ........           LDR      R2,??DataTable97  ;; ELF_BEGIN
   \   00000020   0030A0E1           MOV      R3,R0
   \   00000024   ........           LDR      R0,??DataTable125  ;; old_icsm_onClose
   \   00000028   001090E5           LDR      R1,[R0, #+0]
   \   0000002C   0400A0E1           MOV      R0,R4
   \   00000030   1040BDE8           POP      {R4,LR}          ;; Pop
   \   00000034   ........           _BF      seqkill,??seqkill??rA  ;; tailcall
   1464          }
   1465          

   \                                 In segment CODE, align 4, keep-with-next
   1466          void load_icon_list()
   1467          {
   \                     load_icon_list:
   \   00000000   70402DE9           PUSH     {R4-R6,LR}
   1468              int fi;
   1469              int fsizei;
   1470              FSTATS stati;
   1471              unsigned int uli;
   1472              GetFileStats(icon_list_path,&stati,&uli);
   \   00000004   8C409FE5           LDR      R4,??load_icon_list_0  ;; icon_list_path
   \   00000008   2CD04DE2           SUB      SP,SP,#+44
   \   0000000C   0D20A0E1           MOV      R2,SP
   \   00000010   04108DE2           ADD      R1,SP,#+4
   \   00000014   0400A0E1           MOV      R0,R4
   \   00000018   840000EF           SWI      +132
   1473              if(stati.size>0)
   \   0000001C   08009DE5           LDR      R0,[SP, #+8]
   \   00000020   000050E3           CMP      R0,#+0
   \   00000024   1900000A           BEQ      ??load_icon_list_1
   1474              {
   1475                fi=fopen(icon_list_path,A_ReadOnly+A_BIN,P_READ,&uli);
   \   00000028   0D30A0E1           MOV      R3,SP
   \   0000002C   8020A0E3           MOV      R2,#+128
   \   00000030   801CA0E3           MOV      R1,#+32768
   \   00000034   0400A0E1           MOV      R0,R4
   \   00000038   0A0000EF           SWI      +10
   1476                fsizei=stati.size;
   \   0000003C   08509DE5           LDR      R5,[SP, #+8]
   \   00000040   0040A0E1           MOV      R4,R0
   1477                char *pi=malloc(fsizei);
   \   00000044   0500A0E1           MOV      R0,R5
   \   00000048   140000EF           SWI      +20
   \   0000004C   0060A0E1           MOV      R6,R0
   1478                pi[fread(fi,pi,fsizei,&uli)];
   \   00000050   0D30A0E1           MOV      R3,SP
   \   00000054   0520A0E1           MOV      R2,R5
   \   00000058   0610A0E1           MOV      R1,R6
   \   0000005C   0400A0E1           MOV      R0,R4
   \   00000060   0B0000EF           SWI      +11
   1479                fclose(fi,&uli);
   \   00000064   0400A0E1           MOV      R0,R4
   1480                strcpy(icon_text, pi);
   \   00000068   ........           LDR      R4,??DataTable99  ;; icon_text
   \   0000006C   0D10A0E1           MOV      R1,SP
   \   00000070   0D0000EF           SWI      +13
   \   00000074   0610A0E1           MOV      R1,R6
   \   00000078   0400A0E1           MOV      R0,R4
   \   0000007C   1A0000EF           SWI      +26
   1481                icon_text[fsizei]='\0';
   \   00000080   0000A0E3           MOV      R0,#+0
   \   00000084   0400C5E7           STRB     R0,[R5, +R4]
   1482                mfree(pi);
   \   00000088   0600A0E1           MOV      R0,R6
   \   0000008C   150000EF           SWI      +21
   1483              }
   1484          }
   \                     ??load_icon_list_1:
   \   00000090   2CD08DE2           ADD      SP,SP,#+44       ;; stack cleaning
   \   00000094   7080BDE8           POP      {R4-R6,PC}       ;; return
   \                     ??load_icon_list_0:
   \   00000098   ........           DC32     icon_list_path

   \                                 In segment DATA_Z, align 4, align-sorted
   1485          int serti;
   \                     serti:
   \   00000000                      DS8 4
   1486          

   \                                 In segment CODE, align 4, keep-with-next
   1487          void get_bookmark(char *name, char *path, int w, char *search)
   1488          {
   \                     get_bookmark:
   \   00000000   10002DE9           PUSH     {R4}
   1489            int q=0;
   \   00000004   0340D2E7           LDRB     R4,[R2, +R3]
   \   00000008   00C0A0E3           MOV      R12,#+0
   \   0000000C   7C0054E3           CMP      R4,#+124
   \   00000010   0600000A           BEQ      ??get_bookmark_0
   1490            while(search[w]!='|')
   1491            {
   1492              name[q]=search[w];
   \                     ??get_bookmark_1:
   \   00000014   0340D2E7           LDRB     R4,[R2, +R3]
   1493              q++;
   1494              w++;
   \   00000018   012082E2           ADD      R2,R2,#+1
   \   0000001C   0040CCE7           STRB     R4,[R12, +R0]
   1495            }
   \   00000020   0340D2E7           LDRB     R4,[R2, +R3]
   \   00000024   01C08CE2           ADD      R12,R12,#+1
   \   00000028   7C0054E3           CMP      R4,#+124
   \   0000002C   F8FFFF1A           BNE      ??get_bookmark_1
   1496            name[q]='\0';
   \                     ??get_bookmark_0:
   \   00000030   0040A0E3           MOV      R4,#+0
   \   00000034   0040CCE7           STRB     R4,[R12, +R0]
   1497            w++;
   \   00000038   010082E2           ADD      R0,R2,#+1
   1498            q=0;
   \   0000003C   03C0D0E7           LDRB     R12,[R0, +R3]
   \   00000040   0020A0E3           MOV      R2,#+0
   \   00000044   7C005CE3           CMP      R12,#+124
   \   00000048   0600000A           BEQ      ??get_bookmark_2
   1499            while(search[w]!='|')
   1500            {
   1501              path[q]=search[w];
   \                     ??get_bookmark_3:
   \   0000004C   03C0D0E7           LDRB     R12,[R0, +R3]
   1502              q++;
   1503              w++;
   \   00000050   010080E2           ADD      R0,R0,#+1
   \   00000054   01C0C2E7           STRB     R12,[R2, +R1]
   1504            }
   \   00000058   03C0D0E7           LDRB     R12,[R0, +R3]
   \   0000005C   012082E2           ADD      R2,R2,#+1
   \   00000060   7C005CE3           CMP      R12,#+124
   \   00000064   F8FFFF1A           BNE      ??get_bookmark_3
   1505            path[q]='\0';
   \                     ??get_bookmark_2:
   \   00000068   0140C2E7           STRB     R4,[R2, +R1]
   1506            serti=w+3;
   \   0000006C   ........           LDR      R1,??DataTable102  ;; serti
   \   00000070   030080E2           ADD      R0,R0,#+3
   \   00000074   000081E5           STR      R0,[R1, #+0]
   1507            book_show++;
   \   00000078   ........           LDR      R0,??DataTable101  ;; book_show
   \   0000007C   001090E5           LDR      R1,[R0, #+0]
   \   00000080   011081E2           ADD      R1,R1,#+1
   \   00000084   001080E5           STR      R1,[R0, #+0]
   1508          }
   \   00000088   1000BDE8           POP      {R4}
   \   0000008C   1EFF2FE1           BX       LR               ;; return
   1509          

   \                                 In segment CODE, align 4, keep-with-next
   1510          void load_bookmark_list()
   1511          {
   \                     load_bookmark_list:
   \   00000000   70402DE9           PUSH     {R4-R6,LR}
   1512              int f;
   1513              int fsize;
   1514              FSTATS stat;
   1515              unsigned int ul;
   1516              GetFileStats(bokmark_list_path,&stat,&ul);
   \   00000004   9C419FE5           LDR      R4,??load_bookmark_list_0  ;; bokmark_list_path
   \   00000008   2CD04DE2           SUB      SP,SP,#+44
   \   0000000C   0D20A0E1           MOV      R2,SP
   \   00000010   04108DE2           ADD      R1,SP,#+4
   \   00000014   0400A0E1           MOV      R0,R4
   \   00000018   840000EF           SWI      +132
   1517              if(stat.size>0)
   \   0000001C   08009DE5           LDR      R0,[SP, #+8]
   \   00000020   000050E3           CMP      R0,#+0
   \   00000024   5D00000A           BEQ      ??load_bookmark_list_1
   1518              {
   1519                f=fopen(bokmark_list_path,A_ReadOnly+A_BIN,P_READ,&ul);
   \   00000028   0D30A0E1           MOV      R3,SP
   \   0000002C   8020A0E3           MOV      R2,#+128
   \   00000030   801CA0E3           MOV      R1,#+32768
   \   00000034   0400A0E1           MOV      R0,R4
   \   00000038   0A0000EF           SWI      +10
   1520                fsize=stat.size;
   \   0000003C   08609DE5           LDR      R6,[SP, #+8]
   \   00000040   0050A0E1           MOV      R5,R0
   1521                char *p=malloc(fsize);
   \   00000044   0600A0E1           MOV      R0,R6
   \   00000048   140000EF           SWI      +20
   \   0000004C   0040A0E1           MOV      R4,R0
   1522                p[fread(f,p,fsize,&ul)];
   \   00000050   0D30A0E1           MOV      R3,SP
   \   00000054   0620A0E1           MOV      R2,R6
   \   00000058   0410A0E1           MOV      R1,R4
   \   0000005C   0500A0E1           MOV      R0,R5
   \   00000060   0B0000EF           SWI      +11
   1523                fclose(f,&ul);
   \   00000064   0500A0E1           MOV      R0,R5
   1524                serti=0;
   \   00000068   ........           LDR      R5,??DataTable102  ;; serti
   \   0000006C   0D10A0E1           MOV      R1,SP
   \   00000070   0D0000EF           SWI      +13
   \   00000074   0000A0E3           MOV      R0,#+0
   \   00000078   000085E5           STR      R0,[R5, #+0]
   1525                if(serti<fsize-2) get_bookmark(BM1NAME, BM1FILE, serti, p);
   \   0000007C   026046E2           SUB      R6,R6,#+2
   \   00000080   010056E3           CMP      R6,#+1
   \   00000084   040000BA           BLT      ??load_bookmark_list_2
   \   00000088   ........           LDR      R1,??DataTable103  ;; BM1FILE
   \   0000008C   ........           LDR      R0,??DataTable104  ;; BM1NAME
   \   00000090   0430A0E1           MOV      R3,R4
   \   00000094   0020A0E3           MOV      R2,#+0
   \   00000098   ........           BL       get_bookmark
   1526                if(serti<fsize-2) get_bookmark(BM2NAME, BM2FILE, serti, p);
   \                     ??load_bookmark_list_2:
   \   0000009C   002095E5           LDR      R2,[R5, #+0]
   \   000000A0   060052E1           CMP      R2,R6
   \   000000A4   030000AA           BGE      ??load_bookmark_list_3
   \   000000A8   ........           LDR      R1,??DataTable105  ;; BM2FILE
   \   000000AC   ........           LDR      R0,??DataTable106  ;; BM2NAME
   \   000000B0   0430A0E1           MOV      R3,R4
   \   000000B4   ........           BL       get_bookmark
   1527                if(serti<fsize-2) get_bookmark(BM3NAME, BM3FILE, serti, p);
   \                     ??load_bookmark_list_3:
   \   000000B8   002095E5           LDR      R2,[R5, #+0]
   \   000000BC   060052E1           CMP      R2,R6
   \   000000C0   030000AA           BGE      ??load_bookmark_list_4
   \   000000C4   ........           LDR      R1,??DataTable107  ;; BM3FILE
   \   000000C8   ........           LDR      R0,??DataTable108  ;; BM3NAME
   \   000000CC   0430A0E1           MOV      R3,R4
   \   000000D0   ........           BL       get_bookmark
   1528                if(serti<fsize-2) get_bookmark(BM4NAME, BM4FILE, serti, p);
   \                     ??load_bookmark_list_4:
   \   000000D4   002095E5           LDR      R2,[R5, #+0]
   \   000000D8   060052E1           CMP      R2,R6
   \   000000DC   030000AA           BGE      ??load_bookmark_list_5
   \   000000E0   ........           LDR      R1,??DataTable109  ;; BM4FILE
   \   000000E4   ........           LDR      R0,??DataTable110  ;; BM4NAME
   \   000000E8   0430A0E1           MOV      R3,R4
   \   000000EC   ........           BL       get_bookmark
   1529                if(serti<fsize-2) get_bookmark(BM5NAME, BM5FILE, serti, p);
   \                     ??load_bookmark_list_5:
   \   000000F0   002095E5           LDR      R2,[R5, #+0]
   \   000000F4   060052E1           CMP      R2,R6
   \   000000F8   030000AA           BGE      ??load_bookmark_list_6
   \   000000FC   ........           LDR      R1,??DataTable111  ;; BM5FILE
   \   00000100   ........           LDR      R0,??DataTable112  ;; BM5NAME
   \   00000104   0430A0E1           MOV      R3,R4
   \   00000108   ........           BL       get_bookmark
   1530                if(serti<fsize-2) get_bookmark(BM6NAME, BM6FILE, serti, p);
   \                     ??load_bookmark_list_6:
   \   0000010C   002095E5           LDR      R2,[R5, #+0]
   \   00000110   060052E1           CMP      R2,R6
   \   00000114   030000AA           BGE      ??load_bookmark_list_7
   \   00000118   ........           LDR      R1,??DataTable113  ;; BM6FILE
   \   0000011C   ........           LDR      R0,??DataTable114  ;; BM6NAME
   \   00000120   0430A0E1           MOV      R3,R4
   \   00000124   ........           BL       get_bookmark
   1531                if(serti<fsize-2) get_bookmark(BM7NAME, BM7FILE, serti, p);
   \                     ??load_bookmark_list_7:
   \   00000128   002095E5           LDR      R2,[R5, #+0]
   \   0000012C   060052E1           CMP      R2,R6
   \   00000130   030000AA           BGE      ??load_bookmark_list_8
   \   00000134   ........           LDR      R1,??DataTable115  ;; BM7FILE
   \   00000138   ........           LDR      R0,??DataTable116  ;; BM7NAME
   \   0000013C   0430A0E1           MOV      R3,R4
   \   00000140   ........           BL       get_bookmark
   1532                if(serti<fsize-2) get_bookmark(BM8NAME, BM8FILE, serti, p);
   \                     ??load_bookmark_list_8:
   \   00000144   002095E5           LDR      R2,[R5, #+0]
   \   00000148   060052E1           CMP      R2,R6
   \   0000014C   030000AA           BGE      ??load_bookmark_list_9
   \   00000150   ........           LDR      R1,??DataTable117  ;; BM8FILE
   \   00000154   ........           LDR      R0,??DataTable118  ;; BM8NAME
   \   00000158   0430A0E1           MOV      R3,R4
   \   0000015C   ........           BL       get_bookmark
   1533                if(serti<fsize-2) get_bookmark(BM9NAME, BM9FILE, serti, p);
   \                     ??load_bookmark_list_9:
   \   00000160   002095E5           LDR      R2,[R5, #+0]
   \   00000164   060052E1           CMP      R2,R6
   \   00000168   030000AA           BGE      ??load_bookmark_list_10
   \   0000016C   ........           LDR      R1,??DataTable119  ;; BM9FILE
   \   00000170   ........           LDR      R0,??DataTable120  ;; BM9NAME
   \   00000174   0430A0E1           MOV      R3,R4
   \   00000178   ........           BL       get_bookmark
   1534                if(serti<fsize-2) get_bookmark(BM0NAME, BM0FILE, serti, p);
   \                     ??load_bookmark_list_10:
   \   0000017C   002095E5           LDR      R2,[R5, #+0]
   \   00000180   060052E1           CMP      R2,R6
   \   00000184   030000AA           BGE      ??load_bookmark_list_11
   \   00000188   ........           LDR      R1,??DataTable121  ;; BM0FILE
   \   0000018C   ........           LDR      R0,??DataTable122  ;; BM0NAME
   \   00000190   0430A0E1           MOV      R3,R4
   \   00000194   ........           BL       get_bookmark
   1535                mfree(p);
   \                     ??load_bookmark_list_11:
   \   00000198   0400A0E1           MOV      R0,R4
   \   0000019C   150000EF           SWI      +21
   1536              }
   1537          }
   \                     ??load_bookmark_list_1:
   \   000001A0   2CD08DE2           ADD      SP,SP,#+44       ;; stack cleaning
   \   000001A4   7080BDE8           POP      {R4-R6,PC}       ;; return
   \                     ??load_bookmark_list_0:
   \   000001A8   ........           DC32     bokmark_list_path
   1538          

   \                                 In segment CODE, align 4, keep-with-next
   1539          void DoSplices(void)
   1540          {
   1541            extern const int SHOW_DAEMONS;
   1542            extern int show_daemons;
   1543            show_daemons=SHOW_DAEMONS;
   \                     DoSplices:
   \   00000000   ........           LDR      R0,??DataTable123  ;; show_daemons
   \   00000004   04119FE5           LDR      R1,??DoSplices_0  ;; SHOW_DAEMONS
   \   00000008   70402DE9           PUSH     {R4-R6,LR}
   \   0000000C   04D04DE2           SUB      SP,SP,#+4
   \   00000010   001091E5           LDR      R1,[R1, #+0]
   \   00000014   001080E5           STR      R1,[R0, #+0]
   1544            LockSched();
   \   00000018   460100EF           SWI      +326
   1545            if (!AddKeybMsgHook_end((void *)my_keyhook))
   \   0000001C   ........           LDR      R0,??DataTable124  ;; my_keyhook
   \   00000020   2C0100EF           SWI      +300
   \   00000024   000050E3           CMP      R0,#+0
   \   00000028   0600001A           BNE      ??DoSplices_1
   1546            {
   1547              ShowMSG(1,(int)"Cant Start Elf!");
   \   0000002C   E0109FE5           LDR      R1,??DoSplices_0+0x4  ;; `?<Constant "Cant Start Elf!">`
   \   00000030   0100A0E3           MOV      R0,#+1
   \   00000034   480100EF           SWI      +328
   1548              SUBPROC((void *)ElfKiller);
   \   00000038   D8009FE5           LDR      R0,??DoSplices_0+0x8  ;; ElfKiller
   \   0000003C   710100EF           SWI      +369
   \   00000040   470100EF           SWI      +327
   \   00000044   7180BDE8           POP      {R0,R4-R6,PC}
   1549            }
   1550            else
   1551            {
   1552              {
   1553                CSM_RAM *icsm=FindCSMbyID(CSM_root()->idle_id);
   1554                memcpy(&icsmd,icsm->constr,sizeof(icsmd));
   \                     ??DoSplices_1:
   \   00000048   CC509FE5           LDR      R5,??DoSplices_0+0xC  ;; icsmd
   1555                old_icsm_onClose=icsmd.onClose;
   1556                old_icsm_onMessage=icsmd.onMessage;
   1557                icsmd.onClose=MyIDLECSM_onClose;
   1558                icsmd.onMessage=MyIDLECSM_onMessage;
   1559                icsm->constr=&icsmd;
   1560              }
   1561              load_icon_list();
   1562              load_bookmark_list();
   1563              under_idle=GetUnderIdleCSM(); //???? idle_dialog
   1564              int f;
   1565            int sz=0;
   1566            unsigned int ul;
   1567            extern const char csmlist_fname[128];
   1568            extern char csm_text[32768];
   1569            if ((f=fopen(csmlist_fname,A_ReadOnly+A_BIN,P_READ,&ul))!=-1)
   \   0000004C   CC609FE5           LDR      R6,??DoSplices_0+0x10  ;; csm_text
   \   00000050   068100EF           SWI      +33030
   \   00000054   040090E5           LDR      R0,[R0, #+4]
   \   00000058   080100EF           SWI      +264
   \   0000005C   0040A0E1           MOV      R4,R0
   \   00000060   081094E5           LDR      R1,[R4, #+8]
   \   00000064   2820A0E3           MOV      R2,#+40
   \   00000068   0500A0E1           MOV      R0,R5
   \   0000006C   1E0100EF           SWI      +286
   \   00000070   ........           LDR      R0,??DataTable125  ;; old_icsm_onClose
   \   00000074   181095E5           LDR      R1,[R5, #+24]
   \   00000078   001080E5           STR      R1,[R0, #+0]
   \   0000007C   ........           LDR      R0,??DataTable126  ;; old_icsm_onMessage
   \   00000080   001095E5           LDR      R1,[R5, #+0]
   \   00000084   001080E5           STR      R1,[R0, #+0]
   \   00000088   94009FE5           LDR      R0,??DoSplices_0+0x14  ;; MyIDLECSM_onClose
   \   0000008C   180085E5           STR      R0,[R5, #+24]
   \   00000090   90009FE5           LDR      R0,??DoSplices_0+0x18  ;; MyIDLECSM_onMessage
   \   00000094   000085E5           STR      R0,[R5, #+0]
   \   00000098   085084E5           STR      R5,[R4, #+8]
   \   0000009C   ........           BL       load_icon_list
   \   000000A0   ........           BL       load_bookmark_list
   \   000000A4   ........           BL       GetUnderIdleCSM
   \   000000A8   7C109FE5           LDR      R1,??DoSplices_0+0x1C  ;; under_idle
   \   000000AC   0040A0E3           MOV      R4,#+0
   \   000000B0   000081E5           STR      R0,[R1, #+0]
   \   000000B4   74009FE5           LDR      R0,??DoSplices_0+0x20  ;; csmlist_fname
   \   000000B8   0D30A0E1           MOV      R3,SP
   \   000000BC   8020A0E3           MOV      R2,#+128
   \   000000C0   801CA0E3           MOV      R1,#+32768
   \   000000C4   0A0000EF           SWI      +10
   \   000000C8   0050A0E1           MOV      R5,R0
   \   000000CC   010075E3           CMN      R5,#+1
   \   000000D0   0A00000A           BEQ      ??DoSplices_2
   1570            {
   1571              sz=fread(f,csm_text,32767,&ul);
   \   000000D4   0D30A0E1           MOV      R3,SP
   \   000000D8   FF20A0E3           MOV      R2,#+255
   \   000000DC   7F2C82E3           ORR      R2,R2,#0x7F00
   \   000000E0   0610A0E1           MOV      R1,R6
   \   000000E4   0B0000EF           SWI      +11
   \   000000E8   0040A0E1           MOV      R4,R0
   1572              fclose(f,&ul);
   \   000000EC   0D10A0E1           MOV      R1,SP
   \   000000F0   0500A0E1           MOV      R0,R5
   \   000000F4   0D0000EF           SWI      +13
   1573            }
   1574            if (sz>=0) csm_text[sz]=0;
   \   000000F8   000054E3           CMP      R4,#+0
   \   000000FC   0100004A           BMI      ??DoSplices_3
   \                     ??DoSplices_2:
   \   00000100   0000A0E3           MOV      R0,#+0
   \   00000104   0600C4E7           STRB     R0,[R4, +R6]
   1575            
   1576            }
   1577            
   1578            UnlockSched();
   \                     ??DoSplices_3:
   \   00000108   470100EF           SWI      +327
   1579          }
   \   0000010C   7180BDE8           POP      {R0,R4-R6,PC}    ;; return
   \                     ??DoSplices_0:
   \   00000110   ........           DC32     SHOW_DAEMONS
   \   00000114   ........           DC32     `?<Constant "Cant Start Elf!">`
   \   00000118   ........           DC32     ElfKiller
   \   0000011C   ........           DC32     icsmd
   \   00000120   ........           DC32     csm_text
   \   00000124   ........           DC32     MyIDLECSM_onClose
   \   00000128   ........           DC32     MyIDLECSM_onMessage
   \   0000012C   ........           DC32     under_idle
   \   00000130   ........           DC32     csmlist_fname
   1580            

   \                                 In segment CODE, align 4, keep-with-next
   1581          void main(void)
   1582          {
   \                     main:
   \   00000000   00402DE9           PUSH     {LR}
   1583            if(ScreenW()>140)
   \   00000004   888100EF           SWI      +33160
   \   00000008   8D0050E3           CMP      R0,#+141
   \   0000000C   030000BA           BLT      ??main_0
   1584            {
   1585              ShowMSG(1,(int)"wrong display");
   \   00000010   48109FE5           LDR      R1,??main_1      ;; `?<Constant "wrong display">`
   \   00000014   0100A0E3           MOV      R0,#+1
   \   00000018   480100EF           SWI      +328
   \   0000001C   0080BDE8           POP      {PC}
   1586            }
   1587            else
   1588            {
   1589            mode=0;
   \                     ??main_0:
   \   00000020   ........           LDR      R0,??DataTable127  ;; mode
   \   00000024   0010A0E3           MOV      R1,#+0
   \   00000028   001080E5           STR      R1,[R0, #+0]
   1590            if (InitConfig()!=2) GBS_StartTimerProc(&start_tmr,TMR_SECOND(60),DoSplices);
   \   0000002C   ........           _BLF     InitConfig,??InitConfig??rA
   \   00000030   020050E3           CMP      R0,#+2
   \   00000034   0600000A           BEQ      ??main_2
   \   00000038   24209FE5           LDR      R2,??main_1+0x4  ;; DoSplices
   \   0000003C   ........           LDR      R0,??DataTable128  ;; start_tmr
   \   00000040   C810A0E3           MOV      R1,#+200
   \   00000044   C81D81E3           ORR      R1,R1,#0x3200
   \   00000048   4D0000EF           SWI      +77
   \   0000004C   0040BDE8           POP      {LR}             ;; Pop
   \   00000050   ........           B        init_turnoff     ;; tailcall
   1591            else DoSplices();
   \                     ??main_2:
   \   00000054   ........           BL       DoSplices
   1592            init_turnoff();
   \   00000058   0040BDE8           POP      {LR}             ;; Pop
   \   0000005C   ........           B        init_turnoff     ;; tailcall
   \                     ??main_1:
   \   00000060   ........           DC32     `?<Constant "wrong display">`
   \   00000064   ........           DC32     DoSplices
   1593            }
   1594          }

   \                                 In segment CODE, align 4, keep-with-next
   \                     ??DataTable0:
   \   00000000   ........           DC32     shutdown1

   \                                 In segment CODE, align 4, keep-with-next
   \                     ??DataTable1:
   \   00000000   ........           DC32     shutdown2

   \                                 In segment CODE, align 4, keep-with-next
   \                     ??DataTable2:
   \   00000000   ........           DC32     reboot1

   \                                 In segment CODE, align 4, keep-with-next
   \                     ??DataTable3:
   \   00000000   ........           DC32     reboot2

   \                                 In segment CODE, align 4, keep-with-next
   \                     ??DataTable4:
   \   00000000   ........           DC32     BM1FILE

   \                                 In segment CODE, align 4, keep-with-next
   \                     ??DataTable5:
   \   00000000   ........           DC32     BM2FILE

   \                                 In segment CODE, align 4, keep-with-next
   \                     ??DataTable6:
   \   00000000   ........           DC32     BM3FILE

   \                                 In segment CODE, align 4, keep-with-next
   \                     ??DataTable7:
   \   00000000   ........           DC32     BM4FILE

   \                                 In segment CODE, align 4, keep-with-next
   \                     ??DataTable8:
   \   00000000   ........           DC32     BM5FILE

   \                                 In segment CODE, align 4, keep-with-next
   \                     ??DataTable9:
   \   00000000   ........           DC32     BM6FILE

   \                                 In segment CODE, align 4, keep-with-next
   \                     ??DataTable10:
   \   00000000   ........           DC32     BM7FILE

   \                                 In segment CODE, align 4, keep-with-next
   \                     ??DataTable11:
   \   00000000   ........           DC32     BM8FILE

   \                                 In segment CODE, align 4, keep-with-next
   \                     ??DataTable12:
   \   00000000   ........           DC32     BM9FILE

   \                                 In segment CODE, align 4, keep-with-next
   \                     ??DataTable13:
   \   00000000   ........           DC32     BM0FILE

   \                                 In segment CODE, align 4, keep-with-next
   \                     ??DataTable15:
   \   00000000   ........           DC32     data4

   \                                 In segment CODE, align 4, keep-with-next
   \                     ??DataTable16:
   \   00000000   ........           DC32     ctasks

   \                                 In segment CODE, align 4, keep-with-next
   \                     ??DataTable19:
   \   00000000   ........           DC32     total_d

   \                                 In segment CODE, align 4, keep-with-next
   \                     ??DataTable20:
   \   00000000   ........           DC32     screen2

   \                                 In segment CODE, align 4, keep-with-next
   \                     ??DataTable21:
   \   00000000   ........           DC32     background_img

   \                                 In segment CODE, align 4, keep-with-next
   \                     ??DataTable22:
   \   00000000   ........           DC32     tasks_img

   \                                 In segment CODE, align 4, keep-with-next
   \                     ??DataTable23:
   \   00000000   ........           DC32     bookmarks_img

   \                                 In segment CODE, align 4, keep-with-next
   \                     ??DataTable24:
   \   00000000   ........           DC32     draw_rec

   \                                 In segment CODE, align 4, keep-with-next
   \                     ??DataTable25:
   \   00000000   ........           DC32     nltop

   \                                 In segment CODE, align 4, keep-with-next
   \                     ??DataTable26:
   \   00000000   ........           DC32     start_tmr

   \                                 In segment CODE, align 4, keep-with-next
   \                     ??DataTable27:
   \   00000000   ........           DC32     shutd

   \                                 In segment CODE, align 4, keep-with-next
   \                     ??DataTable28:
   \   00000000   ........           DC32     icon_text

   \                                 In segment CODE, align 4, keep-with-next
   \                     ??DataTable29:
   \   00000000   ........           DC32     book_show

   \                                 In segment CODE, align 4, keep-with-next
   \                     ??DataTable30:
   \   00000000   ........           DC32     BM1NAME

   \                                 In segment CODE, align 4, keep-with-next
   \                     ??DataTable31:
   \   00000000   ........           DC32     BM2NAME

   \                                 In segment CODE, align 4, keep-with-next
   \                     ??DataTable32:
   \   00000000   ........           DC32     BM3NAME

   \                                 In segment CODE, align 4, keep-with-next
   \                     ??DataTable33:
   \   00000000   ........           DC32     BM4NAME

   \                                 In segment CODE, align 4, keep-with-next
   \                     ??DataTable34:
   \   00000000   ........           DC32     BM5NAME

   \                                 In segment CODE, align 4, keep-with-next
   \                     ??DataTable35:
   \   00000000   ........           DC32     BM6NAME

   \                                 In segment CODE, align 4, keep-with-next
   \                     ??DataTable36:
   \   00000000   ........           DC32     BM7NAME

   \                                 In segment CODE, align 4, keep-with-next
   \                     ??DataTable37:
   \   00000000   ........           DC32     BM8NAME

   \                                 In segment CODE, align 4, keep-with-next
   \                     ??DataTable38:
   \   00000000   ........           DC32     BM9NAME

   \                                 In segment CODE, align 4, keep-with-next
   \                     ??DataTable39:
   \   00000000   ........           DC32     BM0NAME

   \                                 In segment CODE, align 4, keep-with-next
   \                     ??DataTable41:
   \   00000000   ........           DC32     shutdown1

   \                                 In segment CODE, align 4, keep-with-next
   \                     ??DataTable42:
   \   00000000   ........           DC32     reboot2

   \                                 In segment CODE, align 4, keep-with-next
   \                     ??DataTable43:
   \   00000000   ........           DC32     shutdown2

   \                                 In segment CODE, align 4, keep-with-next
   \                     ??DataTable44:
   \   00000000   ........           DC32     reboot1

   \                                 In segment CODE, align 4, keep-with-next
   \                     ??DataTable51:
   \   00000000   ........           DC32     book_show

   \                                 In segment CODE, align 4, keep-with-next
   \                     ??DataTable62:
   \   00000000   ........           DC32     nltop

   \                                 In segment CODE, align 4, keep-with-next
   \                     ??DataTable65:
   \   00000000   ........           DC32     redrit

   \                                 In segment CODE, align 4, keep-with-next
   \                     ??DataTable66:
   \   00000000   ........           DC32     start_tmr

   \                                 In segment CODE, align 4, keep-with-next
   \                     ??DataTable71:
   \   00000000   ........           DC32     shutd

   \                                 In segment CODE, align 4, keep-with-next
   \                     ??DataTable72:
   \   00000000   ........           DC32     data4

   \                                 In segment CODE, align 4, keep-with-next
   \                     ??DataTable73:
   \   00000000   ........           DC32     show_daemons

   \                                 In segment CODE, align 4, keep-with-next
   \                     ??DataTable77:
   \   00000000   ........           DC32     pos

   \                                 In segment CODE, align 4, keep-with-next
   \                     ??DataTable78:
   \   00000000   ........           DC32     move_skip

   \                                 In segment CODE, align 4, keep-with-next
   \                     ??DataTable81:
   \   00000000   ........           DC32     time_not

   \                                 In segment CODE, align 4, keep-with-next
   \                     ??DataTable82:
   \   00000000   ........           DC32     sm

   \                                 In segment CODE, align 4, keep-with-next
   \                     ??DataTable83:
   \   00000000   ........           DC32     forward

   \                                 In segment CODE, align 4, keep-with-next
   \                     ??DataTable87:
   \   00000000   ........           DC32     task_list

   \                                 In segment CODE, align 4, keep-with-next
   \                     ??DataTable89:
   \   00000000   ........           DC32     MAINCSM_ID

   \                                 In segment CODE, align 4, keep-with-next
   \                     ??DataTable90:
   \   00000000   ........           DC32     total_d

   \                                 In segment CODE, align 4, keep-with-next
   \                     ??DataTable91:
   \   00000000   ........           DC32     total_pos

   \                                 In segment CODE, align 4, keep-with-next
   \                     ??DataTable93:
   \   00000000   ........           DC32     successed_config_filename

   \                                 In segment CODE, align 4, keep-with-next
   \                     ??DataTable94:
   \   00000000   ........           DC32     MAINCSM_ID

   \                                 In segment CODE, align 4, keep-with-next
   \                     ??DataTable97:
   \   00000000   ........           DC32     ELF_BEGIN

   \                                 In segment CODE, align 4, keep-with-next
   \                     ??DataTable99:
   \   00000000   ........           DC32     icon_text

   \                                 In segment CODE, align 4, keep-with-next
   \                     ??DataTable101:
   \   00000000   ........           DC32     book_show

   \                                 In segment CODE, align 4, keep-with-next
   \                     ??DataTable102:
   \   00000000   ........           DC32     serti

   \                                 In segment CODE, align 4, keep-with-next
   \                     ??DataTable103:
   \   00000000   ........           DC32     BM1FILE

   \                                 In segment CODE, align 4, keep-with-next
   \                     ??DataTable104:
   \   00000000   ........           DC32     BM1NAME

   \                                 In segment CODE, align 4, keep-with-next
   \                     ??DataTable105:
   \   00000000   ........           DC32     BM2FILE

   \                                 In segment CODE, align 4, keep-with-next
   \                     ??DataTable106:
   \   00000000   ........           DC32     BM2NAME

   \                                 In segment CODE, align 4, keep-with-next
   \                     ??DataTable107:
   \   00000000   ........           DC32     BM3FILE

   \                                 In segment CODE, align 4, keep-with-next
   \                     ??DataTable108:
   \   00000000   ........           DC32     BM3NAME

   \                                 In segment CODE, align 4, keep-with-next
   \                     ??DataTable109:
   \   00000000   ........           DC32     BM4FILE

   \                                 In segment CODE, align 4, keep-with-next
   \                     ??DataTable110:
   \   00000000   ........           DC32     BM4NAME

   \                                 In segment CODE, align 4, keep-with-next
   \                     ??DataTable111:
   \   00000000   ........           DC32     BM5FILE

   \                                 In segment CODE, align 4, keep-with-next
   \                     ??DataTable112:
   \   00000000   ........           DC32     BM5NAME

   \                                 In segment CODE, align 4, keep-with-next
   \                     ??DataTable113:
   \   00000000   ........           DC32     BM6FILE

   \                                 In segment CODE, align 4, keep-with-next
   \                     ??DataTable114:
   \   00000000   ........           DC32     BM6NAME

   \                                 In segment CODE, align 4, keep-with-next
   \                     ??DataTable115:
   \   00000000   ........           DC32     BM7FILE

   \                                 In segment CODE, align 4, keep-with-next
   \                     ??DataTable116:
   \   00000000   ........           DC32     BM7NAME

   \                                 In segment CODE, align 4, keep-with-next
   \                     ??DataTable117:
   \   00000000   ........           DC32     BM8FILE

   \                                 In segment CODE, align 4, keep-with-next
   \                     ??DataTable118:
   \   00000000   ........           DC32     BM8NAME

   \                                 In segment CODE, align 4, keep-with-next
   \                     ??DataTable119:
   \   00000000   ........           DC32     BM9FILE

   \                                 In segment CODE, align 4, keep-with-next
   \                     ??DataTable120:
   \   00000000   ........           DC32     BM9NAME

   \                                 In segment CODE, align 4, keep-with-next
   \                     ??DataTable121:
   \   00000000   ........           DC32     BM0FILE

   \                                 In segment CODE, align 4, keep-with-next
   \                     ??DataTable122:
   \   00000000   ........           DC32     BM0NAME

   \                                 In segment CODE, align 4, keep-with-next
   \                     ??DataTable123:
   \   00000000   ........           DC32     show_daemons

   \                                 In segment CODE, align 4, keep-with-next
   \                     ??DataTable124:
   \   00000000   ........           DC32     my_keyhook

   \                                 In segment CODE, align 4, keep-with-next
   \                     ??DataTable125:
   \   00000000   ........           DC32     old_icsm_onClose

   \                                 In segment CODE, align 4, keep-with-next
   \                     ??DataTable126:
   \   00000000   ........           DC32     old_icsm_onMessage

   \                                 In segment CODE, align 4, keep-with-next
   \                     ??DataTable127:
   \   00000000   ........           DC32     mode

   \                                 In segment CODE, align 4, keep-with-next
   \                     ??DataTable128:
   \   00000000   ........           DC32     start_tmr

   \                                 In segment DATA_ID, align 4, align-sorted
   \                     `?<Initializer for time_not>`:
   \   00000000   01000000           DC32 1

   \                                 In segment DATA_ID, align 4, align-sorted
   \                     `?<Initializer for screen2>`:
   \   00000000   0000               DC8 0, 0
   \   00000002   0800               DC16 8
   \   00000004   ........           DC32 `?<Constant "">`

   \                                 In segment DATA_ID, align 4, align-sorted
   \                     `?<Initializer for task_list>`:
   \   00000000   01000000           DC32 1

   \                                 In segment DATA_ID, align 4, align-sorted
   \                     `?<Initializer for pos>`:
   \   00000000   01000000           DC32 1

   \                                 In segment DATA_ID, align 4, align-sorted
   \                     `?<Initializer for total_pos>`:
   \   00000000   01000000           DC32 1

   \                                 In segment DATA_ID, align 4, align-sorted
   \                     `?<Initializer for init_rec>`:
   \   00000000   01000000           DC32 1

   \                                 In segment DATA_C, align 4, align-sorted
   \                     `?<Constant "shutdown1.png">`:
   \   00000000   73687574646F       DC8 "shutdown1.png"
   \              776E312E706E
   \              6700        
   \   0000000E   0000               DC8 0, 0

   \                                 In segment DATA_C, align 4, align-sorted
   \                     `?<Constant "%02d:%02d:%02d">`:
   \   00000000   253032643A25       DC8 "%02d:%02d:%02d"
   \              3032643A2530
   \              326400      
   \   0000000F   00                 DC8 0

   \                                 In segment DATA_C, align 4, align-sorted
   \   00000000   25642500           DC8 "%d%"

   \                                 In segment DATA_C, align 4, align-sorted
   \                     `?<Constant "Ram:%dKb">`:
   \   00000000   52616D3A2564       DC8 "Ram:%dKb"
   \              4B6200      
   \   00000009   000000             DC8 0, 0, 0

   \                                 In segment DATA_C, align 4, align-sorted
   \                     `?<Constant "T:%d">`:
   \   00000000   543A256400         DC8 "T:%d"
   \   00000005   000000             DC8 0, 0, 0

   \                                 In segment DATA_C, align 4, align-sorted
   \                     `?<Constant "Tasks:%d">`:
   \   00000000   5461736B733A       DC8 "Tasks:%d"
   \              256400      
   \   00000009   000000             DC8 0, 0, 0

   \                                 In segment DATA_C, align 1, align-sorted
   \                     `?<Constant "||">`:
   \   00000000   7C7C00             DC8 "||"

   \                                 In segment DATA_C, align 4, align-sorted
   \   00000000   4D433A00           DC8 "MC:"

   \                                 In segment DATA_C, align 1, align-sorted
   \   00000000   4D4300             DC8 "MC"

   \                                 In segment DATA_C, align 4, align-sorted
   \                     `?<Constant "SieJC">`:
   \   00000000   5369654A4300       DC8 "SieJC"
   \   00000006   0000               DC8 0, 0

   \                                 In segment DATA_C, align 4, align-sorted
   \                     `?<Constant "NATICQ">`:
   \   00000000   4E4154494351       DC8 "NATICQ"
   \              00          
   \   00000007   00                 DC8 0

   \                                 In segment DATA_C, align 4, align-sorted
   \   00000000   424D3A00           DC8 "BM:"

   \                                 In segment DATA_C, align 4, align-sorted
   \                     `?<Constant "Shut down......">`:
   \   00000000   536875742064       DC8 "Shut down......"
   \              6F776E2E2E2E
   \              2E2E2E00    

   \                                 In segment DATA_C, align 4, align-sorted
   \                     `?<Constant "...............[OK]">`:
   \   00000000   2E2E2E2E2E2E       DC8 "...............[OK]"
   \              2E2E2E2E2E2E
   \              2E2E2E5B4F4B
   \              5D00        

   \                                 In segment DATA_C, align 4, align-sorted
   \                     `?<Constant "Closing...">`:
   \   00000000   436C6F73696E       DC8 "Closing..."
   \              672E2E2E00  
   \   0000000B   00                 DC8 0

   \                                 In segment DATA_C, align 4, align-sorted
   \                     `?<Constant "reboot2.png">`:
   \   00000000   7265626F6F74       DC8 "reboot2.png"
   \              322E706E6700

   \                                 In segment DATA_C, align 4, align-sorted
   \                     `?<Constant "reboot1.png">`:
   \   00000000   7265626F6F74       DC8 "reboot1.png"
   \              312E706E6700

   \                                 In segment DATA_C, align 4, align-sorted
   \                     `?<Constant "shutdown2.png">`:
   \   00000000   73687574646F       DC8 "shutdown2.png"
   \              776E322E706E
   \              6700        
   \   0000000E   0000               DC8 0, 0

   \                                 In segment DATA_C, align 4, align-sorted
   \                     `?<Constant "Restarting......">`:
   \   00000000   526573746172       DC8 "Restarting......"
   \              74696E672E2E
   \              2E2E2E2E00  
   \   00000011   000000             DC8 0, 0, 0

   \                                 In segment DATA_C, align 4, align-sorted
   \                     `?<Constant "%s%s">`:
   \   00000000   2573257300         DC8 "%s%s"
   \   00000005   000000             DC8 0, 0, 0

   \                                 In segment DATA_C, align 1, align-sorted
   \                     `?<Constant "">`:
   \   00000000   00                 DC8 ""

   \                                 In segment DATA_C, align 4, align-sorted
   \                     `?<Constant "wrong display">`:
   \   00000000   77726F6E6720       DC8 "wrong display"
   \              646973706C61
   \              7900        
   \   0000000E   0000               DC8 0, 0

   \                                 In segment DATA_C, align 4, align-sorted
   \                     `?<Constant "Cant Start Elf!">`:
   \   00000000   43616E742053       DC8 "Cant Start Elf!"
   \              746172742045
   \              6C662100    

   \                                 In segment DATA_C, align 4, align-sorted
   \                     `?<Constant "XTask config updated!">`:
   \   00000000   585461736B20       DC8 "XTask config updated!"
   \              636F6E666967
   \              207570646174
   \              65642100    
   \   00000016   0000               DC8 0, 0

   \                                 In segment DATA_C, align 4, align-sorted
   \                     `?<Constant "%08X">`:
   \   00000000   2530385800         DC8 "%08X"
   \   00000005   000000             DC8 0, 0, 0

   \                                 In segment DATA_C, align 4, align-sorted
   \                     `?<Constant "xtask 3 mod">`:
   \   00000000   787461736B20       DC8 "xtask 3 mod"
   \              33206D6F6400

   Maximum stack usage in bytes:

     Function            CSTACK
     --------            ------
     DoScreen2              20
     DoSplices              20
     DrawProgress           72
     DrwImg3                64
     ElfKiller               4
     GetUnderIdleCSM        12
     MyIDLECSM_onClose       8
     MyIDLECSM_onMessage    40
     OnKey                  36
     OnRedraw              128
     SearchIcon            288
     ShowMenu               52
     Start_bookmark          8
     UpdateCSMname           8
     get_bookmark            4
     init_turnoff           12
     load_bookmark_list     60
     load_icon_list         60
     main                    4
     maincsm_onclose         0
     maincsm_oncreate       20
     maincsm_onmessage       0
     method8                 0
     method9                 0
     my_keyhook             40
     onClose                 8
     onCreate                0
     onFocus                 0
     onUnfocus               0
     redrit                  4
     strcmp_nocase           0
     task_list3             16


   Segment part sizes:

     Function/Label                 Bytes
     --------------                 -----
     shutdown1                        128
     shutdown2                        128
     reboot1                          128
     reboot2                          128
     book_show                          4
     time_not                           4
     start_tmr                         16
     init_turnoff                     120
     BM1NAME                           32
     BM1FILE                          128
     BM2NAME                           32
     BM2FILE                          128
     BM3NAME                           32
     BM3FILE                          128
     BM4NAME                           32
     BM4FILE                          128
     BM5NAME                           32
     BM5FILE                          128
     BM6NAME                           32
     BM6FILE                          128
     BM7NAME                           32
     BM7FILE                          128
     BM8NAME                           32
     BM8FILE                          128
     BM9NAME                           32
     BM9FILE                          128
     BM0NAME                           32
     BM0FILE                          128
     Start_bookmark                   264
     screen2                            8
     tasks                              4
     icon_text                      32768
     task_list                          4
     DrwImg3                           92
     DoScreen2                         76
     minus11                            4
     maincsm_name_body                280
     MAINCSM_ID                         4
     pos                                4
     total_pos                          4
     total_d                            4
     move_skip                          4
     sm                                 4
     forward                            4
     halt                               4
     shutd                              4
     logout                             4
     data4                              4
     data5                              4
     draw_rec                           4
     this_rec                           4
     DrawProgress                     656
     zin                                4
     init_rec                           4
     task_list3                       308
     SearchIcon                       368
     refresh                            4
     OnRedraw                        4784
     onCreate                          12
     onClose                           48
     onFocus                           12
     onUnfocus                         20
     closing                            4
     show_daemons                       4
     redrit                            12
     OnKey                           1620
     ElfKiller                         24
     method8                            8
     method9                            8
     gui_methods                       44
     Canvas                             8
     maincsm_oncreate                 124
     maincsm_onclose                    4
     maincsm_onmessage                 64
     MAINCSM                           60
     UpdateCSMname                     48
     GetUnderIdleCSM                  156
     SHOW_LOCK                          4
     icsmd                             40
     old_icsm_onMessage                 4
     old_icsm_onClose                   4
     under_idle                         4
     mode                               4
     mode_red                           4
     mode_enter                         4
     ShowMenu                         152
     my_keyhook                      1032
     callhide_mode                      4
     ??strcmp_nocase_0                 76
     my_ipc_name                        8
     MyIDLECSM_onMessage              480
     MyIDLECSM_onClose                 56
     load_icon_list                   156
     serti                              4
     get_bookmark                     144
     load_bookmark_list               428
     DoSplices                        308
     main                             104
     ??DataTable0                       4
     ??DataTable1                       4
     ??DataTable2                       4
     ??DataTable3                       4
     ??DataTable4                       4
     ??DataTable5                       4
     ??DataTable6                       4
     ??DataTable7                       4
     ??DataTable8                       4
     ??DataTable9                       4
     ??DataTable10                      4
     ??DataTable11                      4
     ??DataTable12                      4
     ??DataTable13                      4
     ??DataTable15                      4
     ??DataTable16                      4
     ??DataTable19                      4
     ??DataTable20                      4
     ??DataTable21                      4
     ??DataTable22                      4
     ??DataTable23                      4
     ??DataTable24                      4
     ??DataTable25                      4
     ??DataTable26                      4
     ??DataTable27                      4
     ??DataTable28                      4
     ??DataTable29                      4
     ??DataTable30                      4
     ??DataTable31                      4
     ??DataTable32                      4
     ??DataTable33                      4
     ??DataTable34                      4
     ??DataTable35                      4
     ??DataTable36                      4
     ??DataTable37                      4
     ??DataTable38                      4
     ??DataTable39                      4
     ??DataTable41                      4
     ??DataTable42                      4
     ??DataTable43                      4
     ??DataTable44                      4
     ??DataTable51                      4
     ??DataTable62                      4
     ??DataTable65                      4
     ??DataTable66                      4
     ??DataTable71                      4
     ??DataTable72                      4
     ??DataTable73                      4
     ??DataTable77                      4
     ??DataTable78                      4
     ??DataTable81                      4
     ??DataTable82                      4
     ??DataTable83                      4
     ??DataTable87                      4
     ??DataTable89                      4
     ??DataTable90                      4
     ??DataTable91                      4
     ??DataTable93                      4
     ??DataTable94                      4
     ??DataTable97                      4
     ??DataTable99                      4
     ??DataTable101                     4
     ??DataTable102                     4
     ??DataTable103                     4
     ??DataTable104                     4
     ??DataTable105                     4
     ??DataTable106                     4
     ??DataTable107                     4
     ??DataTable108                     4
     ??DataTable109                     4
     ??DataTable110                     4
     ??DataTable111                     4
     ??DataTable112                     4
     ??DataTable113                     4
     ??DataTable114                     4
     ??DataTable115                     4
     ??DataTable116                     4
     ??DataTable117                     4
     ??DataTable118                     4
     ??DataTable119                     4
     ??DataTable120                     4
     ??DataTable121                     4
     ??DataTable122                     4
     ??DataTable123                     4
     ??DataTable124                     4
     ??DataTable125                     4
     ??DataTable126                     4
     ??DataTable127                     4
     ??DataTable128                     4
     ?<Initializer for time_not>        4
     ?<Initializer for screen2>         8
     ?<Initializer for task_list>       4
     ?<Initializer for pos>             4
     ?<Initializer for total_pos>       4
     ?<Initializer for init_rec>        4
     ?<Constant "shutdown1.png">       16
     ?<Constant "%02d:%02d:%02d">      16
     ?<Constant "%d%">                  4
     ?<Constant "Ram:%dKb">            12
     ?<Constant "T:%d">                 8
     ?<Constant "Tasks:%d">            12
     ?<Constant "||">                   3
     ?<Constant "MC:">                  4
     ?<Constant "MC">                   3
     ?<Constant "SieJC">                8
     ?<Constant "NATICQ">               8
     ?<Constant "BM:">                  4
     ?<Constant "Shut down......">     16
     ?<Constant "...............[OK]">
                                       20
     ?<Constant "Closing...">          12
     ?<Constant "reboot2.png">         12
     ?<Constant "reboot1.png">         12
     ?<Constant "shutdown2.png">       16
     ?<Constant "Restarting......">    20
     ?<Constant "%s%s">                 8
     ?<Constant "">                     1
     ?<Constant "wrong display">       16
     ?<Constant "Cant Start Elf!">     16
     ?<Constant "XTask config updated!">
                                       24
     ?<Constant "%08X">                 8
     ?<Constant "xtask 3 mod">         12
      Others                          272

 
 12 368 bytes in segment CODE
    415 bytes in segment DATA_C
     28 bytes in segment DATA_I
     28 bytes in segment DATA_ID
 35 324 bytes in segment DATA_Z
     24 bytes in segment INITTAB
 
 12 120 bytes of CODE  memory (+ 272 bytes shared)
    443 bytes of CONST memory
 35 352 bytes of DATA  memory

Errors: none
Warnings: none
