################################################################################
#                                                                              #
#      IAR Universal Linker V4.60I/386                                         #
#                                                                              #
#           Link time     =  15/Apr/2011  23:32:37                             #
#           Target CPU    =  ARM                                               #
#           List file     =  C:\arm\3dCub\Release_ELKA\List\3dCub.map          #
#           Output file 1 =  C:\arm\3dCub\Release_ELKA\Exe\3dCub.elf           #
#                            Format: elf, variant: -ynpra                      #
#           Command line  =  C:\arm\3dCub\Release_ELKA\Obj\func.r79            #
#                            C:\arm\3dCub\Release_ELKA\Obj\main.r79            #
#                            C:\arm\3dCub\print.r79 -o                         #
#                            C:\arm\3dCub\Release_ELKA\Exe\3dCub.elf -Felf     #
#                            -l C:\arm\3dCub\Release_ELKA\List\3dCub.map       #
#                            -xms -f C:\arm\3d\test.xcl (-carm                 #
#                            -V(CODE)CODE_AREA,12 -V(DATA)DATA_AREA,12         #
#                            -Z(CODE_AREA)ELFBEGIN,DATA_ID,START,CODE,DATA_C,I #
#                            NITTAB,DATA_Z,DATA_N,CONFIG_C=0-FFFFFFFF          #
#                            -Z(DATA_AREA)DATA_I=0-FFFFFFFF) -ynpra            #
#                            "C:\arm2\Embedded Workbench 4.0 Evaluation\ARM\LI #
#                            B\dl5tpainl8n.r79"                                #
#                            -s main                                           #
#                                                                              #
#                        Copyright 1987-2007 IAR Systems. All rights reserved. #
################################################################################





                ****************************************
                *                                      *
                *           CROSS REFERENCE            *
                *                                      *
                ****************************************

       Program entry at : CODE_AREA 0000092C  Relocatable, from module : main




                ****************************************
                *                                      *
                *            RUNTIME MODEL             *
                *                                      *
                ****************************************

  StackAlign4   = USED
  StackAlign8   = USED
  __cpu_mode    = __pcs__interwork
  __data_model  = absolute
  __endian      = little
  __rt_version  = 6
  __thumb_aware = enabled



                ****************************************
                *                                      *
                *              MODULE MAP              *
                *                                      *
                ****************************************


  DEFINED ABSOLUTE ENTRIES
    *************************************************************************

  DEFINED ABSOLUTE ENTRIES
    *************************************************************************

  FILE NAME : C:\arm\3dCub\Release_ELKA\Obj\func.r79
  PROGRAM MODULE, NAME : func

  SEGMENTS IN THE MODULE
  ======================
ELFBEGIN
  Relative segment, address: CODE_AREA 00000000, align: 0
  Segment part 0. ROOT.
           ENTRY                   ADDRESS         REF BY
           =====                   =======         ======
           ELF_BEGIN               00000000        ElfKiller (main)
    -------------------------------------------------------------------------
CODE
  Relative segment, address: CODE_AREA 000001B0 - 000001B3 (0x4 bytes), align: 2
  Segment part 1. ROOT.
           ENTRY                   ADDRESS         REF BY
           =====                   =======         ======
           kill_data               000001B0        ElfKiller (main)
                                                   gui_methods (main)

    *************************************************************************

  FILE NAME : C:\arm\3dCub\Release_ELKA\Obj\main.r79
  PROGRAM MODULE, NAME : main

  SEGMENTS IN THE MODULE
  ======================
DATA_Z
  Relative segment, address: CODE_AREA 000028E0 - 000029F7 (0x118 bytes), align: 2
  Segment part 8.             Intra module refs:   Segment part 4
           ENTRY                   ADDRESS         REF BY
           =====                   =======         ======
           maincsm_name_body       000028E0 
    -------------------------------------------------------------------------
CODE
  Relative segment, address: CODE_AREA 000001B4 - 000001D3 (0x20 bytes), align: 2
  Segment part 22.            Intra module refs:   Draw1Cub
           ENTRY                   ADDRESS         REF BY
           =====                   =======         ======
           line                    000001B4 
               stack 1 = 00000000 ( 0000000C )
    -------------------------------------------------------------------------
DATA_Z
  Relative segment, address: CODE_AREA 000029F8 - 000029FB (0x4 bytes), align: 2
  Segment part 13.
           ENTRY                   ADDRESS         REF BY
           =====                   =======         ======
           canvasdata              000029F8        Segment part 65 (print)
    -------------------------------------------------------------------------
CODE
  Relative segment, address: CODE_AREA 000001D4 - 00000547 (0x374 bytes), align: 2
  Segment part 24.            Intra module refs:   OnRedraw
           ENTRY                   ADDRESS         REF BY
           =====                   =======         ======
           Draw1Cub                000001D4 
               stack 1 = 00000000 ( 00000028 )
    -------------------------------------------------------------------------
CODE
  Relative segment, address: CODE_AREA 00000548 - 0000054B (0x4 bytes), align: 2
  Segment part 27.            Intra module refs:   Draw1Cub
    -------------------------------------------------------------------------
DATA_I
  Relative segment, address: DATA_AREA 00000000 - 000001AF (0x1b0 bytes), align: 2
  Segment part 11.            Intra module refs:   Draw1Cub
                                                   Segment part 41
                                                   Segment part 55
           ENTRY                   ADDRESS         REF BY
           =====                   =======         ======
           OX                      00000194 
           OY                      00000198 
           crd                     000000A0 
           crd2                    00000118 
           g                       0000019C 
           side                    00000190 
           timer                   000001A0 
           xt                      00000000 
           xt2                     00000050 
           yt                      00000028 
           yt2                     00000078 
    -------------------------------------------------------------------------
CODE
  Relative segment, address: CODE_AREA 0000054C - 00000677 (0x12c bytes), align: 2
  Segment part 29.            Intra module refs:   gui_methods
           LOCAL                   ADDRESS         
           =====                   =======         
           OnRedraw                0000054C 
               stack 1 = 00000000 ( 00000028 )
    -------------------------------------------------------------------------
CODE
  Relative segment, address: CODE_AREA 00000678 - 0000067B (0x4 bytes), align: 2
  Segment part 30.            Intra module refs:   Draw1Cub
                                                   OnRedraw
    -------------------------------------------------------------------------
CODE
  Relative segment, address: CODE_AREA 0000067C - 00000697 (0x1c bytes), align: 2
  Segment part 32.            Intra module refs:   gui_methods
           LOCAL                   ADDRESS         
           =====                   =======         
           onCreate                0000067C 
               stack 1 = 00000000 ( 00000008 )
    -------------------------------------------------------------------------
CODE
  Relative segment, address: CODE_AREA 00000698 - 000006A3 (0xc bytes), align: 2
  Segment part 34.            Intra module refs:   gui_methods
           LOCAL                   ADDRESS         
           =====                   =======         
           onClose                 00000698 
    -------------------------------------------------------------------------
CODE
  Relative segment, address: CODE_AREA 000006A4 - 000006B7 (0x14 bytes), align: 2
  Segment part 36.            Intra module refs:   gui_methods
           LOCAL                   ADDRESS         
           =====                   =======         
           onFocus                 000006A4 
               stack 1 = 00000000 ( 00000004 )
    -------------------------------------------------------------------------
CODE
  Relative segment, address: CODE_AREA 000006B8 - 000006DB (0x24 bytes), align: 2
  Segment part 38.            Intra module refs:   gui_methods
           LOCAL                   ADDRESS         
           =====                   =======         
           onUnfocus               000006B8 
               stack 1 = 00000000 ( 00000008 )
    -------------------------------------------------------------------------
CODE
  Relative segment, address: CODE_AREA 000006DC - 0000082F (0x154 bytes), align: 2
  Segment part 40.            Intra module refs:   gui_methods
           LOCAL                   ADDRESS         
           =====                   =======         
           OnKey                   000006DC 
               stack 1 = 00000000 ( 00000014 )
    -------------------------------------------------------------------------
CODE
  Relative segment, address: CODE_AREA 00000830 - 00000833 (0x4 bytes), align: 2
  Segment part 41.            Intra module refs:   OnKey
                                                   OnRedraw
    -------------------------------------------------------------------------
CODE
  Relative segment, address: CODE_AREA 00000834 - 00000837 (0x4 bytes), align: 2
  Segment part 43.            Intra module refs:   gui_methods
           ENTRY                   ADDRESS         REF BY
           =====                   =======         ======
           method8                 00000834 
    -------------------------------------------------------------------------
CODE
  Relative segment, address: CODE_AREA 00000838, align: 2
  Segment part 45.            Intra module refs:   gui_methods
           ENTRY                   ADDRESS         REF BY
           =====                   =======         ======
           method9                 00000838 
    -------------------------------------------------------------------------
CODE
  Relative segment, address: CODE_AREA 00000838 - 0000083F (0x8 bytes), align: 2
  Segment part 46.            Intra module refs:   method8
                                                   method9
    -------------------------------------------------------------------------
DATA_Z
  Relative segment, address: CODE_AREA 000029FC - 000029FF (0x4 bytes), align: 2
  Segment part 16.            Intra module refs:   maincsm_oncreate
           ENTRY                   ADDRESS         REF BY
           =====                   =======         ======
           menus_id                000029FC 
    -------------------------------------------------------------------------
CODE
  Relative segment, address: CODE_AREA 00000840 - 000008A7 (0x68 bytes), align: 2
  Segment part 48.            Intra module refs:   Segment part 4
           LOCAL                   ADDRESS         
           =====                   =======         
           maincsm_oncreate        00000840 
               stack 1 = 00000000 ( 0000000C )
    -------------------------------------------------------------------------
CODE
  Relative segment, address: CODE_AREA 000008A8 - 000008C3 (0x1c bytes), align: 2
  Segment part 52.            Intra module refs:   maincsm_onclose
           ENTRY                   ADDRESS         REF BY
           =====                   =======         ======
           ElfKiller               000008A8 
               stack 1 = 00000000 ( 00000004 )
    -------------------------------------------------------------------------
CODE
  Relative segment, address: CODE_AREA 000008C4 - 000008DF (0x1c bytes), align: 2
  Segment part 54.            Intra module refs:   Segment part 4
           LOCAL                   ADDRESS         
           =====                   =======         
           maincsm_onclose         000008C4 
               stack 1 = 00000000 ( 00000004 )
    -------------------------------------------------------------------------
CODE
  Relative segment, address: CODE_AREA 000008E0 - 000008E3 (0x4 bytes), align: 2
  Segment part 55.            Intra module refs:   maincsm_onclose
                                                   onUnfocus
    -------------------------------------------------------------------------
CODE
  Relative segment, address: CODE_AREA 000008E4 - 0000090F (0x2c bytes), align: 2
  Segment part 57.            Intra module refs:   Segment part 4
           LOCAL                   ADDRESS         
           =====                   =======         
           maincsm_onmessage       000008E4 
    -------------------------------------------------------------------------
DATA_C
  Relative segment, address: CODE_AREA 000027E0 - 000027E7 (0x8 bytes), align: 2
  Segment part 2.             Intra module refs:   line
    -------------------------------------------------------------------------
DATA_C
  Relative segment, address: CODE_AREA 000027E8 - 0000280B (0x24 bytes), align: 2
  Segment part 3.             Intra module refs:   OnRedraw
    -------------------------------------------------------------------------
DATA_C
  Relative segment, address: CODE_AREA 0000280C - 0000284F (0x44 bytes), align: 2
  Segment part 4.             Intra module refs:   UpdateCSMname
                                                   main
    -------------------------------------------------------------------------
DATA_C
  Relative segment, address: CODE_AREA 00002850 - 00002853 (0x4 bytes), align: 2
  Segment part 7.             Intra module refs:   Segment part 4
           ENTRY                   ADDRESS         REF BY
           =====                   =======         ======
           minus11                 00002850 
    -------------------------------------------------------------------------
DATA_C
  Relative segment, address: CODE_AREA 00002854 - 00002887 (0x34 bytes), align: 2
  Segment part 14.            Intra module refs:   maincsm_oncreate
           ENTRY                   ADDRESS         REF BY
           =====                   =======         ======
           gui_methods             00002854 
    -------------------------------------------------------------------------
CODE
  Relative segment, address: CODE_AREA 00000910 - 0000092B (0x1c bytes), align: 2
  Segment part 59.            Intra module refs:   main
           ENTRY                   ADDRESS         REF BY
           =====                   =======         ======
           UpdateCSMname           00000910 
               stack 1 = 00000000 ( 00000004 )
    -------------------------------------------------------------------------
CODE
  Relative segment, address: CODE_AREA 0000092C - 00000967 (0x3c bytes), align: 2
  Segment part 61.
           ENTRY                   ADDRESS         REF BY
           =====                   =======         ======
           main                    0000092C        Absolute parts (?ABS_ENTRY_MOD)
               stack 1 = 00000000 ( 00000030 )
    -------------------------------------------------------------------------
DATA_ID
  Relative segment, address: CODE_AREA 00000000 - 000001AF (0x1b0 bytes), align: 2
  Segment part 12.            Intra module refs:   Segment part 11
    -------------------------------------------------------------------------
INITTAB
  Relative segment, address: CODE_AREA 000028C8 - 000028D3 (0xc bytes), align: 2
  Segment part 79. ROOT.
           ENTRY                   ADDRESS         REF BY
           =====                   =======         ======
           ?init?tab?DATA_I        000028C8 
    -------------------------------------------------------------------------
INITTAB
  Relative segment, address: CODE_AREA 000028D4 - 000028DF (0xc bytes), align: 2
  Segment part 80. ROOT.
           ENTRY                   ADDRESS         REF BY
           =====                   =======         ======
           ?init?tab?DATA_Z        000028D4 

    *************************************************************************

  FILE NAME : C:\arm\3dCub\print.r79
  PROGRAM MODULE, NAME : print

  SEGMENTS IN THE MODULE
  ======================
DATA_C
  Relative segment, address: CODE_AREA 000028C4 - 000028C6 (0x3 bytes), align: 0
  Segment part 3.             Intra module refs:   Segment part 87
           ENTRY                   ADDRESS         REF BY
           =====                   =======         ======
           percent_t_for_print     000028C4 
    -------------------------------------------------------------------------
DATA_C
  Relative segment, address: CODE_AREA 00002888 - 000028AB (0x24 bytes), align: 2
  Segment part 4.             Intra module refs:   PrintLibInit
           ENTRY                   ADDRESS         REF BY
           =====                   =======         ======
           printLibVersion         00002888 
    -------------------------------------------------------------------------
DATA_Z
  Relative segment, address: CODE_AREA 00002A00 - 00002A03 (0x4 bytes), align: 2
  Segment part 5.             Intra module refs:   Segment part 30
                                                   Segment part 93
           ENTRY                   ADDRESS         REF BY
           =====                   =======         ======
           fontPath                00002A00 
    -------------------------------------------------------------------------
DATA_Z
  Relative segment, address: CODE_AREA 00002A04 - 00002A07 (0x4 bytes), align: 2
  Segment part 6.             Intra module refs:   Segment part 60
                                                   Segment part 86
           ENTRY                   ADDRESS         REF BY
           =====                   =======         ======
           ws1_for_print           00002A04 
    -------------------------------------------------------------------------
DATA_Z
  Relative segment, address: CODE_AREA 00002A08 - 00002A0B (0x4 bytes), align: 2
  Segment part 7.             Intra module refs:   Segment part 58
                                                   Segment part 94
           ENTRY                   ADDRESS         REF BY
           =====                   =======         ======
           maxFontNum              00002A08 
    -------------------------------------------------------------------------
DATA_Z
  Relative segment, address: CODE_AREA 00002A0C - 00002A0F (0x4 bytes), align: 2
  Segment part 8.             Intra module refs:   Segment part 90
           ENTRY                   ADDRESS         REF BY
           =====                   =======         ======
           currNum                 00002A0C 
    -------------------------------------------------------------------------
DATA_Z
  Relative segment, address: CODE_AREA 00002A10 - 00002A13 (0x4 bytes), align: 2
  Segment part 9.             Intra module refs:   Segment part 84
           ENTRY                   ADDRESS         REF BY
           =====                   =======         ======
           scrollEdgeDelay         00002A10 
    -------------------------------------------------------------------------
DATA_Z
  Relative segment, address: CODE_AREA 00002A14 - 00002A17 (0x4 bytes), align: 2
  Segment part 10.            Intra module refs:   Segment part 85
           ENTRY                   ADDRESS         REF BY
           =====                   =======         ======
           isNeedCanvas            00002A14 
    -------------------------------------------------------------------------
DATA_Z
  Relative segment, address: CODE_AREA 00002F2C - 00002F2C (0x1 bytes), align: 0
  Segment part 11.            Intra module refs:   Segment part 97
           ENTRY                   ADDRESS         REF BY
           =====                   =======         ======
           printlib_isFontColorSet
                                   00002F2C 
    -------------------------------------------------------------------------
DATA_Z
  Relative segment, address: CODE_AREA 00002A18 - 00002A1B (0x4 bytes), align: 2
  Segment part 12.            Intra module refs:   Segment part 98
           ENTRY                   ADDRESS         REF BY
           =====                   =======         ======
           printlib_fontColor      00002A18 
    -------------------------------------------------------------------------
DATA_Z
  Relative segment, address: CODE_AREA 00002A1C - 00002A1F (0x4 bytes), align: 2
  Segment part 13.            Intra module refs:   Segment part 99
           ENTRY                   ADDRESS         REF BY
           =====                   =======         ======
           printlib_bgrColor       00002A1C 
    -------------------------------------------------------------------------
DATA_Z
  Relative segment, address: CODE_AREA 00002F2D - 00002F2D (0x1 bytes), align: 0
  Segment part 14.            Intra module refs:   Segment part 100
           ENTRY                   ADDRESS         REF BY
           =====                   =======         ======
           printlib_isOutline      00002F2D 
    -------------------------------------------------------------------------
DATA_Z
  Relative segment, address: CODE_AREA 00002A20 - 00002F1F (0x500 bytes), align: 2
  Segment part 15.            Intra module refs:   Segment part 55
           ENTRY                   ADDRESS         REF BY
           =====                   =======         ======
           ycoord                  00002A20 
    -------------------------------------------------------------------------
CODE
  Relative segment, address: CODE_AREA 00000968 - 0000098F (0x28 bytes), align: 2
  Segment part 17.            Intra module refs:   FindDim
           ENTRY                   ADDRESS         REF BY
           =====                   =======         ======
           FillDim                 00000968 
    -------------------------------------------------------------------------
CODE
  Relative segment, address: CODE_AREA 00000990 - 00000A1F (0x90 bytes), align: 2
  Segment part 19.            Intra module refs:   PrintField
           ENTRY                   ADDRESS         REF BY
           =====                   =======         ======
           FindDim                 00000990 
               stack 1 = 00000000 ( 00000018 )
    -------------------------------------------------------------------------
CODE
  Relative segment, address: CODE_AREA 00000A20 - 00000A6F (0x50 bytes), align: 2
  Segment part 23.            Intra module refs:   PrintLibInit
           ENTRY                   ADDRESS         REF BY
           =====                   =======         ======
           InitDynVar              00000A20 
               stack 1 = 00000000 ( 0000000C )
    -------------------------------------------------------------------------
CODE
  Relative segment, address: CODE_AREA 00000A70 - 00000BAF (0x140 bytes), align: 2
  Segment part 29.            Intra module refs:   CalcStrWidth
                                                   FontH
                                                   MyDrawString
           ENTRY                   ADDRESS         REF BY
           =====                   =======         ======
           Char2Img                00000A70 
               stack 1 = 00000000 ( 00000004 )
    -------------------------------------------------------------------------
CODE
  Relative segment, address: CODE_AREA 00000BB0 - 00000BB3 (0x4 bytes), align: 2
  Segment part 30.            Intra module refs:   Char2Img
                                                   InitDynVar
    -------------------------------------------------------------------------
CODE
  Relative segment, address: CODE_AREA 00000BB4 - 00000BE7 (0x34 bytes), align: 2
  Segment part 32.            Intra module refs:   PrintField
           ENTRY                   ADDRESS         REF BY
           =====                   =======         ======
           FontH                   00000BB4 
               stack 1 = 00000000 ( 00000004 )
    -------------------------------------------------------------------------
CODE
  Relative segment, address: CODE_AREA 00000BE8 - 00000CB3 (0xcc bytes), align: 2
  Segment part 38.            Intra module refs:   PrintField
           ENTRY                   ADDRESS         REF BY
           =====                   =======         ======
           CalcStrWidth            00000BE8 
               stack 1 = 00000000 ( 00000018 )
    -------------------------------------------------------------------------
CODE
  Relative segment, address: CODE_AREA 00000CB4 - 00000D3B (0x88 bytes), align: 2
  Segment part 40.            Intra module refs:   PrintField
           ENTRY                   ADDRESS         REF BY
           =====                   =======         ======
           MyDrawString            00000CB4 
               stack 1 = 00000000 ( 00000024 )
    -------------------------------------------------------------------------
CODE
  Relative segment, address: CODE_AREA 00000D3C - 00000D3F (0x4 bytes), align: 2
  Segment part 55.            Intra module refs:   FindDim
                                                   InitDynVar
    -------------------------------------------------------------------------
CODE
  Relative segment, address: CODE_AREA 00000D40 - 0000101B (0x2dc bytes), align: 2
  Segment part 57.
           ENTRY                   ADDRESS         REF BY
           =====                   =======         ======
           PrintField              00000D40        OnRedraw (main)
               stack 1 = 00000000 ( 00000040 )
    -------------------------------------------------------------------------
CODE
  Relative segment, address: CODE_AREA 0000101C - 0000101F (0x4 bytes), align: 2
  Segment part 58.            Intra module refs:   CalcStrWidth
                                                   Char2Img
                                                   FontH
                                                   InitDynVar
                                                   PrintField
    -------------------------------------------------------------------------
CODE
  Relative segment, address: CODE_AREA 00001020 - 00001023 (0x4 bytes), align: 2
  Segment part 59.            Intra module refs:   Char2Img
                                                   PrintField
    -------------------------------------------------------------------------
CODE
  Relative segment, address: CODE_AREA 00001024 - 00001027 (0x4 bytes), align: 2
  Segment part 60.            Intra module refs:   CalcStrWidth
                                                   InitDynVar
                                                   PrintField
    -------------------------------------------------------------------------
CODE
  Relative segment, address: CODE_AREA 00001028 - 0000102B (0x4 bytes), align: 2
  Segment part 65.            Intra module refs:   PrintField
    -------------------------------------------------------------------------
CODE
  Relative segment, address: CODE_AREA 0000102C - 00001043 (0x18 bytes), align: 2
  Segment part 81.
           ENTRY                   ADDRESS         REF BY
           =====                   =======         ======
           SetCanvasFlag           0000102C        onCreate (main)
    -------------------------------------------------------------------------
CODE
  Relative segment, address: CODE_AREA 00001044 - 0000109F (0x5c bytes), align: 2
  Segment part 83.
           ENTRY                   ADDRESS         REF BY
           =====                   =======         ======
           PrintLibInit            00001044        main (main)
               stack 1 = 00000000 ( 00000004 )
    -------------------------------------------------------------------------
CODE
  Relative segment, address: CODE_AREA 000010A0 - 000010A3 (0x4 bytes), align: 2
  Segment part 84.            Intra module refs:   PrintLibInit
    -------------------------------------------------------------------------
CODE
  Relative segment, address: CODE_AREA 000010A4 - 000010A7 (0x4 bytes), align: 2
  Segment part 85.            Intra module refs:   PrintField
                                                   PrintLibInit
                                                   SetCanvasFlag
    -------------------------------------------------------------------------
CODE
  Relative segment, address: CODE_AREA 000010A8 - 000010AB (0x4 bytes), align: 2
  Segment part 86.            Intra module refs:   PrintLibInit
    -------------------------------------------------------------------------
CODE
  Relative segment, address: CODE_AREA 000010AC - 000010AF (0x4 bytes), align: 2
  Segment part 87.            Intra module refs:   CalcStrWidth
                                                   PrintLibInit
    -------------------------------------------------------------------------
CODE
  Relative segment, address: CODE_AREA 000010B0 - 000010B3 (0x4 bytes), align: 2
  Segment part 90.            Intra module refs:   PrintLibInit
    -------------------------------------------------------------------------
CODE
  Relative segment, address: CODE_AREA 000010B4 - 000010B7 (0x4 bytes), align: 2
  Segment part 93.            Intra module refs:   PrintLibInit
    -------------------------------------------------------------------------
CODE
  Relative segment, address: CODE_AREA 000010B8 - 000010BB (0x4 bytes), align: 2
  Segment part 94.            Intra module refs:   PrintLibInit
    -------------------------------------------------------------------------
CODE
  Relative segment, address: CODE_AREA 000010BC - 000010BF (0x4 bytes), align: 2
  Segment part 97.            Intra module refs:   PrintField
                                                   PrintLibInit
    -------------------------------------------------------------------------
CODE
  Relative segment, address: CODE_AREA 000010C0 - 000010C3 (0x4 bytes), align: 2
  Segment part 98.            Intra module refs:   PrintField
    -------------------------------------------------------------------------
CODE
  Relative segment, address: CODE_AREA 000010C4 - 000010C7 (0x4 bytes), align: 2
  Segment part 99.            Intra module refs:   PrintField
    -------------------------------------------------------------------------
CODE
  Relative segment, address: CODE_AREA 000010C8 - 000010CB (0x4 bytes), align: 2
  Segment part 100.           Intra module refs:   PrintField

    *************************************************************************

  FILE NAME : C:\arm2\Embedded Workbench 4.0 Evaluation\ARM\LIB\dl5tpainl8n.r79
  LIBRARY MODULE, NAME : ?fpStatus

  SEGMENTS IN THE MODULE
  ======================
DATA_Z
  Relative segment, address: CODE_AREA 00002F20 - 00002F23 (0x4 bytes), align: 2
  Segment part 2.
           ENTRY                   ADDRESS         REF BY
           =====                   =======         ======
           __FloatingPointFlags    00002F20        Segment part 0 (?SetInvalidFlag)

    -------------------------------------------------------------------------
  LIBRARY MODULE, NAME : ?errno

  SEGMENTS IN THE MODULE
  ======================
DATA_Z
  Relative segment, address: CODE_AREA 00002F24 - 00002F2B (0x8 bytes), align: 2
  Segment part 2.             Intra module refs:   _Geterrno
           ENTRY                   ADDRESS         REF BY
           =====                   =======         ======
           _Errno                  00002F28 
           _Tls_setup__Errno       00002F24 
    -------------------------------------------------------------------------
CODE
  Relative segment, address: CODE_AREA 000010CC - 000010EF (0x24 bytes), align: 2
  Segment part 4.
           ENTRY                   ADDRESS         REF BY
           =====                   =======         ======
           _Geterrno               000010CC        _Sin (?xsin)
                                                   fmod (?fmod)
               stack 1 = 00000000 ( 00000008 )

    -------------------------------------------------------------------------
  LIBRARY MODULE, NAME : ?fmod

  SEGMENTS IN THE MODULE
  ======================
CODE
  Relative segment, address: CODE_AREA 000010F0 - 000013B3 (0x2c4 bytes), align: 2
  Segment part 3.
           ENTRY                   ADDRESS         REF BY
           =====                   =======         ======
           fmod                    000010F0        _Sin (?xsin)
               stack 1 = 00000000 ( 00000030 )

    -------------------------------------------------------------------------
  LIBRARY MODULE, NAME : ?xdnorm

  SEGMENTS IN THE MODULE
  ======================
CODE
  Relative segment, address: CODE_AREA 000013B4 - 00001503 (0x150 bytes), align: 2
  Segment part 3.
           ENTRY                   ADDRESS         REF BY
           =====                   =======         ======
           _Dnorm                  000013B4        _Dscale (?xdscale)
                                                   fmod (?fmod)

    -------------------------------------------------------------------------
  LIBRARY MODULE, NAME : ?xdscale

  SEGMENTS IN THE MODULE
  ======================
CODE
  Relative segment, address: CODE_AREA 00001504 - 000016D3 (0x1d0 bytes), align: 2
  Segment part 3.
           ENTRY                   ADDRESS         REF BY
           =====                   =======         ======
           _Dscale                 00001504        fmod (?fmod)
               stack 1 = 00000000 ( 00000010 )

    -------------------------------------------------------------------------
  LIBRARY MODULE, NAME : ?xsin

  SEGMENTS IN THE MODULE
  ======================
CODE
  Relative segment, address: CODE_AREA 000016D4 - 00001B03 (0x430 bytes), align: 2
  Segment part 3.
           ENTRY                   ADDRESS         REF BY
           =====                   =======         ======
           _Sin                    000016D4        Draw1Cub (main)
               stack 1 = 00000000 ( 00000028 )

    -------------------------------------------------------------------------
  LIBRARY MODULE, NAME : ?xvalues

  SEGMENTS IN THE MODULE
  ======================
DATA_C
  Relative segment, address: CODE_AREA 000028AC - 000028B3 (0x8 bytes), align: 2
  Segment part 5.
           ENTRY                   ADDRESS         REF BY
           =====                   =======         ======
           _Inf                    000028AC        _Dscale (?xdscale)
    -------------------------------------------------------------------------
DATA_C
  Relative segment, address: CODE_AREA 000028B4 - 000028BB (0x8 bytes), align: 2
  Segment part 6.
           ENTRY                   ADDRESS         REF BY
           =====                   =======         ======
           _Nan                    000028B4        _Sin (?xsin)
                                                   fmod (?fmod)
    -------------------------------------------------------------------------
DATA_C
  Relative segment, address: CODE_AREA 000028BC - 000028C3 (0x8 bytes), align: 2
  Segment part 7.
           ENTRY                   ADDRESS         REF BY
           =====                   =======         ======
           _Rteps                  000028BC        _Sin (?xsin)

    -------------------------------------------------------------------------
  LIBRARY MODULE, NAME : ?GetDenormal

  SEGMENTS IN THE MODULE
  ======================
CODE
  Relative segment, address: CODE_AREA 00001B04 - 00001B63 (0x60 bytes), align: 2
  Segment part 0.
           ENTRY                   ADDRESS         REF BY
           =====                   =======         ======
           ?GetDenormalX           00001B04        Segment part 1 (?D_MulFloat)
           ?GetDenormalY           00001B34        Segment part 1 (?D_MulFloat)

    -------------------------------------------------------------------------
  LIBRARY MODULE, NAME : ?D_LONG2DOUBLE

  SEGMENTS IN THE MODULE
  ======================
CODE
  Relative segment, address: CODE_AREA 00001B64 - 00001BBF (0x5c bytes), align: 2
  Segment part 1.
           ENTRY                   ADDRESS         REF BY
           =====                   =======         ======
           __aeabi_i2d             00001B64 
           __longToDouble          00001B64        _Sin (?xsin)
           __longToDouble::??rA    00001B64 
           __longToDubleStart      00001B80 

    -------------------------------------------------------------------------
  LIBRARY MODULE, NAME : ?D_DOUBLE2LONG

  SEGMENTS IN THE MODULE
  ======================
CODE
  Relative segment, address: CODE_AREA 00001BC0 - 00001C1F (0x60 bytes), align: 2
  Segment part 1.
           ENTRY                   ADDRESS         REF BY
           =====                   =======         ======
           __aeabi_d2iz            00001BC0 
           __doubleToLong          00001BC0        _Sin (?xsin)
           __doubleToLong::??rA    00001BC0 

    -------------------------------------------------------------------------
  LIBRARY MODULE, NAME : ?D_DOUBLE2FLOAT

  SEGMENTS IN THE MODULE
  ======================
CODE
  Relative segment, address: CODE_AREA 00001C20 - 00001CDB (0xbc bytes), align: 2
  Segment part 1.
           ENTRY                   ADDRESS         REF BY
           =====                   =======         ======
           __aeabi_d2f             00001C20 
           __doubleToFloat         00001C20        Draw1Cub (main)
                                                   OnKey (main)
                                                   OnRedraw (main)
           __doubleToFloat::??rA   00001C20 

    -------------------------------------------------------------------------
  LIBRARY MODULE, NAME : ?FLOATEDOUBLE

  SEGMENTS IN THE MODULE
  ======================
CODE
  Relative segment, address: CODE_AREA 00001CDC - 00001D3F (0x64 bytes), align: 2
  Segment part 1.
           ENTRY                   ADDRESS         REF BY
           =====                   =======         ======
           __aeabi_f2d             00001CDC 
           __floatToDouble         00001CDC        Draw1Cub (main)
                                                   OnKey (main)
                                                   OnRedraw (main)
           __floatToDouble::??rA   00001CDC 

    -------------------------------------------------------------------------
  LIBRARY MODULE, NAME : ?SetInvalidFlag

  SEGMENTS IN THE MODULE
  ======================
CODE
  Relative segment, address: CODE_AREA 00001D40 - 00001D5B (0x1c bytes), align: 2
  Segment part 0.
           ENTRY                   ADDRESS         REF BY
           =====                   =======         ======
           ?SetInvalidFlag         00001D44        __aeabi_cdcmple (?DBL_LT)
           ?SetInvalidFlagClr      00001D40        __aeabi_cdrcmple (?DBL_GE)

    -------------------------------------------------------------------------
  LIBRARY MODULE, NAME : ?DBL_GE

  SEGMENTS IN THE MODULE
  ======================
CODE
  Relative segment, address: CODE_AREA 00001D5C - 00001D9B (0x40 bytes), align: 2
  Segment part 0.
           ENTRY                   ADDRESS         REF BY
           =====                   =======         ======
           __aeabi_cdrcmple        00001D5C        Segment part 1 (?D_CmpFloat5)

    -------------------------------------------------------------------------
  LIBRARY MODULE, NAME : ?D_CmpFloat5

  SEGMENTS IN THE MODULE
  ======================
CODE
  Relative segment, address: CODE_AREA 00001D9C - 00001DB3 (0x18 bytes), align: 2
  Segment part 1.
           ENTRY                   ADDRESS         REF BY
           =====                   =======         ======
           __aeabi_dcmpge          00001D9C 
           __dGreaterEqual         00001D9C        OnKey (main)
                                                   _Sin (?xsin)
                                                   fmod (?fmod)
           __dGreaterEqual::??rA   00001D9C 

    -------------------------------------------------------------------------
  LIBRARY MODULE, NAME : ?DBL_LT

  SEGMENTS IN THE MODULE
  ======================
CODE
  Relative segment, address: CODE_AREA 00001DB4 - 00001DF3 (0x40 bytes), align: 2
  Segment part 0.
           ENTRY                   ADDRESS         REF BY
           =====                   =======         ======
           __aeabi_cdcmple         00001DB4        Segment part 1 (?D_CmpFloat4)

    -------------------------------------------------------------------------
  LIBRARY MODULE, NAME : ?D_CmpFloat4

  SEGMENTS IN THE MODULE
  ======================
CODE
  Relative segment, address: CODE_AREA 00001DF4 - 00001E0B (0x18 bytes), align: 2
  Segment part 1.
           ENTRY                   ADDRESS         REF BY
           =====                   =======         ======
           __dLess                 00001DF4        _Sin (?xsin)
                                                   fmod (?fmod)
           __dLess::??rA           00001DF4 
           __aeabi_dcmplt          00001DF4 

    -------------------------------------------------------------------------
  LIBRARY MODULE, NAME : ?D_MulFloat

  SEGMENTS IN THE MODULE
  ======================
CODE
  Relative segment, address: CODE_AREA 00001E0C - 00002043 (0x238 bytes), align: 2
  Segment part 1.
           ENTRY                   ADDRESS         REF BY
           =====                   =======         ======
           __dMul                  00001E0C        Draw1Cub (main)
                                                   _Sin (?xsin)
           __dMul::??rA            00001E0C 
           __aeabi_dmul            00001E0C 

    -------------------------------------------------------------------------
  LIBRARY MODULE, NAME : ?D_SubDouble

  SEGMENTS IN THE MODULE
  ======================
CODE
  Relative segment, address: CODE_AREA 00002044 - 0000223B (0x1f8 bytes), align: 2
  Segment part 1.
           ENTRY                   ADDRESS         REF BY
           =====                   =======         ======
           __aeabi_dsub            00002044 
           __dSub                  00002044        Draw1Cub (main)
                                                   _Sin (?xsin)
                                                   fmod (?fmod)
           __dSub::??rA            00002044 
           __DoSub                 00002054        Segment part 1 (?D_AddDouble)

    -------------------------------------------------------------------------
  LIBRARY MODULE, NAME : ?D_AddDouble

  SEGMENTS IN THE MODULE
  ======================
CODE
  Relative segment, address: CODE_AREA 0000223C - 0000237F (0x144 bytes), align: 2
  Segment part 1.
           ENTRY                   ADDRESS         REF BY
           =====                   =======         ======
           __aeabi_dadd            0000223C 
           __dAdd                  0000223C        Draw1Cub (main)
                                                   OnKey (main)
                                                   OnRedraw (main)
                                                   _Sin (?xsin)
           __dAdd::??rA            0000223C 
           __DoAdd                 0000224C        Segment part 1 (?D_SubDouble)

    -------------------------------------------------------------------------
  LIBRARY MODULE, NAME : ?F_LONG2FLOAT

  SEGMENTS IN THE MODULE
  ======================
CODE
  Relative segment, address: CODE_AREA 00002380 - 000023E7 (0x68 bytes), align: 2
  Segment part 1.
           ENTRY                   ADDRESS         REF BY
           =====                   =======         ======
           __aeabi_i2f             00002380 
           __longToFloat           00002380        Draw1Cub (main)
           __longToFloat::??rA     00002380 
           __longToFloatStart      00002394 

    -------------------------------------------------------------------------
  LIBRARY MODULE, NAME : ?F_FLOAT2LONG

  SEGMENTS IN THE MODULE
  ======================
CODE
  Relative segment, address: CODE_AREA 000023E8 - 0000243F (0x58 bytes), align: 2
  Segment part 1.
           ENTRY                   ADDRESS         REF BY
           =====                   =======         ======
           __aeabi_f2iz            000023E8 
           __floatToLong           000023E8        Draw1Cub (main)
           __floatToLong::??rA     000023E8 

    -------------------------------------------------------------------------
  LIBRARY MODULE, NAME : ?F_MulFloat

  SEGMENTS IN THE MODULE
  ======================
CODE
  Relative segment, address: CODE_AREA 00002440 - 000025CF (0x190 bytes), align: 2
  Segment part 1.
           ENTRY                   ADDRESS         REF BY
           =====                   =======         ======
           __fMul                  00002440        Draw1Cub (main)
           __fMul::??rA            00002440 
           __aeabi_fmul            00002440 

    -------------------------------------------------------------------------
  LIBRARY MODULE, NAME : ?floatSoftLib

  SEGMENTS IN THE MODULE
  ======================
CODE
  Relative segment, address: CODE_AREA 000025D0 - 0000270F (0x140 bytes), align: 2
  Segment part 1.
           ENTRY                   ADDRESS         REF BY
           =====                   =======         ======
           __aeabi_fsub            000025D0 
           __fSub                  000025D0        Draw1Cub (main)
           __fSub::??rA            000025D0 
           __fDoSub                000025DC        Segment part 1 (?F_AddDouble)

    -------------------------------------------------------------------------
  LIBRARY MODULE, NAME : ?F_AddDouble

  SEGMENTS IN THE MODULE
  ======================
CODE
  Relative segment, address: CODE_AREA 00002710 - 000027DF (0xd0 bytes), align: 2
  Segment part 1.
           ENTRY                   ADDRESS         REF BY
           =====                   =======         ======
           __aeabi_fadd            00002710 
           __fAdd                  00002710        Draw1Cub (main)
                                                   OnKey (main)
           __fAdd::??rA            00002710 
           __fDoAdd                0000271C        Segment part 1 (?floatSoftLib)




                ****************************************
                *                                      *
                *      SEGMENTS IN ADDRESS ORDER       *
                *                                      *
                ****************************************


SEGMENT              SPACE    START ADDRESS   END ADDRESS     SIZE  TYPE  ALIGN
=======              =====    =============   ===========     ====  ====  =====
ELFBEGIN             CODE_AREA           00000000                     rel    0
DATA_ID              CODE_AREA      00000000 - 000001AF         1B0   rel    2
START                CODE_AREA           000001B0                     dse    0
CODE                 CODE_AREA      000001B0 - 000027DF        2630   rel    2
DATA_C               CODE_AREA      000027E0 - 000028C6          E7   rel    2
INITTAB              CODE_AREA      000028C8 - 000028DF          18   rel    2
DATA_Z               CODE_AREA      000028E0 - 00002F2D         64E   rel    2
DATA_I               DATA_AREA      00000000 - 000001AF         1B0   rel    2

                ****************************************
                *                                      *
                *        END OF CROSS REFERENCE        *
                *                                      *
                ****************************************

 12 077 bytes of CODE memory
    432 bytes of DATA memory

Errors: none
Warnings: none

