##############################################################################
#                                                                            #
# IAR ARM ANSI C/C++ Compiler V4.42A/W32 EVALUATION    08/Aug/2012  15:38:37 #
# Copyright 1999-2005 IAR Systems. All rights reserved.                      #
#                                                                            #
#    Cpu mode        =  interwork                                            #
#    Endian          =  little                                               #
#    Stack alignment =  4                                                    #
#    Source file     =  C:\arm\google_maps\language\language.c               #
#    Command line    =  C:\arm\google_maps\language\language.c -D NEWSGOLD   #
#                       -lC C:\arm\google_maps\Release\List\ -o              #
#                       C:\arm\google_maps\Release\Obj\ -s9 --no_unroll      #
#                       --no_clustering --cpu_mode arm --endian little       #
#                       --cpu ARM926EJ-S --stack_align 4 --interwork -e      #
#                       --fpu None --dlib_config "C:\arm2\Embedded           #
#                       Workbench 4.0 Evaluation\ARM\LIB\dl5tpainl8f.h" -I   #
#                       "C:\arm2\Embedded Workbench 4.0                      #
#                       Evaluation\ARM\INC\" --inline_threshold=2            #
#    List file       =  C:\arm\google_maps\Release\List\language.lst         #
#    Object file     =  C:\arm\google_maps\Release\Obj\language.r79          #
#                                                                            #
#                                                                            #
##############################################################################

C:\arm\google_maps\language\language.c
      1          #include "..\inc\swilib.h"
      2          #include "../include.h"
      3          #include "language.h"
      4          #include "../file_works.h"
      5          

   \                                 In segment DATA_Z, align 4, align-sorted
      6          char * lgpData[LGP_DATA_NUM];
   \                     lgpData:
   \   00000000                      DS8 24

   \                                 In segment DATA_Z, align 4, align-sorted
      7          int lgpLoaded;
   \                     lgpLoaded:
   \   00000000                      DS8 4
      8          

   \                                 In segment CODE, align 4, keep-with-next
      9          void lgpInitLangPack(void)
     10          {
     11            int hFile;
     12            unsigned int io_error = NULL;
     13            
     14            
     15            char  lang_file[256];
     16            sprintf(lang_file,"%s\\",fname,resource[LANG]);
   \                     lgpInitLangPack:
   \   00000000   24029FE5           LDR      R0,??lgpInitLangPack_0+0xC  ;; resource + 8
   \   00000004   24229FE5           LDR      R2,??lgpInitLangPack_0+0x10  ;; fname
   \   00000008   F0472DE9           PUSH     {R4-R10,LR}
     17            for (int i = 0; i < LGP_DATA_NUM; i ++)
   \   0000000C   ........           LDR      R5,??DataTable3  ;; lgpData
   \   00000010   6BDF4DE2           SUB      SP,SP,#+428
   \   00000014   003090E5           LDR      R3,[R0, #+0]
   \   00000018   0040A0E3           MOV      R4,#+0
   \   0000001C   00408DE5           STR      R4,[SP, #+0]
   \   00000020   7E1F8FE2           ADR      R1,??lgpInitLangPack_0  ;; "%s\\"
   \   00000024   2C008DE2           ADD      R0,SP,#+44
   \   00000028   160000EF           SWI      +22
   \   0000002C   0000A0E3           MOV      R0,#+0
     18              lgpData[i] = NULL;
   \                     ??lgpInitLangPack_1:
   \   00000030   004185E7           STR      R4,[R5, +R0, LSL #+2]
   \   00000034   010080E2           ADD      R0,R0,#+1
   \   00000038   060050E3           CMP      R0,#+6
   \   0000003C   FBFFFFBA           BLT      ??lgpInitLangPack_1
     19            lgpLoaded = 0;
   \   00000040   ........           LDR      R6,??DataTable2  ;; lgpLoaded
     20            
     21            char * buf;
     22            FSTATS fstat;
     23            
     24            if (GetFileStats(lang_file, &fstat, &io_error) != -1)
   \   00000044   0470E0E1           MVN      R7,R4
   \   00000048   004086E5           STR      R4,[R6, #+0]
   \   0000004C   0D20A0E1           MOV      R2,SP
   \   00000050   04108DE2           ADD      R1,SP,#+4
   \   00000054   2C008DE2           ADD      R0,SP,#+44
   \   00000058   840000EF           SWI      +132
   \   0000005C   070050E1           CMP      R0,R7
   \   00000060   6000000A           BEQ      ??lgpInitLangPack_2
     25            {
     26              if((hFile = fopen(lang_file, A_ReadOnly + A_BIN, P_READ, &io_error))!=-1)
   \   00000064   0D30A0E1           MOV      R3,SP
   \   00000068   8020A0E3           MOV      R2,#+128
   \   0000006C   801CA0E3           MOV      R1,#+32768
   \   00000070   2C008DE2           ADD      R0,SP,#+44
   \   00000074   0A0000EF           SWI      +10
   \   00000078   0080A0E1           MOV      R8,R0
   \   0000007C   070058E1           CMP      R8,R7
   \   00000080   5800000A           BEQ      ??lgpInitLangPack_2
     27              {
     28                if (buf =(char *)malloc(fstat.size + 1))
   \   00000084   08009DE5           LDR      R0,[SP, #+8]
   \   00000088   010080E2           ADD      R0,R0,#+1
   \   0000008C   140000EF           SWI      +20
   \   00000090   0070B0E1           MOVS     R7,R0
   \   00000094   5000000A           BEQ      ??lgpInitLangPack_3
     29                {
     30                  buf[fread(hFile, buf, fstat.size, &io_error)] = NULL;
   \   00000098   08209DE5           LDR      R2,[SP, #+8]
   \   0000009C   0D30A0E1           MOV      R3,SP
   \   000000A0   0710A0E1           MOV      R1,R7
   \   000000A4   0800A0E1           MOV      R0,R8
   \   000000A8   0B0000EF           SWI      +11
   \   000000AC   0740C0E7           STRB     R4,[R0, +R7]
     31                  fclose(hFile, &io_error);
   \   000000B0   0D10A0E1           MOV      R1,SP
   \   000000B4   0800A0E1           MOV      R0,R8
   \   000000B8   0D0000EF           SWI      +13
     32                  
     33                  char line[128];
     34                  int lineSize = NULL;
   \   000000BC   0080A0E3           MOV      R8,#+0
     35                  int lp_id = NULL;
   \   000000C0   0490A0E1           MOV      R9,R4
     36                  int buf_pos = NULL;
   \   000000C4   04A0A0E1           MOV      R10,R4
   \   000000C8   040000EA           B        ??lgpInitLangPack_4
     37                  while(buf[buf_pos] && buf_pos < fstat.size && lp_id < LGP_DATA_NUM)
     38                  {
     39                    if (buf[buf_pos]=='\n' || buf[buf_pos]=='\r')
     40                    {
     41                      if (lineSize > 0)
     42                      {
     43                        lgpData[lp_id] = (char *)malloc(lineSize+1);
     44                        memcpy(lgpData[lp_id], line, lineSize);
     45                        lgpData[lp_id][lineSize] = NULL;
     46                        lp_id ++;
     47                        lineSize = NULL;
     48                      }
     49                    }
     50                    else
     51                      line[lineSize ++] = buf[buf_pos];
   \                     ??lgpInitLangPack_5:
   \   000000CC   0720DAE7           LDRB     R2,[R10, +R7]
   \   000000D0   4B1F8DE2           ADD      R1,SP,#+300
   \   000000D4   0120C8E7           STRB     R2,[R8, +R1]
   \   000000D8   0080A0E1           MOV      R8,R0
     52                    buf_pos ++;
   \                     ??lgpInitLangPack_6:
   \   000000DC   01A08AE2           ADD      R10,R10,#+1
   \                     ??lgpInitLangPack_4:
   \   000000E0   0710DAE7           LDRB     R1,[R10, +R7]
   \   000000E4   010088E2           ADD      R0,R8,#+1
   \   000000E8   000051E3           CMP      R1,#+0
   \   000000EC   1400000A           BEQ      ??lgpInitLangPack_7
   \   000000F0   08109DE5           LDR      R1,[SP, #+8]
   \   000000F4   01005AE1           CMP      R10,R1
   \   000000F8   1100002A           BCS      ??lgpInitLangPack_7
   \   000000FC   060059E3           CMP      R9,#+6
   \   00000100   0F0000AA           BGE      ??lgpInitLangPack_7
   \   00000104   0710DAE7           LDRB     R1,[R10, +R7]
   \   00000108   0A0051E3           CMP      R1,#+10
   \   0000010C   0D005113           CMPNE    R1,#+13
   \   00000110   EDFFFF1A           BNE      ??lgpInitLangPack_5
   \   00000114   010058E3           CMP      R8,#+1
   \   00000118   EFFFFFBA           BLT      ??lgpInitLangPack_6
   \   0000011C   140000EF           SWI      +20
   \   00000120   090185E7           STR      R0,[R5, +R9, LSL #+2]
   \   00000124   0820A0E1           MOV      R2,R8
   \   00000128   4B1F8DE2           ADD      R1,SP,#+300
   \   0000012C   1E0100EF           SWI      +286
   \   00000130   090195E7           LDR      R0,[R5, +R9, LSL #+2]
   \   00000134   019089E2           ADD      R9,R9,#+1
   \   00000138   0040C8E7           STRB     R4,[R8, +R0]
   \   0000013C   0080A0E3           MOV      R8,#+0
   \   00000140   E5FFFFEA           B        ??lgpInitLangPack_6
     53                  }
     54                  if (lineSize > 0 && lp_id < LGP_DATA_NUM) // eof
   \                     ??lgpInitLangPack_7:
   \   00000144   010058E3           CMP      R8,#+1
   \   00000148   080000BA           BLT      ??lgpInitLangPack_8
   \   0000014C   060059E3           CMP      R9,#+6
   \   00000150   060000AA           BGE      ??lgpInitLangPack_8
     55                  {
     56                    lgpData[lp_id] = (char *)malloc(lineSize+1);
   \   00000154   140000EF           SWI      +20
   \   00000158   090185E7           STR      R0,[R5, +R9, LSL #+2]
     57                    memcpy(lgpData[lp_id], line, lineSize);
   \   0000015C   0820A0E1           MOV      R2,R8
   \   00000160   4B1F8DE2           ADD      R1,SP,#+300
   \   00000164   1E0100EF           SWI      +286
     58                    lgpData[lp_id][lineSize] = NULL;
   \   00000168   090195E7           LDR      R0,[R5, +R9, LSL #+2]
   \   0000016C   0040C8E7           STRB     R4,[R8, +R0]
     59                    lp_id ++;
     60                    lineSize = NULL;
     61                  }
     62                  mfree(buf);
   \                     ??lgpInitLangPack_8:
   \   00000170   0700A0E1           MOV      R0,R7
   \   00000174   150000EF           SWI      +21
     63                  lgpLoaded = 1;
   \   00000178   0100A0E3           MOV      R0,#+1
   \   0000017C   000086E5           STR      R0,[R6, #+0]
     64                  
     65                  // old langpack
     66                  if (strlen(lgpData[LGP_LangCode]) > 2)
   \   00000180   140095E5           LDR      R0,[R5, #+20]
   \   00000184   1B0000EF           SWI      +27
   \   00000188   030050E3           CMP      R0,#+3
   \   0000018C   0600003A           BCC      ??lgpInitLangPack_9
     67                  {
     68                    mfree(lgpData[LGP_LangCode]);
   \   00000190   140095E5           LDR      R0,[R5, #+20]
   \   00000194   150000EF           SWI      +21
     69                    lgpData[LGP_LangCode] = (char *)malloc(3);
   \   00000198   0300A0E3           MOV      R0,#+3
   \   0000019C   140000EF           SWI      +20
   \   000001A0   140085E5           STR      R0,[R5, #+20]
     70                    strcpy(lgpData[LGP_LangCode],"ru");
   \   000001A4   1E1F8FE2           ADR      R1,??lgpInitLangPack_0+0x4  ;; "ru"
   \   000001A8   1A0000EF           SWI      +26
     71                  }
     72                  for (int i = 0; i < LGP_DATA_NUM; i ++)
     73                  {
     74                    if (!lgpData[i])
   \                     ??lgpInitLangPack_9:
   \   000001AC   040195E7           LDR      R0,[R5, +R4, LSL #+2]
   \   000001B0   000050E3           CMP      R0,#+0
   \   000001B4   0400001A           BNE      ??lgpInitLangPack_10
     75                    {
     76                      lgpData[i] = (char *)malloc(32);
   \   000001B8   2000A0E3           MOV      R0,#+32
   \   000001BC   140000EF           SWI      +20
     77                      strcpy(lgpData[i], "Error! Update language.lng!");
   \   000001C0   6C109FE5           LDR      R1,??lgpInitLangPack_0+0x14  ;; `?<Constant "Error! Update languag...">`
   \   000001C4   040185E7           STR      R0,[R5, +R4, LSL #+2]
   \   000001C8   1A0000EF           SWI      +26
     78                    }
     79                  }
   \                     ??lgpInitLangPack_10:
   \   000001CC   014084E2           ADD      R4,R4,#+1
   \   000001D0   060054E3           CMP      R4,#+6
   \   000001D4   0F0000AA           BGE      ??lgpInitLangPack_11
   \   000001D8   F3FFFFEA           B        ??lgpInitLangPack_9
     80                  return;
     81                }
     82                fclose(hFile, &io_error);
   \                     ??lgpInitLangPack_3:
   \   000001DC   0D10A0E1           MOV      R1,SP
   \   000001E0   0800A0E1           MOV      R0,R8
   \   000001E4   0D0000EF           SWI      +13
     83              }
     84            }
     85          
     86            lgpData[LGP_LoadingMap]="Loading map";
   \                     ??lgpInitLangPack_2:
   \   000001E8   48009FE5           LDR      R0,??lgpInitLangPack_0+0x18  ;; `?<Constant "Loading map">`
   \   000001EC   000085E5           STR      R0,[R5, #+0]
     87            lgpData[LGP_PressAnyKey]="press any key";
   \   000001F0   44009FE5           LDR      R0,??lgpInitLangPack_0+0x1C  ;; `?<Constant "press any key">`
   \   000001F4   040085E5           STR      R0,[R5, #+4]
     88            lgpData[LGP_Traffic]="traffic";
   \   000001F8   40009FE5           LDR      R0,??lgpInitLangPack_0+0x20  ;; `?<Constant "traffic">`
   \   000001FC   080085E5           STR      R0,[R5, #+8]
     89            lgpData[LGP_State]="state";
   \   00000200   3C009FE5           LDR      R0,??lgpInitLangPack_0+0x24  ;; `?<Constant "state">`
   \   00000204   0C0085E5           STR      R0,[R5, #+12]
     90            lgpData[LGP_LoadingCache]="loading cache";
   \   00000208   38009FE5           LDR      R0,??lgpInitLangPack_0+0x28  ;; `?<Constant "loading cache">`
   \   0000020C   100085E5           STR      R0,[R5, #+16]
     91            
     92            lgpData[LGP_LangCode]=              "en";
   \   00000210   040F8FE2           ADR      R0,??lgpInitLangPack_0+0x8  ;; "en"
   \   00000214   140085E5           STR      R0,[R5, #+20]
     93          }
   \                     ??lgpInitLangPack_11:
   \   00000218   6BDF8DE2           ADD      SP,SP,#+428      ;; stack cleaning
   \   0000021C   F087BDE8           POP      {R4-R10,PC}      ;; return
   \                     ??lgpInitLangPack_0:
   \   00000220   25735C00           DC8      "%s\\"
   \   00000224   72750000           DC8      "ru",+0
   \   00000228   656E0000           DC8      "en",+0
   \   0000022C   ........           DC32     resource + 8
   \   00000230   ........           DC32     fname
   \   00000234   ........           DC32     `?<Constant "Error! Update languag...">`
   \   00000238   ........           DC32     `?<Constant "Loading map">`
   \   0000023C   ........           DC32     `?<Constant "press any key">`
   \   00000240   ........           DC32     `?<Constant "traffic">`
   \   00000244   ........           DC32     `?<Constant "state">`
   \   00000248   ........           DC32     `?<Constant "loading cache">`
     94          

   \                                 In segment CODE, align 4, keep-with-next
     95          void lgpFreeLangPack(void)
     96          {
     97            if (!lgpLoaded) return;
   \                     lgpFreeLangPack:
   \   00000000   ........           LDR      R0,??DataTable2  ;; lgpLoaded
   \   00000004   10402DE9           PUSH     {R4,LR}
   \   00000008   000090E5           LDR      R0,[R0, #+0]
   \   0000000C   000050E3           CMP      R0,#+0
   \   00000010   1080BD08           POPEQ    {R4,PC}
     98            for (int i = 0; i < LGP_DATA_NUM; i ++)
   \   00000014   0040A0E3           MOV      R4,#+0
   \                     ??lgpFreeLangPack_0:
   \   00000018   ........           LDR      R0,??DataTable3  ;; lgpData
   \   0000001C   040190E7           LDR      R0,[R0, +R4, LSL #+2]
   \   00000020   000050E3           CMP      R0,#+0
   \   00000024   0000000A           BEQ      ??lgpFreeLangPack_1
     99            {
    100              if (lgpData[i])
    101                mfree(lgpData[i]);
   \   00000028   150000EF           SWI      +21
    102            }
   \                     ??lgpFreeLangPack_1:
   \   0000002C   014084E2           ADD      R4,R4,#+1
   \   00000030   060054E3           CMP      R4,#+6
   \   00000034   F7FFFFBA           BLT      ??lgpFreeLangPack_0
   \   00000038   1080BDE8           POP      {R4,PC}          ;; return
    103          }

   \                                 In segment CODE, align 4, keep-with-next
   \                     ??DataTable2:
   \   00000000   ........           DC32     lgpLoaded

   \                                 In segment CODE, align 4, keep-with-next
   \                     ??DataTable3:
   \   00000000   ........           DC32     lgpData

   \                                 In segment DATA_C, align 4, align-sorted
   \   00000000   25735C00           DC8 "%s\\"

   \                                 In segment DATA_C, align 1, align-sorted
   \   00000000   727500             DC8 "ru"

   \                                 In segment DATA_C, align 4, align-sorted
   \                     `?<Constant "Error! Update languag...">`:
   \   00000000   4572726F7221       DC8 "Error! Update language.lng!"
   \              205570646174
   \              65206C616E67
   \              756167652E6C
   \              6E672100    

   \                                 In segment DATA_C, align 4, align-sorted
   \                     `?<Constant "Loading map">`:
   \   00000000   4C6F6164696E       DC8 "Loading map"
   \              67206D617000

   \                                 In segment DATA_C, align 4, align-sorted
   \                     `?<Constant "press any key">`:
   \   00000000   707265737320       DC8 "press any key"
   \              616E79206B65
   \              7900        
   \   0000000E   0000               DC8 0, 0

   \                                 In segment DATA_C, align 4, align-sorted
   \                     `?<Constant "traffic">`:
   \   00000000   747261666669       DC8 "traffic"
   \              6300        

   \                                 In segment DATA_C, align 4, align-sorted
   \                     `?<Constant "state">`:
   \   00000000   737461746500       DC8 "state"
   \   00000006   0000               DC8 0, 0

   \                                 In segment DATA_C, align 4, align-sorted
   \                     `?<Constant "loading cache">`:
   \   00000000   6C6F6164696E       DC8 "loading cache"
   \              672063616368
   \              6500        
   \   0000000E   0000               DC8 0, 0

   \                                 In segment DATA_C, align 1, align-sorted
   \   00000000   656E00             DC8 "en"

   Maximum stack usage in bytes:

     Function        CSTACK
     --------        ------
     lgpFreeLangPack     8
     lgpInitLangPack   460


   Segment part sizes:

     Function/Label                 Bytes
     --------------                 -----
     lgpData                          24
     lgpLoaded                         4
     lgpInitLangPack                 588
     lgpFreeLangPack                  60
     ??DataTable2                      4
     ??DataTable3                      4
     ?<Constant "%s\\">                4
     ?<Constant "ru">                  3
     ?<Constant "Error! Update languag...">
                                      28
     ?<Constant "Loading map">        12
     ?<Constant "press any key">      16
     ?<Constant "traffic">             8
     ?<Constant "state">               8
     ?<Constant "loading cache">      16
     ?<Constant "en">                  3
      Others                          20

 
 664 bytes in segment CODE
  98 bytes in segment DATA_C
  28 bytes in segment DATA_Z
  12 bytes in segment INITTAB
 
 656 bytes of CODE  memory (+ 20 bytes shared)
  98 bytes of CONST memory
  28 bytes of DATA  memory

Errors: none
Warnings: none
