################################################################################
#                                                                              #
#      IAR Universal Linker V4.60E/386                                         #
#                                                                              #
#           Link time     =  15/Feb/2008  13:50:41                             #
#           Target CPU    =  ARM                                               #
#           List file     =  D:\Pasha\elf\_MY_PROJECT\converter\Release\List\M #
#                            NUEdit.map                                        #
#           Output file 1 =  D:\Pasha\elf\_MY_PROJECT\converter\Release\Exe\MN #
#                            UEdit.elf                                         #
#                            Format: elf, variant: -ynpra                      #
#           Command line  =  D:\Pasha\elf\_MY_PROJECT\converter\Release\Obj\ma #
#                            in.r79                                            #
#                            D:\Pasha\elf\_MY_PROJECT\converter\Release\Obj\me #
#                            nu.r79                                            #
#                            -o                                                #
#                            D:\Pasha\elf\_MY_PROJECT\converter\Release\Exe\MN #
#                            UEdit.elf                                         #
#                            -Felf -l                                          #
#                            D:\Pasha\elf\_MY_PROJECT\converter\Release\List\M #
#                            NUEdit.map                                        #
#                            -xmsnio -f D:\Pasha\elf\test.xcl (-carm           #
#                            -V(CODE)CODE_AREA,12 -V(DATA)DATA_AREA,12         #
#                            -Z(CODE_AREA)ELFBEGIN,DATA_ID,START,CODE,DATA_C,I #
#                            NITTAB,DATA_Z,DATA_N,CONFIG_C=0-FFFFFFFF          #
#                            -Z(DATA_AREA)DATA_I=0-FFFFFFFF) -ynpra            #
#                            "D:\Pasha\ARM_Embedded_Workbench\Embedded Workben #
#                            ch 4.0 Evaluation\ARM\LIB\dl5tpainl8n.r79"        #
#                            -s main                                           #
#                                                                              #
#                        Copyright 1987-2006 IAR Systems. All rights reserved. #
################################################################################





                ****************************************
                *                                      *
                *           CROSS REFERENCE            *
                *                                      *
                ****************************************

       Program entry at : CODE_AREA 00000D5C  Relocatable, from module : main




                ****************************************
                *                                      *
                *            RUNTIME MODEL             *
                *                                      *
                ****************************************

  StackAlign4   = USED
  StackAlign8   = USED
  __cpu_mode    = __pcs__interwork
  __data_model  = absolute
  __endian      = little
  __rt_version  = 6
  __thumb_aware = enabled



                ****************************************
                *                                      *
                *              MODULE MAP              *
                *                                      *
                ****************************************


  DEFINED ABSOLUTE ENTRIES
    *************************************************************************

  DEFINED ABSOLUTE ENTRIES
    *************************************************************************

  FILE NAME : D:\Pasha\elf\_MY_PROJECT\converter\Release\Obj\main.r79
  PROGRAM MODULE, NAME : main

  SEGMENTS IN THE MODULE
  ======================
DATA_Z
  Segment part 15. NOT NEEDED.
           ENTRY                   ADDRESS         REF BY
           =====                   =======         ======
           icsmd                   
    -------------------------------------------------------------------------
DATA_Z
  Segment part 18. NOT NEEDED.
           ENTRY                   ADDRESS         REF BY
           =====                   =======         ======
           old_icsm_onMessage      
    -------------------------------------------------------------------------
DATA_Z
  Segment part 19. NOT NEEDED.
           ENTRY                   ADDRESS         REF BY
           =====                   =======         ======
           MAINCSM_ID              
    -------------------------------------------------------------------------
DATA_Z
  Segment part 20. NOT NEEDED.
           ENTRY                   ADDRESS         REF BY
           =====                   =======         ======
           MAINGUI_ID              
    -------------------------------------------------------------------------
DATA_C
  Relative segment, address: CODE_AREA 00003064 - 00003097 (0x34 bytes), align: 2
  Segment part 2.             Intra module refs:   ed_create
           ENTRY                   ADDRESS         REF BY
           =====                   =======         ======
           per_s                   00003067 
           per_t                   00003064 
    -------------------------------------------------------------------------
DATA_Z
  Segment part 23. NOT NEEDED.
           ENTRY                   ADDRESS         REF BY
           =====                   =======         ======
           my_csm_id               
    -------------------------------------------------------------------------
DATA_Z
  Segment part 24. NOT NEEDED.
           ENTRY                   ADDRESS         REF BY
           =====                   =======         ======
           err                     
    -------------------------------------------------------------------------
CODE
  Segment part 41. NOT NEEDED.
    -------------------------------------------------------------------------
CODE
  Segment part 42. NOT NEEDED.
           ENTRY                   ADDRESS         REF BY
           =====                   =======         ======
           get_file_size           
               not allocated function
    -------------------------------------------------------------------------
CODE
  Segment part 43. NOT NEEDED.
    -------------------------------------------------------------------------
CODE
  Segment part 44. NOT NEEDED.
           ENTRY                   ADDRESS         REF BY
           =====                   =======         ======
           mess                    
               not allocated function
    -------------------------------------------------------------------------
CODE
  Segment part 45. NOT NEEDED.
    -------------------------------------------------------------------------
CODE
  Segment part 46. NOT NEEDED.
           ENTRY                   ADDRESS         REF BY
           =====                   =======         ======
           mess2                   
               not allocated function
    -------------------------------------------------------------------------
CODE
  Segment part 47. NOT NEEDED.
    -------------------------------------------------------------------------
CODE
  Segment part 48. NOT NEEDED.
           ENTRY                   ADDRESS         REF BY
           =====                   =======         ======
           messd                   
               not allocated function
    -------------------------------------------------------------------------
CODE
  Segment part 49. NOT NEEDED.
    -------------------------------------------------------------------------
CODE
  Relative segment, address: CODE_AREA 00000164 - 000001A3 (0x40 bytes), align: 2
  Segment part 50.
           ENTRY                   ADDRESS         REF BY
           =====                   =======         ======
           about                   00000164        menu_onkey2 (menu)
               stack 1 = 00000000 ( 00000088 )
    -------------------------------------------------------------------------
CODE
  Segment part 51. NOT NEEDED.
    -------------------------------------------------------------------------
CODE
  Relative segment, address: CODE_AREA 000001A4 - 00000273 (0xd0 bytes), align: 2
  Segment part 52.            Intra module refs:   ed_create
           ENTRY                   ADDRESS         REF BY
           =====                   =======         ======
           dec2bin                 000001A4 
               stack 1 = 00000000 ( 00000020 )
    -------------------------------------------------------------------------
CODE
  Segment part 53. NOT NEEDED.
    -------------------------------------------------------------------------
CODE
  Relative segment, address: CODE_AREA 00000274 - 000002FB (0x88 bytes), align: 2
  Segment part 54.            Intra module refs:   ed_create
           ENTRY                   ADDRESS         REF BY
           =====                   =======         ======
           bin2dec                 00000274 
               stack 1 = 00000000 ( 0000001C )
    -------------------------------------------------------------------------
CODE
  Segment part 55. NOT NEEDED.
    -------------------------------------------------------------------------
CODE
  Relative segment, address: CODE_AREA 000002FC - 000003CF (0xd4 bytes), align: 2
  Segment part 56.            Intra module refs:   ed_create
           ENTRY                   ADDRESS         REF BY
           =====                   =======         ======
           dec2oct                 000002FC 
               stack 1 = 00000000 ( 00000020 )
    -------------------------------------------------------------------------
CODE
  Relative segment, address: CODE_AREA 000003D0 - 000003D3 (0x4 bytes), align: 2
  Segment part 57.            Intra module refs:   dec2bin
                                                   dec2oct
    -------------------------------------------------------------------------
CODE
  Segment part 58. NOT NEEDED.
    -------------------------------------------------------------------------
CODE
  Relative segment, address: CODE_AREA 000003D4 - 00000497 (0xc4 bytes), align: 2
  Segment part 59.            Intra module refs:   ed_create
           ENTRY                   ADDRESS         REF BY
           =====                   =======         ======
           oct2dec                 000003D4 
               stack 1 = 00000000 ( 00000028 )
    -------------------------------------------------------------------------
CODE
  Segment part 60. NOT NEEDED.
    -------------------------------------------------------------------------
CODE
  Relative segment, address: CODE_AREA 00000498 - 0000055B (0xc4 bytes), align: 2
  Segment part 61.            Intra module refs:   ed_create
           ENTRY                   ADDRESS         REF BY
           =====                   =======         ======
           hex2dec                 00000498 
               stack 1 = 00000000 ( 00000028 )
    -------------------------------------------------------------------------
CODE
  Relative segment, address: CODE_AREA 0000055C - 0000055F (0x4 bytes), align: 2
  Segment part 62.            Intra module refs:   hex2dec
                                                   oct2dec
    -------------------------------------------------------------------------
CODE
  Segment part 63. NOT NEEDED.
    -------------------------------------------------------------------------
CODE
  Relative segment, address: CODE_AREA 00000560 - 000005AF (0x50 bytes), align: 2
  Segment part 64.            Intra module refs:   Segment part 26
           ENTRY                   ADDRESS         REF BY
           =====                   =======         ======
           empty_onkey             00000560 
               stack 1 = 00000000 ( 00000008 )
    -------------------------------------------------------------------------
CODE
  Segment part 65. NOT NEEDED.
    -------------------------------------------------------------------------
DATA_Z
  Relative segment, address: CODE_AREA 000032A0 - 000032A7 (0x8 bytes), align: 2
  Segment part 28.            Intra module refs:   Segment part 30
           ENTRY                   ADDRESS         REF BY
           =====                   =======         ======
           sk                      000032A0 
    -------------------------------------------------------------------------
CODE
  Relative segment, address: CODE_AREA 000005B0 - 000005B3 (0x4 bytes), align: 2
  Segment part 66.            Intra module refs:   Segment part 26
           ENTRY                   ADDRESS         REF BY
           =====                   =======         ======
           empty_locret            000005B0 
    -------------------------------------------------------------------------
CODE
  Segment part 67. NOT NEEDED.
    -------------------------------------------------------------------------
CODE
  Relative segment, address: CODE_AREA 000005B4 - 000005E3 (0x30 bytes), align: 2
  Segment part 68.            Intra module refs:   Segment part 26
           ENTRY                   ADDRESS         REF BY
           =====                   =======         ======
           empty_ghook             000005B4 
               stack 1 = 00000000 ( 00000004 )
    -------------------------------------------------------------------------
CODE
  Segment part 69. NOT NEEDED.
    -------------------------------------------------------------------------
CODE
  Relative segment, address: CODE_AREA 000005E4 - 00000B43 (0x560 bytes), align: 2
  Segment part 70.            Intra module refs:   pos_onkey
           ENTRY                   ADDRESS         REF BY
           =====                   =======         ======
           ed_create               000005E4 
               stack 1 = 00000000 ( 00000084 )
    -------------------------------------------------------------------------
CODE
  Segment part 71. NOT NEEDED.
    -------------------------------------------------------------------------
CODE
  Relative segment, address: CODE_AREA 00000B44 - 00000BA7 (0x64 bytes), align: 2
  Segment part 72.            Intra module refs:   Segment part 17
           ENTRY                   ADDRESS         REF BY
           =====                   =======         ======
           pos_onkey               00000B44 
               stack 1 = 00000000 ( 00000058 )
    -------------------------------------------------------------------------
CODE
  Segment part 73. NOT NEEDED.
    -------------------------------------------------------------------------
CODE
  Relative segment, address: CODE_AREA 00000BA8 - 00000BD7 (0x30 bytes), align: 2
  Segment part 74.            Intra module refs:   Segment part 17
           ENTRY                   ADDRESS         REF BY
           =====                   =======         ======
           pos_ghook               00000BA8 
               stack 1 = 00000000 ( 00000004 )
    -------------------------------------------------------------------------
CODE
  Segment part 75. NOT NEEDED.
    -------------------------------------------------------------------------
CODE
  Relative segment, address: CODE_AREA 00000BD8 - 00000BDB (0x4 bytes), align: 2
  Segment part 76.            Intra module refs:   Segment part 17
           ENTRY                   ADDRESS         REF BY
           =====                   =======         ======
           pos_locret              00000BD8 
    -------------------------------------------------------------------------
CODE
  Segment part 77. NOT NEEDED.
    -------------------------------------------------------------------------
DATA_I
  Relative segment, address: DATA_AREA 00000000 - 000000A7 (0xa8 bytes), align: 2
  Segment part 16.            Intra module refs:   Segment part 17
                                                   empty_onkey
                                                   input
                                                   pos_onkey
           ENTRY                   ADDRESS         REF BY
           =====                   =======         ======
           cc                      00000058 
           conv                    00000054 
           hdr                     00000068 
           id_ed                   0000004C 
           id_ed2                  00000050 
           pos_desc                00000000 
           pos_hdr                 00000038 
    -------------------------------------------------------------------------
DATA_I
  Relative segment, address: DATA_AREA 000000A8 - 000000FE (0x57 bytes), align: 2
  Segment part 25.            Intra module refs:   Segment part 57
                                                   ed_create
           ENTRY                   ADDRESS         REF BY
           =====                   =======         ======
           disk_prop_hdr           000000E0 
           edit_desc               000000A8 
           id_create               000000F8 
           len                     000000F4 
           per_d                   000000FC 
    -------------------------------------------------------------------------
DATA_I
  Relative segment, address: DATA_AREA 00000100 - 00000107 (0x8 bytes), align: 2
  Segment part 29.            Intra module refs:   Segment part 26
           ENTRY                   ADDRESS         REF BY
           =====                   =======         ======
           skt                     00000100 
    -------------------------------------------------------------------------
DATA_I
  Relative segment, address: DATA_AREA 00000108 - 0000010F (0x8 bytes), align: 2
  Segment part 31.            Intra module refs:   empty_ghook
    -------------------------------------------------------------------------
DATA_I
  Relative segment, address: DATA_AREA 00000110 - 00000117 (0x8 bytes), align: 2
  Segment part 33.            Intra module refs:   pos_ghook
    -------------------------------------------------------------------------
DATA_I
  Relative segment, address: DATA_AREA 00000118 - 0000012F (0x18 bytes), align: 2
  Segment part 35.            Intra module refs:   Segment part 38
           ENTRY                   ADDRESS         REF BY
           =====                   =======         ======
           menu_sk                 00000118 
    -------------------------------------------------------------------------
DATA_I
  Relative segment, address: DATA_AREA 00000130 - 00000137 (0x8 bytes), align: 2
  Segment part 37.            Intra module refs:   Segment part 17
           ENTRY                   ADDRESS         REF BY
           =====                   =======         ======
           menu_skt                00000130 
    -------------------------------------------------------------------------
CODE
  Relative segment, address: CODE_AREA 00000BDC - 00000CEB (0x110 bytes), align: 2
  Segment part 78.
           ENTRY                   ADDRESS         REF BY
           =====                   =======         ======
           input                   00000BDC        menu_onkey2 (menu)
               stack 1 = 00000000 ( 00000044 )
    -------------------------------------------------------------------------
CODE
  Segment part 79. NOT NEEDED.
    -------------------------------------------------------------------------
CODE
  Relative segment, address: CODE_AREA 00000CEC - 00000CFF (0x14 bytes), align: 2
  Segment part 80.            Intra module refs:   MAINCSM
           ENTRY                   ADDRESS         REF BY
           =====                   =======         ======
           maincsm_oncreate        00000CEC 
               stack 1 = 00000000 ( 00000008 )
    -------------------------------------------------------------------------
CODE
  Segment part 81. NOT NEEDED.
    -------------------------------------------------------------------------
CODE
  Relative segment, address: CODE_AREA 00000D00 - 00000D03 (0x4 bytes), align: 2
  Segment part 82.            Intra module refs:   maincsm_onclose
           ENTRY                   ADDRESS         REF BY
           =====                   =======         ======
           Killer                  00000D00 
    -------------------------------------------------------------------------
CODE
  Segment part 83. NOT NEEDED.
    -------------------------------------------------------------------------
CODE
  Relative segment, address: CODE_AREA 00000D04 - 00000D17 (0x14 bytes), align: 2
  Segment part 84.            Intra module refs:   MAINCSM
           ENTRY                   ADDRESS         REF BY
           =====                   =======         ======
           maincsm_onclose         00000D04 
               stack 1 = 00000000 ( 00000004 )
    -------------------------------------------------------------------------
CODE
  Segment part 85. NOT NEEDED.
    -------------------------------------------------------------------------
CODE
  Relative segment, address: CODE_AREA 00000D18 - 00000D3F (0x28 bytes), align: 2
  Segment part 86.            Intra module refs:   MAINCSM
           ENTRY                   ADDRESS         REF BY
           =====                   =======         ======
           maincsm_onmessage       00000D18 
    -------------------------------------------------------------------------
CODE
  Segment part 87. NOT NEEDED.
    -------------------------------------------------------------------------
DATA_Z
  Relative segment, address: CODE_AREA 000032A8 - 000033BF (0x118 bytes), align: 2
  Segment part 39.            Intra module refs:   MAINCSM
           ENTRY                   ADDRESS         REF BY
           =====                   =======         ======
           maincsm_name_body       000032A8 
    -------------------------------------------------------------------------
DATA_C
  Relative segment, address: CODE_AREA 00003098 - 000030CF (0x38 bytes), align: 2
  Segment part 3.             Intra module refs:   UpdateCSMname
                                                   main
           ENTRY                   ADDRESS         REF BY
           =====                   =======         ======
           MAINCSM                 000030A4 
    -------------------------------------------------------------------------
DATA_C
  Relative segment, address: CODE_AREA 000030D0 - 000030DF (0x10 bytes), align: 2
  Segment part 4.             Intra module refs:   input
    -------------------------------------------------------------------------
DATA_C
  Segment part 5. NOT NEEDED.
    -------------------------------------------------------------------------
DATA_C
  Relative segment, address: CODE_AREA 000030E0 - 000030E7 (0x8 bytes), align: 2
  Segment part 6.             Intra module refs:   Segment part 32
                                                   Segment part 34
    -------------------------------------------------------------------------
DATA_C
  Relative segment, address: CODE_AREA 000030E8 - 00003123 (0x3c bytes), align: 2
  Segment part 7.             Intra module refs:   about
    -------------------------------------------------------------------------
DATA_C
  Segment part 8. NOT NEEDED.
    -------------------------------------------------------------------------
DATA_C
  Relative segment, address: CODE_AREA 00003124 - 00003127 (0x4 bytes), align: 2
  Segment part 9.             Intra module refs:   Segment part 17
    -------------------------------------------------------------------------
DATA_C
  Relative segment, address: CODE_AREA 00003128 - 0000312B (0x4 bytes), align: 2
  Segment part 10.            Intra module refs:   Segment part 17
    -------------------------------------------------------------------------
DATA_C
  Relative segment, address: CODE_AREA 0000312C - 0000312F (0x4 bytes), align: 2
  Segment part 11.            Intra module refs:   Segment part 17
    -------------------------------------------------------------------------
DATA_C
  Relative segment, address: CODE_AREA 00003130 - 00003133 (0x4 bytes), align: 2
  Segment part 12.            Intra module refs:   Segment part 17
    -------------------------------------------------------------------------
DATA_C
  Relative segment, address: CODE_AREA 00003134 - 0000313B (0x8 bytes), align: 2
  Segment part 13.            Intra module refs:   Segment part 36
    -------------------------------------------------------------------------
DATA_C
  Relative segment, address: CODE_AREA 0000313C - 0000313F (0x4 bytes), align: 2
  Segment part 14.            Intra module refs:   Segment part 36
    -------------------------------------------------------------------------
DATA_C
  Relative segment, address: CODE_AREA 00003140 - 00003143 (0x4 bytes), align: 2
  Segment part 21.            Intra module refs:   MAINCSM
           ENTRY                   ADDRESS         REF BY
           =====                   =======         ======
           minus11                 00003140 
    -------------------------------------------------------------------------
DATA_C
  Segment part 22. NOT NEEDED.
           ENTRY                   ADDRESS         REF BY
           =====                   =======         ======
           empty_str               
    -------------------------------------------------------------------------
DATA_C
  Relative segment, address: CODE_AREA 00003284 - 00003286 (0x3 bytes), align: 0
  Segment part 27.            Intra module refs:   Segment part 62
           ENTRY                   ADDRESS         REF BY
           =====                   =======         ======
           per_c                   00003284 
    -------------------------------------------------------------------------
CODE
  Relative segment, address: CODE_AREA 00000D40 - 00000D5B (0x1c bytes), align: 2
  Segment part 88.            Intra module refs:   main
           ENTRY                   ADDRESS         REF BY
           =====                   =======         ======
           UpdateCSMname           00000D40 
               stack 1 = 00000000 ( 00000004 )
    -------------------------------------------------------------------------
CODE
  Segment part 89. NOT NEEDED.
    -------------------------------------------------------------------------
DATA_Z
  Relative segment, address: CODE_AREA 000033C0 - 000033C3 (0x4 bytes), align: 2
  Segment part 40.            Intra module refs:   main
           ENTRY                   ADDRESS         REF BY
           =====                   =======         ======
           maincsm_id              000033C0 
    -------------------------------------------------------------------------
CODE
  Relative segment, address: CODE_AREA 00000D5C - 00000D9B (0x40 bytes), align: 2
  Segment part 90.
           ENTRY                   ADDRESS         REF BY
           =====                   =======         ======
           main                    00000D5C        Absolute parts (?ABS_ENTRY_MOD)
               stack 1 = 00000000 ( 00000030 )
    -------------------------------------------------------------------------
CODE
  Segment part 91. NOT NEEDED.Intra module refs:   bin2dec
                                                   hex2dec
                                                   oct2dec
    -------------------------------------------------------------------------
CODE
  Segment part 92. NOT NEEDED.Intra module refs:   bin2dec
                                                   hex2dec
                                                   oct2dec
    -------------------------------------------------------------------------
CODE
  Segment part 93. NOT NEEDED.Intra module refs:   bin2dec
                                                   hex2dec
                                                   oct2dec
    -------------------------------------------------------------------------
CODE
  Segment part 94. NOT NEEDED.Intra module refs:   bin2dec
                                                   hex2dec
                                                   oct2dec
    -------------------------------------------------------------------------
CODE
  Segment part 95. NOT NEEDED.Intra module refs:   ed_create
                                                   hex2dec
                                                   oct2dec
    -------------------------------------------------------------------------
CODE
  Segment part 96. NOT NEEDED.Intra module refs:   hex2dec
                                                   oct2dec
    -------------------------------------------------------------------------
CODE
  Segment part 97. NOT NEEDED.Intra module refs:   maincsm_oncreate
    -------------------------------------------------------------------------
CSTACK
  Segment part 1. NOT NEEDED.
    -------------------------------------------------------------------------
DATA_ID
  Relative segment, address: CODE_AREA 00000000 - 000000A7 (0xa8 bytes), align: 2
  Segment part 17.            Intra module refs:   Segment part 16
    -------------------------------------------------------------------------
DATA_ID
  Relative segment, address: CODE_AREA 000000A8 - 000000FE (0x57 bytes), align: 2
  Segment part 26.            Intra module refs:   Segment part 25
    -------------------------------------------------------------------------
DATA_ID
  Relative segment, address: CODE_AREA 00000100 - 00000107 (0x8 bytes), align: 2
  Segment part 30.            Intra module refs:   skt
    -------------------------------------------------------------------------
DATA_ID
  Relative segment, address: CODE_AREA 00000108 - 0000010F (0x8 bytes), align: 2
  Segment part 32.            Intra module refs:   Segment part 31
    -------------------------------------------------------------------------
DATA_ID
  Relative segment, address: CODE_AREA 00000110 - 00000117 (0x8 bytes), align: 2
  Segment part 34.            Intra module refs:   Segment part 33
    -------------------------------------------------------------------------
DATA_ID
  Relative segment, address: CODE_AREA 00000118 - 0000012F (0x18 bytes), align: 2
  Segment part 36.            Intra module refs:   menu_sk
    -------------------------------------------------------------------------
DATA_ID
  Relative segment, address: CODE_AREA 00000130 - 00000137 (0x8 bytes), align: 2
  Segment part 38.            Intra module refs:   menu_skt
    -------------------------------------------------------------------------
DATA_ID
  Segment part 98. NOT NEEDED.
           ENTRY                   ADDRESS         REF BY
           =====                   =======         ======
           ?*?DATA_ID              
    -------------------------------------------------------------------------
INITTAB
  Relative segment, address: CODE_AREA 00003288 - 00003293 (0xc bytes), align: 2
  Segment part 99. ROOT.
           ENTRY                   ADDRESS         REF BY
           =====                   =======         ======
           ?init?tab?DATA_I        00003288 
    -------------------------------------------------------------------------
INITTAB
  Relative segment, address: CODE_AREA 00003294 - 0000329F (0xc bytes), align: 2
  Segment part 100. ROOT.
           ENTRY                   ADDRESS         REF BY
           =====                   =======         ======
           ?init?tab?DATA_Z        00003294 

    *************************************************************************

  FILE NAME : D:\Pasha\elf\_MY_PROJECT\converter\Release\Obj\menu.r79
  PROGRAM MODULE, NAME : menu

  SEGMENTS IN THE MODULE
  ======================
DATA_C
  Relative segment, address: CODE_AREA 00003144 - 0000314B (0x8 bytes), align: 2
  Segment part 2.             Intra module refs:   Segment part 15
    -------------------------------------------------------------------------
DATA_C
  Relative segment, address: CODE_AREA 0000314C - 00003153 (0x8 bytes), align: 2
  Segment part 3.             Intra module refs:   Segment part 15
    -------------------------------------------------------------------------
DATA_C
  Relative segment, address: CODE_AREA 00003154 - 0000315B (0x8 bytes), align: 2
  Segment part 4.             Intra module refs:   Segment part 15
    -------------------------------------------------------------------------
DATA_C
  Relative segment, address: CODE_AREA 0000315C - 00003163 (0x8 bytes), align: 2
  Segment part 5.             Intra module refs:   Segment part 15
    -------------------------------------------------------------------------
DATA_C
  Relative segment, address: CODE_AREA 00003164 - 0000316B (0x8 bytes), align: 2
  Segment part 6.             Intra module refs:   menu_
    -------------------------------------------------------------------------
DATA_C
  Relative segment, address: CODE_AREA 0000316C - 00003173 (0x8 bytes), align: 2
  Segment part 7.             Intra module refs:   menu_
    -------------------------------------------------------------------------
DATA_C
  Relative segment, address: CODE_AREA 00003174 - 0000317B (0x8 bytes), align: 2
  Segment part 8.             Intra module refs:   Segment part 13
    -------------------------------------------------------------------------
DATA_C
  Segment part 9. NOT NEEDED.
    -------------------------------------------------------------------------
DATA_C
  Segment part 10. NOT NEEDED.
    -------------------------------------------------------------------------
DATA_C
  Relative segment, address: CODE_AREA 0000317C - 0000318B (0x10 bytes), align: 2
  Segment part 11.            Intra module refs:   menu_iconhnd
    -------------------------------------------------------------------------
DATA_C
  Relative segment, address: CODE_AREA 0000318C - 00003197 (0xc bytes), align: 2
  Segment part 16.            Intra module refs:   menu
           ENTRY                   ADDRESS         REF BY
           =====                   =======         ======
           menusoftke              0000318C 
    -------------------------------------------------------------------------
DATA_C
  Relative segment, address: CODE_AREA 00003198 - 000031AF (0x18 bytes), align: 2
  Segment part 17.            Intra module refs:   menu_s
           ENTRY                   ADDRESS         REF BY
           =====                   =======         ======
           menu_                   00003198 
    -------------------------------------------------------------------------
DATA_C
  Relative segment, address: CODE_AREA 000031B0 - 000031B7 (0x8 bytes), align: 2
  Segment part 18.            Intra module refs:   menu
           ENTRY                   ADDRESS         REF BY
           =====                   =======         ======
           menu_s                  000031B0 
    -------------------------------------------------------------------------
CODE
  Segment part 20. NOT NEEDED.
    -------------------------------------------------------------------------
CODE
  Relative segment, address: CODE_AREA 00000D9C - 00000D9F (0x4 bytes), align: 2
  Segment part 21.            Intra module refs:   menu
           ENTRY                   ADDRESS         REF BY
           =====                   =======         ======
           menu_ghook              00000D9C 
    -------------------------------------------------------------------------
CODE
  Segment part 22. NOT NEEDED.
    -------------------------------------------------------------------------
DATA_I
  Relative segment, address: DATA_AREA 00000138 - 00000153 (0x1c bytes), align: 2
  Segment part 12.            Intra module refs:   ShowMainMenu
           ENTRY                   ADDRESS         REF BY
           =====                   =======         ======
           it                      00000150 
           menu_id                 0000014C        empty_onkey (main)
           menuhdr2                00000138 
    -------------------------------------------------------------------------
DATA_I
  Relative segment, address: DATA_AREA 00000154 - 00000163 (0x10 bytes), align: 2
  Segment part 14.            Intra module refs:   menu_iconhnd
           ENTRY                   ADDRESS         REF BY
           =====                   =======         ======
           menu_name               00000154 
    -------------------------------------------------------------------------
DATA_C
  Relative segment, address: CODE_AREA 000031B8 - 000031E3 (0x2c bytes), align: 2
  Segment part 19.            Intra module refs:   ShowMainMenu
           ENTRY                   ADDRESS         REF BY
           =====                   =======         ======
           menu                    000031B8 
    -------------------------------------------------------------------------
CODE
  Relative segment, address: CODE_AREA 00000DA0 - 00000E83 (0xe4 bytes), align: 2
  Segment part 23.            Intra module refs:   menu
           ENTRY                   ADDRESS         REF BY
           =====                   =======         ======
           menu_iconhnd            00000DA0 
               stack 1 = 00000000 ( 00000020 )
    -------------------------------------------------------------------------
CODE
  Segment part 24. NOT NEEDED.
    -------------------------------------------------------------------------
CODE
  Relative segment, address: CODE_AREA 00000E84 - 00000EC3 (0x40 bytes), align: 2
  Segment part 25.            Intra module refs:   menu
           ENTRY                   ADDRESS         REF BY
           =====                   =======         ======
           menu_onkey2             00000E84 
               stack 1 = 00000000 ( 00000008 )
    -------------------------------------------------------------------------
CODE
  Segment part 26. NOT NEEDED.
    -------------------------------------------------------------------------
CODE
  Relative segment, address: CODE_AREA 00000EC4 - 00000F27 (0x64 bytes), align: 2
  Segment part 27.
           ENTRY                   ADDRESS         REF BY
           =====                   =======         ======
           ShowMainMenu            00000EC4        maincsm_oncreate (main)
               stack 1 = 00000000 ( 00000018 )
    -------------------------------------------------------------------------
CODE
  Segment part 28. NOT NEEDED.Intra module refs:   menu_onkey2
    -------------------------------------------------------------------------
CODE
  Segment part 29. NOT NEEDED.Intra module refs:   menu_onkey2
    -------------------------------------------------------------------------
CSTACK
  Segment part 1. NOT NEEDED.
    -------------------------------------------------------------------------
DATA_ID
  Relative segment, address: CODE_AREA 00000138 - 00000153 (0x1c bytes), align: 2
  Segment part 13.            Intra module refs:   Segment part 12
    -------------------------------------------------------------------------
DATA_ID
  Relative segment, address: CODE_AREA 00000154 - 00000163 (0x10 bytes), align: 2
  Segment part 15.            Intra module refs:   menu_name
    -------------------------------------------------------------------------
DATA_ID
  Segment part 30. TENTATIVE. Used definition from main
           ENTRY                   ADDRESS         REF BY
           =====                   =======         ======
           ?*?DATA_ID              
    -------------------------------------------------------------------------
INITTAB
  Segment part 31. TENTATIVE. Used definition from main
           ENTRY                   ADDRESS         REF BY
           =====                   =======         ======
           ?init?tab?DATA_I        

    *************************************************************************

  FILE NAME : D:\Pasha\ARM_Embedded_Workbench\Embedded Workbench 4.0 Evaluation\ARM\LIB\dl5tpainl8n.r79
  LIBRARY MODULE, NAME : ?fpStatus

  SEGMENTS IN THE MODULE
  ======================
DATA_Z
  Relative segment, address: CODE_AREA 000033C4 - 000033C7 (0x4 bytes), align: 2
  Segment part 2.
           ENTRY                   ADDRESS         REF BY
           =====                   =======         ======
           __FloatingPointFlags    000033C4        Segment part 0 (?SetInvalidFlag)
    -------------------------------------------------------------------------
CODE
  Segment part 3. NOT NEEDED.
    -------------------------------------------------------------------------
CODE
  Segment part 4. NOT NEEDED.
           ENTRY                   ADDRESS         REF BY
           =====                   =======         ======
           __getFpStatus           
               not allocated function
    -------------------------------------------------------------------------
CODE
  Segment part 5. NOT NEEDED.
    -------------------------------------------------------------------------
CODE
  Segment part 6. NOT NEEDED.
           ENTRY                   ADDRESS         REF BY
           =====                   =======         ======
           __clearFpStatus         
               not allocated function
    -------------------------------------------------------------------------
CODE
  Segment part 7. NOT NEEDED.
    -------------------------------------------------------------------------
CODE
  Segment part 8. NOT NEEDED.
           ENTRY                   ADDRESS         REF BY
           =====                   =======         ======
           __setFpStatus           
               not allocated function
    -------------------------------------------------------------------------
CODE
  Segment part 9. NOT NEEDED.
    -------------------------------------------------------------------------
CSTACK
  Segment part 1. NOT NEEDED.
    -------------------------------------------------------------------------
INITTAB
  Segment part 10. TENTATIVE. Used definition from main
           ENTRY                   ADDRESS         REF BY
           =====                   =======         ======
           ?init?tab?DATA_Z        

    -------------------------------------------------------------------------
  LIBRARY MODULE, NAME : ?errno

  SEGMENTS IN THE MODULE
  ======================
DATA_Z
  Relative segment, address: CODE_AREA 000033C8 - 000033CF (0x8 bytes), align: 2
  Segment part 2.             Intra module refs:   _Geterrno
           ENTRY                   ADDRESS         REF BY
           =====                   =======         ======
           _Errno                  000033CC 
           _Tls_setup__Errno       000033C8 
    -------------------------------------------------------------------------
CODE
  Segment part 3. NOT NEEDED.
    -------------------------------------------------------------------------
CODE
  Relative segment, address: CODE_AREA 00000F28 - 00000F4B (0x24 bytes), align: 2
  Segment part 4.
           ENTRY                   ADDRESS         REF BY
           =====                   =======         ======
           _Geterrno               00000F28        _Log (?xlog)
                                                   _Stoul (?xstoul)
                                                   pow (?pow)
               stack 1 = 00000000 ( 00000008 )
    -------------------------------------------------------------------------
CSTACK
  Segment part 1. NOT NEEDED.
    -------------------------------------------------------------------------
INITTAB
  Segment part 5. TENTATIVE. Used definition from main
           ENTRY                   ADDRESS         REF BY
           =====                   =======         ======
           ?init?tab?DATA_Z        

    -------------------------------------------------------------------------
  LIBRARY MODULE, NAME : ?memchr

  SEGMENTS IN THE MODULE
  ======================
CODE
  Segment part 3. NOT NEEDED.
           ENTRY                   ADDRESS         REF BY
           =====                   =======         ======
           memchr                  
               not allocated function
    -------------------------------------------------------------------------
CODE
  Segment part 4. NOT NEEDED.
    -------------------------------------------------------------------------
DATA_C
  Segment part 2. NOT NEEDED.
           ENTRY                   ADDRESS         REF BY
           =====                   =======         ======
           _Instansiator_memchr    
    -------------------------------------------------------------------------
CODE
  Relative segment, address: CODE_AREA 00000F4C - 00000F77 (0x2c bytes), align: 2
  Segment part 5.
           ENTRY                   ADDRESS         REF BY
           =====                   =======         ======
           _Memchr                 00000F4C        _Stoul (?xstoul)
    -------------------------------------------------------------------------
CSTACK
  Segment part 1. NOT NEEDED.

    -------------------------------------------------------------------------
  LIBRARY MODULE, NAME : ?pow

  SEGMENTS IN THE MODULE
  ======================
CODE
  Segment part 2. NOT NEEDED.
    -------------------------------------------------------------------------
CODE
  Relative segment, address: CODE_AREA 00000F78 - 000016C7 (0x750 bytes), align: 2
  Segment part 3.
           ENTRY                   ADDRESS         REF BY
           =====                   =======         ======
           pow                     00000F78        bin2dec (main)
                                                   hex2dec (main)
                                                   oct2dec (main)
               stack 1 = 00000000 ( 00000058 )
    -------------------------------------------------------------------------
CODE
  Segment part 4. NOT NEEDED. Intra module refs:   pow
    -------------------------------------------------------------------------
CODE
  Segment part 5. NOT NEEDED. Intra module refs:   pow
    -------------------------------------------------------------------------
CODE
  Segment part 6. NOT NEEDED. Intra module refs:   pow
    -------------------------------------------------------------------------
CODE
  Segment part 7. NOT NEEDED. Intra module refs:   pow
    -------------------------------------------------------------------------
CODE
  Segment part 8. NOT NEEDED. Intra module refs:   pow
    -------------------------------------------------------------------------
CODE
  Segment part 9. NOT NEEDED. Intra module refs:   pow
    -------------------------------------------------------------------------
CODE
  Segment part 10. NOT NEEDED.Intra module refs:   pow
    -------------------------------------------------------------------------
CODE
  Segment part 11. NOT NEEDED.Intra module refs:   pow
    -------------------------------------------------------------------------
CODE
  Segment part 12. NOT NEEDED.Intra module refs:   pow
    -------------------------------------------------------------------------
CODE
  Segment part 13. NOT NEEDED.Intra module refs:   pow
    -------------------------------------------------------------------------
CODE
  Segment part 14. NOT NEEDED.Intra module refs:   pow
    -------------------------------------------------------------------------
CODE
  Segment part 15. NOT NEEDED.Intra module refs:   pow
    -------------------------------------------------------------------------
CODE
  Segment part 16. NOT NEEDED.Intra module refs:   pow
    -------------------------------------------------------------------------
CODE
  Segment part 17. NOT NEEDED.Intra module refs:   pow
    -------------------------------------------------------------------------
CODE
  Segment part 18. NOT NEEDED.Intra module refs:   pow
    -------------------------------------------------------------------------
CSTACK
  Segment part 1. NOT NEEDED.

    -------------------------------------------------------------------------
  LIBRARY MODULE, NAME : ?strtoul

  SEGMENTS IN THE MODULE
  ======================
CODE
  Relative segment, address: CODE_AREA 000016C8 - 000016D7 (0x10 bytes), align: 2
  Segment part 3.
           ENTRY                   ADDRESS         REF BY
           =====                   =======         ======
           strtoul                 000016C8        ed_create (main)
                                                   hex2dec (main)
                                                   oct2dec (main)
               stack 1 = 00000000 ( 00000008 )
    -------------------------------------------------------------------------
CODE
  Segment part 4. NOT NEEDED. Intra module refs:   strtoul
    -------------------------------------------------------------------------
DATA_C
  Segment part 2. NOT NEEDED.
           ENTRY                   ADDRESS         REF BY
           =====                   =======         ======
           _Instansiator_strtoul   
    -------------------------------------------------------------------------
CSTACK
  Segment part 1. NOT NEEDED.

    -------------------------------------------------------------------------
  LIBRARY MODULE, NAME : ?xdint

  SEGMENTS IN THE MODULE
  ======================
DATA_C
  Relative segment, address: CODE_AREA 000031E4 - 00003213 (0x30 bytes), align: 2
  Segment part 2.             Intra module refs:   _Dint
    -------------------------------------------------------------------------
CODE
  Segment part 3. NOT NEEDED.
    -------------------------------------------------------------------------
CODE
  Relative segment, address: CODE_AREA 000016D8 - 00001833 (0x15c bytes), align: 2
  Segment part 4.
           ENTRY                   ADDRESS         REF BY
           =====                   =======         ======
           _Dint                   000016D8        pow (?pow)
               stack 1 = 00000000 ( 00000008 )
    -------------------------------------------------------------------------
CSTACK
  Segment part 1. NOT NEEDED.

    -------------------------------------------------------------------------
  LIBRARY MODULE, NAME : ?xdnorm

  SEGMENTS IN THE MODULE
  ======================
CODE
  Segment part 2. NOT NEEDED.
    -------------------------------------------------------------------------
CODE
  Relative segment, address: CODE_AREA 00001834 - 00001983 (0x150 bytes), align: 2
  Segment part 3.
           ENTRY                   ADDRESS         REF BY
           =====                   =======         ======
           _Dnorm                  00001834        _Dscale (?xdscale)
                                                   _Log (?xlog)
                                                   pow (?pow)
    -------------------------------------------------------------------------
CSTACK
  Segment part 1. NOT NEEDED.

    -------------------------------------------------------------------------
  LIBRARY MODULE, NAME : ?xdscale

  SEGMENTS IN THE MODULE
  ======================
CODE
  Segment part 2. NOT NEEDED.
    -------------------------------------------------------------------------
CODE
  Relative segment, address: CODE_AREA 00001984 - 00001B53 (0x1d0 bytes), align: 2
  Segment part 3.
           ENTRY                   ADDRESS         REF BY
           =====                   =======         ======
           _Dscale                 00001984        _Exp (?xexp)
               stack 1 = 00000000 ( 00000010 )
    -------------------------------------------------------------------------
CODE
  Segment part 4. NOT NEEDED. Intra module refs:   _Dscale
    -------------------------------------------------------------------------
CSTACK
  Segment part 1. NOT NEEDED.

    -------------------------------------------------------------------------
  LIBRARY MODULE, NAME : ?xexp

  SEGMENTS IN THE MODULE
  ======================
CODE
  Segment part 2. NOT NEEDED.
    -------------------------------------------------------------------------
CODE
  Relative segment, address: CODE_AREA 00001B54 - 00001E47 (0x2f4 bytes), align: 2
  Segment part 3.
           ENTRY                   ADDRESS         REF BY
           =====                   =======         ======
           _Exp                    00001B54        pow (?pow)
               stack 1 = 00000000 ( 00000030 )
    -------------------------------------------------------------------------
CODE
  Segment part 4. NOT NEEDED. Intra module refs:   _Exp
    -------------------------------------------------------------------------
CODE
  Segment part 5. NOT NEEDED. Intra module refs:   _Exp
    -------------------------------------------------------------------------
CODE
  Segment part 6. NOT NEEDED. Intra module refs:   _Exp
    -------------------------------------------------------------------------
CODE
  Segment part 7. NOT NEEDED. Intra module refs:   _Exp
    -------------------------------------------------------------------------
CODE
  Segment part 8. NOT NEEDED. Intra module refs:   _Exp
    -------------------------------------------------------------------------
CODE
  Segment part 9. NOT NEEDED. Intra module refs:   _Exp
    -------------------------------------------------------------------------
CODE
  Segment part 10. NOT NEEDED.Intra module refs:   _Exp
    -------------------------------------------------------------------------
CODE
  Segment part 11. NOT NEEDED.Intra module refs:   _Exp
    -------------------------------------------------------------------------
CODE
  Segment part 12. NOT NEEDED.Intra module refs:   _Exp
    -------------------------------------------------------------------------
CODE
  Segment part 13. NOT NEEDED.Intra module refs:   _Exp
    -------------------------------------------------------------------------
CSTACK
  Segment part 1. NOT NEEDED.

    -------------------------------------------------------------------------
  LIBRARY MODULE, NAME : ?xlog

  SEGMENTS IN THE MODULE
  ======================
CODE
  Segment part 2. NOT NEEDED.
    -------------------------------------------------------------------------
CODE
  Relative segment, address: CODE_AREA 00001E48 - 000022DF (0x498 bytes), align: 2
  Segment part 3.
           ENTRY                   ADDRESS         REF BY
           =====                   =======         ======
           _Log                    00001E48        pow (?pow)
               stack 1 = 00000000 ( 00000030 )
    -------------------------------------------------------------------------
CODE
  Segment part 4. NOT NEEDED. Intra module refs:   _Log
    -------------------------------------------------------------------------
CODE
  Segment part 5. NOT NEEDED. Intra module refs:   _Log
    -------------------------------------------------------------------------
CODE
  Segment part 6. NOT NEEDED. Intra module refs:   _Log
    -------------------------------------------------------------------------
CODE
  Segment part 7. NOT NEEDED. Intra module refs:   _Log
    -------------------------------------------------------------------------
CODE
  Segment part 8. NOT NEEDED. Intra module refs:   _Log
    -------------------------------------------------------------------------
CODE
  Segment part 9. NOT NEEDED. Intra module refs:   _Log
    -------------------------------------------------------------------------
CODE
  Segment part 10. NOT NEEDED.Intra module refs:   _Log
    -------------------------------------------------------------------------
CODE
  Segment part 11. NOT NEEDED.Intra module refs:   _Log
    -------------------------------------------------------------------------
CSTACK
  Segment part 1. NOT NEEDED.

    -------------------------------------------------------------------------
  LIBRARY MODULE, NAME : ?xstoul

  SEGMENTS IN THE MODULE
  ======================
DATA_C
  Relative segment, address: CODE_AREA 00003214 - 00003263 (0x50 bytes), align: 2
  Segment part 2.             Intra module refs:   _Stoul
    -------------------------------------------------------------------------
CODE
  Segment part 3. NOT NEEDED.
    -------------------------------------------------------------------------
CODE
  Relative segment, address: CODE_AREA 000022E0 - 0000248B (0x1ac bytes), align: 2
  Segment part 4.
           ENTRY                   ADDRESS         REF BY
           =====                   =======         ======
           _Stoul                  000022E0        strtoul (?strtoul)
               stack 1 = 00000000 ( 00000030 )
    -------------------------------------------------------------------------
CODE
  Segment part 5. NOT NEEDED. Intra module refs:   _Stoul
    -------------------------------------------------------------------------
CODE
  Segment part 6. NOT NEEDED. Intra module refs:   _Stoul
    -------------------------------------------------------------------------
CODE
  Segment part 7. NOT NEEDED. Intra module refs:   _Stoul
    -------------------------------------------------------------------------
CSTACK
  Segment part 1. NOT NEEDED.

    -------------------------------------------------------------------------
  LIBRARY MODULE, NAME : ?xvalues

  SEGMENTS IN THE MODULE
  ======================
DATA_C
  Segment part 2. NOT NEEDED.
           ENTRY                   ADDRESS         REF BY
           =====                   =======         ======
           _Denorm                 
    -------------------------------------------------------------------------
DATA_C
  Relative segment, address: CODE_AREA 00003264 - 0000326B (0x8 bytes), align: 2
  Segment part 3.
           ENTRY                   ADDRESS         REF BY
           =====                   =======         ======
           _Eps                    00003264        _Exp (?xexp)
    -------------------------------------------------------------------------
DATA_C
  Segment part 4. NOT NEEDED.
           ENTRY                   ADDRESS         REF BY
           =====                   =======         ======
           _Hugeval                
    -------------------------------------------------------------------------
DATA_C
  Relative segment, address: CODE_AREA 0000326C - 00003273 (0x8 bytes), align: 2
  Segment part 5.
           ENTRY                   ADDRESS         REF BY
           =====                   =======         ======
           _Inf                    0000326C        _Dscale (?xdscale)
                                                   _Exp (?xexp)
                                                   _Log (?xlog)
                                                   pow (?pow)
    -------------------------------------------------------------------------
DATA_C
  Relative segment, address: CODE_AREA 00003274 - 0000327B (0x8 bytes), align: 2
  Segment part 6.
           ENTRY                   ADDRESS         REF BY
           =====                   =======         ======
           _Nan                    00003274        _Log (?xlog)
                                                   pow (?pow)
    -------------------------------------------------------------------------
DATA_C
  Segment part 7. NOT NEEDED.
           ENTRY                   ADDRESS         REF BY
           =====                   =======         ======
           _Rteps                  
    -------------------------------------------------------------------------
DATA_C
  Segment part 8. NOT NEEDED.
           ENTRY                   ADDRESS         REF BY
           =====                   =======         ======
           _Snan                   
    -------------------------------------------------------------------------
DATA_C
  Segment part 9. NOT NEEDED.
           ENTRY                   ADDRESS         REF BY
           =====                   =======         ======
           _Xbig                   
    -------------------------------------------------------------------------
DATA_C
  Relative segment, address: CODE_AREA 0000327C - 00003283 (0x8 bytes), align: 2
  Segment part 10.
           ENTRY                   ADDRESS         REF BY
           =====                   =======         ======
           _Zero                   0000327C        pow (?pow)
    -------------------------------------------------------------------------
CSTACK
  Segment part 1. NOT NEEDED.

    -------------------------------------------------------------------------
  LIBRARY MODULE, NAME : ?div_module

  SEGMENTS IN THE MODULE
  ======================
CODE
  Segment part 0. NOT NEEDED.
           ENTRY                   ADDRESS         REF BY
           =====                   =======         ======
           ??divu8_t               
    -------------------------------------------------------------------------
CODE
  Segment part 1. NOT NEEDED.
           ENTRY                   ADDRESS         REF BY
           =====                   =======         ======
           ??divu8_a               
    -------------------------------------------------------------------------
CODE
  Segment part 2. NOT NEEDED.
           ENTRY                   ADDRESS         REF BY
           =====                   =======         ======
           ??divu16_t              
    -------------------------------------------------------------------------
CODE
  Segment part 3. NOT NEEDED.
           ENTRY                   ADDRESS         REF BY
           =====                   =======         ======
           ??divu16_a              
    -------------------------------------------------------------------------
CODE
  Segment part 4. NOT NEEDED.
           ENTRY                   ADDRESS         REF BY
           =====                   =======         ======
           ??divu32_t              
    -------------------------------------------------------------------------
CODE
  Relative segment, address: CODE_AREA 0000248C - 00002497 (0xc bytes), align: 2
  Segment part 5.
           ENTRY                   ADDRESS         REF BY
           =====                   =======         ======
           ??divu32_a              0000248C        _Stoul (?xstoul)
    -------------------------------------------------------------------------
CODE
  Segment part 6. NOT NEEDED.
           ENTRY                   ADDRESS         REF BY
           =====                   =======         ======
           ??div8_t                
    -------------------------------------------------------------------------
CODE
  Segment part 7. NOT NEEDED.
           ENTRY                   ADDRESS         REF BY
           =====                   =======         ======
           ??div8_a                
    -------------------------------------------------------------------------
CODE
  Segment part 8. NOT NEEDED.
           ENTRY                   ADDRESS         REF BY
           =====                   =======         ======
           ??div16_t               
    -------------------------------------------------------------------------
CODE
  Segment part 9. NOT NEEDED.
           ENTRY                   ADDRESS         REF BY
           =====                   =======         ======
           ??div16_a               
    -------------------------------------------------------------------------
CODE
  Segment part 10. NOT NEEDED.
           ENTRY                   ADDRESS         REF BY
           =====                   =======         ======
           ??div32_t               
    -------------------------------------------------------------------------
CODE
  Segment part 11. NOT NEEDED.
           ENTRY                   ADDRESS         REF BY
           =====                   =======         ======
           ??div32_a               
    -------------------------------------------------------------------------
CODE
  Relative segment, address: CODE_AREA 00002498 - 0000256F (0xd8 bytes), align: 2
  Segment part 12.            Intra module refs:   ??divu32_a

    -------------------------------------------------------------------------
  LIBRARY MODULE, NAME : ?GetDenormal

  SEGMENTS IN THE MODULE
  ======================
CODE
  Relative segment, address: CODE_AREA 00002570 - 000025CF (0x60 bytes), align: 2
  Segment part 0.
           ENTRY                   ADDRESS         REF BY
           =====                   =======         ======
           ?GetDenormalX           00002570        Segment part 1 (?D_DivDouble)
                                                   Segment part 1 (?D_MulFloat)
           ?GetDenormalY           000025A0        Segment part 1 (?D_DivDouble)
                                                   Segment part 1 (?D_MulFloat)

    -------------------------------------------------------------------------
  LIBRARY MODULE, NAME : ?D_LONG2DOUBLE

  SEGMENTS IN THE MODULE
  ======================
CODE
  Segment part 0. NOT NEEDED.
           ENTRY                   ADDRESS         REF BY
           =====                   =======         ======
           __longToDouble::??rT    
    -------------------------------------------------------------------------
CODE
  Relative segment, address: CODE_AREA 000025D0 - 0000262B (0x5c bytes), align: 2
  Segment part 1.
           ENTRY                   ADDRESS         REF BY
           =====                   =======         ======
           __aeabi_i2d             000025D0 
           __longToDouble          000025D0        _Exp (?xexp)
                                                   _Log (?xlog)
                                                   bin2dec (main)
                                                   hex2dec (main)
                                                   oct2dec (main)
                                                   pow (?pow)
           __longToDouble::??rA    000025D0 
           __longToDubleStart      000025EC 

    -------------------------------------------------------------------------
  LIBRARY MODULE, NAME : ?D_DOUBLE2LONG

  SEGMENTS IN THE MODULE
  ======================
CODE
  Segment part 0. NOT NEEDED.
           ENTRY                   ADDRESS         REF BY
           =====                   =======         ======
           __doubleToLong::??rT    
    -------------------------------------------------------------------------
CODE
  Relative segment, address: CODE_AREA 0000262C - 0000268B (0x60 bytes), align: 2
  Segment part 1.
           ENTRY                   ADDRESS         REF BY
           =====                   =======         ======
           __aeabi_d2iz            0000262C 
           __doubleToLong          0000262C        _Exp (?xexp)
                                                   bin2dec (main)
                                                   hex2dec (main)
                                                   oct2dec (main)
                                                   pow (?pow)
           __doubleToLong::??rA    0000262C 

    -------------------------------------------------------------------------
  LIBRARY MODULE, NAME : ?DBL_EQ

  SEGMENTS IN THE MODULE
  ======================
CODE
  Relative segment, address: CODE_AREA 0000268C - 000026BF (0x34 bytes), align: 2
  Segment part 0.
           ENTRY                   ADDRESS         REF BY
           =====                   =======         ======
           __aeabi_cdcmpeq         0000268C        Segment part 1 (?D_CmpFloat)
                                                   __dNotEqual (?D_CmpFloat1)

    -------------------------------------------------------------------------
  LIBRARY MODULE, NAME : ?D_CmpFloat

  SEGMENTS IN THE MODULE
  ======================
CODE
  Segment part 0. NOT NEEDED.
           ENTRY                   ADDRESS         REF BY
           =====                   =======         ======
           __dEqual::??rT          
    -------------------------------------------------------------------------
CODE
  Relative segment, address: CODE_AREA 000026C0 - 000026D7 (0x18 bytes), align: 2
  Segment part 1.
           ENTRY                   ADDRESS         REF BY
           =====                   =======         ======
           __aeabi_dcmpeq          000026C0 
           __dEqual                000026C0        _Exp (?xexp)
                                                   pow (?pow)
           __dEqual::??rA          000026C0 

    -------------------------------------------------------------------------
  LIBRARY MODULE, NAME : ?D_CmpFloat1

  SEGMENTS IN THE MODULE
  ======================
CODE
  Segment part 0. NOT NEEDED.
           ENTRY                   ADDRESS         REF BY
           =====                   =======         ======
           __dNotEqual::??rT       
    -------------------------------------------------------------------------
CODE
  Relative segment, address: CODE_AREA 000026D8 - 000026EF (0x18 bytes), align: 2
  Segment part 1.
           ENTRY                   ADDRESS         REF BY
           =====                   =======         ======
           __dNotEqual             000026D8        pow (?pow)
           __dNotEqual::??rA       000026D8 

    -------------------------------------------------------------------------
  LIBRARY MODULE, NAME : ?SetInvalidFlag

  SEGMENTS IN THE MODULE
  ======================
CODE
  Relative segment, address: CODE_AREA 000026F0 - 0000270B (0x1c bytes), align: 2
  Segment part 0.
           ENTRY                   ADDRESS         REF BY
           =====                   =======         ======
           ?SetInvalidFlag         000026F4        __aeabi_cdcmple (?DBL_LT)
           ?SetInvalidFlagClr      000026F0        __aeabi_cdrcmple (?DBL_GE)

    -------------------------------------------------------------------------
  LIBRARY MODULE, NAME : ?DBL_GE

  SEGMENTS IN THE MODULE
  ======================
CODE
  Relative segment, address: CODE_AREA 0000270C - 0000274B (0x40 bytes), align: 2
  Segment part 0.
           ENTRY                   ADDRESS         REF BY
           =====                   =======         ======
           __aeabi_cdrcmple        0000270C        Segment part 1 (?D_CmpFloat5)

    -------------------------------------------------------------------------
  LIBRARY MODULE, NAME : ?D_CmpFloat5

  SEGMENTS IN THE MODULE
  ======================
CODE
  Segment part 0. NOT NEEDED.
           ENTRY                   ADDRESS         REF BY
           =====                   =======         ======
           __dGreaterEqual::??rT   
    -------------------------------------------------------------------------
CODE
  Relative segment, address: CODE_AREA 0000274C - 00002763 (0x18 bytes), align: 2
  Segment part 1.
           ENTRY                   ADDRESS         REF BY
           =====                   =======         ======
           __aeabi_dcmpge          0000274C 
           __dGreaterEqual         0000274C        _Exp (?xexp)
                                                   pow (?pow)
           __dGreaterEqual::??rA   0000274C 

    -------------------------------------------------------------------------
  LIBRARY MODULE, NAME : ?DBL_LT

  SEGMENTS IN THE MODULE
  ======================
CODE
  Relative segment, address: CODE_AREA 00002764 - 000027A3 (0x40 bytes), align: 2
  Segment part 0.
           ENTRY                   ADDRESS         REF BY
           =====                   =======         ======
           __aeabi_cdcmple         00002764        Segment part 1 (?D_CmpFloat4)

    -------------------------------------------------------------------------
  LIBRARY MODULE, NAME : ?D_CmpFloat4

  SEGMENTS IN THE MODULE
  ======================
CODE
  Segment part 0. NOT NEEDED.
           ENTRY                   ADDRESS         REF BY
           =====                   =======         ======
           __dLess::??rT           
    -------------------------------------------------------------------------
CODE
  Relative segment, address: CODE_AREA 000027A4 - 000027BB (0x18 bytes), align: 2
  Segment part 1.
           ENTRY                   ADDRESS         REF BY
           =====                   =======         ======
           __dLess                 000027A4        _Exp (?xexp)
                                                   _Log (?xlog)
                                                   pow (?pow)
           __dLess::??rA           000027A4 
           __aeabi_dcmplt          000027A4 

    -------------------------------------------------------------------------
  LIBRARY MODULE, NAME : ?D_MulFloat

  SEGMENTS IN THE MODULE
  ======================
CODE
  Segment part 0. NOT NEEDED.
           ENTRY                   ADDRESS         REF BY
           =====                   =======         ======
           __dMul::??rT            
    -------------------------------------------------------------------------
CODE
  Relative segment, address: CODE_AREA 000027BC - 000029F3 (0x238 bytes), align: 2
  Segment part 1.
           ENTRY                   ADDRESS         REF BY
           =====                   =======         ======
           __dMul                  000027BC        _Exp (?xexp)
                                                   _Log (?xlog)
                                                   hex2dec (main)
                                                   oct2dec (main)
                                                   pow (?pow)
           __dMul::??rA            000027BC 
           __aeabi_dmul            000027BC 

    -------------------------------------------------------------------------
  LIBRARY MODULE, NAME : ?D_DivDouble

  SEGMENTS IN THE MODULE
  ======================
CODE
  Segment part 0. NOT NEEDED.
           ENTRY                   ADDRESS         REF BY
           =====                   =======         ======
           __dDiv::??rT            
    -------------------------------------------------------------------------
CODE
  Relative segment, address: CODE_AREA 000029F4 - 00002D27 (0x334 bytes), align: 2
  Segment part 1.
           ENTRY                   ADDRESS         REF BY
           =====                   =======         ======
           __aeabi_ddiv            000029F4 
           __dDiv                  000029F4        _Exp (?xexp)
                                                   _Log (?xlog)
                                                   pow (?pow)
           __dDiv::??rA            000029F4 

    -------------------------------------------------------------------------
  LIBRARY MODULE, NAME : ?D_SubDouble

  SEGMENTS IN THE MODULE
  ======================
CODE
  Segment part 0. NOT NEEDED.
           ENTRY                   ADDRESS         REF BY
           =====                   =======         ======
           __dSub::??rT            
    -------------------------------------------------------------------------
CODE
  Relative segment, address: CODE_AREA 00002D28 - 00002F1F (0x1f8 bytes), align: 2
  Segment part 1.
           ENTRY                   ADDRESS         REF BY
           =====                   =======         ======
           __aeabi_dsub            00002D28 
           __dSub                  00002D28        _Exp (?xexp)
                                                   _Log (?xlog)
                                                   pow (?pow)
           __dSub::??rA            00002D28 
           __DoSub                 00002D38        Segment part 1 (?D_AddDouble)

    -------------------------------------------------------------------------
  LIBRARY MODULE, NAME : ?D_AddDouble

  SEGMENTS IN THE MODULE
  ======================
CODE
  Segment part 0. NOT NEEDED.
           ENTRY                   ADDRESS         REF BY
           =====                   =======         ======
           __dAdd::??rT            
    -------------------------------------------------------------------------
CODE
  Relative segment, address: CODE_AREA 00002F20 - 00003063 (0x144 bytes), align: 2
  Segment part 1.
           ENTRY                   ADDRESS         REF BY
           =====                   =======         ======
           __aeabi_dadd            00002F20 
           __dAdd                  00002F20        _Exp (?xexp)
                                                   _Log (?xlog)
                                                   bin2dec (main)
                                                   hex2dec (main)
                                                   oct2dec (main)
                                                   pow (?pow)
           __dAdd::??rA            00002F20 
           __DoAdd                 00002F30        Segment part 1 (?D_SubDouble)




                ****************************************
                *                                      *
                *            MODULE SUMMARY            *
                *                                      *
                ****************************************

Module             CODE   DATA
------             ----   ----
                  (Rel)  (Rel)
?DBL_EQ              52
?DBL_GE              64
?DBL_LT              64
?D_AddDouble        324
?D_CmpFloat          24
?D_CmpFloat1         24
?D_CmpFloat4         24
?D_CmpFloat5         24
?D_DOUBLE2LONG       96
?D_DivDouble        820
?D_LONG2DOUBLE       92
?D_MulFloat         568
?D_SubDouble        504
?GetDenormal         96
?SetInvalidFlag      28
?div_module         228
?errno               44
?fpStatus             4
?memchr              44
?pow              1 872
?strtoul             16
?xdint              396
?xdnorm             336
?xdscale            464
?xexp               756
?xlog             1 176
?xstoul             508
?xvalues             32
main              3 959    312
  + shared           24
menu                600     44
N/A (alignment)
------           ------    ---
Total:           13 263    356


                ****************************************
                *                                      *
                *              CALL GRAPH              *
                *                                      *
                ****************************************

  ->Sub-tree of type: Indirectly called function tree that does not make
                    : indirect calls (Is not an interrupt and is not flagged
                    : as not overlayable)
                             CSTACK
    | Stack used (prev) :  00000000
  01  empty_onkey
      | Stack used (prev) :  00000000
      | + function block  :  00000008
  <-Sub-tree of type: Indirectly called function tree that does not make
                    : indirect calls (Is not an interrupt and is not flagged
                    : as not overlayable)
    | Stack used          :  00000008


  ->Sub-tree of type: Indirectly called function tree that does not make
                    : indirect calls (Is not an interrupt and is not flagged
                    : as not overlayable)
                             CSTACK
    | Stack used (prev) :  00000000
  01  empty_locret
      | Stack used (prev) :  00000000
      | + function block  :  00000000
  <-Sub-tree of type: Indirectly called function tree that does not make
                    : indirect calls (Is not an interrupt and is not flagged
                    : as not overlayable)
    | Stack used          :  00000000


  ->Sub-tree of type: Indirectly called function tree that does not make
                    : indirect calls (Is not an interrupt and is not flagged
                    : as not overlayable)
                             CSTACK
    | Stack used (prev) :  00000000
  01  empty_ghook
      | Stack used (prev) :  00000000
      | + function block  :  00000004
  <-Sub-tree of type: Indirectly called function tree that does not make
                    : indirect calls (Is not an interrupt and is not flagged
                    : as not overlayable)
    | Stack used          :  00000004


  ->Sub-tree of type: Indirectly called function tree that does not make
                    : indirect calls (Is not an interrupt and is not flagged
                    : as not overlayable)
                             CSTACK
    | Stack used (prev) :  00000000
  01  pos_onkey
      | Stack used (prev) :  00000000
      | + function block  :  00000058
  <-Sub-tree of type: Indirectly called function tree that does not make
                    : indirect calls (Is not an interrupt and is not flagged
                    : as not overlayable)
    | Stack used          :  00000058


  ->Sub-tree of type: Indirectly called function tree that does not make
                    : indirect calls (Is not an interrupt and is not flagged
                    : as not overlayable)
                             CSTACK
    | Stack used (prev) :  00000000
  01  pos_ghook
      | Stack used (prev) :  00000000
      | + function block  :  00000004
  <-Sub-tree of type: Indirectly called function tree that does not make
                    : indirect calls (Is not an interrupt and is not flagged
                    : as not overlayable)
    | Stack used          :  00000004


  ->Sub-tree of type: Indirectly called function tree that does not make
                    : indirect calls (Is not an interrupt and is not flagged
                    : as not overlayable)
                             CSTACK
    | Stack used (prev) :  00000000
  01  pos_locret
      | Stack used (prev) :  00000000
      | + function block  :  00000000
  <-Sub-tree of type: Indirectly called function tree that does not make
                    : indirect calls (Is not an interrupt and is not flagged
                    : as not overlayable)
    | Stack used          :  00000000


  ->Sub-tree of type: Indirectly called function tree that does not make
                    : indirect calls (Is not an interrupt and is not flagged
                    : as not overlayable)
                             CSTACK
    | Stack used (prev) :  00000000
  01  maincsm_oncreate
      | Stack used (prev) :  00000000
      | + function block  :  00000008
  <-Sub-tree of type: Indirectly called function tree that does not make
                    : indirect calls (Is not an interrupt and is not flagged
                    : as not overlayable)
    | Stack used          :  00000008


  ->Sub-tree of type: Indirectly called function tree that does not make
                    : indirect calls (Is not an interrupt and is not flagged
                    : as not overlayable)
                             CSTACK
    | Stack used (prev) :  00000000
  01  Killer
      | Stack used (prev) :  00000000
      | + function block  :  00000000
  <-Sub-tree of type: Indirectly called function tree that does not make
                    : indirect calls (Is not an interrupt and is not flagged
                    : as not overlayable)
    | Stack used          :  00000000


  ->Sub-tree of type: Indirectly called function tree that does not make
                    : indirect calls (Is not an interrupt and is not flagged
                    : as not overlayable)
                             CSTACK
    | Stack used (prev) :  00000000
  01  maincsm_onclose
      | Stack used (prev) :  00000000
      | + function block  :  00000004
  <-Sub-tree of type: Indirectly called function tree that does not make
                    : indirect calls (Is not an interrupt and is not flagged
                    : as not overlayable)
    | Stack used          :  00000004


  ->Sub-tree of type: Indirectly called function tree that does not make
                    : indirect calls (Is not an interrupt and is not flagged
                    : as not overlayable)
                             CSTACK
    | Stack used (prev) :  00000000
  01  maincsm_onmessage
      | Stack used (prev) :  00000000
      | + function block  :  00000000
  <-Sub-tree of type: Indirectly called function tree that does not make
                    : indirect calls (Is not an interrupt and is not flagged
                    : as not overlayable)
    | Stack used          :  00000000


  ->Sub-tree of type: Indirectly called function tree that does not make
                    : indirect calls (Is not an interrupt and is not flagged
                    : as not overlayable)
                             CSTACK
    | Stack used (prev) :  00000000
  01  menu_ghook
      | Stack used (prev) :  00000000
      | + function block  :  00000000
  <-Sub-tree of type: Indirectly called function tree that does not make
                    : indirect calls (Is not an interrupt and is not flagged
                    : as not overlayable)
    | Stack used          :  00000000


  ->Sub-tree of type: Indirectly called function tree that does not make
                    : indirect calls (Is not an interrupt and is not flagged
                    : as not overlayable)
                             CSTACK
    | Stack used (prev) :  00000000
  01  menu_iconhnd
      | Stack used (prev) :  00000000
      | + function block  :  00000020
  <-Sub-tree of type: Indirectly called function tree that does not make
                    : indirect calls (Is not an interrupt and is not flagged
                    : as not overlayable)
    | Stack used          :  00000020


  ->Sub-tree of type: Indirectly called function tree that does not make
                    : indirect calls (Is not an interrupt and is not flagged
                    : as not overlayable)
                             CSTACK
    | Stack used (prev) :  00000000
  01  menu_onkey2
      | Stack used (prev) :  00000000
      | + function block  :  00000008
  <-Sub-tree of type: Indirectly called function tree that does not make
                    : indirect calls (Is not an interrupt and is not flagged
                    : as not overlayable)
    | Stack used          :  00000008


  ->Sub-tree of type: Indirectly called function tree that does not make
                    : indirect calls (Is not an interrupt and is not flagged
                    : as not overlayable)
                             CSTACK
    | Stack used (prev) :  00000000
  01  strtoul
      | Stack used (prev) :  00000000
      | + function block  :  00000008
  <-Sub-tree of type: Indirectly called function tree that does not make
                    : indirect calls (Is not an interrupt and is not flagged
                    : as not overlayable)
    | Stack used          :  00000008


  ->Sub-tree of type: Function tree
                             CSTACK
    | Stack used (prev) :  00000058
  01  about
      | Stack used (prev) :  00000058
      | + function block  :  00000088
  <-Sub-tree of type: Function tree
    | Stack used          :  000000E0


  ->Sub-tree of type: Function tree
                             CSTACK
    | Stack used (prev) :  000000E0
  01  dec2bin
      | Stack used (prev) :  000000E0
      | + function block  :  00000020
  <-Sub-tree of type: Function tree
    | Stack used          :  00000100


  ->Sub-tree of type: Function tree
                             CSTACK
    | Stack used (prev) :  00000100
  01  bin2dec
      | Stack used (prev) :  00000100
      | + function block  :  0000001C
  <-Sub-tree of type: Function tree
    | Stack used          :  0000011C


  ->Sub-tree of type: Function tree
                             CSTACK
    | Stack used (prev) :  0000011C
  01  dec2oct
      | Stack used (prev) :  0000011C
      | + function block  :  00000020
  <-Sub-tree of type: Function tree
    | Stack used          :  0000013C


  ->Sub-tree of type: Function tree
                             CSTACK
    | Stack used (prev) :  0000013C
  01  oct2dec
      | Stack used (prev) :  0000013C
      | + function block  :  00000028
  <-Sub-tree of type: Function tree
    | Stack used          :  00000164


  ->Sub-tree of type: Function tree
                             CSTACK
    | Stack used (prev) :  00000164
  01  hex2dec
      | Stack used (prev) :  00000164
      | + function block  :  00000028
  <-Sub-tree of type: Function tree
    | Stack used          :  0000018C


  ->Sub-tree of type: Function tree
                             CSTACK
    | Stack used (prev) :  0000018C
  01  ed_create
      | Stack used (prev) :  0000018C
      | + function block  :  00000084
  <-Sub-tree of type: Function tree
    | Stack used          :  00000210


  ->Sub-tree of type: Function tree
                             CSTACK
    | Stack used (prev) :  00000210
  01  input
      | Stack used (prev) :  00000210
      | + function block  :  00000044
  <-Sub-tree of type: Function tree
    | Stack used          :  00000254


  ->Sub-tree of type: Function tree
                             CSTACK
    | Stack used (prev) :  00000254
  01  UpdateCSMname
      | Stack used (prev) :  00000254
      | + function block  :  00000004
  <-Sub-tree of type: Function tree
    | Stack used          :  00000258


  ->Sub-tree of type: Function tree
                             CSTACK
    | Stack used (prev) :  00000258
  01  main
      | Stack used (prev) :  00000258
      | + function block  :  00000030
  <-Sub-tree of type: Function tree
    | Stack used          :  00000288


  ->Sub-tree of type: Function tree
                             CSTACK
    | Stack used (prev) :  00000288
  01  ShowMainMenu
      | Stack used (prev) :  00000288
      | + function block  :  00000018
  <-Sub-tree of type: Function tree
    | Stack used          :  000002A0


  ->Sub-tree of type: Function tree
                             CSTACK
    | Stack used (prev) :  000002A0
  01  _Geterrno
      | Stack used (prev) :  000002A0
      | + function block  :  00000008
  <-Sub-tree of type: Function tree
    | Stack used          :  000002A8


  ->Sub-tree of type: Function tree
                             CSTACK
    | Stack used (prev) :  000002A8
  01  _Memchr
      | Stack used (prev) :  000002A8
      | + function block  :  00000000
  <-Sub-tree of type: Function tree
    | Stack used          :  000002A8


  ->Sub-tree of type: Function tree
                             CSTACK
    | Stack used (prev) :  000002A8
  01  pow
      | Stack used (prev) :  000002A8
      | + function block  :  00000058
  <-Sub-tree of type: Function tree
    | Stack used          :  00000300


  ->Sub-tree of type: Function tree
                             CSTACK
    | Stack used (prev) :  00000300
  01  _Dint
      | Stack used (prev) :  00000300
      | + function block  :  00000008
  <-Sub-tree of type: Function tree
    | Stack used          :  00000308


  ->Sub-tree of type: Function tree
                             CSTACK
    | Stack used (prev) :  00000308
  01  _Dnorm
      | Stack used (prev) :  00000308
      | + function block  :  00000000
  <-Sub-tree of type: Function tree
    | Stack used          :  00000308


  ->Sub-tree of type: Function tree
                             CSTACK
    | Stack used (prev) :  00000308
  01  _Dscale
      | Stack used (prev) :  00000308
      | + function block  :  00000010
  <-Sub-tree of type: Function tree
    | Stack used          :  00000318


  ->Sub-tree of type: Function tree
                             CSTACK
    | Stack used (prev) :  00000318
  01  _Exp
      | Stack used (prev) :  00000318
      | + function block  :  00000030
  <-Sub-tree of type: Function tree
    | Stack used          :  00000348


  ->Sub-tree of type: Function tree
                             CSTACK
    | Stack used (prev) :  00000348
  01  _Log
      | Stack used (prev) :  00000348
      | + function block  :  00000030
  <-Sub-tree of type: Function tree
    | Stack used          :  00000378


  ->Sub-tree of type: Function tree
                             CSTACK
    | Stack used (prev) :  00000378
  01  _Stoul
      | Stack used (prev) :  00000378
      | + function block  :  00000030
  <-Sub-tree of type: Function tree
    | Stack used          :  000003A8




                ****************************************
                *                                      *
                *      SEGMENTS IN ADDRESS ORDER       *
                *                                      *
                ****************************************


SEGMENT              SPACE    START ADDRESS   END ADDRESS     SIZE  TYPE  ALIGN
=======              =====    =============   ===========     ====  ====  =====
ELFBEGIN             CODE_AREA           00000000                     dse    0
DATA_ID              CODE_AREA      00000000 - 00000163         164   rel    2
START                CODE_AREA           00000164                     dse    0
CODE                 CODE_AREA      00000164 - 00003063        2F00   rel    2
DATA_C               CODE_AREA      00003064 - 00003286         223   rel    2
INITTAB              CODE_AREA      00003288 - 0000329F          18   rel    2
DATA_Z               CODE_AREA      000032A0 - 000033CF         130   rel    2
DATA_I               DATA_AREA      00000000 - 00000163         164   rel    2

                ****************************************
                *                                      *
                *        END OF CROSS REFERENCE        *
                *                                      *
                ****************************************

 13 263 bytes of CODE memory
    356 bytes of DATA memory

Errors: none
Warnings: none

